GAS LISTING /tmp/ccZJW6Kf.s 			page 1


   1              		.file	"agenttiny.c"
   2              		.text
   3              	.Ltext0:
   4              		.section	.text.atiny_check_bootstrap_init_param,"ax",@progbits
   6              	atiny_check_bootstrap_init_param:
   7              	.LFB73:
   8              		.file 1 "/home/baikal/workspace/C50/Huawei_IoT_Agent_Tiny_SDK_Linux//agent_tiny/lwm2m_client/agent
   1:/home/baikal/workspace/C50/Huawei_IoT_Agent_Tiny_SDK_Linux//agent_tiny/lwm2m_client/agenttiny.c **** /*----------------------------------------------------------------------------
   2:/home/baikal/workspace/C50/Huawei_IoT_Agent_Tiny_SDK_Linux//agent_tiny/lwm2m_client/agenttiny.c ****  * Copyright (c) <2016-2018>, <Huawei Technologies Co., Ltd>
   3:/home/baikal/workspace/C50/Huawei_IoT_Agent_Tiny_SDK_Linux//agent_tiny/lwm2m_client/agenttiny.c ****  * All rights reserved.
   4:/home/baikal/workspace/C50/Huawei_IoT_Agent_Tiny_SDK_Linux//agent_tiny/lwm2m_client/agenttiny.c ****  * Redistribution and use in source and binary forms, with or without modification,
   5:/home/baikal/workspace/C50/Huawei_IoT_Agent_Tiny_SDK_Linux//agent_tiny/lwm2m_client/agenttiny.c ****  * are permitted provided that the following conditions are met:
   6:/home/baikal/workspace/C50/Huawei_IoT_Agent_Tiny_SDK_Linux//agent_tiny/lwm2m_client/agenttiny.c ****  * 1. Redistributions of source code must retain the above copyright notice, this list of
   7:/home/baikal/workspace/C50/Huawei_IoT_Agent_Tiny_SDK_Linux//agent_tiny/lwm2m_client/agenttiny.c ****  * conditions and the following disclaimer.
   8:/home/baikal/workspace/C50/Huawei_IoT_Agent_Tiny_SDK_Linux//agent_tiny/lwm2m_client/agenttiny.c ****  * 2. Redistributions in binary form must reproduce the above copyright notice, this list
   9:/home/baikal/workspace/C50/Huawei_IoT_Agent_Tiny_SDK_Linux//agent_tiny/lwm2m_client/agenttiny.c ****  * of conditions and the following disclaimer in the documentation and/or other materials
  10:/home/baikal/workspace/C50/Huawei_IoT_Agent_Tiny_SDK_Linux//agent_tiny/lwm2m_client/agenttiny.c ****  * provided with the distribution.
  11:/home/baikal/workspace/C50/Huawei_IoT_Agent_Tiny_SDK_Linux//agent_tiny/lwm2m_client/agenttiny.c ****  * 3. Neither the name of the copyright holder nor the names of its contributors may be used
  12:/home/baikal/workspace/C50/Huawei_IoT_Agent_Tiny_SDK_Linux//agent_tiny/lwm2m_client/agenttiny.c ****  * to endorse or promote products derived from this software without specific prior written
  13:/home/baikal/workspace/C50/Huawei_IoT_Agent_Tiny_SDK_Linux//agent_tiny/lwm2m_client/agenttiny.c ****  * permission.
  14:/home/baikal/workspace/C50/Huawei_IoT_Agent_Tiny_SDK_Linux//agent_tiny/lwm2m_client/agenttiny.c ****  * THIS SOFTWARE IS PROVIDED BY THE COPYRIGHT HOLDERS AND CONTRIBUTORS
  15:/home/baikal/workspace/C50/Huawei_IoT_Agent_Tiny_SDK_Linux//agent_tiny/lwm2m_client/agenttiny.c ****  * "AS IS" AND ANY EXPRESS OR IMPLIED WARRANTIES, INCLUDING, BUT NOT LIMITED TO,
  16:/home/baikal/workspace/C50/Huawei_IoT_Agent_Tiny_SDK_Linux//agent_tiny/lwm2m_client/agenttiny.c ****  * THE IMPLIED WARRANTIES OF MERCHANTABILITY AND FITNESS FOR A PARTICULAR
  17:/home/baikal/workspace/C50/Huawei_IoT_Agent_Tiny_SDK_Linux//agent_tiny/lwm2m_client/agenttiny.c ****  * PURPOSE ARE DISCLAIMED. IN NO EVENT SHALL THE COPYRIGHT HOLDER OR
  18:/home/baikal/workspace/C50/Huawei_IoT_Agent_Tiny_SDK_Linux//agent_tiny/lwm2m_client/agenttiny.c ****  * CONTRIBUTORS BE LIABLE FOR ANY DIRECT, INDIRECT, INCIDENTAL, SPECIAL,
  19:/home/baikal/workspace/C50/Huawei_IoT_Agent_Tiny_SDK_Linux//agent_tiny/lwm2m_client/agenttiny.c ****  * EXEMPLARY, OR CONSEQUENTIAL DAMAGES (INCLUDING, BUT NOT LIMITED TO,
  20:/home/baikal/workspace/C50/Huawei_IoT_Agent_Tiny_SDK_Linux//agent_tiny/lwm2m_client/agenttiny.c ****  * PROCUREMENT OF SUBSTITUTE GOODS OR SERVICES; LOSS OF USE, DATA, OR PROFITS;
  21:/home/baikal/workspace/C50/Huawei_IoT_Agent_Tiny_SDK_Linux//agent_tiny/lwm2m_client/agenttiny.c ****  * OR BUSINESS INTERRUPTION) HOWEVER CAUSED AND ON ANY THEORY OF LIABILITY,
  22:/home/baikal/workspace/C50/Huawei_IoT_Agent_Tiny_SDK_Linux//agent_tiny/lwm2m_client/agenttiny.c ****  * WHETHER IN CONTRACT, STRICT LIABILITY, OR TORT (INCLUDING NEGLIGENCE OR
  23:/home/baikal/workspace/C50/Huawei_IoT_Agent_Tiny_SDK_Linux//agent_tiny/lwm2m_client/agenttiny.c ****  * OTHERWISE) ARISING IN ANY WAY OUT OF THE USE OF THIS SOFTWARE, EVEN IF
  24:/home/baikal/workspace/C50/Huawei_IoT_Agent_Tiny_SDK_Linux//agent_tiny/lwm2m_client/agenttiny.c ****  * ADVISED OF THE POSSIBILITY OF SUCH DAMAGE.
  25:/home/baikal/workspace/C50/Huawei_IoT_Agent_Tiny_SDK_Linux//agent_tiny/lwm2m_client/agenttiny.c ****  *---------------------------------------------------------------------------*/
  26:/home/baikal/workspace/C50/Huawei_IoT_Agent_Tiny_SDK_Linux//agent_tiny/lwm2m_client/agenttiny.c **** /*----------------------------------------------------------------------------
  27:/home/baikal/workspace/C50/Huawei_IoT_Agent_Tiny_SDK_Linux//agent_tiny/lwm2m_client/agenttiny.c ****  * Notice of Export Control Law
  28:/home/baikal/workspace/C50/Huawei_IoT_Agent_Tiny_SDK_Linux//agent_tiny/lwm2m_client/agenttiny.c ****  * ===============================================
  29:/home/baikal/workspace/C50/Huawei_IoT_Agent_Tiny_SDK_Linux//agent_tiny/lwm2m_client/agenttiny.c ****  * Huawei LiteOS may be subject to applicable export control laws and regulations, which might
  30:/home/baikal/workspace/C50/Huawei_IoT_Agent_Tiny_SDK_Linux//agent_tiny/lwm2m_client/agenttiny.c ****  * include those applicable to Huawei LiteOS of U.S. and the country in which you are located.
  31:/home/baikal/workspace/C50/Huawei_IoT_Agent_Tiny_SDK_Linux//agent_tiny/lwm2m_client/agenttiny.c ****  * Import, export and usage of Huawei LiteOS in any manner by you shall be in compliance with such
  32:/home/baikal/workspace/C50/Huawei_IoT_Agent_Tiny_SDK_Linux//agent_tiny/lwm2m_client/agenttiny.c ****  * applicable export control laws and regulations.
  33:/home/baikal/workspace/C50/Huawei_IoT_Agent_Tiny_SDK_Linux//agent_tiny/lwm2m_client/agenttiny.c ****  *---------------------------------------------------------------------------*/
  34:/home/baikal/workspace/C50/Huawei_IoT_Agent_Tiny_SDK_Linux//agent_tiny/lwm2m_client/agenttiny.c **** 
  35:/home/baikal/workspace/C50/Huawei_IoT_Agent_Tiny_SDK_Linux//agent_tiny/lwm2m_client/agenttiny.c **** #include "liblwm2m.h"
  36:/home/baikal/workspace/C50/Huawei_IoT_Agent_Tiny_SDK_Linux//agent_tiny/lwm2m_client/agenttiny.c **** #include "internals.h"
  37:/home/baikal/workspace/C50/Huawei_IoT_Agent_Tiny_SDK_Linux//agent_tiny/lwm2m_client/agenttiny.c **** #include "agenttiny.h"
  38:/home/baikal/workspace/C50/Huawei_IoT_Agent_Tiny_SDK_Linux//agent_tiny/lwm2m_client/agenttiny.c **** #include "object_comm.h"
  39:/home/baikal/workspace/C50/Huawei_IoT_Agent_Tiny_SDK_Linux//agent_tiny/lwm2m_client/agenttiny.c **** #include "connection.h"
  40:/home/baikal/workspace/C50/Huawei_IoT_Agent_Tiny_SDK_Linux//agent_tiny/lwm2m_client/agenttiny.c **** #include "atiny_log.h"
  41:/home/baikal/workspace/C50/Huawei_IoT_Agent_Tiny_SDK_Linux//agent_tiny/lwm2m_client/agenttiny.c **** #include "atiny_rpt.h"
  42:/home/baikal/workspace/C50/Huawei_IoT_Agent_Tiny_SDK_Linux//agent_tiny/lwm2m_client/agenttiny.c **** #include "atiny_adapter.h"
  43:/home/baikal/workspace/C50/Huawei_IoT_Agent_Tiny_SDK_Linux//agent_tiny/lwm2m_client/agenttiny.c **** #ifdef CONFIG_FEATURE_FOTA
  44:/home/baikal/workspace/C50/Huawei_IoT_Agent_Tiny_SDK_Linux//agent_tiny/lwm2m_client/agenttiny.c **** #include "atiny_fota_manager.h"
  45:/home/baikal/workspace/C50/Huawei_IoT_Agent_Tiny_SDK_Linux//agent_tiny/lwm2m_client/agenttiny.c **** #endif
  46:/home/baikal/workspace/C50/Huawei_IoT_Agent_Tiny_SDK_Linux//agent_tiny/lwm2m_client/agenttiny.c **** 
  47:/home/baikal/workspace/C50/Huawei_IoT_Agent_Tiny_SDK_Linux//agent_tiny/lwm2m_client/agenttiny.c **** #define SERVER_URI_MAX_LEN      (64)
  48:/home/baikal/workspace/C50/Huawei_IoT_Agent_Tiny_SDK_Linux//agent_tiny/lwm2m_client/agenttiny.c **** #define MAX_PACKET_SIZE         (1024)
  49:/home/baikal/workspace/C50/Huawei_IoT_Agent_Tiny_SDK_Linux//agent_tiny/lwm2m_client/agenttiny.c **** #define SERVER_ID               (123)
  50:/home/baikal/workspace/C50/Huawei_IoT_Agent_Tiny_SDK_Linux//agent_tiny/lwm2m_client/agenttiny.c **** #define BIND_TIMEOUT            (10)
GAS LISTING /tmp/ccZJW6Kf.s 			page 2


  51:/home/baikal/workspace/C50/Huawei_IoT_Agent_Tiny_SDK_Linux//agent_tiny/lwm2m_client/agenttiny.c **** 
  52:/home/baikal/workspace/C50/Huawei_IoT_Agent_Tiny_SDK_Linux//agent_tiny/lwm2m_client/agenttiny.c **** int g_reboot = 0;
  53:/home/baikal/workspace/C50/Huawei_IoT_Agent_Tiny_SDK_Linux//agent_tiny/lwm2m_client/agenttiny.c **** 
  54:/home/baikal/workspace/C50/Huawei_IoT_Agent_Tiny_SDK_Linux//agent_tiny/lwm2m_client/agenttiny.c **** enum
  55:/home/baikal/workspace/C50/Huawei_IoT_Agent_Tiny_SDK_Linux//agent_tiny/lwm2m_client/agenttiny.c **** {
  56:/home/baikal/workspace/C50/Huawei_IoT_Agent_Tiny_SDK_Linux//agent_tiny/lwm2m_client/agenttiny.c ****     OBJ_SECURITY_INDEX = 0,
  57:/home/baikal/workspace/C50/Huawei_IoT_Agent_Tiny_SDK_Linux//agent_tiny/lwm2m_client/agenttiny.c ****     OBJ_SERVER_INDEX,
  58:/home/baikal/workspace/C50/Huawei_IoT_Agent_Tiny_SDK_Linux//agent_tiny/lwm2m_client/agenttiny.c ****     OBJ_DEVICE_INDEX,
  59:/home/baikal/workspace/C50/Huawei_IoT_Agent_Tiny_SDK_Linux//agent_tiny/lwm2m_client/agenttiny.c ****     OBJ_FIRMWARE_INDEX,
  60:/home/baikal/workspace/C50/Huawei_IoT_Agent_Tiny_SDK_Linux//agent_tiny/lwm2m_client/agenttiny.c ****     OBJ_CONNECT_INDEX,
  61:/home/baikal/workspace/C50/Huawei_IoT_Agent_Tiny_SDK_Linux//agent_tiny/lwm2m_client/agenttiny.c ****     OBJ_APP_INDEX,
  62:/home/baikal/workspace/C50/Huawei_IoT_Agent_Tiny_SDK_Linux//agent_tiny/lwm2m_client/agenttiny.c ****     OBJ_MAX_NUM,
  63:/home/baikal/workspace/C50/Huawei_IoT_Agent_Tiny_SDK_Linux//agent_tiny/lwm2m_client/agenttiny.c **** };
  64:/home/baikal/workspace/C50/Huawei_IoT_Agent_Tiny_SDK_Linux//agent_tiny/lwm2m_client/agenttiny.c **** 
  65:/home/baikal/workspace/C50/Huawei_IoT_Agent_Tiny_SDK_Linux//agent_tiny/lwm2m_client/agenttiny.c **** typedef struct
  66:/home/baikal/workspace/C50/Huawei_IoT_Agent_Tiny_SDK_Linux//agent_tiny/lwm2m_client/agenttiny.c **** {
  67:/home/baikal/workspace/C50/Huawei_IoT_Agent_Tiny_SDK_Linux//agent_tiny/lwm2m_client/agenttiny.c ****     lwm2m_context_t  *lwm2m_context;
  68:/home/baikal/workspace/C50/Huawei_IoT_Agent_Tiny_SDK_Linux//agent_tiny/lwm2m_client/agenttiny.c ****     atiny_param_t     atiny_params;
  69:/home/baikal/workspace/C50/Huawei_IoT_Agent_Tiny_SDK_Linux//agent_tiny/lwm2m_client/agenttiny.c ****     client_data_t     client_data;
  70:/home/baikal/workspace/C50/Huawei_IoT_Agent_Tiny_SDK_Linux//agent_tiny/lwm2m_client/agenttiny.c ****     lwm2m_object_t   *obj_array[OBJ_MAX_NUM];
  71:/home/baikal/workspace/C50/Huawei_IoT_Agent_Tiny_SDK_Linux//agent_tiny/lwm2m_client/agenttiny.c ****     int atiny_quit;
  72:/home/baikal/workspace/C50/Huawei_IoT_Agent_Tiny_SDK_Linux//agent_tiny/lwm2m_client/agenttiny.c ****     int reconnect_flag;
  73:/home/baikal/workspace/C50/Huawei_IoT_Agent_Tiny_SDK_Linux//agent_tiny/lwm2m_client/agenttiny.c ****     void *quit_sem;
  74:/home/baikal/workspace/C50/Huawei_IoT_Agent_Tiny_SDK_Linux//agent_tiny/lwm2m_client/agenttiny.c ****     int reboot_flag;
  75:/home/baikal/workspace/C50/Huawei_IoT_Agent_Tiny_SDK_Linux//agent_tiny/lwm2m_client/agenttiny.c ****     uint8_t *recv_buffer;
  76:/home/baikal/workspace/C50/Huawei_IoT_Agent_Tiny_SDK_Linux//agent_tiny/lwm2m_client/agenttiny.c **** } handle_data_t;
  77:/home/baikal/workspace/C50/Huawei_IoT_Agent_Tiny_SDK_Linux//agent_tiny/lwm2m_client/agenttiny.c **** 
  78:/home/baikal/workspace/C50/Huawei_IoT_Agent_Tiny_SDK_Linux//agent_tiny/lwm2m_client/agenttiny.c **** void observe_handle_ack(lwm2m_transaction_t *transacP, void *message);
  79:/home/baikal/workspace/C50/Huawei_IoT_Agent_Tiny_SDK_Linux//agent_tiny/lwm2m_client/agenttiny.c **** static int atiny_check_bootstrap_init_param(atiny_param_t *atiny_params);
  80:/home/baikal/workspace/C50/Huawei_IoT_Agent_Tiny_SDK_Linux//agent_tiny/lwm2m_client/agenttiny.c **** 
  81:/home/baikal/workspace/C50/Huawei_IoT_Agent_Tiny_SDK_Linux//agent_tiny/lwm2m_client/agenttiny.c **** static handle_data_t g_atiny_handle;
  82:/home/baikal/workspace/C50/Huawei_IoT_Agent_Tiny_SDK_Linux//agent_tiny/lwm2m_client/agenttiny.c **** 
  83:/home/baikal/workspace/C50/Huawei_IoT_Agent_Tiny_SDK_Linux//agent_tiny/lwm2m_client/agenttiny.c **** /*
  84:/home/baikal/workspace/C50/Huawei_IoT_Agent_Tiny_SDK_Linux//agent_tiny/lwm2m_client/agenttiny.c ****  * modify date:   2018-06-20
  85:/home/baikal/workspace/C50/Huawei_IoT_Agent_Tiny_SDK_Linux//agent_tiny/lwm2m_client/agenttiny.c ****  * description: in order to check the params for the bootstrap, expecialy for the mode and the ip/p
  86:/home/baikal/workspace/C50/Huawei_IoT_Agent_Tiny_SDK_Linux//agent_tiny/lwm2m_client/agenttiny.c ****  * return:
  87:/home/baikal/workspace/C50/Huawei_IoT_Agent_Tiny_SDK_Linux//agent_tiny/lwm2m_client/agenttiny.c ****  *              success: ATINY_OK
  88:/home/baikal/workspace/C50/Huawei_IoT_Agent_Tiny_SDK_Linux//agent_tiny/lwm2m_client/agenttiny.c ****  *              fail:    ATINY_ARG_INVALID
  89:/home/baikal/workspace/C50/Huawei_IoT_Agent_Tiny_SDK_Linux//agent_tiny/lwm2m_client/agenttiny.c ****  *
  90:/home/baikal/workspace/C50/Huawei_IoT_Agent_Tiny_SDK_Linux//agent_tiny/lwm2m_client/agenttiny.c ****  */
  91:/home/baikal/workspace/C50/Huawei_IoT_Agent_Tiny_SDK_Linux//agent_tiny/lwm2m_client/agenttiny.c **** static int atiny_check_bootstrap_init_param(atiny_param_t *atiny_params)
  92:/home/baikal/workspace/C50/Huawei_IoT_Agent_Tiny_SDK_Linux//agent_tiny/lwm2m_client/agenttiny.c **** {
   9              		.loc 1 92 0
  10              		.cfi_startproc
  11              	.LVL0:
  93:/home/baikal/workspace/C50/Huawei_IoT_Agent_Tiny_SDK_Linux//agent_tiny/lwm2m_client/agenttiny.c ****     if(NULL == atiny_params)
  12              		.loc 1 93 0
  13 0000 4885FF   		testq	%rdi, %rdi
  14 0003 7441     		je	.L6
  94:/home/baikal/workspace/C50/Huawei_IoT_Agent_Tiny_SDK_Linux//agent_tiny/lwm2m_client/agenttiny.c ****     {
  95:/home/baikal/workspace/C50/Huawei_IoT_Agent_Tiny_SDK_Linux//agent_tiny/lwm2m_client/agenttiny.c ****         return ATINY_ARG_INVALID;
  96:/home/baikal/workspace/C50/Huawei_IoT_Agent_Tiny_SDK_Linux//agent_tiny/lwm2m_client/agenttiny.c ****     }
  97:/home/baikal/workspace/C50/Huawei_IoT_Agent_Tiny_SDK_Linux//agent_tiny/lwm2m_client/agenttiny.c **** 
  98:/home/baikal/workspace/C50/Huawei_IoT_Agent_Tiny_SDK_Linux//agent_tiny/lwm2m_client/agenttiny.c ****     if(BOOTSTRAP_FACTORY == atiny_params->bootstrap_mode)
  15              		.loc 1 98 0
  16 0005 8B4710   		movl	16(%rdi), %eax
  17 0008 85C0     		testl	%eax, %eax
GAS LISTING /tmp/ccZJW6Kf.s 			page 3


  18 000a 7510     		jne	.L3
  99:/home/baikal/workspace/C50/Huawei_IoT_Agent_Tiny_SDK_Linux//agent_tiny/lwm2m_client/agenttiny.c ****     {
 100:/home/baikal/workspace/C50/Huawei_IoT_Agent_Tiny_SDK_Linux//agent_tiny/lwm2m_client/agenttiny.c ****         if((NULL == atiny_params->security_params[0].server_ip) || (NULL == atiny_params->security_
  19              		.loc 1 100 0
  20 000c 48837F18 		cmpq	$0, 24(%rdi)
  20      00
  21 0011 7439     		je	.L7
  22              		.loc 1 100 0 is_stmt 0 discriminator 1
  23 0013 48837F20 		cmpq	$0, 32(%rdi)
  23      00
  24 0018 7526     		jne	.L12
  25 001a EB36     		jmp	.L8
  26              	.L3:
 101:/home/baikal/workspace/C50/Huawei_IoT_Agent_Tiny_SDK_Linux//agent_tiny/lwm2m_client/agenttiny.c ****         {
 102:/home/baikal/workspace/C50/Huawei_IoT_Agent_Tiny_SDK_Linux//agent_tiny/lwm2m_client/agenttiny.c ****             LOG("[bootstrap_tag]: BOOTSTRAP_FACTORY mode's params is wrong, should have iot server 
 103:/home/baikal/workspace/C50/Huawei_IoT_Agent_Tiny_SDK_Linux//agent_tiny/lwm2m_client/agenttiny.c ****             return ATINY_ARG_INVALID;
 104:/home/baikal/workspace/C50/Huawei_IoT_Agent_Tiny_SDK_Linux//agent_tiny/lwm2m_client/agenttiny.c ****         }
 105:/home/baikal/workspace/C50/Huawei_IoT_Agent_Tiny_SDK_Linux//agent_tiny/lwm2m_client/agenttiny.c ****     }
 106:/home/baikal/workspace/C50/Huawei_IoT_Agent_Tiny_SDK_Linux//agent_tiny/lwm2m_client/agenttiny.c ****     else if(BOOTSTRAP_CLIENT_INITIATED == atiny_params->bootstrap_mode)
  27              		.loc 1 106 0 is_stmt 1
  28 001c 83F801   		cmpl	$1, %eax
  29 001f 7514     		jne	.L5
 107:/home/baikal/workspace/C50/Huawei_IoT_Agent_Tiny_SDK_Linux//agent_tiny/lwm2m_client/agenttiny.c ****     {
 108:/home/baikal/workspace/C50/Huawei_IoT_Agent_Tiny_SDK_Linux//agent_tiny/lwm2m_client/agenttiny.c ****         if((NULL == atiny_params->security_params[1].server_ip) || (NULL == atiny_params->security_
  30              		.loc 1 108 0
  31 0021 48837F40 		cmpq	$0, 64(%rdi)
  31      00
  32 0026 7430     		je	.L9
  33              		.loc 1 108 0 is_stmt 0 discriminator 1
  34 0028 48837F48 		cmpq	$0, 72(%rdi)
  34      00
  35 002d 742F     		je	.L10
 109:/home/baikal/workspace/C50/Huawei_IoT_Agent_Tiny_SDK_Linux//agent_tiny/lwm2m_client/agenttiny.c ****         {
 110:/home/baikal/workspace/C50/Huawei_IoT_Agent_Tiny_SDK_Linux//agent_tiny/lwm2m_client/agenttiny.c ****             LOG("[bootstrap_tag]: BOOTSTRAP_CLIENT_INITIATED mode's params is wrong, should have bo
 111:/home/baikal/workspace/C50/Huawei_IoT_Agent_Tiny_SDK_Linux//agent_tiny/lwm2m_client/agenttiny.c ****             return ATINY_ARG_INVALID;
 112:/home/baikal/workspace/C50/Huawei_IoT_Agent_Tiny_SDK_Linux//agent_tiny/lwm2m_client/agenttiny.c ****         }
 113:/home/baikal/workspace/C50/Huawei_IoT_Agent_Tiny_SDK_Linux//agent_tiny/lwm2m_client/agenttiny.c ****     }
 114:/home/baikal/workspace/C50/Huawei_IoT_Agent_Tiny_SDK_Linux//agent_tiny/lwm2m_client/agenttiny.c ****     else if(BOOTSTRAP_SEQUENCE == atiny_params->bootstrap_mode)
 115:/home/baikal/workspace/C50/Huawei_IoT_Agent_Tiny_SDK_Linux//agent_tiny/lwm2m_client/agenttiny.c ****     {
 116:/home/baikal/workspace/C50/Huawei_IoT_Agent_Tiny_SDK_Linux//agent_tiny/lwm2m_client/agenttiny.c ****         return ATINY_OK;
 117:/home/baikal/workspace/C50/Huawei_IoT_Agent_Tiny_SDK_Linux//agent_tiny/lwm2m_client/agenttiny.c ****     }
 118:/home/baikal/workspace/C50/Huawei_IoT_Agent_Tiny_SDK_Linux//agent_tiny/lwm2m_client/agenttiny.c ****     else
 119:/home/baikal/workspace/C50/Huawei_IoT_Agent_Tiny_SDK_Linux//agent_tiny/lwm2m_client/agenttiny.c ****     {
 120:/home/baikal/workspace/C50/Huawei_IoT_Agent_Tiny_SDK_Linux//agent_tiny/lwm2m_client/agenttiny.c ****         //it is ok? if the mode value is not 0,1,2, we all set it to 2 ?
 121:/home/baikal/workspace/C50/Huawei_IoT_Agent_Tiny_SDK_Linux//agent_tiny/lwm2m_client/agenttiny.c ****         LOG("[bootstrap_tag]: BOOTSTRAP only have three mode, should been :0,1,2");
 122:/home/baikal/workspace/C50/Huawei_IoT_Agent_Tiny_SDK_Linux//agent_tiny/lwm2m_client/agenttiny.c ****         return ATINY_ARG_INVALID;
 123:/home/baikal/workspace/C50/Huawei_IoT_Agent_Tiny_SDK_Linux//agent_tiny/lwm2m_client/agenttiny.c ****     }
 124:/home/baikal/workspace/C50/Huawei_IoT_Agent_Tiny_SDK_Linux//agent_tiny/lwm2m_client/agenttiny.c **** 
 125:/home/baikal/workspace/C50/Huawei_IoT_Agent_Tiny_SDK_Linux//agent_tiny/lwm2m_client/agenttiny.c **** 
 126:/home/baikal/workspace/C50/Huawei_IoT_Agent_Tiny_SDK_Linux//agent_tiny/lwm2m_client/agenttiny.c ****     return ATINY_OK;
  36              		.loc 1 126 0 is_stmt 1
  37 002f B8000000 		movl	$0, %eax
  37      00
  38 0034 C3       		ret
  39              	.L5:
 114:/home/baikal/workspace/C50/Huawei_IoT_Agent_Tiny_SDK_Linux//agent_tiny/lwm2m_client/agenttiny.c ****     {
  40              		.loc 1 114 0
GAS LISTING /tmp/ccZJW6Kf.s 			page 4


  41 0035 83F802   		cmpl	$2, %eax
  42 0038 752A     		jne	.L11
 116:/home/baikal/workspace/C50/Huawei_IoT_Agent_Tiny_SDK_Linux//agent_tiny/lwm2m_client/agenttiny.c ****     }
  43              		.loc 1 116 0
  44 003a B8000000 		movl	$0, %eax
  44      00
  45 003f C3       		ret
  46              	.L12:
  47              		.loc 1 126 0
  48 0040 B8000000 		movl	$0, %eax
  48      00
  49 0045 C3       		ret
  50              	.L6:
  95:/home/baikal/workspace/C50/Huawei_IoT_Agent_Tiny_SDK_Linux//agent_tiny/lwm2m_client/agenttiny.c ****     }
  51              		.loc 1 95 0
  52 0046 B8FFFFFF 		movl	$-1, %eax
  52      FF
  53 004b C3       		ret
  54              	.L7:
 103:/home/baikal/workspace/C50/Huawei_IoT_Agent_Tiny_SDK_Linux//agent_tiny/lwm2m_client/agenttiny.c ****         }
  55              		.loc 1 103 0
  56 004c B8FFFFFF 		movl	$-1, %eax
  56      FF
  57 0051 C3       		ret
  58              	.L8:
  59 0052 B8FFFFFF 		movl	$-1, %eax
  59      FF
  60 0057 C3       		ret
  61              	.L9:
 111:/home/baikal/workspace/C50/Huawei_IoT_Agent_Tiny_SDK_Linux//agent_tiny/lwm2m_client/agenttiny.c ****         }
  62              		.loc 1 111 0
  63 0058 B8FFFFFF 		movl	$-1, %eax
  63      FF
  64 005d C3       		ret
  65              	.L10:
  66 005e B8FFFFFF 		movl	$-1, %eax
  66      FF
  67 0063 C3       		ret
  68              	.L11:
 122:/home/baikal/workspace/C50/Huawei_IoT_Agent_Tiny_SDK_Linux//agent_tiny/lwm2m_client/agenttiny.c ****     }
  69              		.loc 1 122 0
  70 0064 B8FFFFFF 		movl	$-1, %eax
  70      FF
 127:/home/baikal/workspace/C50/Huawei_IoT_Agent_Tiny_SDK_Linux//agent_tiny/lwm2m_client/agenttiny.c **** }
  71              		.loc 1 127 0
  72 0069 C3       		ret
  73              		.cfi_endproc
  74              	.LFE73:
  76              		.section	.text.observe_handle_ack,"ax",@progbits
  77              		.globl	observe_handle_ack
  79              	observe_handle_ack:
  80              	.LFB88:
 128:/home/baikal/workspace/C50/Huawei_IoT_Agent_Tiny_SDK_Linux//agent_tiny/lwm2m_client/agenttiny.c **** 
 129:/home/baikal/workspace/C50/Huawei_IoT_Agent_Tiny_SDK_Linux//agent_tiny/lwm2m_client/agenttiny.c **** #ifdef LWM2M_BOOTSTRAP
 130:/home/baikal/workspace/C50/Huawei_IoT_Agent_Tiny_SDK_Linux//agent_tiny/lwm2m_client/agenttiny.c **** static int atiny_check_psk_init_param(atiny_param_t *atiny_params)
 131:/home/baikal/workspace/C50/Huawei_IoT_Agent_Tiny_SDK_Linux//agent_tiny/lwm2m_client/agenttiny.c **** {
 132:/home/baikal/workspace/C50/Huawei_IoT_Agent_Tiny_SDK_Linux//agent_tiny/lwm2m_client/agenttiny.c ****     int i = 0;
GAS LISTING /tmp/ccZJW6Kf.s 			page 5


 133:/home/baikal/workspace/C50/Huawei_IoT_Agent_Tiny_SDK_Linux//agent_tiny/lwm2m_client/agenttiny.c ****     int psk_id_len = 0;
 134:/home/baikal/workspace/C50/Huawei_IoT_Agent_Tiny_SDK_Linux//agent_tiny/lwm2m_client/agenttiny.c ****     int psk_len = 0;
 135:/home/baikal/workspace/C50/Huawei_IoT_Agent_Tiny_SDK_Linux//agent_tiny/lwm2m_client/agenttiny.c ****     const int PSK_ID_LIMIT_LEN = 128;
 136:/home/baikal/workspace/C50/Huawei_IoT_Agent_Tiny_SDK_Linux//agent_tiny/lwm2m_client/agenttiny.c ****     const int PSK_LIMIT_LEN = 64;
 137:/home/baikal/workspace/C50/Huawei_IoT_Agent_Tiny_SDK_Linux//agent_tiny/lwm2m_client/agenttiny.c ****     int total_element = 0;
 138:/home/baikal/workspace/C50/Huawei_IoT_Agent_Tiny_SDK_Linux//agent_tiny/lwm2m_client/agenttiny.c **** 
 139:/home/baikal/workspace/C50/Huawei_IoT_Agent_Tiny_SDK_Linux//agent_tiny/lwm2m_client/agenttiny.c ****     if(NULL == atiny_params)
 140:/home/baikal/workspace/C50/Huawei_IoT_Agent_Tiny_SDK_Linux//agent_tiny/lwm2m_client/agenttiny.c ****     {
 141:/home/baikal/workspace/C50/Huawei_IoT_Agent_Tiny_SDK_Linux//agent_tiny/lwm2m_client/agenttiny.c ****         return ATINY_ARG_INVALID;
 142:/home/baikal/workspace/C50/Huawei_IoT_Agent_Tiny_SDK_Linux//agent_tiny/lwm2m_client/agenttiny.c ****     }
 143:/home/baikal/workspace/C50/Huawei_IoT_Agent_Tiny_SDK_Linux//agent_tiny/lwm2m_client/agenttiny.c **** 
 144:/home/baikal/workspace/C50/Huawei_IoT_Agent_Tiny_SDK_Linux//agent_tiny/lwm2m_client/agenttiny.c ****     //security_params have 2 element, we have 2 pair psk.
 145:/home/baikal/workspace/C50/Huawei_IoT_Agent_Tiny_SDK_Linux//agent_tiny/lwm2m_client/agenttiny.c ****     total_element = (sizeof(atiny_params->security_params)) / (sizeof(atiny_params->security_params
 146:/home/baikal/workspace/C50/Huawei_IoT_Agent_Tiny_SDK_Linux//agent_tiny/lwm2m_client/agenttiny.c **** 
 147:/home/baikal/workspace/C50/Huawei_IoT_Agent_Tiny_SDK_Linux//agent_tiny/lwm2m_client/agenttiny.c ****     for(i = 0; i < total_element; i++)
 148:/home/baikal/workspace/C50/Huawei_IoT_Agent_Tiny_SDK_Linux//agent_tiny/lwm2m_client/agenttiny.c ****     {
 149:/home/baikal/workspace/C50/Huawei_IoT_Agent_Tiny_SDK_Linux//agent_tiny/lwm2m_client/agenttiny.c ****         //if there are null, we could run not in security mode
 150:/home/baikal/workspace/C50/Huawei_IoT_Agent_Tiny_SDK_Linux//agent_tiny/lwm2m_client/agenttiny.c ****         if((atiny_params->security_params[i].psk_Id != NULL) && (atiny_params->security_params[i].p
 151:/home/baikal/workspace/C50/Huawei_IoT_Agent_Tiny_SDK_Linux//agent_tiny/lwm2m_client/agenttiny.c ****         {
 152:/home/baikal/workspace/C50/Huawei_IoT_Agent_Tiny_SDK_Linux//agent_tiny/lwm2m_client/agenttiny.c ****             psk_id_len = strlen(atiny_params->security_params[i].psk_Id);
 153:/home/baikal/workspace/C50/Huawei_IoT_Agent_Tiny_SDK_Linux//agent_tiny/lwm2m_client/agenttiny.c ****             psk_len = strlen(atiny_params->security_params[i].psk);
 154:/home/baikal/workspace/C50/Huawei_IoT_Agent_Tiny_SDK_Linux//agent_tiny/lwm2m_client/agenttiny.c **** 
 155:/home/baikal/workspace/C50/Huawei_IoT_Agent_Tiny_SDK_Linux//agent_tiny/lwm2m_client/agenttiny.c ****             //the limit of the len, please read RFC4279  or OMA-TS-LightweightM2M E.1.1
 156:/home/baikal/workspace/C50/Huawei_IoT_Agent_Tiny_SDK_Linux//agent_tiny/lwm2m_client/agenttiny.c ****             if((psk_id_len > PSK_ID_LIMIT_LEN) || (psk_len > PSK_LIMIT_LEN))
 157:/home/baikal/workspace/C50/Huawei_IoT_Agent_Tiny_SDK_Linux//agent_tiny/lwm2m_client/agenttiny.c ****             {
 158:/home/baikal/workspace/C50/Huawei_IoT_Agent_Tiny_SDK_Linux//agent_tiny/lwm2m_client/agenttiny.c ****                 LOG("[bootstrap_tag]: psk_Id len over 128 or psk len over 64");
 159:/home/baikal/workspace/C50/Huawei_IoT_Agent_Tiny_SDK_Linux//agent_tiny/lwm2m_client/agenttiny.c ****                 return ATINY_ARG_INVALID;
 160:/home/baikal/workspace/C50/Huawei_IoT_Agent_Tiny_SDK_Linux//agent_tiny/lwm2m_client/agenttiny.c ****             }
 161:/home/baikal/workspace/C50/Huawei_IoT_Agent_Tiny_SDK_Linux//agent_tiny/lwm2m_client/agenttiny.c ****         }
 162:/home/baikal/workspace/C50/Huawei_IoT_Agent_Tiny_SDK_Linux//agent_tiny/lwm2m_client/agenttiny.c ****     }
 163:/home/baikal/workspace/C50/Huawei_IoT_Agent_Tiny_SDK_Linux//agent_tiny/lwm2m_client/agenttiny.c **** 
 164:/home/baikal/workspace/C50/Huawei_IoT_Agent_Tiny_SDK_Linux//agent_tiny/lwm2m_client/agenttiny.c ****     return ATINY_OK;
 165:/home/baikal/workspace/C50/Huawei_IoT_Agent_Tiny_SDK_Linux//agent_tiny/lwm2m_client/agenttiny.c **** }
 166:/home/baikal/workspace/C50/Huawei_IoT_Agent_Tiny_SDK_Linux//agent_tiny/lwm2m_client/agenttiny.c **** #endif
 167:/home/baikal/workspace/C50/Huawei_IoT_Agent_Tiny_SDK_Linux//agent_tiny/lwm2m_client/agenttiny.c **** 
 168:/home/baikal/workspace/C50/Huawei_IoT_Agent_Tiny_SDK_Linux//agent_tiny/lwm2m_client/agenttiny.c **** 
 169:/home/baikal/workspace/C50/Huawei_IoT_Agent_Tiny_SDK_Linux//agent_tiny/lwm2m_client/agenttiny.c **** int  atiny_init(atiny_param_t *atiny_params, void **phandle)
 170:/home/baikal/workspace/C50/Huawei_IoT_Agent_Tiny_SDK_Linux//agent_tiny/lwm2m_client/agenttiny.c **** {
 171:/home/baikal/workspace/C50/Huawei_IoT_Agent_Tiny_SDK_Linux//agent_tiny/lwm2m_client/agenttiny.c **** #ifdef CONFIG_FEATURE_FOTA
 172:/home/baikal/workspace/C50/Huawei_IoT_Agent_Tiny_SDK_Linux//agent_tiny/lwm2m_client/agenttiny.c ****     atiny_fota_storage_device_s *device = NULL;
 173:/home/baikal/workspace/C50/Huawei_IoT_Agent_Tiny_SDK_Linux//agent_tiny/lwm2m_client/agenttiny.c **** #endif
 174:/home/baikal/workspace/C50/Huawei_IoT_Agent_Tiny_SDK_Linux//agent_tiny/lwm2m_client/agenttiny.c ****     int result;
 175:/home/baikal/workspace/C50/Huawei_IoT_Agent_Tiny_SDK_Linux//agent_tiny/lwm2m_client/agenttiny.c ****     
 176:/home/baikal/workspace/C50/Huawei_IoT_Agent_Tiny_SDK_Linux//agent_tiny/lwm2m_client/agenttiny.c ****     result = atiny_init_rpt();
 177:/home/baikal/workspace/C50/Huawei_IoT_Agent_Tiny_SDK_Linux//agent_tiny/lwm2m_client/agenttiny.c ****     if (result != ATINY_OK)
 178:/home/baikal/workspace/C50/Huawei_IoT_Agent_Tiny_SDK_Linux//agent_tiny/lwm2m_client/agenttiny.c ****     {
 179:/home/baikal/workspace/C50/Huawei_IoT_Agent_Tiny_SDK_Linux//agent_tiny/lwm2m_client/agenttiny.c ****         ATINY_LOG(LOG_FATAL, "atiny_init_rpt fail,ret=%d", result);
 180:/home/baikal/workspace/C50/Huawei_IoT_Agent_Tiny_SDK_Linux//agent_tiny/lwm2m_client/agenttiny.c ****         return result;
 181:/home/baikal/workspace/C50/Huawei_IoT_Agent_Tiny_SDK_Linux//agent_tiny/lwm2m_client/agenttiny.c ****     }
 182:/home/baikal/workspace/C50/Huawei_IoT_Agent_Tiny_SDK_Linux//agent_tiny/lwm2m_client/agenttiny.c **** 
 183:/home/baikal/workspace/C50/Huawei_IoT_Agent_Tiny_SDK_Linux//agent_tiny/lwm2m_client/agenttiny.c ****     if (NULL == atiny_params || NULL == phandle)
 184:/home/baikal/workspace/C50/Huawei_IoT_Agent_Tiny_SDK_Linux//agent_tiny/lwm2m_client/agenttiny.c ****     {
 185:/home/baikal/workspace/C50/Huawei_IoT_Agent_Tiny_SDK_Linux//agent_tiny/lwm2m_client/agenttiny.c ****         ATINY_LOG(LOG_FATAL, "Invalid args");
 186:/home/baikal/workspace/C50/Huawei_IoT_Agent_Tiny_SDK_Linux//agent_tiny/lwm2m_client/agenttiny.c ****         return ATINY_ARG_INVALID;
 187:/home/baikal/workspace/C50/Huawei_IoT_Agent_Tiny_SDK_Linux//agent_tiny/lwm2m_client/agenttiny.c ****     }
 188:/home/baikal/workspace/C50/Huawei_IoT_Agent_Tiny_SDK_Linux//agent_tiny/lwm2m_client/agenttiny.c **** 
 189:/home/baikal/workspace/C50/Huawei_IoT_Agent_Tiny_SDK_Linux//agent_tiny/lwm2m_client/agenttiny.c ****     if(ATINY_OK != atiny_check_bootstrap_init_param(atiny_params))
GAS LISTING /tmp/ccZJW6Kf.s 			page 6


 190:/home/baikal/workspace/C50/Huawei_IoT_Agent_Tiny_SDK_Linux//agent_tiny/lwm2m_client/agenttiny.c ****     {
 191:/home/baikal/workspace/C50/Huawei_IoT_Agent_Tiny_SDK_Linux//agent_tiny/lwm2m_client/agenttiny.c ****         LOG("[bootstrap_tag]: BOOTSTRAP's params are wrong");
 192:/home/baikal/workspace/C50/Huawei_IoT_Agent_Tiny_SDK_Linux//agent_tiny/lwm2m_client/agenttiny.c ****         return ATINY_ARG_INVALID;
 193:/home/baikal/workspace/C50/Huawei_IoT_Agent_Tiny_SDK_Linux//agent_tiny/lwm2m_client/agenttiny.c ****     }
 194:/home/baikal/workspace/C50/Huawei_IoT_Agent_Tiny_SDK_Linux//agent_tiny/lwm2m_client/agenttiny.c **** 
 195:/home/baikal/workspace/C50/Huawei_IoT_Agent_Tiny_SDK_Linux//agent_tiny/lwm2m_client/agenttiny.c **** #ifdef LWM2M_BOOTSTRAP
 196:/home/baikal/workspace/C50/Huawei_IoT_Agent_Tiny_SDK_Linux//agent_tiny/lwm2m_client/agenttiny.c ****     if(ATINY_OK != atiny_check_psk_init_param(atiny_params))
 197:/home/baikal/workspace/C50/Huawei_IoT_Agent_Tiny_SDK_Linux//agent_tiny/lwm2m_client/agenttiny.c ****     {
 198:/home/baikal/workspace/C50/Huawei_IoT_Agent_Tiny_SDK_Linux//agent_tiny/lwm2m_client/agenttiny.c ****         LOG("[bootstrap_tag]: psk params are wrong");
 199:/home/baikal/workspace/C50/Huawei_IoT_Agent_Tiny_SDK_Linux//agent_tiny/lwm2m_client/agenttiny.c ****     }
 200:/home/baikal/workspace/C50/Huawei_IoT_Agent_Tiny_SDK_Linux//agent_tiny/lwm2m_client/agenttiny.c **** #endif
 201:/home/baikal/workspace/C50/Huawei_IoT_Agent_Tiny_SDK_Linux//agent_tiny/lwm2m_client/agenttiny.c **** 
 202:/home/baikal/workspace/C50/Huawei_IoT_Agent_Tiny_SDK_Linux//agent_tiny/lwm2m_client/agenttiny.c ****     memset((void *)&g_atiny_handle, 0, sizeof(handle_data_t));
 203:/home/baikal/workspace/C50/Huawei_IoT_Agent_Tiny_SDK_Linux//agent_tiny/lwm2m_client/agenttiny.c **** 
 204:/home/baikal/workspace/C50/Huawei_IoT_Agent_Tiny_SDK_Linux//agent_tiny/lwm2m_client/agenttiny.c ****     g_atiny_handle.quit_sem = atiny_mutex_create();
 205:/home/baikal/workspace/C50/Huawei_IoT_Agent_Tiny_SDK_Linux//agent_tiny/lwm2m_client/agenttiny.c ****     if (NULL == g_atiny_handle.quit_sem)
 206:/home/baikal/workspace/C50/Huawei_IoT_Agent_Tiny_SDK_Linux//agent_tiny/lwm2m_client/agenttiny.c ****     {
 207:/home/baikal/workspace/C50/Huawei_IoT_Agent_Tiny_SDK_Linux//agent_tiny/lwm2m_client/agenttiny.c ****         ATINY_LOG(LOG_FATAL, "atiny_mutex_create fail");
 208:/home/baikal/workspace/C50/Huawei_IoT_Agent_Tiny_SDK_Linux//agent_tiny/lwm2m_client/agenttiny.c ****         return ATINY_RESOURCE_NOT_ENOUGH;
 209:/home/baikal/workspace/C50/Huawei_IoT_Agent_Tiny_SDK_Linux//agent_tiny/lwm2m_client/agenttiny.c ****     }
 210:/home/baikal/workspace/C50/Huawei_IoT_Agent_Tiny_SDK_Linux//agent_tiny/lwm2m_client/agenttiny.c ****     atiny_mutex_lock(g_atiny_handle.quit_sem);
 211:/home/baikal/workspace/C50/Huawei_IoT_Agent_Tiny_SDK_Linux//agent_tiny/lwm2m_client/agenttiny.c ****     g_atiny_handle.atiny_params = *atiny_params;
 212:/home/baikal/workspace/C50/Huawei_IoT_Agent_Tiny_SDK_Linux//agent_tiny/lwm2m_client/agenttiny.c ****     *phandle = &g_atiny_handle;
 213:/home/baikal/workspace/C50/Huawei_IoT_Agent_Tiny_SDK_Linux//agent_tiny/lwm2m_client/agenttiny.c **** 
 214:/home/baikal/workspace/C50/Huawei_IoT_Agent_Tiny_SDK_Linux//agent_tiny/lwm2m_client/agenttiny.c **** #ifdef CONFIG_FEATURE_FOTA
 215:/home/baikal/workspace/C50/Huawei_IoT_Agent_Tiny_SDK_Linux//agent_tiny/lwm2m_client/agenttiny.c ****     (void)atiny_cmd_ioctl(ATINY_GET_FOTA_STORAGE_DEVICE, (char * )&device, sizeof(device));
 216:/home/baikal/workspace/C50/Huawei_IoT_Agent_Tiny_SDK_Linux//agent_tiny/lwm2m_client/agenttiny.c ****     if (NULL == device)
 217:/home/baikal/workspace/C50/Huawei_IoT_Agent_Tiny_SDK_Linux//agent_tiny/lwm2m_client/agenttiny.c ****     {
 218:/home/baikal/workspace/C50/Huawei_IoT_Agent_Tiny_SDK_Linux//agent_tiny/lwm2m_client/agenttiny.c ****         ATINY_LOG(LOG_FATAL, "Invalid args");
 219:/home/baikal/workspace/C50/Huawei_IoT_Agent_Tiny_SDK_Linux//agent_tiny/lwm2m_client/agenttiny.c ****         return ATINY_ERR;
 220:/home/baikal/workspace/C50/Huawei_IoT_Agent_Tiny_SDK_Linux//agent_tiny/lwm2m_client/agenttiny.c ****     }
 221:/home/baikal/workspace/C50/Huawei_IoT_Agent_Tiny_SDK_Linux//agent_tiny/lwm2m_client/agenttiny.c ****     return atiny_fota_manager_set_storage_device(atiny_fota_manager_get_instance(),
 222:/home/baikal/workspace/C50/Huawei_IoT_Agent_Tiny_SDK_Linux//agent_tiny/lwm2m_client/agenttiny.c ****             device);
 223:/home/baikal/workspace/C50/Huawei_IoT_Agent_Tiny_SDK_Linux//agent_tiny/lwm2m_client/agenttiny.c **** #else
 224:/home/baikal/workspace/C50/Huawei_IoT_Agent_Tiny_SDK_Linux//agent_tiny/lwm2m_client/agenttiny.c ****     return ATINY_OK;
 225:/home/baikal/workspace/C50/Huawei_IoT_Agent_Tiny_SDK_Linux//agent_tiny/lwm2m_client/agenttiny.c **** #endif
 226:/home/baikal/workspace/C50/Huawei_IoT_Agent_Tiny_SDK_Linux//agent_tiny/lwm2m_client/agenttiny.c **** 
 227:/home/baikal/workspace/C50/Huawei_IoT_Agent_Tiny_SDK_Linux//agent_tiny/lwm2m_client/agenttiny.c **** }
 228:/home/baikal/workspace/C50/Huawei_IoT_Agent_Tiny_SDK_Linux//agent_tiny/lwm2m_client/agenttiny.c **** 
 229:/home/baikal/workspace/C50/Huawei_IoT_Agent_Tiny_SDK_Linux//agent_tiny/lwm2m_client/agenttiny.c **** /*
 230:/home/baikal/workspace/C50/Huawei_IoT_Agent_Tiny_SDK_Linux//agent_tiny/lwm2m_client/agenttiny.c ****  * add date:     2018-06-05
 231:/home/baikal/workspace/C50/Huawei_IoT_Agent_Tiny_SDK_Linux//agent_tiny/lwm2m_client/agenttiny.c ****  * description:  get bootstrap info from atiny_params which from user, set bs_sequence_state and bs
 232:/home/baikal/workspace/C50/Huawei_IoT_Agent_Tiny_SDK_Linux//agent_tiny/lwm2m_client/agenttiny.c ****  *
 233:/home/baikal/workspace/C50/Huawei_IoT_Agent_Tiny_SDK_Linux//agent_tiny/lwm2m_client/agenttiny.c ****  * return:       none
 234:/home/baikal/workspace/C50/Huawei_IoT_Agent_Tiny_SDK_Linux//agent_tiny/lwm2m_client/agenttiny.c ****  * param:
 235:/home/baikal/workspace/C50/Huawei_IoT_Agent_Tiny_SDK_Linux//agent_tiny/lwm2m_client/agenttiny.c ****  *     in:  atiny_params
 236:/home/baikal/workspace/C50/Huawei_IoT_Agent_Tiny_SDK_Linux//agent_tiny/lwm2m_client/agenttiny.c ****  *     out: lwm2m_context
 237:/home/baikal/workspace/C50/Huawei_IoT_Agent_Tiny_SDK_Linux//agent_tiny/lwm2m_client/agenttiny.c ****  */
 238:/home/baikal/workspace/C50/Huawei_IoT_Agent_Tiny_SDK_Linux//agent_tiny/lwm2m_client/agenttiny.c **** void atiny_set_bootstrap_sequence_state(atiny_param_t *atiny_params, lwm2m_context_t *lwm2m_context
 239:/home/baikal/workspace/C50/Huawei_IoT_Agent_Tiny_SDK_Linux//agent_tiny/lwm2m_client/agenttiny.c **** {
 240:/home/baikal/workspace/C50/Huawei_IoT_Agent_Tiny_SDK_Linux//agent_tiny/lwm2m_client/agenttiny.c ****     if((NULL == atiny_params) || (NULL == lwm2m_context))
 241:/home/baikal/workspace/C50/Huawei_IoT_Agent_Tiny_SDK_Linux//agent_tiny/lwm2m_client/agenttiny.c ****     {
 242:/home/baikal/workspace/C50/Huawei_IoT_Agent_Tiny_SDK_Linux//agent_tiny/lwm2m_client/agenttiny.c ****         LOG("[bootstrap_tag]: the atiny_params or lwm2m_context params are NULL for get_set_bootstr
 243:/home/baikal/workspace/C50/Huawei_IoT_Agent_Tiny_SDK_Linux//agent_tiny/lwm2m_client/agenttiny.c ****         return;
 244:/home/baikal/workspace/C50/Huawei_IoT_Agent_Tiny_SDK_Linux//agent_tiny/lwm2m_client/agenttiny.c ****     }
 245:/home/baikal/workspace/C50/Huawei_IoT_Agent_Tiny_SDK_Linux//agent_tiny/lwm2m_client/agenttiny.c **** 
 246:/home/baikal/workspace/C50/Huawei_IoT_Agent_Tiny_SDK_Linux//agent_tiny/lwm2m_client/agenttiny.c **** 
GAS LISTING /tmp/ccZJW6Kf.s 			page 7


 247:/home/baikal/workspace/C50/Huawei_IoT_Agent_Tiny_SDK_Linux//agent_tiny/lwm2m_client/agenttiny.c ****     //the state is used for bootstrap sequence mode,  other mode are all marked as NO_BS_SEQUENCE_S
 248:/home/baikal/workspace/C50/Huawei_IoT_Agent_Tiny_SDK_Linux//agent_tiny/lwm2m_client/agenttiny.c ****     lwm2m_context->bs_sequence_state = NO_BS_SEQUENCE_STATE;
 249:/home/baikal/workspace/C50/Huawei_IoT_Agent_Tiny_SDK_Linux//agent_tiny/lwm2m_client/agenttiny.c **** 
 250:/home/baikal/workspace/C50/Huawei_IoT_Agent_Tiny_SDK_Linux//agent_tiny/lwm2m_client/agenttiny.c ****     switch(atiny_params->bootstrap_mode)
 251:/home/baikal/workspace/C50/Huawei_IoT_Agent_Tiny_SDK_Linux//agent_tiny/lwm2m_client/agenttiny.c ****     {
 252:/home/baikal/workspace/C50/Huawei_IoT_Agent_Tiny_SDK_Linux//agent_tiny/lwm2m_client/agenttiny.c ****     case BOOTSTRAP_FACTORY:
 253:/home/baikal/workspace/C50/Huawei_IoT_Agent_Tiny_SDK_Linux//agent_tiny/lwm2m_client/agenttiny.c ****         lwm2m_context->regist_first_flag = true;
 254:/home/baikal/workspace/C50/Huawei_IoT_Agent_Tiny_SDK_Linux//agent_tiny/lwm2m_client/agenttiny.c ****         break;
 255:/home/baikal/workspace/C50/Huawei_IoT_Agent_Tiny_SDK_Linux//agent_tiny/lwm2m_client/agenttiny.c ****     case BOOTSTRAP_SEQUENCE:
 256:/home/baikal/workspace/C50/Huawei_IoT_Agent_Tiny_SDK_Linux//agent_tiny/lwm2m_client/agenttiny.c ****         lwm2m_context->bs_sequence_state = BS_SEQUENCE_STATE_SERVER_INITIATED;
 257:/home/baikal/workspace/C50/Huawei_IoT_Agent_Tiny_SDK_Linux//agent_tiny/lwm2m_client/agenttiny.c ****         lwm2m_context->regist_first_flag = false;
 258:/home/baikal/workspace/C50/Huawei_IoT_Agent_Tiny_SDK_Linux//agent_tiny/lwm2m_client/agenttiny.c ****         //security_params[0] for iot server
 259:/home/baikal/workspace/C50/Huawei_IoT_Agent_Tiny_SDK_Linux//agent_tiny/lwm2m_client/agenttiny.c ****         if((atiny_params->security_params[0].server_ip != NULL) && (atiny_params->security_params[0
 260:/home/baikal/workspace/C50/Huawei_IoT_Agent_Tiny_SDK_Linux//agent_tiny/lwm2m_client/agenttiny.c ****         {
 261:/home/baikal/workspace/C50/Huawei_IoT_Agent_Tiny_SDK_Linux//agent_tiny/lwm2m_client/agenttiny.c ****             lwm2m_context->bs_sequence_state = BS_SEQUENCE_STATE_FACTORY;
 262:/home/baikal/workspace/C50/Huawei_IoT_Agent_Tiny_SDK_Linux//agent_tiny/lwm2m_client/agenttiny.c ****             lwm2m_context->regist_first_flag = true;
 263:/home/baikal/workspace/C50/Huawei_IoT_Agent_Tiny_SDK_Linux//agent_tiny/lwm2m_client/agenttiny.c ****         }
 264:/home/baikal/workspace/C50/Huawei_IoT_Agent_Tiny_SDK_Linux//agent_tiny/lwm2m_client/agenttiny.c ****         break;
 265:/home/baikal/workspace/C50/Huawei_IoT_Agent_Tiny_SDK_Linux//agent_tiny/lwm2m_client/agenttiny.c ****     case BOOTSTRAP_CLIENT_INITIATED:
 266:/home/baikal/workspace/C50/Huawei_IoT_Agent_Tiny_SDK_Linux//agent_tiny/lwm2m_client/agenttiny.c ****         lwm2m_context->regist_first_flag = false;
 267:/home/baikal/workspace/C50/Huawei_IoT_Agent_Tiny_SDK_Linux//agent_tiny/lwm2m_client/agenttiny.c ****         break;
 268:/home/baikal/workspace/C50/Huawei_IoT_Agent_Tiny_SDK_Linux//agent_tiny/lwm2m_client/agenttiny.c ****     default:
 269:/home/baikal/workspace/C50/Huawei_IoT_Agent_Tiny_SDK_Linux//agent_tiny/lwm2m_client/agenttiny.c ****         break;
 270:/home/baikal/workspace/C50/Huawei_IoT_Agent_Tiny_SDK_Linux//agent_tiny/lwm2m_client/agenttiny.c ****     }
 271:/home/baikal/workspace/C50/Huawei_IoT_Agent_Tiny_SDK_Linux//agent_tiny/lwm2m_client/agenttiny.c **** }
 272:/home/baikal/workspace/C50/Huawei_IoT_Agent_Tiny_SDK_Linux//agent_tiny/lwm2m_client/agenttiny.c **** 
 273:/home/baikal/workspace/C50/Huawei_IoT_Agent_Tiny_SDK_Linux//agent_tiny/lwm2m_client/agenttiny.c **** 
 274:/home/baikal/workspace/C50/Huawei_IoT_Agent_Tiny_SDK_Linux//agent_tiny/lwm2m_client/agenttiny.c **** 
 275:/home/baikal/workspace/C50/Huawei_IoT_Agent_Tiny_SDK_Linux//agent_tiny/lwm2m_client/agenttiny.c **** /*
 276:/home/baikal/workspace/C50/Huawei_IoT_Agent_Tiny_SDK_Linux//agent_tiny/lwm2m_client/agenttiny.c **** * modify info:
 277:/home/baikal/workspace/C50/Huawei_IoT_Agent_Tiny_SDK_Linux//agent_tiny/lwm2m_client/agenttiny.c **** *     date:    2018-05-30
 278:/home/baikal/workspace/C50/Huawei_IoT_Agent_Tiny_SDK_Linux//agent_tiny/lwm2m_client/agenttiny.c **** *     reason:  modify for bootstrap mode, origin code only support FACTORY mode.
 279:/home/baikal/workspace/C50/Huawei_IoT_Agent_Tiny_SDK_Linux//agent_tiny/lwm2m_client/agenttiny.c **** */
 280:/home/baikal/workspace/C50/Huawei_IoT_Agent_Tiny_SDK_Linux//agent_tiny/lwm2m_client/agenttiny.c **** int atiny_init_objects(atiny_param_t *atiny_params, const atiny_device_info_t *device_info, handle_
 281:/home/baikal/workspace/C50/Huawei_IoT_Agent_Tiny_SDK_Linux//agent_tiny/lwm2m_client/agenttiny.c **** {
 282:/home/baikal/workspace/C50/Huawei_IoT_Agent_Tiny_SDK_Linux//agent_tiny/lwm2m_client/agenttiny.c ****     int result;
 283:/home/baikal/workspace/C50/Huawei_IoT_Agent_Tiny_SDK_Linux//agent_tiny/lwm2m_client/agenttiny.c ****     client_data_t *pdata;
 284:/home/baikal/workspace/C50/Huawei_IoT_Agent_Tiny_SDK_Linux//agent_tiny/lwm2m_client/agenttiny.c ****     lwm2m_context_t *lwm2m_context = NULL;
 285:/home/baikal/workspace/C50/Huawei_IoT_Agent_Tiny_SDK_Linux//agent_tiny/lwm2m_client/agenttiny.c ****     uint16_t serverId = SERVER_ID;
 286:/home/baikal/workspace/C50/Huawei_IoT_Agent_Tiny_SDK_Linux//agent_tiny/lwm2m_client/agenttiny.c ****     char *epname = (char *)device_info->endpoint_name;
 287:/home/baikal/workspace/C50/Huawei_IoT_Agent_Tiny_SDK_Linux//agent_tiny/lwm2m_client/agenttiny.c **** 
 288:/home/baikal/workspace/C50/Huawei_IoT_Agent_Tiny_SDK_Linux//agent_tiny/lwm2m_client/agenttiny.c **** 
 289:/home/baikal/workspace/C50/Huawei_IoT_Agent_Tiny_SDK_Linux//agent_tiny/lwm2m_client/agenttiny.c **** 
 290:/home/baikal/workspace/C50/Huawei_IoT_Agent_Tiny_SDK_Linux//agent_tiny/lwm2m_client/agenttiny.c ****     pdata = &handle->client_data;
 291:/home/baikal/workspace/C50/Huawei_IoT_Agent_Tiny_SDK_Linux//agent_tiny/lwm2m_client/agenttiny.c ****     memset(pdata, 0, sizeof(client_data_t));
 292:/home/baikal/workspace/C50/Huawei_IoT_Agent_Tiny_SDK_Linux//agent_tiny/lwm2m_client/agenttiny.c **** 
 293:/home/baikal/workspace/C50/Huawei_IoT_Agent_Tiny_SDK_Linux//agent_tiny/lwm2m_client/agenttiny.c ****     ATINY_LOG(LOG_INFO, "Trying to init objects");
 294:/home/baikal/workspace/C50/Huawei_IoT_Agent_Tiny_SDK_Linux//agent_tiny/lwm2m_client/agenttiny.c **** 
 295:/home/baikal/workspace/C50/Huawei_IoT_Agent_Tiny_SDK_Linux//agent_tiny/lwm2m_client/agenttiny.c ****     lwm2m_context = lwm2m_init(pdata);
 296:/home/baikal/workspace/C50/Huawei_IoT_Agent_Tiny_SDK_Linux//agent_tiny/lwm2m_client/agenttiny.c ****     if (NULL == lwm2m_context)
 297:/home/baikal/workspace/C50/Huawei_IoT_Agent_Tiny_SDK_Linux//agent_tiny/lwm2m_client/agenttiny.c ****     {
 298:/home/baikal/workspace/C50/Huawei_IoT_Agent_Tiny_SDK_Linux//agent_tiny/lwm2m_client/agenttiny.c ****         ATINY_LOG(LOG_FATAL, "lwm2m_init fail");
 299:/home/baikal/workspace/C50/Huawei_IoT_Agent_Tiny_SDK_Linux//agent_tiny/lwm2m_client/agenttiny.c ****         return ATINY_MALLOC_FAILED;
 300:/home/baikal/workspace/C50/Huawei_IoT_Agent_Tiny_SDK_Linux//agent_tiny/lwm2m_client/agenttiny.c ****     }
 301:/home/baikal/workspace/C50/Huawei_IoT_Agent_Tiny_SDK_Linux//agent_tiny/lwm2m_client/agenttiny.c ****     lwm2m_context->observe_mutex = atiny_mutex_create();
 302:/home/baikal/workspace/C50/Huawei_IoT_Agent_Tiny_SDK_Linux//agent_tiny/lwm2m_client/agenttiny.c ****     if (NULL == lwm2m_context->observe_mutex)
 303:/home/baikal/workspace/C50/Huawei_IoT_Agent_Tiny_SDK_Linux//agent_tiny/lwm2m_client/agenttiny.c ****     {
GAS LISTING /tmp/ccZJW6Kf.s 			page 8


 304:/home/baikal/workspace/C50/Huawei_IoT_Agent_Tiny_SDK_Linux//agent_tiny/lwm2m_client/agenttiny.c ****         ATINY_LOG(LOG_FATAL, "atiny_mutex_create fail");
 305:/home/baikal/workspace/C50/Huawei_IoT_Agent_Tiny_SDK_Linux//agent_tiny/lwm2m_client/agenttiny.c ****         lwm2m_free(lwm2m_context);
 306:/home/baikal/workspace/C50/Huawei_IoT_Agent_Tiny_SDK_Linux//agent_tiny/lwm2m_client/agenttiny.c ****         return ATINY_RESOURCE_NOT_ENOUGH;
 307:/home/baikal/workspace/C50/Huawei_IoT_Agent_Tiny_SDK_Linux//agent_tiny/lwm2m_client/agenttiny.c ****     }
 308:/home/baikal/workspace/C50/Huawei_IoT_Agent_Tiny_SDK_Linux//agent_tiny/lwm2m_client/agenttiny.c **** 
 309:/home/baikal/workspace/C50/Huawei_IoT_Agent_Tiny_SDK_Linux//agent_tiny/lwm2m_client/agenttiny.c ****     pdata->lwm2mH = lwm2m_context;
 310:/home/baikal/workspace/C50/Huawei_IoT_Agent_Tiny_SDK_Linux//agent_tiny/lwm2m_client/agenttiny.c **** 
 311:/home/baikal/workspace/C50/Huawei_IoT_Agent_Tiny_SDK_Linux//agent_tiny/lwm2m_client/agenttiny.c ****     handle->lwm2m_context = lwm2m_context;
 312:/home/baikal/workspace/C50/Huawei_IoT_Agent_Tiny_SDK_Linux//agent_tiny/lwm2m_client/agenttiny.c **** 
 313:/home/baikal/workspace/C50/Huawei_IoT_Agent_Tiny_SDK_Linux//agent_tiny/lwm2m_client/agenttiny.c ****     //even if not in bootstrap sequence mode, still set it NO_BS_SEQUENCE_STATE
 314:/home/baikal/workspace/C50/Huawei_IoT_Agent_Tiny_SDK_Linux//agent_tiny/lwm2m_client/agenttiny.c ****     atiny_set_bootstrap_sequence_state(atiny_params, lwm2m_context);
 315:/home/baikal/workspace/C50/Huawei_IoT_Agent_Tiny_SDK_Linux//agent_tiny/lwm2m_client/agenttiny.c **** 
 316:/home/baikal/workspace/C50/Huawei_IoT_Agent_Tiny_SDK_Linux//agent_tiny/lwm2m_client/agenttiny.c ****     handle->obj_array[OBJ_SECURITY_INDEX] = get_security_object(serverId, atiny_params, lwm2m_conte
 317:/home/baikal/workspace/C50/Huawei_IoT_Agent_Tiny_SDK_Linux//agent_tiny/lwm2m_client/agenttiny.c **** 
 318:/home/baikal/workspace/C50/Huawei_IoT_Agent_Tiny_SDK_Linux//agent_tiny/lwm2m_client/agenttiny.c ****     if (NULL ==  handle->obj_array[OBJ_SECURITY_INDEX])
 319:/home/baikal/workspace/C50/Huawei_IoT_Agent_Tiny_SDK_Linux//agent_tiny/lwm2m_client/agenttiny.c ****     {
 320:/home/baikal/workspace/C50/Huawei_IoT_Agent_Tiny_SDK_Linux//agent_tiny/lwm2m_client/agenttiny.c ****         ATINY_LOG(LOG_FATAL, "Failed to create security object");
 321:/home/baikal/workspace/C50/Huawei_IoT_Agent_Tiny_SDK_Linux//agent_tiny/lwm2m_client/agenttiny.c ****         return ATINY_MALLOC_FAILED;
 322:/home/baikal/workspace/C50/Huawei_IoT_Agent_Tiny_SDK_Linux//agent_tiny/lwm2m_client/agenttiny.c ****     }
 323:/home/baikal/workspace/C50/Huawei_IoT_Agent_Tiny_SDK_Linux//agent_tiny/lwm2m_client/agenttiny.c ****     pdata->securityObjP = handle->obj_array[OBJ_SECURITY_INDEX];
 324:/home/baikal/workspace/C50/Huawei_IoT_Agent_Tiny_SDK_Linux//agent_tiny/lwm2m_client/agenttiny.c **** 
 325:/home/baikal/workspace/C50/Huawei_IoT_Agent_Tiny_SDK_Linux//agent_tiny/lwm2m_client/agenttiny.c ****     handle->obj_array[OBJ_SERVER_INDEX] = get_server_object(serverId, atiny_params->server_params.b
 326:/home/baikal/workspace/C50/Huawei_IoT_Agent_Tiny_SDK_Linux//agent_tiny/lwm2m_client/agenttiny.c ****                                           atiny_params->server_params.life_time, atiny_params->serv
 327:/home/baikal/workspace/C50/Huawei_IoT_Agent_Tiny_SDK_Linux//agent_tiny/lwm2m_client/agenttiny.c ****     if (NULL == handle->obj_array[OBJ_SERVER_INDEX])
 328:/home/baikal/workspace/C50/Huawei_IoT_Agent_Tiny_SDK_Linux//agent_tiny/lwm2m_client/agenttiny.c ****     {
 329:/home/baikal/workspace/C50/Huawei_IoT_Agent_Tiny_SDK_Linux//agent_tiny/lwm2m_client/agenttiny.c ****         ATINY_LOG(LOG_FATAL, "Failed to create server object");
 330:/home/baikal/workspace/C50/Huawei_IoT_Agent_Tiny_SDK_Linux//agent_tiny/lwm2m_client/agenttiny.c ****         return ATINY_MALLOC_FAILED;
 331:/home/baikal/workspace/C50/Huawei_IoT_Agent_Tiny_SDK_Linux//agent_tiny/lwm2m_client/agenttiny.c ****     }
 332:/home/baikal/workspace/C50/Huawei_IoT_Agent_Tiny_SDK_Linux//agent_tiny/lwm2m_client/agenttiny.c **** 
 333:/home/baikal/workspace/C50/Huawei_IoT_Agent_Tiny_SDK_Linux//agent_tiny/lwm2m_client/agenttiny.c ****     handle->obj_array[OBJ_DEVICE_INDEX] = get_object_device(atiny_params, device_info->manufacturer
 334:/home/baikal/workspace/C50/Huawei_IoT_Agent_Tiny_SDK_Linux//agent_tiny/lwm2m_client/agenttiny.c ****     if (NULL == handle->obj_array[OBJ_DEVICE_INDEX])
 335:/home/baikal/workspace/C50/Huawei_IoT_Agent_Tiny_SDK_Linux//agent_tiny/lwm2m_client/agenttiny.c ****     {
 336:/home/baikal/workspace/C50/Huawei_IoT_Agent_Tiny_SDK_Linux//agent_tiny/lwm2m_client/agenttiny.c ****         ATINY_LOG(LOG_FATAL, "Failed to create device object");
 337:/home/baikal/workspace/C50/Huawei_IoT_Agent_Tiny_SDK_Linux//agent_tiny/lwm2m_client/agenttiny.c ****         return ATINY_MALLOC_FAILED;
 338:/home/baikal/workspace/C50/Huawei_IoT_Agent_Tiny_SDK_Linux//agent_tiny/lwm2m_client/agenttiny.c ****     }
 339:/home/baikal/workspace/C50/Huawei_IoT_Agent_Tiny_SDK_Linux//agent_tiny/lwm2m_client/agenttiny.c **** 
 340:/home/baikal/workspace/C50/Huawei_IoT_Agent_Tiny_SDK_Linux//agent_tiny/lwm2m_client/agenttiny.c ****     handle->obj_array[OBJ_FIRMWARE_INDEX] = get_object_firmware(atiny_params);
 341:/home/baikal/workspace/C50/Huawei_IoT_Agent_Tiny_SDK_Linux//agent_tiny/lwm2m_client/agenttiny.c **** #ifdef CONFIG_FEATURE_FOTA
 342:/home/baikal/workspace/C50/Huawei_IoT_Agent_Tiny_SDK_Linux//agent_tiny/lwm2m_client/agenttiny.c ****     if (NULL == handle->obj_array[OBJ_FIRMWARE_INDEX])
 343:/home/baikal/workspace/C50/Huawei_IoT_Agent_Tiny_SDK_Linux//agent_tiny/lwm2m_client/agenttiny.c ****     {
 344:/home/baikal/workspace/C50/Huawei_IoT_Agent_Tiny_SDK_Linux//agent_tiny/lwm2m_client/agenttiny.c ****         ATINY_LOG(LOG_FATAL, "Failed to create firmware object");
 345:/home/baikal/workspace/C50/Huawei_IoT_Agent_Tiny_SDK_Linux//agent_tiny/lwm2m_client/agenttiny.c ****         return ATINY_MALLOC_FAILED;
 346:/home/baikal/workspace/C50/Huawei_IoT_Agent_Tiny_SDK_Linux//agent_tiny/lwm2m_client/agenttiny.c ****     }
 347:/home/baikal/workspace/C50/Huawei_IoT_Agent_Tiny_SDK_Linux//agent_tiny/lwm2m_client/agenttiny.c **** #endif
 348:/home/baikal/workspace/C50/Huawei_IoT_Agent_Tiny_SDK_Linux//agent_tiny/lwm2m_client/agenttiny.c **** 
 349:/home/baikal/workspace/C50/Huawei_IoT_Agent_Tiny_SDK_Linux//agent_tiny/lwm2m_client/agenttiny.c ****     handle->obj_array[OBJ_CONNECT_INDEX] = get_object_conn_m(atiny_params);
 350:/home/baikal/workspace/C50/Huawei_IoT_Agent_Tiny_SDK_Linux//agent_tiny/lwm2m_client/agenttiny.c ****     if (NULL == handle->obj_array[OBJ_CONNECT_INDEX])
 351:/home/baikal/workspace/C50/Huawei_IoT_Agent_Tiny_SDK_Linux//agent_tiny/lwm2m_client/agenttiny.c ****     {
 352:/home/baikal/workspace/C50/Huawei_IoT_Agent_Tiny_SDK_Linux//agent_tiny/lwm2m_client/agenttiny.c ****         ATINY_LOG(LOG_FATAL, "Failed to create connect object");
 353:/home/baikal/workspace/C50/Huawei_IoT_Agent_Tiny_SDK_Linux//agent_tiny/lwm2m_client/agenttiny.c ****         return ATINY_MALLOC_FAILED;
 354:/home/baikal/workspace/C50/Huawei_IoT_Agent_Tiny_SDK_Linux//agent_tiny/lwm2m_client/agenttiny.c ****     }
 355:/home/baikal/workspace/C50/Huawei_IoT_Agent_Tiny_SDK_Linux//agent_tiny/lwm2m_client/agenttiny.c **** 
 356:/home/baikal/workspace/C50/Huawei_IoT_Agent_Tiny_SDK_Linux//agent_tiny/lwm2m_client/agenttiny.c ****     handle->obj_array[OBJ_APP_INDEX] = get_binary_app_data_object(atiny_params);
 357:/home/baikal/workspace/C50/Huawei_IoT_Agent_Tiny_SDK_Linux//agent_tiny/lwm2m_client/agenttiny.c ****     if (NULL == handle->obj_array[OBJ_APP_INDEX])
 358:/home/baikal/workspace/C50/Huawei_IoT_Agent_Tiny_SDK_Linux//agent_tiny/lwm2m_client/agenttiny.c ****     {
 359:/home/baikal/workspace/C50/Huawei_IoT_Agent_Tiny_SDK_Linux//agent_tiny/lwm2m_client/agenttiny.c ****         ATINY_LOG(LOG_FATAL, "Failed to create app object");
 360:/home/baikal/workspace/C50/Huawei_IoT_Agent_Tiny_SDK_Linux//agent_tiny/lwm2m_client/agenttiny.c ****         return ATINY_MALLOC_FAILED;
GAS LISTING /tmp/ccZJW6Kf.s 			page 9


 361:/home/baikal/workspace/C50/Huawei_IoT_Agent_Tiny_SDK_Linux//agent_tiny/lwm2m_client/agenttiny.c ****     }
 362:/home/baikal/workspace/C50/Huawei_IoT_Agent_Tiny_SDK_Linux//agent_tiny/lwm2m_client/agenttiny.c **** 
 363:/home/baikal/workspace/C50/Huawei_IoT_Agent_Tiny_SDK_Linux//agent_tiny/lwm2m_client/agenttiny.c ****     result = lwm2m_configure(lwm2m_context, epname, NULL, NULL, OBJ_MAX_NUM, handle->obj_array);
 364:/home/baikal/workspace/C50/Huawei_IoT_Agent_Tiny_SDK_Linux//agent_tiny/lwm2m_client/agenttiny.c ****     if (result != 0)
 365:/home/baikal/workspace/C50/Huawei_IoT_Agent_Tiny_SDK_Linux//agent_tiny/lwm2m_client/agenttiny.c ****     {
 366:/home/baikal/workspace/C50/Huawei_IoT_Agent_Tiny_SDK_Linux//agent_tiny/lwm2m_client/agenttiny.c ****         return ATINY_RESOURCE_NOT_FOUND;
 367:/home/baikal/workspace/C50/Huawei_IoT_Agent_Tiny_SDK_Linux//agent_tiny/lwm2m_client/agenttiny.c ****     }
 368:/home/baikal/workspace/C50/Huawei_IoT_Agent_Tiny_SDK_Linux//agent_tiny/lwm2m_client/agenttiny.c **** 
 369:/home/baikal/workspace/C50/Huawei_IoT_Agent_Tiny_SDK_Linux//agent_tiny/lwm2m_client/agenttiny.c ****     return ATINY_OK;
 370:/home/baikal/workspace/C50/Huawei_IoT_Agent_Tiny_SDK_Linux//agent_tiny/lwm2m_client/agenttiny.c **** }
 371:/home/baikal/workspace/C50/Huawei_IoT_Agent_Tiny_SDK_Linux//agent_tiny/lwm2m_client/agenttiny.c **** 
 372:/home/baikal/workspace/C50/Huawei_IoT_Agent_Tiny_SDK_Linux//agent_tiny/lwm2m_client/agenttiny.c **** static int lwm2m_poll(handle_data_t *phandle, uint32_t *timeout)
 373:/home/baikal/workspace/C50/Huawei_IoT_Agent_Tiny_SDK_Linux//agent_tiny/lwm2m_client/agenttiny.c **** {
 374:/home/baikal/workspace/C50/Huawei_IoT_Agent_Tiny_SDK_Linux//agent_tiny/lwm2m_client/agenttiny.c ****     client_data_t *dataP;
 375:/home/baikal/workspace/C50/Huawei_IoT_Agent_Tiny_SDK_Linux//agent_tiny/lwm2m_client/agenttiny.c ****     int numBytes;
 376:/home/baikal/workspace/C50/Huawei_IoT_Agent_Tiny_SDK_Linux//agent_tiny/lwm2m_client/agenttiny.c ****     connection_t *connP;
 377:/home/baikal/workspace/C50/Huawei_IoT_Agent_Tiny_SDK_Linux//agent_tiny/lwm2m_client/agenttiny.c ****     lwm2m_context_t *contextP = phandle->lwm2m_context;
 378:/home/baikal/workspace/C50/Huawei_IoT_Agent_Tiny_SDK_Linux//agent_tiny/lwm2m_client/agenttiny.c ****     uint8_t *recv_buffer = phandle->recv_buffer;
 379:/home/baikal/workspace/C50/Huawei_IoT_Agent_Tiny_SDK_Linux//agent_tiny/lwm2m_client/agenttiny.c **** 
 380:/home/baikal/workspace/C50/Huawei_IoT_Agent_Tiny_SDK_Linux//agent_tiny/lwm2m_client/agenttiny.c ****     dataP = (client_data_t *)(contextP->userData);
 381:/home/baikal/workspace/C50/Huawei_IoT_Agent_Tiny_SDK_Linux//agent_tiny/lwm2m_client/agenttiny.c ****     connP = dataP->connList;
 382:/home/baikal/workspace/C50/Huawei_IoT_Agent_Tiny_SDK_Linux//agent_tiny/lwm2m_client/agenttiny.c **** 
 383:/home/baikal/workspace/C50/Huawei_IoT_Agent_Tiny_SDK_Linux//agent_tiny/lwm2m_client/agenttiny.c ****     while (connP != NULL)
 384:/home/baikal/workspace/C50/Huawei_IoT_Agent_Tiny_SDK_Linux//agent_tiny/lwm2m_client/agenttiny.c ****     {
 385:/home/baikal/workspace/C50/Huawei_IoT_Agent_Tiny_SDK_Linux//agent_tiny/lwm2m_client/agenttiny.c ****         numBytes = lwm2m_buffer_recv(connP, recv_buffer, MAX_PACKET_SIZE, *timeout);
 386:/home/baikal/workspace/C50/Huawei_IoT_Agent_Tiny_SDK_Linux//agent_tiny/lwm2m_client/agenttiny.c ****         if (numBytes <= 0)
 387:/home/baikal/workspace/C50/Huawei_IoT_Agent_Tiny_SDK_Linux//agent_tiny/lwm2m_client/agenttiny.c ****         {
 388:/home/baikal/workspace/C50/Huawei_IoT_Agent_Tiny_SDK_Linux//agent_tiny/lwm2m_client/agenttiny.c ****             ATINY_LOG(LOG_INFO, "no packet arrived!");
 389:/home/baikal/workspace/C50/Huawei_IoT_Agent_Tiny_SDK_Linux//agent_tiny/lwm2m_client/agenttiny.c ****         }
 390:/home/baikal/workspace/C50/Huawei_IoT_Agent_Tiny_SDK_Linux//agent_tiny/lwm2m_client/agenttiny.c ****         else
 391:/home/baikal/workspace/C50/Huawei_IoT_Agent_Tiny_SDK_Linux//agent_tiny/lwm2m_client/agenttiny.c ****         {
 392:/home/baikal/workspace/C50/Huawei_IoT_Agent_Tiny_SDK_Linux//agent_tiny/lwm2m_client/agenttiny.c ****             output_buffer(stderr, recv_buffer, numBytes, 0);
 393:/home/baikal/workspace/C50/Huawei_IoT_Agent_Tiny_SDK_Linux//agent_tiny/lwm2m_client/agenttiny.c ****             lwm2m_handle_packet(contextP, recv_buffer, numBytes, connP);
 394:/home/baikal/workspace/C50/Huawei_IoT_Agent_Tiny_SDK_Linux//agent_tiny/lwm2m_client/agenttiny.c ****         }
 395:/home/baikal/workspace/C50/Huawei_IoT_Agent_Tiny_SDK_Linux//agent_tiny/lwm2m_client/agenttiny.c ****         connP = connP->next;
 396:/home/baikal/workspace/C50/Huawei_IoT_Agent_Tiny_SDK_Linux//agent_tiny/lwm2m_client/agenttiny.c ****     }
 397:/home/baikal/workspace/C50/Huawei_IoT_Agent_Tiny_SDK_Linux//agent_tiny/lwm2m_client/agenttiny.c **** 
 398:/home/baikal/workspace/C50/Huawei_IoT_Agent_Tiny_SDK_Linux//agent_tiny/lwm2m_client/agenttiny.c ****     return ATINY_OK;
 399:/home/baikal/workspace/C50/Huawei_IoT_Agent_Tiny_SDK_Linux//agent_tiny/lwm2m_client/agenttiny.c **** }
 400:/home/baikal/workspace/C50/Huawei_IoT_Agent_Tiny_SDK_Linux//agent_tiny/lwm2m_client/agenttiny.c **** 
 401:/home/baikal/workspace/C50/Huawei_IoT_Agent_Tiny_SDK_Linux//agent_tiny/lwm2m_client/agenttiny.c **** void atiny_destroy(void *handle)
 402:/home/baikal/workspace/C50/Huawei_IoT_Agent_Tiny_SDK_Linux//agent_tiny/lwm2m_client/agenttiny.c **** {
 403:/home/baikal/workspace/C50/Huawei_IoT_Agent_Tiny_SDK_Linux//agent_tiny/lwm2m_client/agenttiny.c ****     handle_data_t *handle_data = (handle_data_t *)handle;
 404:/home/baikal/workspace/C50/Huawei_IoT_Agent_Tiny_SDK_Linux//agent_tiny/lwm2m_client/agenttiny.c **** 
 405:/home/baikal/workspace/C50/Huawei_IoT_Agent_Tiny_SDK_Linux//agent_tiny/lwm2m_client/agenttiny.c ****     if (handle_data == NULL)
 406:/home/baikal/workspace/C50/Huawei_IoT_Agent_Tiny_SDK_Linux//agent_tiny/lwm2m_client/agenttiny.c ****     {
 407:/home/baikal/workspace/C50/Huawei_IoT_Agent_Tiny_SDK_Linux//agent_tiny/lwm2m_client/agenttiny.c ****         return;
 408:/home/baikal/workspace/C50/Huawei_IoT_Agent_Tiny_SDK_Linux//agent_tiny/lwm2m_client/agenttiny.c ****     }
 409:/home/baikal/workspace/C50/Huawei_IoT_Agent_Tiny_SDK_Linux//agent_tiny/lwm2m_client/agenttiny.c **** #ifdef CONFIG_FEATURE_FOTA
 410:/home/baikal/workspace/C50/Huawei_IoT_Agent_Tiny_SDK_Linux//agent_tiny/lwm2m_client/agenttiny.c ****     atiny_fota_manager_destroy(atiny_fota_manager_get_instance());
 411:/home/baikal/workspace/C50/Huawei_IoT_Agent_Tiny_SDK_Linux//agent_tiny/lwm2m_client/agenttiny.c **** #endif
 412:/home/baikal/workspace/C50/Huawei_IoT_Agent_Tiny_SDK_Linux//agent_tiny/lwm2m_client/agenttiny.c ****     if(handle_data->recv_buffer != NULL)
 413:/home/baikal/workspace/C50/Huawei_IoT_Agent_Tiny_SDK_Linux//agent_tiny/lwm2m_client/agenttiny.c ****     {
 414:/home/baikal/workspace/C50/Huawei_IoT_Agent_Tiny_SDK_Linux//agent_tiny/lwm2m_client/agenttiny.c ****         lwm2m_free(handle_data->recv_buffer);
 415:/home/baikal/workspace/C50/Huawei_IoT_Agent_Tiny_SDK_Linux//agent_tiny/lwm2m_client/agenttiny.c ****     }
 416:/home/baikal/workspace/C50/Huawei_IoT_Agent_Tiny_SDK_Linux//agent_tiny/lwm2m_client/agenttiny.c ****     if (handle_data->obj_array[OBJ_SECURITY_INDEX] != NULL)
 417:/home/baikal/workspace/C50/Huawei_IoT_Agent_Tiny_SDK_Linux//agent_tiny/lwm2m_client/agenttiny.c ****     {
GAS LISTING /tmp/ccZJW6Kf.s 			page 10


 418:/home/baikal/workspace/C50/Huawei_IoT_Agent_Tiny_SDK_Linux//agent_tiny/lwm2m_client/agenttiny.c ****         clean_security_object(handle_data->obj_array[OBJ_SECURITY_INDEX]);
 419:/home/baikal/workspace/C50/Huawei_IoT_Agent_Tiny_SDK_Linux//agent_tiny/lwm2m_client/agenttiny.c ****     }
 420:/home/baikal/workspace/C50/Huawei_IoT_Agent_Tiny_SDK_Linux//agent_tiny/lwm2m_client/agenttiny.c **** 
 421:/home/baikal/workspace/C50/Huawei_IoT_Agent_Tiny_SDK_Linux//agent_tiny/lwm2m_client/agenttiny.c ****     if (handle_data->obj_array[OBJ_SERVER_INDEX] != NULL)
 422:/home/baikal/workspace/C50/Huawei_IoT_Agent_Tiny_SDK_Linux//agent_tiny/lwm2m_client/agenttiny.c ****     {
 423:/home/baikal/workspace/C50/Huawei_IoT_Agent_Tiny_SDK_Linux//agent_tiny/lwm2m_client/agenttiny.c ****         clean_server_object(handle_data->obj_array[OBJ_SERVER_INDEX]);
 424:/home/baikal/workspace/C50/Huawei_IoT_Agent_Tiny_SDK_Linux//agent_tiny/lwm2m_client/agenttiny.c ****     }
 425:/home/baikal/workspace/C50/Huawei_IoT_Agent_Tiny_SDK_Linux//agent_tiny/lwm2m_client/agenttiny.c **** 
 426:/home/baikal/workspace/C50/Huawei_IoT_Agent_Tiny_SDK_Linux//agent_tiny/lwm2m_client/agenttiny.c ****     if (handle_data->obj_array[OBJ_DEVICE_INDEX] != NULL)
 427:/home/baikal/workspace/C50/Huawei_IoT_Agent_Tiny_SDK_Linux//agent_tiny/lwm2m_client/agenttiny.c ****     {
 428:/home/baikal/workspace/C50/Huawei_IoT_Agent_Tiny_SDK_Linux//agent_tiny/lwm2m_client/agenttiny.c ****         free_object_device(handle_data->obj_array[OBJ_DEVICE_INDEX]);
 429:/home/baikal/workspace/C50/Huawei_IoT_Agent_Tiny_SDK_Linux//agent_tiny/lwm2m_client/agenttiny.c ****     }
 430:/home/baikal/workspace/C50/Huawei_IoT_Agent_Tiny_SDK_Linux//agent_tiny/lwm2m_client/agenttiny.c **** 
 431:/home/baikal/workspace/C50/Huawei_IoT_Agent_Tiny_SDK_Linux//agent_tiny/lwm2m_client/agenttiny.c ****     if (handle_data->obj_array[OBJ_FIRMWARE_INDEX] != NULL)
 432:/home/baikal/workspace/C50/Huawei_IoT_Agent_Tiny_SDK_Linux//agent_tiny/lwm2m_client/agenttiny.c ****     {
 433:/home/baikal/workspace/C50/Huawei_IoT_Agent_Tiny_SDK_Linux//agent_tiny/lwm2m_client/agenttiny.c ****         free_object_firmware(handle_data->obj_array[OBJ_FIRMWARE_INDEX]);
 434:/home/baikal/workspace/C50/Huawei_IoT_Agent_Tiny_SDK_Linux//agent_tiny/lwm2m_client/agenttiny.c ****     }
 435:/home/baikal/workspace/C50/Huawei_IoT_Agent_Tiny_SDK_Linux//agent_tiny/lwm2m_client/agenttiny.c **** 
 436:/home/baikal/workspace/C50/Huawei_IoT_Agent_Tiny_SDK_Linux//agent_tiny/lwm2m_client/agenttiny.c ****     if (handle_data->obj_array[OBJ_CONNECT_INDEX] != NULL)
 437:/home/baikal/workspace/C50/Huawei_IoT_Agent_Tiny_SDK_Linux//agent_tiny/lwm2m_client/agenttiny.c ****     {
 438:/home/baikal/workspace/C50/Huawei_IoT_Agent_Tiny_SDK_Linux//agent_tiny/lwm2m_client/agenttiny.c ****         free_object_conn_m(handle_data->obj_array[OBJ_CONNECT_INDEX]);
 439:/home/baikal/workspace/C50/Huawei_IoT_Agent_Tiny_SDK_Linux//agent_tiny/lwm2m_client/agenttiny.c ****     }
 440:/home/baikal/workspace/C50/Huawei_IoT_Agent_Tiny_SDK_Linux//agent_tiny/lwm2m_client/agenttiny.c **** 
 441:/home/baikal/workspace/C50/Huawei_IoT_Agent_Tiny_SDK_Linux//agent_tiny/lwm2m_client/agenttiny.c ****     if (handle_data->obj_array[OBJ_APP_INDEX] != NULL)
 442:/home/baikal/workspace/C50/Huawei_IoT_Agent_Tiny_SDK_Linux//agent_tiny/lwm2m_client/agenttiny.c ****     {
 443:/home/baikal/workspace/C50/Huawei_IoT_Agent_Tiny_SDK_Linux//agent_tiny/lwm2m_client/agenttiny.c ****         free_binary_app_data_object(handle_data->obj_array[OBJ_APP_INDEX]);
 444:/home/baikal/workspace/C50/Huawei_IoT_Agent_Tiny_SDK_Linux//agent_tiny/lwm2m_client/agenttiny.c ****     }
 445:/home/baikal/workspace/C50/Huawei_IoT_Agent_Tiny_SDK_Linux//agent_tiny/lwm2m_client/agenttiny.c ****     atiny_destroy_rpt();
 446:/home/baikal/workspace/C50/Huawei_IoT_Agent_Tiny_SDK_Linux//agent_tiny/lwm2m_client/agenttiny.c **** 
 447:/home/baikal/workspace/C50/Huawei_IoT_Agent_Tiny_SDK_Linux//agent_tiny/lwm2m_client/agenttiny.c ****     if (handle_data->lwm2m_context != NULL)
 448:/home/baikal/workspace/C50/Huawei_IoT_Agent_Tiny_SDK_Linux//agent_tiny/lwm2m_client/agenttiny.c ****     {
 449:/home/baikal/workspace/C50/Huawei_IoT_Agent_Tiny_SDK_Linux//agent_tiny/lwm2m_client/agenttiny.c ****         if (handle_data->lwm2m_context->observe_mutex != NULL)
 450:/home/baikal/workspace/C50/Huawei_IoT_Agent_Tiny_SDK_Linux//agent_tiny/lwm2m_client/agenttiny.c ****         {
 451:/home/baikal/workspace/C50/Huawei_IoT_Agent_Tiny_SDK_Linux//agent_tiny/lwm2m_client/agenttiny.c ****             atiny_mutex_destroy(handle_data->lwm2m_context->observe_mutex);
 452:/home/baikal/workspace/C50/Huawei_IoT_Agent_Tiny_SDK_Linux//agent_tiny/lwm2m_client/agenttiny.c ****         }
 453:/home/baikal/workspace/C50/Huawei_IoT_Agent_Tiny_SDK_Linux//agent_tiny/lwm2m_client/agenttiny.c ****         lwm2m_close(handle_data->lwm2m_context);
 454:/home/baikal/workspace/C50/Huawei_IoT_Agent_Tiny_SDK_Linux//agent_tiny/lwm2m_client/agenttiny.c ****     }
 455:/home/baikal/workspace/C50/Huawei_IoT_Agent_Tiny_SDK_Linux//agent_tiny/lwm2m_client/agenttiny.c ****     atiny_mutex_unlock(handle_data->quit_sem);
 456:/home/baikal/workspace/C50/Huawei_IoT_Agent_Tiny_SDK_Linux//agent_tiny/lwm2m_client/agenttiny.c **** }
 457:/home/baikal/workspace/C50/Huawei_IoT_Agent_Tiny_SDK_Linux//agent_tiny/lwm2m_client/agenttiny.c **** 
 458:/home/baikal/workspace/C50/Huawei_IoT_Agent_Tiny_SDK_Linux//agent_tiny/lwm2m_client/agenttiny.c **** void atiny_event_handle(module_type_t type, int code, const char *arg, int arg_len)
 459:/home/baikal/workspace/C50/Huawei_IoT_Agent_Tiny_SDK_Linux//agent_tiny/lwm2m_client/agenttiny.c **** {
 460:/home/baikal/workspace/C50/Huawei_IoT_Agent_Tiny_SDK_Linux//agent_tiny/lwm2m_client/agenttiny.c ****     switch (type)
 461:/home/baikal/workspace/C50/Huawei_IoT_Agent_Tiny_SDK_Linux//agent_tiny/lwm2m_client/agenttiny.c ****     {
 462:/home/baikal/workspace/C50/Huawei_IoT_Agent_Tiny_SDK_Linux//agent_tiny/lwm2m_client/agenttiny.c ****     case MODULE_LWM2M:
 463:/home/baikal/workspace/C50/Huawei_IoT_Agent_Tiny_SDK_Linux//agent_tiny/lwm2m_client/agenttiny.c ****     {
 464:/home/baikal/workspace/C50/Huawei_IoT_Agent_Tiny_SDK_Linux//agent_tiny/lwm2m_client/agenttiny.c ****         if (code == STATE_REGISTERED)
 465:/home/baikal/workspace/C50/Huawei_IoT_Agent_Tiny_SDK_Linux//agent_tiny/lwm2m_client/agenttiny.c ****         {
 466:/home/baikal/workspace/C50/Huawei_IoT_Agent_Tiny_SDK_Linux//agent_tiny/lwm2m_client/agenttiny.c ****             atiny_event_notify(ATINY_REG_OK, NULL, 0);
 467:/home/baikal/workspace/C50/Huawei_IoT_Agent_Tiny_SDK_Linux//agent_tiny/lwm2m_client/agenttiny.c **** #ifdef CONFIG_FEATURE_FOTA
 468:/home/baikal/workspace/C50/Huawei_IoT_Agent_Tiny_SDK_Linux//agent_tiny/lwm2m_client/agenttiny.c ****             (void)atiny_fota_manager_repot_result(atiny_fota_manager_get_instance());
 469:/home/baikal/workspace/C50/Huawei_IoT_Agent_Tiny_SDK_Linux//agent_tiny/lwm2m_client/agenttiny.c **** #endif
 470:/home/baikal/workspace/C50/Huawei_IoT_Agent_Tiny_SDK_Linux//agent_tiny/lwm2m_client/agenttiny.c ****         }
 471:/home/baikal/workspace/C50/Huawei_IoT_Agent_Tiny_SDK_Linux//agent_tiny/lwm2m_client/agenttiny.c ****         else if (code == STATE_REG_FAILED)
 472:/home/baikal/workspace/C50/Huawei_IoT_Agent_Tiny_SDK_Linux//agent_tiny/lwm2m_client/agenttiny.c ****         {
 473:/home/baikal/workspace/C50/Huawei_IoT_Agent_Tiny_SDK_Linux//agent_tiny/lwm2m_client/agenttiny.c ****             atiny_event_notify(ATINY_REG_FAIL, NULL, 0);
 474:/home/baikal/workspace/C50/Huawei_IoT_Agent_Tiny_SDK_Linux//agent_tiny/lwm2m_client/agenttiny.c **** 
GAS LISTING /tmp/ccZJW6Kf.s 			page 11


 475:/home/baikal/workspace/C50/Huawei_IoT_Agent_Tiny_SDK_Linux//agent_tiny/lwm2m_client/agenttiny.c ****         }
 476:/home/baikal/workspace/C50/Huawei_IoT_Agent_Tiny_SDK_Linux//agent_tiny/lwm2m_client/agenttiny.c ****         break;
 477:/home/baikal/workspace/C50/Huawei_IoT_Agent_Tiny_SDK_Linux//agent_tiny/lwm2m_client/agenttiny.c ****     }
 478:/home/baikal/workspace/C50/Huawei_IoT_Agent_Tiny_SDK_Linux//agent_tiny/lwm2m_client/agenttiny.c ****     case MODULE_NET:
 479:/home/baikal/workspace/C50/Huawei_IoT_Agent_Tiny_SDK_Linux//agent_tiny/lwm2m_client/agenttiny.c ****     {
 480:/home/baikal/workspace/C50/Huawei_IoT_Agent_Tiny_SDK_Linux//agent_tiny/lwm2m_client/agenttiny.c ****         break;
 481:/home/baikal/workspace/C50/Huawei_IoT_Agent_Tiny_SDK_Linux//agent_tiny/lwm2m_client/agenttiny.c ****     }
 482:/home/baikal/workspace/C50/Huawei_IoT_Agent_Tiny_SDK_Linux//agent_tiny/lwm2m_client/agenttiny.c ****     case MODULE_URI:
 483:/home/baikal/workspace/C50/Huawei_IoT_Agent_Tiny_SDK_Linux//agent_tiny/lwm2m_client/agenttiny.c ****     {
 484:/home/baikal/workspace/C50/Huawei_IoT_Agent_Tiny_SDK_Linux//agent_tiny/lwm2m_client/agenttiny.c ****         if ((arg == NULL) || (arg_len < sizeof(lwm2m_uri_t)))
 485:/home/baikal/workspace/C50/Huawei_IoT_Agent_Tiny_SDK_Linux//agent_tiny/lwm2m_client/agenttiny.c ****         {
 486:/home/baikal/workspace/C50/Huawei_IoT_Agent_Tiny_SDK_Linux//agent_tiny/lwm2m_client/agenttiny.c ****             break;
 487:/home/baikal/workspace/C50/Huawei_IoT_Agent_Tiny_SDK_Linux//agent_tiny/lwm2m_client/agenttiny.c ****         }
 488:/home/baikal/workspace/C50/Huawei_IoT_Agent_Tiny_SDK_Linux//agent_tiny/lwm2m_client/agenttiny.c **** 
 489:/home/baikal/workspace/C50/Huawei_IoT_Agent_Tiny_SDK_Linux//agent_tiny/lwm2m_client/agenttiny.c ****         if (code == OBSERVE_UNSUBSCRIBE)
 490:/home/baikal/workspace/C50/Huawei_IoT_Agent_Tiny_SDK_Linux//agent_tiny/lwm2m_client/agenttiny.c ****         {
 491:/home/baikal/workspace/C50/Huawei_IoT_Agent_Tiny_SDK_Linux//agent_tiny/lwm2m_client/agenttiny.c ****             if (dm_isUriOpaqueHandle((lwm2m_uri_t *)arg))
 492:/home/baikal/workspace/C50/Huawei_IoT_Agent_Tiny_SDK_Linux//agent_tiny/lwm2m_client/agenttiny.c ****             {
 493:/home/baikal/workspace/C50/Huawei_IoT_Agent_Tiny_SDK_Linux//agent_tiny/lwm2m_client/agenttiny.c ****                 atiny_report_type_e rpt_type = APP_DATA;
 494:/home/baikal/workspace/C50/Huawei_IoT_Agent_Tiny_SDK_Linux//agent_tiny/lwm2m_client/agenttiny.c ****                 atiny_event_notify(ATINY_DATA_UNSUBSCRIBLE, (char *)&rpt_type, sizeof(rpt_type));
 495:/home/baikal/workspace/C50/Huawei_IoT_Agent_Tiny_SDK_Linux//agent_tiny/lwm2m_client/agenttiny.c ****             }
 496:/home/baikal/workspace/C50/Huawei_IoT_Agent_Tiny_SDK_Linux//agent_tiny/lwm2m_client/agenttiny.c ****             (void)atiny_clear_rpt_data((lwm2m_uri_t *)arg, SENT_FAIL);
 497:/home/baikal/workspace/C50/Huawei_IoT_Agent_Tiny_SDK_Linux//agent_tiny/lwm2m_client/agenttiny.c ****         }
 498:/home/baikal/workspace/C50/Huawei_IoT_Agent_Tiny_SDK_Linux//agent_tiny/lwm2m_client/agenttiny.c ****         else if (code == OBSERVE_SUBSCRIBE)
 499:/home/baikal/workspace/C50/Huawei_IoT_Agent_Tiny_SDK_Linux//agent_tiny/lwm2m_client/agenttiny.c ****         {
 500:/home/baikal/workspace/C50/Huawei_IoT_Agent_Tiny_SDK_Linux//agent_tiny/lwm2m_client/agenttiny.c ****             if (dm_isUriOpaqueHandle((lwm2m_uri_t *)arg))
 501:/home/baikal/workspace/C50/Huawei_IoT_Agent_Tiny_SDK_Linux//agent_tiny/lwm2m_client/agenttiny.c ****             {
 502:/home/baikal/workspace/C50/Huawei_IoT_Agent_Tiny_SDK_Linux//agent_tiny/lwm2m_client/agenttiny.c ****                 atiny_report_type_e rpt_type = APP_DATA;
 503:/home/baikal/workspace/C50/Huawei_IoT_Agent_Tiny_SDK_Linux//agent_tiny/lwm2m_client/agenttiny.c ****                 atiny_event_notify(ATINY_DATA_SUBSCRIBLE, (char *)&rpt_type, sizeof(rpt_type));
 504:/home/baikal/workspace/C50/Huawei_IoT_Agent_Tiny_SDK_Linux//agent_tiny/lwm2m_client/agenttiny.c ****             }
 505:/home/baikal/workspace/C50/Huawei_IoT_Agent_Tiny_SDK_Linux//agent_tiny/lwm2m_client/agenttiny.c ****         }
 506:/home/baikal/workspace/C50/Huawei_IoT_Agent_Tiny_SDK_Linux//agent_tiny/lwm2m_client/agenttiny.c **** 
 507:/home/baikal/workspace/C50/Huawei_IoT_Agent_Tiny_SDK_Linux//agent_tiny/lwm2m_client/agenttiny.c ****         break;
 508:/home/baikal/workspace/C50/Huawei_IoT_Agent_Tiny_SDK_Linux//agent_tiny/lwm2m_client/agenttiny.c ****     }
 509:/home/baikal/workspace/C50/Huawei_IoT_Agent_Tiny_SDK_Linux//agent_tiny/lwm2m_client/agenttiny.c ****     default:
 510:/home/baikal/workspace/C50/Huawei_IoT_Agent_Tiny_SDK_Linux//agent_tiny/lwm2m_client/agenttiny.c ****     {
 511:/home/baikal/workspace/C50/Huawei_IoT_Agent_Tiny_SDK_Linux//agent_tiny/lwm2m_client/agenttiny.c ****         break;
 512:/home/baikal/workspace/C50/Huawei_IoT_Agent_Tiny_SDK_Linux//agent_tiny/lwm2m_client/agenttiny.c ****     }
 513:/home/baikal/workspace/C50/Huawei_IoT_Agent_Tiny_SDK_Linux//agent_tiny/lwm2m_client/agenttiny.c ****     }
 514:/home/baikal/workspace/C50/Huawei_IoT_Agent_Tiny_SDK_Linux//agent_tiny/lwm2m_client/agenttiny.c **** 
 515:/home/baikal/workspace/C50/Huawei_IoT_Agent_Tiny_SDK_Linux//agent_tiny/lwm2m_client/agenttiny.c **** }
 516:/home/baikal/workspace/C50/Huawei_IoT_Agent_Tiny_SDK_Linux//agent_tiny/lwm2m_client/agenttiny.c **** 
 517:/home/baikal/workspace/C50/Huawei_IoT_Agent_Tiny_SDK_Linux//agent_tiny/lwm2m_client/agenttiny.c **** void reboot_check(void)
 518:/home/baikal/workspace/C50/Huawei_IoT_Agent_Tiny_SDK_Linux//agent_tiny/lwm2m_client/agenttiny.c **** {
 519:/home/baikal/workspace/C50/Huawei_IoT_Agent_Tiny_SDK_Linux//agent_tiny/lwm2m_client/agenttiny.c ****     if(g_reboot == 1)
 520:/home/baikal/workspace/C50/Huawei_IoT_Agent_Tiny_SDK_Linux//agent_tiny/lwm2m_client/agenttiny.c ****     {
 521:/home/baikal/workspace/C50/Huawei_IoT_Agent_Tiny_SDK_Linux//agent_tiny/lwm2m_client/agenttiny.c ****         (void)atiny_cmd_ioctl(ATINY_DO_DEV_REBOOT, NULL, 0);
 522:/home/baikal/workspace/C50/Huawei_IoT_Agent_Tiny_SDK_Linux//agent_tiny/lwm2m_client/agenttiny.c ****     }
 523:/home/baikal/workspace/C50/Huawei_IoT_Agent_Tiny_SDK_Linux//agent_tiny/lwm2m_client/agenttiny.c **** }
 524:/home/baikal/workspace/C50/Huawei_IoT_Agent_Tiny_SDK_Linux//agent_tiny/lwm2m_client/agenttiny.c **** 
 525:/home/baikal/workspace/C50/Huawei_IoT_Agent_Tiny_SDK_Linux//agent_tiny/lwm2m_client/agenttiny.c **** static void atiny_connection_err_notify(lwm2m_context_t *context, connection_err_e err_type, bool b
 526:/home/baikal/workspace/C50/Huawei_IoT_Agent_Tiny_SDK_Linux//agent_tiny/lwm2m_client/agenttiny.c **** {
 527:/home/baikal/workspace/C50/Huawei_IoT_Agent_Tiny_SDK_Linux//agent_tiny/lwm2m_client/agenttiny.c ****     handle_data_t *handle = NULL;
 528:/home/baikal/workspace/C50/Huawei_IoT_Agent_Tiny_SDK_Linux//agent_tiny/lwm2m_client/agenttiny.c **** 
 529:/home/baikal/workspace/C50/Huawei_IoT_Agent_Tiny_SDK_Linux//agent_tiny/lwm2m_client/agenttiny.c ****     if((NULL == context) || (NULL == context->userData))
 530:/home/baikal/workspace/C50/Huawei_IoT_Agent_Tiny_SDK_Linux//agent_tiny/lwm2m_client/agenttiny.c ****     {
 531:/home/baikal/workspace/C50/Huawei_IoT_Agent_Tiny_SDK_Linux//agent_tiny/lwm2m_client/agenttiny.c ****         ATINY_LOG(LOG_ERR, "null point");
GAS LISTING /tmp/ccZJW6Kf.s 			page 12


 532:/home/baikal/workspace/C50/Huawei_IoT_Agent_Tiny_SDK_Linux//agent_tiny/lwm2m_client/agenttiny.c ****         return;
 533:/home/baikal/workspace/C50/Huawei_IoT_Agent_Tiny_SDK_Linux//agent_tiny/lwm2m_client/agenttiny.c ****     }
 534:/home/baikal/workspace/C50/Huawei_IoT_Agent_Tiny_SDK_Linux//agent_tiny/lwm2m_client/agenttiny.c **** 
 535:/home/baikal/workspace/C50/Huawei_IoT_Agent_Tiny_SDK_Linux//agent_tiny/lwm2m_client/agenttiny.c ****     if(!boostrap_flag)
 536:/home/baikal/workspace/C50/Huawei_IoT_Agent_Tiny_SDK_Linux//agent_tiny/lwm2m_client/agenttiny.c ****     {
 537:/home/baikal/workspace/C50/Huawei_IoT_Agent_Tiny_SDK_Linux//agent_tiny/lwm2m_client/agenttiny.c ****         handle = ATINY_FIELD_TO_STRUCT(context->userData, handle_data_t, client_data);
 538:/home/baikal/workspace/C50/Huawei_IoT_Agent_Tiny_SDK_Linux//agent_tiny/lwm2m_client/agenttiny.c ****         (void)atiny_reconnect(handle);
 539:/home/baikal/workspace/C50/Huawei_IoT_Agent_Tiny_SDK_Linux//agent_tiny/lwm2m_client/agenttiny.c ****     }
 540:/home/baikal/workspace/C50/Huawei_IoT_Agent_Tiny_SDK_Linux//agent_tiny/lwm2m_client/agenttiny.c ****     ATINY_LOG(LOG_INFO, "connection err type %d bootstrap %d", err_type, boostrap_flag);
 541:/home/baikal/workspace/C50/Huawei_IoT_Agent_Tiny_SDK_Linux//agent_tiny/lwm2m_client/agenttiny.c **** }
 542:/home/baikal/workspace/C50/Huawei_IoT_Agent_Tiny_SDK_Linux//agent_tiny/lwm2m_client/agenttiny.c **** 
 543:/home/baikal/workspace/C50/Huawei_IoT_Agent_Tiny_SDK_Linux//agent_tiny/lwm2m_client/agenttiny.c **** 
 544:/home/baikal/workspace/C50/Huawei_IoT_Agent_Tiny_SDK_Linux//agent_tiny/lwm2m_client/agenttiny.c **** static void atiny_handle_reconnect(handle_data_t *handle)
 545:/home/baikal/workspace/C50/Huawei_IoT_Agent_Tiny_SDK_Linux//agent_tiny/lwm2m_client/agenttiny.c **** {
 546:/home/baikal/workspace/C50/Huawei_IoT_Agent_Tiny_SDK_Linux//agent_tiny/lwm2m_client/agenttiny.c ****     if(handle->reconnect_flag)
 547:/home/baikal/workspace/C50/Huawei_IoT_Agent_Tiny_SDK_Linux//agent_tiny/lwm2m_client/agenttiny.c ****     {
 548:/home/baikal/workspace/C50/Huawei_IoT_Agent_Tiny_SDK_Linux//agent_tiny/lwm2m_client/agenttiny.c ****         (void)lwm2m_reconnect(handle->lwm2m_context);
 549:/home/baikal/workspace/C50/Huawei_IoT_Agent_Tiny_SDK_Linux//agent_tiny/lwm2m_client/agenttiny.c ****         handle->reconnect_flag = false;
 550:/home/baikal/workspace/C50/Huawei_IoT_Agent_Tiny_SDK_Linux//agent_tiny/lwm2m_client/agenttiny.c ****         ATINY_LOG(LOG_INFO, "lwm2m reconnect");
 551:/home/baikal/workspace/C50/Huawei_IoT_Agent_Tiny_SDK_Linux//agent_tiny/lwm2m_client/agenttiny.c ****     }
 552:/home/baikal/workspace/C50/Huawei_IoT_Agent_Tiny_SDK_Linux//agent_tiny/lwm2m_client/agenttiny.c **** }
 553:/home/baikal/workspace/C50/Huawei_IoT_Agent_Tiny_SDK_Linux//agent_tiny/lwm2m_client/agenttiny.c **** 
 554:/home/baikal/workspace/C50/Huawei_IoT_Agent_Tiny_SDK_Linux//agent_tiny/lwm2m_client/agenttiny.c **** int atiny_bind(atiny_device_info_t *device_info, void *phandle)
 555:/home/baikal/workspace/C50/Huawei_IoT_Agent_Tiny_SDK_Linux//agent_tiny/lwm2m_client/agenttiny.c **** {
 556:/home/baikal/workspace/C50/Huawei_IoT_Agent_Tiny_SDK_Linux//agent_tiny/lwm2m_client/agenttiny.c ****     handle_data_t *handle = (handle_data_t *)phandle;
 557:/home/baikal/workspace/C50/Huawei_IoT_Agent_Tiny_SDK_Linux//agent_tiny/lwm2m_client/agenttiny.c ****     uint32_t timeout;
 558:/home/baikal/workspace/C50/Huawei_IoT_Agent_Tiny_SDK_Linux//agent_tiny/lwm2m_client/agenttiny.c ****     int ret;
 559:/home/baikal/workspace/C50/Huawei_IoT_Agent_Tiny_SDK_Linux//agent_tiny/lwm2m_client/agenttiny.c **** 
 560:/home/baikal/workspace/C50/Huawei_IoT_Agent_Tiny_SDK_Linux//agent_tiny/lwm2m_client/agenttiny.c ****     if ((NULL == device_info) || (NULL == phandle))
 561:/home/baikal/workspace/C50/Huawei_IoT_Agent_Tiny_SDK_Linux//agent_tiny/lwm2m_client/agenttiny.c ****     {
 562:/home/baikal/workspace/C50/Huawei_IoT_Agent_Tiny_SDK_Linux//agent_tiny/lwm2m_client/agenttiny.c ****         ATINY_LOG(LOG_FATAL, "Parameter null");
 563:/home/baikal/workspace/C50/Huawei_IoT_Agent_Tiny_SDK_Linux//agent_tiny/lwm2m_client/agenttiny.c ****         return ATINY_ARG_INVALID;
 564:/home/baikal/workspace/C50/Huawei_IoT_Agent_Tiny_SDK_Linux//agent_tiny/lwm2m_client/agenttiny.c ****     }
 565:/home/baikal/workspace/C50/Huawei_IoT_Agent_Tiny_SDK_Linux//agent_tiny/lwm2m_client/agenttiny.c **** 
 566:/home/baikal/workspace/C50/Huawei_IoT_Agent_Tiny_SDK_Linux//agent_tiny/lwm2m_client/agenttiny.c ****     if (NULL == device_info->endpoint_name)
 567:/home/baikal/workspace/C50/Huawei_IoT_Agent_Tiny_SDK_Linux//agent_tiny/lwm2m_client/agenttiny.c ****     {
 568:/home/baikal/workspace/C50/Huawei_IoT_Agent_Tiny_SDK_Linux//agent_tiny/lwm2m_client/agenttiny.c ****         ATINY_LOG(LOG_FATAL, "Endpoint name null");
 569:/home/baikal/workspace/C50/Huawei_IoT_Agent_Tiny_SDK_Linux//agent_tiny/lwm2m_client/agenttiny.c ****         return ATINY_ARG_INVALID;
 570:/home/baikal/workspace/C50/Huawei_IoT_Agent_Tiny_SDK_Linux//agent_tiny/lwm2m_client/agenttiny.c ****     }
 571:/home/baikal/workspace/C50/Huawei_IoT_Agent_Tiny_SDK_Linux//agent_tiny/lwm2m_client/agenttiny.c **** 
 572:/home/baikal/workspace/C50/Huawei_IoT_Agent_Tiny_SDK_Linux//agent_tiny/lwm2m_client/agenttiny.c ****     if (NULL == device_info->manufacturer)
 573:/home/baikal/workspace/C50/Huawei_IoT_Agent_Tiny_SDK_Linux//agent_tiny/lwm2m_client/agenttiny.c ****     {
 574:/home/baikal/workspace/C50/Huawei_IoT_Agent_Tiny_SDK_Linux//agent_tiny/lwm2m_client/agenttiny.c ****         ATINY_LOG(LOG_FATAL, "Manufacturer name null");
 575:/home/baikal/workspace/C50/Huawei_IoT_Agent_Tiny_SDK_Linux//agent_tiny/lwm2m_client/agenttiny.c ****         return ATINY_ARG_INVALID;
 576:/home/baikal/workspace/C50/Huawei_IoT_Agent_Tiny_SDK_Linux//agent_tiny/lwm2m_client/agenttiny.c ****     }
 577:/home/baikal/workspace/C50/Huawei_IoT_Agent_Tiny_SDK_Linux//agent_tiny/lwm2m_client/agenttiny.c **** 
 578:/home/baikal/workspace/C50/Huawei_IoT_Agent_Tiny_SDK_Linux//agent_tiny/lwm2m_client/agenttiny.c ****     ret = atiny_init_objects(&handle->atiny_params, device_info, handle);
 579:/home/baikal/workspace/C50/Huawei_IoT_Agent_Tiny_SDK_Linux//agent_tiny/lwm2m_client/agenttiny.c ****     if (ret != ATINY_OK)
 580:/home/baikal/workspace/C50/Huawei_IoT_Agent_Tiny_SDK_Linux//agent_tiny/lwm2m_client/agenttiny.c ****     {
 581:/home/baikal/workspace/C50/Huawei_IoT_Agent_Tiny_SDK_Linux//agent_tiny/lwm2m_client/agenttiny.c ****         ATINY_LOG(LOG_FATAL, "atiny_init_object fail %d", ret);
 582:/home/baikal/workspace/C50/Huawei_IoT_Agent_Tiny_SDK_Linux//agent_tiny/lwm2m_client/agenttiny.c ****         atiny_destroy(handle);
 583:/home/baikal/workspace/C50/Huawei_IoT_Agent_Tiny_SDK_Linux//agent_tiny/lwm2m_client/agenttiny.c ****         return ret;
 584:/home/baikal/workspace/C50/Huawei_IoT_Agent_Tiny_SDK_Linux//agent_tiny/lwm2m_client/agenttiny.c ****     }
 585:/home/baikal/workspace/C50/Huawei_IoT_Agent_Tiny_SDK_Linux//agent_tiny/lwm2m_client/agenttiny.c **** #ifdef CONFIG_FEATURE_FOTA
 586:/home/baikal/workspace/C50/Huawei_IoT_Agent_Tiny_SDK_Linux//agent_tiny/lwm2m_client/agenttiny.c ****     (void)atiny_fota_manager_set_lwm2m_context(atiny_fota_manager_get_instance(), handle->lwm2m_con
 587:/home/baikal/workspace/C50/Huawei_IoT_Agent_Tiny_SDK_Linux//agent_tiny/lwm2m_client/agenttiny.c **** #endif
 588:/home/baikal/workspace/C50/Huawei_IoT_Agent_Tiny_SDK_Linux//agent_tiny/lwm2m_client/agenttiny.c ****     lwm2m_register_observe_ack_call_back(observe_handle_ack);
GAS LISTING /tmp/ccZJW6Kf.s 			page 13


 589:/home/baikal/workspace/C50/Huawei_IoT_Agent_Tiny_SDK_Linux//agent_tiny/lwm2m_client/agenttiny.c ****     lwm2m_register_event_handler(atiny_event_handle);
 590:/home/baikal/workspace/C50/Huawei_IoT_Agent_Tiny_SDK_Linux//agent_tiny/lwm2m_client/agenttiny.c ****     lwm2m_register_connection_err_notify(atiny_connection_err_notify);
 591:/home/baikal/workspace/C50/Huawei_IoT_Agent_Tiny_SDK_Linux//agent_tiny/lwm2m_client/agenttiny.c **** 
 592:/home/baikal/workspace/C50/Huawei_IoT_Agent_Tiny_SDK_Linux//agent_tiny/lwm2m_client/agenttiny.c ****     handle->recv_buffer = (uint8_t *)lwm2m_malloc(MAX_PACKET_SIZE);
 593:/home/baikal/workspace/C50/Huawei_IoT_Agent_Tiny_SDK_Linux//agent_tiny/lwm2m_client/agenttiny.c ****     if(handle->recv_buffer == NULL)
 594:/home/baikal/workspace/C50/Huawei_IoT_Agent_Tiny_SDK_Linux//agent_tiny/lwm2m_client/agenttiny.c ****     {
 595:/home/baikal/workspace/C50/Huawei_IoT_Agent_Tiny_SDK_Linux//agent_tiny/lwm2m_client/agenttiny.c ****         ATINY_LOG(LOG_FATAL, "memory not enough");
 596:/home/baikal/workspace/C50/Huawei_IoT_Agent_Tiny_SDK_Linux//agent_tiny/lwm2m_client/agenttiny.c ****         return ATINY_MALLOC_FAILED;
 597:/home/baikal/workspace/C50/Huawei_IoT_Agent_Tiny_SDK_Linux//agent_tiny/lwm2m_client/agenttiny.c ****     }
 598:/home/baikal/workspace/C50/Huawei_IoT_Agent_Tiny_SDK_Linux//agent_tiny/lwm2m_client/agenttiny.c **** #ifdef WITH_DTLS
 599:/home/baikal/workspace/C50/Huawei_IoT_Agent_Tiny_SDK_Linux//agent_tiny/lwm2m_client/agenttiny.c ****     ATINY_LOG(LOG_INFO, "security device, endpoint_name is %s\n", device_info->endpoint_name);
 600:/home/baikal/workspace/C50/Huawei_IoT_Agent_Tiny_SDK_Linux//agent_tiny/lwm2m_client/agenttiny.c **** #else
 601:/home/baikal/workspace/C50/Huawei_IoT_Agent_Tiny_SDK_Linux//agent_tiny/lwm2m_client/agenttiny.c ****     ATINY_LOG(LOG_INFO, "non security device, endpoint_name is %s\n", device_info->endpoint_name);
 602:/home/baikal/workspace/C50/Huawei_IoT_Agent_Tiny_SDK_Linux//agent_tiny/lwm2m_client/agenttiny.c **** #endif
 603:/home/baikal/workspace/C50/Huawei_IoT_Agent_Tiny_SDK_Linux//agent_tiny/lwm2m_client/agenttiny.c **** 
 604:/home/baikal/workspace/C50/Huawei_IoT_Agent_Tiny_SDK_Linux//agent_tiny/lwm2m_client/agenttiny.c ****     while (!handle->atiny_quit)
 605:/home/baikal/workspace/C50/Huawei_IoT_Agent_Tiny_SDK_Linux//agent_tiny/lwm2m_client/agenttiny.c ****     {
 606:/home/baikal/workspace/C50/Huawei_IoT_Agent_Tiny_SDK_Linux//agent_tiny/lwm2m_client/agenttiny.c ****         timeout = BIND_TIMEOUT;
 607:/home/baikal/workspace/C50/Huawei_IoT_Agent_Tiny_SDK_Linux//agent_tiny/lwm2m_client/agenttiny.c **** 
 608:/home/baikal/workspace/C50/Huawei_IoT_Agent_Tiny_SDK_Linux//agent_tiny/lwm2m_client/agenttiny.c ****         (void)atiny_step_rpt(handle->lwm2m_context);
 609:/home/baikal/workspace/C50/Huawei_IoT_Agent_Tiny_SDK_Linux//agent_tiny/lwm2m_client/agenttiny.c ****         atiny_handle_reconnect(handle);
 610:/home/baikal/workspace/C50/Huawei_IoT_Agent_Tiny_SDK_Linux//agent_tiny/lwm2m_client/agenttiny.c ****         (void)lwm2m_step(handle->lwm2m_context, (time_t *)&timeout);
 611:/home/baikal/workspace/C50/Huawei_IoT_Agent_Tiny_SDK_Linux//agent_tiny/lwm2m_client/agenttiny.c ****         reboot_check();
 612:/home/baikal/workspace/C50/Huawei_IoT_Agent_Tiny_SDK_Linux//agent_tiny/lwm2m_client/agenttiny.c ****         (void)lwm2m_poll(handle, &timeout);
 613:/home/baikal/workspace/C50/Huawei_IoT_Agent_Tiny_SDK_Linux//agent_tiny/lwm2m_client/agenttiny.c ****     }
 614:/home/baikal/workspace/C50/Huawei_IoT_Agent_Tiny_SDK_Linux//agent_tiny/lwm2m_client/agenttiny.c **** 
 615:/home/baikal/workspace/C50/Huawei_IoT_Agent_Tiny_SDK_Linux//agent_tiny/lwm2m_client/agenttiny.c ****     atiny_destroy(phandle);
 616:/home/baikal/workspace/C50/Huawei_IoT_Agent_Tiny_SDK_Linux//agent_tiny/lwm2m_client/agenttiny.c **** 
 617:/home/baikal/workspace/C50/Huawei_IoT_Agent_Tiny_SDK_Linux//agent_tiny/lwm2m_client/agenttiny.c ****     return ATINY_OK;
 618:/home/baikal/workspace/C50/Huawei_IoT_Agent_Tiny_SDK_Linux//agent_tiny/lwm2m_client/agenttiny.c **** }
 619:/home/baikal/workspace/C50/Huawei_IoT_Agent_Tiny_SDK_Linux//agent_tiny/lwm2m_client/agenttiny.c **** 
 620:/home/baikal/workspace/C50/Huawei_IoT_Agent_Tiny_SDK_Linux//agent_tiny/lwm2m_client/agenttiny.c **** void atiny_deinit(void *phandle)
 621:/home/baikal/workspace/C50/Huawei_IoT_Agent_Tiny_SDK_Linux//agent_tiny/lwm2m_client/agenttiny.c **** {
 622:/home/baikal/workspace/C50/Huawei_IoT_Agent_Tiny_SDK_Linux//agent_tiny/lwm2m_client/agenttiny.c ****     handle_data_t *handle;
 623:/home/baikal/workspace/C50/Huawei_IoT_Agent_Tiny_SDK_Linux//agent_tiny/lwm2m_client/agenttiny.c ****     void *sem = NULL;
 624:/home/baikal/workspace/C50/Huawei_IoT_Agent_Tiny_SDK_Linux//agent_tiny/lwm2m_client/agenttiny.c **** 
 625:/home/baikal/workspace/C50/Huawei_IoT_Agent_Tiny_SDK_Linux//agent_tiny/lwm2m_client/agenttiny.c ****     if (phandle == NULL)
 626:/home/baikal/workspace/C50/Huawei_IoT_Agent_Tiny_SDK_Linux//agent_tiny/lwm2m_client/agenttiny.c ****     {
 627:/home/baikal/workspace/C50/Huawei_IoT_Agent_Tiny_SDK_Linux//agent_tiny/lwm2m_client/agenttiny.c ****         return;
 628:/home/baikal/workspace/C50/Huawei_IoT_Agent_Tiny_SDK_Linux//agent_tiny/lwm2m_client/agenttiny.c ****     }
 629:/home/baikal/workspace/C50/Huawei_IoT_Agent_Tiny_SDK_Linux//agent_tiny/lwm2m_client/agenttiny.c **** 
 630:/home/baikal/workspace/C50/Huawei_IoT_Agent_Tiny_SDK_Linux//agent_tiny/lwm2m_client/agenttiny.c ****     handle = (handle_data_t *)phandle;
 631:/home/baikal/workspace/C50/Huawei_IoT_Agent_Tiny_SDK_Linux//agent_tiny/lwm2m_client/agenttiny.c ****     handle->atiny_quit = 1;
 632:/home/baikal/workspace/C50/Huawei_IoT_Agent_Tiny_SDK_Linux//agent_tiny/lwm2m_client/agenttiny.c ****     sem = handle->quit_sem;
 633:/home/baikal/workspace/C50/Huawei_IoT_Agent_Tiny_SDK_Linux//agent_tiny/lwm2m_client/agenttiny.c ****     atiny_mutex_lock(sem);
 634:/home/baikal/workspace/C50/Huawei_IoT_Agent_Tiny_SDK_Linux//agent_tiny/lwm2m_client/agenttiny.c ****     atiny_mutex_destroy(sem);
 635:/home/baikal/workspace/C50/Huawei_IoT_Agent_Tiny_SDK_Linux//agent_tiny/lwm2m_client/agenttiny.c **** }
 636:/home/baikal/workspace/C50/Huawei_IoT_Agent_Tiny_SDK_Linux//agent_tiny/lwm2m_client/agenttiny.c **** 
 637:/home/baikal/workspace/C50/Huawei_IoT_Agent_Tiny_SDK_Linux//agent_tiny/lwm2m_client/agenttiny.c **** int atiny_data_report(void *phandle, data_report_t *report_data)
 638:/home/baikal/workspace/C50/Huawei_IoT_Agent_Tiny_SDK_Linux//agent_tiny/lwm2m_client/agenttiny.c **** {
 639:/home/baikal/workspace/C50/Huawei_IoT_Agent_Tiny_SDK_Linux//agent_tiny/lwm2m_client/agenttiny.c ****     lwm2m_uri_t uri;
 640:/home/baikal/workspace/C50/Huawei_IoT_Agent_Tiny_SDK_Linux//agent_tiny/lwm2m_client/agenttiny.c ****     int ret;
 641:/home/baikal/workspace/C50/Huawei_IoT_Agent_Tiny_SDK_Linux//agent_tiny/lwm2m_client/agenttiny.c ****     data_report_t data;
 642:/home/baikal/workspace/C50/Huawei_IoT_Agent_Tiny_SDK_Linux//agent_tiny/lwm2m_client/agenttiny.c **** 
 643:/home/baikal/workspace/C50/Huawei_IoT_Agent_Tiny_SDK_Linux//agent_tiny/lwm2m_client/agenttiny.c **** 
 644:/home/baikal/workspace/C50/Huawei_IoT_Agent_Tiny_SDK_Linux//agent_tiny/lwm2m_client/agenttiny.c ****     if (NULL == phandle || NULL == report_data || report_data->len <= 0
 645:/home/baikal/workspace/C50/Huawei_IoT_Agent_Tiny_SDK_Linux//agent_tiny/lwm2m_client/agenttiny.c ****             || report_data->len > MAX_REPORT_DATA_LEN || NULL == report_data->buf)
GAS LISTING /tmp/ccZJW6Kf.s 			page 14


 646:/home/baikal/workspace/C50/Huawei_IoT_Agent_Tiny_SDK_Linux//agent_tiny/lwm2m_client/agenttiny.c ****     {
 647:/home/baikal/workspace/C50/Huawei_IoT_Agent_Tiny_SDK_Linux//agent_tiny/lwm2m_client/agenttiny.c ****         ATINY_LOG(LOG_ERR, "invalid args");
 648:/home/baikal/workspace/C50/Huawei_IoT_Agent_Tiny_SDK_Linux//agent_tiny/lwm2m_client/agenttiny.c ****         return ATINY_ARG_INVALID;
 649:/home/baikal/workspace/C50/Huawei_IoT_Agent_Tiny_SDK_Linux//agent_tiny/lwm2m_client/agenttiny.c ****     }
 650:/home/baikal/workspace/C50/Huawei_IoT_Agent_Tiny_SDK_Linux//agent_tiny/lwm2m_client/agenttiny.c **** 
 651:/home/baikal/workspace/C50/Huawei_IoT_Agent_Tiny_SDK_Linux//agent_tiny/lwm2m_client/agenttiny.c ****     memset((void *)&uri, 0, sizeof(uri));
 652:/home/baikal/workspace/C50/Huawei_IoT_Agent_Tiny_SDK_Linux//agent_tiny/lwm2m_client/agenttiny.c **** 
 653:/home/baikal/workspace/C50/Huawei_IoT_Agent_Tiny_SDK_Linux//agent_tiny/lwm2m_client/agenttiny.c ****     switch (report_data->type)
 654:/home/baikal/workspace/C50/Huawei_IoT_Agent_Tiny_SDK_Linux//agent_tiny/lwm2m_client/agenttiny.c ****     {
 655:/home/baikal/workspace/C50/Huawei_IoT_Agent_Tiny_SDK_Linux//agent_tiny/lwm2m_client/agenttiny.c ****     case FIRMWARE_UPDATE_STATE:
 656:/home/baikal/workspace/C50/Huawei_IoT_Agent_Tiny_SDK_Linux//agent_tiny/lwm2m_client/agenttiny.c ****         (void)lwm2m_stringToUri("/5/0/3", 6, &uri);
 657:/home/baikal/workspace/C50/Huawei_IoT_Agent_Tiny_SDK_Linux//agent_tiny/lwm2m_client/agenttiny.c ****         break;
 658:/home/baikal/workspace/C50/Huawei_IoT_Agent_Tiny_SDK_Linux//agent_tiny/lwm2m_client/agenttiny.c ****     case APP_DATA:
 659:/home/baikal/workspace/C50/Huawei_IoT_Agent_Tiny_SDK_Linux//agent_tiny/lwm2m_client/agenttiny.c ****         get_resource_uri(BINARY_APP_DATA_OBJECT_ID, 0, BINARY_APP_DATA_RES_ID, &uri);
 660:/home/baikal/workspace/C50/Huawei_IoT_Agent_Tiny_SDK_Linux//agent_tiny/lwm2m_client/agenttiny.c ****         break;
 661:/home/baikal/workspace/C50/Huawei_IoT_Agent_Tiny_SDK_Linux//agent_tiny/lwm2m_client/agenttiny.c ****     default:
 662:/home/baikal/workspace/C50/Huawei_IoT_Agent_Tiny_SDK_Linux//agent_tiny/lwm2m_client/agenttiny.c ****         return ATINY_RESOURCE_NOT_FOUND;
 663:/home/baikal/workspace/C50/Huawei_IoT_Agent_Tiny_SDK_Linux//agent_tiny/lwm2m_client/agenttiny.c ****     }
 664:/home/baikal/workspace/C50/Huawei_IoT_Agent_Tiny_SDK_Linux//agent_tiny/lwm2m_client/agenttiny.c **** 
 665:/home/baikal/workspace/C50/Huawei_IoT_Agent_Tiny_SDK_Linux//agent_tiny/lwm2m_client/agenttiny.c ****     memcpy(&data, report_data, sizeof(data));
 666:/home/baikal/workspace/C50/Huawei_IoT_Agent_Tiny_SDK_Linux//agent_tiny/lwm2m_client/agenttiny.c ****     data.buf = lwm2m_malloc(report_data->len);
 667:/home/baikal/workspace/C50/Huawei_IoT_Agent_Tiny_SDK_Linux//agent_tiny/lwm2m_client/agenttiny.c ****     if (NULL == data.buf)
 668:/home/baikal/workspace/C50/Huawei_IoT_Agent_Tiny_SDK_Linux//agent_tiny/lwm2m_client/agenttiny.c ****     {
 669:/home/baikal/workspace/C50/Huawei_IoT_Agent_Tiny_SDK_Linux//agent_tiny/lwm2m_client/agenttiny.c ****         ATINY_LOG(LOG_ERR, "lwm2m_malloc fail,len %d", data.len);
 670:/home/baikal/workspace/C50/Huawei_IoT_Agent_Tiny_SDK_Linux//agent_tiny/lwm2m_client/agenttiny.c ****         return ATINY_MALLOC_FAILED;;
 671:/home/baikal/workspace/C50/Huawei_IoT_Agent_Tiny_SDK_Linux//agent_tiny/lwm2m_client/agenttiny.c ****     }
 672:/home/baikal/workspace/C50/Huawei_IoT_Agent_Tiny_SDK_Linux//agent_tiny/lwm2m_client/agenttiny.c ****     memcpy(data.buf, report_data->buf, report_data->len);
 673:/home/baikal/workspace/C50/Huawei_IoT_Agent_Tiny_SDK_Linux//agent_tiny/lwm2m_client/agenttiny.c **** 
 674:/home/baikal/workspace/C50/Huawei_IoT_Agent_Tiny_SDK_Linux//agent_tiny/lwm2m_client/agenttiny.c ****     ret = atiny_queue_rpt_data(&uri, &data);
 675:/home/baikal/workspace/C50/Huawei_IoT_Agent_Tiny_SDK_Linux//agent_tiny/lwm2m_client/agenttiny.c **** 
 676:/home/baikal/workspace/C50/Huawei_IoT_Agent_Tiny_SDK_Linux//agent_tiny/lwm2m_client/agenttiny.c ****     if (ATINY_OK != ret)
 677:/home/baikal/workspace/C50/Huawei_IoT_Agent_Tiny_SDK_Linux//agent_tiny/lwm2m_client/agenttiny.c ****     {
 678:/home/baikal/workspace/C50/Huawei_IoT_Agent_Tiny_SDK_Linux//agent_tiny/lwm2m_client/agenttiny.c ****         if (data.buf != NULL)
 679:/home/baikal/workspace/C50/Huawei_IoT_Agent_Tiny_SDK_Linux//agent_tiny/lwm2m_client/agenttiny.c ****         {
 680:/home/baikal/workspace/C50/Huawei_IoT_Agent_Tiny_SDK_Linux//agent_tiny/lwm2m_client/agenttiny.c ****             lwm2m_free(data.buf);
 681:/home/baikal/workspace/C50/Huawei_IoT_Agent_Tiny_SDK_Linux//agent_tiny/lwm2m_client/agenttiny.c ****         }
 682:/home/baikal/workspace/C50/Huawei_IoT_Agent_Tiny_SDK_Linux//agent_tiny/lwm2m_client/agenttiny.c ****     }
 683:/home/baikal/workspace/C50/Huawei_IoT_Agent_Tiny_SDK_Linux//agent_tiny/lwm2m_client/agenttiny.c **** 
 684:/home/baikal/workspace/C50/Huawei_IoT_Agent_Tiny_SDK_Linux//agent_tiny/lwm2m_client/agenttiny.c ****     return ret;
 685:/home/baikal/workspace/C50/Huawei_IoT_Agent_Tiny_SDK_Linux//agent_tiny/lwm2m_client/agenttiny.c **** }
 686:/home/baikal/workspace/C50/Huawei_IoT_Agent_Tiny_SDK_Linux//agent_tiny/lwm2m_client/agenttiny.c **** 
 687:/home/baikal/workspace/C50/Huawei_IoT_Agent_Tiny_SDK_Linux//agent_tiny/lwm2m_client/agenttiny.c **** int atiny_data_change(void *phandle, const char *data_type)
 688:/home/baikal/workspace/C50/Huawei_IoT_Agent_Tiny_SDK_Linux//agent_tiny/lwm2m_client/agenttiny.c **** {
 689:/home/baikal/workspace/C50/Huawei_IoT_Agent_Tiny_SDK_Linux//agent_tiny/lwm2m_client/agenttiny.c ****     lwm2m_uri_t uri;
 690:/home/baikal/workspace/C50/Huawei_IoT_Agent_Tiny_SDK_Linux//agent_tiny/lwm2m_client/agenttiny.c ****     handle_data_t *handle;
 691:/home/baikal/workspace/C50/Huawei_IoT_Agent_Tiny_SDK_Linux//agent_tiny/lwm2m_client/agenttiny.c **** 
 692:/home/baikal/workspace/C50/Huawei_IoT_Agent_Tiny_SDK_Linux//agent_tiny/lwm2m_client/agenttiny.c ****     if (NULL == phandle || NULL == data_type)
 693:/home/baikal/workspace/C50/Huawei_IoT_Agent_Tiny_SDK_Linux//agent_tiny/lwm2m_client/agenttiny.c ****     {
 694:/home/baikal/workspace/C50/Huawei_IoT_Agent_Tiny_SDK_Linux//agent_tiny/lwm2m_client/agenttiny.c ****         ATINY_LOG(LOG_ERR, "invalid args");
 695:/home/baikal/workspace/C50/Huawei_IoT_Agent_Tiny_SDK_Linux//agent_tiny/lwm2m_client/agenttiny.c ****         return ATINY_ARG_INVALID;
 696:/home/baikal/workspace/C50/Huawei_IoT_Agent_Tiny_SDK_Linux//agent_tiny/lwm2m_client/agenttiny.c ****     }
 697:/home/baikal/workspace/C50/Huawei_IoT_Agent_Tiny_SDK_Linux//agent_tiny/lwm2m_client/agenttiny.c **** 
 698:/home/baikal/workspace/C50/Huawei_IoT_Agent_Tiny_SDK_Linux//agent_tiny/lwm2m_client/agenttiny.c ****     memset((void *)&uri, 0, sizeof(uri));
 699:/home/baikal/workspace/C50/Huawei_IoT_Agent_Tiny_SDK_Linux//agent_tiny/lwm2m_client/agenttiny.c ****     handle = (handle_data_t *)phandle;
 700:/home/baikal/workspace/C50/Huawei_IoT_Agent_Tiny_SDK_Linux//agent_tiny/lwm2m_client/agenttiny.c **** 
 701:/home/baikal/workspace/C50/Huawei_IoT_Agent_Tiny_SDK_Linux//agent_tiny/lwm2m_client/agenttiny.c ****     if (handle->lwm2m_context->state != STATE_READY)
 702:/home/baikal/workspace/C50/Huawei_IoT_Agent_Tiny_SDK_Linux//agent_tiny/lwm2m_client/agenttiny.c ****     {
GAS LISTING /tmp/ccZJW6Kf.s 			page 15


 703:/home/baikal/workspace/C50/Huawei_IoT_Agent_Tiny_SDK_Linux//agent_tiny/lwm2m_client/agenttiny.c ****         ATINY_LOG(LOG_INFO, "not registered");
 704:/home/baikal/workspace/C50/Huawei_IoT_Agent_Tiny_SDK_Linux//agent_tiny/lwm2m_client/agenttiny.c ****         return ATINY_CLIENT_UNREGISTERED;
 705:/home/baikal/workspace/C50/Huawei_IoT_Agent_Tiny_SDK_Linux//agent_tiny/lwm2m_client/agenttiny.c ****     }
 706:/home/baikal/workspace/C50/Huawei_IoT_Agent_Tiny_SDK_Linux//agent_tiny/lwm2m_client/agenttiny.c **** 
 707:/home/baikal/workspace/C50/Huawei_IoT_Agent_Tiny_SDK_Linux//agent_tiny/lwm2m_client/agenttiny.c ****     (void)lwm2m_stringToUri(data_type, strlen(data_type), &uri);
 708:/home/baikal/workspace/C50/Huawei_IoT_Agent_Tiny_SDK_Linux//agent_tiny/lwm2m_client/agenttiny.c **** 
 709:/home/baikal/workspace/C50/Huawei_IoT_Agent_Tiny_SDK_Linux//agent_tiny/lwm2m_client/agenttiny.c ****     atiny_mutex_lock(handle->lwm2m_context->observe_mutex);
 710:/home/baikal/workspace/C50/Huawei_IoT_Agent_Tiny_SDK_Linux//agent_tiny/lwm2m_client/agenttiny.c ****     lwm2m_resource_value_changed(handle->lwm2m_context, &uri);
 711:/home/baikal/workspace/C50/Huawei_IoT_Agent_Tiny_SDK_Linux//agent_tiny/lwm2m_client/agenttiny.c ****     atiny_mutex_unlock(handle->lwm2m_context->observe_mutex);
 712:/home/baikal/workspace/C50/Huawei_IoT_Agent_Tiny_SDK_Linux//agent_tiny/lwm2m_client/agenttiny.c **** 
 713:/home/baikal/workspace/C50/Huawei_IoT_Agent_Tiny_SDK_Linux//agent_tiny/lwm2m_client/agenttiny.c ****     return ATINY_OK;
 714:/home/baikal/workspace/C50/Huawei_IoT_Agent_Tiny_SDK_Linux//agent_tiny/lwm2m_client/agenttiny.c **** }
 715:/home/baikal/workspace/C50/Huawei_IoT_Agent_Tiny_SDK_Linux//agent_tiny/lwm2m_client/agenttiny.c **** 
 716:/home/baikal/workspace/C50/Huawei_IoT_Agent_Tiny_SDK_Linux//agent_tiny/lwm2m_client/agenttiny.c **** void observe_handle_ack(lwm2m_transaction_t *transacP, void *message)
 717:/home/baikal/workspace/C50/Huawei_IoT_Agent_Tiny_SDK_Linux//agent_tiny/lwm2m_client/agenttiny.c **** {
  81              		.loc 1 717 0
  82              		.cfi_startproc
  83              	.LVL1:
  84 0000 4883EC08 		subq	$8, %rsp
  85              	.LCFI0:
  86              		.cfi_def_cfa_offset 16
  87 0004 4889F8   		movq	%rdi, %rax
 718:/home/baikal/workspace/C50/Huawei_IoT_Agent_Tiny_SDK_Linux//agent_tiny/lwm2m_client/agenttiny.c ****     atiny_ack_callback ack_callback = (atiny_ack_callback)transacP->cfg.callback;
  88              		.loc 1 718 0
  89 0007 488B4F58 		movq	88(%rdi), %rcx
  90              	.LVL2:
 719:/home/baikal/workspace/C50/Huawei_IoT_Agent_Tiny_SDK_Linux//agent_tiny/lwm2m_client/agenttiny.c ****     if (transacP->ack_received)
  91              		.loc 1 719 0
  92 000b 807F1800 		cmpb	$0, 24(%rdi)
  93 000f 740F     		je	.L14
 720:/home/baikal/workspace/C50/Huawei_IoT_Agent_Tiny_SDK_Linux//agent_tiny/lwm2m_client/agenttiny.c ****     {
 721:/home/baikal/workspace/C50/Huawei_IoT_Agent_Tiny_SDK_Linux//agent_tiny/lwm2m_client/agenttiny.c ****         ack_callback((atiny_report_type_e)(transacP->cfg.type), transacP->cfg.cookie, SENT_SUCCESS)
  94              		.loc 1 721 0
  95 0011 8B7F50   		movl	80(%rdi), %edi
  96              	.LVL3:
  97 0014 8B7054   		movl	84(%rax), %esi
  98              	.LVL4:
  99 0017 BA040000 		movl	$4, %edx
  99      00
 100 001c FFD1     		call	*%rcx
 101              	.LVL5:
 102 001e EB22     		jmp	.L13
 103              	.LVL6:
 104              	.L14:
 722:/home/baikal/workspace/C50/Huawei_IoT_Agent_Tiny_SDK_Linux//agent_tiny/lwm2m_client/agenttiny.c ****     }
 723:/home/baikal/workspace/C50/Huawei_IoT_Agent_Tiny_SDK_Linux//agent_tiny/lwm2m_client/agenttiny.c ****     else if (transacP->retrans_counter > COAP_MAX_RETRANSMIT)
 105              		.loc 1 723 0
 106 0020 807F280A 		cmpb	$10, 40(%rdi)
 107 0024 760F     		jbe	.L16
 724:/home/baikal/workspace/C50/Huawei_IoT_Agent_Tiny_SDK_Linux//agent_tiny/lwm2m_client/agenttiny.c ****     {
 725:/home/baikal/workspace/C50/Huawei_IoT_Agent_Tiny_SDK_Linux//agent_tiny/lwm2m_client/agenttiny.c ****         ack_callback((atiny_report_type_e)(transacP->cfg.type), transacP->cfg.cookie, SENT_TIME_OUT
 108              		.loc 1 725 0
 109 0026 8B7F50   		movl	80(%rdi), %edi
 110 0029 8B7054   		movl	84(%rax), %esi
 111              	.LVL7:
 112 002c BA030000 		movl	$3, %edx
 112      00
GAS LISTING /tmp/ccZJW6Kf.s 			page 16


 113 0031 FFD1     		call	*%rcx
 114              	.LVL8:
 115 0033 EB0D     		jmp	.L13
 116              	.LVL9:
 117              	.L16:
 726:/home/baikal/workspace/C50/Huawei_IoT_Agent_Tiny_SDK_Linux//agent_tiny/lwm2m_client/agenttiny.c ****     }
 727:/home/baikal/workspace/C50/Huawei_IoT_Agent_Tiny_SDK_Linux//agent_tiny/lwm2m_client/agenttiny.c ****     else
 728:/home/baikal/workspace/C50/Huawei_IoT_Agent_Tiny_SDK_Linux//agent_tiny/lwm2m_client/agenttiny.c ****     {
 729:/home/baikal/workspace/C50/Huawei_IoT_Agent_Tiny_SDK_Linux//agent_tiny/lwm2m_client/agenttiny.c ****         ack_callback((atiny_report_type_e)(transacP->cfg.type), transacP->cfg.cookie, SENT_FAIL);
 118              		.loc 1 729 0
 119 0035 8B7F50   		movl	80(%rdi), %edi
 120 0038 8B7054   		movl	84(%rax), %esi
 121              	.LVL10:
 122 003b BA020000 		movl	$2, %edx
 122      00
 123 0040 FFD1     		call	*%rcx
 124              	.LVL11:
 125              	.L13:
 730:/home/baikal/workspace/C50/Huawei_IoT_Agent_Tiny_SDK_Linux//agent_tiny/lwm2m_client/agenttiny.c ****     }
 731:/home/baikal/workspace/C50/Huawei_IoT_Agent_Tiny_SDK_Linux//agent_tiny/lwm2m_client/agenttiny.c **** }
 126              		.loc 1 731 0
 127 0042 4883C408 		addq	$8, %rsp
 128              	.LCFI1:
 129              		.cfi_def_cfa_offset 8
 130 0046 C3       		ret
 131              		.cfi_endproc
 132              	.LFE88:
 134              		.section	.text.atiny_event_handle,"ax",@progbits
 135              		.globl	atiny_event_handle
 137              	atiny_event_handle:
 138              	.LFB80:
 459:/home/baikal/workspace/C50/Huawei_IoT_Agent_Tiny_SDK_Linux//agent_tiny/lwm2m_client/agenttiny.c ****     switch (type)
 139              		.loc 1 459 0
 140              		.cfi_startproc
 141              	.LVL12:
 142 0000 53       		pushq	%rbx
 143              	.LCFI2:
 144              		.cfi_def_cfa_offset 16
 145              		.cfi_offset 3, -16
 146 0001 4883EC10 		subq	$16, %rsp
 147              	.LCFI3:
 148              		.cfi_def_cfa_offset 32
 460:/home/baikal/workspace/C50/Huawei_IoT_Agent_Tiny_SDK_Linux//agent_tiny/lwm2m_client/agenttiny.c ****     {
 149              		.loc 1 460 0
 150 0005 85FF     		testl	%edi, %edi
 151 0007 740D     		je	.L20
 152 0009 4889D3   		movq	%rdx, %rbx
 153 000c 83FF02   		cmpl	$2, %edi
 154 000f 7442     		je	.L21
 155 0011 E9AB0000 		jmp	.L18
 155      00
 156              	.L20:
 464:/home/baikal/workspace/C50/Huawei_IoT_Agent_Tiny_SDK_Linux//agent_tiny/lwm2m_client/agenttiny.c ****         {
 157              		.loc 1 464 0
 158 0016 83FE02   		cmpl	$2, %esi
 159 0019 7519     		jne	.L22
 466:/home/baikal/workspace/C50/Huawei_IoT_Agent_Tiny_SDK_Linux//agent_tiny/lwm2m_client/agenttiny.c **** #ifdef CONFIG_FEATURE_FOTA
GAS LISTING /tmp/ccZJW6Kf.s 			page 17


 160              		.loc 1 466 0
 161 001b BA000000 		movl	$0, %edx
 161      00
 162              	.LVL13:
 163 0020 BE000000 		movl	$0, %esi
 163      00
 164              	.LVL14:
 165 0025 BF000000 		movl	$0, %edi
 165      00
 166              	.LVL15:
 167 002a E8000000 		call	atiny_event_notify
 167      00
 168              	.LVL16:
 169 002f E98D0000 		jmp	.L18
 169      00
 170              	.LVL17:
 171              	.L22:
 471:/home/baikal/workspace/C50/Huawei_IoT_Agent_Tiny_SDK_Linux//agent_tiny/lwm2m_client/agenttiny.c ****         {
 172              		.loc 1 471 0
 173 0034 83FE03   		cmpl	$3, %esi
 174 0037 0F858400 		jne	.L18
 174      0000
 473:/home/baikal/workspace/C50/Huawei_IoT_Agent_Tiny_SDK_Linux//agent_tiny/lwm2m_client/agenttiny.c **** 
 175              		.loc 1 473 0
 176 003d BA000000 		movl	$0, %edx
 176      00
 177              	.LVL18:
 178 0042 BE000000 		movl	$0, %esi
 178      00
 179              	.LVL19:
 180 0047 BF010000 		movl	$1, %edi
 180      00
 181              	.LVL20:
 182 004c E8000000 		call	atiny_event_notify
 182      00
 183              	.LVL21:
 184 0051 EB6E     		jmp	.L18
 185              	.LVL22:
 186              	.L21:
 484:/home/baikal/workspace/C50/Huawei_IoT_Agent_Tiny_SDK_Linux//agent_tiny/lwm2m_client/agenttiny.c ****         {
 187              		.loc 1 484 0
 188 0053 4885D2   		testq	%rdx, %rdx
 189 0056 0F94C2   		sete	%dl
 190              	.LVL23:
 191 0059 83F907   		cmpl	$7, %ecx
 192 005c 0F96C0   		setbe	%al
 193 005f 08C2     		orb	%al, %dl
 194 0061 755E     		jne	.L18
 489:/home/baikal/workspace/C50/Huawei_IoT_Agent_Tiny_SDK_Linux//agent_tiny/lwm2m_client/agenttiny.c ****         {
 195              		.loc 1 489 0
 196 0063 85F6     		testl	%esi, %esi
 197 0065 7532     		jne	.L23
 491:/home/baikal/workspace/C50/Huawei_IoT_Agent_Tiny_SDK_Linux//agent_tiny/lwm2m_client/agenttiny.c ****             {
 198              		.loc 1 491 0
 199 0067 66837B02 		cmpw	$19, 2(%rbx)
 199      13
 200 006c 751C     		jne	.L24
GAS LISTING /tmp/ccZJW6Kf.s 			page 18


 201              	.LBB28:
 493:/home/baikal/workspace/C50/Huawei_IoT_Agent_Tiny_SDK_Linux//agent_tiny/lwm2m_client/agenttiny.c ****                 atiny_event_notify(ATINY_DATA_UNSUBSCRIBLE, (char *)&rpt_type, sizeof(rpt_type));
 202              		.loc 1 493 0
 203 006e C744240C 		movl	$1, 12(%rsp)
 203      01000000 
 494:/home/baikal/workspace/C50/Huawei_IoT_Agent_Tiny_SDK_Linux//agent_tiny/lwm2m_client/agenttiny.c ****             }
 204              		.loc 1 494 0
 205 0076 BA040000 		movl	$4, %edx
 205      00
 206 007b 488D7424 		leaq	12(%rsp), %rsi
 206      0C
 207              	.LVL24:
 208 0080 BF030000 		movl	$3, %edi
 208      00
 209              	.LVL25:
 210 0085 E8000000 		call	atiny_event_notify
 210      00
 211              	.LVL26:
 212              	.L24:
 213              	.LBE28:
 496:/home/baikal/workspace/C50/Huawei_IoT_Agent_Tiny_SDK_Linux//agent_tiny/lwm2m_client/agenttiny.c ****         }
 214              		.loc 1 496 0
 215 008a BE020000 		movl	$2, %esi
 215      00
 216 008f 4889DF   		movq	%rbx, %rdi
 217 0092 E8000000 		call	atiny_clear_rpt_data
 217      00
 218              	.LVL27:
 219 0097 EB28     		jmp	.L18
 220              	.LVL28:
 221              	.L23:
 498:/home/baikal/workspace/C50/Huawei_IoT_Agent_Tiny_SDK_Linux//agent_tiny/lwm2m_client/agenttiny.c ****         {
 222              		.loc 1 498 0
 223 0099 83FE01   		cmpl	$1, %esi
 224 009c 7523     		jne	.L18
 500:/home/baikal/workspace/C50/Huawei_IoT_Agent_Tiny_SDK_Linux//agent_tiny/lwm2m_client/agenttiny.c ****             {
 225              		.loc 1 500 0
 226 009e 66837B02 		cmpw	$19, 2(%rbx)
 226      13
 227 00a3 751C     		jne	.L18
 228              	.LBB29:
 502:/home/baikal/workspace/C50/Huawei_IoT_Agent_Tiny_SDK_Linux//agent_tiny/lwm2m_client/agenttiny.c ****                 atiny_event_notify(ATINY_DATA_SUBSCRIBLE, (char *)&rpt_type, sizeof(rpt_type));
 229              		.loc 1 502 0
 230 00a5 C744240C 		movl	$1, 12(%rsp)
 230      01000000 
 503:/home/baikal/workspace/C50/Huawei_IoT_Agent_Tiny_SDK_Linux//agent_tiny/lwm2m_client/agenttiny.c ****             }
 231              		.loc 1 503 0
 232 00ad BA040000 		movl	$4, %edx
 232      00
 233 00b2 488D7424 		leaq	12(%rsp), %rsi
 233      0C
 234              	.LVL29:
 235 00b7 BF020000 		movl	$2, %edi
 235      00
 236              	.LVL30:
 237 00bc E8000000 		call	atiny_event_notify
 237      00
GAS LISTING /tmp/ccZJW6Kf.s 			page 19


 238              	.LVL31:
 239              	.L18:
 240              	.LBE29:
 515:/home/baikal/workspace/C50/Huawei_IoT_Agent_Tiny_SDK_Linux//agent_tiny/lwm2m_client/agenttiny.c **** 
 241              		.loc 1 515 0
 242 00c1 4883C410 		addq	$16, %rsp
 243              	.LCFI4:
 244              		.cfi_def_cfa_offset 16
 245 00c5 5B       		popq	%rbx
 246              	.LCFI5:
 247              		.cfi_def_cfa_offset 8
 248 00c6 C3       		ret
 249              		.cfi_endproc
 250              	.LFE80:
 252              		.section	.rodata.str1.8,"aMS",@progbits,1
 253              		.align 8
 254              	.LC0:
 255 0000 5B25735D 		.string	"[%s][%u][%s:%d] lwm2m reconnect\r\n"
 255      5B25755D 
 255      5B25733A 
 255      25645D20 
 255      6C776D32 
 256              		.section	.text.atiny_handle_reconnect,"ax",@progbits
 258              	atiny_handle_reconnect:
 259              	.LFB83:
 545:/home/baikal/workspace/C50/Huawei_IoT_Agent_Tiny_SDK_Linux//agent_tiny/lwm2m_client/agenttiny.c ****     if(handle->reconnect_flag)
 260              		.loc 1 545 0
 261              		.cfi_startproc
 262              	.LVL32:
 546:/home/baikal/workspace/C50/Huawei_IoT_Agent_Tiny_SDK_Linux//agent_tiny/lwm2m_client/agenttiny.c ****     {
 263              		.loc 1 546 0
 264 0000 83BFC400 		cmpl	$0, 196(%rdi)
 264      000000
 265 0007 7452     		je	.L30
 545:/home/baikal/workspace/C50/Huawei_IoT_Agent_Tiny_SDK_Linux//agent_tiny/lwm2m_client/agenttiny.c ****     if(handle->reconnect_flag)
 266              		.loc 1 545 0
 267 0009 53       		pushq	%rbx
 268              	.LCFI6:
 269              		.cfi_def_cfa_offset 16
 270              		.cfi_offset 3, -16
 271 000a 4889FB   		movq	%rdi, %rbx
 548:/home/baikal/workspace/C50/Huawei_IoT_Agent_Tiny_SDK_Linux//agent_tiny/lwm2m_client/agenttiny.c ****         handle->reconnect_flag = false;
 272              		.loc 1 548 0
 273 000d 488B3F   		movq	(%rdi), %rdi
 274              	.LVL33:
 275 0010 E8000000 		call	lwm2m_reconnect
 275      00
 276              	.LVL34:
 549:/home/baikal/workspace/C50/Huawei_IoT_Agent_Tiny_SDK_Linux//agent_tiny/lwm2m_client/agenttiny.c ****         ATINY_LOG(LOG_INFO, "lwm2m reconnect");
 277              		.loc 1 549 0
 278 0015 C783C400 		movl	$0, 196(%rbx)
 278      00000000 
 278      0000
 550:/home/baikal/workspace/C50/Huawei_IoT_Agent_Tiny_SDK_Linux//agent_tiny/lwm2m_client/agenttiny.c ****     }
 279              		.loc 1 550 0
 280 001f E8000000 		call	atiny_get_log_level
 280      00
GAS LISTING /tmp/ccZJW6Kf.s 			page 20


 281              	.LVL35:
 282 0024 83F801   		cmpl	$1, %eax
 283 0027 7731     		ja	.L26
 550:/home/baikal/workspace/C50/Huawei_IoT_Agent_Tiny_SDK_Linux//agent_tiny/lwm2m_client/agenttiny.c ****     }
 284              		.loc 1 550 0 is_stmt 0 discriminator 1
 285 0029 E8000000 		call	atiny_gettime_ms
 285      00
 286              	.LVL36:
 287 002e 4889C3   		movq	%rax, %rbx
 288              	.LVL37:
 289 0031 BF010000 		movl	$1, %edi
 289      00
 290 0036 E8000000 		call	atiny_get_log_level_name
 290      00
 291              	.LVL38:
 292 003b 41B82602 		movl	$550, %r8d
 292      0000
 293 0041 B9000000 		movl	$__FUNCTION__.5345, %ecx
 293      00
 294 0046 89DA     		movl	%ebx, %edx
 295 0048 4889C6   		movq	%rax, %rsi
 296 004b BF000000 		movl	$.LC0, %edi
 296      00
 297 0050 B8000000 		movl	$0, %eax
 297      00
 298 0055 E8000000 		call	atiny_printf
 298      00
 299              	.LVL39:
 300              	.L26:
 552:/home/baikal/workspace/C50/Huawei_IoT_Agent_Tiny_SDK_Linux//agent_tiny/lwm2m_client/agenttiny.c **** 
 301              		.loc 1 552 0 is_stmt 1
 302 005a 5B       		popq	%rbx
 303              	.LCFI7:
 304              		.cfi_restore 3
 305              		.cfi_def_cfa_offset 8
 306              	.L30:
 307 005b F3C3     		rep ret
 308              		.cfi_endproc
 309              	.LFE83:
 311              		.section	.rodata.str1.8
 312 0022 00000000 		.align 8
 312      0000
 313              	.LC1:
 314 0028 5B25735D 		.string	"[%s][%u][%s:%d] no packet arrived!\r\n"
 314      5B25755D 
 314      5B25733A 
 314      25645D20 
 314      6E6F2070 
 315              		.section	.text.lwm2m_poll,"ax",@progbits
 317              	lwm2m_poll:
 318              	.LFB78:
 373:/home/baikal/workspace/C50/Huawei_IoT_Agent_Tiny_SDK_Linux//agent_tiny/lwm2m_client/agenttiny.c ****     client_data_t *dataP;
 319              		.loc 1 373 0
 320              		.cfi_startproc
 321              	.LVL40:
 322 0000 4156     		pushq	%r14
 323              	.LCFI8:
GAS LISTING /tmp/ccZJW6Kf.s 			page 21


 324              		.cfi_def_cfa_offset 16
 325              		.cfi_offset 14, -16
 326 0002 4155     		pushq	%r13
 327              	.LCFI9:
 328              		.cfi_def_cfa_offset 24
 329              		.cfi_offset 13, -24
 330 0004 4154     		pushq	%r12
 331              	.LCFI10:
 332              		.cfi_def_cfa_offset 32
 333              		.cfi_offset 12, -32
 334 0006 55       		pushq	%rbp
 335              	.LCFI11:
 336              		.cfi_def_cfa_offset 40
 337              		.cfi_offset 6, -40
 338 0007 53       		pushq	%rbx
 339              	.LCFI12:
 340              		.cfi_def_cfa_offset 48
 341              		.cfi_offset 3, -48
 342 0008 4989F5   		movq	%rsi, %r13
 377:/home/baikal/workspace/C50/Huawei_IoT_Agent_Tiny_SDK_Linux//agent_tiny/lwm2m_client/agenttiny.c ****     uint8_t *recv_buffer = phandle->recv_buffer;
 343              		.loc 1 377 0
 344 000b 4C8B37   		movq	(%rdi), %r14
 345              	.LVL41:
 378:/home/baikal/workspace/C50/Huawei_IoT_Agent_Tiny_SDK_Linux//agent_tiny/lwm2m_client/agenttiny.c **** 
 346              		.loc 1 378 0
 347 000e 4C8BA7D8 		movq	216(%rdi), %r12
 347      000000
 348              	.LVL42:
 380:/home/baikal/workspace/C50/Huawei_IoT_Agent_Tiny_SDK_Linux//agent_tiny/lwm2m_client/agenttiny.c ****     connP = dataP->connList;
 349              		.loc 1 380 0
 350 0015 498B4660 		movq	96(%r14), %rax
 351              	.LVL43:
 381:/home/baikal/workspace/C50/Huawei_IoT_Agent_Tiny_SDK_Linux//agent_tiny/lwm2m_client/agenttiny.c **** 
 352              		.loc 1 381 0
 353 0019 488B5810 		movq	16(%rax), %rbx
 354              	.LVL44:
 383:/home/baikal/workspace/C50/Huawei_IoT_Agent_Tiny_SDK_Linux//agent_tiny/lwm2m_client/agenttiny.c ****     {
 355              		.loc 1 383 0
 356 001d E9800000 		jmp	.L32
 356      00
 357              	.LVL45:
 358              	.L35:
 385:/home/baikal/workspace/C50/Huawei_IoT_Agent_Tiny_SDK_Linux//agent_tiny/lwm2m_client/agenttiny.c ****         if (numBytes <= 0)
 359              		.loc 1 385 0
 360 0022 418B4D00 		movl	0(%r13), %ecx
 361 0026 BA000400 		movl	$1024, %edx
 361      00
 362 002b 4C89E6   		movq	%r12, %rsi
 363 002e 4889DF   		movq	%rbx, %rdi
 364 0031 E8000000 		call	lwm2m_buffer_recv
 364      00
 365              	.LVL46:
 366 0036 89C5     		movl	%eax, %ebp
 367              	.LVL47:
 386:/home/baikal/workspace/C50/Huawei_IoT_Agent_Tiny_SDK_Linux//agent_tiny/lwm2m_client/agenttiny.c ****         {
 368              		.loc 1 386 0
 369 0038 85C0     		testl	%eax, %eax
GAS LISTING /tmp/ccZJW6Kf.s 			page 22


 370 003a 7F3D     		jg	.L33
 388:/home/baikal/workspace/C50/Huawei_IoT_Agent_Tiny_SDK_Linux//agent_tiny/lwm2m_client/agenttiny.c ****         }
 371              		.loc 1 388 0
 372 003c E8000000 		call	atiny_get_log_level
 372      00
 373              	.LVL48:
 374 0041 83F801   		cmpl	$1, %eax
 375 0044 7759     		ja	.L34
 388:/home/baikal/workspace/C50/Huawei_IoT_Agent_Tiny_SDK_Linux//agent_tiny/lwm2m_client/agenttiny.c ****         }
 376              		.loc 1 388 0 is_stmt 0 discriminator 1
 377 0046 E8000000 		call	atiny_gettime_ms
 377      00
 378              	.LVL49:
 379 004b 4889C5   		movq	%rax, %rbp
 380              	.LVL50:
 381 004e BF010000 		movl	$1, %edi
 381      00
 382 0053 E8000000 		call	atiny_get_log_level_name
 382      00
 383              	.LVL51:
 384 0058 41B88401 		movl	$388, %r8d
 384      0000
 385 005e B9000000 		movl	$__FUNCTION__.5311, %ecx
 385      00
 386 0063 89EA     		movl	%ebp, %edx
 387 0065 4889C6   		movq	%rax, %rsi
 388 0068 BF000000 		movl	$.LC1, %edi
 388      00
 389 006d B8000000 		movl	$0, %eax
 389      00
 390 0072 E8000000 		call	atiny_printf
 390      00
 391              	.LVL52:
 392 0077 EB26     		jmp	.L34
 393              	.LVL53:
 394              	.L33:
 392:/home/baikal/workspace/C50/Huawei_IoT_Agent_Tiny_SDK_Linux//agent_tiny/lwm2m_client/agenttiny.c ****             lwm2m_handle_packet(contextP, recv_buffer, numBytes, connP);
 395              		.loc 1 392 0 is_stmt 1
 396 0079 B9000000 		movl	$0, %ecx
 396      00
 397 007e 89C2     		movl	%eax, %edx
 398 0080 4C89E6   		movq	%r12, %rsi
 399 0083 488B3D00 		movq	stderr(%rip), %rdi
 399      000000
 400 008a E8000000 		call	output_buffer
 400      00
 401              	.LVL54:
 393:/home/baikal/workspace/C50/Huawei_IoT_Agent_Tiny_SDK_Linux//agent_tiny/lwm2m_client/agenttiny.c ****         }
 402              		.loc 1 393 0
 403 008f 4889D9   		movq	%rbx, %rcx
 404 0092 89EA     		movl	%ebp, %edx
 405 0094 4C89E6   		movq	%r12, %rsi
 406 0097 4C89F7   		movq	%r14, %rdi
 407 009a E8000000 		call	lwm2m_handle_packet
 407      00
 408              	.LVL55:
 409              	.L34:
GAS LISTING /tmp/ccZJW6Kf.s 			page 23


 395:/home/baikal/workspace/C50/Huawei_IoT_Agent_Tiny_SDK_Linux//agent_tiny/lwm2m_client/agenttiny.c ****     }
 410              		.loc 1 395 0
 411 009f 488B1B   		movq	(%rbx), %rbx
 412              	.LVL56:
 413              	.L32:
 383:/home/baikal/workspace/C50/Huawei_IoT_Agent_Tiny_SDK_Linux//agent_tiny/lwm2m_client/agenttiny.c ****     {
 414              		.loc 1 383 0
 415 00a2 4885DB   		testq	%rbx, %rbx
 416 00a5 0F8577FF 		jne	.L35
 416      FFFF
 399:/home/baikal/workspace/C50/Huawei_IoT_Agent_Tiny_SDK_Linux//agent_tiny/lwm2m_client/agenttiny.c **** 
 417              		.loc 1 399 0
 418 00ab B8000000 		movl	$0, %eax
 418      00
 419 00b0 5B       		popq	%rbx
 420              	.LCFI13:
 421              		.cfi_def_cfa_offset 40
 422              	.LVL57:
 423 00b1 5D       		popq	%rbp
 424              	.LCFI14:
 425              		.cfi_def_cfa_offset 32
 426 00b2 415C     		popq	%r12
 427              	.LCFI15:
 428              		.cfi_def_cfa_offset 24
 429              	.LVL58:
 430 00b4 415D     		popq	%r13
 431              	.LCFI16:
 432              		.cfi_def_cfa_offset 16
 433              	.LVL59:
 434 00b6 415E     		popq	%r14
 435              	.LCFI17:
 436              		.cfi_def_cfa_offset 8
 437              	.LVL60:
 438 00b8 C3       		ret
 439              		.cfi_endproc
 440              	.LFE78:
 442              		.section	.rodata.str1.8
 443 004d 000000   		.align 8
 444              	.LC2:
 445 0050 5B25735D 		.string	"[%s][%u][%s:%d] atiny_init_rpt fail,ret=%d\r\n"
 445      5B25755D 
 445      5B25733A 
 445      25645D20 
 445      6174696E 
 446 007d 000000   		.align 8
 447              	.LC3:
 448 0080 5B25735D 		.string	"[%s][%u][%s:%d] Invalid args\r\n"
 448      5B25755D 
 448      5B25733A 
 448      25645D20 
 448      496E7661 
 449 009f 00       		.align 8
 450              	.LC4:
 451 00a0 5B25735D 		.string	"[%s][%u][%s:%d] atiny_mutex_create fail\r\n"
 451      5B25755D 
 451      5B25733A 
 451      25645D20 
GAS LISTING /tmp/ccZJW6Kf.s 			page 24


 451      6174696E 
 452              		.section	.text.atiny_init,"ax",@progbits
 453              		.globl	atiny_init
 455              	atiny_init:
 456              	.LFB75:
 170:/home/baikal/workspace/C50/Huawei_IoT_Agent_Tiny_SDK_Linux//agent_tiny/lwm2m_client/agenttiny.c **** #ifdef CONFIG_FEATURE_FOTA
 457              		.loc 1 170 0
 458              		.cfi_startproc
 459              	.LVL61:
 460 0000 4154     		pushq	%r12
 461              	.LCFI18:
 462              		.cfi_def_cfa_offset 16
 463              		.cfi_offset 12, -16
 464 0002 55       		pushq	%rbp
 465              	.LCFI19:
 466              		.cfi_def_cfa_offset 24
 467              		.cfi_offset 6, -24
 468 0003 53       		pushq	%rbx
 469              	.LCFI20:
 470              		.cfi_def_cfa_offset 32
 471              		.cfi_offset 3, -32
 472 0004 4889FB   		movq	%rdi, %rbx
 473 0007 4989F4   		movq	%rsi, %r12
 176:/home/baikal/workspace/C50/Huawei_IoT_Agent_Tiny_SDK_Linux//agent_tiny/lwm2m_client/agenttiny.c ****     if (result != ATINY_OK)
 474              		.loc 1 176 0
 475 000a E8000000 		call	atiny_init_rpt
 475      00
 476              	.LVL62:
 177:/home/baikal/workspace/C50/Huawei_IoT_Agent_Tiny_SDK_Linux//agent_tiny/lwm2m_client/agenttiny.c ****     {
 477              		.loc 1 177 0
 478 000f 85C0     		testl	%eax, %eax
 479 0011 7449     		je	.L38
 480 0013 89C5     		movl	%eax, %ebp
 179:/home/baikal/workspace/C50/Huawei_IoT_Agent_Tiny_SDK_Linux//agent_tiny/lwm2m_client/agenttiny.c ****         return result;
 481              		.loc 1 179 0
 482 0015 E8000000 		call	atiny_get_log_level
 482      00
 483              	.LVL63:
 484 001a 83F804   		cmpl	$4, %eax
 485 001d 0F87C601 		ja	.L39
 485      0000
 179:/home/baikal/workspace/C50/Huawei_IoT_Agent_Tiny_SDK_Linux//agent_tiny/lwm2m_client/agenttiny.c ****         return result;
 486              		.loc 1 179 0 is_stmt 0 discriminator 1
 487 0023 E8000000 		call	atiny_gettime_ms
 487      00
 488              	.LVL64:
 489 0028 4889C3   		movq	%rax, %rbx
 490              	.LVL65:
 491 002b BF040000 		movl	$4, %edi
 491      00
 492 0030 E8000000 		call	atiny_get_log_level_name
 492      00
 493              	.LVL66:
 494 0035 4189E9   		movl	%ebp, %r9d
 495 0038 41B8B300 		movl	$179, %r8d
 495      0000
 496 003e B9000000 		movl	$__FUNCTION__.5281, %ecx
GAS LISTING /tmp/ccZJW6Kf.s 			page 25


 496      00
 497 0043 89DA     		movl	%ebx, %edx
 498 0045 4889C6   		movq	%rax, %rsi
 499 0048 BF000000 		movl	$.LC2, %edi
 499      00
 500 004d B8000000 		movl	$0, %eax
 500      00
 501 0052 E8000000 		call	atiny_printf
 501      00
 502              	.LVL67:
 503 0057 E98D0100 		jmp	.L39
 503      00
 504              	.LVL68:
 505              	.L38:
 183:/home/baikal/workspace/C50/Huawei_IoT_Agent_Tiny_SDK_Linux//agent_tiny/lwm2m_client/agenttiny.c ****     {
 506              		.loc 1 183 0 is_stmt 1
 507 005c 4885DB   		testq	%rbx, %rbx
 508 005f 0F94C2   		sete	%dl
 509 0062 4D85E4   		testq	%r12, %r12
 510 0065 0F94C0   		sete	%al
 511              	.LVL69:
 512 0068 08C2     		orb	%al, %dl
 513 006a 7449     		je	.L40
 185:/home/baikal/workspace/C50/Huawei_IoT_Agent_Tiny_SDK_Linux//agent_tiny/lwm2m_client/agenttiny.c ****         return ATINY_ARG_INVALID;
 514              		.loc 1 185 0
 515 006c E8000000 		call	atiny_get_log_level
 515      00
 516              	.LVL70:
 517 0071 83F804   		cmpl	$4, %eax
 518 0074 0F875C01 		ja	.L43
 518      0000
 185:/home/baikal/workspace/C50/Huawei_IoT_Agent_Tiny_SDK_Linux//agent_tiny/lwm2m_client/agenttiny.c ****         return ATINY_ARG_INVALID;
 519              		.loc 1 185 0 is_stmt 0 discriminator 1
 520 007a E8000000 		call	atiny_gettime_ms
 520      00
 521              	.LVL71:
 522 007f 4889C3   		movq	%rax, %rbx
 523              	.LVL72:
 524 0082 BF040000 		movl	$4, %edi
 524      00
 525 0087 E8000000 		call	atiny_get_log_level_name
 525      00
 526              	.LVL73:
 527 008c 41B8B900 		movl	$185, %r8d
 527      0000
 528 0092 B9000000 		movl	$__FUNCTION__.5281, %ecx
 528      00
 529 0097 89DA     		movl	%ebx, %edx
 530 0099 4889C6   		movq	%rax, %rsi
 531 009c BF000000 		movl	$.LC3, %edi
 531      00
 532 00a1 B8000000 		movl	$0, %eax
 532      00
 533 00a6 E8000000 		call	atiny_printf
 533      00
 534              	.LVL74:
 186:/home/baikal/workspace/C50/Huawei_IoT_Agent_Tiny_SDK_Linux//agent_tiny/lwm2m_client/agenttiny.c ****     }
GAS LISTING /tmp/ccZJW6Kf.s 			page 26


 535              		.loc 1 186 0 is_stmt 1 discriminator 1
 536 00ab BDFFFFFF 		movl	$-1, %ebp
 536      FF
 537 00b0 E9340100 		jmp	.L39
 537      00
 538              	.LVL75:
 539              	.L40:
 189:/home/baikal/workspace/C50/Huawei_IoT_Agent_Tiny_SDK_Linux//agent_tiny/lwm2m_client/agenttiny.c ****     {
 540              		.loc 1 189 0
 541 00b5 4889DF   		movq	%rbx, %rdi
 542 00b8 E8000000 		call	atiny_check_bootstrap_init_param
 542      00
 543              	.LVL76:
 544 00bd 89C5     		movl	%eax, %ebp
 545 00bf 85C0     		testl	%eax, %eax
 546 00c1 0F851601 		jne	.L44
 546      0000
 547              	.LVL77:
 548              	.LBB30:
 549              	.LBB31:
 550              		.file 2 "/usr/include/x86_64-linux-gnu/bits/string3.h"
   1:/usr/include/x86_64-linux-gnu/bits/string3.h **** /* Copyright (C) 2004-2016 Free Software Foundation, Inc.
   2:/usr/include/x86_64-linux-gnu/bits/string3.h ****    This file is part of the GNU C Library.
   3:/usr/include/x86_64-linux-gnu/bits/string3.h **** 
   4:/usr/include/x86_64-linux-gnu/bits/string3.h ****    The GNU C Library is free software; you can redistribute it and/or
   5:/usr/include/x86_64-linux-gnu/bits/string3.h ****    modify it under the terms of the GNU Lesser General Public
   6:/usr/include/x86_64-linux-gnu/bits/string3.h ****    License as published by the Free Software Foundation; either
   7:/usr/include/x86_64-linux-gnu/bits/string3.h ****    version 2.1 of the License, or (at your option) any later version.
   8:/usr/include/x86_64-linux-gnu/bits/string3.h **** 
   9:/usr/include/x86_64-linux-gnu/bits/string3.h ****    The GNU C Library is distributed in the hope that it will be useful,
  10:/usr/include/x86_64-linux-gnu/bits/string3.h ****    but WITHOUT ANY WARRANTY; without even the implied warranty of
  11:/usr/include/x86_64-linux-gnu/bits/string3.h ****    MERCHANTABILITY or FITNESS FOR A PARTICULAR PURPOSE.  See the GNU
  12:/usr/include/x86_64-linux-gnu/bits/string3.h ****    Lesser General Public License for more details.
  13:/usr/include/x86_64-linux-gnu/bits/string3.h **** 
  14:/usr/include/x86_64-linux-gnu/bits/string3.h ****    You should have received a copy of the GNU Lesser General Public
  15:/usr/include/x86_64-linux-gnu/bits/string3.h ****    License along with the GNU C Library; if not, see
  16:/usr/include/x86_64-linux-gnu/bits/string3.h ****    <http://www.gnu.org/licenses/>.  */
  17:/usr/include/x86_64-linux-gnu/bits/string3.h **** 
  18:/usr/include/x86_64-linux-gnu/bits/string3.h **** #ifndef _STRING_H
  19:/usr/include/x86_64-linux-gnu/bits/string3.h **** # error "Never use <bits/string3.h> directly; include <string.h> instead."
  20:/usr/include/x86_64-linux-gnu/bits/string3.h **** #endif
  21:/usr/include/x86_64-linux-gnu/bits/string3.h **** 
  22:/usr/include/x86_64-linux-gnu/bits/string3.h **** #if !__GNUC_PREREQ (5,0)
  23:/usr/include/x86_64-linux-gnu/bits/string3.h **** __warndecl (__warn_memset_zero_len,
  24:/usr/include/x86_64-linux-gnu/bits/string3.h **** 	    "memset used with constant zero length parameter; this could be due to transposed parameters")
  25:/usr/include/x86_64-linux-gnu/bits/string3.h **** #endif
  26:/usr/include/x86_64-linux-gnu/bits/string3.h **** 
  27:/usr/include/x86_64-linux-gnu/bits/string3.h **** #ifndef __cplusplus
  28:/usr/include/x86_64-linux-gnu/bits/string3.h **** /* XXX This is temporarily.  We should not redefine any of the symbols
  29:/usr/include/x86_64-linux-gnu/bits/string3.h ****    and instead integrate the error checking into the original
  30:/usr/include/x86_64-linux-gnu/bits/string3.h ****    definitions.  */
  31:/usr/include/x86_64-linux-gnu/bits/string3.h **** # undef memcpy
  32:/usr/include/x86_64-linux-gnu/bits/string3.h **** # undef memmove
  33:/usr/include/x86_64-linux-gnu/bits/string3.h **** # undef memset
  34:/usr/include/x86_64-linux-gnu/bits/string3.h **** # undef strcat
  35:/usr/include/x86_64-linux-gnu/bits/string3.h **** # undef strcpy
  36:/usr/include/x86_64-linux-gnu/bits/string3.h **** # undef strncat
GAS LISTING /tmp/ccZJW6Kf.s 			page 27


  37:/usr/include/x86_64-linux-gnu/bits/string3.h **** # undef strncpy
  38:/usr/include/x86_64-linux-gnu/bits/string3.h **** # ifdef __USE_GNU
  39:/usr/include/x86_64-linux-gnu/bits/string3.h **** #  undef mempcpy
  40:/usr/include/x86_64-linux-gnu/bits/string3.h **** #  undef stpcpy
  41:/usr/include/x86_64-linux-gnu/bits/string3.h **** # endif
  42:/usr/include/x86_64-linux-gnu/bits/string3.h **** # ifdef __USE_MISC
  43:/usr/include/x86_64-linux-gnu/bits/string3.h **** #  undef bcopy
  44:/usr/include/x86_64-linux-gnu/bits/string3.h **** #  undef bzero
  45:/usr/include/x86_64-linux-gnu/bits/string3.h **** # endif
  46:/usr/include/x86_64-linux-gnu/bits/string3.h **** #endif
  47:/usr/include/x86_64-linux-gnu/bits/string3.h **** 
  48:/usr/include/x86_64-linux-gnu/bits/string3.h **** 
  49:/usr/include/x86_64-linux-gnu/bits/string3.h **** __fortify_function void *
  50:/usr/include/x86_64-linux-gnu/bits/string3.h **** __NTH (memcpy (void *__restrict __dest, const void *__restrict __src,
  51:/usr/include/x86_64-linux-gnu/bits/string3.h **** 	       size_t __len))
  52:/usr/include/x86_64-linux-gnu/bits/string3.h **** {
  53:/usr/include/x86_64-linux-gnu/bits/string3.h ****   return __builtin___memcpy_chk (__dest, __src, __len, __bos0 (__dest));
  54:/usr/include/x86_64-linux-gnu/bits/string3.h **** }
  55:/usr/include/x86_64-linux-gnu/bits/string3.h **** 
  56:/usr/include/x86_64-linux-gnu/bits/string3.h **** __fortify_function void *
  57:/usr/include/x86_64-linux-gnu/bits/string3.h **** __NTH (memmove (void *__dest, const void *__src, size_t __len))
  58:/usr/include/x86_64-linux-gnu/bits/string3.h **** {
  59:/usr/include/x86_64-linux-gnu/bits/string3.h ****   return __builtin___memmove_chk (__dest, __src, __len, __bos0 (__dest));
  60:/usr/include/x86_64-linux-gnu/bits/string3.h **** }
  61:/usr/include/x86_64-linux-gnu/bits/string3.h **** 
  62:/usr/include/x86_64-linux-gnu/bits/string3.h **** #ifdef __USE_GNU
  63:/usr/include/x86_64-linux-gnu/bits/string3.h **** __fortify_function void *
  64:/usr/include/x86_64-linux-gnu/bits/string3.h **** __NTH (mempcpy (void *__restrict __dest, const void *__restrict __src,
  65:/usr/include/x86_64-linux-gnu/bits/string3.h **** 		size_t __len))
  66:/usr/include/x86_64-linux-gnu/bits/string3.h **** {
  67:/usr/include/x86_64-linux-gnu/bits/string3.h ****   return __builtin___mempcpy_chk (__dest, __src, __len, __bos0 (__dest));
  68:/usr/include/x86_64-linux-gnu/bits/string3.h **** }
  69:/usr/include/x86_64-linux-gnu/bits/string3.h **** #endif
  70:/usr/include/x86_64-linux-gnu/bits/string3.h **** 
  71:/usr/include/x86_64-linux-gnu/bits/string3.h **** 
  72:/usr/include/x86_64-linux-gnu/bits/string3.h **** /* The first two tests here help to catch a somewhat common problem
  73:/usr/include/x86_64-linux-gnu/bits/string3.h ****    where the second and third parameter are transposed.  This is
  74:/usr/include/x86_64-linux-gnu/bits/string3.h ****    especially problematic if the intended fill value is zero.  In this
  75:/usr/include/x86_64-linux-gnu/bits/string3.h ****    case no work is done at all.  We detect these problems by referring
  76:/usr/include/x86_64-linux-gnu/bits/string3.h ****    non-existing functions.  */
  77:/usr/include/x86_64-linux-gnu/bits/string3.h **** __fortify_function void *
  78:/usr/include/x86_64-linux-gnu/bits/string3.h **** __NTH (memset (void *__dest, int __ch, size_t __len))
  79:/usr/include/x86_64-linux-gnu/bits/string3.h **** {
  80:/usr/include/x86_64-linux-gnu/bits/string3.h ****   /* GCC-5.0 and newer implements these checks in the compiler, so we don't
  81:/usr/include/x86_64-linux-gnu/bits/string3.h ****      need them here.  */
  82:/usr/include/x86_64-linux-gnu/bits/string3.h **** #if !__GNUC_PREREQ (5,0)
  83:/usr/include/x86_64-linux-gnu/bits/string3.h ****   if (__builtin_constant_p (__len) && __len == 0
  84:/usr/include/x86_64-linux-gnu/bits/string3.h ****       && (!__builtin_constant_p (__ch) || __ch != 0))
  85:/usr/include/x86_64-linux-gnu/bits/string3.h ****     {
  86:/usr/include/x86_64-linux-gnu/bits/string3.h ****       __warn_memset_zero_len ();
  87:/usr/include/x86_64-linux-gnu/bits/string3.h ****       return __dest;
  88:/usr/include/x86_64-linux-gnu/bits/string3.h ****     }
  89:/usr/include/x86_64-linux-gnu/bits/string3.h **** #endif
  90:/usr/include/x86_64-linux-gnu/bits/string3.h ****   return __builtin___memset_chk (__dest, __ch, __len, __bos0 (__dest));
 551              		.loc 2 90 0
 552 00c7 BA000000 		movl	$g_atiny_handle, %edx
 552      00
GAS LISTING /tmp/ccZJW6Kf.s 			page 28


 553 00cc B91C0000 		movl	$28, %ecx
 553      00
 554 00d1 B8000000 		movl	$0, %eax
 554      00
 555 00d6 4889D7   		movq	%rdx, %rdi
 556 00d9 F348AB   		rep stosq
 557              	.LVL78:
 558              	.LBE31:
 559              	.LBE30:
 204:/home/baikal/workspace/C50/Huawei_IoT_Agent_Tiny_SDK_Linux//agent_tiny/lwm2m_client/agenttiny.c ****     if (NULL == g_atiny_handle.quit_sem)
 560              		.loc 1 204 0
 561 00dc E8000000 		call	atiny_mutex_create
 561      00
 562              	.LVL79:
 563 00e1 48890500 		movq	%rax, g_atiny_handle+200(%rip)
 563      000000
 205:/home/baikal/workspace/C50/Huawei_IoT_Agent_Tiny_SDK_Linux//agent_tiny/lwm2m_client/agenttiny.c ****     {
 564              		.loc 1 205 0
 565 00e8 4885C0   		testq	%rax, %rax
 566 00eb 7549     		jne	.L41
 207:/home/baikal/workspace/C50/Huawei_IoT_Agent_Tiny_SDK_Linux//agent_tiny/lwm2m_client/agenttiny.c ****         return ATINY_RESOURCE_NOT_ENOUGH;
 567              		.loc 1 207 0
 568 00ed E8000000 		call	atiny_get_log_level
 568      00
 569              	.LVL80:
 570 00f2 83F804   		cmpl	$4, %eax
 571 00f5 0F87E900 		ja	.L45
 571      0000
 207:/home/baikal/workspace/C50/Huawei_IoT_Agent_Tiny_SDK_Linux//agent_tiny/lwm2m_client/agenttiny.c ****         return ATINY_RESOURCE_NOT_ENOUGH;
 572              		.loc 1 207 0 is_stmt 0 discriminator 1
 573 00fb E8000000 		call	atiny_gettime_ms
 573      00
 574              	.LVL81:
 575 0100 4889C3   		movq	%rax, %rbx
 576              	.LVL82:
 577 0103 BF040000 		movl	$4, %edi
 577      00
 578 0108 E8000000 		call	atiny_get_log_level_name
 578      00
 579              	.LVL83:
 580 010d 41B8CF00 		movl	$207, %r8d
 580      0000
 581 0113 B9000000 		movl	$__FUNCTION__.5281, %ecx
 581      00
 582 0118 89DA     		movl	%ebx, %edx
 583 011a 4889C6   		movq	%rax, %rsi
 584 011d BF000000 		movl	$.LC4, %edi
 584      00
 585 0122 B8000000 		movl	$0, %eax
 585      00
 586 0127 E8000000 		call	atiny_printf
 586      00
 587              	.LVL84:
 208:/home/baikal/workspace/C50/Huawei_IoT_Agent_Tiny_SDK_Linux//agent_tiny/lwm2m_client/agenttiny.c ****     }
 588              		.loc 1 208 0 is_stmt 1 discriminator 1
 589 012c BDFAFFFF 		movl	$-6, %ebp
 589      FF
GAS LISTING /tmp/ccZJW6Kf.s 			page 29


 590 0131 E9B30000 		jmp	.L39
 590      00
 591              	.LVL85:
 592              	.L41:
 210:/home/baikal/workspace/C50/Huawei_IoT_Agent_Tiny_SDK_Linux//agent_tiny/lwm2m_client/agenttiny.c ****     g_atiny_handle.atiny_params = *atiny_params;
 593              		.loc 1 210 0
 594 0136 4889C7   		movq	%rax, %rdi
 595 0139 E8000000 		call	atiny_mutex_lock
 595      00
 596              	.LVL86:
 211:/home/baikal/workspace/C50/Huawei_IoT_Agent_Tiny_SDK_Linux//agent_tiny/lwm2m_client/agenttiny.c ****     *phandle = &g_atiny_handle;
 597              		.loc 1 211 0
 598 013e 488B03   		movq	(%rbx), %rax
 599 0141 48890500 		movq	%rax, g_atiny_handle+8(%rip)
 599      000000
 600 0148 488B4308 		movq	8(%rbx), %rax
 601 014c 48890500 		movq	%rax, g_atiny_handle+16(%rip)
 601      000000
 602 0153 488B4310 		movq	16(%rbx), %rax
 603 0157 48890500 		movq	%rax, g_atiny_handle+24(%rip)
 603      000000
 604 015e 488B4318 		movq	24(%rbx), %rax
 605 0162 48890500 		movq	%rax, g_atiny_handle+32(%rip)
 605      000000
 606 0169 488B4320 		movq	32(%rbx), %rax
 607 016d 48890500 		movq	%rax, g_atiny_handle+40(%rip)
 607      000000
 608 0174 488B4328 		movq	40(%rbx), %rax
 609 0178 48890500 		movq	%rax, g_atiny_handle+48(%rip)
 609      000000
 610 017f 488B4330 		movq	48(%rbx), %rax
 611 0183 48890500 		movq	%rax, g_atiny_handle+56(%rip)
 611      000000
 612 018a 488B4338 		movq	56(%rbx), %rax
 613 018e 48890500 		movq	%rax, g_atiny_handle+64(%rip)
 613      000000
 614 0195 488B4340 		movq	64(%rbx), %rax
 615 0199 48890500 		movq	%rax, g_atiny_handle+72(%rip)
 615      000000
 616 01a0 488B4348 		movq	72(%rbx), %rax
 617 01a4 48890500 		movq	%rax, g_atiny_handle+80(%rip)
 617      000000
 618 01ab 488B4350 		movq	80(%rbx), %rax
 619 01af 48890500 		movq	%rax, g_atiny_handle+88(%rip)
 619      000000
 620 01b6 488B4358 		movq	88(%rbx), %rax
 621 01ba 48890500 		movq	%rax, g_atiny_handle+96(%rip)
 621      000000
 622 01c1 488B4360 		movq	96(%rbx), %rax
 623 01c5 48890500 		movq	%rax, g_atiny_handle+104(%rip)
 623      000000
 212:/home/baikal/workspace/C50/Huawei_IoT_Agent_Tiny_SDK_Linux//agent_tiny/lwm2m_client/agenttiny.c **** 
 624              		.loc 1 212 0
 625 01cc 49C70424 		movq	$g_atiny_handle, (%r12)
 625      00000000 
 224:/home/baikal/workspace/C50/Huawei_IoT_Agent_Tiny_SDK_Linux//agent_tiny/lwm2m_client/agenttiny.c **** #endif
 626              		.loc 1 224 0
GAS LISTING /tmp/ccZJW6Kf.s 			page 30


 627 01d4 EB13     		jmp	.L39
 628              	.L43:
 186:/home/baikal/workspace/C50/Huawei_IoT_Agent_Tiny_SDK_Linux//agent_tiny/lwm2m_client/agenttiny.c ****     }
 629              		.loc 1 186 0
 630 01d6 BDFFFFFF 		movl	$-1, %ebp
 630      FF
 631 01db EB0C     		jmp	.L39
 632              	.L44:
 192:/home/baikal/workspace/C50/Huawei_IoT_Agent_Tiny_SDK_Linux//agent_tiny/lwm2m_client/agenttiny.c ****     }
 633              		.loc 1 192 0
 634 01dd BDFFFFFF 		movl	$-1, %ebp
 634      FF
 635 01e2 EB05     		jmp	.L39
 636              	.L45:
 208:/home/baikal/workspace/C50/Huawei_IoT_Agent_Tiny_SDK_Linux//agent_tiny/lwm2m_client/agenttiny.c ****     }
 637              		.loc 1 208 0
 638 01e4 BDFAFFFF 		movl	$-6, %ebp
 638      FF
 639              	.LVL87:
 640              	.L39:
 227:/home/baikal/workspace/C50/Huawei_IoT_Agent_Tiny_SDK_Linux//agent_tiny/lwm2m_client/agenttiny.c **** 
 641              		.loc 1 227 0
 642 01e9 89E8     		movl	%ebp, %eax
 643 01eb 5B       		popq	%rbx
 644              	.LCFI21:
 645              		.cfi_def_cfa_offset 24
 646 01ec 5D       		popq	%rbp
 647              	.LCFI22:
 648              		.cfi_def_cfa_offset 16
 649 01ed 415C     		popq	%r12
 650              	.LCFI23:
 651              		.cfi_def_cfa_offset 8
 652              	.LVL88:
 653 01ef C3       		ret
 654              		.cfi_endproc
 655              	.LFE75:
 657              		.section	.text.atiny_set_bootstrap_sequence_state,"ax",@progbits
 658              		.globl	atiny_set_bootstrap_sequence_state
 660              	atiny_set_bootstrap_sequence_state:
 661              	.LFB76:
 239:/home/baikal/workspace/C50/Huawei_IoT_Agent_Tiny_SDK_Linux//agent_tiny/lwm2m_client/agenttiny.c ****     if((NULL == atiny_params) || (NULL == lwm2m_context))
 662              		.loc 1 239 0
 663              		.cfi_startproc
 664              	.LVL89:
 240:/home/baikal/workspace/C50/Huawei_IoT_Agent_Tiny_SDK_Linux//agent_tiny/lwm2m_client/agenttiny.c ****     {
 665              		.loc 1 240 0
 666 0000 4885FF   		testq	%rdi, %rdi
 667 0003 0F94C2   		sete	%dl
 668 0006 4885F6   		testq	%rsi, %rsi
 669 0009 0F94C0   		sete	%al
 670 000c 08C2     		orb	%al, %dl
 671 000e 7549     		jne	.L47
 248:/home/baikal/workspace/C50/Huawei_IoT_Agent_Tiny_SDK_Linux//agent_tiny/lwm2m_client/agenttiny.c **** 
 672              		.loc 1 248 0
 673 0010 C7460404 		movl	$4, 4(%rsi)
 673      000000
 250:/home/baikal/workspace/C50/Huawei_IoT_Agent_Tiny_SDK_Linux//agent_tiny/lwm2m_client/agenttiny.c ****     {
GAS LISTING /tmp/ccZJW6Kf.s 			page 31


 674              		.loc 1 250 0
 675 0017 8B4710   		movl	16(%rdi), %eax
 676 001a 83F801   		cmpl	$1, %eax
 677 001d 7436     		je	.L49
 678 001f 83F801   		cmpl	$1, %eax
 679 0022 7207     		jb	.L50
 680 0024 83F802   		cmpl	$2, %eax
 681 0027 7407     		je	.L51
 682 0029 F3C3     		rep ret
 683              	.L50:
 253:/home/baikal/workspace/C50/Huawei_IoT_Agent_Tiny_SDK_Linux//agent_tiny/lwm2m_client/agenttiny.c ****         break;
 684              		.loc 1 253 0
 685 002b C6460801 		movb	$1, 8(%rsi)
 254:/home/baikal/workspace/C50/Huawei_IoT_Agent_Tiny_SDK_Linux//agent_tiny/lwm2m_client/agenttiny.c ****     case BOOTSTRAP_SEQUENCE:
 686              		.loc 1 254 0
 687 002f C3       		ret
 688              	.L51:
 256:/home/baikal/workspace/C50/Huawei_IoT_Agent_Tiny_SDK_Linux//agent_tiny/lwm2m_client/agenttiny.c ****         lwm2m_context->regist_first_flag = false;
 689              		.loc 1 256 0
 690 0030 C7460402 		movl	$2, 4(%rsi)
 690      000000
 257:/home/baikal/workspace/C50/Huawei_IoT_Agent_Tiny_SDK_Linux//agent_tiny/lwm2m_client/agenttiny.c ****         //security_params[0] for iot server
 691              		.loc 1 257 0
 692 0037 C6460800 		movb	$0, 8(%rsi)
 259:/home/baikal/workspace/C50/Huawei_IoT_Agent_Tiny_SDK_Linux//agent_tiny/lwm2m_client/agenttiny.c ****         {
 693              		.loc 1 259 0
 694 003b 48837F18 		cmpq	$0, 24(%rdi)
 694      00
 695 0040 7417     		je	.L47
 259:/home/baikal/workspace/C50/Huawei_IoT_Agent_Tiny_SDK_Linux//agent_tiny/lwm2m_client/agenttiny.c ****         {
 696              		.loc 1 259 0 is_stmt 0 discriminator 1
 697 0042 48837F20 		cmpq	$0, 32(%rdi)
 697      00
 698 0047 7410     		je	.L47
 261:/home/baikal/workspace/C50/Huawei_IoT_Agent_Tiny_SDK_Linux//agent_tiny/lwm2m_client/agenttiny.c ****             lwm2m_context->regist_first_flag = true;
 699              		.loc 1 261 0 is_stmt 1
 700 0049 C7460401 		movl	$1, 4(%rsi)
 700      000000
 262:/home/baikal/workspace/C50/Huawei_IoT_Agent_Tiny_SDK_Linux//agent_tiny/lwm2m_client/agenttiny.c ****         }
 701              		.loc 1 262 0
 702 0050 C6460801 		movb	$1, 8(%rsi)
 703 0054 C3       		ret
 704              	.L49:
 266:/home/baikal/workspace/C50/Huawei_IoT_Agent_Tiny_SDK_Linux//agent_tiny/lwm2m_client/agenttiny.c ****         break;
 705              		.loc 1 266 0
 706 0055 C6460800 		movb	$0, 8(%rsi)
 707              	.L47:
 708 0059 F3C3     		rep ret
 709              		.cfi_endproc
 710              	.LFE76:
 712              		.section	.rodata.str1.8
 713 00ca 00000000 		.align 8
 713      0000
 714              	.LC5:
 715 00d0 5B25735D 		.string	"[%s][%u][%s:%d] Trying to init objects\r\n"
 715      5B25755D 
 715      5B25733A 
GAS LISTING /tmp/ccZJW6Kf.s 			page 32


 715      25645D20 
 715      54727969 
 716 00f9 00000000 		.align 8
 716      000000
 717              	.LC6:
 718 0100 5B25735D 		.string	"[%s][%u][%s:%d] lwm2m_init fail\r\n"
 718      5B25755D 
 718      5B25733A 
 718      25645D20 
 718      6C776D32 
 719 0122 00000000 		.align 8
 719      0000
 720              	.LC7:
 721 0128 5B25735D 		.string	"[%s][%u][%s:%d] Failed to create security object\r\n"
 721      5B25755D 
 721      5B25733A 
 721      25645D20 
 721      4661696C 
 722 015b 00000000 		.align 8
 722      00
 723              	.LC8:
 724 0160 5B25735D 		.string	"[%s][%u][%s:%d] Failed to create server object\r\n"
 724      5B25755D 
 724      5B25733A 
 724      25645D20 
 724      4661696C 
 725 0191 00000000 		.align 8
 725      000000
 726              	.LC9:
 727 0198 5B25735D 		.string	"[%s][%u][%s:%d] Failed to create device object\r\n"
 727      5B25755D 
 727      5B25733A 
 727      25645D20 
 727      4661696C 
 728 01c9 00000000 		.align 8
 728      000000
 729              	.LC10:
 730 01d0 5B25735D 		.string	"[%s][%u][%s:%d] Failed to create connect object\r\n"
 730      5B25755D 
 730      5B25733A 
 730      25645D20 
 730      4661696C 
 731 0202 00000000 		.align 8
 731      0000
 732              	.LC11:
 733 0208 5B25735D 		.string	"[%s][%u][%s:%d] Failed to create app object\r\n"
 733      5B25755D 
 733      5B25733A 
 733      25645D20 
 733      4661696C 
 734              		.section	.text.atiny_init_objects,"ax",@progbits
 735              		.globl	atiny_init_objects
 737              	atiny_init_objects:
 738              	.LFB77:
 281:/home/baikal/workspace/C50/Huawei_IoT_Agent_Tiny_SDK_Linux//agent_tiny/lwm2m_client/agenttiny.c ****     int result;
 739              		.loc 1 281 0
 740              		.cfi_startproc
GAS LISTING /tmp/ccZJW6Kf.s 			page 33


 741              	.LVL90:
 742 0000 4157     		pushq	%r15
 743              	.LCFI24:
 744              		.cfi_def_cfa_offset 16
 745              		.cfi_offset 15, -16
 746 0002 4156     		pushq	%r14
 747              	.LCFI25:
 748              		.cfi_def_cfa_offset 24
 749              		.cfi_offset 14, -24
 750 0004 4155     		pushq	%r13
 751              	.LCFI26:
 752              		.cfi_def_cfa_offset 32
 753              		.cfi_offset 13, -32
 754 0006 4154     		pushq	%r12
 755              	.LCFI27:
 756              		.cfi_def_cfa_offset 40
 757              		.cfi_offset 12, -40
 758 0008 55       		pushq	%rbp
 759              	.LCFI28:
 760              		.cfi_def_cfa_offset 48
 761              		.cfi_offset 6, -48
 762 0009 53       		pushq	%rbx
 763              	.LCFI29:
 764              		.cfi_def_cfa_offset 56
 765              		.cfi_offset 3, -56
 766 000a 4883EC08 		subq	$8, %rsp
 767              	.LCFI30:
 768              		.cfi_def_cfa_offset 64
 769 000e 4889FD   		movq	%rdi, %rbp
 770 0011 4989F5   		movq	%rsi, %r13
 771 0014 4889D3   		movq	%rdx, %rbx
 772              	.LVL91:
 286:/home/baikal/workspace/C50/Huawei_IoT_Agent_Tiny_SDK_Linux//agent_tiny/lwm2m_client/agenttiny.c **** 
 773              		.loc 1 286 0
 774 0017 4C8B36   		movq	(%rsi), %r14
 775              	.LVL92:
 290:/home/baikal/workspace/C50/Huawei_IoT_Agent_Tiny_SDK_Linux//agent_tiny/lwm2m_client/agenttiny.c ****     memset(pdata, 0, sizeof(client_data_t));
 776              		.loc 1 290 0
 777 001a 4C8D6270 		leaq	112(%rdx), %r12
 778              	.LVL93:
 779              	.LBB32:
 780              	.LBB33:
 781              		.loc 2 90 0
 782 001e 48C74270 		movq	$0, 112(%rdx)
 782      00000000 
 783 0026 49C74424 		movq	$0, 8(%r12)
 783      08000000 
 783      00
 784 002f 49C74424 		movq	$0, 16(%r12)
 784      10000000 
 784      00
 785 0038 49C74424 		movq	$0, 24(%r12)
 785      18000000 
 785      00
 786              	.LVL94:
 787              	.LBE33:
 788              	.LBE32:
GAS LISTING /tmp/ccZJW6Kf.s 			page 34


 293:/home/baikal/workspace/C50/Huawei_IoT_Agent_Tiny_SDK_Linux//agent_tiny/lwm2m_client/agenttiny.c **** 
 789              		.loc 1 293 0
 790 0041 E8000000 		call	atiny_get_log_level
 790      00
 791              	.LVL95:
 792 0046 83F801   		cmpl	$1, %eax
 793 0049 7732     		ja	.L53
 293:/home/baikal/workspace/C50/Huawei_IoT_Agent_Tiny_SDK_Linux//agent_tiny/lwm2m_client/agenttiny.c **** 
 794              		.loc 1 293 0 is_stmt 0 discriminator 1
 795 004b E8000000 		call	atiny_gettime_ms
 795      00
 796              	.LVL96:
 797 0050 4989C7   		movq	%rax, %r15
 798 0053 BF010000 		movl	$1, %edi
 798      00
 799 0058 E8000000 		call	atiny_get_log_level_name
 799      00
 800              	.LVL97:
 801 005d 41B82501 		movl	$293, %r8d
 801      0000
 802 0063 B9000000 		movl	$__FUNCTION__.5301, %ecx
 802      00
 803 0068 4489FA   		movl	%r15d, %edx
 804 006b 4889C6   		movq	%rax, %rsi
 805 006e BF000000 		movl	$.LC5, %edi
 805      00
 806 0073 B8000000 		movl	$0, %eax
 806      00
 807 0078 E8000000 		call	atiny_printf
 807      00
 808              	.LVL98:
 809              	.L53:
 295:/home/baikal/workspace/C50/Huawei_IoT_Agent_Tiny_SDK_Linux//agent_tiny/lwm2m_client/agenttiny.c ****     if (NULL == lwm2m_context)
 810              		.loc 1 295 0 is_stmt 1
 811 007d 4C89E7   		movq	%r12, %rdi
 812 0080 E8000000 		call	lwm2m_init
 812      00
 813              	.LVL99:
 814 0085 4989C4   		movq	%rax, %r12
 815              	.LVL100:
 296:/home/baikal/workspace/C50/Huawei_IoT_Agent_Tiny_SDK_Linux//agent_tiny/lwm2m_client/agenttiny.c ****     {
 816              		.loc 1 296 0
 817 0088 4885C0   		testq	%rax, %rax
 818 008b 7549     		jne	.L54
 298:/home/baikal/workspace/C50/Huawei_IoT_Agent_Tiny_SDK_Linux//agent_tiny/lwm2m_client/agenttiny.c ****         return ATINY_MALLOC_FAILED;
 819              		.loc 1 298 0
 820 008d E8000000 		call	atiny_get_log_level
 820      00
 821              	.LVL101:
 822 0092 83F804   		cmpl	$4, %eax
 823 0095 0F87D902 		ja	.L63
 823      0000
 298:/home/baikal/workspace/C50/Huawei_IoT_Agent_Tiny_SDK_Linux//agent_tiny/lwm2m_client/agenttiny.c ****         return ATINY_MALLOC_FAILED;
 824              		.loc 1 298 0 is_stmt 0 discriminator 1
 825 009b E8000000 		call	atiny_gettime_ms
 825      00
 826              	.LVL102:
GAS LISTING /tmp/ccZJW6Kf.s 			page 35


 827 00a0 4889C3   		movq	%rax, %rbx
 828              	.LVL103:
 829 00a3 BF040000 		movl	$4, %edi
 829      00
 830 00a8 E8000000 		call	atiny_get_log_level_name
 830      00
 831              	.LVL104:
 832 00ad 41B82A01 		movl	$298, %r8d
 832      0000
 833 00b3 B9000000 		movl	$__FUNCTION__.5301, %ecx
 833      00
 834 00b8 89DA     		movl	%ebx, %edx
 835 00ba 4889C6   		movq	%rax, %rsi
 836 00bd BF000000 		movl	$.LC6, %edi
 836      00
 837 00c2 B8000000 		movl	$0, %eax
 837      00
 838 00c7 E8000000 		call	atiny_printf
 838      00
 839              	.LVL105:
 299:/home/baikal/workspace/C50/Huawei_IoT_Agent_Tiny_SDK_Linux//agent_tiny/lwm2m_client/agenttiny.c ****     }
 840              		.loc 1 299 0 is_stmt 1 discriminator 1
 841 00cc B8FCFFFF 		movl	$-4, %eax
 841      FF
 842 00d1 E9CD0200 		jmp	.L55
 842      00
 843              	.LVL106:
 844              	.L54:
 301:/home/baikal/workspace/C50/Huawei_IoT_Agent_Tiny_SDK_Linux//agent_tiny/lwm2m_client/agenttiny.c ****     if (NULL == lwm2m_context->observe_mutex)
 845              		.loc 1 301 0
 846 00d6 E8000000 		call	atiny_mutex_create
 846      00
 847              	.LVL107:
 848 00db 49894424 		movq	%rax, 72(%r12)
 848      48
 302:/home/baikal/workspace/C50/Huawei_IoT_Agent_Tiny_SDK_Linux//agent_tiny/lwm2m_client/agenttiny.c ****     {
 849              		.loc 1 302 0
 850 00e0 4885C0   		testq	%rax, %rax
 851 00e3 754D     		jne	.L56
 304:/home/baikal/workspace/C50/Huawei_IoT_Agent_Tiny_SDK_Linux//agent_tiny/lwm2m_client/agenttiny.c ****         lwm2m_free(lwm2m_context);
 852              		.loc 1 304 0
 853 00e5 E8000000 		call	atiny_get_log_level
 853      00
 854              	.LVL108:
 855 00ea 83F804   		cmpl	$4, %eax
 856 00ed 7731     		ja	.L57
 304:/home/baikal/workspace/C50/Huawei_IoT_Agent_Tiny_SDK_Linux//agent_tiny/lwm2m_client/agenttiny.c ****         lwm2m_free(lwm2m_context);
 857              		.loc 1 304 0 is_stmt 0 discriminator 1
 858 00ef E8000000 		call	atiny_gettime_ms
 858      00
 859              	.LVL109:
 860 00f4 4889C3   		movq	%rax, %rbx
 861              	.LVL110:
 862 00f7 BF040000 		movl	$4, %edi
 862      00
 863 00fc E8000000 		call	atiny_get_log_level_name
 863      00
GAS LISTING /tmp/ccZJW6Kf.s 			page 36


 864              	.LVL111:
 865 0101 41B83001 		movl	$304, %r8d
 865      0000
 866 0107 B9000000 		movl	$__FUNCTION__.5301, %ecx
 866      00
 867 010c 89DA     		movl	%ebx, %edx
 868 010e 4889C6   		movq	%rax, %rsi
 869 0111 BF000000 		movl	$.LC4, %edi
 869      00
 870 0116 B8000000 		movl	$0, %eax
 870      00
 871 011b E8000000 		call	atiny_printf
 871      00
 872              	.LVL112:
 873              	.L57:
 305:/home/baikal/workspace/C50/Huawei_IoT_Agent_Tiny_SDK_Linux//agent_tiny/lwm2m_client/agenttiny.c ****         return ATINY_RESOURCE_NOT_ENOUGH;
 874              		.loc 1 305 0 is_stmt 1
 875 0120 4C89E7   		movq	%r12, %rdi
 876 0123 E8000000 		call	lwm2m_free
 876      00
 877              	.LVL113:
 306:/home/baikal/workspace/C50/Huawei_IoT_Agent_Tiny_SDK_Linux//agent_tiny/lwm2m_client/agenttiny.c ****     }
 878              		.loc 1 306 0
 879 0128 B8FAFFFF 		movl	$-6, %eax
 879      FF
 880 012d E9710200 		jmp	.L55
 880      00
 881              	.LVL114:
 882              	.L56:
 309:/home/baikal/workspace/C50/Huawei_IoT_Agent_Tiny_SDK_Linux//agent_tiny/lwm2m_client/agenttiny.c **** 
 883              		.loc 1 309 0
 884 0132 4C89A388 		movq	%r12, 136(%rbx)
 884      000000
 311:/home/baikal/workspace/C50/Huawei_IoT_Agent_Tiny_SDK_Linux//agent_tiny/lwm2m_client/agenttiny.c **** 
 885              		.loc 1 311 0
 886 0139 4C8923   		movq	%r12, (%rbx)
 314:/home/baikal/workspace/C50/Huawei_IoT_Agent_Tiny_SDK_Linux//agent_tiny/lwm2m_client/agenttiny.c **** 
 887              		.loc 1 314 0
 888 013c 4C89E6   		movq	%r12, %rsi
 889 013f 4889EF   		movq	%rbp, %rdi
 890 0142 E8000000 		call	atiny_set_bootstrap_sequence_state
 890      00
 891              	.LVL115:
 316:/home/baikal/workspace/C50/Huawei_IoT_Agent_Tiny_SDK_Linux//agent_tiny/lwm2m_client/agenttiny.c **** 
 892              		.loc 1 316 0
 893 0147 4C89E2   		movq	%r12, %rdx
 894 014a 4889EE   		movq	%rbp, %rsi
 895 014d BF7B0000 		movl	$123, %edi
 895      00
 896 0152 E8000000 		call	get_security_object
 896      00
 897              	.LVL116:
 898 0157 48898390 		movq	%rax, 144(%rbx)
 898      000000
 318:/home/baikal/workspace/C50/Huawei_IoT_Agent_Tiny_SDK_Linux//agent_tiny/lwm2m_client/agenttiny.c ****     {
 899              		.loc 1 318 0
 900 015e 4885C0   		testq	%rax, %rax
GAS LISTING /tmp/ccZJW6Kf.s 			page 37


 901 0161 7549     		jne	.L58
 320:/home/baikal/workspace/C50/Huawei_IoT_Agent_Tiny_SDK_Linux//agent_tiny/lwm2m_client/agenttiny.c ****         return ATINY_MALLOC_FAILED;
 902              		.loc 1 320 0
 903 0163 E8000000 		call	atiny_get_log_level
 903      00
 904              	.LVL117:
 905 0168 83F804   		cmpl	$4, %eax
 906 016b 0F870A02 		ja	.L64
 906      0000
 320:/home/baikal/workspace/C50/Huawei_IoT_Agent_Tiny_SDK_Linux//agent_tiny/lwm2m_client/agenttiny.c ****         return ATINY_MALLOC_FAILED;
 907              		.loc 1 320 0 is_stmt 0 discriminator 1
 908 0171 E8000000 		call	atiny_gettime_ms
 908      00
 909              	.LVL118:
 910 0176 4889C3   		movq	%rax, %rbx
 911              	.LVL119:
 912 0179 BF040000 		movl	$4, %edi
 912      00
 913 017e E8000000 		call	atiny_get_log_level_name
 913      00
 914              	.LVL120:
 915 0183 41B84001 		movl	$320, %r8d
 915      0000
 916 0189 B9000000 		movl	$__FUNCTION__.5301, %ecx
 916      00
 917 018e 89DA     		movl	%ebx, %edx
 918 0190 4889C6   		movq	%rax, %rsi
 919 0193 BF000000 		movl	$.LC7, %edi
 919      00
 920 0198 B8000000 		movl	$0, %eax
 920      00
 921 019d E8000000 		call	atiny_printf
 921      00
 922              	.LVL121:
 321:/home/baikal/workspace/C50/Huawei_IoT_Agent_Tiny_SDK_Linux//agent_tiny/lwm2m_client/agenttiny.c ****     }
 923              		.loc 1 321 0 is_stmt 1 discriminator 1
 924 01a2 B8FCFFFF 		movl	$-4, %eax
 924      FF
 925 01a7 E9F70100 		jmp	.L55
 925      00
 926              	.LVL122:
 927              	.L58:
 323:/home/baikal/workspace/C50/Huawei_IoT_Agent_Tiny_SDK_Linux//agent_tiny/lwm2m_client/agenttiny.c **** 
 928              		.loc 1 323 0
 929 01ac 48894370 		movq	%rax, 112(%rbx)
 325:/home/baikal/workspace/C50/Huawei_IoT_Agent_Tiny_SDK_Linux//agent_tiny/lwm2m_client/agenttiny.c ****                                           atiny_params->server_params.life_time, atiny_params->serv
 930              		.loc 1 325 0
 931 01b0 488B7500 		movq	0(%rbp), %rsi
 932 01b4 837D0C00 		cmpl	$0, 12(%rbp)
 933 01b8 0F95C1   		setne	%cl
 934 01bb 0FB6C9   		movzbl	%cl, %ecx
 935 01be 8B5508   		movl	8(%rbp), %edx
 936 01c1 BF7B0000 		movl	$123, %edi
 936      00
 937 01c6 E8000000 		call	get_server_object
 937      00
 938              	.LVL123:
GAS LISTING /tmp/ccZJW6Kf.s 			page 38


 939 01cb 48898398 		movq	%rax, 152(%rbx)
 939      000000
 327:/home/baikal/workspace/C50/Huawei_IoT_Agent_Tiny_SDK_Linux//agent_tiny/lwm2m_client/agenttiny.c ****     {
 940              		.loc 1 327 0
 941 01d2 4885C0   		testq	%rax, %rax
 942 01d5 7549     		jne	.L59
 329:/home/baikal/workspace/C50/Huawei_IoT_Agent_Tiny_SDK_Linux//agent_tiny/lwm2m_client/agenttiny.c ****         return ATINY_MALLOC_FAILED;
 943              		.loc 1 329 0
 944 01d7 E8000000 		call	atiny_get_log_level
 944      00
 945              	.LVL124:
 946 01dc 83F804   		cmpl	$4, %eax
 947 01df 0F879D01 		ja	.L65
 947      0000
 329:/home/baikal/workspace/C50/Huawei_IoT_Agent_Tiny_SDK_Linux//agent_tiny/lwm2m_client/agenttiny.c ****         return ATINY_MALLOC_FAILED;
 948              		.loc 1 329 0 is_stmt 0 discriminator 1
 949 01e5 E8000000 		call	atiny_gettime_ms
 949      00
 950              	.LVL125:
 951 01ea 4889C3   		movq	%rax, %rbx
 952              	.LVL126:
 953 01ed BF040000 		movl	$4, %edi
 953      00
 954 01f2 E8000000 		call	atiny_get_log_level_name
 954      00
 955              	.LVL127:
 956 01f7 41B84901 		movl	$329, %r8d
 956      0000
 957 01fd B9000000 		movl	$__FUNCTION__.5301, %ecx
 957      00
 958 0202 89DA     		movl	%ebx, %edx
 959 0204 4889C6   		movq	%rax, %rsi
 960 0207 BF000000 		movl	$.LC8, %edi
 960      00
 961 020c B8000000 		movl	$0, %eax
 961      00
 962 0211 E8000000 		call	atiny_printf
 962      00
 963              	.LVL128:
 330:/home/baikal/workspace/C50/Huawei_IoT_Agent_Tiny_SDK_Linux//agent_tiny/lwm2m_client/agenttiny.c ****     }
 964              		.loc 1 330 0 is_stmt 1 discriminator 1
 965 0216 B8FCFFFF 		movl	$-4, %eax
 965      FF
 966 021b E9830100 		jmp	.L55
 966      00
 967              	.LVL129:
 968              	.L59:
 333:/home/baikal/workspace/C50/Huawei_IoT_Agent_Tiny_SDK_Linux//agent_tiny/lwm2m_client/agenttiny.c ****     if (NULL == handle->obj_array[OBJ_DEVICE_INDEX])
 969              		.loc 1 333 0
 970 0220 498B7508 		movq	8(%r13), %rsi
 971 0224 4889EF   		movq	%rbp, %rdi
 972 0227 E8000000 		call	get_object_device
 972      00
 973              	.LVL130:
 974 022c 488983A0 		movq	%rax, 160(%rbx)
 974      000000
 334:/home/baikal/workspace/C50/Huawei_IoT_Agent_Tiny_SDK_Linux//agent_tiny/lwm2m_client/agenttiny.c ****     {
GAS LISTING /tmp/ccZJW6Kf.s 			page 39


 975              		.loc 1 334 0
 976 0233 4885C0   		testq	%rax, %rax
 977 0236 7549     		jne	.L60
 336:/home/baikal/workspace/C50/Huawei_IoT_Agent_Tiny_SDK_Linux//agent_tiny/lwm2m_client/agenttiny.c ****         return ATINY_MALLOC_FAILED;
 978              		.loc 1 336 0
 979 0238 E8000000 		call	atiny_get_log_level
 979      00
 980              	.LVL131:
 981 023d 83F804   		cmpl	$4, %eax
 982 0240 0F874301 		ja	.L66
 982      0000
 336:/home/baikal/workspace/C50/Huawei_IoT_Agent_Tiny_SDK_Linux//agent_tiny/lwm2m_client/agenttiny.c ****         return ATINY_MALLOC_FAILED;
 983              		.loc 1 336 0 is_stmt 0 discriminator 1
 984 0246 E8000000 		call	atiny_gettime_ms
 984      00
 985              	.LVL132:
 986 024b 4889C3   		movq	%rax, %rbx
 987              	.LVL133:
 988 024e BF040000 		movl	$4, %edi
 988      00
 989 0253 E8000000 		call	atiny_get_log_level_name
 989      00
 990              	.LVL134:
 991 0258 41B85001 		movl	$336, %r8d
 991      0000
 992 025e B9000000 		movl	$__FUNCTION__.5301, %ecx
 992      00
 993 0263 89DA     		movl	%ebx, %edx
 994 0265 4889C6   		movq	%rax, %rsi
 995 0268 BF000000 		movl	$.LC9, %edi
 995      00
 996 026d B8000000 		movl	$0, %eax
 996      00
 997 0272 E8000000 		call	atiny_printf
 997      00
 998              	.LVL135:
 337:/home/baikal/workspace/C50/Huawei_IoT_Agent_Tiny_SDK_Linux//agent_tiny/lwm2m_client/agenttiny.c ****     }
 999              		.loc 1 337 0 is_stmt 1 discriminator 1
 1000 0277 B8FCFFFF 		movl	$-4, %eax
 1000      FF
 1001 027c E9220100 		jmp	.L55
 1001      00
 1002              	.LVL136:
 1003              	.L60:
 340:/home/baikal/workspace/C50/Huawei_IoT_Agent_Tiny_SDK_Linux//agent_tiny/lwm2m_client/agenttiny.c **** #ifdef CONFIG_FEATURE_FOTA
 1004              		.loc 1 340 0
 1005 0281 4889EF   		movq	%rbp, %rdi
 1006 0284 E8000000 		call	get_object_firmware
 1006      00
 1007              	.LVL137:
 1008 0289 488983A8 		movq	%rax, 168(%rbx)
 1008      000000
 349:/home/baikal/workspace/C50/Huawei_IoT_Agent_Tiny_SDK_Linux//agent_tiny/lwm2m_client/agenttiny.c ****     if (NULL == handle->obj_array[OBJ_CONNECT_INDEX])
 1009              		.loc 1 349 0
 1010 0290 4889EF   		movq	%rbp, %rdi
 1011 0293 E8000000 		call	get_object_conn_m
 1011      00
GAS LISTING /tmp/ccZJW6Kf.s 			page 40


 1012              	.LVL138:
 1013 0298 488983B0 		movq	%rax, 176(%rbx)
 1013      000000
 350:/home/baikal/workspace/C50/Huawei_IoT_Agent_Tiny_SDK_Linux//agent_tiny/lwm2m_client/agenttiny.c ****     {
 1014              		.loc 1 350 0
 1015 029f 4885C0   		testq	%rax, %rax
 1016 02a2 7549     		jne	.L61
 352:/home/baikal/workspace/C50/Huawei_IoT_Agent_Tiny_SDK_Linux//agent_tiny/lwm2m_client/agenttiny.c ****         return ATINY_MALLOC_FAILED;
 1017              		.loc 1 352 0
 1018 02a4 E8000000 		call	atiny_get_log_level
 1018      00
 1019              	.LVL139:
 1020 02a9 83F804   		cmpl	$4, %eax
 1021 02ac 0F87DE00 		ja	.L67
 1021      0000
 352:/home/baikal/workspace/C50/Huawei_IoT_Agent_Tiny_SDK_Linux//agent_tiny/lwm2m_client/agenttiny.c ****         return ATINY_MALLOC_FAILED;
 1022              		.loc 1 352 0 is_stmt 0 discriminator 1
 1023 02b2 E8000000 		call	atiny_gettime_ms
 1023      00
 1024              	.LVL140:
 1025 02b7 4889C3   		movq	%rax, %rbx
 1026              	.LVL141:
 1027 02ba BF040000 		movl	$4, %edi
 1027      00
 1028 02bf E8000000 		call	atiny_get_log_level_name
 1028      00
 1029              	.LVL142:
 1030 02c4 41B86001 		movl	$352, %r8d
 1030      0000
 1031 02ca B9000000 		movl	$__FUNCTION__.5301, %ecx
 1031      00
 1032 02cf 89DA     		movl	%ebx, %edx
 1033 02d1 4889C6   		movq	%rax, %rsi
 1034 02d4 BF000000 		movl	$.LC10, %edi
 1034      00
 1035 02d9 B8000000 		movl	$0, %eax
 1035      00
 1036 02de E8000000 		call	atiny_printf
 1036      00
 1037              	.LVL143:
 353:/home/baikal/workspace/C50/Huawei_IoT_Agent_Tiny_SDK_Linux//agent_tiny/lwm2m_client/agenttiny.c ****     }
 1038              		.loc 1 353 0 is_stmt 1 discriminator 1
 1039 02e3 B8FCFFFF 		movl	$-4, %eax
 1039      FF
 1040 02e8 E9B60000 		jmp	.L55
 1040      00
 1041              	.LVL144:
 1042              	.L61:
 356:/home/baikal/workspace/C50/Huawei_IoT_Agent_Tiny_SDK_Linux//agent_tiny/lwm2m_client/agenttiny.c ****     if (NULL == handle->obj_array[OBJ_APP_INDEX])
 1043              		.loc 1 356 0
 1044 02ed 4889EF   		movq	%rbp, %rdi
 1045 02f0 E8000000 		call	get_binary_app_data_object
 1045      00
 1046              	.LVL145:
 1047 02f5 488983B8 		movq	%rax, 184(%rbx)
 1047      000000
 357:/home/baikal/workspace/C50/Huawei_IoT_Agent_Tiny_SDK_Linux//agent_tiny/lwm2m_client/agenttiny.c ****     {
GAS LISTING /tmp/ccZJW6Kf.s 			page 41


 1048              		.loc 1 357 0
 1049 02fc 4885C0   		testq	%rax, %rax
 1050 02ff 7546     		jne	.L62
 359:/home/baikal/workspace/C50/Huawei_IoT_Agent_Tiny_SDK_Linux//agent_tiny/lwm2m_client/agenttiny.c ****         return ATINY_MALLOC_FAILED;
 1051              		.loc 1 359 0
 1052 0301 E8000000 		call	atiny_get_log_level
 1052      00
 1053              	.LVL146:
 1054 0306 83F804   		cmpl	$4, %eax
 1055 0309 0F878800 		ja	.L68
 1055      0000
 359:/home/baikal/workspace/C50/Huawei_IoT_Agent_Tiny_SDK_Linux//agent_tiny/lwm2m_client/agenttiny.c ****         return ATINY_MALLOC_FAILED;
 1056              		.loc 1 359 0 is_stmt 0 discriminator 1
 1057 030f E8000000 		call	atiny_gettime_ms
 1057      00
 1058              	.LVL147:
 1059 0314 4889C3   		movq	%rax, %rbx
 1060              	.LVL148:
 1061 0317 BF040000 		movl	$4, %edi
 1061      00
 1062 031c E8000000 		call	atiny_get_log_level_name
 1062      00
 1063              	.LVL149:
 1064 0321 41B86701 		movl	$359, %r8d
 1064      0000
 1065 0327 B9000000 		movl	$__FUNCTION__.5301, %ecx
 1065      00
 1066 032c 89DA     		movl	%ebx, %edx
 1067 032e 4889C6   		movq	%rax, %rsi
 1068 0331 BF000000 		movl	$.LC11, %edi
 1068      00
 1069 0336 B8000000 		movl	$0, %eax
 1069      00
 1070 033b E8000000 		call	atiny_printf
 1070      00
 1071              	.LVL150:
 360:/home/baikal/workspace/C50/Huawei_IoT_Agent_Tiny_SDK_Linux//agent_tiny/lwm2m_client/agenttiny.c ****     }
 1072              		.loc 1 360 0 is_stmt 1 discriminator 1
 1073 0340 B8FCFFFF 		movl	$-4, %eax
 1073      FF
 1074 0345 EB5C     		jmp	.L55
 1075              	.LVL151:
 1076              	.L62:
 363:/home/baikal/workspace/C50/Huawei_IoT_Agent_Tiny_SDK_Linux//agent_tiny/lwm2m_client/agenttiny.c ****     if (result != 0)
 1077              		.loc 1 363 0
 1078 0347 4C8D8B90 		leaq	144(%rbx), %r9
 1078      000000
 1079 034e 41B80600 		movl	$6, %r8d
 1079      0000
 1080 0354 B9000000 		movl	$0, %ecx
 1080      00
 1081 0359 BA000000 		movl	$0, %edx
 1081      00
 1082 035e 4C89F6   		movq	%r14, %rsi
 1083 0361 4C89E7   		movq	%r12, %rdi
 1084 0364 E8000000 		call	lwm2m_configure
 1084      00
GAS LISTING /tmp/ccZJW6Kf.s 			page 42


 1085              	.LVL152:
 364:/home/baikal/workspace/C50/Huawei_IoT_Agent_Tiny_SDK_Linux//agent_tiny/lwm2m_client/agenttiny.c ****     {
 1086              		.loc 1 364 0
 1087 0369 85C0     		testl	%eax, %eax
 1088 036b 7431     		je	.L69
 366:/home/baikal/workspace/C50/Huawei_IoT_Agent_Tiny_SDK_Linux//agent_tiny/lwm2m_client/agenttiny.c ****     }
 1089              		.loc 1 366 0
 1090 036d B8FBFFFF 		movl	$-5, %eax
 1090      FF
 1091              	.LVL153:
 1092 0372 EB2F     		jmp	.L55
 1093              	.L63:
 299:/home/baikal/workspace/C50/Huawei_IoT_Agent_Tiny_SDK_Linux//agent_tiny/lwm2m_client/agenttiny.c ****     }
 1094              		.loc 1 299 0
 1095 0374 B8FCFFFF 		movl	$-4, %eax
 1095      FF
 1096 0379 EB28     		jmp	.L55
 1097              	.L64:
 321:/home/baikal/workspace/C50/Huawei_IoT_Agent_Tiny_SDK_Linux//agent_tiny/lwm2m_client/agenttiny.c ****     }
 1098              		.loc 1 321 0
 1099 037b B8FCFFFF 		movl	$-4, %eax
 1099      FF
 1100 0380 EB21     		jmp	.L55
 1101              	.L65:
 330:/home/baikal/workspace/C50/Huawei_IoT_Agent_Tiny_SDK_Linux//agent_tiny/lwm2m_client/agenttiny.c ****     }
 1102              		.loc 1 330 0
 1103 0382 B8FCFFFF 		movl	$-4, %eax
 1103      FF
 1104 0387 EB1A     		jmp	.L55
 1105              	.L66:
 337:/home/baikal/workspace/C50/Huawei_IoT_Agent_Tiny_SDK_Linux//agent_tiny/lwm2m_client/agenttiny.c ****     }
 1106              		.loc 1 337 0
 1107 0389 B8FCFFFF 		movl	$-4, %eax
 1107      FF
 1108 038e EB13     		jmp	.L55
 1109              	.L67:
 353:/home/baikal/workspace/C50/Huawei_IoT_Agent_Tiny_SDK_Linux//agent_tiny/lwm2m_client/agenttiny.c ****     }
 1110              		.loc 1 353 0
 1111 0390 B8FCFFFF 		movl	$-4, %eax
 1111      FF
 1112 0395 EB0C     		jmp	.L55
 1113              	.L68:
 360:/home/baikal/workspace/C50/Huawei_IoT_Agent_Tiny_SDK_Linux//agent_tiny/lwm2m_client/agenttiny.c ****     }
 1114              		.loc 1 360 0
 1115 0397 B8FCFFFF 		movl	$-4, %eax
 1115      FF
 1116 039c EB05     		jmp	.L55
 1117              	.LVL154:
 1118              	.L69:
 369:/home/baikal/workspace/C50/Huawei_IoT_Agent_Tiny_SDK_Linux//agent_tiny/lwm2m_client/agenttiny.c **** }
 1119              		.loc 1 369 0
 1120 039e B8000000 		movl	$0, %eax
 1120      00
 1121              	.LVL155:
 1122              	.L55:
 370:/home/baikal/workspace/C50/Huawei_IoT_Agent_Tiny_SDK_Linux//agent_tiny/lwm2m_client/agenttiny.c **** 
 1123              		.loc 1 370 0
GAS LISTING /tmp/ccZJW6Kf.s 			page 43


 1124 03a3 4883C408 		addq	$8, %rsp
 1125              	.LCFI31:
 1126              		.cfi_def_cfa_offset 56
 1127 03a7 5B       		popq	%rbx
 1128              	.LCFI32:
 1129              		.cfi_def_cfa_offset 48
 1130 03a8 5D       		popq	%rbp
 1131              	.LCFI33:
 1132              		.cfi_def_cfa_offset 40
 1133              	.LVL156:
 1134 03a9 415C     		popq	%r12
 1135              	.LCFI34:
 1136              		.cfi_def_cfa_offset 32
 1137              	.LVL157:
 1138 03ab 415D     		popq	%r13
 1139              	.LCFI35:
 1140              		.cfi_def_cfa_offset 24
 1141              	.LVL158:
 1142 03ad 415E     		popq	%r14
 1143              	.LCFI36:
 1144              		.cfi_def_cfa_offset 16
 1145              	.LVL159:
 1146 03af 415F     		popq	%r15
 1147              	.LCFI37:
 1148              		.cfi_def_cfa_offset 8
 1149 03b1 C3       		ret
 1150              		.cfi_endproc
 1151              	.LFE77:
 1153              		.section	.text.atiny_destroy,"ax",@progbits
 1154              		.globl	atiny_destroy
 1156              	atiny_destroy:
 1157              	.LFB79:
 402:/home/baikal/workspace/C50/Huawei_IoT_Agent_Tiny_SDK_Linux//agent_tiny/lwm2m_client/agenttiny.c ****     handle_data_t *handle_data = (handle_data_t *)handle;
 1158              		.loc 1 402 0
 1159              		.cfi_startproc
 1160              	.LVL160:
 405:/home/baikal/workspace/C50/Huawei_IoT_Agent_Tiny_SDK_Linux//agent_tiny/lwm2m_client/agenttiny.c ****     {
 1161              		.loc 1 405 0
 1162 0000 4885FF   		testq	%rdi, %rdi
 1163 0003 0F84AB00 		je	.L84
 1163      0000
 402:/home/baikal/workspace/C50/Huawei_IoT_Agent_Tiny_SDK_Linux//agent_tiny/lwm2m_client/agenttiny.c ****     handle_data_t *handle_data = (handle_data_t *)handle;
 1164              		.loc 1 402 0
 1165 0009 53       		pushq	%rbx
 1166              	.LCFI38:
 1167              		.cfi_def_cfa_offset 16
 1168              		.cfi_offset 3, -16
 1169 000a 4889FB   		movq	%rdi, %rbx
 412:/home/baikal/workspace/C50/Huawei_IoT_Agent_Tiny_SDK_Linux//agent_tiny/lwm2m_client/agenttiny.c ****     {
 1170              		.loc 1 412 0
 1171 000d 488BBFD8 		movq	216(%rdi), %rdi
 1171      000000
 1172              	.LVL161:
 1173 0014 4885FF   		testq	%rdi, %rdi
 1174 0017 7405     		je	.L73
 414:/home/baikal/workspace/C50/Huawei_IoT_Agent_Tiny_SDK_Linux//agent_tiny/lwm2m_client/agenttiny.c ****     }
 1175              		.loc 1 414 0
GAS LISTING /tmp/ccZJW6Kf.s 			page 44


 1176 0019 E8000000 		call	lwm2m_free
 1176      00
 1177              	.LVL162:
 1178              	.L73:
 416:/home/baikal/workspace/C50/Huawei_IoT_Agent_Tiny_SDK_Linux//agent_tiny/lwm2m_client/agenttiny.c ****     {
 1179              		.loc 1 416 0
 1180 001e 488BBB90 		movq	144(%rbx), %rdi
 1180      000000
 1181 0025 4885FF   		testq	%rdi, %rdi
 1182 0028 7405     		je	.L74
 418:/home/baikal/workspace/C50/Huawei_IoT_Agent_Tiny_SDK_Linux//agent_tiny/lwm2m_client/agenttiny.c ****     }
 1183              		.loc 1 418 0
 1184 002a E8000000 		call	clean_security_object
 1184      00
 1185              	.LVL163:
 1186              	.L74:
 421:/home/baikal/workspace/C50/Huawei_IoT_Agent_Tiny_SDK_Linux//agent_tiny/lwm2m_client/agenttiny.c ****     {
 1187              		.loc 1 421 0
 1188 002f 488BBB98 		movq	152(%rbx), %rdi
 1188      000000
 1189 0036 4885FF   		testq	%rdi, %rdi
 1190 0039 7405     		je	.L75
 423:/home/baikal/workspace/C50/Huawei_IoT_Agent_Tiny_SDK_Linux//agent_tiny/lwm2m_client/agenttiny.c ****     }
 1191              		.loc 1 423 0
 1192 003b E8000000 		call	clean_server_object
 1192      00
 1193              	.LVL164:
 1194              	.L75:
 426:/home/baikal/workspace/C50/Huawei_IoT_Agent_Tiny_SDK_Linux//agent_tiny/lwm2m_client/agenttiny.c ****     {
 1195              		.loc 1 426 0
 1196 0040 488BBBA0 		movq	160(%rbx), %rdi
 1196      000000
 1197 0047 4885FF   		testq	%rdi, %rdi
 1198 004a 7405     		je	.L76
 428:/home/baikal/workspace/C50/Huawei_IoT_Agent_Tiny_SDK_Linux//agent_tiny/lwm2m_client/agenttiny.c ****     }
 1199              		.loc 1 428 0
 1200 004c E8000000 		call	free_object_device
 1200      00
 1201              	.LVL165:
 1202              	.L76:
 431:/home/baikal/workspace/C50/Huawei_IoT_Agent_Tiny_SDK_Linux//agent_tiny/lwm2m_client/agenttiny.c ****     {
 1203              		.loc 1 431 0
 1204 0051 488BBBA8 		movq	168(%rbx), %rdi
 1204      000000
 1205 0058 4885FF   		testq	%rdi, %rdi
 1206 005b 7405     		je	.L77
 433:/home/baikal/workspace/C50/Huawei_IoT_Agent_Tiny_SDK_Linux//agent_tiny/lwm2m_client/agenttiny.c ****     }
 1207              		.loc 1 433 0
 1208 005d E8000000 		call	free_object_firmware
 1208      00
 1209              	.LVL166:
 1210              	.L77:
 436:/home/baikal/workspace/C50/Huawei_IoT_Agent_Tiny_SDK_Linux//agent_tiny/lwm2m_client/agenttiny.c ****     {
 1211              		.loc 1 436 0
 1212 0062 488BBBB0 		movq	176(%rbx), %rdi
 1212      000000
 1213 0069 4885FF   		testq	%rdi, %rdi
GAS LISTING /tmp/ccZJW6Kf.s 			page 45


 1214 006c 7405     		je	.L78
 438:/home/baikal/workspace/C50/Huawei_IoT_Agent_Tiny_SDK_Linux//agent_tiny/lwm2m_client/agenttiny.c ****     }
 1215              		.loc 1 438 0
 1216 006e E8000000 		call	free_object_conn_m
 1216      00
 1217              	.LVL167:
 1218              	.L78:
 441:/home/baikal/workspace/C50/Huawei_IoT_Agent_Tiny_SDK_Linux//agent_tiny/lwm2m_client/agenttiny.c ****     {
 1219              		.loc 1 441 0
 1220 0073 488BBBB8 		movq	184(%rbx), %rdi
 1220      000000
 1221 007a 4885FF   		testq	%rdi, %rdi
 1222 007d 7405     		je	.L79
 443:/home/baikal/workspace/C50/Huawei_IoT_Agent_Tiny_SDK_Linux//agent_tiny/lwm2m_client/agenttiny.c ****     }
 1223              		.loc 1 443 0
 1224 007f E8000000 		call	free_binary_app_data_object
 1224      00
 1225              	.LVL168:
 1226              	.L79:
 445:/home/baikal/workspace/C50/Huawei_IoT_Agent_Tiny_SDK_Linux//agent_tiny/lwm2m_client/agenttiny.c **** 
 1227              		.loc 1 445 0
 1228 0084 E8000000 		call	atiny_destroy_rpt
 1228      00
 1229              	.LVL169:
 447:/home/baikal/workspace/C50/Huawei_IoT_Agent_Tiny_SDK_Linux//agent_tiny/lwm2m_client/agenttiny.c ****     {
 1230              		.loc 1 447 0
 1231 0089 488B03   		movq	(%rbx), %rax
 1232 008c 4885C0   		testq	%rax, %rax
 1233 008f 7416     		je	.L80
 449:/home/baikal/workspace/C50/Huawei_IoT_Agent_Tiny_SDK_Linux//agent_tiny/lwm2m_client/agenttiny.c ****         {
 1234              		.loc 1 449 0
 1235 0091 488B7848 		movq	72(%rax), %rdi
 1236 0095 4885FF   		testq	%rdi, %rdi
 1237 0098 7405     		je	.L81
 451:/home/baikal/workspace/C50/Huawei_IoT_Agent_Tiny_SDK_Linux//agent_tiny/lwm2m_client/agenttiny.c ****         }
 1238              		.loc 1 451 0
 1239 009a E8000000 		call	atiny_mutex_destroy
 1239      00
 1240              	.LVL170:
 1241              	.L81:
 453:/home/baikal/workspace/C50/Huawei_IoT_Agent_Tiny_SDK_Linux//agent_tiny/lwm2m_client/agenttiny.c ****     }
 1242              		.loc 1 453 0
 1243 009f 488B3B   		movq	(%rbx), %rdi
 1244 00a2 E8000000 		call	lwm2m_close
 1244      00
 1245              	.LVL171:
 1246              	.L80:
 455:/home/baikal/workspace/C50/Huawei_IoT_Agent_Tiny_SDK_Linux//agent_tiny/lwm2m_client/agenttiny.c **** }
 1247              		.loc 1 455 0
 1248 00a7 488BBBC8 		movq	200(%rbx), %rdi
 1248      000000
 1249 00ae E8000000 		call	atiny_mutex_unlock
 1249      00
 1250              	.LVL172:
 456:/home/baikal/workspace/C50/Huawei_IoT_Agent_Tiny_SDK_Linux//agent_tiny/lwm2m_client/agenttiny.c **** 
 1251              		.loc 1 456 0
 1252 00b3 5B       		popq	%rbx
GAS LISTING /tmp/ccZJW6Kf.s 			page 46


 1253              	.LCFI39:
 1254              		.cfi_restore 3
 1255              		.cfi_def_cfa_offset 8
 1256              	.LVL173:
 1257              	.L84:
 1258 00b4 F3C3     		rep ret
 1259              		.cfi_endproc
 1260              	.LFE79:
 1262              		.section	.text.reboot_check,"ax",@progbits
 1263              		.globl	reboot_check
 1265              	reboot_check:
 1266              	.LFB81:
 518:/home/baikal/workspace/C50/Huawei_IoT_Agent_Tiny_SDK_Linux//agent_tiny/lwm2m_client/agenttiny.c ****     if(g_reboot == 1)
 1267              		.loc 1 518 0
 1268              		.cfi_startproc
 519:/home/baikal/workspace/C50/Huawei_IoT_Agent_Tiny_SDK_Linux//agent_tiny/lwm2m_client/agenttiny.c ****     {
 1269              		.loc 1 519 0
 1270 0000 833D0000 		cmpl	$1, g_reboot(%rip)
 1270      000001
 1271 0007 751C     		jne	.L89
 518:/home/baikal/workspace/C50/Huawei_IoT_Agent_Tiny_SDK_Linux//agent_tiny/lwm2m_client/agenttiny.c ****     if(g_reboot == 1)
 1272              		.loc 1 518 0
 1273 0009 4883EC08 		subq	$8, %rsp
 1274              	.LCFI40:
 1275              		.cfi_def_cfa_offset 16
 521:/home/baikal/workspace/C50/Huawei_IoT_Agent_Tiny_SDK_Linux//agent_tiny/lwm2m_client/agenttiny.c ****     }
 1276              		.loc 1 521 0
 1277 000d BA000000 		movl	$0, %edx
 1277      00
 1278 0012 BE000000 		movl	$0, %esi
 1278      00
 1279 0017 BF040000 		movl	$4, %edi
 1279      00
 1280 001c E8000000 		call	atiny_cmd_ioctl
 1280      00
 1281              	.LVL174:
 523:/home/baikal/workspace/C50/Huawei_IoT_Agent_Tiny_SDK_Linux//agent_tiny/lwm2m_client/agenttiny.c **** 
 1282              		.loc 1 523 0
 1283 0021 4883C408 		addq	$8, %rsp
 1284              	.LCFI41:
 1285              		.cfi_def_cfa_offset 8
 1286              	.L89:
 1287 0025 F3C3     		rep ret
 1288              		.cfi_endproc
 1289              	.LFE81:
 1291              		.section	.rodata.str1.8
 1292 0236 0000     		.align 8
 1293              	.LC12:
 1294 0238 5B25735D 		.string	"[%s][%u][%s:%d] Parameter null\r\n"
 1294      5B25755D 
 1294      5B25733A 
 1294      25645D20 
 1294      50617261 
 1295 0259 00000000 		.align 8
 1295      000000
 1296              	.LC13:
 1297 0260 5B25735D 		.string	"[%s][%u][%s:%d] Endpoint name null\r\n"
GAS LISTING /tmp/ccZJW6Kf.s 			page 47


 1297      5B25755D 
 1297      5B25733A 
 1297      25645D20 
 1297      456E6470 
 1298 0285 000000   		.align 8
 1299              	.LC14:
 1300 0288 5B25735D 		.string	"[%s][%u][%s:%d] Manufacturer name null\r\n"
 1300      5B25755D 
 1300      5B25733A 
 1300      25645D20 
 1300      4D616E75 
 1301 02b1 00000000 		.align 8
 1301      000000
 1302              	.LC15:
 1303 02b8 5B25735D 		.string	"[%s][%u][%s:%d] atiny_init_object fail %d\r\n"
 1303      5B25755D 
 1303      5B25733A 
 1303      25645D20 
 1303      6174696E 
 1304 02e4 00000000 		.align 8
 1305              	.LC16:
 1306 02e8 5B25735D 		.string	"[%s][%u][%s:%d] memory not enough\r\n"
 1306      5B25755D 
 1306      5B25733A 
 1306      25645D20 
 1306      6D656D6F 
 1307 030c 00000000 		.align 8
 1308              	.LC17:
 1309 0310 5B25735D 		.string	"[%s][%u][%s:%d] non security device, endpoint_name is %s\n\r\n"
 1309      5B25755D 
 1309      5B25733A 
 1309      25645D20 
 1309      6E6F6E20 
 1310              		.section	.text.atiny_bind,"ax",@progbits
 1311              		.globl	atiny_bind
 1313              	atiny_bind:
 1314              	.LFB84:
 555:/home/baikal/workspace/C50/Huawei_IoT_Agent_Tiny_SDK_Linux//agent_tiny/lwm2m_client/agenttiny.c ****     handle_data_t *handle = (handle_data_t *)phandle;
 1315              		.loc 1 555 0
 1316              		.cfi_startproc
 1317              	.LVL175:
 1318 0000 4154     		pushq	%r12
 1319              	.LCFI42:
 1320              		.cfi_def_cfa_offset 16
 1321              		.cfi_offset 12, -16
 1322 0002 55       		pushq	%rbp
 1323              	.LCFI43:
 1324              		.cfi_def_cfa_offset 24
 1325              		.cfi_offset 6, -24
 1326 0003 53       		pushq	%rbx
 1327              	.LCFI44:
 1328              		.cfi_def_cfa_offset 32
 1329              		.cfi_offset 3, -32
 1330 0004 4883EC10 		subq	$16, %rsp
 1331              	.LCFI45:
 1332              		.cfi_def_cfa_offset 48
 1333              	.LVL176:
GAS LISTING /tmp/ccZJW6Kf.s 			page 48


 560:/home/baikal/workspace/C50/Huawei_IoT_Agent_Tiny_SDK_Linux//agent_tiny/lwm2m_client/agenttiny.c ****     {
 1334              		.loc 1 560 0
 1335 0008 4885FF   		testq	%rdi, %rdi
 1336 000b 0F94C2   		sete	%dl
 1337 000e 4885F6   		testq	%rsi, %rsi
 1338 0011 0F94C0   		sete	%al
 1339 0014 08C2     		orb	%al, %dl
 1340 0016 7449     		je	.L91
 562:/home/baikal/workspace/C50/Huawei_IoT_Agent_Tiny_SDK_Linux//agent_tiny/lwm2m_client/agenttiny.c ****         return ATINY_ARG_INVALID;
 1341              		.loc 1 562 0
 1342 0018 E8000000 		call	atiny_get_log_level
 1342      00
 1343              	.LVL177:
 1344 001d 83F804   		cmpl	$4, %eax
 1345 0020 0F875402 		ja	.L101
 1345      0000
 562:/home/baikal/workspace/C50/Huawei_IoT_Agent_Tiny_SDK_Linux//agent_tiny/lwm2m_client/agenttiny.c ****         return ATINY_ARG_INVALID;
 1346              		.loc 1 562 0 is_stmt 0 discriminator 1
 1347 0026 E8000000 		call	atiny_gettime_ms
 1347      00
 1348              	.LVL178:
 1349 002b 4889C3   		movq	%rax, %rbx
 1350 002e BF040000 		movl	$4, %edi
 1350      00
 1351 0033 E8000000 		call	atiny_get_log_level_name
 1351      00
 1352              	.LVL179:
 1353 0038 41B83202 		movl	$562, %r8d
 1353      0000
 1354 003e B9000000 		movl	$__FUNCTION__.5353, %ecx
 1354      00
 1355 0043 89DA     		movl	%ebx, %edx
 1356 0045 4889C6   		movq	%rax, %rsi
 1357 0048 BF000000 		movl	$.LC12, %edi
 1357      00
 1358 004d B8000000 		movl	$0, %eax
 1358      00
 1359 0052 E8000000 		call	atiny_printf
 1359      00
 1360              	.LVL180:
 563:/home/baikal/workspace/C50/Huawei_IoT_Agent_Tiny_SDK_Linux//agent_tiny/lwm2m_client/agenttiny.c ****     }
 1361              		.loc 1 563 0 is_stmt 1 discriminator 1
 1362 0057 B8FFFFFF 		movl	$-1, %eax
 1362      FF
 1363 005c E9330200 		jmp	.L92
 1363      00
 1364              	.LVL181:
 1365              	.L91:
 1366 0061 4889FD   		movq	%rdi, %rbp
 1367 0064 4889F3   		movq	%rsi, %rbx
 566:/home/baikal/workspace/C50/Huawei_IoT_Agent_Tiny_SDK_Linux//agent_tiny/lwm2m_client/agenttiny.c ****     {
 1368              		.loc 1 566 0
 1369 0067 48833F00 		cmpq	$0, (%rdi)
 1370 006b 7549     		jne	.L93
 1371              	.LVL182:
 568:/home/baikal/workspace/C50/Huawei_IoT_Agent_Tiny_SDK_Linux//agent_tiny/lwm2m_client/agenttiny.c ****         return ATINY_ARG_INVALID;
 1372              		.loc 1 568 0
GAS LISTING /tmp/ccZJW6Kf.s 			page 49


 1373 006d E8000000 		call	atiny_get_log_level
 1373      00
 1374              	.LVL183:
 1375 0072 83F804   		cmpl	$4, %eax
 1376 0075 0F870602 		ja	.L102
 1376      0000
 568:/home/baikal/workspace/C50/Huawei_IoT_Agent_Tiny_SDK_Linux//agent_tiny/lwm2m_client/agenttiny.c ****         return ATINY_ARG_INVALID;
 1377              		.loc 1 568 0 is_stmt 0 discriminator 1
 1378 007b E8000000 		call	atiny_gettime_ms
 1378      00
 1379              	.LVL184:
 1380 0080 4889C3   		movq	%rax, %rbx
 1381              	.LVL185:
 1382 0083 BF040000 		movl	$4, %edi
 1382      00
 1383 0088 E8000000 		call	atiny_get_log_level_name
 1383      00
 1384              	.LVL186:
 1385 008d 41B83802 		movl	$568, %r8d
 1385      0000
 1386 0093 B9000000 		movl	$__FUNCTION__.5353, %ecx
 1386      00
 1387 0098 89DA     		movl	%ebx, %edx
 1388 009a 4889C6   		movq	%rax, %rsi
 1389 009d BF000000 		movl	$.LC13, %edi
 1389      00
 1390 00a2 B8000000 		movl	$0, %eax
 1390      00
 1391 00a7 E8000000 		call	atiny_printf
 1391      00
 1392              	.LVL187:
 569:/home/baikal/workspace/C50/Huawei_IoT_Agent_Tiny_SDK_Linux//agent_tiny/lwm2m_client/agenttiny.c ****     }
 1393              		.loc 1 569 0 is_stmt 1 discriminator 1
 1394 00ac B8FFFFFF 		movl	$-1, %eax
 1394      FF
 1395 00b1 E9DE0100 		jmp	.L92
 1395      00
 1396              	.LVL188:
 1397              	.L93:
 572:/home/baikal/workspace/C50/Huawei_IoT_Agent_Tiny_SDK_Linux//agent_tiny/lwm2m_client/agenttiny.c ****     {
 1398              		.loc 1 572 0
 1399 00b6 48837F08 		cmpq	$0, 8(%rdi)
 1399      00
 1400 00bb 7549     		jne	.L94
 574:/home/baikal/workspace/C50/Huawei_IoT_Agent_Tiny_SDK_Linux//agent_tiny/lwm2m_client/agenttiny.c ****         return ATINY_ARG_INVALID;
 1401              		.loc 1 574 0
 1402 00bd E8000000 		call	atiny_get_log_level
 1402      00
 1403              	.LVL189:
 1404 00c2 83F804   		cmpl	$4, %eax
 1405 00c5 0F87BD01 		ja	.L103
 1405      0000
 574:/home/baikal/workspace/C50/Huawei_IoT_Agent_Tiny_SDK_Linux//agent_tiny/lwm2m_client/agenttiny.c ****         return ATINY_ARG_INVALID;
 1406              		.loc 1 574 0 is_stmt 0 discriminator 1
 1407 00cb E8000000 		call	atiny_gettime_ms
 1407      00
 1408              	.LVL190:
GAS LISTING /tmp/ccZJW6Kf.s 			page 50


 1409 00d0 4889C3   		movq	%rax, %rbx
 1410              	.LVL191:
 1411 00d3 BF040000 		movl	$4, %edi
 1411      00
 1412 00d8 E8000000 		call	atiny_get_log_level_name
 1412      00
 1413              	.LVL192:
 1414 00dd 41B83E02 		movl	$574, %r8d
 1414      0000
 1415 00e3 B9000000 		movl	$__FUNCTION__.5353, %ecx
 1415      00
 1416 00e8 89DA     		movl	%ebx, %edx
 1417 00ea 4889C6   		movq	%rax, %rsi
 1418 00ed BF000000 		movl	$.LC14, %edi
 1418      00
 1419 00f2 B8000000 		movl	$0, %eax
 1419      00
 1420 00f7 E8000000 		call	atiny_printf
 1420      00
 1421              	.LVL193:
 575:/home/baikal/workspace/C50/Huawei_IoT_Agent_Tiny_SDK_Linux//agent_tiny/lwm2m_client/agenttiny.c ****     }
 1422              		.loc 1 575 0 is_stmt 1 discriminator 1
 1423 00fc B8FFFFFF 		movl	$-1, %eax
 1423      FF
 1424 0101 E98E0100 		jmp	.L92
 1424      00
 1425              	.LVL194:
 1426              	.L94:
 578:/home/baikal/workspace/C50/Huawei_IoT_Agent_Tiny_SDK_Linux//agent_tiny/lwm2m_client/agenttiny.c ****     if (ret != ATINY_OK)
 1427              		.loc 1 578 0
 1428 0106 488D7E08 		leaq	8(%rsi), %rdi
 1429              	.LVL195:
 1430 010a 4889F2   		movq	%rsi, %rdx
 1431 010d 4889EE   		movq	%rbp, %rsi
 1432 0110 E8000000 		call	atiny_init_objects
 1432      00
 1433              	.LVL196:
 1434 0115 4189C4   		movl	%eax, %r12d
 1435              	.LVL197:
 579:/home/baikal/workspace/C50/Huawei_IoT_Agent_Tiny_SDK_Linux//agent_tiny/lwm2m_client/agenttiny.c ****     {
 1436              		.loc 1 579 0
 1437 0118 85C0     		testl	%eax, %eax
 1438 011a 744E     		je	.L95
 581:/home/baikal/workspace/C50/Huawei_IoT_Agent_Tiny_SDK_Linux//agent_tiny/lwm2m_client/agenttiny.c ****         atiny_destroy(handle);
 1439              		.loc 1 581 0
 1440 011c E8000000 		call	atiny_get_log_level
 1440      00
 1441              	.LVL198:
 1442 0121 83F804   		cmpl	$4, %eax
 1443 0124 7734     		ja	.L96
 581:/home/baikal/workspace/C50/Huawei_IoT_Agent_Tiny_SDK_Linux//agent_tiny/lwm2m_client/agenttiny.c ****         atiny_destroy(handle);
 1444              		.loc 1 581 0 is_stmt 0 discriminator 1
 1445 0126 E8000000 		call	atiny_gettime_ms
 1445      00
 1446              	.LVL199:
 1447 012b 4889C5   		movq	%rax, %rbp
 1448              	.LVL200:
GAS LISTING /tmp/ccZJW6Kf.s 			page 51


 1449 012e BF040000 		movl	$4, %edi
 1449      00
 1450 0133 E8000000 		call	atiny_get_log_level_name
 1450      00
 1451              	.LVL201:
 1452 0138 4589E1   		movl	%r12d, %r9d
 1453 013b 41B84502 		movl	$581, %r8d
 1453      0000
 1454 0141 B9000000 		movl	$__FUNCTION__.5353, %ecx
 1454      00
 1455 0146 89EA     		movl	%ebp, %edx
 1456 0148 4889C6   		movq	%rax, %rsi
 1457 014b BF000000 		movl	$.LC15, %edi
 1457      00
 1458 0150 B8000000 		movl	$0, %eax
 1458      00
 1459 0155 E8000000 		call	atiny_printf
 1459      00
 1460              	.LVL202:
 1461              	.L96:
 582:/home/baikal/workspace/C50/Huawei_IoT_Agent_Tiny_SDK_Linux//agent_tiny/lwm2m_client/agenttiny.c ****         return ret;
 1462              		.loc 1 582 0 is_stmt 1
 1463 015a 4889DF   		movq	%rbx, %rdi
 1464 015d E8000000 		call	atiny_destroy
 1464      00
 1465              	.LVL203:
 583:/home/baikal/workspace/C50/Huawei_IoT_Agent_Tiny_SDK_Linux//agent_tiny/lwm2m_client/agenttiny.c ****     }
 1466              		.loc 1 583 0
 1467 0162 4489E0   		movl	%r12d, %eax
 1468 0165 E92A0100 		jmp	.L92
 1468      00
 1469              	.LVL204:
 1470              	.L95:
 588:/home/baikal/workspace/C50/Huawei_IoT_Agent_Tiny_SDK_Linux//agent_tiny/lwm2m_client/agenttiny.c ****     lwm2m_register_event_handler(atiny_event_handle);
 1471              		.loc 1 588 0
 1472 016a BF000000 		movl	$observe_handle_ack, %edi
 1472      00
 1473 016f E8000000 		call	lwm2m_register_observe_ack_call_back
 1473      00
 1474              	.LVL205:
 589:/home/baikal/workspace/C50/Huawei_IoT_Agent_Tiny_SDK_Linux//agent_tiny/lwm2m_client/agenttiny.c ****     lwm2m_register_connection_err_notify(atiny_connection_err_notify);
 1475              		.loc 1 589 0
 1476 0174 BF000000 		movl	$atiny_event_handle, %edi
 1476      00
 1477 0179 E8000000 		call	lwm2m_register_event_handler
 1477      00
 1478              	.LVL206:
 590:/home/baikal/workspace/C50/Huawei_IoT_Agent_Tiny_SDK_Linux//agent_tiny/lwm2m_client/agenttiny.c **** 
 1479              		.loc 1 590 0
 1480 017e BF000000 		movl	$atiny_connection_err_notify, %edi
 1480      00
 1481 0183 E8000000 		call	lwm2m_register_connection_err_notify
 1481      00
 1482              	.LVL207:
 592:/home/baikal/workspace/C50/Huawei_IoT_Agent_Tiny_SDK_Linux//agent_tiny/lwm2m_client/agenttiny.c ****     if(handle->recv_buffer == NULL)
 1483              		.loc 1 592 0
 1484 0188 BF000400 		movl	$1024, %edi
GAS LISTING /tmp/ccZJW6Kf.s 			page 52


 1484      00
 1485 018d E8000000 		call	lwm2m_malloc
 1485      00
 1486              	.LVL208:
 1487 0192 488983D8 		movq	%rax, 216(%rbx)
 1487      000000
 593:/home/baikal/workspace/C50/Huawei_IoT_Agent_Tiny_SDK_Linux//agent_tiny/lwm2m_client/agenttiny.c ****     {
 1488              		.loc 1 593 0
 1489 0199 4885C0   		testq	%rax, %rax
 1490 019c 7549     		jne	.L97
 595:/home/baikal/workspace/C50/Huawei_IoT_Agent_Tiny_SDK_Linux//agent_tiny/lwm2m_client/agenttiny.c ****         return ATINY_MALLOC_FAILED;
 1491              		.loc 1 595 0
 1492 019e E8000000 		call	atiny_get_log_level
 1492      00
 1493              	.LVL209:
 1494 01a3 83F804   		cmpl	$4, %eax
 1495 01a6 0F87E300 		ja	.L104
 1495      0000
 595:/home/baikal/workspace/C50/Huawei_IoT_Agent_Tiny_SDK_Linux//agent_tiny/lwm2m_client/agenttiny.c ****         return ATINY_MALLOC_FAILED;
 1496              		.loc 1 595 0 is_stmt 0 discriminator 1
 1497 01ac E8000000 		call	atiny_gettime_ms
 1497      00
 1498              	.LVL210:
 1499 01b1 4889C3   		movq	%rax, %rbx
 1500              	.LVL211:
 1501 01b4 BF040000 		movl	$4, %edi
 1501      00
 1502 01b9 E8000000 		call	atiny_get_log_level_name
 1502      00
 1503              	.LVL212:
 1504 01be 41B85302 		movl	$595, %r8d
 1504      0000
 1505 01c4 B9000000 		movl	$__FUNCTION__.5353, %ecx
 1505      00
 1506 01c9 89DA     		movl	%ebx, %edx
 1507 01cb 4889C6   		movq	%rax, %rsi
 1508 01ce BF000000 		movl	$.LC16, %edi
 1508      00
 1509 01d3 B8000000 		movl	$0, %eax
 1509      00
 1510 01d8 E8000000 		call	atiny_printf
 1510      00
 1511              	.LVL213:
 596:/home/baikal/workspace/C50/Huawei_IoT_Agent_Tiny_SDK_Linux//agent_tiny/lwm2m_client/agenttiny.c ****     }
 1512              		.loc 1 596 0 is_stmt 1 discriminator 1
 1513 01dd B8FCFFFF 		movl	$-4, %eax
 1513      FF
 1514 01e2 E9AD0000 		jmp	.L92
 1514      00
 1515              	.LVL214:
 1516              	.L97:
 601:/home/baikal/workspace/C50/Huawei_IoT_Agent_Tiny_SDK_Linux//agent_tiny/lwm2m_client/agenttiny.c **** #endif
 1517              		.loc 1 601 0
 1518 01e7 E8000000 		call	atiny_get_log_level
 1518      00
 1519              	.LVL215:
 1520 01ec 83F801   		cmpl	$1, %eax
GAS LISTING /tmp/ccZJW6Kf.s 			page 53


 1521 01ef 7771     		ja	.L99
 601:/home/baikal/workspace/C50/Huawei_IoT_Agent_Tiny_SDK_Linux//agent_tiny/lwm2m_client/agenttiny.c **** #endif
 1522              		.loc 1 601 0 is_stmt 0 discriminator 1
 1523 01f1 4C8B6500 		movq	0(%rbp), %r12
 1524              	.LVL216:
 1525 01f5 E8000000 		call	atiny_gettime_ms
 1525      00
 1526              	.LVL217:
 1527 01fa 4889C5   		movq	%rax, %rbp
 1528              	.LVL218:
 1529 01fd BF010000 		movl	$1, %edi
 1529      00
 1530 0202 E8000000 		call	atiny_get_log_level_name
 1530      00
 1531              	.LVL219:
 1532 0207 4D89E1   		movq	%r12, %r9
 1533 020a 41B85902 		movl	$601, %r8d
 1533      0000
 1534 0210 B9000000 		movl	$__FUNCTION__.5353, %ecx
 1534      00
 1535 0215 89EA     		movl	%ebp, %edx
 1536 0217 4889C6   		movq	%rax, %rsi
 1537 021a BF000000 		movl	$.LC17, %edi
 1537      00
 1538 021f B8000000 		movl	$0, %eax
 1538      00
 1539 0224 E8000000 		call	atiny_printf
 1539      00
 1540              	.LVL220:
 1541 0229 EB37     		jmp	.L99
 1542              	.L100:
 606:/home/baikal/workspace/C50/Huawei_IoT_Agent_Tiny_SDK_Linux//agent_tiny/lwm2m_client/agenttiny.c **** 
 1543              		.loc 1 606 0 is_stmt 1
 1544 022b C744240C 		movl	$10, 12(%rsp)
 1544      0A000000 
 608:/home/baikal/workspace/C50/Huawei_IoT_Agent_Tiny_SDK_Linux//agent_tiny/lwm2m_client/agenttiny.c ****         atiny_handle_reconnect(handle);
 1545              		.loc 1 608 0
 1546 0233 488B3B   		movq	(%rbx), %rdi
 1547 0236 E8000000 		call	atiny_step_rpt
 1547      00
 1548              	.LVL221:
 609:/home/baikal/workspace/C50/Huawei_IoT_Agent_Tiny_SDK_Linux//agent_tiny/lwm2m_client/agenttiny.c ****         (void)lwm2m_step(handle->lwm2m_context, (time_t *)&timeout);
 1549              		.loc 1 609 0
 1550 023b 4889DF   		movq	%rbx, %rdi
 1551 023e E8000000 		call	atiny_handle_reconnect
 1551      00
 1552              	.LVL222:
 610:/home/baikal/workspace/C50/Huawei_IoT_Agent_Tiny_SDK_Linux//agent_tiny/lwm2m_client/agenttiny.c ****         reboot_check();
 1553              		.loc 1 610 0
 1554 0243 488B3B   		movq	(%rbx), %rdi
 1555 0246 488D7424 		leaq	12(%rsp), %rsi
 1555      0C
 1556 024b E8000000 		call	lwm2m_step
 1556      00
 1557              	.LVL223:
 611:/home/baikal/workspace/C50/Huawei_IoT_Agent_Tiny_SDK_Linux//agent_tiny/lwm2m_client/agenttiny.c ****         (void)lwm2m_poll(handle, &timeout);
 1558              		.loc 1 611 0
GAS LISTING /tmp/ccZJW6Kf.s 			page 54


 1559 0250 E8000000 		call	reboot_check
 1559      00
 1560              	.LVL224:
 612:/home/baikal/workspace/C50/Huawei_IoT_Agent_Tiny_SDK_Linux//agent_tiny/lwm2m_client/agenttiny.c ****     }
 1561              		.loc 1 612 0
 1562 0255 488D7424 		leaq	12(%rsp), %rsi
 1562      0C
 1563 025a 4889DF   		movq	%rbx, %rdi
 1564 025d E8000000 		call	lwm2m_poll
 1564      00
 1565              	.LVL225:
 1566              	.L99:
 604:/home/baikal/workspace/C50/Huawei_IoT_Agent_Tiny_SDK_Linux//agent_tiny/lwm2m_client/agenttiny.c ****     {
 1567              		.loc 1 604 0
 1568 0262 83BBC000 		cmpl	$0, 192(%rbx)
 1568      000000
 1569 0269 74C0     		je	.L100
 615:/home/baikal/workspace/C50/Huawei_IoT_Agent_Tiny_SDK_Linux//agent_tiny/lwm2m_client/agenttiny.c **** 
 1570              		.loc 1 615 0
 1571 026b 4889DF   		movq	%rbx, %rdi
 1572 026e E8000000 		call	atiny_destroy
 1572      00
 1573              	.LVL226:
 617:/home/baikal/workspace/C50/Huawei_IoT_Agent_Tiny_SDK_Linux//agent_tiny/lwm2m_client/agenttiny.c **** }
 1574              		.loc 1 617 0
 1575 0273 B8000000 		movl	$0, %eax
 1575      00
 1576 0278 EB1A     		jmp	.L92
 1577              	.LVL227:
 1578              	.L101:
 563:/home/baikal/workspace/C50/Huawei_IoT_Agent_Tiny_SDK_Linux//agent_tiny/lwm2m_client/agenttiny.c ****     }
 1579              		.loc 1 563 0
 1580 027a B8FFFFFF 		movl	$-1, %eax
 1580      FF
 1581 027f EB13     		jmp	.L92
 1582              	.LVL228:
 1583              	.L102:
 569:/home/baikal/workspace/C50/Huawei_IoT_Agent_Tiny_SDK_Linux//agent_tiny/lwm2m_client/agenttiny.c ****     }
 1584              		.loc 1 569 0
 1585 0281 B8FFFFFF 		movl	$-1, %eax
 1585      FF
 1586 0286 EB0C     		jmp	.L92
 1587              	.L103:
 575:/home/baikal/workspace/C50/Huawei_IoT_Agent_Tiny_SDK_Linux//agent_tiny/lwm2m_client/agenttiny.c ****     }
 1588              		.loc 1 575 0
 1589 0288 B8FFFFFF 		movl	$-1, %eax
 1589      FF
 1590 028d EB05     		jmp	.L92
 1591              	.LVL229:
 1592              	.L104:
 596:/home/baikal/workspace/C50/Huawei_IoT_Agent_Tiny_SDK_Linux//agent_tiny/lwm2m_client/agenttiny.c ****     }
 1593              		.loc 1 596 0
 1594 028f B8FCFFFF 		movl	$-4, %eax
 1594      FF
 1595              	.LVL230:
 1596              	.L92:
 618:/home/baikal/workspace/C50/Huawei_IoT_Agent_Tiny_SDK_Linux//agent_tiny/lwm2m_client/agenttiny.c **** 
GAS LISTING /tmp/ccZJW6Kf.s 			page 55


 1597              		.loc 1 618 0
 1598 0294 4883C410 		addq	$16, %rsp
 1599              	.LCFI46:
 1600              		.cfi_def_cfa_offset 32
 1601 0298 5B       		popq	%rbx
 1602              	.LCFI47:
 1603              		.cfi_def_cfa_offset 24
 1604 0299 5D       		popq	%rbp
 1605              	.LCFI48:
 1606              		.cfi_def_cfa_offset 16
 1607 029a 415C     		popq	%r12
 1608              	.LCFI49:
 1609              		.cfi_def_cfa_offset 8
 1610 029c C3       		ret
 1611              		.cfi_endproc
 1612              	.LFE84:
 1614              		.section	.text.atiny_deinit,"ax",@progbits
 1615              		.globl	atiny_deinit
 1617              	atiny_deinit:
 1618              	.LFB85:
 621:/home/baikal/workspace/C50/Huawei_IoT_Agent_Tiny_SDK_Linux//agent_tiny/lwm2m_client/agenttiny.c ****     handle_data_t *handle;
 1619              		.loc 1 621 0
 1620              		.cfi_startproc
 1621              	.LVL231:
 625:/home/baikal/workspace/C50/Huawei_IoT_Agent_Tiny_SDK_Linux//agent_tiny/lwm2m_client/agenttiny.c ****     {
 1622              		.loc 1 625 0
 1623 0000 4885FF   		testq	%rdi, %rdi
 1624 0003 7423     		je	.L110
 621:/home/baikal/workspace/C50/Huawei_IoT_Agent_Tiny_SDK_Linux//agent_tiny/lwm2m_client/agenttiny.c ****     handle_data_t *handle;
 1625              		.loc 1 621 0
 1626 0005 53       		pushq	%rbx
 1627              	.LCFI50:
 1628              		.cfi_def_cfa_offset 16
 1629              		.cfi_offset 3, -16
 1630              	.LVL232:
 631:/home/baikal/workspace/C50/Huawei_IoT_Agent_Tiny_SDK_Linux//agent_tiny/lwm2m_client/agenttiny.c ****     sem = handle->quit_sem;
 1631              		.loc 1 631 0
 1632 0006 C787C000 		movl	$1, 192(%rdi)
 1632      00000100 
 1632      0000
 632:/home/baikal/workspace/C50/Huawei_IoT_Agent_Tiny_SDK_Linux//agent_tiny/lwm2m_client/agenttiny.c ****     atiny_mutex_lock(sem);
 1633              		.loc 1 632 0
 1634 0010 488B9FC8 		movq	200(%rdi), %rbx
 1634      000000
 1635              	.LVL233:
 633:/home/baikal/workspace/C50/Huawei_IoT_Agent_Tiny_SDK_Linux//agent_tiny/lwm2m_client/agenttiny.c ****     atiny_mutex_destroy(sem);
 1636              		.loc 1 633 0
 1637 0017 4889DF   		movq	%rbx, %rdi
 1638              	.LVL234:
 1639 001a E8000000 		call	atiny_mutex_lock
 1639      00
 1640              	.LVL235:
 634:/home/baikal/workspace/C50/Huawei_IoT_Agent_Tiny_SDK_Linux//agent_tiny/lwm2m_client/agenttiny.c **** }
 1641              		.loc 1 634 0
 1642 001f 4889DF   		movq	%rbx, %rdi
 1643 0022 E8000000 		call	atiny_mutex_destroy
 1643      00
GAS LISTING /tmp/ccZJW6Kf.s 			page 56


 1644              	.LVL236:
 635:/home/baikal/workspace/C50/Huawei_IoT_Agent_Tiny_SDK_Linux//agent_tiny/lwm2m_client/agenttiny.c **** 
 1645              		.loc 1 635 0
 1646 0027 5B       		popq	%rbx
 1647              	.LCFI51:
 1648              		.cfi_restore 3
 1649              		.cfi_def_cfa_offset 8
 1650              	.LVL237:
 1651              	.L110:
 1652 0028 F3C3     		rep ret
 1653              		.cfi_endproc
 1654              	.LFE85:
 1656              		.section	.rodata.str1.8
 1657 034c 00000000 		.align 8
 1658              	.LC18:
 1659 0350 5B25735D 		.string	"[%s][%u][%s:%d] invalid args\r\n"
 1659      5B25755D 
 1659      5B25733A 
 1659      25645D20 
 1659      696E7661 
 1660              		.section	.rodata.str1.1,"aMS",@progbits,1
 1661              	.LC19:
 1662 0000 2F352F30 		.string	"/5/0/3"
 1662      2F3300
 1663              		.section	.rodata.str1.8
 1664 036f 00       		.align 8
 1665              	.LC20:
 1666 0370 5B25735D 		.string	"[%s][%u][%s:%d] lwm2m_malloc fail,len %d\r\n"
 1666      5B25755D 
 1666      5B25733A 
 1666      25645D20 
 1666      6C776D32 
 1667              		.section	.text.atiny_data_report,"ax",@progbits
 1668              		.globl	atiny_data_report
 1670              	atiny_data_report:
 1671              	.LFB86:
 638:/home/baikal/workspace/C50/Huawei_IoT_Agent_Tiny_SDK_Linux//agent_tiny/lwm2m_client/agenttiny.c ****     lwm2m_uri_t uri;
 1672              		.loc 1 638 0
 1673              		.cfi_startproc
 1674              	.LVL238:
 1675 0000 55       		pushq	%rbp
 1676              	.LCFI52:
 1677              		.cfi_def_cfa_offset 16
 1678              		.cfi_offset 6, -16
 1679 0001 53       		pushq	%rbx
 1680              	.LCFI53:
 1681              		.cfi_def_cfa_offset 24
 1682              		.cfi_offset 3, -24
 1683 0002 4883EC38 		subq	$56, %rsp
 1684              	.LCFI54:
 1685              		.cfi_def_cfa_offset 80
 644:/home/baikal/workspace/C50/Huawei_IoT_Agent_Tiny_SDK_Linux//agent_tiny/lwm2m_client/agenttiny.c ****             || report_data->len > MAX_REPORT_DATA_LEN || NULL == report_data->buf)
 1686              		.loc 1 644 0
 1687 0006 4885FF   		testq	%rdi, %rdi
 1688 0009 0F94C2   		sete	%dl
 1689 000c 4885F6   		testq	%rsi, %rsi
 1690 000f 0F94C0   		sete	%al
GAS LISTING /tmp/ccZJW6Kf.s 			page 57


 1691 0012 08C2     		orb	%al, %dl
 1692 0014 7518     		jne	.L112
 1693 0016 4889F3   		movq	%rsi, %rbx
 644:/home/baikal/workspace/C50/Huawei_IoT_Agent_Tiny_SDK_Linux//agent_tiny/lwm2m_client/agenttiny.c ****             || report_data->len > MAX_REPORT_DATA_LEN || NULL == report_data->buf)
 1694              		.loc 1 644 0 is_stmt 0 discriminator 1
 1695 0019 8B4608   		movl	8(%rsi), %eax
 1696 001c 85C0     		testl	%eax, %eax
 1697 001e 7E0E     		jle	.L112
 645:/home/baikal/workspace/C50/Huawei_IoT_Agent_Tiny_SDK_Linux//agent_tiny/lwm2m_client/agenttiny.c ****     {
 1698              		.loc 1 645 0 is_stmt 1
 1699 0020 3D000400 		cmpl	$1024, %eax
 1699      00
 1700 0025 7F07     		jg	.L112
 645:/home/baikal/workspace/C50/Huawei_IoT_Agent_Tiny_SDK_Linux//agent_tiny/lwm2m_client/agenttiny.c ****     {
 1701              		.loc 1 645 0 is_stmt 0 discriminator 1
 1702 0027 48837E10 		cmpq	$0, 16(%rsi)
 1702      00
 1703 002c 7549     		jne	.L113
 1704              	.L112:
 647:/home/baikal/workspace/C50/Huawei_IoT_Agent_Tiny_SDK_Linux//agent_tiny/lwm2m_client/agenttiny.c ****         return ATINY_ARG_INVALID;
 1705              		.loc 1 647 0 is_stmt 1
 1706 002e E8000000 		call	atiny_get_log_level
 1706      00
 1707              	.LVL239:
 1708 0033 83F803   		cmpl	$3, %eax
 1709 0036 0F872E01 		ja	.L119
 1709      0000
 647:/home/baikal/workspace/C50/Huawei_IoT_Agent_Tiny_SDK_Linux//agent_tiny/lwm2m_client/agenttiny.c ****         return ATINY_ARG_INVALID;
 1710              		.loc 1 647 0 is_stmt 0 discriminator 1
 1711 003c E8000000 		call	atiny_gettime_ms
 1711      00
 1712              	.LVL240:
 1713 0041 4889C3   		movq	%rax, %rbx
 1714 0044 BF030000 		movl	$3, %edi
 1714      00
 1715 0049 E8000000 		call	atiny_get_log_level_name
 1715      00
 1716              	.LVL241:
 1717 004e 41B88702 		movl	$647, %r8d
 1717      0000
 1718 0054 B9000000 		movl	$__FUNCTION__.5369, %ecx
 1718      00
 1719 0059 89DA     		movl	%ebx, %edx
 1720 005b 4889C6   		movq	%rax, %rsi
 1721 005e BF000000 		movl	$.LC18, %edi
 1721      00
 1722 0063 B8000000 		movl	$0, %eax
 1722      00
 1723 0068 E8000000 		call	atiny_printf
 1723      00
 1724              	.LVL242:
 648:/home/baikal/workspace/C50/Huawei_IoT_Agent_Tiny_SDK_Linux//agent_tiny/lwm2m_client/agenttiny.c ****     }
 1725              		.loc 1 648 0 is_stmt 1 discriminator 1
 1726 006d B8FFFFFF 		movl	$-1, %eax
 1726      FF
 1727 0072 E90A0100 		jmp	.L114
 1727      00
GAS LISTING /tmp/ccZJW6Kf.s 			page 58


 1728              	.LVL243:
 1729              	.L113:
 1730              	.LBB34:
 1731              	.LBB35:
 1732              		.loc 2 90 0
 1733 0077 48C74424 		movq	$0, 32(%rsp)
 1733      20000000 
 1733      00
 1734              	.LVL244:
 1735              	.LBE35:
 1736              	.LBE34:
 653:/home/baikal/workspace/C50/Huawei_IoT_Agent_Tiny_SDK_Linux//agent_tiny/lwm2m_client/agenttiny.c ****     {
 1737              		.loc 1 653 0
 1738 0080 8B06     		movl	(%rsi), %eax
 1739 0082 85C0     		testl	%eax, %eax
 1740 0084 740A     		je	.L115
 1741 0086 83F801   		cmpl	$1, %eax
 1742 0089 741B     		je	.L116
 1743 008b E9E10000 		jmp	.L124
 1743      00
 1744              	.L115:
 656:/home/baikal/workspace/C50/Huawei_IoT_Agent_Tiny_SDK_Linux//agent_tiny/lwm2m_client/agenttiny.c ****         break;
 1745              		.loc 1 656 0
 1746 0090 488D5424 		leaq	32(%rsp), %rdx
 1746      20
 1747 0095 BE060000 		movl	$6, %esi
 1747      00
 1748 009a BF000000 		movl	$.LC19, %edi
 1748      00
 1749              	.LVL245:
 1750 009f E8000000 		call	lwm2m_stringToUri
 1750      00
 1751              	.LVL246:
 657:/home/baikal/workspace/C50/Huawei_IoT_Agent_Tiny_SDK_Linux//agent_tiny/lwm2m_client/agenttiny.c ****     case APP_DATA:
 1752              		.loc 1 657 0
 1753 00a4 EB0C     		jmp	.L117
 1754              	.LVL247:
 1755              	.L116:
 1756              	.LBB36:
 1757              	.LBB37:
 1758              		.file 3 "/home/baikal/workspace/C50/Huawei_IoT_Agent_Tiny_SDK_Linux//agent_tiny/lwm2m_client/atiny
   1:/home/baikal/workspace/C50/Huawei_IoT_Agent_Tiny_SDK_Linux//agent_tiny/lwm2m_client/atiny_rpt.h **** /*----------------------------------------------------------------------------
   2:/home/baikal/workspace/C50/Huawei_IoT_Agent_Tiny_SDK_Linux//agent_tiny/lwm2m_client/atiny_rpt.h ****  * Copyright (c) <2016-2018>, <Huawei Technologies Co., Ltd>
   3:/home/baikal/workspace/C50/Huawei_IoT_Agent_Tiny_SDK_Linux//agent_tiny/lwm2m_client/atiny_rpt.h ****  * All rights reserved.
   4:/home/baikal/workspace/C50/Huawei_IoT_Agent_Tiny_SDK_Linux//agent_tiny/lwm2m_client/atiny_rpt.h ****  * Redistribution and use in source and binary forms, with or without modification,
   5:/home/baikal/workspace/C50/Huawei_IoT_Agent_Tiny_SDK_Linux//agent_tiny/lwm2m_client/atiny_rpt.h ****  * are permitted provided that the following conditions are met:
   6:/home/baikal/workspace/C50/Huawei_IoT_Agent_Tiny_SDK_Linux//agent_tiny/lwm2m_client/atiny_rpt.h ****  * 1. Redistributions of source code must retain the above copyright notice, this list of
   7:/home/baikal/workspace/C50/Huawei_IoT_Agent_Tiny_SDK_Linux//agent_tiny/lwm2m_client/atiny_rpt.h ****  * conditions and the following disclaimer.
   8:/home/baikal/workspace/C50/Huawei_IoT_Agent_Tiny_SDK_Linux//agent_tiny/lwm2m_client/atiny_rpt.h ****  * 2. Redistributions in binary form must reproduce the above copyright notice, this list
   9:/home/baikal/workspace/C50/Huawei_IoT_Agent_Tiny_SDK_Linux//agent_tiny/lwm2m_client/atiny_rpt.h ****  * of conditions and the following disclaimer in the documentation and/or other materials
  10:/home/baikal/workspace/C50/Huawei_IoT_Agent_Tiny_SDK_Linux//agent_tiny/lwm2m_client/atiny_rpt.h ****  * provided with the distribution.
  11:/home/baikal/workspace/C50/Huawei_IoT_Agent_Tiny_SDK_Linux//agent_tiny/lwm2m_client/atiny_rpt.h ****  * 3. Neither the name of the copyright holder nor the names of its contributors may be used
  12:/home/baikal/workspace/C50/Huawei_IoT_Agent_Tiny_SDK_Linux//agent_tiny/lwm2m_client/atiny_rpt.h ****  * to endorse or promote products derived from this software without specific prior written
  13:/home/baikal/workspace/C50/Huawei_IoT_Agent_Tiny_SDK_Linux//agent_tiny/lwm2m_client/atiny_rpt.h ****  * permission.
  14:/home/baikal/workspace/C50/Huawei_IoT_Agent_Tiny_SDK_Linux//agent_tiny/lwm2m_client/atiny_rpt.h ****  * THIS SOFTWARE IS PROVIDED BY THE COPYRIGHT HOLDERS AND CONTRIBUTORS
  15:/home/baikal/workspace/C50/Huawei_IoT_Agent_Tiny_SDK_Linux//agent_tiny/lwm2m_client/atiny_rpt.h ****  * "AS IS" AND ANY EXPRESS OR IMPLIED WARRANTIES, INCLUDING, BUT NOT LIMITED TO,
  16:/home/baikal/workspace/C50/Huawei_IoT_Agent_Tiny_SDK_Linux//agent_tiny/lwm2m_client/atiny_rpt.h ****  * THE IMPLIED WARRANTIES OF MERCHANTABILITY AND FITNESS FOR A PARTICULAR
GAS LISTING /tmp/ccZJW6Kf.s 			page 59


  17:/home/baikal/workspace/C50/Huawei_IoT_Agent_Tiny_SDK_Linux//agent_tiny/lwm2m_client/atiny_rpt.h ****  * PURPOSE ARE DISCLAIMED. IN NO EVENT SHALL THE COPYRIGHT HOLDER OR
  18:/home/baikal/workspace/C50/Huawei_IoT_Agent_Tiny_SDK_Linux//agent_tiny/lwm2m_client/atiny_rpt.h ****  * CONTRIBUTORS BE LIABLE FOR ANY DIRECT, INDIRECT, INCIDENTAL, SPECIAL,
  19:/home/baikal/workspace/C50/Huawei_IoT_Agent_Tiny_SDK_Linux//agent_tiny/lwm2m_client/atiny_rpt.h ****  * EXEMPLARY, OR CONSEQUENTIAL DAMAGES (INCLUDING, BUT NOT LIMITED TO,
  20:/home/baikal/workspace/C50/Huawei_IoT_Agent_Tiny_SDK_Linux//agent_tiny/lwm2m_client/atiny_rpt.h ****  * PROCUREMENT OF SUBSTITUTE GOODS OR SERVICES; LOSS OF USE, DATA, OR PROFITS;
  21:/home/baikal/workspace/C50/Huawei_IoT_Agent_Tiny_SDK_Linux//agent_tiny/lwm2m_client/atiny_rpt.h ****  * OR BUSINESS INTERRUPTION) HOWEVER CAUSED AND ON ANY THEORY OF LIABILITY,
  22:/home/baikal/workspace/C50/Huawei_IoT_Agent_Tiny_SDK_Linux//agent_tiny/lwm2m_client/atiny_rpt.h ****  * WHETHER IN CONTRACT, STRICT LIABILITY, OR TORT (INCLUDING NEGLIGENCE OR
  23:/home/baikal/workspace/C50/Huawei_IoT_Agent_Tiny_SDK_Linux//agent_tiny/lwm2m_client/atiny_rpt.h ****  * OTHERWISE) ARISING IN ANY WAY OUT OF THE USE OF THIS SOFTWARE, EVEN IF
  24:/home/baikal/workspace/C50/Huawei_IoT_Agent_Tiny_SDK_Linux//agent_tiny/lwm2m_client/atiny_rpt.h ****  * ADVISED OF THE POSSIBILITY OF SUCH DAMAGE.
  25:/home/baikal/workspace/C50/Huawei_IoT_Agent_Tiny_SDK_Linux//agent_tiny/lwm2m_client/atiny_rpt.h ****  *---------------------------------------------------------------------------*/
  26:/home/baikal/workspace/C50/Huawei_IoT_Agent_Tiny_SDK_Linux//agent_tiny/lwm2m_client/atiny_rpt.h **** /*----------------------------------------------------------------------------
  27:/home/baikal/workspace/C50/Huawei_IoT_Agent_Tiny_SDK_Linux//agent_tiny/lwm2m_client/atiny_rpt.h ****  * Notice of Export Control Law
  28:/home/baikal/workspace/C50/Huawei_IoT_Agent_Tiny_SDK_Linux//agent_tiny/lwm2m_client/atiny_rpt.h ****  * ===============================================
  29:/home/baikal/workspace/C50/Huawei_IoT_Agent_Tiny_SDK_Linux//agent_tiny/lwm2m_client/atiny_rpt.h ****  * Huawei LiteOS may be subject to applicable export control laws and regulations, which might
  30:/home/baikal/workspace/C50/Huawei_IoT_Agent_Tiny_SDK_Linux//agent_tiny/lwm2m_client/atiny_rpt.h ****  * include those applicable to Huawei LiteOS of U.S. and the country in which you are located.
  31:/home/baikal/workspace/C50/Huawei_IoT_Agent_Tiny_SDK_Linux//agent_tiny/lwm2m_client/atiny_rpt.h ****  * Import, export and usage of Huawei LiteOS in any manner by you shall be in compliance with such
  32:/home/baikal/workspace/C50/Huawei_IoT_Agent_Tiny_SDK_Linux//agent_tiny/lwm2m_client/atiny_rpt.h ****  * applicable export control laws and regulations.
  33:/home/baikal/workspace/C50/Huawei_IoT_Agent_Tiny_SDK_Linux//agent_tiny/lwm2m_client/atiny_rpt.h ****  *---------------------------------------------------------------------------*/
  34:/home/baikal/workspace/C50/Huawei_IoT_Agent_Tiny_SDK_Linux//agent_tiny/lwm2m_client/atiny_rpt.h **** 
  35:/home/baikal/workspace/C50/Huawei_IoT_Agent_Tiny_SDK_Linux//agent_tiny/lwm2m_client/atiny_rpt.h **** #ifndef ATINY_RPT_H
  36:/home/baikal/workspace/C50/Huawei_IoT_Agent_Tiny_SDK_Linux//agent_tiny/lwm2m_client/atiny_rpt.h **** #define ATINY_RPT_H
  37:/home/baikal/workspace/C50/Huawei_IoT_Agent_Tiny_SDK_Linux//agent_tiny/lwm2m_client/atiny_rpt.h **** #include "agenttiny.h"
  38:/home/baikal/workspace/C50/Huawei_IoT_Agent_Tiny_SDK_Linux//agent_tiny/lwm2m_client/atiny_rpt.h **** #include "agent_list.h"
  39:/home/baikal/workspace/C50/Huawei_IoT_Agent_Tiny_SDK_Linux//agent_tiny/lwm2m_client/atiny_rpt.h **** 
  40:/home/baikal/workspace/C50/Huawei_IoT_Agent_Tiny_SDK_Linux//agent_tiny/lwm2m_client/atiny_rpt.h **** #ifdef __cplusplus
  41:/home/baikal/workspace/C50/Huawei_IoT_Agent_Tiny_SDK_Linux//agent_tiny/lwm2m_client/atiny_rpt.h **** extern "C" {
  42:/home/baikal/workspace/C50/Huawei_IoT_Agent_Tiny_SDK_Linux//agent_tiny/lwm2m_client/atiny_rpt.h **** #endif
  43:/home/baikal/workspace/C50/Huawei_IoT_Agent_Tiny_SDK_Linux//agent_tiny/lwm2m_client/atiny_rpt.h **** 
  44:/home/baikal/workspace/C50/Huawei_IoT_Agent_Tiny_SDK_Linux//agent_tiny/lwm2m_client/atiny_rpt.h **** #define URI_FORMAT "uri(flag:0x%x, objId:%d, instId:%d, resId:%d)"
  45:/home/baikal/workspace/C50/Huawei_IoT_Agent_Tiny_SDK_Linux//agent_tiny/lwm2m_client/atiny_rpt.h **** #define URI_LOG_PARAM(uri) (uri)->flag, (uri)->objectId, (uri)->instanceId, (uri)->resourceId
  46:/home/baikal/workspace/C50/Huawei_IoT_Agent_Tiny_SDK_Linux//agent_tiny/lwm2m_client/atiny_rpt.h **** 
  47:/home/baikal/workspace/C50/Huawei_IoT_Agent_Tiny_SDK_Linux//agent_tiny/lwm2m_client/atiny_rpt.h **** ATINY_INLINE void get_instance_uri(uint16_t object_id, uint16_t instance_id, lwm2m_uri_t* uri)
  48:/home/baikal/workspace/C50/Huawei_IoT_Agent_Tiny_SDK_Linux//agent_tiny/lwm2m_client/atiny_rpt.h **** {
  49:/home/baikal/workspace/C50/Huawei_IoT_Agent_Tiny_SDK_Linux//agent_tiny/lwm2m_client/atiny_rpt.h ****     if (uri == NULL)
  50:/home/baikal/workspace/C50/Huawei_IoT_Agent_Tiny_SDK_Linux//agent_tiny/lwm2m_client/atiny_rpt.h ****     {
  51:/home/baikal/workspace/C50/Huawei_IoT_Agent_Tiny_SDK_Linux//agent_tiny/lwm2m_client/atiny_rpt.h ****         return;
  52:/home/baikal/workspace/C50/Huawei_IoT_Agent_Tiny_SDK_Linux//agent_tiny/lwm2m_client/atiny_rpt.h ****     }
  53:/home/baikal/workspace/C50/Huawei_IoT_Agent_Tiny_SDK_Linux//agent_tiny/lwm2m_client/atiny_rpt.h ****     uri->flag = LWM2M_URI_FLAG_OBJECT_ID | LWM2M_URI_FLAG_INSTANCE_ID;
  54:/home/baikal/workspace/C50/Huawei_IoT_Agent_Tiny_SDK_Linux//agent_tiny/lwm2m_client/atiny_rpt.h ****     uri->objectId = object_id;
  55:/home/baikal/workspace/C50/Huawei_IoT_Agent_Tiny_SDK_Linux//agent_tiny/lwm2m_client/atiny_rpt.h ****     uri->instanceId = instance_id;
  56:/home/baikal/workspace/C50/Huawei_IoT_Agent_Tiny_SDK_Linux//agent_tiny/lwm2m_client/atiny_rpt.h ****     uri->resourceId = 0;
  57:/home/baikal/workspace/C50/Huawei_IoT_Agent_Tiny_SDK_Linux//agent_tiny/lwm2m_client/atiny_rpt.h **** }
  58:/home/baikal/workspace/C50/Huawei_IoT_Agent_Tiny_SDK_Linux//agent_tiny/lwm2m_client/atiny_rpt.h **** 
  59:/home/baikal/workspace/C50/Huawei_IoT_Agent_Tiny_SDK_Linux//agent_tiny/lwm2m_client/atiny_rpt.h **** ATINY_INLINE void get_resource_uri(uint16_t object_id, uint16_t instance_id, uint16_t resource_id, 
  60:/home/baikal/workspace/C50/Huawei_IoT_Agent_Tiny_SDK_Linux//agent_tiny/lwm2m_client/atiny_rpt.h **** {
  61:/home/baikal/workspace/C50/Huawei_IoT_Agent_Tiny_SDK_Linux//agent_tiny/lwm2m_client/atiny_rpt.h ****     if (uri == NULL)
  62:/home/baikal/workspace/C50/Huawei_IoT_Agent_Tiny_SDK_Linux//agent_tiny/lwm2m_client/atiny_rpt.h ****     {
  63:/home/baikal/workspace/C50/Huawei_IoT_Agent_Tiny_SDK_Linux//agent_tiny/lwm2m_client/atiny_rpt.h ****         return;
  64:/home/baikal/workspace/C50/Huawei_IoT_Agent_Tiny_SDK_Linux//agent_tiny/lwm2m_client/atiny_rpt.h ****     }
  65:/home/baikal/workspace/C50/Huawei_IoT_Agent_Tiny_SDK_Linux//agent_tiny/lwm2m_client/atiny_rpt.h ****     uri->flag = LWM2M_URI_FLAG_OBJECT_ID | LWM2M_URI_FLAG_INSTANCE_ID | LWM2M_URI_FLAG_RESOURCE_ID;
 1759              		.loc 3 65 0
 1760 00a6 C6442420 		movb	$7, 32(%rsp)
 1760      07
  66:/home/baikal/workspace/C50/Huawei_IoT_Agent_Tiny_SDK_Linux//agent_tiny/lwm2m_client/atiny_rpt.h ****     uri->objectId = object_id;
 1761              		.loc 3 66 0
 1762 00ab 66C74424 		movw	$19, 34(%rsp)
 1762      221300
 1763              	.LVL248:
GAS LISTING /tmp/ccZJW6Kf.s 			page 60


 1764              	.L117:
 1765              	.LBE37:
 1766              	.LBE36:
 1767              	.LBB38:
 1768              	.LBB39:
  53:/usr/include/x86_64-linux-gnu/bits/string3.h **** }
 1769              		.loc 2 53 0
 1770 00b2 488B03   		movq	(%rbx), %rax
 1771 00b5 48890424 		movq	%rax, (%rsp)
 1772 00b9 488B4308 		movq	8(%rbx), %rax
 1773 00bd 48894424 		movq	%rax, 8(%rsp)
 1773      08
 1774 00c2 488B4310 		movq	16(%rbx), %rax
 1775 00c6 48894424 		movq	%rax, 16(%rsp)
 1775      10
 1776 00cb 488B4318 		movq	24(%rbx), %rax
 1777 00cf 48894424 		movq	%rax, 24(%rsp)
 1777      18
 1778              	.LVL249:
 1779              	.LBE39:
 1780              	.LBE38:
 666:/home/baikal/workspace/C50/Huawei_IoT_Agent_Tiny_SDK_Linux//agent_tiny/lwm2m_client/agenttiny.c ****     if (NULL == data.buf)
 1781              		.loc 1 666 0
 1782 00d4 48637B08 		movslq	8(%rbx), %rdi
 1783 00d8 E8000000 		call	lwm2m_malloc
 1783      00
 1784              	.LVL250:
 1785 00dd 48894424 		movq	%rax, 16(%rsp)
 1785      10
 667:/home/baikal/workspace/C50/Huawei_IoT_Agent_Tiny_SDK_Linux//agent_tiny/lwm2m_client/agenttiny.c ****     {
 1786              		.loc 1 667 0
 1787 00e2 4885C0   		testq	%rax, %rax
 1788 00e5 754D     		jne	.L118
 669:/home/baikal/workspace/C50/Huawei_IoT_Agent_Tiny_SDK_Linux//agent_tiny/lwm2m_client/agenttiny.c ****         return ATINY_MALLOC_FAILED;;
 1789              		.loc 1 669 0
 1790 00e7 E8000000 		call	atiny_get_log_level
 1790      00
 1791              	.LVL251:
 1792 00ec 83F803   		cmpl	$3, %eax
 1793 00ef 0F878300 		ja	.L121
 1793      0000
 669:/home/baikal/workspace/C50/Huawei_IoT_Agent_Tiny_SDK_Linux//agent_tiny/lwm2m_client/agenttiny.c ****         return ATINY_MALLOC_FAILED;;
 1794              		.loc 1 669 0 is_stmt 0 discriminator 1
 1795 00f5 8B6C2408 		movl	8(%rsp), %ebp
 1796 00f9 E8000000 		call	atiny_gettime_ms
 1796      00
 1797              	.LVL252:
 1798 00fe 4889C3   		movq	%rax, %rbx
 1799              	.LVL253:
 1800 0101 BF030000 		movl	$3, %edi
 1800      00
 1801 0106 E8000000 		call	atiny_get_log_level_name
 1801      00
 1802              	.LVL254:
 1803 010b 4189E9   		movl	%ebp, %r9d
 1804 010e 41B89D02 		movl	$669, %r8d
 1804      0000
GAS LISTING /tmp/ccZJW6Kf.s 			page 61


 1805 0114 B9000000 		movl	$__FUNCTION__.5369, %ecx
 1805      00
 1806 0119 89DA     		movl	%ebx, %edx
 1807 011b 4889C6   		movq	%rax, %rsi
 1808 011e BF000000 		movl	$.LC20, %edi
 1808      00
 1809 0123 B8000000 		movl	$0, %eax
 1809      00
 1810 0128 E8000000 		call	atiny_printf
 1810      00
 1811              	.LVL255:
 670:/home/baikal/workspace/C50/Huawei_IoT_Agent_Tiny_SDK_Linux//agent_tiny/lwm2m_client/agenttiny.c ****     }
 1812              		.loc 1 670 0 is_stmt 1 discriminator 1
 1813 012d B8FCFFFF 		movl	$-4, %eax
 1813      FF
 1814 0132 EB4D     		jmp	.L114
 1815              	.LVL256:
 1816              	.L118:
 672:/home/baikal/workspace/C50/Huawei_IoT_Agent_Tiny_SDK_Linux//agent_tiny/lwm2m_client/agenttiny.c **** 
 1817              		.loc 1 672 0
 1818 0134 48635308 		movslq	8(%rbx), %rdx
 1819 0138 488B7310 		movq	16(%rbx), %rsi
 1820              	.LVL257:
 1821              	.LBB40:
 1822              	.LBB41:
  53:/usr/include/x86_64-linux-gnu/bits/string3.h **** }
 1823              		.loc 2 53 0
 1824 013c 4889C7   		movq	%rax, %rdi
 1825 013f E8000000 		call	memcpy
 1825      00
 1826              	.LVL258:
 1827              	.LBE41:
 1828              	.LBE40:
 674:/home/baikal/workspace/C50/Huawei_IoT_Agent_Tiny_SDK_Linux//agent_tiny/lwm2m_client/agenttiny.c **** 
 1829              		.loc 1 674 0
 1830 0144 4889E6   		movq	%rsp, %rsi
 1831 0147 488D7C24 		leaq	32(%rsp), %rdi
 1831      20
 1832 014c E8000000 		call	atiny_queue_rpt_data
 1832      00
 1833              	.LVL259:
 1834 0151 89C3     		movl	%eax, %ebx
 1835              	.LVL260:
 676:/home/baikal/workspace/C50/Huawei_IoT_Agent_Tiny_SDK_Linux//agent_tiny/lwm2m_client/agenttiny.c ****     {
 1836              		.loc 1 676 0
 1837 0153 85C0     		testl	%eax, %eax
 1838 0155 7428     		je	.L122
 678:/home/baikal/workspace/C50/Huawei_IoT_Agent_Tiny_SDK_Linux//agent_tiny/lwm2m_client/agenttiny.c ****         {
 1839              		.loc 1 678 0
 1840 0157 488B7C24 		movq	16(%rsp), %rdi
 1840      10
 1841 015c 4885FF   		testq	%rdi, %rdi
 1842 015f 7420     		je	.L123
 680:/home/baikal/workspace/C50/Huawei_IoT_Agent_Tiny_SDK_Linux//agent_tiny/lwm2m_client/agenttiny.c ****         }
 1843              		.loc 1 680 0
 1844 0161 E8000000 		call	lwm2m_free
 1844      00
GAS LISTING /tmp/ccZJW6Kf.s 			page 62


 1845              	.LVL261:
 684:/home/baikal/workspace/C50/Huawei_IoT_Agent_Tiny_SDK_Linux//agent_tiny/lwm2m_client/agenttiny.c **** }
 1846              		.loc 1 684 0
 1847 0166 89D8     		movl	%ebx, %eax
 1848 0168 EB17     		jmp	.L114
 1849              	.LVL262:
 1850              	.L119:
 648:/home/baikal/workspace/C50/Huawei_IoT_Agent_Tiny_SDK_Linux//agent_tiny/lwm2m_client/agenttiny.c ****     }
 1851              		.loc 1 648 0
 1852 016a B8FFFFFF 		movl	$-1, %eax
 1852      FF
 1853 016f EB10     		jmp	.L114
 1854              	.LVL263:
 1855              	.L124:
 662:/home/baikal/workspace/C50/Huawei_IoT_Agent_Tiny_SDK_Linux//agent_tiny/lwm2m_client/agenttiny.c ****     }
 1856              		.loc 1 662 0
 1857 0171 B8FBFFFF 		movl	$-5, %eax
 1857      FF
 1858 0176 EB09     		jmp	.L114
 1859              	.LVL264:
 1860              	.L121:
 670:/home/baikal/workspace/C50/Huawei_IoT_Agent_Tiny_SDK_Linux//agent_tiny/lwm2m_client/agenttiny.c ****     }
 1861              		.loc 1 670 0
 1862 0178 B8FCFFFF 		movl	$-4, %eax
 1862      FF
 1863 017d EB02     		jmp	.L114
 1864              	.LVL265:
 1865              	.L122:
 1866 017f EB00     		jmp	.L114
 1867              	.L123:
 1868              	.LVL266:
 1869              	.L114:
 685:/home/baikal/workspace/C50/Huawei_IoT_Agent_Tiny_SDK_Linux//agent_tiny/lwm2m_client/agenttiny.c **** 
 1870              		.loc 1 685 0
 1871 0181 4883C438 		addq	$56, %rsp
 1872              	.LCFI55:
 1873              		.cfi_def_cfa_offset 24
 1874 0185 5B       		popq	%rbx
 1875              	.LCFI56:
 1876              		.cfi_def_cfa_offset 16
 1877 0186 5D       		popq	%rbp
 1878              	.LCFI57:
 1879              		.cfi_def_cfa_offset 8
 1880 0187 C3       		ret
 1881              		.cfi_endproc
 1882              	.LFE86:
 1884              		.section	.rodata.str1.8
 1885 039b 00000000 		.align 8
 1885      00
 1886              	.LC21:
 1887 03a0 5B25735D 		.string	"[%s][%u][%s:%d] not registered\r\n"
 1887      5B25755D 
 1887      5B25733A 
 1887      25645D20 
 1887      6E6F7420 
 1888              		.section	.text.atiny_data_change,"ax",@progbits
 1889              		.globl	atiny_data_change
GAS LISTING /tmp/ccZJW6Kf.s 			page 63


 1891              	atiny_data_change:
 1892              	.LFB87:
 688:/home/baikal/workspace/C50/Huawei_IoT_Agent_Tiny_SDK_Linux//agent_tiny/lwm2m_client/agenttiny.c ****     lwm2m_uri_t uri;
 1893              		.loc 1 688 0
 1894              		.cfi_startproc
 1895              	.LVL267:
 1896 0000 53       		pushq	%rbx
 1897              	.LCFI58:
 1898              		.cfi_def_cfa_offset 16
 1899              		.cfi_offset 3, -16
 1900 0001 4883EC10 		subq	$16, %rsp
 1901              	.LCFI59:
 1902              		.cfi_def_cfa_offset 32
 692:/home/baikal/workspace/C50/Huawei_IoT_Agent_Tiny_SDK_Linux//agent_tiny/lwm2m_client/agenttiny.c ****     {
 1903              		.loc 1 692 0
 1904 0005 4885FF   		testq	%rdi, %rdi
 1905 0008 0F94C2   		sete	%dl
 1906 000b 4885F6   		testq	%rsi, %rsi
 1907 000e 0F94C0   		sete	%al
 1908 0011 08C2     		orb	%al, %dl
 1909 0013 7449     		je	.L127
 694:/home/baikal/workspace/C50/Huawei_IoT_Agent_Tiny_SDK_Linux//agent_tiny/lwm2m_client/agenttiny.c ****         return ATINY_ARG_INVALID;
 1910              		.loc 1 694 0
 1911 0015 E8000000 		call	atiny_get_log_level
 1911      00
 1912              	.LVL268:
 1913 001a 83F803   		cmpl	$3, %eax
 1914 001d 0F87E400 		ja	.L130
 1914      0000
 694:/home/baikal/workspace/C50/Huawei_IoT_Agent_Tiny_SDK_Linux//agent_tiny/lwm2m_client/agenttiny.c ****         return ATINY_ARG_INVALID;
 1915              		.loc 1 694 0 is_stmt 0 discriminator 1
 1916 0023 E8000000 		call	atiny_gettime_ms
 1916      00
 1917              	.LVL269:
 1918 0028 4889C3   		movq	%rax, %rbx
 1919 002b BF030000 		movl	$3, %edi
 1919      00
 1920 0030 E8000000 		call	atiny_get_log_level_name
 1920      00
 1921              	.LVL270:
 1922 0035 41B8B602 		movl	$694, %r8d
 1922      0000
 1923 003b B9000000 		movl	$__FUNCTION__.5380, %ecx
 1923      00
 1924 0040 89DA     		movl	%ebx, %edx
 1925 0042 4889C6   		movq	%rax, %rsi
 1926 0045 BF000000 		movl	$.LC18, %edi
 1926      00
 1927 004a B8000000 		movl	$0, %eax
 1927      00
 1928 004f E8000000 		call	atiny_printf
 1928      00
 1929              	.LVL271:
 695:/home/baikal/workspace/C50/Huawei_IoT_Agent_Tiny_SDK_Linux//agent_tiny/lwm2m_client/agenttiny.c ****     }
 1930              		.loc 1 695 0 is_stmt 1 discriminator 1
 1931 0054 B8FFFFFF 		movl	$-1, %eax
 1931      FF
GAS LISTING /tmp/ccZJW6Kf.s 			page 64


 1932 0059 E9B50000 		jmp	.L128
 1932      00
 1933              	.LVL272:
 1934              	.L127:
 1935 005e 4889FB   		movq	%rdi, %rbx
 1936 0061 4989F0   		movq	%rsi, %r8
 1937              	.LVL273:
 1938              	.LBB42:
 1939              	.LBB43:
 1940              		.loc 2 90 0
 1941 0064 48C70424 		movq	$0, (%rsp)
 1941      00000000 
 1942              	.LVL274:
 1943              	.LBE43:
 1944              	.LBE42:
 701:/home/baikal/workspace/C50/Huawei_IoT_Agent_Tiny_SDK_Linux//agent_tiny/lwm2m_client/agenttiny.c ****     {
 1945              		.loc 1 701 0
 1946 006c 488B07   		movq	(%rdi), %rax
 1947 006f 833805   		cmpl	$5, (%rax)
 1948 0072 7446     		je	.L129
 1949              	.LVL275:
 703:/home/baikal/workspace/C50/Huawei_IoT_Agent_Tiny_SDK_Linux//agent_tiny/lwm2m_client/agenttiny.c ****         return ATINY_CLIENT_UNREGISTERED;
 1950              		.loc 1 703 0
 1951 0074 E8000000 		call	atiny_get_log_level
 1951      00
 1952              	.LVL276:
 1953 0079 83F801   		cmpl	$1, %eax
 1954 007c 0F878C00 		ja	.L131
 1954      0000
 703:/home/baikal/workspace/C50/Huawei_IoT_Agent_Tiny_SDK_Linux//agent_tiny/lwm2m_client/agenttiny.c ****         return ATINY_CLIENT_UNREGISTERED;
 1955              		.loc 1 703 0 is_stmt 0 discriminator 1
 1956 0082 E8000000 		call	atiny_gettime_ms
 1956      00
 1957              	.LVL277:
 1958 0087 4889C3   		movq	%rax, %rbx
 1959              	.LVL278:
 1960 008a BF010000 		movl	$1, %edi
 1960      00
 1961 008f E8000000 		call	atiny_get_log_level_name
 1961      00
 1962              	.LVL279:
 1963 0094 41B8BF02 		movl	$703, %r8d
 1963      0000
 1964 009a B9000000 		movl	$__FUNCTION__.5380, %ecx
 1964      00
 1965 009f 89DA     		movl	%ebx, %edx
 1966 00a1 4889C6   		movq	%rax, %rsi
 1967 00a4 BF000000 		movl	$.LC21, %edi
 1967      00
 1968 00a9 B8000000 		movl	$0, %eax
 1968      00
 1969 00ae E8000000 		call	atiny_printf
 1969      00
 1970              	.LVL280:
 704:/home/baikal/workspace/C50/Huawei_IoT_Agent_Tiny_SDK_Linux//agent_tiny/lwm2m_client/agenttiny.c ****     }
 1971              		.loc 1 704 0 is_stmt 1 discriminator 1
 1972 00b3 B8F9FFFF 		movl	$-7, %eax
GAS LISTING /tmp/ccZJW6Kf.s 			page 65


 1972      FF
 1973 00b8 EB59     		jmp	.L128
 1974              	.LVL281:
 1975              	.L129:
 707:/home/baikal/workspace/C50/Huawei_IoT_Agent_Tiny_SDK_Linux//agent_tiny/lwm2m_client/agenttiny.c **** 
 1976              		.loc 1 707 0
 1977 00ba B8000000 		movl	$0, %eax
 1977      00
 1978 00bf 48C7C1FF 		movq	$-1, %rcx
 1978      FFFFFF
 1979 00c6 4889F7   		movq	%rsi, %rdi
 1980 00c9 F2AE     		repnz scasb
 1981              	.LVL282:
 1982 00cb 48F7D1   		notq	%rcx
 1983 00ce 488D71FF 		leaq	-1(%rcx), %rsi
 1984 00d2 4889E2   		movq	%rsp, %rdx
 1985 00d5 4C89C7   		movq	%r8, %rdi
 1986 00d8 E8000000 		call	lwm2m_stringToUri
 1986      00
 1987              	.LVL283:
 709:/home/baikal/workspace/C50/Huawei_IoT_Agent_Tiny_SDK_Linux//agent_tiny/lwm2m_client/agenttiny.c ****     lwm2m_resource_value_changed(handle->lwm2m_context, &uri);
 1988              		.loc 1 709 0
 1989 00dd 488B03   		movq	(%rbx), %rax
 1990 00e0 488B7848 		movq	72(%rax), %rdi
 1991 00e4 E8000000 		call	atiny_mutex_lock
 1991      00
 1992              	.LVL284:
 710:/home/baikal/workspace/C50/Huawei_IoT_Agent_Tiny_SDK_Linux//agent_tiny/lwm2m_client/agenttiny.c ****     atiny_mutex_unlock(handle->lwm2m_context->observe_mutex);
 1993              		.loc 1 710 0
 1994 00e9 4889E6   		movq	%rsp, %rsi
 1995 00ec 488B3B   		movq	(%rbx), %rdi
 1996 00ef E8000000 		call	lwm2m_resource_value_changed
 1996      00
 1997              	.LVL285:
 711:/home/baikal/workspace/C50/Huawei_IoT_Agent_Tiny_SDK_Linux//agent_tiny/lwm2m_client/agenttiny.c **** 
 1998              		.loc 1 711 0
 1999 00f4 488B03   		movq	(%rbx), %rax
 2000 00f7 488B7848 		movq	72(%rax), %rdi
 2001 00fb E8000000 		call	atiny_mutex_unlock
 2001      00
 2002              	.LVL286:
 713:/home/baikal/workspace/C50/Huawei_IoT_Agent_Tiny_SDK_Linux//agent_tiny/lwm2m_client/agenttiny.c **** }
 2003              		.loc 1 713 0
 2004 0100 B8000000 		movl	$0, %eax
 2004      00
 2005 0105 EB0C     		jmp	.L128
 2006              	.LVL287:
 2007              	.L130:
 695:/home/baikal/workspace/C50/Huawei_IoT_Agent_Tiny_SDK_Linux//agent_tiny/lwm2m_client/agenttiny.c ****     }
 2008              		.loc 1 695 0
 2009 0107 B8FFFFFF 		movl	$-1, %eax
 2009      FF
 2010 010c EB05     		jmp	.L128
 2011              	.LVL288:
 2012              	.L131:
 704:/home/baikal/workspace/C50/Huawei_IoT_Agent_Tiny_SDK_Linux//agent_tiny/lwm2m_client/agenttiny.c ****     }
 2013              		.loc 1 704 0
GAS LISTING /tmp/ccZJW6Kf.s 			page 66


 2014 010e B8F9FFFF 		movl	$-7, %eax
 2014      FF
 2015              	.LVL289:
 2016              	.L128:
 714:/home/baikal/workspace/C50/Huawei_IoT_Agent_Tiny_SDK_Linux//agent_tiny/lwm2m_client/agenttiny.c **** 
 2017              		.loc 1 714 0
 2018 0113 4883C410 		addq	$16, %rsp
 2019              	.LCFI60:
 2020              		.cfi_def_cfa_offset 16
 2021 0117 5B       		popq	%rbx
 2022              	.LCFI61:
 2023              		.cfi_def_cfa_offset 8
 2024 0118 C3       		ret
 2025              		.cfi_endproc
 2026              	.LFE87:
 2028              		.section	.text.atiny_reconnect,"ax",@progbits
 2029              		.globl	atiny_reconnect
 2031              	atiny_reconnect:
 2032              	.LFB89:
 732:/home/baikal/workspace/C50/Huawei_IoT_Agent_Tiny_SDK_Linux//agent_tiny/lwm2m_client/agenttiny.c **** 
 733:/home/baikal/workspace/C50/Huawei_IoT_Agent_Tiny_SDK_Linux//agent_tiny/lwm2m_client/agenttiny.c **** int atiny_reconnect(void *phandle)
 734:/home/baikal/workspace/C50/Huawei_IoT_Agent_Tiny_SDK_Linux//agent_tiny/lwm2m_client/agenttiny.c **** {
 2033              		.loc 1 734 0
 2034              		.cfi_startproc
 2035              	.LVL290:
 735:/home/baikal/workspace/C50/Huawei_IoT_Agent_Tiny_SDK_Linux//agent_tiny/lwm2m_client/agenttiny.c ****     handle_data_t *handle = (handle_data_t *)phandle;
 736:/home/baikal/workspace/C50/Huawei_IoT_Agent_Tiny_SDK_Linux//agent_tiny/lwm2m_client/agenttiny.c **** 
 737:/home/baikal/workspace/C50/Huawei_IoT_Agent_Tiny_SDK_Linux//agent_tiny/lwm2m_client/agenttiny.c **** 
 738:/home/baikal/workspace/C50/Huawei_IoT_Agent_Tiny_SDK_Linux//agent_tiny/lwm2m_client/agenttiny.c ****     if (NULL == phandle)
 2036              		.loc 1 738 0
 2037 0000 4885FF   		testq	%rdi, %rdi
 2038 0003 7543     		jne	.L134
 734:/home/baikal/workspace/C50/Huawei_IoT_Agent_Tiny_SDK_Linux//agent_tiny/lwm2m_client/agenttiny.c ****     handle_data_t *handle = (handle_data_t *)phandle;
 2039              		.loc 1 734 0
 2040 0005 53       		pushq	%rbx
 2041              	.LCFI62:
 2042              		.cfi_def_cfa_offset 16
 2043              		.cfi_offset 3, -16
 739:/home/baikal/workspace/C50/Huawei_IoT_Agent_Tiny_SDK_Linux//agent_tiny/lwm2m_client/agenttiny.c ****     {
 740:/home/baikal/workspace/C50/Huawei_IoT_Agent_Tiny_SDK_Linux//agent_tiny/lwm2m_client/agenttiny.c ****         ATINY_LOG(LOG_FATAL, "Parameter null");
 2044              		.loc 1 740 0
 2045 0006 E8000000 		call	atiny_get_log_level
 2045      00
 2046              	.LVL291:
 2047 000b 83F804   		cmpl	$4, %eax
 2048 000e 7748     		ja	.L136
 2049              		.loc 1 740 0 is_stmt 0 discriminator 1
 2050 0010 E8000000 		call	atiny_gettime_ms
 2050      00
 2051              	.LVL292:
 2052 0015 4889C3   		movq	%rax, %rbx
 2053 0018 BF040000 		movl	$4, %edi
 2053      00
 2054 001d E8000000 		call	atiny_get_log_level_name
 2054      00
 2055              	.LVL293:
 2056 0022 41B8E402 		movl	$740, %r8d
GAS LISTING /tmp/ccZJW6Kf.s 			page 67


 2056      0000
 2057 0028 B9000000 		movl	$__FUNCTION__.5390, %ecx
 2057      00
 2058 002d 89DA     		movl	%ebx, %edx
 2059 002f 4889C6   		movq	%rax, %rsi
 2060 0032 BF000000 		movl	$.LC12, %edi
 2060      00
 2061 0037 B8000000 		movl	$0, %eax
 2061      00
 2062 003c E8000000 		call	atiny_printf
 2062      00
 2063              	.LVL294:
 741:/home/baikal/workspace/C50/Huawei_IoT_Agent_Tiny_SDK_Linux//agent_tiny/lwm2m_client/agenttiny.c ****         return ATINY_ARG_INVALID;
 2064              		.loc 1 741 0 is_stmt 1 discriminator 1
 2065 0041 B8FFFFFF 		movl	$-1, %eax
 2065      FF
 2066 0046 EB15     		jmp	.L135
 2067              	.LVL295:
 2068              	.L134:
 2069              	.LCFI63:
 2070              		.cfi_def_cfa_offset 8
 2071              		.cfi_restore 3
 742:/home/baikal/workspace/C50/Huawei_IoT_Agent_Tiny_SDK_Linux//agent_tiny/lwm2m_client/agenttiny.c ****     }
 743:/home/baikal/workspace/C50/Huawei_IoT_Agent_Tiny_SDK_Linux//agent_tiny/lwm2m_client/agenttiny.c ****     handle->reconnect_flag = true;
 2072              		.loc 1 743 0
 2073 0048 C787C400 		movl	$1, 196(%rdi)
 2073      00000100 
 2073      0000
 744:/home/baikal/workspace/C50/Huawei_IoT_Agent_Tiny_SDK_Linux//agent_tiny/lwm2m_client/agenttiny.c **** 
 745:/home/baikal/workspace/C50/Huawei_IoT_Agent_Tiny_SDK_Linux//agent_tiny/lwm2m_client/agenttiny.c ****     return ATINY_OK;
 2074              		.loc 1 745 0
 2075 0052 B8000000 		movl	$0, %eax
 2075      00
 746:/home/baikal/workspace/C50/Huawei_IoT_Agent_Tiny_SDK_Linux//agent_tiny/lwm2m_client/agenttiny.c **** }
 2076              		.loc 1 746 0
 2077 0057 C3       		ret
 2078              	.LVL296:
 2079              	.L136:
 2080              	.LCFI64:
 2081              		.cfi_def_cfa_offset 16
 2082              		.cfi_offset 3, -16
 741:/home/baikal/workspace/C50/Huawei_IoT_Agent_Tiny_SDK_Linux//agent_tiny/lwm2m_client/agenttiny.c ****     }
 2083              		.loc 1 741 0
 2084 0058 B8FFFFFF 		movl	$-1, %eax
 2084      FF
 2085              	.L135:
 2086              		.loc 1 746 0
 2087 005d 5B       		popq	%rbx
 2088              	.LCFI65:
 2089              		.cfi_restore 3
 2090              		.cfi_def_cfa_offset 8
 2091 005e C3       		ret
 2092              		.cfi_endproc
 2093              	.LFE89:
 2095              		.section	.rodata.str1.1
 2096              	.LC22:
 2097 0007 5B25735D 		.string	"[%s][%u][%s:%d] null point\r\n"
GAS LISTING /tmp/ccZJW6Kf.s 			page 68


 2097      5B25755D 
 2097      5B25733A 
 2097      25645D20 
 2097      6E756C6C 
 2098              		.section	.rodata.str1.8
 2099 03c1 00000000 		.align 8
 2099      000000
 2100              	.LC23:
 2101 03c8 5B25735D 		.string	"[%s][%u][%s:%d] connection err type %d bootstrap %d\r\n"
 2101      5B25755D 
 2101      5B25733A 
 2101      25645D20 
 2101      636F6E6E 
 2102              		.section	.text.atiny_connection_err_notify,"ax",@progbits
 2104              	atiny_connection_err_notify:
 2105              	.LFB82:
 526:/home/baikal/workspace/C50/Huawei_IoT_Agent_Tiny_SDK_Linux//agent_tiny/lwm2m_client/agenttiny.c ****     handle_data_t *handle = NULL;
 2106              		.loc 1 526 0
 2107              		.cfi_startproc
 2108              	.LVL297:
 2109 0000 4154     		pushq	%r12
 2110              	.LCFI66:
 2111              		.cfi_def_cfa_offset 16
 2112              		.cfi_offset 12, -16
 2113 0002 55       		pushq	%rbp
 2114              	.LCFI67:
 2115              		.cfi_def_cfa_offset 24
 2116              		.cfi_offset 6, -24
 2117 0003 53       		pushq	%rbx
 2118              	.LCFI68:
 2119              		.cfi_def_cfa_offset 32
 2120              		.cfi_offset 3, -32
 2121              	.LVL298:
 529:/home/baikal/workspace/C50/Huawei_IoT_Agent_Tiny_SDK_Linux//agent_tiny/lwm2m_client/agenttiny.c ****     {
 2122              		.loc 1 529 0
 2123 0004 4885FF   		testq	%rdi, %rdi
 2124 0007 740D     		je	.L139
 2125 0009 89F5     		movl	%esi, %ebp
 2126 000b 89D3     		movl	%edx, %ebx
 529:/home/baikal/workspace/C50/Huawei_IoT_Agent_Tiny_SDK_Linux//agent_tiny/lwm2m_client/agenttiny.c ****     {
 2127              		.loc 1 529 0 is_stmt 0 discriminator 1
 2128 000d 488B7F60 		movq	96(%rdi), %rdi
 2129              	.LVL299:
 2130 0011 4885FF   		testq	%rdi, %rdi
 2131 0014 7541     		jne	.L140
 2132              	.L139:
 531:/home/baikal/workspace/C50/Huawei_IoT_Agent_Tiny_SDK_Linux//agent_tiny/lwm2m_client/agenttiny.c ****         return;
 2133              		.loc 1 531 0 is_stmt 1
 2134 0016 E8000000 		call	atiny_get_log_level
 2134      00
 2135              	.LVL300:
 2136 001b 83F803   		cmpl	$3, %eax
 2137 001e 0F878B00 		ja	.L138
 2137      0000
 531:/home/baikal/workspace/C50/Huawei_IoT_Agent_Tiny_SDK_Linux//agent_tiny/lwm2m_client/agenttiny.c ****         return;
 2138              		.loc 1 531 0 is_stmt 0 discriminator 1
 2139 0024 E8000000 		call	atiny_gettime_ms
GAS LISTING /tmp/ccZJW6Kf.s 			page 69


 2139      00
 2140              	.LVL301:
 2141 0029 4889C3   		movq	%rax, %rbx
 2142 002c BF030000 		movl	$3, %edi
 2142      00
 2143 0031 E8000000 		call	atiny_get_log_level_name
 2143      00
 2144              	.LVL302:
 2145 0036 41B81302 		movl	$531, %r8d
 2145      0000
 2146 003c B9000000 		movl	$__FUNCTION__.5341, %ecx
 2146      00
 2147 0041 89DA     		movl	%ebx, %edx
 2148 0043 4889C6   		movq	%rax, %rsi
 2149 0046 BF000000 		movl	$.LC22, %edi
 2149      00
 2150 004b B8000000 		movl	$0, %eax
 2150      00
 2151 0050 E8000000 		call	atiny_printf
 2151      00
 2152              	.LVL303:
 2153 0055 EB58     		jmp	.L138
 2154              	.LVL304:
 2155              	.L140:
 535:/home/baikal/workspace/C50/Huawei_IoT_Agent_Tiny_SDK_Linux//agent_tiny/lwm2m_client/agenttiny.c ****     {
 2156              		.loc 1 535 0 is_stmt 1
 2157 0057 84D2     		testb	%dl, %dl
 2158 0059 7509     		jne	.L142
 537:/home/baikal/workspace/C50/Huawei_IoT_Agent_Tiny_SDK_Linux//agent_tiny/lwm2m_client/agenttiny.c ****         (void)atiny_reconnect(handle);
 2159              		.loc 1 537 0
 2160 005b 4883EF70 		subq	$112, %rdi
 2161              	.LVL305:
 538:/home/baikal/workspace/C50/Huawei_IoT_Agent_Tiny_SDK_Linux//agent_tiny/lwm2m_client/agenttiny.c ****     }
 2162              		.loc 1 538 0
 2163 005f E8000000 		call	atiny_reconnect
 2163      00
 2164              	.LVL306:
 2165              	.L142:
 540:/home/baikal/workspace/C50/Huawei_IoT_Agent_Tiny_SDK_Linux//agent_tiny/lwm2m_client/agenttiny.c **** }
 2166              		.loc 1 540 0
 2167 0064 E8000000 		call	atiny_get_log_level
 2167      00
 2168              	.LVL307:
 2169 0069 83F801   		cmpl	$1, %eax
 2170 006c 7741     		ja	.L138
 540:/home/baikal/workspace/C50/Huawei_IoT_Agent_Tiny_SDK_Linux//agent_tiny/lwm2m_client/agenttiny.c **** }
 2171              		.loc 1 540 0 is_stmt 0 discriminator 1
 2172 006e 0FB6DB   		movzbl	%bl, %ebx
 2173 0071 E8000000 		call	atiny_gettime_ms
 2173      00
 2174              	.LVL308:
 2175 0076 4989C4   		movq	%rax, %r12
 2176 0079 BF010000 		movl	$1, %edi
 2176      00
 2177 007e E8000000 		call	atiny_get_log_level_name
 2177      00
 2178              	.LVL309:
GAS LISTING /tmp/ccZJW6Kf.s 			page 70


 2179 0083 4883EC08 		subq	$8, %rsp
 2180              	.LCFI69:
 2181              		.cfi_def_cfa_offset 40
 2182 0087 53       		pushq	%rbx
 2183              	.LCFI70:
 2184              		.cfi_def_cfa_offset 48
 2185 0088 4189E9   		movl	%ebp, %r9d
 2186 008b 41B81C02 		movl	$540, %r8d
 2186      0000
 2187 0091 B9000000 		movl	$__FUNCTION__.5341, %ecx
 2187      00
 2188 0096 4489E2   		movl	%r12d, %edx
 2189 0099 4889C6   		movq	%rax, %rsi
 2190 009c BF000000 		movl	$.LC23, %edi
 2190      00
 2191 00a1 B8000000 		movl	$0, %eax
 2191      00
 2192 00a6 E8000000 		call	atiny_printf
 2192      00
 2193              	.LVL310:
 2194 00ab 4883C410 		addq	$16, %rsp
 2195              	.LCFI71:
 2196              		.cfi_def_cfa_offset 32
 2197              	.LVL311:
 2198              	.L138:
 541:/home/baikal/workspace/C50/Huawei_IoT_Agent_Tiny_SDK_Linux//agent_tiny/lwm2m_client/agenttiny.c **** 
 2199              		.loc 1 541 0 is_stmt 1
 2200 00af 5B       		popq	%rbx
 2201              	.LCFI72:
 2202              		.cfi_def_cfa_offset 24
 2203 00b0 5D       		popq	%rbp
 2204              	.LCFI73:
 2205              		.cfi_def_cfa_offset 16
 2206 00b1 415C     		popq	%r12
 2207              	.LCFI74:
 2208              		.cfi_def_cfa_offset 8
 2209 00b3 C3       		ret
 2210              		.cfi_endproc
 2211              	.LFE82:
 2213              		.section	.text.atiny_set_reboot_flag,"ax",@progbits
 2214              		.globl	atiny_set_reboot_flag
 2216              	atiny_set_reboot_flag:
 2217              	.LFB90:
 747:/home/baikal/workspace/C50/Huawei_IoT_Agent_Tiny_SDK_Linux//agent_tiny/lwm2m_client/agenttiny.c **** 
 748:/home/baikal/workspace/C50/Huawei_IoT_Agent_Tiny_SDK_Linux//agent_tiny/lwm2m_client/agenttiny.c **** void atiny_set_reboot_flag()
 749:/home/baikal/workspace/C50/Huawei_IoT_Agent_Tiny_SDK_Linux//agent_tiny/lwm2m_client/agenttiny.c **** {
 2218              		.loc 1 749 0
 2219              		.cfi_startproc
 750:/home/baikal/workspace/C50/Huawei_IoT_Agent_Tiny_SDK_Linux//agent_tiny/lwm2m_client/agenttiny.c ****     g_reboot = true;
 2220              		.loc 1 750 0
 2221 0000 C7050000 		movl	$1, g_reboot(%rip)
 2221      00000100 
 2221      0000
 2222 000a C3       		ret
 2223              		.cfi_endproc
 2224              	.LFE90:
 2226              		.section	.rodata.__FUNCTION__.5390,"a",@progbits
GAS LISTING /tmp/ccZJW6Kf.s 			page 71


 2227              		.align 16
 2230              	__FUNCTION__.5390:
 2231 0000 6174696E 		.string	"atiny_reconnect"
 2231      795F7265 
 2231      636F6E6E 
 2231      65637400 
 2232              		.section	.rodata.__FUNCTION__.5380,"a",@progbits
 2233              		.align 16
 2236              	__FUNCTION__.5380:
 2237 0000 6174696E 		.string	"atiny_data_change"
 2237      795F6461 
 2237      74615F63 
 2237      68616E67 
 2237      6500
 2238              		.section	.rodata.__FUNCTION__.5369,"a",@progbits
 2239              		.align 16
 2242              	__FUNCTION__.5369:
 2243 0000 6174696E 		.string	"atiny_data_report"
 2243      795F6461 
 2243      74615F72 
 2243      65706F72 
 2243      7400
 2244              		.section	.rodata.__FUNCTION__.5311,"a",@progbits
 2245              		.align 8
 2248              	__FUNCTION__.5311:
 2249 0000 6C776D32 		.string	"lwm2m_poll"
 2249      6D5F706F 
 2249      6C6C00
 2250              		.section	.rodata.__FUNCTION__.5345,"a",@progbits
 2251              		.align 16
 2254              	__FUNCTION__.5345:
 2255 0000 6174696E 		.string	"atiny_handle_reconnect"
 2255      795F6861 
 2255      6E646C65 
 2255      5F726563 
 2255      6F6E6E65 
 2256              		.section	.rodata.__FUNCTION__.5341,"a",@progbits
 2257              		.align 16
 2260              	__FUNCTION__.5341:
 2261 0000 6174696E 		.string	"atiny_connection_err_notify"
 2261      795F636F 
 2261      6E6E6563 
 2261      74696F6E 
 2261      5F657272 
 2262              		.section	.rodata.__FUNCTION__.5353,"a",@progbits
 2263              		.align 8
 2266              	__FUNCTION__.5353:
 2267 0000 6174696E 		.string	"atiny_bind"
 2267      795F6269 
 2267      6E6400
 2268              		.section	.rodata.__FUNCTION__.5301,"a",@progbits
 2269              		.align 16
 2272              	__FUNCTION__.5301:
 2273 0000 6174696E 		.string	"atiny_init_objects"
 2273      795F696E 
 2273      69745F6F 
 2273      626A6563 
GAS LISTING /tmp/ccZJW6Kf.s 			page 72


 2273      747300
 2274              		.section	.rodata.__FUNCTION__.5281,"a",@progbits
 2275              		.align 8
 2278              	__FUNCTION__.5281:
 2279 0000 6174696E 		.string	"atiny_init"
 2279      795F696E 
 2279      697400
 2280              		.section	.bss.g_atiny_handle,"aw",@nobits
 2281              		.align 32
 2284              	g_atiny_handle:
 2285 0000 00000000 		.zero	224
 2285      00000000 
 2285      00000000 
 2285      00000000 
 2285      00000000 
 2286              		.globl	g_reboot
 2287              		.section	.bss.g_reboot,"aw",@nobits
 2288              		.align 4
 2291              	g_reboot:
 2292 0000 00000000 		.zero	4
 2293              		.text
 2294              	.Letext0:
 2295              		.file 4 "/usr/include/stdint.h"
 2296              		.file 5 "/usr/lib/gcc/x86_64-linux-gnu/5/include/stddef.h"
 2297              		.file 6 "/usr/include/x86_64-linux-gnu/bits/types.h"
 2298              		.file 7 "/usr/include/time.h"
 2299              		.file 8 "/home/baikal/workspace/C50/Huawei_IoT_Agent_Tiny_SDK_Linux//lwm2m/core/er-coap-13/er-coap
 2300              		.file 9 "/usr/include/libio.h"
 2301              		.file 10 "/home/baikal/workspace/C50/Huawei_IoT_Agent_Tiny_SDK_Linux//lwm2m/core/liblwm2m.h"
 2302              		.file 11 "/home/baikal/workspace/C50/Huawei_IoT_Agent_Tiny_SDK_Linux//agent_tiny/lwm2m_client/atin
 2303              		.file 12 "/home/baikal/workspace/C50/Huawei_IoT_Agent_Tiny_SDK_Linux//agent_tiny/lwm2m_client/agen
 2304              		.file 13 "/home/baikal/workspace/C50/Huawei_IoT_Agent_Tiny_SDK_Linux//agent_tiny/lwm2m_client/conn
 2305              		.file 14 "/home/baikal/workspace/C50/Huawei_IoT_Agent_Tiny_SDK_Linux//agent_tiny/lwm2m_client/obje
 2306              		.file 15 "/home/baikal/workspace/C50/Huawei_IoT_Agent_Tiny_SDK_Linux//lwm2m/core/internals.h"
 2307              		.file 16 "/usr/include/stdio.h"
 2308              		.file 17 "/home/baikal/workspace/C50/Huawei_IoT_Agent_Tiny_SDK_Linux//agent_tiny/osadapter/atiny_a
GAS LISTING /tmp/ccZJW6Kf.s 			page 73


DEFINED SYMBOLS
                            *ABS*:0000000000000000 agenttiny.c
     /tmp/ccZJW6Kf.s:6      .text.atiny_check_bootstrap_init_param:0000000000000000 atiny_check_bootstrap_init_param
     /tmp/ccZJW6Kf.s:79     .text.observe_handle_ack:0000000000000000 observe_handle_ack
     /tmp/ccZJW6Kf.s:137    .text.atiny_event_handle:0000000000000000 atiny_event_handle
     /tmp/ccZJW6Kf.s:258    .text.atiny_handle_reconnect:0000000000000000 atiny_handle_reconnect
     /tmp/ccZJW6Kf.s:2254   .rodata.__FUNCTION__.5345:0000000000000000 __FUNCTION__.5345
     /tmp/ccZJW6Kf.s:317    .text.lwm2m_poll:0000000000000000 lwm2m_poll
     /tmp/ccZJW6Kf.s:2248   .rodata.__FUNCTION__.5311:0000000000000000 __FUNCTION__.5311
     /tmp/ccZJW6Kf.s:455    .text.atiny_init:0000000000000000 atiny_init
     /tmp/ccZJW6Kf.s:2278   .rodata.__FUNCTION__.5281:0000000000000000 __FUNCTION__.5281
     /tmp/ccZJW6Kf.s:2284   .bss.g_atiny_handle:0000000000000000 g_atiny_handle
     /tmp/ccZJW6Kf.s:660    .text.atiny_set_bootstrap_sequence_state:0000000000000000 atiny_set_bootstrap_sequence_state
     /tmp/ccZJW6Kf.s:737    .text.atiny_init_objects:0000000000000000 atiny_init_objects
     /tmp/ccZJW6Kf.s:2272   .rodata.__FUNCTION__.5301:0000000000000000 __FUNCTION__.5301
     /tmp/ccZJW6Kf.s:1156   .text.atiny_destroy:0000000000000000 atiny_destroy
     /tmp/ccZJW6Kf.s:1265   .text.reboot_check:0000000000000000 reboot_check
     /tmp/ccZJW6Kf.s:2291   .bss.g_reboot:0000000000000000 g_reboot
     /tmp/ccZJW6Kf.s:1313   .text.atiny_bind:0000000000000000 atiny_bind
     /tmp/ccZJW6Kf.s:2266   .rodata.__FUNCTION__.5353:0000000000000000 __FUNCTION__.5353
     /tmp/ccZJW6Kf.s:2104   .text.atiny_connection_err_notify:0000000000000000 atiny_connection_err_notify
     /tmp/ccZJW6Kf.s:1617   .text.atiny_deinit:0000000000000000 atiny_deinit
     /tmp/ccZJW6Kf.s:1670   .text.atiny_data_report:0000000000000000 atiny_data_report
     /tmp/ccZJW6Kf.s:2242   .rodata.__FUNCTION__.5369:0000000000000000 __FUNCTION__.5369
     /tmp/ccZJW6Kf.s:1891   .text.atiny_data_change:0000000000000000 atiny_data_change
     /tmp/ccZJW6Kf.s:2236   .rodata.__FUNCTION__.5380:0000000000000000 __FUNCTION__.5380
     /tmp/ccZJW6Kf.s:2031   .text.atiny_reconnect:0000000000000000 atiny_reconnect
     /tmp/ccZJW6Kf.s:2230   .rodata.__FUNCTION__.5390:0000000000000000 __FUNCTION__.5390
     /tmp/ccZJW6Kf.s:2260   .rodata.__FUNCTION__.5341:0000000000000000 __FUNCTION__.5341
     /tmp/ccZJW6Kf.s:2216   .text.atiny_set_reboot_flag:0000000000000000 atiny_set_reboot_flag

UNDEFINED SYMBOLS
atiny_event_notify
atiny_clear_rpt_data
lwm2m_reconnect
atiny_get_log_level
atiny_gettime_ms
atiny_get_log_level_name
atiny_printf
lwm2m_buffer_recv
stderr
output_buffer
lwm2m_handle_packet
atiny_init_rpt
atiny_mutex_create
atiny_mutex_lock
lwm2m_init
lwm2m_free
get_security_object
get_server_object
get_object_device
get_object_firmware
get_object_conn_m
get_binary_app_data_object
lwm2m_configure
clean_security_object
clean_server_object
GAS LISTING /tmp/ccZJW6Kf.s 			page 74


free_object_device
free_object_firmware
free_object_conn_m
free_binary_app_data_object
atiny_destroy_rpt
atiny_mutex_destroy
lwm2m_close
atiny_mutex_unlock
atiny_cmd_ioctl
lwm2m_register_observe_ack_call_back
lwm2m_register_event_handler
lwm2m_register_connection_err_notify
lwm2m_malloc
atiny_step_rpt
lwm2m_step
lwm2m_stringToUri
memcpy
atiny_queue_rpt_data
lwm2m_resource_value_changed
