GAS LISTING /tmp/cc385yI2.s 			page 1


   1              		.file	"agent_tiny_cmd_ioctl.c"
   2              		.text
   3              	.Ltext0:
   4              		.section	.rodata.str1.1,"aMS",@progbits,1
   5              	.LC0:
   6 0000 4F70656E 		.string	"Open Mobile Alliance"
   6      204D6F62 
   6      696C6520 
   6      416C6C69 
   6      616E6365 
   7              		.section	.text.atiny_get_manufacturer,"ax",@progbits
   8              		.globl	atiny_get_manufacturer
  10              	atiny_get_manufacturer:
  11              	.LFB62:
  12              		.file 1 "/home/baikal/workspace/C50/Huawei_IoT_Agent_Tiny_SDK_Linux//agent_tiny/examples/agent_tin
   1:/home/baikal/workspace/C50/Huawei_IoT_Agent_Tiny_SDK_Linux//agent_tiny/examples/agent_tiny_cmd_ioctl.c **** /*----------------------------------------------------------------------------
   2:/home/baikal/workspace/C50/Huawei_IoT_Agent_Tiny_SDK_Linux//agent_tiny/examples/agent_tiny_cmd_ioctl.c ****  * Copyright (c) <2016-2018>, <Huawei Technologies Co., Ltd>
   3:/home/baikal/workspace/C50/Huawei_IoT_Agent_Tiny_SDK_Linux//agent_tiny/examples/agent_tiny_cmd_ioctl.c ****  * All rights reserved.
   4:/home/baikal/workspace/C50/Huawei_IoT_Agent_Tiny_SDK_Linux//agent_tiny/examples/agent_tiny_cmd_ioctl.c ****  * Redistribution and use in source and binary forms, with or without modification,
   5:/home/baikal/workspace/C50/Huawei_IoT_Agent_Tiny_SDK_Linux//agent_tiny/examples/agent_tiny_cmd_ioctl.c ****  * are permitted provided that the following conditions are met:
   6:/home/baikal/workspace/C50/Huawei_IoT_Agent_Tiny_SDK_Linux//agent_tiny/examples/agent_tiny_cmd_ioctl.c ****  * 1. Redistributions of source code must retain the above copyright notice, this list of
   7:/home/baikal/workspace/C50/Huawei_IoT_Agent_Tiny_SDK_Linux//agent_tiny/examples/agent_tiny_cmd_ioctl.c ****  * conditions and the following disclaimer.
   8:/home/baikal/workspace/C50/Huawei_IoT_Agent_Tiny_SDK_Linux//agent_tiny/examples/agent_tiny_cmd_ioctl.c ****  * 2. Redistributions in binary form must reproduce the above copyright notice, this list
   9:/home/baikal/workspace/C50/Huawei_IoT_Agent_Tiny_SDK_Linux//agent_tiny/examples/agent_tiny_cmd_ioctl.c ****  * of conditions and the following disclaimer in the documentation and/or other materials
  10:/home/baikal/workspace/C50/Huawei_IoT_Agent_Tiny_SDK_Linux//agent_tiny/examples/agent_tiny_cmd_ioctl.c ****  * provided with the distribution.
  11:/home/baikal/workspace/C50/Huawei_IoT_Agent_Tiny_SDK_Linux//agent_tiny/examples/agent_tiny_cmd_ioctl.c ****  * 3. Neither the name of the copyright holder nor the names of its contributors may be used
  12:/home/baikal/workspace/C50/Huawei_IoT_Agent_Tiny_SDK_Linux//agent_tiny/examples/agent_tiny_cmd_ioctl.c ****  * to endorse or promote products derived from this software without specific prior written
  13:/home/baikal/workspace/C50/Huawei_IoT_Agent_Tiny_SDK_Linux//agent_tiny/examples/agent_tiny_cmd_ioctl.c ****  * permission.
  14:/home/baikal/workspace/C50/Huawei_IoT_Agent_Tiny_SDK_Linux//agent_tiny/examples/agent_tiny_cmd_ioctl.c ****  * THIS SOFTWARE IS PROVIDED BY THE COPYRIGHT HOLDERS AND CONTRIBUTORS
  15:/home/baikal/workspace/C50/Huawei_IoT_Agent_Tiny_SDK_Linux//agent_tiny/examples/agent_tiny_cmd_ioctl.c ****  * "AS IS" AND ANY EXPRESS OR IMPLIED WARRANTIES, INCLUDING, BUT NOT LIMITED TO,
  16:/home/baikal/workspace/C50/Huawei_IoT_Agent_Tiny_SDK_Linux//agent_tiny/examples/agent_tiny_cmd_ioctl.c ****  * THE IMPLIED WARRANTIES OF MERCHANTABILITY AND FITNESS FOR A PARTICULAR
  17:/home/baikal/workspace/C50/Huawei_IoT_Agent_Tiny_SDK_Linux//agent_tiny/examples/agent_tiny_cmd_ioctl.c ****  * PURPOSE ARE DISCLAIMED. IN NO EVENT SHALL THE COPYRIGHT HOLDER OR
  18:/home/baikal/workspace/C50/Huawei_IoT_Agent_Tiny_SDK_Linux//agent_tiny/examples/agent_tiny_cmd_ioctl.c ****  * CONTRIBUTORS BE LIABLE FOR ANY DIRECT, INDIRECT, INCIDENTAL, SPECIAL,
  19:/home/baikal/workspace/C50/Huawei_IoT_Agent_Tiny_SDK_Linux//agent_tiny/examples/agent_tiny_cmd_ioctl.c ****  * EXEMPLARY, OR CONSEQUENTIAL DAMAGES (INCLUDING, BUT NOT LIMITED TO,
  20:/home/baikal/workspace/C50/Huawei_IoT_Agent_Tiny_SDK_Linux//agent_tiny/examples/agent_tiny_cmd_ioctl.c ****  * PROCUREMENT OF SUBSTITUTE GOODS OR SERVICES; LOSS OF USE, DATA, OR PROFITS;
  21:/home/baikal/workspace/C50/Huawei_IoT_Agent_Tiny_SDK_Linux//agent_tiny/examples/agent_tiny_cmd_ioctl.c ****  * OR BUSINESS INTERRUPTION) HOWEVER CAUSED AND ON ANY THEORY OF LIABILITY,
  22:/home/baikal/workspace/C50/Huawei_IoT_Agent_Tiny_SDK_Linux//agent_tiny/examples/agent_tiny_cmd_ioctl.c ****  * WHETHER IN CONTRACT, STRICT LIABILITY, OR TORT (INCLUDING NEGLIGENCE OR
  23:/home/baikal/workspace/C50/Huawei_IoT_Agent_Tiny_SDK_Linux//agent_tiny/examples/agent_tiny_cmd_ioctl.c ****  * OTHERWISE) ARISING IN ANY WAY OUT OF THE USE OF THIS SOFTWARE, EVEN IF
  24:/home/baikal/workspace/C50/Huawei_IoT_Agent_Tiny_SDK_Linux//agent_tiny/examples/agent_tiny_cmd_ioctl.c ****  * ADVISED OF THE POSSIBILITY OF SUCH DAMAGE.
  25:/home/baikal/workspace/C50/Huawei_IoT_Agent_Tiny_SDK_Linux//agent_tiny/examples/agent_tiny_cmd_ioctl.c ****  *---------------------------------------------------------------------------*/
  26:/home/baikal/workspace/C50/Huawei_IoT_Agent_Tiny_SDK_Linux//agent_tiny/examples/agent_tiny_cmd_ioctl.c **** /*----------------------------------------------------------------------------
  27:/home/baikal/workspace/C50/Huawei_IoT_Agent_Tiny_SDK_Linux//agent_tiny/examples/agent_tiny_cmd_ioctl.c ****  * Notice of Export Control Law
  28:/home/baikal/workspace/C50/Huawei_IoT_Agent_Tiny_SDK_Linux//agent_tiny/examples/agent_tiny_cmd_ioctl.c ****  * ===============================================
  29:/home/baikal/workspace/C50/Huawei_IoT_Agent_Tiny_SDK_Linux//agent_tiny/examples/agent_tiny_cmd_ioctl.c ****  * Huawei LiteOS may be subject to applicable export control laws and regulations, which might
  30:/home/baikal/workspace/C50/Huawei_IoT_Agent_Tiny_SDK_Linux//agent_tiny/examples/agent_tiny_cmd_ioctl.c ****  * include those applicable to Huawei LiteOS of U.S. and the country in which you are located.
  31:/home/baikal/workspace/C50/Huawei_IoT_Agent_Tiny_SDK_Linux//agent_tiny/examples/agent_tiny_cmd_ioctl.c ****  * Import, export and usage of Huawei LiteOS in any manner by you shall be in compliance with such
  32:/home/baikal/workspace/C50/Huawei_IoT_Agent_Tiny_SDK_Linux//agent_tiny/examples/agent_tiny_cmd_ioctl.c ****  * applicable export control laws and regulations.
  33:/home/baikal/workspace/C50/Huawei_IoT_Agent_Tiny_SDK_Linux//agent_tiny/examples/agent_tiny_cmd_ioctl.c ****  *---------------------------------------------------------------------------*/
  34:/home/baikal/workspace/C50/Huawei_IoT_Agent_Tiny_SDK_Linux//agent_tiny/examples/agent_tiny_cmd_ioctl.c **** 
  35:/home/baikal/workspace/C50/Huawei_IoT_Agent_Tiny_SDK_Linux//agent_tiny/examples/agent_tiny_cmd_ioctl.c **** #include "agent_tiny_cmd_ioctl.h"
  36:/home/baikal/workspace/C50/Huawei_IoT_Agent_Tiny_SDK_Linux//agent_tiny/examples/agent_tiny_cmd_ioctl.c **** #include "agenttiny.h"
  37:/home/baikal/workspace/C50/Huawei_IoT_Agent_Tiny_SDK_Linux//agent_tiny/examples/agent_tiny_cmd_ioctl.c **** #include "atiny_adapter.h"
  38:/home/baikal/workspace/C50/Huawei_IoT_Agent_Tiny_SDK_Linux//agent_tiny/examples/agent_tiny_cmd_ioctl.c **** #ifdef CONFIG_FEATURE_FOTA
  39:/home/baikal/workspace/C50/Huawei_IoT_Agent_Tiny_SDK_Linux//agent_tiny/examples/agent_tiny_cmd_ioctl.c **** #include "fota_package_storage_device.h"
  40:/home/baikal/workspace/C50/Huawei_IoT_Agent_Tiny_SDK_Linux//agent_tiny/examples/agent_tiny_cmd_ioctl.c **** #endif
  41:/home/baikal/workspace/C50/Huawei_IoT_Agent_Tiny_SDK_Linux//agent_tiny/examples/agent_tiny_cmd_ioctl.c **** 
  42:/home/baikal/workspace/C50/Huawei_IoT_Agent_Tiny_SDK_Linux//agent_tiny/examples/agent_tiny_cmd_ioctl.c **** #define ATINY_POWER_VOLTAGE     3800
GAS LISTING /tmp/cc385yI2.s 			page 2


  43:/home/baikal/workspace/C50/Huawei_IoT_Agent_Tiny_SDK_Linux//agent_tiny/examples/agent_tiny_cmd_ioctl.c **** #define ATINY_BATTERY_LEVEL     90
  44:/home/baikal/workspace/C50/Huawei_IoT_Agent_Tiny_SDK_Linux//agent_tiny/examples/agent_tiny_cmd_ioctl.c **** #define ATINY_MEMORY_FREE       50
  45:/home/baikal/workspace/C50/Huawei_IoT_Agent_Tiny_SDK_Linux//agent_tiny/examples/agent_tiny_cmd_ioctl.c **** #define ATINY_NETWORK_BEARER    5
  46:/home/baikal/workspace/C50/Huawei_IoT_Agent_Tiny_SDK_Linux//agent_tiny/examples/agent_tiny_cmd_ioctl.c **** #define ATINY_SIGNAL_STRENGTH   90
  47:/home/baikal/workspace/C50/Huawei_IoT_Agent_Tiny_SDK_Linux//agent_tiny/examples/agent_tiny_cmd_ioctl.c **** #define ATINY_CELL_ID           21103
  48:/home/baikal/workspace/C50/Huawei_IoT_Agent_Tiny_SDK_Linux//agent_tiny/examples/agent_tiny_cmd_ioctl.c **** #define ATINY_LINK_QUALITY      98
  49:/home/baikal/workspace/C50/Huawei_IoT_Agent_Tiny_SDK_Linux//agent_tiny/examples/agent_tiny_cmd_ioctl.c **** #define ATINY_LINK_UTRILIZATION 10
  50:/home/baikal/workspace/C50/Huawei_IoT_Agent_Tiny_SDK_Linux//agent_tiny/examples/agent_tiny_cmd_ioctl.c **** #define ATINY_POWER_SOURCE      1
  51:/home/baikal/workspace/C50/Huawei_IoT_Agent_Tiny_SDK_Linux//agent_tiny/examples/agent_tiny_cmd_ioctl.c **** #define ATINY_POWER_CURRENT     125
  52:/home/baikal/workspace/C50/Huawei_IoT_Agent_Tiny_SDK_Linux//agent_tiny/examples/agent_tiny_cmd_ioctl.c **** #define ATINY_LATITUDE          27.986065f
  53:/home/baikal/workspace/C50/Huawei_IoT_Agent_Tiny_SDK_Linux//agent_tiny/examples/agent_tiny_cmd_ioctl.c **** #define ATINY_LONGITUDE         86.922623f
  54:/home/baikal/workspace/C50/Huawei_IoT_Agent_Tiny_SDK_Linux//agent_tiny/examples/agent_tiny_cmd_ioctl.c **** #define ATINY_ALTITUDE          8495.0000f
  55:/home/baikal/workspace/C50/Huawei_IoT_Agent_Tiny_SDK_Linux//agent_tiny/examples/agent_tiny_cmd_ioctl.c **** #define ATINY_RADIUS            0.0f
  56:/home/baikal/workspace/C50/Huawei_IoT_Agent_Tiny_SDK_Linux//agent_tiny/examples/agent_tiny_cmd_ioctl.c **** #define ATINY_SPEED             0.0f
  57:/home/baikal/workspace/C50/Huawei_IoT_Agent_Tiny_SDK_Linux//agent_tiny/examples/agent_tiny_cmd_ioctl.c **** #define ATINY_TIME_CODE         1367491215
  58:/home/baikal/workspace/C50/Huawei_IoT_Agent_Tiny_SDK_Linux//agent_tiny/examples/agent_tiny_cmd_ioctl.c **** 
  59:/home/baikal/workspace/C50/Huawei_IoT_Agent_Tiny_SDK_Linux//agent_tiny/examples/agent_tiny_cmd_ioctl.c **** int atiny_get_manufacturer(char* manu, int len)
  60:/home/baikal/workspace/C50/Huawei_IoT_Agent_Tiny_SDK_Linux//agent_tiny/examples/agent_tiny_cmd_ioctl.c **** {
  13              		.loc 1 60 0
  14              		.cfi_startproc
  15              	.LVL0:
  16 0000 4883EC08 		subq	$8, %rsp
  17              	.LCFI0:
  18              		.cfi_def_cfa_offset 16
  61:/home/baikal/workspace/C50/Huawei_IoT_Agent_Tiny_SDK_Linux//agent_tiny/examples/agent_tiny_cmd_ioctl.c ****     (void)atiny_snprintf(manu, len, "Open Mobile Alliance");
  19              		.loc 1 61 0
  20 0004 BA000000 		movl	$.LC0, %edx
  20      00
  21 0009 B8000000 		movl	$0, %eax
  21      00
  22 000e E8000000 		call	atiny_snprintf
  22      00
  23              	.LVL1:
  62:/home/baikal/workspace/C50/Huawei_IoT_Agent_Tiny_SDK_Linux//agent_tiny/examples/agent_tiny_cmd_ioctl.c ****     return ATINY_OK;
  63:/home/baikal/workspace/C50/Huawei_IoT_Agent_Tiny_SDK_Linux//agent_tiny/examples/agent_tiny_cmd_ioctl.c **** }
  24              		.loc 1 63 0
  25 0013 B8000000 		movl	$0, %eax
  25      00
  26 0018 4883C408 		addq	$8, %rsp
  27              	.LCFI1:
  28              		.cfi_def_cfa_offset 8
  29 001c C3       		ret
  30              		.cfi_endproc
  31              	.LFE62:
  33              		.section	.rodata.str1.1
  34              	.LC1:
  35 0015 4C696768 		.string	"Lightweight M2M Client"
  35      74776569 
  35      67687420 
  35      4D324D20 
  35      436C6965 
  36              		.section	.text.atiny_get_model_number,"ax",@progbits
  37              		.globl	atiny_get_model_number
  39              	atiny_get_model_number:
  40              	.LFB63:
  64:/home/baikal/workspace/C50/Huawei_IoT_Agent_Tiny_SDK_Linux//agent_tiny/examples/agent_tiny_cmd_ioctl.c **** 
  65:/home/baikal/workspace/C50/Huawei_IoT_Agent_Tiny_SDK_Linux//agent_tiny/examples/agent_tiny_cmd_ioctl.c **** int atiny_get_model_number(char* mode,int len)
GAS LISTING /tmp/cc385yI2.s 			page 3


  66:/home/baikal/workspace/C50/Huawei_IoT_Agent_Tiny_SDK_Linux//agent_tiny/examples/agent_tiny_cmd_ioctl.c **** {
  41              		.loc 1 66 0
  42              		.cfi_startproc
  43              	.LVL2:
  44 0000 4883EC08 		subq	$8, %rsp
  45              	.LCFI2:
  46              		.cfi_def_cfa_offset 16
  67:/home/baikal/workspace/C50/Huawei_IoT_Agent_Tiny_SDK_Linux//agent_tiny/examples/agent_tiny_cmd_ioctl.c ****     (void)atiny_snprintf(mode, len, "Lightweight M2M Client");
  47              		.loc 1 67 0
  48 0004 BA000000 		movl	$.LC1, %edx
  48      00
  49 0009 B8000000 		movl	$0, %eax
  49      00
  50 000e E8000000 		call	atiny_snprintf
  50      00
  51              	.LVL3:
  68:/home/baikal/workspace/C50/Huawei_IoT_Agent_Tiny_SDK_Linux//agent_tiny/examples/agent_tiny_cmd_ioctl.c ****     return ATINY_OK;
  69:/home/baikal/workspace/C50/Huawei_IoT_Agent_Tiny_SDK_Linux//agent_tiny/examples/agent_tiny_cmd_ioctl.c **** }
  52              		.loc 1 69 0
  53 0013 B8000000 		movl	$0, %eax
  53      00
  54 0018 4883C408 		addq	$8, %rsp
  55              	.LCFI3:
  56              		.cfi_def_cfa_offset 8
  57 001c C3       		ret
  58              		.cfi_endproc
  59              	.LFE63:
  61              		.section	.rodata.str1.1
  62              	.LC2:
  63 002c 33343530 		.string	"345000123"
  63      30303132 
  63      3300
  64              		.section	.text.atiny_get_serial_number,"ax",@progbits
  65              		.globl	atiny_get_serial_number
  67              	atiny_get_serial_number:
  68              	.LFB64:
  70:/home/baikal/workspace/C50/Huawei_IoT_Agent_Tiny_SDK_Linux//agent_tiny/examples/agent_tiny_cmd_ioctl.c **** 
  71:/home/baikal/workspace/C50/Huawei_IoT_Agent_Tiny_SDK_Linux//agent_tiny/examples/agent_tiny_cmd_ioctl.c **** int atiny_get_serial_number(char* num,int len)
  72:/home/baikal/workspace/C50/Huawei_IoT_Agent_Tiny_SDK_Linux//agent_tiny/examples/agent_tiny_cmd_ioctl.c **** {
  69              		.loc 1 72 0
  70              		.cfi_startproc
  71              	.LVL4:
  72 0000 4883EC08 		subq	$8, %rsp
  73              	.LCFI4:
  74              		.cfi_def_cfa_offset 16
  73:/home/baikal/workspace/C50/Huawei_IoT_Agent_Tiny_SDK_Linux//agent_tiny/examples/agent_tiny_cmd_ioctl.c ****     (void)atiny_snprintf(num, len, "345000123");
  75              		.loc 1 73 0
  76 0004 BA000000 		movl	$.LC2, %edx
  76      00
  77 0009 B8000000 		movl	$0, %eax
  77      00
  78 000e E8000000 		call	atiny_snprintf
  78      00
  79              	.LVL5:
  74:/home/baikal/workspace/C50/Huawei_IoT_Agent_Tiny_SDK_Linux//agent_tiny/examples/agent_tiny_cmd_ioctl.c ****     return ATINY_OK;
  75:/home/baikal/workspace/C50/Huawei_IoT_Agent_Tiny_SDK_Linux//agent_tiny/examples/agent_tiny_cmd_ioctl.c **** }
  80              		.loc 1 75 0
GAS LISTING /tmp/cc385yI2.s 			page 4


  81 0013 B8000000 		movl	$0, %eax
  81      00
  82 0018 4883C408 		addq	$8, %rsp
  83              	.LCFI5:
  84              		.cfi_def_cfa_offset 8
  85 001c C3       		ret
  86              		.cfi_endproc
  87              	.LFE64:
  89              		.section	.rodata.str1.1
  90              	.LC3:
  91 0036 6578616D 		.string	"example_ver001"
  91      706C655F 
  91      76657230 
  91      303100
  92              		.section	.text.atiny_get_firmware_ver,"ax",@progbits
  93              		.globl	atiny_get_firmware_ver
  95              	atiny_get_firmware_ver:
  96              	.LFB65:
  76:/home/baikal/workspace/C50/Huawei_IoT_Agent_Tiny_SDK_Linux//agent_tiny/examples/agent_tiny_cmd_ioctl.c **** 
  77:/home/baikal/workspace/C50/Huawei_IoT_Agent_Tiny_SDK_Linux//agent_tiny/examples/agent_tiny_cmd_ioctl.c **** int atiny_get_firmware_ver(char* version, int len)
  78:/home/baikal/workspace/C50/Huawei_IoT_Agent_Tiny_SDK_Linux//agent_tiny/examples/agent_tiny_cmd_ioctl.c **** {
  97              		.loc 1 78 0
  98              		.cfi_startproc
  99              	.LVL6:
 100 0000 4883EC08 		subq	$8, %rsp
 101              	.LCFI6:
 102              		.cfi_def_cfa_offset 16
  79:/home/baikal/workspace/C50/Huawei_IoT_Agent_Tiny_SDK_Linux//agent_tiny/examples/agent_tiny_cmd_ioctl.c ****     (void)atiny_snprintf(version, len, "example_ver001");
 103              		.loc 1 79 0
 104 0004 BA000000 		movl	$.LC3, %edx
 104      00
 105 0009 B8000000 		movl	$0, %eax
 105      00
 106 000e E8000000 		call	atiny_snprintf
 106      00
 107              	.LVL7:
  80:/home/baikal/workspace/C50/Huawei_IoT_Agent_Tiny_SDK_Linux//agent_tiny/examples/agent_tiny_cmd_ioctl.c ****     return ATINY_OK;
  81:/home/baikal/workspace/C50/Huawei_IoT_Agent_Tiny_SDK_Linux//agent_tiny/examples/agent_tiny_cmd_ioctl.c **** }
 108              		.loc 1 81 0
 109 0013 B8000000 		movl	$0, %eax
 109      00
 110 0018 4883C408 		addq	$8, %rsp
 111              	.LCFI7:
 112              		.cfi_def_cfa_offset 8
 113 001c C3       		ret
 114              		.cfi_endproc
 115              	.LFE65:
 117              		.section	.rodata.str1.1
 118              	.LC4:
 119 0045 64657669 		.string	"device is rebooting......\r\n"
 119      63652069 
 119      73207265 
 119      626F6F74 
 119      696E672E 
 120              		.section	.text.atiny_do_dev_reboot,"ax",@progbits
 121              		.globl	atiny_do_dev_reboot
 123              	atiny_do_dev_reboot:
GAS LISTING /tmp/cc385yI2.s 			page 5


 124              	.LFB66:
  82:/home/baikal/workspace/C50/Huawei_IoT_Agent_Tiny_SDK_Linux//agent_tiny/examples/agent_tiny_cmd_ioctl.c **** 
  83:/home/baikal/workspace/C50/Huawei_IoT_Agent_Tiny_SDK_Linux//agent_tiny/examples/agent_tiny_cmd_ioctl.c **** int atiny_do_dev_reboot(void)
  84:/home/baikal/workspace/C50/Huawei_IoT_Agent_Tiny_SDK_Linux//agent_tiny/examples/agent_tiny_cmd_ioctl.c **** {
 125              		.loc 1 84 0
 126              		.cfi_startproc
 127 0000 4883EC08 		subq	$8, %rsp
 128              	.LCFI8:
 129              		.cfi_def_cfa_offset 16
  85:/home/baikal/workspace/C50/Huawei_IoT_Agent_Tiny_SDK_Linux//agent_tiny/examples/agent_tiny_cmd_ioctl.c ****     (void)atiny_printf("device is rebooting......\r\n");
 130              		.loc 1 85 0
 131 0004 BF000000 		movl	$.LC4, %edi
 131      00
 132 0009 B8000000 		movl	$0, %eax
 132      00
 133 000e E8000000 		call	atiny_printf
 133      00
 134              	.LVL8:
  86:/home/baikal/workspace/C50/Huawei_IoT_Agent_Tiny_SDK_Linux//agent_tiny/examples/agent_tiny_cmd_ioctl.c ****     //LOS_TaskDelay(1000);
  87:/home/baikal/workspace/C50/Huawei_IoT_Agent_Tiny_SDK_Linux//agent_tiny/examples/agent_tiny_cmd_ioctl.c ****     atiny_reboot();
 135              		.loc 1 87 0
 136 0013 E8000000 		call	atiny_reboot
 136      00
 137              	.LVL9:
  88:/home/baikal/workspace/C50/Huawei_IoT_Agent_Tiny_SDK_Linux//agent_tiny/examples/agent_tiny_cmd_ioctl.c ****     return ATINY_OK;
  89:/home/baikal/workspace/C50/Huawei_IoT_Agent_Tiny_SDK_Linux//agent_tiny/examples/agent_tiny_cmd_ioctl.c **** }
 138              		.loc 1 89 0
 139 0018 B8000000 		movl	$0, %eax
 139      00
 140 001d 4883C408 		addq	$8, %rsp
 141              	.LCFI9:
 142              		.cfi_def_cfa_offset 8
 143 0021 C3       		ret
 144              		.cfi_endproc
 145              	.LFE66:
 147              		.section	.rodata.str1.1
 148              	.LC5:
 149 0061 0A092046 		.string	"\n\t FACTORY RESET\r\n\n"
 149      4143544F 
 149      52592052 
 149      45534554 
 149      0D0A0A00 
 150              		.section	.text.atiny_do_factory_reset,"ax",@progbits
 151              		.globl	atiny_do_factory_reset
 153              	atiny_do_factory_reset:
 154              	.LFB67:
  90:/home/baikal/workspace/C50/Huawei_IoT_Agent_Tiny_SDK_Linux//agent_tiny/examples/agent_tiny_cmd_ioctl.c **** 
  91:/home/baikal/workspace/C50/Huawei_IoT_Agent_Tiny_SDK_Linux//agent_tiny/examples/agent_tiny_cmd_ioctl.c **** int atiny_do_factory_reset(void)
  92:/home/baikal/workspace/C50/Huawei_IoT_Agent_Tiny_SDK_Linux//agent_tiny/examples/agent_tiny_cmd_ioctl.c **** {
 155              		.loc 1 92 0
 156              		.cfi_startproc
 157 0000 4883EC08 		subq	$8, %rsp
 158              	.LCFI10:
 159              		.cfi_def_cfa_offset 16
  93:/home/baikal/workspace/C50/Huawei_IoT_Agent_Tiny_SDK_Linux//agent_tiny/examples/agent_tiny_cmd_ioctl.c ****     (void)atiny_printf("\n\t FACTORY RESET\r\n\n");
 160              		.loc 1 93 0
 161 0004 BF000000 		movl	$.LC5, %edi
GAS LISTING /tmp/cc385yI2.s 			page 6


 161      00
 162 0009 B8000000 		movl	$0, %eax
 162      00
 163 000e E8000000 		call	atiny_printf
 163      00
 164              	.LVL10:
  94:/home/baikal/workspace/C50/Huawei_IoT_Agent_Tiny_SDK_Linux//agent_tiny/examples/agent_tiny_cmd_ioctl.c ****     return ATINY_OK;
  95:/home/baikal/workspace/C50/Huawei_IoT_Agent_Tiny_SDK_Linux//agent_tiny/examples/agent_tiny_cmd_ioctl.c **** }
 165              		.loc 1 95 0
 166 0013 B8000000 		movl	$0, %eax
 166      00
 167 0018 4883C408 		addq	$8, %rsp
 168              	.LCFI11:
 169              		.cfi_def_cfa_offset 8
 170 001c C3       		ret
 171              		.cfi_endproc
 172              	.LFE67:
 174              		.section	.text.atiny_get_power_source,"ax",@progbits
 175              		.globl	atiny_get_power_source
 177              	atiny_get_power_source:
 178              	.LFB68:
  96:/home/baikal/workspace/C50/Huawei_IoT_Agent_Tiny_SDK_Linux//agent_tiny/examples/agent_tiny_cmd_ioctl.c **** 
  97:/home/baikal/workspace/C50/Huawei_IoT_Agent_Tiny_SDK_Linux//agent_tiny/examples/agent_tiny_cmd_ioctl.c **** int atiny_get_power_source(int* arg)
  98:/home/baikal/workspace/C50/Huawei_IoT_Agent_Tiny_SDK_Linux//agent_tiny/examples/agent_tiny_cmd_ioctl.c **** {
 179              		.loc 1 98 0
 180              		.cfi_startproc
 181              	.LVL11:
  99:/home/baikal/workspace/C50/Huawei_IoT_Agent_Tiny_SDK_Linux//agent_tiny/examples/agent_tiny_cmd_ioctl.c ****     *arg = ATINY_POWER_SOURCE;
 182              		.loc 1 99 0
 183 0000 C7070100 		movl	$1, (%rdi)
 183      0000
 100:/home/baikal/workspace/C50/Huawei_IoT_Agent_Tiny_SDK_Linux//agent_tiny/examples/agent_tiny_cmd_ioctl.c ****     return ATINY_OK;
 101:/home/baikal/workspace/C50/Huawei_IoT_Agent_Tiny_SDK_Linux//agent_tiny/examples/agent_tiny_cmd_ioctl.c **** }
 184              		.loc 1 101 0
 185 0006 B8000000 		movl	$0, %eax
 185      00
 186 000b C3       		ret
 187              		.cfi_endproc
 188              	.LFE68:
 190              		.section	.text.atiny_get_source_voltage,"ax",@progbits
 191              		.globl	atiny_get_source_voltage
 193              	atiny_get_source_voltage:
 194              	.LFB69:
 102:/home/baikal/workspace/C50/Huawei_IoT_Agent_Tiny_SDK_Linux//agent_tiny/examples/agent_tiny_cmd_ioctl.c **** 
 103:/home/baikal/workspace/C50/Huawei_IoT_Agent_Tiny_SDK_Linux//agent_tiny/examples/agent_tiny_cmd_ioctl.c **** int atiny_get_source_voltage(int* voltage)
 104:/home/baikal/workspace/C50/Huawei_IoT_Agent_Tiny_SDK_Linux//agent_tiny/examples/agent_tiny_cmd_ioctl.c **** {
 195              		.loc 1 104 0
 196              		.cfi_startproc
 197              	.LVL12:
 105:/home/baikal/workspace/C50/Huawei_IoT_Agent_Tiny_SDK_Linux//agent_tiny/examples/agent_tiny_cmd_ioctl.c ****     *voltage = ATINY_POWER_VOLTAGE;
 198              		.loc 1 105 0
 199 0000 C707D80E 		movl	$3800, (%rdi)
 199      0000
 106:/home/baikal/workspace/C50/Huawei_IoT_Agent_Tiny_SDK_Linux//agent_tiny/examples/agent_tiny_cmd_ioctl.c ****     return ATINY_OK;
 107:/home/baikal/workspace/C50/Huawei_IoT_Agent_Tiny_SDK_Linux//agent_tiny/examples/agent_tiny_cmd_ioctl.c **** }
 200              		.loc 1 107 0
 201 0006 B8000000 		movl	$0, %eax
GAS LISTING /tmp/cc385yI2.s 			page 7


 201      00
 202 000b C3       		ret
 203              		.cfi_endproc
 204              	.LFE69:
 206              		.section	.text.atiny_get_power_current,"ax",@progbits
 207              		.globl	atiny_get_power_current
 209              	atiny_get_power_current:
 210              	.LFB70:
 108:/home/baikal/workspace/C50/Huawei_IoT_Agent_Tiny_SDK_Linux//agent_tiny/examples/agent_tiny_cmd_ioctl.c **** 
 109:/home/baikal/workspace/C50/Huawei_IoT_Agent_Tiny_SDK_Linux//agent_tiny/examples/agent_tiny_cmd_ioctl.c **** int atiny_get_power_current(int* arg)
 110:/home/baikal/workspace/C50/Huawei_IoT_Agent_Tiny_SDK_Linux//agent_tiny/examples/agent_tiny_cmd_ioctl.c **** {
 211              		.loc 1 110 0
 212              		.cfi_startproc
 213              	.LVL13:
 111:/home/baikal/workspace/C50/Huawei_IoT_Agent_Tiny_SDK_Linux//agent_tiny/examples/agent_tiny_cmd_ioctl.c ****     *arg = ATINY_POWER_CURRENT;
 214              		.loc 1 111 0
 215 0000 C7077D00 		movl	$125, (%rdi)
 215      0000
 112:/home/baikal/workspace/C50/Huawei_IoT_Agent_Tiny_SDK_Linux//agent_tiny/examples/agent_tiny_cmd_ioctl.c ****     return ATINY_OK;
 113:/home/baikal/workspace/C50/Huawei_IoT_Agent_Tiny_SDK_Linux//agent_tiny/examples/agent_tiny_cmd_ioctl.c **** }
 216              		.loc 1 113 0
 217 0006 B8000000 		movl	$0, %eax
 217      00
 218 000b C3       		ret
 219              		.cfi_endproc
 220              	.LFE70:
 222              		.section	.text.atiny_get_baterry_level,"ax",@progbits
 223              		.globl	atiny_get_baterry_level
 225              	atiny_get_baterry_level:
 226              	.LFB71:
 114:/home/baikal/workspace/C50/Huawei_IoT_Agent_Tiny_SDK_Linux//agent_tiny/examples/agent_tiny_cmd_ioctl.c **** 
 115:/home/baikal/workspace/C50/Huawei_IoT_Agent_Tiny_SDK_Linux//agent_tiny/examples/agent_tiny_cmd_ioctl.c **** int atiny_get_baterry_level(int* voltage)
 116:/home/baikal/workspace/C50/Huawei_IoT_Agent_Tiny_SDK_Linux//agent_tiny/examples/agent_tiny_cmd_ioctl.c **** {
 227              		.loc 1 116 0
 228              		.cfi_startproc
 229              	.LVL14:
 117:/home/baikal/workspace/C50/Huawei_IoT_Agent_Tiny_SDK_Linux//agent_tiny/examples/agent_tiny_cmd_ioctl.c ****     *voltage = ATINY_BATTERY_LEVEL;
 230              		.loc 1 117 0
 231 0000 C7075A00 		movl	$90, (%rdi)
 231      0000
 118:/home/baikal/workspace/C50/Huawei_IoT_Agent_Tiny_SDK_Linux//agent_tiny/examples/agent_tiny_cmd_ioctl.c ****     return ATINY_OK;
 119:/home/baikal/workspace/C50/Huawei_IoT_Agent_Tiny_SDK_Linux//agent_tiny/examples/agent_tiny_cmd_ioctl.c **** }
 232              		.loc 1 119 0
 233 0006 B8000000 		movl	$0, %eax
 233      00
 234 000b C3       		ret
 235              		.cfi_endproc
 236              	.LFE71:
 238              		.section	.text.atiny_get_memory_free,"ax",@progbits
 239              		.globl	atiny_get_memory_free
 241              	atiny_get_memory_free:
 242              	.LFB72:
 120:/home/baikal/workspace/C50/Huawei_IoT_Agent_Tiny_SDK_Linux//agent_tiny/examples/agent_tiny_cmd_ioctl.c **** 
 121:/home/baikal/workspace/C50/Huawei_IoT_Agent_Tiny_SDK_Linux//agent_tiny/examples/agent_tiny_cmd_ioctl.c **** int atiny_get_memory_free(int* voltage)
 122:/home/baikal/workspace/C50/Huawei_IoT_Agent_Tiny_SDK_Linux//agent_tiny/examples/agent_tiny_cmd_ioctl.c **** {
 243              		.loc 1 122 0
 244              		.cfi_startproc
GAS LISTING /tmp/cc385yI2.s 			page 8


 245              	.LVL15:
 246 0000 53       		pushq	%rbx
 247              	.LCFI12:
 248              		.cfi_def_cfa_offset 16
 249              		.cfi_offset 3, -16
 250 0001 4883EC10 		subq	$16, %rsp
 251              	.LCFI13:
 252              		.cfi_def_cfa_offset 32
 253 0005 4889FB   		movq	%rdi, %rbx
 123:/home/baikal/workspace/C50/Huawei_IoT_Agent_Tiny_SDK_Linux//agent_tiny/examples/agent_tiny_cmd_ioctl.c ****     int tmp;
 124:/home/baikal/workspace/C50/Huawei_IoT_Agent_Tiny_SDK_Linux//agent_tiny/examples/agent_tiny_cmd_ioctl.c ****     (void)atiny_random(&tmp, sizeof(tmp));
 254              		.loc 1 124 0
 255 0008 BE040000 		movl	$4, %esi
 255      00
 256 000d 488D7C24 		leaq	12(%rsp), %rdi
 256      0C
 257              	.LVL16:
 258 0012 E8000000 		call	atiny_random
 258      00
 259              	.LVL17:
 125:/home/baikal/workspace/C50/Huawei_IoT_Agent_Tiny_SDK_Linux//agent_tiny/examples/agent_tiny_cmd_ioctl.c ****     tmp %= 30;
 260              		.loc 1 125 0
 261 0017 8B4C240C 		movl	12(%rsp), %ecx
 262 001b BA898888 		movl	$-2004318071, %edx
 262      88
 263 0020 89C8     		movl	%ecx, %eax
 264 0022 F7EA     		imull	%edx
 265 0024 01CA     		addl	%ecx, %edx
 266 0026 C1FA04   		sarl	$4, %edx
 267 0029 89C8     		movl	%ecx, %eax
 268 002b C1F81F   		sarl	$31, %eax
 269 002e 29C2     		subl	%eax, %edx
 270 0030 8D0412   		leal	(%rdx,%rdx), %eax
 271 0033 C1E205   		sall	$5, %edx
 272 0036 29C2     		subl	%eax, %edx
 273 0038 29D1     		subl	%edx, %ecx
 274 003a 89CA     		movl	%ecx, %edx
 275              	.LVL18:
 126:/home/baikal/workspace/C50/Huawei_IoT_Agent_Tiny_SDK_Linux//agent_tiny/examples/agent_tiny_cmd_ioctl.c ****     *voltage = ATINY_MEMORY_FREE + tmp;
 276              		.loc 1 126 0
 277 003c 83C232   		addl	$50, %edx
 278              	.LVL19:
 279 003f 8913     		movl	%edx, (%rbx)
 127:/home/baikal/workspace/C50/Huawei_IoT_Agent_Tiny_SDK_Linux//agent_tiny/examples/agent_tiny_cmd_ioctl.c ****     return ATINY_OK;
 128:/home/baikal/workspace/C50/Huawei_IoT_Agent_Tiny_SDK_Linux//agent_tiny/examples/agent_tiny_cmd_ioctl.c **** }
 280              		.loc 1 128 0
 281 0041 B8000000 		movl	$0, %eax
 281      00
 282 0046 4883C410 		addq	$16, %rsp
 283              	.LCFI14:
 284              		.cfi_def_cfa_offset 16
 285 004a 5B       		popq	%rbx
 286              	.LCFI15:
 287              		.cfi_def_cfa_offset 8
 288              	.LVL20:
 289 004b C3       		ret
 290              		.cfi_endproc
GAS LISTING /tmp/cc385yI2.s 			page 9


 291              	.LFE72:
 293              		.section	.text.atiny_get_dev_err,"ax",@progbits
 294              		.globl	atiny_get_dev_err
 296              	atiny_get_dev_err:
 297              	.LFB73:
 129:/home/baikal/workspace/C50/Huawei_IoT_Agent_Tiny_SDK_Linux//agent_tiny/examples/agent_tiny_cmd_ioctl.c **** 
 130:/home/baikal/workspace/C50/Huawei_IoT_Agent_Tiny_SDK_Linux//agent_tiny/examples/agent_tiny_cmd_ioctl.c **** static int err_code = ATINY_OK;
 131:/home/baikal/workspace/C50/Huawei_IoT_Agent_Tiny_SDK_Linux//agent_tiny/examples/agent_tiny_cmd_ioctl.c **** 
 132:/home/baikal/workspace/C50/Huawei_IoT_Agent_Tiny_SDK_Linux//agent_tiny/examples/agent_tiny_cmd_ioctl.c **** int atiny_get_dev_err(int* arg)
 133:/home/baikal/workspace/C50/Huawei_IoT_Agent_Tiny_SDK_Linux//agent_tiny/examples/agent_tiny_cmd_ioctl.c **** {
 298              		.loc 1 133 0
 299              		.cfi_startproc
 300              	.LVL21:
 134:/home/baikal/workspace/C50/Huawei_IoT_Agent_Tiny_SDK_Linux//agent_tiny/examples/agent_tiny_cmd_ioctl.c ****     *arg = err_code;
 301              		.loc 1 134 0
 302 0000 8B050000 		movl	err_code(%rip), %eax
 302      0000
 303 0006 8907     		movl	%eax, (%rdi)
 135:/home/baikal/workspace/C50/Huawei_IoT_Agent_Tiny_SDK_Linux//agent_tiny/examples/agent_tiny_cmd_ioctl.c ****     return ATINY_OK;
 136:/home/baikal/workspace/C50/Huawei_IoT_Agent_Tiny_SDK_Linux//agent_tiny/examples/agent_tiny_cmd_ioctl.c **** }
 304              		.loc 1 136 0
 305 0008 B8000000 		movl	$0, %eax
 305      00
 306 000d C3       		ret
 307              		.cfi_endproc
 308              	.LFE73:
 310              		.section	.text.atiny_do_reset_dev_err,"ax",@progbits
 311              		.globl	atiny_do_reset_dev_err
 313              	atiny_do_reset_dev_err:
 314              	.LFB74:
 137:/home/baikal/workspace/C50/Huawei_IoT_Agent_Tiny_SDK_Linux//agent_tiny/examples/agent_tiny_cmd_ioctl.c **** 
 138:/home/baikal/workspace/C50/Huawei_IoT_Agent_Tiny_SDK_Linux//agent_tiny/examples/agent_tiny_cmd_ioctl.c **** int atiny_do_reset_dev_err(void)
 139:/home/baikal/workspace/C50/Huawei_IoT_Agent_Tiny_SDK_Linux//agent_tiny/examples/agent_tiny_cmd_ioctl.c **** {
 315              		.loc 1 139 0
 316              		.cfi_startproc
 140:/home/baikal/workspace/C50/Huawei_IoT_Agent_Tiny_SDK_Linux//agent_tiny/examples/agent_tiny_cmd_ioctl.c ****     err_code = ATINY_OK;
 317              		.loc 1 140 0
 318 0000 C7050000 		movl	$0, err_code(%rip)
 318      00000000 
 318      0000
 141:/home/baikal/workspace/C50/Huawei_IoT_Agent_Tiny_SDK_Linux//agent_tiny/examples/agent_tiny_cmd_ioctl.c ****     return ATINY_OK;
 142:/home/baikal/workspace/C50/Huawei_IoT_Agent_Tiny_SDK_Linux//agent_tiny/examples/agent_tiny_cmd_ioctl.c **** }
 319              		.loc 1 142 0
 320 000a B8000000 		movl	$0, %eax
 320      00
 321 000f C3       		ret
 322              		.cfi_endproc
 323              	.LFE74:
 325              		.section	.text.atiny_get_current_time,"ax",@progbits
 326              		.globl	atiny_get_current_time
 328              	atiny_get_current_time:
 329              	.LFB75:
 143:/home/baikal/workspace/C50/Huawei_IoT_Agent_Tiny_SDK_Linux//agent_tiny/examples/agent_tiny_cmd_ioctl.c **** 
 144:/home/baikal/workspace/C50/Huawei_IoT_Agent_Tiny_SDK_Linux//agent_tiny/examples/agent_tiny_cmd_ioctl.c **** static int64_t g_current_time = ATINY_TIME_CODE;
 145:/home/baikal/workspace/C50/Huawei_IoT_Agent_Tiny_SDK_Linux//agent_tiny/examples/agent_tiny_cmd_ioctl.c **** 
 146:/home/baikal/workspace/C50/Huawei_IoT_Agent_Tiny_SDK_Linux//agent_tiny/examples/agent_tiny_cmd_ioctl.c **** int atiny_get_current_time(int64_t* arg)
 147:/home/baikal/workspace/C50/Huawei_IoT_Agent_Tiny_SDK_Linux//agent_tiny/examples/agent_tiny_cmd_ioctl.c **** {
GAS LISTING /tmp/cc385yI2.s 			page 10


 330              		.loc 1 147 0
 331              		.cfi_startproc
 332              	.LVL22:
 333 0000 53       		pushq	%rbx
 334              	.LCFI16:
 335              		.cfi_def_cfa_offset 16
 336              		.cfi_offset 3, -16
 337 0001 4889FB   		movq	%rdi, %rbx
 148:/home/baikal/workspace/C50/Huawei_IoT_Agent_Tiny_SDK_Linux//agent_tiny/examples/agent_tiny_cmd_ioctl.c ****     *arg = g_current_time + (int64_t)atiny_gettime_ms() / 1000;
 338              		.loc 1 148 0
 339 0004 E8000000 		call	atiny_gettime_ms
 339      00
 340              	.LVL23:
 341 0009 4889C1   		movq	%rax, %rcx
 342 000c 48BACFF7 		movabsq	$2361183241434822607, %rdx
 342      53E3A59B 
 342      C420
 343 0016 48F7EA   		imulq	%rdx
 344 0019 48C1FA07 		sarq	$7, %rdx
 345 001d 48C1F93F 		sarq	$63, %rcx
 346 0021 4829CA   		subq	%rcx, %rdx
 347 0024 48031500 		addq	g_current_time(%rip), %rdx
 347      000000
 348 002b 488913   		movq	%rdx, (%rbx)
 149:/home/baikal/workspace/C50/Huawei_IoT_Agent_Tiny_SDK_Linux//agent_tiny/examples/agent_tiny_cmd_ioctl.c ****     return ATINY_OK;
 150:/home/baikal/workspace/C50/Huawei_IoT_Agent_Tiny_SDK_Linux//agent_tiny/examples/agent_tiny_cmd_ioctl.c **** }
 349              		.loc 1 150 0
 350 002e B8000000 		movl	$0, %eax
 350      00
 351 0033 5B       		popq	%rbx
 352              	.LCFI17:
 353              		.cfi_def_cfa_offset 8
 354              	.LVL24:
 355 0034 C3       		ret
 356              		.cfi_endproc
 357              	.LFE75:
 359              		.section	.text.atiny_set_current_time,"ax",@progbits
 360              		.globl	atiny_set_current_time
 362              	atiny_set_current_time:
 363              	.LFB76:
 151:/home/baikal/workspace/C50/Huawei_IoT_Agent_Tiny_SDK_Linux//agent_tiny/examples/agent_tiny_cmd_ioctl.c **** 
 152:/home/baikal/workspace/C50/Huawei_IoT_Agent_Tiny_SDK_Linux//agent_tiny/examples/agent_tiny_cmd_ioctl.c **** int atiny_set_current_time(const int64_t* arg)
 153:/home/baikal/workspace/C50/Huawei_IoT_Agent_Tiny_SDK_Linux//agent_tiny/examples/agent_tiny_cmd_ioctl.c **** {
 364              		.loc 1 153 0
 365              		.cfi_startproc
 366              	.LVL25:
 367 0000 53       		pushq	%rbx
 368              	.LCFI18:
 369              		.cfi_def_cfa_offset 16
 370              		.cfi_offset 3, -16
 154:/home/baikal/workspace/C50/Huawei_IoT_Agent_Tiny_SDK_Linux//agent_tiny/examples/agent_tiny_cmd_ioctl.c ****     g_current_time = *arg - (int64_t)atiny_gettime_ms() / 1000;
 371              		.loc 1 154 0
 372 0001 488B1F   		movq	(%rdi), %rbx
 373 0004 E8000000 		call	atiny_gettime_ms
 373      00
 374              	.LVL26:
 375 0009 4889C1   		movq	%rax, %rcx
GAS LISTING /tmp/cc385yI2.s 			page 11


 376 000c 48BACFF7 		movabsq	$2361183241434822607, %rdx
 376      53E3A59B 
 376      C420
 377 0016 48F7EA   		imulq	%rdx
 378 0019 48C1FA07 		sarq	$7, %rdx
 379 001d 48C1F93F 		sarq	$63, %rcx
 380 0021 4829CA   		subq	%rcx, %rdx
 381 0024 4829D3   		subq	%rdx, %rbx
 382 0027 48891D00 		movq	%rbx, g_current_time(%rip)
 382      000000
 155:/home/baikal/workspace/C50/Huawei_IoT_Agent_Tiny_SDK_Linux//agent_tiny/examples/agent_tiny_cmd_ioctl.c ****     return ATINY_OK;
 156:/home/baikal/workspace/C50/Huawei_IoT_Agent_Tiny_SDK_Linux//agent_tiny/examples/agent_tiny_cmd_ioctl.c **** }
 383              		.loc 1 156 0
 384 002e B8000000 		movl	$0, %eax
 384      00
 385 0033 5B       		popq	%rbx
 386              	.LCFI19:
 387              		.cfi_def_cfa_offset 8
 388 0034 C3       		ret
 389              		.cfi_endproc
 390              	.LFE76:
 392              		.section	.text.atiny_get_UTC_offset,"ax",@progbits
 393              		.globl	atiny_get_UTC_offset
 395              	atiny_get_UTC_offset:
 396              	.LFB77:
 157:/home/baikal/workspace/C50/Huawei_IoT_Agent_Tiny_SDK_Linux//agent_tiny/examples/agent_tiny_cmd_ioctl.c **** 
 158:/home/baikal/workspace/C50/Huawei_IoT_Agent_Tiny_SDK_Linux//agent_tiny/examples/agent_tiny_cmd_ioctl.c **** #define UTC_OFFSET_MAX_LEN 7
 159:/home/baikal/workspace/C50/Huawei_IoT_Agent_Tiny_SDK_Linux//agent_tiny/examples/agent_tiny_cmd_ioctl.c **** static char g_UTC_offset[UTC_OFFSET_MAX_LEN] = "+01:00";
 160:/home/baikal/workspace/C50/Huawei_IoT_Agent_Tiny_SDK_Linux//agent_tiny/examples/agent_tiny_cmd_ioctl.c **** 
 161:/home/baikal/workspace/C50/Huawei_IoT_Agent_Tiny_SDK_Linux//agent_tiny/examples/agent_tiny_cmd_ioctl.c **** int atiny_get_UTC_offset(char* offset, int len)
 162:/home/baikal/workspace/C50/Huawei_IoT_Agent_Tiny_SDK_Linux//agent_tiny/examples/agent_tiny_cmd_ioctl.c **** {
 397              		.loc 1 162 0
 398              		.cfi_startproc
 399              	.LVL27:
 400 0000 4883EC08 		subq	$8, %rsp
 401              	.LCFI20:
 402              		.cfi_def_cfa_offset 16
 163:/home/baikal/workspace/C50/Huawei_IoT_Agent_Tiny_SDK_Linux//agent_tiny/examples/agent_tiny_cmd_ioctl.c ****     (void)atiny_snprintf(offset, len, g_UTC_offset);
 403              		.loc 1 163 0
 404 0004 BA000000 		movl	$g_UTC_offset, %edx
 404      00
 405 0009 B8000000 		movl	$0, %eax
 405      00
 406 000e E8000000 		call	atiny_snprintf
 406      00
 407              	.LVL28:
 164:/home/baikal/workspace/C50/Huawei_IoT_Agent_Tiny_SDK_Linux//agent_tiny/examples/agent_tiny_cmd_ioctl.c ****     return ATINY_OK;
 165:/home/baikal/workspace/C50/Huawei_IoT_Agent_Tiny_SDK_Linux//agent_tiny/examples/agent_tiny_cmd_ioctl.c **** }
 408              		.loc 1 165 0
 409 0013 B8000000 		movl	$0, %eax
 409      00
 410 0018 4883C408 		addq	$8, %rsp
 411              	.LCFI21:
 412              		.cfi_def_cfa_offset 8
 413 001c C3       		ret
 414              		.cfi_endproc
 415              	.LFE77:
GAS LISTING /tmp/cc385yI2.s 			page 12


 417              		.section	.text.atiny_set_UTC_offset,"ax",@progbits
 418              		.globl	atiny_set_UTC_offset
 420              	atiny_set_UTC_offset:
 421              	.LFB78:
 166:/home/baikal/workspace/C50/Huawei_IoT_Agent_Tiny_SDK_Linux//agent_tiny/examples/agent_tiny_cmd_ioctl.c **** 
 167:/home/baikal/workspace/C50/Huawei_IoT_Agent_Tiny_SDK_Linux//agent_tiny/examples/agent_tiny_cmd_ioctl.c **** int atiny_set_UTC_offset(const char* offset, int len)
 168:/home/baikal/workspace/C50/Huawei_IoT_Agent_Tiny_SDK_Linux//agent_tiny/examples/agent_tiny_cmd_ioctl.c **** {
 422              		.loc 1 168 0
 423              		.cfi_startproc
 424              	.LVL29:
 425 0000 4883EC08 		subq	$8, %rsp
 426              	.LCFI22:
 427              		.cfi_def_cfa_offset 16
 428 0004 4889FA   		movq	%rdi, %rdx
 169:/home/baikal/workspace/C50/Huawei_IoT_Agent_Tiny_SDK_Linux//agent_tiny/examples/agent_tiny_cmd_ioctl.c ****     (void)atiny_snprintf(g_UTC_offset, len + 1, offset);
 429              		.loc 1 169 0
 430 0007 83C601   		addl	$1, %esi
 431              	.LVL30:
 432 000a BF000000 		movl	$g_UTC_offset, %edi
 432      00
 433              	.LVL31:
 434 000f B8000000 		movl	$0, %eax
 434      00
 435 0014 E8000000 		call	atiny_snprintf
 435      00
 436              	.LVL32:
 170:/home/baikal/workspace/C50/Huawei_IoT_Agent_Tiny_SDK_Linux//agent_tiny/examples/agent_tiny_cmd_ioctl.c ****     return ATINY_OK;
 171:/home/baikal/workspace/C50/Huawei_IoT_Agent_Tiny_SDK_Linux//agent_tiny/examples/agent_tiny_cmd_ioctl.c **** }
 437              		.loc 1 171 0
 438 0019 B8000000 		movl	$0, %eax
 438      00
 439 001e 4883C408 		addq	$8, %rsp
 440              	.LCFI23:
 441              		.cfi_def_cfa_offset 8
 442 0022 C3       		ret
 443              		.cfi_endproc
 444              	.LFE78:
 446              		.section	.text.atiny_get_timezone,"ax",@progbits
 447              		.globl	atiny_get_timezone
 449              	atiny_get_timezone:
 450              	.LFB79:
 172:/home/baikal/workspace/C50/Huawei_IoT_Agent_Tiny_SDK_Linux//agent_tiny/examples/agent_tiny_cmd_ioctl.c **** 
 173:/home/baikal/workspace/C50/Huawei_IoT_Agent_Tiny_SDK_Linux//agent_tiny/examples/agent_tiny_cmd_ioctl.c **** #define TIMEZONE_MAXLEN 25
 174:/home/baikal/workspace/C50/Huawei_IoT_Agent_Tiny_SDK_Linux//agent_tiny/examples/agent_tiny_cmd_ioctl.c **** static char g_timezone[TIMEZONE_MAXLEN] = "Europe/Berlin";
 175:/home/baikal/workspace/C50/Huawei_IoT_Agent_Tiny_SDK_Linux//agent_tiny/examples/agent_tiny_cmd_ioctl.c **** 
 176:/home/baikal/workspace/C50/Huawei_IoT_Agent_Tiny_SDK_Linux//agent_tiny/examples/agent_tiny_cmd_ioctl.c **** int atiny_get_timezone(char* timezone, int len)
 177:/home/baikal/workspace/C50/Huawei_IoT_Agent_Tiny_SDK_Linux//agent_tiny/examples/agent_tiny_cmd_ioctl.c **** {
 451              		.loc 1 177 0
 452              		.cfi_startproc
 453              	.LVL33:
 454 0000 4883EC08 		subq	$8, %rsp
 455              	.LCFI24:
 456              		.cfi_def_cfa_offset 16
 178:/home/baikal/workspace/C50/Huawei_IoT_Agent_Tiny_SDK_Linux//agent_tiny/examples/agent_tiny_cmd_ioctl.c ****     (void)atiny_snprintf(timezone, len, g_timezone);
 457              		.loc 1 178 0
 458 0004 BA000000 		movl	$g_timezone, %edx
 458      00
GAS LISTING /tmp/cc385yI2.s 			page 13


 459 0009 B8000000 		movl	$0, %eax
 459      00
 460 000e E8000000 		call	atiny_snprintf
 460      00
 461              	.LVL34:
 179:/home/baikal/workspace/C50/Huawei_IoT_Agent_Tiny_SDK_Linux//agent_tiny/examples/agent_tiny_cmd_ioctl.c ****     return ATINY_OK;
 180:/home/baikal/workspace/C50/Huawei_IoT_Agent_Tiny_SDK_Linux//agent_tiny/examples/agent_tiny_cmd_ioctl.c **** }
 462              		.loc 1 180 0
 463 0013 B8000000 		movl	$0, %eax
 463      00
 464 0018 4883C408 		addq	$8, %rsp
 465              	.LCFI25:
 466              		.cfi_def_cfa_offset 8
 467 001c C3       		ret
 468              		.cfi_endproc
 469              	.LFE79:
 471              		.section	.text.atiny_set_timezone,"ax",@progbits
 472              		.globl	atiny_set_timezone
 474              	atiny_set_timezone:
 475              	.LFB80:
 181:/home/baikal/workspace/C50/Huawei_IoT_Agent_Tiny_SDK_Linux//agent_tiny/examples/agent_tiny_cmd_ioctl.c **** 
 182:/home/baikal/workspace/C50/Huawei_IoT_Agent_Tiny_SDK_Linux//agent_tiny/examples/agent_tiny_cmd_ioctl.c **** int atiny_set_timezone(const char* timezone, int len)
 183:/home/baikal/workspace/C50/Huawei_IoT_Agent_Tiny_SDK_Linux//agent_tiny/examples/agent_tiny_cmd_ioctl.c **** {
 476              		.loc 1 183 0
 477              		.cfi_startproc
 478              	.LVL35:
 479 0000 4883EC08 		subq	$8, %rsp
 480              	.LCFI26:
 481              		.cfi_def_cfa_offset 16
 482 0004 4889FA   		movq	%rdi, %rdx
 184:/home/baikal/workspace/C50/Huawei_IoT_Agent_Tiny_SDK_Linux//agent_tiny/examples/agent_tiny_cmd_ioctl.c ****     (void)atiny_snprintf(g_timezone, len + 1, timezone);
 483              		.loc 1 184 0
 484 0007 83C601   		addl	$1, %esi
 485              	.LVL36:
 486 000a BF000000 		movl	$g_timezone, %edi
 486      00
 487              	.LVL37:
 488 000f B8000000 		movl	$0, %eax
 488      00
 489 0014 E8000000 		call	atiny_snprintf
 489      00
 490              	.LVL38:
 185:/home/baikal/workspace/C50/Huawei_IoT_Agent_Tiny_SDK_Linux//agent_tiny/examples/agent_tiny_cmd_ioctl.c ****     return ATINY_OK;
 186:/home/baikal/workspace/C50/Huawei_IoT_Agent_Tiny_SDK_Linux//agent_tiny/examples/agent_tiny_cmd_ioctl.c **** }
 491              		.loc 1 186 0
 492 0019 B8000000 		movl	$0, %eax
 492      00
 493 001e 4883C408 		addq	$8, %rsp
 494              	.LCFI27:
 495              		.cfi_def_cfa_offset 8
 496 0022 C3       		ret
 497              		.cfi_endproc
 498              	.LFE80:
 500              		.section	.rodata.str1.1
 501              	.LC6:
 502 0075 62696E64 		.string	"bind type is UQ......\r\n"
 502      20747970 
GAS LISTING /tmp/cc385yI2.s 			page 14


 502      65206973 
 502      2055512E 
 502      2E2E2E2E 
 503              	.LC7:
 504 008d 555100   		.string	"UQ"
 505              		.section	.text.atiny_get_bind_mode,"ax",@progbits
 506              		.globl	atiny_get_bind_mode
 508              	atiny_get_bind_mode:
 509              	.LFB81:
 187:/home/baikal/workspace/C50/Huawei_IoT_Agent_Tiny_SDK_Linux//agent_tiny/examples/agent_tiny_cmd_ioctl.c **** 
 188:/home/baikal/workspace/C50/Huawei_IoT_Agent_Tiny_SDK_Linux//agent_tiny/examples/agent_tiny_cmd_ioctl.c **** int atiny_get_bind_mode(char* mode, int len)
 189:/home/baikal/workspace/C50/Huawei_IoT_Agent_Tiny_SDK_Linux//agent_tiny/examples/agent_tiny_cmd_ioctl.c **** {
 510              		.loc 1 189 0
 511              		.cfi_startproc
 512              	.LVL39:
 513 0000 55       		pushq	%rbp
 514              	.LCFI28:
 515              		.cfi_def_cfa_offset 16
 516              		.cfi_offset 6, -16
 517 0001 53       		pushq	%rbx
 518              	.LCFI29:
 519              		.cfi_def_cfa_offset 24
 520              		.cfi_offset 3, -24
 521 0002 4883EC08 		subq	$8, %rsp
 522              	.LCFI30:
 523              		.cfi_def_cfa_offset 32
 524 0006 4889FB   		movq	%rdi, %rbx
 525 0009 89F5     		movl	%esi, %ebp
 190:/home/baikal/workspace/C50/Huawei_IoT_Agent_Tiny_SDK_Linux//agent_tiny/examples/agent_tiny_cmd_ioctl.c ****     (void)atiny_printf("bind type is UQ......\r\n");
 526              		.loc 1 190 0
 527 000b BF000000 		movl	$.LC6, %edi
 527      00
 528              	.LVL40:
 529 0010 B8000000 		movl	$0, %eax
 529      00
 530 0015 E8000000 		call	atiny_printf
 530      00
 531              	.LVL41:
 191:/home/baikal/workspace/C50/Huawei_IoT_Agent_Tiny_SDK_Linux//agent_tiny/examples/agent_tiny_cmd_ioctl.c ****     (void)atiny_snprintf(mode, len, "UQ");
 532              		.loc 1 191 0
 533 001a BA000000 		movl	$.LC7, %edx
 533      00
 534 001f 89EE     		movl	%ebp, %esi
 535 0021 4889DF   		movq	%rbx, %rdi
 536 0024 B8000000 		movl	$0, %eax
 536      00
 537 0029 E8000000 		call	atiny_snprintf
 537      00
 538              	.LVL42:
 192:/home/baikal/workspace/C50/Huawei_IoT_Agent_Tiny_SDK_Linux//agent_tiny/examples/agent_tiny_cmd_ioctl.c ****     return ATINY_OK;
 193:/home/baikal/workspace/C50/Huawei_IoT_Agent_Tiny_SDK_Linux//agent_tiny/examples/agent_tiny_cmd_ioctl.c **** }
 539              		.loc 1 193 0
 540 002e B8000000 		movl	$0, %eax
 540      00
 541 0033 4883C408 		addq	$8, %rsp
 542              	.LCFI31:
 543              		.cfi_def_cfa_offset 24
GAS LISTING /tmp/cc385yI2.s 			page 15


 544 0037 5B       		popq	%rbx
 545              	.LCFI32:
 546              		.cfi_def_cfa_offset 16
 547              	.LVL43:
 548 0038 5D       		popq	%rbp
 549              	.LCFI33:
 550              		.cfi_def_cfa_offset 8
 551              	.LVL44:
 552 0039 C3       		ret
 553              		.cfi_endproc
 554              	.LFE81:
 556              		.section	.rodata.str1.1
 557              	.LC8:
 558 0090 6669726D 		.string	"firmware is updating......\r\n"
 558      77617265 
 558      20697320 
 558      75706461 
 558      74696E67 
 559              		.section	.text.atiny_trig_firmware_update,"ax",@progbits
 560              		.globl	atiny_trig_firmware_update
 562              	atiny_trig_firmware_update:
 563              	.LFB82:
 194:/home/baikal/workspace/C50/Huawei_IoT_Agent_Tiny_SDK_Linux//agent_tiny/examples/agent_tiny_cmd_ioctl.c **** 
 195:/home/baikal/workspace/C50/Huawei_IoT_Agent_Tiny_SDK_Linux//agent_tiny/examples/agent_tiny_cmd_ioctl.c **** int atiny_trig_firmware_update(void)
 196:/home/baikal/workspace/C50/Huawei_IoT_Agent_Tiny_SDK_Linux//agent_tiny/examples/agent_tiny_cmd_ioctl.c **** {
 564              		.loc 1 196 0
 565              		.cfi_startproc
 566 0000 4883EC08 		subq	$8, %rsp
 567              	.LCFI34:
 568              		.cfi_def_cfa_offset 16
 197:/home/baikal/workspace/C50/Huawei_IoT_Agent_Tiny_SDK_Linux//agent_tiny/examples/agent_tiny_cmd_ioctl.c ****     (void)atiny_printf("firmware is updating......\r\n");
 569              		.loc 1 197 0
 570 0004 BF000000 		movl	$.LC8, %edi
 570      00
 571 0009 B8000000 		movl	$0, %eax
 571      00
 572 000e E8000000 		call	atiny_printf
 572      00
 573              	.LVL45:
 198:/home/baikal/workspace/C50/Huawei_IoT_Agent_Tiny_SDK_Linux//agent_tiny/examples/agent_tiny_cmd_ioctl.c ****     return ATINY_OK;
 199:/home/baikal/workspace/C50/Huawei_IoT_Agent_Tiny_SDK_Linux//agent_tiny/examples/agent_tiny_cmd_ioctl.c **** }
 574              		.loc 1 199 0
 575 0013 B8000000 		movl	$0, %eax
 575      00
 576 0018 4883C408 		addq	$8, %rsp
 577              	.LCFI35:
 578              		.cfi_def_cfa_offset 8
 579 001c C3       		ret
 580              		.cfi_endproc
 581              	.LFE82:
 583              		.section	.text.atiny_get_firmware_result,"ax",@progbits
 584              		.globl	atiny_get_firmware_result
 586              	atiny_get_firmware_result:
 587              	.LFB83:
 200:/home/baikal/workspace/C50/Huawei_IoT_Agent_Tiny_SDK_Linux//agent_tiny/examples/agent_tiny_cmd_ioctl.c **** 
 201:/home/baikal/workspace/C50/Huawei_IoT_Agent_Tiny_SDK_Linux//agent_tiny/examples/agent_tiny_cmd_ioctl.c **** int atiny_get_firmware_result(int* result)
 202:/home/baikal/workspace/C50/Huawei_IoT_Agent_Tiny_SDK_Linux//agent_tiny/examples/agent_tiny_cmd_ioctl.c **** {
GAS LISTING /tmp/cc385yI2.s 			page 16


 588              		.loc 1 202 0
 589              		.cfi_startproc
 590              	.LVL46:
 203:/home/baikal/workspace/C50/Huawei_IoT_Agent_Tiny_SDK_Linux//agent_tiny/examples/agent_tiny_cmd_ioctl.c ****     *result = 0;
 591              		.loc 1 203 0
 592 0000 C7070000 		movl	$0, (%rdi)
 592      0000
 204:/home/baikal/workspace/C50/Huawei_IoT_Agent_Tiny_SDK_Linux//agent_tiny/examples/agent_tiny_cmd_ioctl.c ****     return ATINY_OK;
 205:/home/baikal/workspace/C50/Huawei_IoT_Agent_Tiny_SDK_Linux//agent_tiny/examples/agent_tiny_cmd_ioctl.c **** }
 593              		.loc 1 205 0
 594 0006 B8000000 		movl	$0, %eax
 594      00
 595 000b C3       		ret
 596              		.cfi_endproc
 597              	.LFE83:
 599              		.section	.text.atiny_get_firmware_state,"ax",@progbits
 600              		.globl	atiny_get_firmware_state
 602              	atiny_get_firmware_state:
 603              	.LFB84:
 206:/home/baikal/workspace/C50/Huawei_IoT_Agent_Tiny_SDK_Linux//agent_tiny/examples/agent_tiny_cmd_ioctl.c **** 
 207:/home/baikal/workspace/C50/Huawei_IoT_Agent_Tiny_SDK_Linux//agent_tiny/examples/agent_tiny_cmd_ioctl.c **** int atiny_get_firmware_state(int* state)
 208:/home/baikal/workspace/C50/Huawei_IoT_Agent_Tiny_SDK_Linux//agent_tiny/examples/agent_tiny_cmd_ioctl.c **** {
 604              		.loc 1 208 0
 605              		.cfi_startproc
 606              	.LVL47:
 209:/home/baikal/workspace/C50/Huawei_IoT_Agent_Tiny_SDK_Linux//agent_tiny/examples/agent_tiny_cmd_ioctl.c ****     *state = 0;
 607              		.loc 1 209 0
 608 0000 C7070000 		movl	$0, (%rdi)
 608      0000
 210:/home/baikal/workspace/C50/Huawei_IoT_Agent_Tiny_SDK_Linux//agent_tiny/examples/agent_tiny_cmd_ioctl.c ****     return ATINY_OK;
 211:/home/baikal/workspace/C50/Huawei_IoT_Agent_Tiny_SDK_Linux//agent_tiny/examples/agent_tiny_cmd_ioctl.c **** }
 609              		.loc 1 211 0
 610 0006 B8000000 		movl	$0, %eax
 610      00
 611 000b C3       		ret
 612              		.cfi_endproc
 613              	.LFE84:
 615              		.section	.text.atiny_get_network_bearer,"ax",@progbits
 616              		.globl	atiny_get_network_bearer
 618              	atiny_get_network_bearer:
 619              	.LFB85:
 212:/home/baikal/workspace/C50/Huawei_IoT_Agent_Tiny_SDK_Linux//agent_tiny/examples/agent_tiny_cmd_ioctl.c **** 
 213:/home/baikal/workspace/C50/Huawei_IoT_Agent_Tiny_SDK_Linux//agent_tiny/examples/agent_tiny_cmd_ioctl.c **** int atiny_get_network_bearer(int* network_brearer)
 214:/home/baikal/workspace/C50/Huawei_IoT_Agent_Tiny_SDK_Linux//agent_tiny/examples/agent_tiny_cmd_ioctl.c **** {
 620              		.loc 1 214 0
 621              		.cfi_startproc
 622              	.LVL48:
 215:/home/baikal/workspace/C50/Huawei_IoT_Agent_Tiny_SDK_Linux//agent_tiny/examples/agent_tiny_cmd_ioctl.c ****     *network_brearer = ATINY_NETWORK_BEARER;
 623              		.loc 1 215 0
 624 0000 C7070500 		movl	$5, (%rdi)
 624      0000
 216:/home/baikal/workspace/C50/Huawei_IoT_Agent_Tiny_SDK_Linux//agent_tiny/examples/agent_tiny_cmd_ioctl.c ****     return ATINY_OK;
 217:/home/baikal/workspace/C50/Huawei_IoT_Agent_Tiny_SDK_Linux//agent_tiny/examples/agent_tiny_cmd_ioctl.c **** }
 625              		.loc 1 217 0
 626 0006 B8000000 		movl	$0, %eax
 626      00
 627 000b C3       		ret
GAS LISTING /tmp/cc385yI2.s 			page 17


 628              		.cfi_endproc
 629              	.LFE85:
 631              		.section	.text.atiny_get_signal_strength,"ax",@progbits
 632              		.globl	atiny_get_signal_strength
 634              	atiny_get_signal_strength:
 635              	.LFB86:
 218:/home/baikal/workspace/C50/Huawei_IoT_Agent_Tiny_SDK_Linux//agent_tiny/examples/agent_tiny_cmd_ioctl.c **** 
 219:/home/baikal/workspace/C50/Huawei_IoT_Agent_Tiny_SDK_Linux//agent_tiny/examples/agent_tiny_cmd_ioctl.c **** int atiny_get_signal_strength(int* singal_strength)
 220:/home/baikal/workspace/C50/Huawei_IoT_Agent_Tiny_SDK_Linux//agent_tiny/examples/agent_tiny_cmd_ioctl.c **** {
 636              		.loc 1 220 0
 637              		.cfi_startproc
 638              	.LVL49:
 221:/home/baikal/workspace/C50/Huawei_IoT_Agent_Tiny_SDK_Linux//agent_tiny/examples/agent_tiny_cmd_ioctl.c ****     *singal_strength = ATINY_SIGNAL_STRENGTH;
 639              		.loc 1 221 0
 640 0000 C7075A00 		movl	$90, (%rdi)
 640      0000
 222:/home/baikal/workspace/C50/Huawei_IoT_Agent_Tiny_SDK_Linux//agent_tiny/examples/agent_tiny_cmd_ioctl.c ****     return ATINY_OK;
 223:/home/baikal/workspace/C50/Huawei_IoT_Agent_Tiny_SDK_Linux//agent_tiny/examples/agent_tiny_cmd_ioctl.c **** }
 641              		.loc 1 223 0
 642 0006 B8000000 		movl	$0, %eax
 642      00
 643 000b C3       		ret
 644              		.cfi_endproc
 645              	.LFE86:
 647              		.section	.text.atiny_get_cell_id,"ax",@progbits
 648              		.globl	atiny_get_cell_id
 650              	atiny_get_cell_id:
 651              	.LFB87:
 224:/home/baikal/workspace/C50/Huawei_IoT_Agent_Tiny_SDK_Linux//agent_tiny/examples/agent_tiny_cmd_ioctl.c **** 
 225:/home/baikal/workspace/C50/Huawei_IoT_Agent_Tiny_SDK_Linux//agent_tiny/examples/agent_tiny_cmd_ioctl.c **** int atiny_get_cell_id(long* cell_id)
 226:/home/baikal/workspace/C50/Huawei_IoT_Agent_Tiny_SDK_Linux//agent_tiny/examples/agent_tiny_cmd_ioctl.c **** {
 652              		.loc 1 226 0
 653              		.cfi_startproc
 654              	.LVL50:
 227:/home/baikal/workspace/C50/Huawei_IoT_Agent_Tiny_SDK_Linux//agent_tiny/examples/agent_tiny_cmd_ioctl.c ****     *cell_id = ATINY_CELL_ID;
 655              		.loc 1 227 0
 656 0000 48C7076F 		movq	$21103, (%rdi)
 656      520000
 228:/home/baikal/workspace/C50/Huawei_IoT_Agent_Tiny_SDK_Linux//agent_tiny/examples/agent_tiny_cmd_ioctl.c ****     return ATINY_OK;
 229:/home/baikal/workspace/C50/Huawei_IoT_Agent_Tiny_SDK_Linux//agent_tiny/examples/agent_tiny_cmd_ioctl.c **** }
 657              		.loc 1 229 0
 658 0007 B8000000 		movl	$0, %eax
 658      00
 659 000c C3       		ret
 660              		.cfi_endproc
 661              	.LFE87:
 663              		.section	.text.atiny_get_link_quality,"ax",@progbits
 664              		.globl	atiny_get_link_quality
 666              	atiny_get_link_quality:
 667              	.LFB88:
 230:/home/baikal/workspace/C50/Huawei_IoT_Agent_Tiny_SDK_Linux//agent_tiny/examples/agent_tiny_cmd_ioctl.c **** 
 231:/home/baikal/workspace/C50/Huawei_IoT_Agent_Tiny_SDK_Linux//agent_tiny/examples/agent_tiny_cmd_ioctl.c **** int atiny_get_link_quality(int* quality)
 232:/home/baikal/workspace/C50/Huawei_IoT_Agent_Tiny_SDK_Linux//agent_tiny/examples/agent_tiny_cmd_ioctl.c **** {
 668              		.loc 1 232 0
 669              		.cfi_startproc
 670              	.LVL51:
 233:/home/baikal/workspace/C50/Huawei_IoT_Agent_Tiny_SDK_Linux//agent_tiny/examples/agent_tiny_cmd_ioctl.c ****     *quality = ATINY_LINK_QUALITY;
GAS LISTING /tmp/cc385yI2.s 			page 18


 671              		.loc 1 233 0
 672 0000 C7076200 		movl	$98, (%rdi)
 672      0000
 234:/home/baikal/workspace/C50/Huawei_IoT_Agent_Tiny_SDK_Linux//agent_tiny/examples/agent_tiny_cmd_ioctl.c ****     return ATINY_OK;
 235:/home/baikal/workspace/C50/Huawei_IoT_Agent_Tiny_SDK_Linux//agent_tiny/examples/agent_tiny_cmd_ioctl.c **** }
 673              		.loc 1 235 0
 674 0006 B8000000 		movl	$0, %eax
 674      00
 675 000b C3       		ret
 676              		.cfi_endproc
 677              	.LFE88:
 679              		.section	.text.atiny_get_link_utilization,"ax",@progbits
 680              		.globl	atiny_get_link_utilization
 682              	atiny_get_link_utilization:
 683              	.LFB89:
 236:/home/baikal/workspace/C50/Huawei_IoT_Agent_Tiny_SDK_Linux//agent_tiny/examples/agent_tiny_cmd_ioctl.c **** 
 237:/home/baikal/workspace/C50/Huawei_IoT_Agent_Tiny_SDK_Linux//agent_tiny/examples/agent_tiny_cmd_ioctl.c **** int atiny_get_link_utilization(int* utilization)
 238:/home/baikal/workspace/C50/Huawei_IoT_Agent_Tiny_SDK_Linux//agent_tiny/examples/agent_tiny_cmd_ioctl.c **** {
 684              		.loc 1 238 0
 685              		.cfi_startproc
 686              	.LVL52:
 239:/home/baikal/workspace/C50/Huawei_IoT_Agent_Tiny_SDK_Linux//agent_tiny/examples/agent_tiny_cmd_ioctl.c ****     *utilization = ATINY_LINK_UTRILIZATION;
 687              		.loc 1 239 0
 688 0000 C7070A00 		movl	$10, (%rdi)
 688      0000
 240:/home/baikal/workspace/C50/Huawei_IoT_Agent_Tiny_SDK_Linux//agent_tiny/examples/agent_tiny_cmd_ioctl.c ****     return ATINY_OK;
 241:/home/baikal/workspace/C50/Huawei_IoT_Agent_Tiny_SDK_Linux//agent_tiny/examples/agent_tiny_cmd_ioctl.c **** }
 689              		.loc 1 241 0
 690 0006 B8000000 		movl	$0, %eax
 690      00
 691 000b C3       		ret
 692              		.cfi_endproc
 693              	.LFE89:
 695              		.section	.rodata.str1.1
 696              	.LC9:
 697 00ad 77726974 		.string	"write num19 object success\r\n"
 697      65206E75 
 697      6D313920 
 697      6F626A65 
 697      63742073 
 698              	.LC10:
 699 00ca 2F332F30 		.string	"/3/0/10"
 699      2F313000 
 700              		.section	.text.atiny_write_app_write,"ax",@progbits
 701              		.globl	atiny_write_app_write
 703              	atiny_write_app_write:
 704              	.LFB90:
 242:/home/baikal/workspace/C50/Huawei_IoT_Agent_Tiny_SDK_Linux//agent_tiny/examples/agent_tiny_cmd_ioctl.c **** 
 243:/home/baikal/workspace/C50/Huawei_IoT_Agent_Tiny_SDK_Linux//agent_tiny/examples/agent_tiny_cmd_ioctl.c **** int atiny_write_app_write(void* user_data, int len)
 244:/home/baikal/workspace/C50/Huawei_IoT_Agent_Tiny_SDK_Linux//agent_tiny/examples/agent_tiny_cmd_ioctl.c **** {
 705              		.loc 1 244 0
 706              		.cfi_startproc
 707              	.LVL53:
 708 0000 53       		pushq	%rbx
 709              	.LCFI36:
 710              		.cfi_def_cfa_offset 16
 711              		.cfi_offset 3, -16
GAS LISTING /tmp/cc385yI2.s 			page 19


 712 0001 4883EC30 		subq	$48, %rsp
 713              	.LCFI37:
 714              		.cfi_def_cfa_offset 64
 715 0005 4889FB   		movq	%rdi, %rbx
 716              	.LVL54:
 245:/home/baikal/workspace/C50/Huawei_IoT_Agent_Tiny_SDK_Linux//agent_tiny/examples/agent_tiny_cmd_ioctl.c ****     int cnt = 0;
 246:/home/baikal/workspace/C50/Huawei_IoT_Agent_Tiny_SDK_Linux//agent_tiny/examples/agent_tiny_cmd_ioctl.c ****     extern  void* g_phandle;
 247:/home/baikal/workspace/C50/Huawei_IoT_Agent_Tiny_SDK_Linux//agent_tiny/examples/agent_tiny_cmd_ioctl.c ****     uint16_t mid;
 248:/home/baikal/workspace/C50/Huawei_IoT_Agent_Tiny_SDK_Linux//agent_tiny/examples/agent_tiny_cmd_ioctl.c ****     uint8_t messageId;
 249:/home/baikal/workspace/C50/Huawei_IoT_Agent_Tiny_SDK_Linux//agent_tiny/examples/agent_tiny_cmd_ioctl.c ****     uint8_t buf[5] = {2,0,0,3,12};
 717              		.loc 1 249 0
 718 0008 C6442420 		movb	$2, 32(%rsp)
 718      02
 719 000d C6442421 		movb	$0, 33(%rsp)
 719      00
 720 0012 C6442422 		movb	$0, 34(%rsp)
 720      00
 721 0017 C6442423 		movb	$3, 35(%rsp)
 721      03
 722 001c C6442424 		movb	$12, 36(%rsp)
 722      0C
 250:/home/baikal/workspace/C50/Huawei_IoT_Agent_Tiny_SDK_Linux//agent_tiny/examples/agent_tiny_cmd_ioctl.c ****     uint8_t *tmp;
 251:/home/baikal/workspace/C50/Huawei_IoT_Agent_Tiny_SDK_Linux//agent_tiny/examples/agent_tiny_cmd_ioctl.c **** 
 252:/home/baikal/workspace/C50/Huawei_IoT_Agent_Tiny_SDK_Linux//agent_tiny/examples/agent_tiny_cmd_ioctl.c ****     (void)atiny_printf("write num19 object success\r\n");
 723              		.loc 1 252 0
 724 0021 BF000000 		movl	$.LC9, %edi
 724      00
 725              	.LVL55:
 726 0026 B8000000 		movl	$0, %eax
 726      00
 727 002b E8000000 		call	atiny_printf
 727      00
 728              	.LVL56:
 253:/home/baikal/workspace/C50/Huawei_IoT_Agent_Tiny_SDK_Linux//agent_tiny/examples/agent_tiny_cmd_ioctl.c **** 
 254:/home/baikal/workspace/C50/Huawei_IoT_Agent_Tiny_SDK_Linux//agent_tiny/examples/agent_tiny_cmd_ioctl.c ****     messageId = *(uint8_t *)user_data;
 729              		.loc 1 254 0
 730 0030 0FB613   		movzbl	(%rbx), %edx
 731              	.LVL57:
 255:/home/baikal/workspace/C50/Huawei_IoT_Agent_Tiny_SDK_Linux//agent_tiny/examples/agent_tiny_cmd_ioctl.c ****     tmp = user_data;
 256:/home/baikal/workspace/C50/Huawei_IoT_Agent_Tiny_SDK_Linux//agent_tiny/examples/agent_tiny_cmd_ioctl.c ****     mid = tmp[1] << 8 | tmp[2];
 732              		.loc 1 256 0
 733 0033 0FB64B01 		movzbl	1(%rbx), %ecx
 734 0037 0FB6C1   		movzbl	%cl, %eax
 735 003a C1E008   		sall	$8, %eax
 736 003d 0FB67302 		movzbl	2(%rbx), %esi
 737 0041 09F0     		orl	%esi, %eax
 738              	.LVL58:
 257:/home/baikal/workspace/C50/Huawei_IoT_Agent_Tiny_SDK_Linux//agent_tiny/examples/agent_tiny_cmd_ioctl.c **** 		
 258:/home/baikal/workspace/C50/Huawei_IoT_Agent_Tiny_SDK_Linux//agent_tiny/examples/agent_tiny_cmd_ioctl.c ****     if(messageId == 0x1)
 739              		.loc 1 258 0
 740 0043 80FA01   		cmpb	$1, %dl
 741 0046 755A     		jne	.L45
 742              	.LBB4:
 259:/home/baikal/workspace/C50/Huawei_IoT_Agent_Tiny_SDK_Linux//agent_tiny/examples/agent_tiny_cmd_ioctl.c ****     {
 260:/home/baikal/workspace/C50/Huawei_IoT_Agent_Tiny_SDK_Linux//agent_tiny/examples/agent_tiny_cmd_ioctl.c ****         buf[2] = (mid >> 8) & 0xff;
 743              		.loc 1 260 0
 744 0048 89C2     		movl	%eax, %edx
GAS LISTING /tmp/cc385yI2.s 			page 20


 745              	.LVL59:
 746 004a 66C1EA08 		shrw	$8, %dx
 747 004e 88542422 		movb	%dl, 34(%rsp)
 748              	.LVL60:
 261:/home/baikal/workspace/C50/Huawei_IoT_Agent_Tiny_SDK_Linux//agent_tiny/examples/agent_tiny_cmd_ioctl.c ****         buf[3] = mid & 0xff;
 749              		.loc 1 261 0
 750 0052 88442423 		movb	%al, 35(%rsp)
 262:/home/baikal/workspace/C50/Huawei_IoT_Agent_Tiny_SDK_Linux//agent_tiny/examples/agent_tiny_cmd_ioctl.c ****         data_report_t report_data;
 263:/home/baikal/workspace/C50/Huawei_IoT_Agent_Tiny_SDK_Linux//agent_tiny/examples/agent_tiny_cmd_ioctl.c ****         report_data.buf = buf;
 751              		.loc 1 263 0
 752 0056 488D4424 		leaq	32(%rsp), %rax
 752      20
 753              	.LVL61:
 754 005b 48894424 		movq	%rax, 16(%rsp)
 754      10
 264:/home/baikal/workspace/C50/Huawei_IoT_Agent_Tiny_SDK_Linux//agent_tiny/examples/agent_tiny_cmd_ioctl.c ****         report_data.callback = NULL;
 755              		.loc 1 264 0
 756 0060 48C74424 		movq	$0, 24(%rsp)
 756      18000000 
 756      00
 265:/home/baikal/workspace/C50/Huawei_IoT_Agent_Tiny_SDK_Linux//agent_tiny/examples/agent_tiny_cmd_ioctl.c ****         report_data.cookie = 0;
 757              		.loc 1 265 0
 758 0069 C7442404 		movl	$0, 4(%rsp)
 758      00000000 
 266:/home/baikal/workspace/C50/Huawei_IoT_Agent_Tiny_SDK_Linux//agent_tiny/examples/agent_tiny_cmd_ioctl.c ****         report_data.len = sizeof(buf);
 759              		.loc 1 266 0
 760 0071 C7442408 		movl	$5, 8(%rsp)
 760      05000000 
 267:/home/baikal/workspace/C50/Huawei_IoT_Agent_Tiny_SDK_Linux//agent_tiny/examples/agent_tiny_cmd_ioctl.c ****         report_data.type = APP_DATA;
 761              		.loc 1 267 0
 762 0079 C7042401 		movl	$1, (%rsp)
 762      000000
 763              	.LVL62:
 268:/home/baikal/workspace/C50/Huawei_IoT_Agent_Tiny_SDK_Linux//agent_tiny/examples/agent_tiny_cmd_ioctl.c ****         do
 269:/home/baikal/workspace/C50/Huawei_IoT_Agent_Tiny_SDK_Linux//agent_tiny/examples/agent_tiny_cmd_ioctl.c ****         {
 270:/home/baikal/workspace/C50/Huawei_IoT_Agent_Tiny_SDK_Linux//agent_tiny/examples/agent_tiny_cmd_ioctl.c ****             report_data.cookie = cnt;
 271:/home/baikal/workspace/C50/Huawei_IoT_Agent_Tiny_SDK_Linux//agent_tiny/examples/agent_tiny_cmd_ioctl.c ****             cnt++;
 272:/home/baikal/workspace/C50/Huawei_IoT_Agent_Tiny_SDK_Linux//agent_tiny/examples/agent_tiny_cmd_ioctl.c ****             atiny_data_report(g_phandle, &report_data);
 764              		.loc 1 272 0
 765 0080 4889E6   		movq	%rsp, %rsi
 766              	.LVL63:
 767 0083 488B3D00 		movq	g_phandle(%rip), %rdi
 767      000000
 768 008a E8000000 		call	atiny_data_report
 768      00
 769              	.LVL64:
 273:/home/baikal/workspace/C50/Huawei_IoT_Agent_Tiny_SDK_Linux//agent_tiny/examples/agent_tiny_cmd_ioctl.c ****             atiny_data_change(g_phandle, DEVICE_MEMORY_FREE);
 770              		.loc 1 273 0
 771 008f BE000000 		movl	$.LC10, %esi
 771      00
 772 0094 488B3D00 		movq	g_phandle(%rip), %rdi
 772      000000
 773 009b E8000000 		call	atiny_data_change
 773      00
 774              	.LVL65:
 775              	.LBE4:
 776 00a0 EB58     		jmp	.L46
GAS LISTING /tmp/cc385yI2.s 			page 21


 777              	.LVL66:
 778              	.L45:
 274:/home/baikal/workspace/C50/Huawei_IoT_Agent_Tiny_SDK_Linux//agent_tiny/examples/agent_tiny_cmd_ioctl.c ****         } while(0);
 275:/home/baikal/workspace/C50/Huawei_IoT_Agent_Tiny_SDK_Linux//agent_tiny/examples/agent_tiny_cmd_ioctl.c ****     }
 276:/home/baikal/workspace/C50/Huawei_IoT_Agent_Tiny_SDK_Linux//agent_tiny/examples/agent_tiny_cmd_ioctl.c ****     else if(messageId == 0x3)
 779              		.loc 1 276 0
 780 00a2 80FA03   		cmpb	$3, %dl
 781 00a5 7553     		jne	.L46
 782              	.LBB5:
 277:/home/baikal/workspace/C50/Huawei_IoT_Agent_Tiny_SDK_Linux//agent_tiny/examples/agent_tiny_cmd_ioctl.c ****     {
 278:/home/baikal/workspace/C50/Huawei_IoT_Agent_Tiny_SDK_Linux//agent_tiny/examples/agent_tiny_cmd_ioctl.c ****         buf[0] = 4;
 783              		.loc 1 278 0
 784 00a7 C6442420 		movb	$4, 32(%rsp)
 784      04
 279:/home/baikal/workspace/C50/Huawei_IoT_Agent_Tiny_SDK_Linux//agent_tiny/examples/agent_tiny_cmd_ioctl.c ****         buf[1] = tmp[1];
 785              		.loc 1 279 0
 786 00ac 884C2421 		movb	%cl, 33(%rsp)
 280:/home/baikal/workspace/C50/Huawei_IoT_Agent_Tiny_SDK_Linux//agent_tiny/examples/agent_tiny_cmd_ioctl.c **** 
 281:/home/baikal/workspace/C50/Huawei_IoT_Agent_Tiny_SDK_Linux//agent_tiny/examples/agent_tiny_cmd_ioctl.c ****         data_report_t report_data;
 282:/home/baikal/workspace/C50/Huawei_IoT_Agent_Tiny_SDK_Linux//agent_tiny/examples/agent_tiny_cmd_ioctl.c ****         report_data.buf = buf;
 787              		.loc 1 282 0
 788 00b0 488D4424 		leaq	32(%rsp), %rax
 788      20
 789              	.LVL67:
 790 00b5 48894424 		movq	%rax, 16(%rsp)
 790      10
 283:/home/baikal/workspace/C50/Huawei_IoT_Agent_Tiny_SDK_Linux//agent_tiny/examples/agent_tiny_cmd_ioctl.c ****         report_data.callback = NULL;
 791              		.loc 1 283 0
 792 00ba 48C74424 		movq	$0, 24(%rsp)
 792      18000000 
 792      00
 284:/home/baikal/workspace/C50/Huawei_IoT_Agent_Tiny_SDK_Linux//agent_tiny/examples/agent_tiny_cmd_ioctl.c ****         report_data.cookie = 0;
 793              		.loc 1 284 0
 794 00c3 C7442404 		movl	$0, 4(%rsp)
 794      00000000 
 285:/home/baikal/workspace/C50/Huawei_IoT_Agent_Tiny_SDK_Linux//agent_tiny/examples/agent_tiny_cmd_ioctl.c ****         report_data.len = 2;
 795              		.loc 1 285 0
 796 00cb C7442408 		movl	$2, 8(%rsp)
 796      02000000 
 286:/home/baikal/workspace/C50/Huawei_IoT_Agent_Tiny_SDK_Linux//agent_tiny/examples/agent_tiny_cmd_ioctl.c ****         report_data.type = APP_DATA;
 797              		.loc 1 286 0
 798 00d3 C7042401 		movl	$1, (%rsp)
 798      000000
 799              	.LVL68:
 287:/home/baikal/workspace/C50/Huawei_IoT_Agent_Tiny_SDK_Linux//agent_tiny/examples/agent_tiny_cmd_ioctl.c ****         do
 288:/home/baikal/workspace/C50/Huawei_IoT_Agent_Tiny_SDK_Linux//agent_tiny/examples/agent_tiny_cmd_ioctl.c ****         {
 289:/home/baikal/workspace/C50/Huawei_IoT_Agent_Tiny_SDK_Linux//agent_tiny/examples/agent_tiny_cmd_ioctl.c ****             report_data.cookie = cnt;
 290:/home/baikal/workspace/C50/Huawei_IoT_Agent_Tiny_SDK_Linux//agent_tiny/examples/agent_tiny_cmd_ioctl.c ****             cnt++;
 291:/home/baikal/workspace/C50/Huawei_IoT_Agent_Tiny_SDK_Linux//agent_tiny/examples/agent_tiny_cmd_ioctl.c ****             atiny_data_report(g_phandle, &report_data);
 800              		.loc 1 291 0
 801 00da 4889E6   		movq	%rsp, %rsi
 802              	.LVL69:
 803 00dd 488B3D00 		movq	g_phandle(%rip), %rdi
 803      000000
 804 00e4 E8000000 		call	atiny_data_report
 804      00
 805              	.LVL70:
GAS LISTING /tmp/cc385yI2.s 			page 22


 292:/home/baikal/workspace/C50/Huawei_IoT_Agent_Tiny_SDK_Linux//agent_tiny/examples/agent_tiny_cmd_ioctl.c ****             atiny_data_change(g_phandle, DEVICE_MEMORY_FREE);
 806              		.loc 1 292 0
 807 00e9 BE000000 		movl	$.LC10, %esi
 807      00
 808 00ee 488B3D00 		movq	g_phandle(%rip), %rdi
 808      000000
 809 00f5 E8000000 		call	atiny_data_change
 809      00
 810              	.LVL71:
 811              	.L46:
 812              	.LBE5:
 293:/home/baikal/workspace/C50/Huawei_IoT_Agent_Tiny_SDK_Linux//agent_tiny/examples/agent_tiny_cmd_ioctl.c ****         } while(0);
 294:/home/baikal/workspace/C50/Huawei_IoT_Agent_Tiny_SDK_Linux//agent_tiny/examples/agent_tiny_cmd_ioctl.c ****     }
 295:/home/baikal/workspace/C50/Huawei_IoT_Agent_Tiny_SDK_Linux//agent_tiny/examples/agent_tiny_cmd_ioctl.c **** 
 296:/home/baikal/workspace/C50/Huawei_IoT_Agent_Tiny_SDK_Linux//agent_tiny/examples/agent_tiny_cmd_ioctl.c ****     return ATINY_OK;
 297:/home/baikal/workspace/C50/Huawei_IoT_Agent_Tiny_SDK_Linux//agent_tiny/examples/agent_tiny_cmd_ioctl.c **** }
 813              		.loc 1 297 0
 814 00fa B8000000 		movl	$0, %eax
 814      00
 815 00ff 4883C430 		addq	$48, %rsp
 816              	.LCFI38:
 817              		.cfi_def_cfa_offset 16
 818 0103 5B       		popq	%rbx
 819              	.LCFI39:
 820              		.cfi_def_cfa_offset 8
 821              	.LVL72:
 822 0104 C3       		ret
 823              		.cfi_endproc
 824              	.LFE90:
 826              		.section	.rodata.str1.1
 827              	.LC11:
 828 00d2 75706461 		.string	"update psk success\r\n"
 828      74652070 
 828      736B2073 
 828      75636365 
 828      73730D0A 
 829              		.section	.text.atiny_update_psk,"ax",@progbits
 830              		.globl	atiny_update_psk
 832              	atiny_update_psk:
 833              	.LFB91:
 298:/home/baikal/workspace/C50/Huawei_IoT_Agent_Tiny_SDK_Linux//agent_tiny/examples/agent_tiny_cmd_ioctl.c **** 
 299:/home/baikal/workspace/C50/Huawei_IoT_Agent_Tiny_SDK_Linux//agent_tiny/examples/agent_tiny_cmd_ioctl.c **** int atiny_update_psk(char* psk_id, int len)
 300:/home/baikal/workspace/C50/Huawei_IoT_Agent_Tiny_SDK_Linux//agent_tiny/examples/agent_tiny_cmd_ioctl.c **** {
 834              		.loc 1 300 0
 835              		.cfi_startproc
 836              	.LVL73:
 837 0000 4883EC08 		subq	$8, %rsp
 838              	.LCFI40:
 839              		.cfi_def_cfa_offset 16
 301:/home/baikal/workspace/C50/Huawei_IoT_Agent_Tiny_SDK_Linux//agent_tiny/examples/agent_tiny_cmd_ioctl.c ****     //memcpy_s(g_psk_value,psk_id,len,16);
 302:/home/baikal/workspace/C50/Huawei_IoT_Agent_Tiny_SDK_Linux//agent_tiny/examples/agent_tiny_cmd_ioctl.c ****     (void)atiny_printf("update psk success\r\n");
 840              		.loc 1 302 0
 841 0004 BF000000 		movl	$.LC11, %edi
 841      00
 842              	.LVL74:
 843 0009 B8000000 		movl	$0, %eax
 843      00
GAS LISTING /tmp/cc385yI2.s 			page 23


 844 000e E8000000 		call	atiny_printf
 844      00
 845              	.LVL75:
 303:/home/baikal/workspace/C50/Huawei_IoT_Agent_Tiny_SDK_Linux//agent_tiny/examples/agent_tiny_cmd_ioctl.c ****     return ATINY_OK;
 304:/home/baikal/workspace/C50/Huawei_IoT_Agent_Tiny_SDK_Linux//agent_tiny/examples/agent_tiny_cmd_ioctl.c **** }
 846              		.loc 1 304 0
 847 0013 B8000000 		movl	$0, %eax
 847      00
 848 0018 4883C408 		addq	$8, %rsp
 849              	.LCFI41:
 850              		.cfi_def_cfa_offset 8
 851 001c C3       		ret
 852              		.cfi_endproc
 853              	.LFE91:
 855              		.section	.text.atiny_get_latitude,"ax",@progbits
 856              		.globl	atiny_get_latitude
 858              	atiny_get_latitude:
 859              	.LFB92:
 305:/home/baikal/workspace/C50/Huawei_IoT_Agent_Tiny_SDK_Linux//agent_tiny/examples/agent_tiny_cmd_ioctl.c **** 
 306:/home/baikal/workspace/C50/Huawei_IoT_Agent_Tiny_SDK_Linux//agent_tiny/examples/agent_tiny_cmd_ioctl.c **** int atiny_get_latitude(float* latitude)
 307:/home/baikal/workspace/C50/Huawei_IoT_Agent_Tiny_SDK_Linux//agent_tiny/examples/agent_tiny_cmd_ioctl.c **** {
 860              		.loc 1 307 0
 861              		.cfi_startproc
 862              	.LVL76:
 308:/home/baikal/workspace/C50/Huawei_IoT_Agent_Tiny_SDK_Linux//agent_tiny/examples/agent_tiny_cmd_ioctl.c ****     *latitude = ATINY_LATITUDE;
 863              		.loc 1 308 0
 864 0000 C70776E3 		movl	$0x41dfe376, (%rdi)
 864      DF41
 309:/home/baikal/workspace/C50/Huawei_IoT_Agent_Tiny_SDK_Linux//agent_tiny/examples/agent_tiny_cmd_ioctl.c ****     return ATINY_OK;
 310:/home/baikal/workspace/C50/Huawei_IoT_Agent_Tiny_SDK_Linux//agent_tiny/examples/agent_tiny_cmd_ioctl.c **** }
 865              		.loc 1 310 0
 866 0006 B8000000 		movl	$0, %eax
 866      00
 867 000b C3       		ret
 868              		.cfi_endproc
 869              	.LFE92:
 871              		.section	.text.atiny_get_longitude,"ax",@progbits
 872              		.globl	atiny_get_longitude
 874              	atiny_get_longitude:
 875              	.LFB93:
 311:/home/baikal/workspace/C50/Huawei_IoT_Agent_Tiny_SDK_Linux//agent_tiny/examples/agent_tiny_cmd_ioctl.c **** 
 312:/home/baikal/workspace/C50/Huawei_IoT_Agent_Tiny_SDK_Linux//agent_tiny/examples/agent_tiny_cmd_ioctl.c **** int atiny_get_longitude(float* longitude)
 313:/home/baikal/workspace/C50/Huawei_IoT_Agent_Tiny_SDK_Linux//agent_tiny/examples/agent_tiny_cmd_ioctl.c **** {
 876              		.loc 1 313 0
 877              		.cfi_startproc
 878              	.LVL77:
 314:/home/baikal/workspace/C50/Huawei_IoT_Agent_Tiny_SDK_Linux//agent_tiny/examples/agent_tiny_cmd_ioctl.c ****     *longitude = ATINY_LONGITUDE;
 879              		.loc 1 314 0
 880 0000 C70762D8 		movl	$0x42add862, (%rdi)
 880      AD42
 315:/home/baikal/workspace/C50/Huawei_IoT_Agent_Tiny_SDK_Linux//agent_tiny/examples/agent_tiny_cmd_ioctl.c ****     return ATINY_OK;
 316:/home/baikal/workspace/C50/Huawei_IoT_Agent_Tiny_SDK_Linux//agent_tiny/examples/agent_tiny_cmd_ioctl.c **** }
 881              		.loc 1 316 0
 882 0006 B8000000 		movl	$0, %eax
 882      00
 883 000b C3       		ret
 884              		.cfi_endproc
GAS LISTING /tmp/cc385yI2.s 			page 24


 885              	.LFE93:
 887              		.section	.text.atiny_get_altitude,"ax",@progbits
 888              		.globl	atiny_get_altitude
 890              	atiny_get_altitude:
 891              	.LFB94:
 317:/home/baikal/workspace/C50/Huawei_IoT_Agent_Tiny_SDK_Linux//agent_tiny/examples/agent_tiny_cmd_ioctl.c **** 
 318:/home/baikal/workspace/C50/Huawei_IoT_Agent_Tiny_SDK_Linux//agent_tiny/examples/agent_tiny_cmd_ioctl.c **** int atiny_get_altitude(float* altitude)
 319:/home/baikal/workspace/C50/Huawei_IoT_Agent_Tiny_SDK_Linux//agent_tiny/examples/agent_tiny_cmd_ioctl.c **** {
 892              		.loc 1 319 0
 893              		.cfi_startproc
 894              	.LVL78:
 320:/home/baikal/workspace/C50/Huawei_IoT_Agent_Tiny_SDK_Linux//agent_tiny/examples/agent_tiny_cmd_ioctl.c ****     *altitude = ATINY_ALTITUDE;
 895              		.loc 1 320 0
 896 0000 C70700BC 		movl	$0x4604bc00, (%rdi)
 896      0446
 321:/home/baikal/workspace/C50/Huawei_IoT_Agent_Tiny_SDK_Linux//agent_tiny/examples/agent_tiny_cmd_ioctl.c ****     return ATINY_OK;
 322:/home/baikal/workspace/C50/Huawei_IoT_Agent_Tiny_SDK_Linux//agent_tiny/examples/agent_tiny_cmd_ioctl.c **** }
 897              		.loc 1 322 0
 898 0006 B8000000 		movl	$0, %eax
 898      00
 899 000b C3       		ret
 900              		.cfi_endproc
 901              	.LFE94:
 903              		.section	.text.atiny_get_radius,"ax",@progbits
 904              		.globl	atiny_get_radius
 906              	atiny_get_radius:
 907              	.LFB95:
 323:/home/baikal/workspace/C50/Huawei_IoT_Agent_Tiny_SDK_Linux//agent_tiny/examples/agent_tiny_cmd_ioctl.c **** 
 324:/home/baikal/workspace/C50/Huawei_IoT_Agent_Tiny_SDK_Linux//agent_tiny/examples/agent_tiny_cmd_ioctl.c **** int atiny_get_radius(float* radius)
 325:/home/baikal/workspace/C50/Huawei_IoT_Agent_Tiny_SDK_Linux//agent_tiny/examples/agent_tiny_cmd_ioctl.c **** {
 908              		.loc 1 325 0
 909              		.cfi_startproc
 910              	.LVL79:
 326:/home/baikal/workspace/C50/Huawei_IoT_Agent_Tiny_SDK_Linux//agent_tiny/examples/agent_tiny_cmd_ioctl.c ****     *radius = ATINY_RADIUS;
 911              		.loc 1 326 0
 912 0000 C7070000 		movl	$0x00000000, (%rdi)
 912      0000
 327:/home/baikal/workspace/C50/Huawei_IoT_Agent_Tiny_SDK_Linux//agent_tiny/examples/agent_tiny_cmd_ioctl.c ****     return ATINY_OK;
 328:/home/baikal/workspace/C50/Huawei_IoT_Agent_Tiny_SDK_Linux//agent_tiny/examples/agent_tiny_cmd_ioctl.c **** }
 913              		.loc 1 328 0
 914 0006 B8000000 		movl	$0, %eax
 914      00
 915 000b C3       		ret
 916              		.cfi_endproc
 917              	.LFE95:
 919              		.section	.text.atiny_get_speed,"ax",@progbits
 920              		.globl	atiny_get_speed
 922              	atiny_get_speed:
 923              	.LFB96:
 329:/home/baikal/workspace/C50/Huawei_IoT_Agent_Tiny_SDK_Linux//agent_tiny/examples/agent_tiny_cmd_ioctl.c **** 
 330:/home/baikal/workspace/C50/Huawei_IoT_Agent_Tiny_SDK_Linux//agent_tiny/examples/agent_tiny_cmd_ioctl.c **** int atiny_get_speed(float* speed)
 331:/home/baikal/workspace/C50/Huawei_IoT_Agent_Tiny_SDK_Linux//agent_tiny/examples/agent_tiny_cmd_ioctl.c **** {
 924              		.loc 1 331 0
 925              		.cfi_startproc
 926              	.LVL80:
 332:/home/baikal/workspace/C50/Huawei_IoT_Agent_Tiny_SDK_Linux//agent_tiny/examples/agent_tiny_cmd_ioctl.c ****     *speed = ATINY_SPEED;
 927              		.loc 1 332 0
GAS LISTING /tmp/cc385yI2.s 			page 25


 928 0000 C7070000 		movl	$0x00000000, (%rdi)
 928      0000
 333:/home/baikal/workspace/C50/Huawei_IoT_Agent_Tiny_SDK_Linux//agent_tiny/examples/agent_tiny_cmd_ioctl.c ****     return ATINY_OK;
 334:/home/baikal/workspace/C50/Huawei_IoT_Agent_Tiny_SDK_Linux//agent_tiny/examples/agent_tiny_cmd_ioctl.c **** }
 929              		.loc 1 334 0
 930 0006 B8000000 		movl	$0, %eax
 930      00
 931 000b C3       		ret
 932              		.cfi_endproc
 933              	.LFE96:
 935              		.section	.text.atiny_get_timestamp,"ax",@progbits
 936              		.globl	atiny_get_timestamp
 938              	atiny_get_timestamp:
 939              	.LFB97:
 335:/home/baikal/workspace/C50/Huawei_IoT_Agent_Tiny_SDK_Linux//agent_tiny/examples/agent_tiny_cmd_ioctl.c **** 
 336:/home/baikal/workspace/C50/Huawei_IoT_Agent_Tiny_SDK_Linux//agent_tiny/examples/agent_tiny_cmd_ioctl.c **** int atiny_get_timestamp(uint64_t* timestamp)
 337:/home/baikal/workspace/C50/Huawei_IoT_Agent_Tiny_SDK_Linux//agent_tiny/examples/agent_tiny_cmd_ioctl.c **** {
 940              		.loc 1 337 0
 941              		.cfi_startproc
 942              	.LVL81:
 943 0000 53       		pushq	%rbx
 944              	.LCFI42:
 945              		.cfi_def_cfa_offset 16
 946              		.cfi_offset 3, -16
 947 0001 4889FB   		movq	%rdi, %rbx
 338:/home/baikal/workspace/C50/Huawei_IoT_Agent_Tiny_SDK_Linux//agent_tiny/examples/agent_tiny_cmd_ioctl.c ****     *timestamp = atiny_gettime_ms() / 1000 + ATINY_TIME_CODE;
 948              		.loc 1 338 0
 949 0004 E8000000 		call	atiny_gettime_ms
 949      00
 950              	.LVL82:
 951 0009 48C1E803 		shrq	$3, %rax
 952 000d 48B9CFF7 		movabsq	$2361183241434822607, %rcx
 952      53E3A59B 
 952      C420
 953 0017 48F7E1   		mulq	%rcx
 954 001a 48C1EA04 		shrq	$4, %rdx
 955 001e 4881C28F 		addq	$1367491215, %rdx
 955      428251
 956 0025 488913   		movq	%rdx, (%rbx)
 339:/home/baikal/workspace/C50/Huawei_IoT_Agent_Tiny_SDK_Linux//agent_tiny/examples/agent_tiny_cmd_ioctl.c ****     return ATINY_OK;
 340:/home/baikal/workspace/C50/Huawei_IoT_Agent_Tiny_SDK_Linux//agent_tiny/examples/agent_tiny_cmd_ioctl.c **** }
 957              		.loc 1 340 0
 958 0028 B8000000 		movl	$0, %eax
 958      00
 959 002d 5B       		popq	%rbx
 960              	.LCFI43:
 961              		.cfi_def_cfa_offset 8
 962              	.LVL83:
 963 002e C3       		ret
 964              		.cfi_endproc
 965              	.LFE97:
 967              		.section	.text.location_get_velocity,"ax",@progbits
 968              		.globl	location_get_velocity
 970              	location_get_velocity:
 971              	.LFB98:
 341:/home/baikal/workspace/C50/Huawei_IoT_Agent_Tiny_SDK_Linux//agent_tiny/examples/agent_tiny_cmd_ioctl.c **** 
 342:/home/baikal/workspace/C50/Huawei_IoT_Agent_Tiny_SDK_Linux//agent_tiny/examples/agent_tiny_cmd_ioctl.c **** //-----  3GPP TS 23.032 V11.0.0(2012-09) ---------
GAS LISTING /tmp/cc385yI2.s 			page 26


 343:/home/baikal/workspace/C50/Huawei_IoT_Agent_Tiny_SDK_Linux//agent_tiny/examples/agent_tiny_cmd_ioctl.c **** #define HORIZONTAL_VELOCITY                  0
 344:/home/baikal/workspace/C50/Huawei_IoT_Agent_Tiny_SDK_Linux//agent_tiny/examples/agent_tiny_cmd_ioctl.c **** #define HORIZONTAL_VELOCITY_VERTICAL         1
 345:/home/baikal/workspace/C50/Huawei_IoT_Agent_Tiny_SDK_Linux//agent_tiny/examples/agent_tiny_cmd_ioctl.c **** #define HORIZONTAL_VELOCITY_WITH_UNCERTAINTY 2
 346:/home/baikal/workspace/C50/Huawei_IoT_Agent_Tiny_SDK_Linux//agent_tiny/examples/agent_tiny_cmd_ioctl.c **** 
 347:/home/baikal/workspace/C50/Huawei_IoT_Agent_Tiny_SDK_Linux//agent_tiny/examples/agent_tiny_cmd_ioctl.c **** #define VELOCITY_OCTETS                      5
 348:/home/baikal/workspace/C50/Huawei_IoT_Agent_Tiny_SDK_Linux//agent_tiny/examples/agent_tiny_cmd_ioctl.c **** 
 349:/home/baikal/workspace/C50/Huawei_IoT_Agent_Tiny_SDK_Linux//agent_tiny/examples/agent_tiny_cmd_ioctl.c **** void location_get_velocity(atiny_velocity_s* velocity,
 350:/home/baikal/workspace/C50/Huawei_IoT_Agent_Tiny_SDK_Linux//agent_tiny/examples/agent_tiny_cmd_ioctl.c ****                           uint16_t bearing,
 351:/home/baikal/workspace/C50/Huawei_IoT_Agent_Tiny_SDK_Linux//agent_tiny/examples/agent_tiny_cmd_ioctl.c ****                           uint16_t horizontal_speed,
 352:/home/baikal/workspace/C50/Huawei_IoT_Agent_Tiny_SDK_Linux//agent_tiny/examples/agent_tiny_cmd_ioctl.c ****                           uint8_t speed_uncertainty)
 353:/home/baikal/workspace/C50/Huawei_IoT_Agent_Tiny_SDK_Linux//agent_tiny/examples/agent_tiny_cmd_ioctl.c **** {
 972              		.loc 1 353 0
 973              		.cfi_startproc
 974              	.LVL84:
 354:/home/baikal/workspace/C50/Huawei_IoT_Agent_Tiny_SDK_Linux//agent_tiny/examples/agent_tiny_cmd_ioctl.c ****     uint8_t tmp[VELOCITY_OCTETS];
 355:/home/baikal/workspace/C50/Huawei_IoT_Agent_Tiny_SDK_Linux//agent_tiny/examples/agent_tiny_cmd_ioctl.c ****     int copy_len;
 356:/home/baikal/workspace/C50/Huawei_IoT_Agent_Tiny_SDK_Linux//agent_tiny/examples/agent_tiny_cmd_ioctl.c **** 
 357:/home/baikal/workspace/C50/Huawei_IoT_Agent_Tiny_SDK_Linux//agent_tiny/examples/agent_tiny_cmd_ioctl.c ****     tmp[0] = HORIZONTAL_VELOCITY_WITH_UNCERTAINTY << 4;
 358:/home/baikal/workspace/C50/Huawei_IoT_Agent_Tiny_SDK_Linux//agent_tiny/examples/agent_tiny_cmd_ioctl.c ****     tmp[0] |= (bearing & 0x100) >> 8;
 975              		.loc 1 358 0
 976 0000 89F0     		movl	%esi, %eax
 977 0002 66250001 		andw	$256, %ax
 978 0006 0FB7C0   		movzwl	%ax, %eax
 979 0009 C1F808   		sarl	$8, %eax
 980 000c 83C820   		orl	$32, %eax
 981 000f 884424F0 		movb	%al, -16(%rsp)
 359:/home/baikal/workspace/C50/Huawei_IoT_Agent_Tiny_SDK_Linux//agent_tiny/examples/agent_tiny_cmd_ioctl.c ****     tmp[1] = (bearing & 0xff);
 982              		.loc 1 359 0
 983 0013 40887424 		movb	%sil, -15(%rsp)
 983      F1
 360:/home/baikal/workspace/C50/Huawei_IoT_Agent_Tiny_SDK_Linux//agent_tiny/examples/agent_tiny_cmd_ioctl.c ****     tmp[2] = horizontal_speed >> 8;
 984              		.loc 1 360 0
 985 0018 89D0     		movl	%edx, %eax
 986 001a 66C1E808 		shrw	$8, %ax
 987 001e 884424F2 		movb	%al, -14(%rsp)
 361:/home/baikal/workspace/C50/Huawei_IoT_Agent_Tiny_SDK_Linux//agent_tiny/examples/agent_tiny_cmd_ioctl.c ****     tmp[3] = horizontal_speed & 0xff;
 988              		.loc 1 361 0
 989 0022 885424F3 		movb	%dl, -13(%rsp)
 990              	.LVL85:
 991              	.LBB6:
 992              	.LBB7:
 993              		.file 2 "/usr/include/x86_64-linux-gnu/bits/string3.h"
   1:/usr/include/x86_64-linux-gnu/bits/string3.h **** /* Copyright (C) 2004-2016 Free Software Foundation, Inc.
   2:/usr/include/x86_64-linux-gnu/bits/string3.h ****    This file is part of the GNU C Library.
   3:/usr/include/x86_64-linux-gnu/bits/string3.h **** 
   4:/usr/include/x86_64-linux-gnu/bits/string3.h ****    The GNU C Library is free software; you can redistribute it and/or
   5:/usr/include/x86_64-linux-gnu/bits/string3.h ****    modify it under the terms of the GNU Lesser General Public
   6:/usr/include/x86_64-linux-gnu/bits/string3.h ****    License as published by the Free Software Foundation; either
   7:/usr/include/x86_64-linux-gnu/bits/string3.h ****    version 2.1 of the License, or (at your option) any later version.
   8:/usr/include/x86_64-linux-gnu/bits/string3.h **** 
   9:/usr/include/x86_64-linux-gnu/bits/string3.h ****    The GNU C Library is distributed in the hope that it will be useful,
  10:/usr/include/x86_64-linux-gnu/bits/string3.h ****    but WITHOUT ANY WARRANTY; without even the implied warranty of
  11:/usr/include/x86_64-linux-gnu/bits/string3.h ****    MERCHANTABILITY or FITNESS FOR A PARTICULAR PURPOSE.  See the GNU
  12:/usr/include/x86_64-linux-gnu/bits/string3.h ****    Lesser General Public License for more details.
  13:/usr/include/x86_64-linux-gnu/bits/string3.h **** 
  14:/usr/include/x86_64-linux-gnu/bits/string3.h ****    You should have received a copy of the GNU Lesser General Public
  15:/usr/include/x86_64-linux-gnu/bits/string3.h ****    License along with the GNU C Library; if not, see
GAS LISTING /tmp/cc385yI2.s 			page 27


  16:/usr/include/x86_64-linux-gnu/bits/string3.h ****    <http://www.gnu.org/licenses/>.  */
  17:/usr/include/x86_64-linux-gnu/bits/string3.h **** 
  18:/usr/include/x86_64-linux-gnu/bits/string3.h **** #ifndef _STRING_H
  19:/usr/include/x86_64-linux-gnu/bits/string3.h **** # error "Never use <bits/string3.h> directly; include <string.h> instead."
  20:/usr/include/x86_64-linux-gnu/bits/string3.h **** #endif
  21:/usr/include/x86_64-linux-gnu/bits/string3.h **** 
  22:/usr/include/x86_64-linux-gnu/bits/string3.h **** #if !__GNUC_PREREQ (5,0)
  23:/usr/include/x86_64-linux-gnu/bits/string3.h **** __warndecl (__warn_memset_zero_len,
  24:/usr/include/x86_64-linux-gnu/bits/string3.h **** 	    "memset used with constant zero length parameter; this could be due to transposed parameters")
  25:/usr/include/x86_64-linux-gnu/bits/string3.h **** #endif
  26:/usr/include/x86_64-linux-gnu/bits/string3.h **** 
  27:/usr/include/x86_64-linux-gnu/bits/string3.h **** #ifndef __cplusplus
  28:/usr/include/x86_64-linux-gnu/bits/string3.h **** /* XXX This is temporarily.  We should not redefine any of the symbols
  29:/usr/include/x86_64-linux-gnu/bits/string3.h ****    and instead integrate the error checking into the original
  30:/usr/include/x86_64-linux-gnu/bits/string3.h ****    definitions.  */
  31:/usr/include/x86_64-linux-gnu/bits/string3.h **** # undef memcpy
  32:/usr/include/x86_64-linux-gnu/bits/string3.h **** # undef memmove
  33:/usr/include/x86_64-linux-gnu/bits/string3.h **** # undef memset
  34:/usr/include/x86_64-linux-gnu/bits/string3.h **** # undef strcat
  35:/usr/include/x86_64-linux-gnu/bits/string3.h **** # undef strcpy
  36:/usr/include/x86_64-linux-gnu/bits/string3.h **** # undef strncat
  37:/usr/include/x86_64-linux-gnu/bits/string3.h **** # undef strncpy
  38:/usr/include/x86_64-linux-gnu/bits/string3.h **** # ifdef __USE_GNU
  39:/usr/include/x86_64-linux-gnu/bits/string3.h **** #  undef mempcpy
  40:/usr/include/x86_64-linux-gnu/bits/string3.h **** #  undef stpcpy
  41:/usr/include/x86_64-linux-gnu/bits/string3.h **** # endif
  42:/usr/include/x86_64-linux-gnu/bits/string3.h **** # ifdef __USE_MISC
  43:/usr/include/x86_64-linux-gnu/bits/string3.h **** #  undef bcopy
  44:/usr/include/x86_64-linux-gnu/bits/string3.h **** #  undef bzero
  45:/usr/include/x86_64-linux-gnu/bits/string3.h **** # endif
  46:/usr/include/x86_64-linux-gnu/bits/string3.h **** #endif
  47:/usr/include/x86_64-linux-gnu/bits/string3.h **** 
  48:/usr/include/x86_64-linux-gnu/bits/string3.h **** 
  49:/usr/include/x86_64-linux-gnu/bits/string3.h **** __fortify_function void *
  50:/usr/include/x86_64-linux-gnu/bits/string3.h **** __NTH (memcpy (void *__restrict __dest, const void *__restrict __src,
  51:/usr/include/x86_64-linux-gnu/bits/string3.h **** 	       size_t __len))
  52:/usr/include/x86_64-linux-gnu/bits/string3.h **** {
  53:/usr/include/x86_64-linux-gnu/bits/string3.h ****   return __builtin___memcpy_chk (__dest, __src, __len, __bos0 (__dest));
 994              		.loc 2 53 0
 995 0026 8B4424F0 		movl	-16(%rsp), %eax
 996 002a 8907     		movl	%eax, (%rdi)
 997 002c 884F04   		movb	%cl, 4(%rdi)
 998              	.LVL86:
 999              	.LBE7:
 1000              	.LBE6:
 362:/home/baikal/workspace/C50/Huawei_IoT_Agent_Tiny_SDK_Linux//agent_tiny/examples/agent_tiny_cmd_ioctl.c ****     tmp[4] = speed_uncertainty;
 363:/home/baikal/workspace/C50/Huawei_IoT_Agent_Tiny_SDK_Linux//agent_tiny/examples/agent_tiny_cmd_ioctl.c **** 
 364:/home/baikal/workspace/C50/Huawei_IoT_Agent_Tiny_SDK_Linux//agent_tiny/examples/agent_tiny_cmd_ioctl.c ****     copy_len = MAX_VELOCITY_LEN > sizeof(tmp) ? sizeof(tmp) : MAX_VELOCITY_LEN;
 365:/home/baikal/workspace/C50/Huawei_IoT_Agent_Tiny_SDK_Linux//agent_tiny/examples/agent_tiny_cmd_ioctl.c ****     memcpy(velocity->opaque, tmp, copy_len);
 366:/home/baikal/workspace/C50/Huawei_IoT_Agent_Tiny_SDK_Linux//agent_tiny/examples/agent_tiny_cmd_ioctl.c ****     velocity->length = copy_len;
 1001              		.loc 1 366 0
 1002 002f C7471005 		movl	$5, 16(%rdi)
 1002      000000
 1003 0036 C3       		ret
 1004              		.cfi_endproc
 1005              	.LFE98:
 1007              		.section	.text.atiny_get_velocity,"ax",@progbits
GAS LISTING /tmp/cc385yI2.s 			page 28


 1008              		.globl	atiny_get_velocity
 1010              	atiny_get_velocity:
 1011              	.LFB99:
 367:/home/baikal/workspace/C50/Huawei_IoT_Agent_Tiny_SDK_Linux//agent_tiny/examples/agent_tiny_cmd_ioctl.c **** }
 368:/home/baikal/workspace/C50/Huawei_IoT_Agent_Tiny_SDK_Linux//agent_tiny/examples/agent_tiny_cmd_ioctl.c **** 
 369:/home/baikal/workspace/C50/Huawei_IoT_Agent_Tiny_SDK_Linux//agent_tiny/examples/agent_tiny_cmd_ioctl.c **** int atiny_get_velocity(atiny_velocity_s* velocity)
 370:/home/baikal/workspace/C50/Huawei_IoT_Agent_Tiny_SDK_Linux//agent_tiny/examples/agent_tiny_cmd_ioctl.c **** {
 1012              		.loc 1 370 0
 1013              		.cfi_startproc
 1014              	.LVL87:
 371:/home/baikal/workspace/C50/Huawei_IoT_Agent_Tiny_SDK_Linux//agent_tiny/examples/agent_tiny_cmd_ioctl.c ****     location_get_velocity(velocity, 0, 0, 255);
 1015              		.loc 1 371 0
 1016 0000 B9FF0000 		movl	$255, %ecx
 1016      00
 1017 0005 BA000000 		movl	$0, %edx
 1017      00
 1018 000a BE000000 		movl	$0, %esi
 1018      00
 1019 000f E8000000 		call	location_get_velocity
 1019      00
 1020              	.LVL88:
 372:/home/baikal/workspace/C50/Huawei_IoT_Agent_Tiny_SDK_Linux//agent_tiny/examples/agent_tiny_cmd_ioctl.c ****     return ATINY_OK;
 373:/home/baikal/workspace/C50/Huawei_IoT_Agent_Tiny_SDK_Linux//agent_tiny/examples/agent_tiny_cmd_ioctl.c **** }
 1021              		.loc 1 373 0
 1022 0014 B8000000 		movl	$0, %eax
 1022      00
 1023 0019 C3       		ret
 1024              		.cfi_endproc
 1025              	.LFE99:
 1027              		.section	.text.atiny_cmd_ioctl,"ax",@progbits
 1028              		.globl	atiny_cmd_ioctl
 1030              	atiny_cmd_ioctl:
 1031              	.LFB100:
 374:/home/baikal/workspace/C50/Huawei_IoT_Agent_Tiny_SDK_Linux//agent_tiny/examples/agent_tiny_cmd_ioctl.c **** 
 375:/home/baikal/workspace/C50/Huawei_IoT_Agent_Tiny_SDK_Linux//agent_tiny/examples/agent_tiny_cmd_ioctl.c **** int atiny_cmd_ioctl(atiny_cmd_e cmd, char* arg, int len)
 376:/home/baikal/workspace/C50/Huawei_IoT_Agent_Tiny_SDK_Linux//agent_tiny/examples/agent_tiny_cmd_ioctl.c **** {
 1032              		.loc 1 376 0
 1033              		.cfi_startproc
 1034              	.LVL89:
 377:/home/baikal/workspace/C50/Huawei_IoT_Agent_Tiny_SDK_Linux//agent_tiny/examples/agent_tiny_cmd_ioctl.c ****     int result = ATINY_OK;
 378:/home/baikal/workspace/C50/Huawei_IoT_Agent_Tiny_SDK_Linux//agent_tiny/examples/agent_tiny_cmd_ioctl.c ****     switch(cmd)
 1035              		.loc 1 378 0
 1036 0000 83FF22   		cmpl	$34, %edi
 1037 0003 0F875301 		ja	.L97
 1037      0000
 376:/home/baikal/workspace/C50/Huawei_IoT_Agent_Tiny_SDK_Linux//agent_tiny/examples/agent_tiny_cmd_ioctl.c ****     int result = ATINY_OK;
 1038              		.loc 1 376 0
 1039 0009 4883EC08 		subq	$8, %rsp
 1040              	.LCFI44:
 1041              		.cfi_def_cfa_offset 16
 1042 000d 89F8     		movl	%edi, %eax
 1043 000f 4889F7   		movq	%rsi, %rdi
 1044              	.LVL90:
 1045              		.loc 1 378 0
 1046 0012 89C0     		movl	%eax, %eax
 1047 0014 FF24C500 		jmp	*.L62(,%rax,8)
 1047      000000
GAS LISTING /tmp/cc385yI2.s 			page 29


 1048              		.section	.rodata.atiny_cmd_ioctl,"a",@progbits
 1049              		.align 8
 1050              		.align 4
 1051              	.L62:
 1052 0000 00000000 		.quad	.L61
 1052      00000000 
 1053 0008 00000000 		.quad	.L63
 1053      00000000 
 1054 0010 00000000 		.quad	.L64
 1054      00000000 
 1055 0018 00000000 		.quad	.L65
 1055      00000000 
 1056 0020 00000000 		.quad	.L66
 1056      00000000 
 1057 0028 00000000 		.quad	.L67
 1057      00000000 
 1058 0030 00000000 		.quad	.L68
 1058      00000000 
 1059 0038 00000000 		.quad	.L69
 1059      00000000 
 1060 0040 00000000 		.quad	.L70
 1060      00000000 
 1061 0048 00000000 		.quad	.L71
 1061      00000000 
 1062 0050 00000000 		.quad	.L72
 1062      00000000 
 1063 0058 00000000 		.quad	.L73
 1063      00000000 
 1064 0060 00000000 		.quad	.L74
 1064      00000000 
 1065 0068 00000000 		.quad	.L75
 1065      00000000 
 1066 0070 00000000 		.quad	.L76
 1066      00000000 
 1067 0078 00000000 		.quad	.L77
 1067      00000000 
 1068 0080 00000000 		.quad	.L78
 1068      00000000 
 1069 0088 00000000 		.quad	.L79
 1069      00000000 
 1070 0090 00000000 		.quad	.L80
 1070      00000000 
 1071 0098 00000000 		.quad	.L81
 1071      00000000 
 1072 00a0 00000000 		.quad	.L82
 1072      00000000 
 1073 00a8 00000000 		.quad	.L83
 1073      00000000 
 1074 00b0 00000000 		.quad	.L84
 1074      00000000 
 1075 00b8 00000000 		.quad	.L85
 1075      00000000 
 1076 00c0 00000000 		.quad	.L86
 1076      00000000 
 1077 00c8 00000000 		.quad	.L87
 1077      00000000 
 1078 00d0 00000000 		.quad	.L88
GAS LISTING /tmp/cc385yI2.s 			page 30


 1078      00000000 
 1079 00d8 00000000 		.quad	.L89
 1079      00000000 
 1080 00e0 00000000 		.quad	.L90
 1080      00000000 
 1081 00e8 00000000 		.quad	.L91
 1081      00000000 
 1082 00f0 00000000 		.quad	.L92
 1082      00000000 
 1083 00f8 00000000 		.quad	.L93
 1083      00000000 
 1084 0100 00000000 		.quad	.L94
 1084      00000000 
 1085 0108 00000000 		.quad	.L95
 1085      00000000 
 1086 0110 00000000 		.quad	.L96
 1086      00000000 
 1087              		.section	.text.atiny_cmd_ioctl
 1088              	.L61:
 379:/home/baikal/workspace/C50/Huawei_IoT_Agent_Tiny_SDK_Linux//agent_tiny/examples/agent_tiny_cmd_ioctl.c ****     {
 380:/home/baikal/workspace/C50/Huawei_IoT_Agent_Tiny_SDK_Linux//agent_tiny/examples/agent_tiny_cmd_ioctl.c ****         case ATINY_GET_MANUFACTURER:
 381:/home/baikal/workspace/C50/Huawei_IoT_Agent_Tiny_SDK_Linux//agent_tiny/examples/agent_tiny_cmd_ioctl.c ****             result = atiny_get_manufacturer(arg, len);
 1089              		.loc 1 381 0
 1090 001b 89D6     		movl	%edx, %esi
 1091              	.LVL91:
 1092 001d E8000000 		call	atiny_get_manufacturer
 1092      00
 1093              	.LVL92:
 382:/home/baikal/workspace/C50/Huawei_IoT_Agent_Tiny_SDK_Linux//agent_tiny/examples/agent_tiny_cmd_ioctl.c ****             break;
 1094              		.loc 1 382 0
 1095 0022 E93B0100 		jmp	.L60
 1095      00
 1096              	.LVL93:
 1097              	.L63:
 383:/home/baikal/workspace/C50/Huawei_IoT_Agent_Tiny_SDK_Linux//agent_tiny/examples/agent_tiny_cmd_ioctl.c ****         case ATINY_GET_MODEL_NUMBER:
 384:/home/baikal/workspace/C50/Huawei_IoT_Agent_Tiny_SDK_Linux//agent_tiny/examples/agent_tiny_cmd_ioctl.c ****             result = atiny_get_model_number(arg, len);
 1098              		.loc 1 384 0
 1099 0027 89D6     		movl	%edx, %esi
 1100              	.LVL94:
 1101 0029 E8000000 		call	atiny_get_model_number
 1101      00
 1102              	.LVL95:
 385:/home/baikal/workspace/C50/Huawei_IoT_Agent_Tiny_SDK_Linux//agent_tiny/examples/agent_tiny_cmd_ioctl.c ****             break;
 1103              		.loc 1 385 0
 1104 002e E92F0100 		jmp	.L60
 1104      00
 1105              	.LVL96:
 1106              	.L64:
 386:/home/baikal/workspace/C50/Huawei_IoT_Agent_Tiny_SDK_Linux//agent_tiny/examples/agent_tiny_cmd_ioctl.c ****         case ATINY_GET_SERIAL_NUMBER:
 387:/home/baikal/workspace/C50/Huawei_IoT_Agent_Tiny_SDK_Linux//agent_tiny/examples/agent_tiny_cmd_ioctl.c ****             result = atiny_get_serial_number(arg, len);
 1107              		.loc 1 387 0
 1108 0033 89D6     		movl	%edx, %esi
 1109              	.LVL97:
 1110 0035 E8000000 		call	atiny_get_serial_number
 1110      00
 1111              	.LVL98:
 388:/home/baikal/workspace/C50/Huawei_IoT_Agent_Tiny_SDK_Linux//agent_tiny/examples/agent_tiny_cmd_ioctl.c ****             break;
GAS LISTING /tmp/cc385yI2.s 			page 31


 1112              		.loc 1 388 0
 1113 003a E9230100 		jmp	.L60
 1113      00
 1114              	.LVL99:
 1115              	.L65:
 389:/home/baikal/workspace/C50/Huawei_IoT_Agent_Tiny_SDK_Linux//agent_tiny/examples/agent_tiny_cmd_ioctl.c ****         case ATINY_GET_FIRMWARE_VER:
 390:/home/baikal/workspace/C50/Huawei_IoT_Agent_Tiny_SDK_Linux//agent_tiny/examples/agent_tiny_cmd_ioctl.c ****             result = atiny_get_firmware_ver(arg, len);
 1116              		.loc 1 390 0
 1117 003f 89D6     		movl	%edx, %esi
 1118              	.LVL100:
 1119 0041 E8000000 		call	atiny_get_firmware_ver
 1119      00
 1120              	.LVL101:
 391:/home/baikal/workspace/C50/Huawei_IoT_Agent_Tiny_SDK_Linux//agent_tiny/examples/agent_tiny_cmd_ioctl.c ****             break;
 1121              		.loc 1 391 0
 1122 0046 E9170100 		jmp	.L60
 1122      00
 1123              	.LVL102:
 1124              	.L66:
 392:/home/baikal/workspace/C50/Huawei_IoT_Agent_Tiny_SDK_Linux//agent_tiny/examples/agent_tiny_cmd_ioctl.c ****         case ATINY_DO_DEV_REBOOT:
 393:/home/baikal/workspace/C50/Huawei_IoT_Agent_Tiny_SDK_Linux//agent_tiny/examples/agent_tiny_cmd_ioctl.c ****              result = atiny_do_dev_reboot();
 1125              		.loc 1 393 0
 1126 004b E8000000 		call	atiny_do_dev_reboot
 1126      00
 1127              	.LVL103:
 394:/home/baikal/workspace/C50/Huawei_IoT_Agent_Tiny_SDK_Linux//agent_tiny/examples/agent_tiny_cmd_ioctl.c ****             break;
 1128              		.loc 1 394 0
 1129 0050 E90D0100 		jmp	.L60
 1129      00
 1130              	.LVL104:
 1131              	.L67:
 395:/home/baikal/workspace/C50/Huawei_IoT_Agent_Tiny_SDK_Linux//agent_tiny/examples/agent_tiny_cmd_ioctl.c ****         case ATINY_DO_FACTORY_RESET:
 396:/home/baikal/workspace/C50/Huawei_IoT_Agent_Tiny_SDK_Linux//agent_tiny/examples/agent_tiny_cmd_ioctl.c ****             result = atiny_do_factory_reset();
 1132              		.loc 1 396 0
 1133 0055 E8000000 		call	atiny_do_factory_reset
 1133      00
 1134              	.LVL105:
 397:/home/baikal/workspace/C50/Huawei_IoT_Agent_Tiny_SDK_Linux//agent_tiny/examples/agent_tiny_cmd_ioctl.c ****             break;
 1135              		.loc 1 397 0
 1136 005a E9030100 		jmp	.L60
 1136      00
 1137              	.LVL106:
 1138              	.L68:
 398:/home/baikal/workspace/C50/Huawei_IoT_Agent_Tiny_SDK_Linux//agent_tiny/examples/agent_tiny_cmd_ioctl.c ****         case ATINY_GET_POWER_SOURCE:
 399:/home/baikal/workspace/C50/Huawei_IoT_Agent_Tiny_SDK_Linux//agent_tiny/examples/agent_tiny_cmd_ioctl.c ****             result = atiny_get_power_source((int*)arg);
 1139              		.loc 1 399 0
 1140 005f E8000000 		call	atiny_get_power_source
 1140      00
 1141              	.LVL107:
 400:/home/baikal/workspace/C50/Huawei_IoT_Agent_Tiny_SDK_Linux//agent_tiny/examples/agent_tiny_cmd_ioctl.c ****             break;
 1142              		.loc 1 400 0
 1143 0064 E9F90000 		jmp	.L60
 1143      00
 1144              	.LVL108:
 1145              	.L69:
 401:/home/baikal/workspace/C50/Huawei_IoT_Agent_Tiny_SDK_Linux//agent_tiny/examples/agent_tiny_cmd_ioctl.c ****         case ATINY_GET_SOURCE_VOLTAGE:
 402:/home/baikal/workspace/C50/Huawei_IoT_Agent_Tiny_SDK_Linux//agent_tiny/examples/agent_tiny_cmd_ioctl.c ****             result = atiny_get_source_voltage((int*)arg);
GAS LISTING /tmp/cc385yI2.s 			page 32


 1146              		.loc 1 402 0
 1147 0069 E8000000 		call	atiny_get_source_voltage
 1147      00
 1148              	.LVL109:
 403:/home/baikal/workspace/C50/Huawei_IoT_Agent_Tiny_SDK_Linux//agent_tiny/examples/agent_tiny_cmd_ioctl.c ****             break;
 1149              		.loc 1 403 0
 1150 006e E9EF0000 		jmp	.L60
 1150      00
 1151              	.LVL110:
 1152              	.L70:
 404:/home/baikal/workspace/C50/Huawei_IoT_Agent_Tiny_SDK_Linux//agent_tiny/examples/agent_tiny_cmd_ioctl.c ****         case ATINY_GET_POWER_CURRENT:
 405:/home/baikal/workspace/C50/Huawei_IoT_Agent_Tiny_SDK_Linux//agent_tiny/examples/agent_tiny_cmd_ioctl.c ****             result = atiny_get_power_current((int*)arg);
 1153              		.loc 1 405 0
 1154 0073 E8000000 		call	atiny_get_power_current
 1154      00
 1155              	.LVL111:
 406:/home/baikal/workspace/C50/Huawei_IoT_Agent_Tiny_SDK_Linux//agent_tiny/examples/agent_tiny_cmd_ioctl.c ****             break;
 1156              		.loc 1 406 0
 1157 0078 E9E50000 		jmp	.L60
 1157      00
 1158              	.LVL112:
 1159              	.L71:
 407:/home/baikal/workspace/C50/Huawei_IoT_Agent_Tiny_SDK_Linux//agent_tiny/examples/agent_tiny_cmd_ioctl.c ****         case ATINY_GET_BATERRY_LEVEL:
 408:/home/baikal/workspace/C50/Huawei_IoT_Agent_Tiny_SDK_Linux//agent_tiny/examples/agent_tiny_cmd_ioctl.c ****             result = atiny_get_baterry_level((int*)arg);
 1160              		.loc 1 408 0
 1161 007d E8000000 		call	atiny_get_baterry_level
 1161      00
 1162              	.LVL113:
 409:/home/baikal/workspace/C50/Huawei_IoT_Agent_Tiny_SDK_Linux//agent_tiny/examples/agent_tiny_cmd_ioctl.c ****             break;
 1163              		.loc 1 409 0
 1164 0082 E9DB0000 		jmp	.L60
 1164      00
 1165              	.LVL114:
 1166              	.L72:
 410:/home/baikal/workspace/C50/Huawei_IoT_Agent_Tiny_SDK_Linux//agent_tiny/examples/agent_tiny_cmd_ioctl.c ****         case ATINY_GET_MEMORY_FREE:
 411:/home/baikal/workspace/C50/Huawei_IoT_Agent_Tiny_SDK_Linux//agent_tiny/examples/agent_tiny_cmd_ioctl.c ****             result = atiny_get_memory_free((int*)arg);
 1167              		.loc 1 411 0
 1168 0087 E8000000 		call	atiny_get_memory_free
 1168      00
 1169              	.LVL115:
 412:/home/baikal/workspace/C50/Huawei_IoT_Agent_Tiny_SDK_Linux//agent_tiny/examples/agent_tiny_cmd_ioctl.c ****             break;
 1170              		.loc 1 412 0
 1171 008c E9D10000 		jmp	.L60
 1171      00
 1172              	.LVL116:
 1173              	.L73:
 413:/home/baikal/workspace/C50/Huawei_IoT_Agent_Tiny_SDK_Linux//agent_tiny/examples/agent_tiny_cmd_ioctl.c ****         case ATINY_GET_DEV_ERR:
 414:/home/baikal/workspace/C50/Huawei_IoT_Agent_Tiny_SDK_Linux//agent_tiny/examples/agent_tiny_cmd_ioctl.c ****             result = atiny_get_dev_err((int*)arg);
 1174              		.loc 1 414 0
 1175 0091 E8000000 		call	atiny_get_dev_err
 1175      00
 1176              	.LVL117:
 415:/home/baikal/workspace/C50/Huawei_IoT_Agent_Tiny_SDK_Linux//agent_tiny/examples/agent_tiny_cmd_ioctl.c ****             break;
 1177              		.loc 1 415 0
 1178 0096 E9C70000 		jmp	.L60
 1178      00
 1179              	.LVL118:
GAS LISTING /tmp/cc385yI2.s 			page 33


 1180              	.L74:
 416:/home/baikal/workspace/C50/Huawei_IoT_Agent_Tiny_SDK_Linux//agent_tiny/examples/agent_tiny_cmd_ioctl.c ****         case ATINY_DO_RESET_DEV_ERR:
 417:/home/baikal/workspace/C50/Huawei_IoT_Agent_Tiny_SDK_Linux//agent_tiny/examples/agent_tiny_cmd_ioctl.c ****             result = atiny_do_reset_dev_err();
 1181              		.loc 1 417 0
 1182 009b E8000000 		call	atiny_do_reset_dev_err
 1182      00
 1183              	.LVL119:
 418:/home/baikal/workspace/C50/Huawei_IoT_Agent_Tiny_SDK_Linux//agent_tiny/examples/agent_tiny_cmd_ioctl.c ****             break;
 1184              		.loc 1 418 0
 1185 00a0 E9BD0000 		jmp	.L60
 1185      00
 1186              	.LVL120:
 1187              	.L75:
 419:/home/baikal/workspace/C50/Huawei_IoT_Agent_Tiny_SDK_Linux//agent_tiny/examples/agent_tiny_cmd_ioctl.c ****         case ATINY_GET_CURRENT_TIME:
 420:/home/baikal/workspace/C50/Huawei_IoT_Agent_Tiny_SDK_Linux//agent_tiny/examples/agent_tiny_cmd_ioctl.c ****             result = atiny_get_current_time((int64_t*)arg);
 1188              		.loc 1 420 0
 1189 00a5 E8000000 		call	atiny_get_current_time
 1189      00
 1190              	.LVL121:
 421:/home/baikal/workspace/C50/Huawei_IoT_Agent_Tiny_SDK_Linux//agent_tiny/examples/agent_tiny_cmd_ioctl.c ****             break;
 1191              		.loc 1 421 0
 1192 00aa E9B30000 		jmp	.L60
 1192      00
 1193              	.LVL122:
 1194              	.L76:
 422:/home/baikal/workspace/C50/Huawei_IoT_Agent_Tiny_SDK_Linux//agent_tiny/examples/agent_tiny_cmd_ioctl.c ****         case ATINY_SET_CURRENT_TIME:
 423:/home/baikal/workspace/C50/Huawei_IoT_Agent_Tiny_SDK_Linux//agent_tiny/examples/agent_tiny_cmd_ioctl.c ****             result = atiny_set_current_time((const int64_t*)arg);
 1195              		.loc 1 423 0
 1196 00af E8000000 		call	atiny_set_current_time
 1196      00
 1197              	.LVL123:
 424:/home/baikal/workspace/C50/Huawei_IoT_Agent_Tiny_SDK_Linux//agent_tiny/examples/agent_tiny_cmd_ioctl.c ****             break;
 1198              		.loc 1 424 0
 1199 00b4 E9A90000 		jmp	.L60
 1199      00
 1200              	.LVL124:
 1201              	.L77:
 425:/home/baikal/workspace/C50/Huawei_IoT_Agent_Tiny_SDK_Linux//agent_tiny/examples/agent_tiny_cmd_ioctl.c ****         case ATINY_GET_UTC_OFFSET:
 426:/home/baikal/workspace/C50/Huawei_IoT_Agent_Tiny_SDK_Linux//agent_tiny/examples/agent_tiny_cmd_ioctl.c ****             result = atiny_get_UTC_offset(arg, len);
 1202              		.loc 1 426 0
 1203 00b9 89D6     		movl	%edx, %esi
 1204              	.LVL125:
 1205 00bb E8000000 		call	atiny_get_UTC_offset
 1205      00
 1206              	.LVL126:
 427:/home/baikal/workspace/C50/Huawei_IoT_Agent_Tiny_SDK_Linux//agent_tiny/examples/agent_tiny_cmd_ioctl.c ****             break;
 1207              		.loc 1 427 0
 1208 00c0 E99D0000 		jmp	.L60
 1208      00
 1209              	.LVL127:
 1210              	.L78:
 428:/home/baikal/workspace/C50/Huawei_IoT_Agent_Tiny_SDK_Linux//agent_tiny/examples/agent_tiny_cmd_ioctl.c ****         case ATINY_SET_UTC_OFFSET:
 429:/home/baikal/workspace/C50/Huawei_IoT_Agent_Tiny_SDK_Linux//agent_tiny/examples/agent_tiny_cmd_ioctl.c ****             result = atiny_set_UTC_offset(arg, len);
 1211              		.loc 1 429 0
 1212 00c5 89D6     		movl	%edx, %esi
 1213              	.LVL128:
 1214 00c7 E8000000 		call	atiny_set_UTC_offset
GAS LISTING /tmp/cc385yI2.s 			page 34


 1214      00
 1215              	.LVL129:
 430:/home/baikal/workspace/C50/Huawei_IoT_Agent_Tiny_SDK_Linux//agent_tiny/examples/agent_tiny_cmd_ioctl.c ****             break;
 1216              		.loc 1 430 0
 1217 00cc E9910000 		jmp	.L60
 1217      00
 1218              	.LVL130:
 1219              	.L79:
 431:/home/baikal/workspace/C50/Huawei_IoT_Agent_Tiny_SDK_Linux//agent_tiny/examples/agent_tiny_cmd_ioctl.c ****         case ATINY_GET_TIMEZONE:
 432:/home/baikal/workspace/C50/Huawei_IoT_Agent_Tiny_SDK_Linux//agent_tiny/examples/agent_tiny_cmd_ioctl.c ****             result = atiny_get_timezone(arg, len);
 1220              		.loc 1 432 0
 1221 00d1 89D6     		movl	%edx, %esi
 1222              	.LVL131:
 1223 00d3 E8000000 		call	atiny_get_timezone
 1223      00
 1224              	.LVL132:
 433:/home/baikal/workspace/C50/Huawei_IoT_Agent_Tiny_SDK_Linux//agent_tiny/examples/agent_tiny_cmd_ioctl.c ****             break;
 1225              		.loc 1 433 0
 1226 00d8 E9850000 		jmp	.L60
 1226      00
 1227              	.LVL133:
 1228              	.L80:
 434:/home/baikal/workspace/C50/Huawei_IoT_Agent_Tiny_SDK_Linux//agent_tiny/examples/agent_tiny_cmd_ioctl.c ****         case ATINY_SET_TIMEZONE:
 435:/home/baikal/workspace/C50/Huawei_IoT_Agent_Tiny_SDK_Linux//agent_tiny/examples/agent_tiny_cmd_ioctl.c ****             result = atiny_set_timezone(arg, len);
 1229              		.loc 1 435 0
 1230 00dd 89D6     		movl	%edx, %esi
 1231              	.LVL134:
 1232 00df E8000000 		call	atiny_set_timezone
 1232      00
 1233              	.LVL135:
 436:/home/baikal/workspace/C50/Huawei_IoT_Agent_Tiny_SDK_Linux//agent_tiny/examples/agent_tiny_cmd_ioctl.c ****             break;
 1234              		.loc 1 436 0
 1235 00e4 EB7C     		jmp	.L60
 1236              	.LVL136:
 1237              	.L81:
 437:/home/baikal/workspace/C50/Huawei_IoT_Agent_Tiny_SDK_Linux//agent_tiny/examples/agent_tiny_cmd_ioctl.c ****         case ATINY_GET_BINDING_MODES:
 438:/home/baikal/workspace/C50/Huawei_IoT_Agent_Tiny_SDK_Linux//agent_tiny/examples/agent_tiny_cmd_ioctl.c ****             result = atiny_get_bind_mode(arg, len);
 1238              		.loc 1 438 0
 1239 00e6 89D6     		movl	%edx, %esi
 1240              	.LVL137:
 1241 00e8 E8000000 		call	atiny_get_bind_mode
 1241      00
 1242              	.LVL138:
 439:/home/baikal/workspace/C50/Huawei_IoT_Agent_Tiny_SDK_Linux//agent_tiny/examples/agent_tiny_cmd_ioctl.c ****             break;
 1243              		.loc 1 439 0
 1244 00ed EB73     		jmp	.L60
 1245              	.LVL139:
 1246              	.L82:
 440:/home/baikal/workspace/C50/Huawei_IoT_Agent_Tiny_SDK_Linux//agent_tiny/examples/agent_tiny_cmd_ioctl.c ****         case ATINY_GET_FIRMWARE_STATE:
 441:/home/baikal/workspace/C50/Huawei_IoT_Agent_Tiny_SDK_Linux//agent_tiny/examples/agent_tiny_cmd_ioctl.c ****             result = atiny_get_firmware_state((int*)arg);
 1247              		.loc 1 441 0
 1248 00ef E8000000 		call	atiny_get_firmware_state
 1248      00
 1249              	.LVL140:
 442:/home/baikal/workspace/C50/Huawei_IoT_Agent_Tiny_SDK_Linux//agent_tiny/examples/agent_tiny_cmd_ioctl.c ****             break;
 1250              		.loc 1 442 0
 1251 00f4 EB6C     		jmp	.L60
GAS LISTING /tmp/cc385yI2.s 			page 35


 1252              	.LVL141:
 1253              	.L83:
 443:/home/baikal/workspace/C50/Huawei_IoT_Agent_Tiny_SDK_Linux//agent_tiny/examples/agent_tiny_cmd_ioctl.c ****         case ATINY_GET_NETWORK_BEARER:
 444:/home/baikal/workspace/C50/Huawei_IoT_Agent_Tiny_SDK_Linux//agent_tiny/examples/agent_tiny_cmd_ioctl.c ****             result = atiny_get_network_bearer((int*)arg);
 1254              		.loc 1 444 0
 1255 00f6 E8000000 		call	atiny_get_network_bearer
 1255      00
 1256              	.LVL142:
 445:/home/baikal/workspace/C50/Huawei_IoT_Agent_Tiny_SDK_Linux//agent_tiny/examples/agent_tiny_cmd_ioctl.c ****             break;
 1257              		.loc 1 445 0
 1258 00fb EB65     		jmp	.L60
 1259              	.LVL143:
 1260              	.L84:
 446:/home/baikal/workspace/C50/Huawei_IoT_Agent_Tiny_SDK_Linux//agent_tiny/examples/agent_tiny_cmd_ioctl.c ****         case ATINY_GET_SIGNAL_STRENGTH:
 447:/home/baikal/workspace/C50/Huawei_IoT_Agent_Tiny_SDK_Linux//agent_tiny/examples/agent_tiny_cmd_ioctl.c ****             result = atiny_get_signal_strength((int*)arg);
 1261              		.loc 1 447 0
 1262 00fd E8000000 		call	atiny_get_signal_strength
 1262      00
 1263              	.LVL144:
 448:/home/baikal/workspace/C50/Huawei_IoT_Agent_Tiny_SDK_Linux//agent_tiny/examples/agent_tiny_cmd_ioctl.c ****             break;
 1264              		.loc 1 448 0
 1265 0102 EB5E     		jmp	.L60
 1266              	.LVL145:
 1267              	.L85:
 449:/home/baikal/workspace/C50/Huawei_IoT_Agent_Tiny_SDK_Linux//agent_tiny/examples/agent_tiny_cmd_ioctl.c ****         case ATINY_GET_CELL_ID:
 450:/home/baikal/workspace/C50/Huawei_IoT_Agent_Tiny_SDK_Linux//agent_tiny/examples/agent_tiny_cmd_ioctl.c ****             result = atiny_get_cell_id((long*)arg);
 1268              		.loc 1 450 0
 1269 0104 E8000000 		call	atiny_get_cell_id
 1269      00
 1270              	.LVL146:
 451:/home/baikal/workspace/C50/Huawei_IoT_Agent_Tiny_SDK_Linux//agent_tiny/examples/agent_tiny_cmd_ioctl.c ****             break;
 1271              		.loc 1 451 0
 1272 0109 EB57     		jmp	.L60
 1273              	.LVL147:
 1274              	.L86:
 452:/home/baikal/workspace/C50/Huawei_IoT_Agent_Tiny_SDK_Linux//agent_tiny/examples/agent_tiny_cmd_ioctl.c ****         case ATINY_GET_LINK_QUALITY:
 453:/home/baikal/workspace/C50/Huawei_IoT_Agent_Tiny_SDK_Linux//agent_tiny/examples/agent_tiny_cmd_ioctl.c ****             result = atiny_get_link_quality((int*)arg);
 1275              		.loc 1 453 0
 1276 010b E8000000 		call	atiny_get_link_quality
 1276      00
 1277              	.LVL148:
 454:/home/baikal/workspace/C50/Huawei_IoT_Agent_Tiny_SDK_Linux//agent_tiny/examples/agent_tiny_cmd_ioctl.c ****             break;
 1278              		.loc 1 454 0
 1279 0110 EB50     		jmp	.L60
 1280              	.LVL149:
 1281              	.L87:
 455:/home/baikal/workspace/C50/Huawei_IoT_Agent_Tiny_SDK_Linux//agent_tiny/examples/agent_tiny_cmd_ioctl.c ****         case ATINY_GET_LINK_UTILIZATION:
 456:/home/baikal/workspace/C50/Huawei_IoT_Agent_Tiny_SDK_Linux//agent_tiny/examples/agent_tiny_cmd_ioctl.c ****             result = atiny_get_link_utilization((int*)arg);
 1282              		.loc 1 456 0
 1283 0112 E8000000 		call	atiny_get_link_utilization
 1283      00
 1284              	.LVL150:
 457:/home/baikal/workspace/C50/Huawei_IoT_Agent_Tiny_SDK_Linux//agent_tiny/examples/agent_tiny_cmd_ioctl.c ****             break;
 1285              		.loc 1 457 0
 1286 0117 EB49     		jmp	.L60
 1287              	.LVL151:
 1288              	.L88:
GAS LISTING /tmp/cc385yI2.s 			page 36


 458:/home/baikal/workspace/C50/Huawei_IoT_Agent_Tiny_SDK_Linux//agent_tiny/examples/agent_tiny_cmd_ioctl.c ****         case ATINY_WRITE_APP_DATA:
 459:/home/baikal/workspace/C50/Huawei_IoT_Agent_Tiny_SDK_Linux//agent_tiny/examples/agent_tiny_cmd_ioctl.c ****             result = atiny_write_app_write((int*)arg, len);
 1289              		.loc 1 459 0
 1290 0119 89D6     		movl	%edx, %esi
 1291              	.LVL152:
 1292 011b E8000000 		call	atiny_write_app_write
 1292      00
 1293              	.LVL153:
 460:/home/baikal/workspace/C50/Huawei_IoT_Agent_Tiny_SDK_Linux//agent_tiny/examples/agent_tiny_cmd_ioctl.c ****             break;
 1294              		.loc 1 460 0
 1295 0120 EB40     		jmp	.L60
 1296              	.LVL154:
 1297              	.L89:
 461:/home/baikal/workspace/C50/Huawei_IoT_Agent_Tiny_SDK_Linux//agent_tiny/examples/agent_tiny_cmd_ioctl.c ****         case ATINY_UPDATE_PSK:
 462:/home/baikal/workspace/C50/Huawei_IoT_Agent_Tiny_SDK_Linux//agent_tiny/examples/agent_tiny_cmd_ioctl.c ****             result = atiny_update_psk(arg, len);
 1298              		.loc 1 462 0
 1299 0122 89D6     		movl	%edx, %esi
 1300              	.LVL155:
 1301 0124 E8000000 		call	atiny_update_psk
 1301      00
 1302              	.LVL156:
 463:/home/baikal/workspace/C50/Huawei_IoT_Agent_Tiny_SDK_Linux//agent_tiny/examples/agent_tiny_cmd_ioctl.c ****             break;
 1303              		.loc 1 463 0
 1304 0129 EB37     		jmp	.L60
 1305              	.LVL157:
 1306              	.L90:
 464:/home/baikal/workspace/C50/Huawei_IoT_Agent_Tiny_SDK_Linux//agent_tiny/examples/agent_tiny_cmd_ioctl.c ****         case ATINY_GET_LATITUDE:
 465:/home/baikal/workspace/C50/Huawei_IoT_Agent_Tiny_SDK_Linux//agent_tiny/examples/agent_tiny_cmd_ioctl.c ****             result = atiny_get_latitude((float*)arg);
 1307              		.loc 1 465 0
 1308 012b E8000000 		call	atiny_get_latitude
 1308      00
 1309              	.LVL158:
 466:/home/baikal/workspace/C50/Huawei_IoT_Agent_Tiny_SDK_Linux//agent_tiny/examples/agent_tiny_cmd_ioctl.c ****             break;
 1310              		.loc 1 466 0
 1311 0130 EB30     		jmp	.L60
 1312              	.LVL159:
 1313              	.L91:
 467:/home/baikal/workspace/C50/Huawei_IoT_Agent_Tiny_SDK_Linux//agent_tiny/examples/agent_tiny_cmd_ioctl.c ****         case ATINY_GET_LONGITUDE:
 468:/home/baikal/workspace/C50/Huawei_IoT_Agent_Tiny_SDK_Linux//agent_tiny/examples/agent_tiny_cmd_ioctl.c ****             result = atiny_get_longitude((float*)arg);
 1314              		.loc 1 468 0
 1315 0132 E8000000 		call	atiny_get_longitude
 1315      00
 1316              	.LVL160:
 469:/home/baikal/workspace/C50/Huawei_IoT_Agent_Tiny_SDK_Linux//agent_tiny/examples/agent_tiny_cmd_ioctl.c ****             break;
 1317              		.loc 1 469 0
 1318 0137 EB29     		jmp	.L60
 1319              	.LVL161:
 1320              	.L92:
 470:/home/baikal/workspace/C50/Huawei_IoT_Agent_Tiny_SDK_Linux//agent_tiny/examples/agent_tiny_cmd_ioctl.c ****         case ATINY_GET_ALTITUDE:
 471:/home/baikal/workspace/C50/Huawei_IoT_Agent_Tiny_SDK_Linux//agent_tiny/examples/agent_tiny_cmd_ioctl.c ****             result = atiny_get_altitude((float*)arg);
 1321              		.loc 1 471 0
 1322 0139 E8000000 		call	atiny_get_altitude
 1322      00
 1323              	.LVL162:
 472:/home/baikal/workspace/C50/Huawei_IoT_Agent_Tiny_SDK_Linux//agent_tiny/examples/agent_tiny_cmd_ioctl.c ****             break;
 1324              		.loc 1 472 0
 1325 013e EB22     		jmp	.L60
GAS LISTING /tmp/cc385yI2.s 			page 37


 1326              	.LVL163:
 1327              	.L93:
 473:/home/baikal/workspace/C50/Huawei_IoT_Agent_Tiny_SDK_Linux//agent_tiny/examples/agent_tiny_cmd_ioctl.c ****         case ATINY_GET_RADIUS:
 474:/home/baikal/workspace/C50/Huawei_IoT_Agent_Tiny_SDK_Linux//agent_tiny/examples/agent_tiny_cmd_ioctl.c ****             result = atiny_get_radius((float*)arg);
 1328              		.loc 1 474 0
 1329 0140 E8000000 		call	atiny_get_radius
 1329      00
 1330              	.LVL164:
 475:/home/baikal/workspace/C50/Huawei_IoT_Agent_Tiny_SDK_Linux//agent_tiny/examples/agent_tiny_cmd_ioctl.c ****             break;
 1331              		.loc 1 475 0
 1332 0145 EB1B     		jmp	.L60
 1333              	.LVL165:
 1334              	.L94:
 476:/home/baikal/workspace/C50/Huawei_IoT_Agent_Tiny_SDK_Linux//agent_tiny/examples/agent_tiny_cmd_ioctl.c ****         case ATINY_GET_SPEED:
 477:/home/baikal/workspace/C50/Huawei_IoT_Agent_Tiny_SDK_Linux//agent_tiny/examples/agent_tiny_cmd_ioctl.c ****             result = atiny_get_speed((float*)arg);
 1335              		.loc 1 477 0
 1336 0147 E8000000 		call	atiny_get_speed
 1336      00
 1337              	.LVL166:
 478:/home/baikal/workspace/C50/Huawei_IoT_Agent_Tiny_SDK_Linux//agent_tiny/examples/agent_tiny_cmd_ioctl.c ****             break;
 1338              		.loc 1 478 0
 1339 014c EB14     		jmp	.L60
 1340              	.LVL167:
 1341              	.L95:
 479:/home/baikal/workspace/C50/Huawei_IoT_Agent_Tiny_SDK_Linux//agent_tiny/examples/agent_tiny_cmd_ioctl.c ****         case ATINY_GET_TIMESTAMP:
 480:/home/baikal/workspace/C50/Huawei_IoT_Agent_Tiny_SDK_Linux//agent_tiny/examples/agent_tiny_cmd_ioctl.c ****             result = atiny_get_timestamp((uint64_t*)arg);
 1342              		.loc 1 480 0
 1343 014e E8000000 		call	atiny_get_timestamp
 1343      00
 1344              	.LVL168:
 481:/home/baikal/workspace/C50/Huawei_IoT_Agent_Tiny_SDK_Linux//agent_tiny/examples/agent_tiny_cmd_ioctl.c ****             break;
 1345              		.loc 1 481 0
 1346 0153 EB0D     		jmp	.L60
 1347              	.LVL169:
 1348              	.L96:
 482:/home/baikal/workspace/C50/Huawei_IoT_Agent_Tiny_SDK_Linux//agent_tiny/examples/agent_tiny_cmd_ioctl.c ****         case ATINY_GET_VELOCITY:
 483:/home/baikal/workspace/C50/Huawei_IoT_Agent_Tiny_SDK_Linux//agent_tiny/examples/agent_tiny_cmd_ioctl.c ****             result = atiny_get_velocity((atiny_velocity_s*)arg);
 1349              		.loc 1 483 0
 1350 0155 E8000000 		call	atiny_get_velocity
 1350      00
 1351              	.LVL170:
 484:/home/baikal/workspace/C50/Huawei_IoT_Agent_Tiny_SDK_Linux//agent_tiny/examples/agent_tiny_cmd_ioctl.c ****             break;
 1352              		.loc 1 484 0
 1353 015a EB06     		jmp	.L60
 1354              	.LVL171:
 1355              	.L97:
 1356              	.LCFI45:
 1357              		.cfi_def_cfa_offset 8
 377:/home/baikal/workspace/C50/Huawei_IoT_Agent_Tiny_SDK_Linux//agent_tiny/examples/agent_tiny_cmd_ioctl.c ****     switch(cmd)
 1358              		.loc 1 377 0
 1359 015c B8000000 		movl	$0, %eax
 1359      00
 1360 0161 C3       		ret
 1361              	.LVL172:
 1362              	.L60:
 1363              	.LCFI46:
 1364              		.cfi_def_cfa_offset 16
GAS LISTING /tmp/cc385yI2.s 			page 38


 485:/home/baikal/workspace/C50/Huawei_IoT_Agent_Tiny_SDK_Linux//agent_tiny/examples/agent_tiny_cmd_ioctl.c **** #ifdef CONFIG_FEATURE_FOTA
 486:/home/baikal/workspace/C50/Huawei_IoT_Agent_Tiny_SDK_Linux//agent_tiny/examples/agent_tiny_cmd_ioctl.c ****         case ATINY_GET_FOTA_STORAGE_DEVICE:
 487:/home/baikal/workspace/C50/Huawei_IoT_Agent_Tiny_SDK_Linux//agent_tiny/examples/agent_tiny_cmd_ioctl.c ****             *((atiny_fota_storage_device_s **)arg) = fota_get_pack_device();
 488:/home/baikal/workspace/C50/Huawei_IoT_Agent_Tiny_SDK_Linux//agent_tiny/examples/agent_tiny_cmd_ioctl.c ****             result = ATINY_OK;
 489:/home/baikal/workspace/C50/Huawei_IoT_Agent_Tiny_SDK_Linux//agent_tiny/examples/agent_tiny_cmd_ioctl.c ****             break;
 490:/home/baikal/workspace/C50/Huawei_IoT_Agent_Tiny_SDK_Linux//agent_tiny/examples/agent_tiny_cmd_ioctl.c **** #endif
 491:/home/baikal/workspace/C50/Huawei_IoT_Agent_Tiny_SDK_Linux//agent_tiny/examples/agent_tiny_cmd_ioctl.c ****         default:
 492:/home/baikal/workspace/C50/Huawei_IoT_Agent_Tiny_SDK_Linux//agent_tiny/examples/agent_tiny_cmd_ioctl.c ****             break;
 493:/home/baikal/workspace/C50/Huawei_IoT_Agent_Tiny_SDK_Linux//agent_tiny/examples/agent_tiny_cmd_ioctl.c ****     }
 494:/home/baikal/workspace/C50/Huawei_IoT_Agent_Tiny_SDK_Linux//agent_tiny/examples/agent_tiny_cmd_ioctl.c ****     return result;
 495:/home/baikal/workspace/C50/Huawei_IoT_Agent_Tiny_SDK_Linux//agent_tiny/examples/agent_tiny_cmd_ioctl.c **** }
 1365              		.loc 1 495 0
 1366 0162 4883C408 		addq	$8, %rsp
 1367              	.LCFI47:
 1368              		.cfi_def_cfa_offset 8
 1369 0166 C3       		ret
 1370              		.cfi_endproc
 1371              	.LFE100:
 1373              		.section	.rodata.str1.1
 1374              	.LC16:
 1375 00e7 6E6F7469 		.string	"notify:stat:%d\r\n"
 1375      66793A73 
 1375      7461743A 
 1375      25640D0A 
 1375      00
 1376              		.section	.text.atiny_event_notify,"ax",@progbits
 1377              		.globl	atiny_event_notify
 1379              	atiny_event_notify:
 1380              	.LFB101:
 496:/home/baikal/workspace/C50/Huawei_IoT_Agent_Tiny_SDK_Linux//agent_tiny/examples/agent_tiny_cmd_ioctl.c **** 
 497:/home/baikal/workspace/C50/Huawei_IoT_Agent_Tiny_SDK_Linux//agent_tiny/examples/agent_tiny_cmd_ioctl.c **** void atiny_event_notify(atiny_event_e event, const char* arg, int len)
 498:/home/baikal/workspace/C50/Huawei_IoT_Agent_Tiny_SDK_Linux//agent_tiny/examples/agent_tiny_cmd_ioctl.c **** {
 1381              		.loc 1 498 0
 1382              		.cfi_startproc
 1383              	.LVL173:
 1384 0000 4883EC08 		subq	$8, %rsp
 1385              	.LCFI48:
 1386              		.cfi_def_cfa_offset 16
 1387 0004 89FE     		movl	%edi, %esi
 1388              	.LVL174:
 499:/home/baikal/workspace/C50/Huawei_IoT_Agent_Tiny_SDK_Linux//agent_tiny/examples/agent_tiny_cmd_ioctl.c ****     (void)atiny_printf("notify:stat:%d\r\n", event);
 1389              		.loc 1 499 0
 1390 0006 BF000000 		movl	$.LC16, %edi
 1390      00
 1391              	.LVL175:
 1392 000b B8000000 		movl	$0, %eax
 1392      00
 1393 0010 E8000000 		call	atiny_printf
 1393      00
 1394              	.LVL176:
 500:/home/baikal/workspace/C50/Huawei_IoT_Agent_Tiny_SDK_Linux//agent_tiny/examples/agent_tiny_cmd_ioctl.c **** }
 1395              		.loc 1 500 0
 1396 0015 4883C408 		addq	$8, %rsp
 1397              	.LCFI49:
 1398              		.cfi_def_cfa_offset 8
 1399 0019 C3       		ret
 1400              		.cfi_endproc
GAS LISTING /tmp/cc385yI2.s 			page 39


 1401              	.LFE101:
 1403              		.section	.data.g_timezone,"aw",@progbits
 1404              		.align 16
 1407              	g_timezone:
 1408 0000 4575726F 		.string	"Europe/Berlin"
 1408      70652F42 
 1408      65726C69 
 1408      6E00
 1409 000e 00000000 		.zero	11
 1409      00000000 
 1409      000000
 1410              		.section	.data.g_UTC_offset,"aw",@progbits
 1413              	g_UTC_offset:
 1414 0000 2B30313A 		.string	"+01:00"
 1414      303000
 1415              		.section	.data.g_current_time,"aw",@progbits
 1416              		.align 8
 1419              	g_current_time:
 1420 0000 8F428251 		.quad	1367491215
 1420      00000000 
 1421              		.section	.bss.err_code,"aw",@nobits
 1422              		.align 4
 1425              	err_code:
 1426 0000 00000000 		.zero	4
 1427              		.text
 1428              	.Letext0:
 1429              		.file 3 "/usr/lib/gcc/x86_64-linux-gnu/5/include/stddef.h"
 1430              		.file 4 "/usr/include/x86_64-linux-gnu/bits/types.h"
 1431              		.file 5 "/usr/include/libio.h"
 1432              		.file 6 "/usr/include/x86_64-linux-gnu/sys/types.h"
 1433              		.file 7 "/usr/include/stdint.h"
 1434              		.file 8 "/home/baikal/workspace/C50/Huawei_IoT_Agent_Tiny_SDK_Linux//agent_tiny/lwm2m_client/agent
 1435              		.file 9 "/usr/include/stdio.h"
 1436              		.file 10 "/home/baikal/workspace/C50/Huawei_IoT_Agent_Tiny_SDK_Linux//agent_tiny/osadapter/atiny_a
GAS LISTING /tmp/cc385yI2.s 			page 40

