GAS LISTING /tmp/ccO5dN19.s 			page 1


   1              		.file	"agent_tiny_demo.c"
   2              		.text
   3              	.Ltext0:
   4              		.section	.text.ack_callback,"ax",@progbits
   5              		.globl	ack_callback
   7              	ack_callback:
   8              	.LFB59:
   9              		.file 1 "/home/baikal/workspace/C50/Huawei_IoT_Agent_Tiny_SDK_Linux//agent_tiny/examples/agent_tin
   1:/home/baikal/workspace/C50/Huawei_IoT_Agent_Tiny_SDK_Linux//agent_tiny/examples/agent_tiny_demo.c **** /*----------------------------------------------------------------------------
   2:/home/baikal/workspace/C50/Huawei_IoT_Agent_Tiny_SDK_Linux//agent_tiny/examples/agent_tiny_demo.c ****  * Copyright (c) <2016-2018>, <Huawei Technologies Co., Ltd>
   3:/home/baikal/workspace/C50/Huawei_IoT_Agent_Tiny_SDK_Linux//agent_tiny/examples/agent_tiny_demo.c ****  * All rights reserved.
   4:/home/baikal/workspace/C50/Huawei_IoT_Agent_Tiny_SDK_Linux//agent_tiny/examples/agent_tiny_demo.c ****  * Redistribution and use in source and binary forms, with or without modification,
   5:/home/baikal/workspace/C50/Huawei_IoT_Agent_Tiny_SDK_Linux//agent_tiny/examples/agent_tiny_demo.c ****  * are permitted provided that the following conditions are met:
   6:/home/baikal/workspace/C50/Huawei_IoT_Agent_Tiny_SDK_Linux//agent_tiny/examples/agent_tiny_demo.c ****  * 1. Redistributions of source code must retain the above copyright notice, this list of
   7:/home/baikal/workspace/C50/Huawei_IoT_Agent_Tiny_SDK_Linux//agent_tiny/examples/agent_tiny_demo.c ****  * conditions and the following disclaimer.
   8:/home/baikal/workspace/C50/Huawei_IoT_Agent_Tiny_SDK_Linux//agent_tiny/examples/agent_tiny_demo.c ****  * 2. Redistributions in binary form must reproduce the above copyright notice, this list
   9:/home/baikal/workspace/C50/Huawei_IoT_Agent_Tiny_SDK_Linux//agent_tiny/examples/agent_tiny_demo.c ****  * of conditions and the following disclaimer in the documentation and/or other materials
  10:/home/baikal/workspace/C50/Huawei_IoT_Agent_Tiny_SDK_Linux//agent_tiny/examples/agent_tiny_demo.c ****  * provided with the distribution.
  11:/home/baikal/workspace/C50/Huawei_IoT_Agent_Tiny_SDK_Linux//agent_tiny/examples/agent_tiny_demo.c ****  * 3. Neither the name of the copyright holder nor the names of its contributors may be used
  12:/home/baikal/workspace/C50/Huawei_IoT_Agent_Tiny_SDK_Linux//agent_tiny/examples/agent_tiny_demo.c ****  * to endorse or promote products derived from this software without specific prior written
  13:/home/baikal/workspace/C50/Huawei_IoT_Agent_Tiny_SDK_Linux//agent_tiny/examples/agent_tiny_demo.c ****  * permission.
  14:/home/baikal/workspace/C50/Huawei_IoT_Agent_Tiny_SDK_Linux//agent_tiny/examples/agent_tiny_demo.c ****  * THIS SOFTWARE IS PROVIDED BY THE COPYRIGHT HOLDERS AND CONTRIBUTORS
  15:/home/baikal/workspace/C50/Huawei_IoT_Agent_Tiny_SDK_Linux//agent_tiny/examples/agent_tiny_demo.c ****  * "AS IS" AND ANY EXPRESS OR IMPLIED WARRANTIES, INCLUDING, BUT NOT LIMITED TO,
  16:/home/baikal/workspace/C50/Huawei_IoT_Agent_Tiny_SDK_Linux//agent_tiny/examples/agent_tiny_demo.c ****  * THE IMPLIED WARRANTIES OF MERCHANTABILITY AND FITNESS FOR A PARTICULAR
  17:/home/baikal/workspace/C50/Huawei_IoT_Agent_Tiny_SDK_Linux//agent_tiny/examples/agent_tiny_demo.c ****  * PURPOSE ARE DISCLAIMED. IN NO EVENT SHALL THE COPYRIGHT HOLDER OR
  18:/home/baikal/workspace/C50/Huawei_IoT_Agent_Tiny_SDK_Linux//agent_tiny/examples/agent_tiny_demo.c ****  * CONTRIBUTORS BE LIABLE FOR ANY DIRECT, INDIRECT, INCIDENTAL, SPECIAL,
  19:/home/baikal/workspace/C50/Huawei_IoT_Agent_Tiny_SDK_Linux//agent_tiny/examples/agent_tiny_demo.c ****  * EXEMPLARY, OR CONSEQUENTIAL DAMAGES (INCLUDING, BUT NOT LIMITED TO,
  20:/home/baikal/workspace/C50/Huawei_IoT_Agent_Tiny_SDK_Linux//agent_tiny/examples/agent_tiny_demo.c ****  * PROCUREMENT OF SUBSTITUTE GOODS OR SERVICES; LOSS OF USE, DATA, OR PROFITS;
  21:/home/baikal/workspace/C50/Huawei_IoT_Agent_Tiny_SDK_Linux//agent_tiny/examples/agent_tiny_demo.c ****  * OR BUSINESS INTERRUPTION) HOWEVER CAUSED AND ON ANY THEORY OF LIABILITY,
  22:/home/baikal/workspace/C50/Huawei_IoT_Agent_Tiny_SDK_Linux//agent_tiny/examples/agent_tiny_demo.c ****  * WHETHER IN CONTRACT, STRICT LIABILITY, OR TORT (INCLUDING NEGLIGENCE OR
  23:/home/baikal/workspace/C50/Huawei_IoT_Agent_Tiny_SDK_Linux//agent_tiny/examples/agent_tiny_demo.c ****  * OTHERWISE) ARISING IN ANY WAY OUT OF THE USE OF THIS SOFTWARE, EVEN IF
  24:/home/baikal/workspace/C50/Huawei_IoT_Agent_Tiny_SDK_Linux//agent_tiny/examples/agent_tiny_demo.c ****  * ADVISED OF THE POSSIBILITY OF SUCH DAMAGE.
  25:/home/baikal/workspace/C50/Huawei_IoT_Agent_Tiny_SDK_Linux//agent_tiny/examples/agent_tiny_demo.c ****  *---------------------------------------------------------------------------*/
  26:/home/baikal/workspace/C50/Huawei_IoT_Agent_Tiny_SDK_Linux//agent_tiny/examples/agent_tiny_demo.c **** /*----------------------------------------------------------------------------
  27:/home/baikal/workspace/C50/Huawei_IoT_Agent_Tiny_SDK_Linux//agent_tiny/examples/agent_tiny_demo.c ****  * Notice of Export Control Law
  28:/home/baikal/workspace/C50/Huawei_IoT_Agent_Tiny_SDK_Linux//agent_tiny/examples/agent_tiny_demo.c ****  * ===============================================
  29:/home/baikal/workspace/C50/Huawei_IoT_Agent_Tiny_SDK_Linux//agent_tiny/examples/agent_tiny_demo.c ****  * Huawei LiteOS may be subject to applicable export control laws and regulations, which might
  30:/home/baikal/workspace/C50/Huawei_IoT_Agent_Tiny_SDK_Linux//agent_tiny/examples/agent_tiny_demo.c ****  * include those applicable to Huawei LiteOS of U.S. and the country in which you are located.
  31:/home/baikal/workspace/C50/Huawei_IoT_Agent_Tiny_SDK_Linux//agent_tiny/examples/agent_tiny_demo.c ****  * Import, export and usage of Huawei LiteOS in any manner by you shall be in compliance with such
  32:/home/baikal/workspace/C50/Huawei_IoT_Agent_Tiny_SDK_Linux//agent_tiny/examples/agent_tiny_demo.c ****  * applicable export control laws and regulations.
  33:/home/baikal/workspace/C50/Huawei_IoT_Agent_Tiny_SDK_Linux//agent_tiny/examples/agent_tiny_demo.c ****  *---------------------------------------------------------------------------*/
  34:/home/baikal/workspace/C50/Huawei_IoT_Agent_Tiny_SDK_Linux//agent_tiny/examples/agent_tiny_demo.c **** 
  35:/home/baikal/workspace/C50/Huawei_IoT_Agent_Tiny_SDK_Linux//agent_tiny/examples/agent_tiny_demo.c **** #include "agent_tiny_demo.h"
  36:/home/baikal/workspace/C50/Huawei_IoT_Agent_Tiny_SDK_Linux//agent_tiny/examples/agent_tiny_demo.c **** #include <pthread.h>
  37:/home/baikal/workspace/C50/Huawei_IoT_Agent_Tiny_SDK_Linux//agent_tiny/examples/agent_tiny_demo.c **** #include <unistd.h>
  38:/home/baikal/workspace/C50/Huawei_IoT_Agent_Tiny_SDK_Linux//agent_tiny/examples/agent_tiny_demo.c **** 
  39:/home/baikal/workspace/C50/Huawei_IoT_Agent_Tiny_SDK_Linux//agent_tiny/examples/agent_tiny_demo.c **** volatile uint8_t bh_temp=0;
  40:/home/baikal/workspace/C50/Huawei_IoT_Agent_Tiny_SDK_Linux//agent_tiny/examples/agent_tiny_demo.c **** volatile uint8_t bh_str=0;
  41:/home/baikal/workspace/C50/Huawei_IoT_Agent_Tiny_SDK_Linux//agent_tiny/examples/agent_tiny_demo.c **** 
  42:/home/baikal/workspace/C50/Huawei_IoT_Agent_Tiny_SDK_Linux//agent_tiny/examples/agent_tiny_demo.c **** #define DEFAULT_SERVER_IPV4 "139.159.140.34"/*Huawei */
  43:/home/baikal/workspace/C50/Huawei_IoT_Agent_Tiny_SDK_Linux//agent_tiny/examples/agent_tiny_demo.c **** //#define DEFAULT_SERVER_IPV4 "139.159.139.219"
  44:/home/baikal/workspace/C50/Huawei_IoT_Agent_Tiny_SDK_Linux//agent_tiny/examples/agent_tiny_demo.c **** 
  45:/home/baikal/workspace/C50/Huawei_IoT_Agent_Tiny_SDK_Linux//agent_tiny/examples/agent_tiny_demo.c **** #define LWM2M_LIFE_TIME     50000
  46:/home/baikal/workspace/C50/Huawei_IoT_Agent_Tiny_SDK_Linux//agent_tiny/examples/agent_tiny_demo.c **** 
  47:/home/baikal/workspace/C50/Huawei_IoT_Agent_Tiny_SDK_Linux//agent_tiny/examples/agent_tiny_demo.c **** #define IOT_PSK_VALUE_LENGTH    12
  48:/home/baikal/workspace/C50/Huawei_IoT_Agent_Tiny_SDK_Linux//agent_tiny/examples/agent_tiny_demo.c **** #define BS_PSK_VALUE_LENGTH     12
  49:/home/baikal/workspace/C50/Huawei_IoT_Agent_Tiny_SDK_Linux//agent_tiny/examples/agent_tiny_demo.c **** 
GAS LISTING /tmp/ccO5dN19.s 			page 2


  50:/home/baikal/workspace/C50/Huawei_IoT_Agent_Tiny_SDK_Linux//agent_tiny/examples/agent_tiny_demo.c **** char * g_endpoint_name = "11110001"; // HuaWei OceanConnect
  51:/home/baikal/workspace/C50/Huawei_IoT_Agent_Tiny_SDK_Linux//agent_tiny/examples/agent_tiny_demo.c **** 
  52:/home/baikal/workspace/C50/Huawei_IoT_Agent_Tiny_SDK_Linux//agent_tiny/examples/agent_tiny_demo.c **** #ifdef WITH_DTLS
  53:/home/baikal/workspace/C50/Huawei_IoT_Agent_Tiny_SDK_Linux//agent_tiny/examples/agent_tiny_demo.c **** char* g_endpoint_name_s = "11110001";
  54:/home/baikal/workspace/C50/Huawei_IoT_Agent_Tiny_SDK_Linux//agent_tiny/examples/agent_tiny_demo.c **** char* g_endpoint_name_iots = "66667777";
  55:/home/baikal/workspace/C50/Huawei_IoT_Agent_Tiny_SDK_Linux//agent_tiny/examples/agent_tiny_demo.c **** char* g_endpoint_name_bs = "22224444";
  56:/home/baikal/workspace/C50/Huawei_IoT_Agent_Tiny_SDK_Linux//agent_tiny/examples/agent_tiny_demo.c **** unsigned char g_psk_iot_value[IOT_PSK_VALUE_LENGTH] = {0x33,0x33,0x33,0x33,0x33,0x33,0x33,0x33,0x33
  57:/home/baikal/workspace/C50/Huawei_IoT_Agent_Tiny_SDK_Linux//agent_tiny/examples/agent_tiny_demo.c **** unsigned char g_psk_bs_value[BS_PSK_VALUE_LENGTH] = {0x33,0x33,0x33,0x33,0x33,0x33,0x33,0x33,0x33,0
  58:/home/baikal/workspace/C50/Huawei_IoT_Agent_Tiny_SDK_Linux//agent_tiny/examples/agent_tiny_demo.c **** #endif
  59:/home/baikal/workspace/C50/Huawei_IoT_Agent_Tiny_SDK_Linux//agent_tiny/examples/agent_tiny_demo.c **** 
  60:/home/baikal/workspace/C50/Huawei_IoT_Agent_Tiny_SDK_Linux//agent_tiny/examples/agent_tiny_demo.c ****  void* g_phandle = NULL;
  61:/home/baikal/workspace/C50/Huawei_IoT_Agent_Tiny_SDK_Linux//agent_tiny/examples/agent_tiny_demo.c **** static atiny_device_info_t g_device_info;
  62:/home/baikal/workspace/C50/Huawei_IoT_Agent_Tiny_SDK_Linux//agent_tiny/examples/agent_tiny_demo.c **** static atiny_param_t g_atiny_params;
  63:/home/baikal/workspace/C50/Huawei_IoT_Agent_Tiny_SDK_Linux//agent_tiny/examples/agent_tiny_demo.c **** 
  64:/home/baikal/workspace/C50/Huawei_IoT_Agent_Tiny_SDK_Linux//agent_tiny/examples/agent_tiny_demo.c **** void ack_callback(atiny_report_type_e type, int cookie, data_send_status_e status)
  65:/home/baikal/workspace/C50/Huawei_IoT_Agent_Tiny_SDK_Linux//agent_tiny/examples/agent_tiny_demo.c **** {
  10              		.loc 1 65 0
  11              		.cfi_startproc
  12              	.LVL0:
  13 0000 F3C3     		rep ret
  14              		.cfi_endproc
  15              	.LFE59:
  17              		.section	.rodata.str1.1,"aMS",@progbits,1
  18              	.LC0:
  19 0000 2F332F30 		.string	"/3/0/10"
  19      2F313000 
  20              		.section	.text.app_data_report,"ax",@progbits
  21              		.globl	app_data_report
  23              	app_data_report:
  24              	.LFB60:
  66:/home/baikal/workspace/C50/Huawei_IoT_Agent_Tiny_SDK_Linux//agent_tiny/examples/agent_tiny_demo.c **** //    printf("type:%d cookie:%d status:%d\n", type,cookie, status);
  67:/home/baikal/workspace/C50/Huawei_IoT_Agent_Tiny_SDK_Linux//agent_tiny/examples/agent_tiny_demo.c **** }
  68:/home/baikal/workspace/C50/Huawei_IoT_Agent_Tiny_SDK_Linux//agent_tiny/examples/agent_tiny_demo.c **** 
  69:/home/baikal/workspace/C50/Huawei_IoT_Agent_Tiny_SDK_Linux//agent_tiny/examples/agent_tiny_demo.c **** void app_data_report(void)
  70:/home/baikal/workspace/C50/Huawei_IoT_Agent_Tiny_SDK_Linux//agent_tiny/examples/agent_tiny_demo.c **** {
  25              		.loc 1 70 0
  26              		.cfi_startproc
  27              		.loc 1 70 0
  28 0000 53       		pushq	%rbx
  29              	.LCFI0:
  30              		.cfi_def_cfa_offset 16
  31              		.cfi_offset 3, -16
  32 0001 4883EC30 		subq	$48, %rsp
  33              	.LCFI1:
  34              		.cfi_def_cfa_offset 64
  71:/home/baikal/workspace/C50/Huawei_IoT_Agent_Tiny_SDK_Linux//agent_tiny/examples/agent_tiny_demo.c ****     uint8_t buf[5] = {0,67,6,5,9};
  35              		.loc 1 71 0
  36 0005 C6442420 		movb	$0, 32(%rsp)
  36      00
  37 000a C6442421 		movb	$67, 33(%rsp)
  37      43
  38 000f C6442422 		movb	$6, 34(%rsp)
  38      06
  39 0014 C6442423 		movb	$5, 35(%rsp)
  39      05
  40 0019 C6442424 		movb	$9, 36(%rsp)
  40      09
GAS LISTING /tmp/ccO5dN19.s 			page 3


  41              	.LVL1:
  72:/home/baikal/workspace/C50/Huawei_IoT_Agent_Tiny_SDK_Linux//agent_tiny/examples/agent_tiny_demo.c **** 		//buf[0] = bh_temp;
  73:/home/baikal/workspace/C50/Huawei_IoT_Agent_Tiny_SDK_Linux//agent_tiny/examples/agent_tiny_demo.c **** 		//buf[1] = bh_str;
  74:/home/baikal/workspace/C50/Huawei_IoT_Agent_Tiny_SDK_Linux//agent_tiny/examples/agent_tiny_demo.c ****     data_report_t report_data;
  75:/home/baikal/workspace/C50/Huawei_IoT_Agent_Tiny_SDK_Linux//agent_tiny/examples/agent_tiny_demo.c ****     int cnt = 0;
  76:/home/baikal/workspace/C50/Huawei_IoT_Agent_Tiny_SDK_Linux//agent_tiny/examples/agent_tiny_demo.c **** 
  77:/home/baikal/workspace/C50/Huawei_IoT_Agent_Tiny_SDK_Linux//agent_tiny/examples/agent_tiny_demo.c ****     report_data.buf = buf;
  42              		.loc 1 77 0
  43 001e 488D4424 		leaq	32(%rsp), %rax
  43      20
  44 0023 48894424 		movq	%rax, 16(%rsp)
  44      10
  78:/home/baikal/workspace/C50/Huawei_IoT_Agent_Tiny_SDK_Linux//agent_tiny/examples/agent_tiny_demo.c ****     report_data.callback = ack_callback;
  45              		.loc 1 78 0
  46 0028 48C74424 		movq	$ack_callback, 24(%rsp)
  46      18000000 
  46      00
  79:/home/baikal/workspace/C50/Huawei_IoT_Agent_Tiny_SDK_Linux//agent_tiny/examples/agent_tiny_demo.c ****     report_data.cookie = 0;
  80:/home/baikal/workspace/C50/Huawei_IoT_Agent_Tiny_SDK_Linux//agent_tiny/examples/agent_tiny_demo.c ****     report_data.len = sizeof(buf);
  47              		.loc 1 80 0
  48 0031 C7442408 		movl	$5, 8(%rsp)
  48      05000000 
  81:/home/baikal/workspace/C50/Huawei_IoT_Agent_Tiny_SDK_Linux//agent_tiny/examples/agent_tiny_demo.c ****     report_data.type = APP_DATA;
  49              		.loc 1 81 0
  50 0039 C7042401 		movl	$1, (%rsp)
  50      000000
  75:/home/baikal/workspace/C50/Huawei_IoT_Agent_Tiny_SDK_Linux//agent_tiny/examples/agent_tiny_demo.c **** 
  51              		.loc 1 75 0
  52 0040 BB000000 		movl	$0, %ebx
  52      00
  53              	.LVL2:
  54              	.L3:
  82:/home/baikal/workspace/C50/Huawei_IoT_Agent_Tiny_SDK_Linux//agent_tiny/examples/agent_tiny_demo.c ****     do
  83:/home/baikal/workspace/C50/Huawei_IoT_Agent_Tiny_SDK_Linux//agent_tiny/examples/agent_tiny_demo.c ****     {
  84:/home/baikal/workspace/C50/Huawei_IoT_Agent_Tiny_SDK_Linux//agent_tiny/examples/agent_tiny_demo.c ****         report_data.cookie = cnt;
  55              		.loc 1 84 0 discriminator 1
  56 0045 895C2404 		movl	%ebx, 4(%rsp)
  85:/home/baikal/workspace/C50/Huawei_IoT_Agent_Tiny_SDK_Linux//agent_tiny/examples/agent_tiny_demo.c ****         cnt++;
  57              		.loc 1 85 0 discriminator 1
  58 0049 83C301   		addl	$1, %ebx
  59              	.LVL3:
  86:/home/baikal/workspace/C50/Huawei_IoT_Agent_Tiny_SDK_Linux//agent_tiny/examples/agent_tiny_demo.c ****         atiny_data_report(g_phandle, &report_data);
  60              		.loc 1 86 0 discriminator 1
  61 004c 4889E6   		movq	%rsp, %rsi
  62 004f 488B3D00 		movq	g_phandle(%rip), %rdi
  62      000000
  63 0056 E8000000 		call	atiny_data_report
  63      00
  64              	.LVL4:
  87:/home/baikal/workspace/C50/Huawei_IoT_Agent_Tiny_SDK_Linux//agent_tiny/examples/agent_tiny_demo.c ****         atiny_data_change(g_phandle, DEVICE_MEMORY_FREE);
  65              		.loc 1 87 0 discriminator 1
  66 005b BE000000 		movl	$.LC0, %esi
  66      00
  67 0060 488B3D00 		movq	g_phandle(%rip), %rdi
  67      000000
  68 0067 E8000000 		call	atiny_data_change
  68      00
GAS LISTING /tmp/ccO5dN19.s 			page 4


  69              	.LVL5:
  88:/home/baikal/workspace/C50/Huawei_IoT_Agent_Tiny_SDK_Linux//agent_tiny/examples/agent_tiny_demo.c ****         sleep(60);
  70              		.loc 1 88 0 discriminator 1
  71 006c BF3C0000 		movl	$60, %edi
  71      00
  72 0071 E8000000 		call	sleep
  72      00
  73              	.LVL6:
  74 0076 EBCD     		jmp	.L3
  75              		.cfi_endproc
  76              	.LFE60:
  78              		.section	.rodata.str1.1
  79              	.LC1:
  80 0008 4E424200 		.string	"NBB"
  81              	.LC2:
  82 000c 555100   		.string	"UQ"
  83              	.LC3:
  84 000f 3133392E 		.string	"139.159.140.34"
  84      3135392E 
  84      3134302E 
  84      333400
  85              	.LC4:
  86 001e 35363833 		.string	"5683"
  86      00
  87              	.LC5:
  88 0023 63726561 		.string	"create error!"
  88      74652065 
  88      72726F72 
  88      2100
  89              		.section	.text.agent_tiny_entry,"ax",@progbits
  90              		.globl	agent_tiny_entry
  92              	agent_tiny_entry:
  93              	.LFB61:
  89:/home/baikal/workspace/C50/Huawei_IoT_Agent_Tiny_SDK_Linux//agent_tiny/examples/agent_tiny_demo.c ****     } while(1);
  90:/home/baikal/workspace/C50/Huawei_IoT_Agent_Tiny_SDK_Linux//agent_tiny/examples/agent_tiny_demo.c **** }
  91:/home/baikal/workspace/C50/Huawei_IoT_Agent_Tiny_SDK_Linux//agent_tiny/examples/agent_tiny_demo.c **** 
  92:/home/baikal/workspace/C50/Huawei_IoT_Agent_Tiny_SDK_Linux//agent_tiny/examples/agent_tiny_demo.c **** #ifdef CONFIG_FEATURE_FOTA
  93:/home/baikal/workspace/C50/Huawei_IoT_Agent_Tiny_SDK_Linux//agent_tiny/examples/agent_tiny_demo.c **** void agent_tiny_fota_init(void)
  94:/home/baikal/workspace/C50/Huawei_IoT_Agent_Tiny_SDK_Linux//agent_tiny/examples/agent_tiny_demo.c **** {
  95:/home/baikal/workspace/C50/Huawei_IoT_Agent_Tiny_SDK_Linux//agent_tiny/examples/agent_tiny_demo.c ****     atiny_fota_storage_device_s *storage_device = NULL ;
  96:/home/baikal/workspace/C50/Huawei_IoT_Agent_Tiny_SDK_Linux//agent_tiny/examples/agent_tiny_demo.c ****     fota_hardware_s *hardware = NULL;
  97:/home/baikal/workspace/C50/Huawei_IoT_Agent_Tiny_SDK_Linux//agent_tiny/examples/agent_tiny_demo.c ****     fota_pack_device_info_s device_info;
  98:/home/baikal/workspace/C50/Huawei_IoT_Agent_Tiny_SDK_Linux//agent_tiny/examples/agent_tiny_demo.c **** 
  99:/home/baikal/workspace/C50/Huawei_IoT_Agent_Tiny_SDK_Linux//agent_tiny/examples/agent_tiny_demo.c ****     (void)hal_init_fota();
 100:/home/baikal/workspace/C50/Huawei_IoT_Agent_Tiny_SDK_Linux//agent_tiny/examples/agent_tiny_demo.c **** 
 101:/home/baikal/workspace/C50/Huawei_IoT_Agent_Tiny_SDK_Linux//agent_tiny/examples/agent_tiny_demo.c ****     (void)hal_get_fota_device(&storage_device, &hardware);
 102:/home/baikal/workspace/C50/Huawei_IoT_Agent_Tiny_SDK_Linux//agent_tiny/examples/agent_tiny_demo.c **** 
 103:/home/baikal/workspace/C50/Huawei_IoT_Agent_Tiny_SDK_Linux//agent_tiny/examples/agent_tiny_demo.c ****     device_info.hardware = hardware;
 104:/home/baikal/workspace/C50/Huawei_IoT_Agent_Tiny_SDK_Linux//agent_tiny/examples/agent_tiny_demo.c ****     device_info.storage_device = storage_device;
 105:/home/baikal/workspace/C50/Huawei_IoT_Agent_Tiny_SDK_Linux//agent_tiny/examples/agent_tiny_demo.c ****     device_info.head_info_notify  = NULL;
 106:/home/baikal/workspace/C50/Huawei_IoT_Agent_Tiny_SDK_Linux//agent_tiny/examples/agent_tiny_demo.c ****     (void)fota_set_pack_device(fota_get_pack_device(), &device_info);
 107:/home/baikal/workspace/C50/Huawei_IoT_Agent_Tiny_SDK_Linux//agent_tiny/examples/agent_tiny_demo.c **** }
 108:/home/baikal/workspace/C50/Huawei_IoT_Agent_Tiny_SDK_Linux//agent_tiny/examples/agent_tiny_demo.c **** #endif
 109:/home/baikal/workspace/C50/Huawei_IoT_Agent_Tiny_SDK_Linux//agent_tiny/examples/agent_tiny_demo.c **** 
 110:/home/baikal/workspace/C50/Huawei_IoT_Agent_Tiny_SDK_Linux//agent_tiny/examples/agent_tiny_demo.c **** void agent_tiny_entry(void)
 111:/home/baikal/workspace/C50/Huawei_IoT_Agent_Tiny_SDK_Linux//agent_tiny/examples/agent_tiny_demo.c **** {
  94              		.loc 1 111 0
GAS LISTING /tmp/ccO5dN19.s 			page 5


  95              		.cfi_startproc
  96 0000 4883EC18 		subq	$24, %rsp
  97              	.LCFI2:
  98              		.cfi_def_cfa_offset 32
  99              	.LVL7:
 112:/home/baikal/workspace/C50/Huawei_IoT_Agent_Tiny_SDK_Linux//agent_tiny/examples/agent_tiny_demo.c ****     pthread_t tidp;
 113:/home/baikal/workspace/C50/Huawei_IoT_Agent_Tiny_SDK_Linux//agent_tiny/examples/agent_tiny_demo.c ****     atiny_param_t* atiny_params;
 114:/home/baikal/workspace/C50/Huawei_IoT_Agent_Tiny_SDK_Linux//agent_tiny/examples/agent_tiny_demo.c ****     atiny_security_param_t  *iot_security_param = NULL;
 115:/home/baikal/workspace/C50/Huawei_IoT_Agent_Tiny_SDK_Linux//agent_tiny/examples/agent_tiny_demo.c ****     atiny_security_param_t  *bs_security_param = NULL;
 116:/home/baikal/workspace/C50/Huawei_IoT_Agent_Tiny_SDK_Linux//agent_tiny/examples/agent_tiny_demo.c **** 
 117:/home/baikal/workspace/C50/Huawei_IoT_Agent_Tiny_SDK_Linux//agent_tiny/examples/agent_tiny_demo.c ****     atiny_device_info_t *device_info = &g_device_info;
 118:/home/baikal/workspace/C50/Huawei_IoT_Agent_Tiny_SDK_Linux//agent_tiny/examples/agent_tiny_demo.c **** 
 119:/home/baikal/workspace/C50/Huawei_IoT_Agent_Tiny_SDK_Linux//agent_tiny/examples/agent_tiny_demo.c **** #ifdef CONFIG_FEATURE_FOTA
 120:/home/baikal/workspace/C50/Huawei_IoT_Agent_Tiny_SDK_Linux//agent_tiny/examples/agent_tiny_demo.c ****     agent_tiny_fota_init();
 121:/home/baikal/workspace/C50/Huawei_IoT_Agent_Tiny_SDK_Linux//agent_tiny/examples/agent_tiny_demo.c **** #endif
 122:/home/baikal/workspace/C50/Huawei_IoT_Agent_Tiny_SDK_Linux//agent_tiny/examples/agent_tiny_demo.c **** 
 123:/home/baikal/workspace/C50/Huawei_IoT_Agent_Tiny_SDK_Linux//agent_tiny/examples/agent_tiny_demo.c **** #ifdef WITH_DTLS
 124:/home/baikal/workspace/C50/Huawei_IoT_Agent_Tiny_SDK_Linux//agent_tiny/examples/agent_tiny_demo.c ****     device_info->endpoint_name = g_endpoint_name_s;
 125:/home/baikal/workspace/C50/Huawei_IoT_Agent_Tiny_SDK_Linux//agent_tiny/examples/agent_tiny_demo.c **** #else
 126:/home/baikal/workspace/C50/Huawei_IoT_Agent_Tiny_SDK_Linux//agent_tiny/examples/agent_tiny_demo.c ****     device_info->endpoint_name = g_endpoint_name;
 100              		.loc 1 126 0
 101 0004 488B0500 		movq	g_endpoint_name(%rip), %rax
 101      000000
 102 000b 48890500 		movq	%rax, g_device_info(%rip)
 102      000000
 127:/home/baikal/workspace/C50/Huawei_IoT_Agent_Tiny_SDK_Linux//agent_tiny/examples/agent_tiny_demo.c **** #endif
 128:/home/baikal/workspace/C50/Huawei_IoT_Agent_Tiny_SDK_Linux//agent_tiny/examples/agent_tiny_demo.c **** 
 129:/home/baikal/workspace/C50/Huawei_IoT_Agent_Tiny_SDK_Linux//agent_tiny/examples/agent_tiny_demo.c ****     device_info->manufacturer = "NBB";    // HuaWei OceanConnect
 103              		.loc 1 129 0
 104 0012 48C70500 		movq	$.LC1, g_device_info+8(%rip)
 104      00000000 
 104      000000
 105              	.LVL8:
 130:/home/baikal/workspace/C50/Huawei_IoT_Agent_Tiny_SDK_Linux//agent_tiny/examples/agent_tiny_demo.c **** 
 131:/home/baikal/workspace/C50/Huawei_IoT_Agent_Tiny_SDK_Linux//agent_tiny/examples/agent_tiny_demo.c ****     atiny_params = &g_atiny_params;
 132:/home/baikal/workspace/C50/Huawei_IoT_Agent_Tiny_SDK_Linux//agent_tiny/examples/agent_tiny_demo.c ****     atiny_params->server_params.binding = "UQ";
 106              		.loc 1 132 0
 107 001d 48C70500 		movq	$.LC2, g_atiny_params(%rip)
 107      00000000 
 107      000000
 133:/home/baikal/workspace/C50/Huawei_IoT_Agent_Tiny_SDK_Linux//agent_tiny/examples/agent_tiny_demo.c ****     //atiny_params->server_params.life_time = LWM2M_LIFE_TIME;
 134:/home/baikal/workspace/C50/Huawei_IoT_Agent_Tiny_SDK_Linux//agent_tiny/examples/agent_tiny_demo.c ****     atiny_params->server_params.life_time = 20;
 108              		.loc 1 134 0
 109 0028 C7050000 		movl	$20, g_atiny_params+8(%rip)
 109      00001400 
 109      0000
 135:/home/baikal/workspace/C50/Huawei_IoT_Agent_Tiny_SDK_Linux//agent_tiny/examples/agent_tiny_demo.c ****     atiny_params->server_params.storing_cnt = 0;
 110              		.loc 1 135 0
 111 0032 C7050000 		movl	$0, g_atiny_params+12(%rip)
 111      00000000 
 111      0000
 136:/home/baikal/workspace/C50/Huawei_IoT_Agent_Tiny_SDK_Linux//agent_tiny/examples/agent_tiny_demo.c **** 
 137:/home/baikal/workspace/C50/Huawei_IoT_Agent_Tiny_SDK_Linux//agent_tiny/examples/agent_tiny_demo.c ****     atiny_params->bootstrap_mode = BOOTSTRAP_FACTORY;
 112              		.loc 1 137 0
 113 003c C7050000 		movl	$0, g_atiny_params+16(%rip)
 113      00000000 
 113      0000
GAS LISTING /tmp/ccO5dN19.s 			page 6


 114              	.LVL9:
 138:/home/baikal/workspace/C50/Huawei_IoT_Agent_Tiny_SDK_Linux//agent_tiny/examples/agent_tiny_demo.c **** 
 139:/home/baikal/workspace/C50/Huawei_IoT_Agent_Tiny_SDK_Linux//agent_tiny/examples/agent_tiny_demo.c ****     //pay attention: index 0 for iot server, index 1 for bootstrap server.
 140:/home/baikal/workspace/C50/Huawei_IoT_Agent_Tiny_SDK_Linux//agent_tiny/examples/agent_tiny_demo.c ****     iot_security_param = &(atiny_params->security_params[0]);
 141:/home/baikal/workspace/C50/Huawei_IoT_Agent_Tiny_SDK_Linux//agent_tiny/examples/agent_tiny_demo.c ****     bs_security_param = &(atiny_params->security_params[1]);
 142:/home/baikal/workspace/C50/Huawei_IoT_Agent_Tiny_SDK_Linux//agent_tiny/examples/agent_tiny_demo.c **** 
 143:/home/baikal/workspace/C50/Huawei_IoT_Agent_Tiny_SDK_Linux//agent_tiny/examples/agent_tiny_demo.c **** 
 144:/home/baikal/workspace/C50/Huawei_IoT_Agent_Tiny_SDK_Linux//agent_tiny/examples/agent_tiny_demo.c ****     iot_security_param->server_ip = DEFAULT_SERVER_IPV4;
 115              		.loc 1 144 0
 116 0046 48C70500 		movq	$.LC3, g_atiny_params+24(%rip)
 116      00000000 
 116      000000
 145:/home/baikal/workspace/C50/Huawei_IoT_Agent_Tiny_SDK_Linux//agent_tiny/examples/agent_tiny_demo.c ****     bs_security_param->server_ip = DEFAULT_SERVER_IPV4;
 117              		.loc 1 145 0
 118 0051 48C70500 		movq	$.LC3, g_atiny_params+64(%rip)
 118      00000000 
 118      000000
 146:/home/baikal/workspace/C50/Huawei_IoT_Agent_Tiny_SDK_Linux//agent_tiny/examples/agent_tiny_demo.c **** 
 147:/home/baikal/workspace/C50/Huawei_IoT_Agent_Tiny_SDK_Linux//agent_tiny/examples/agent_tiny_demo.c **** #ifdef WITH_DTLS
 148:/home/baikal/workspace/C50/Huawei_IoT_Agent_Tiny_SDK_Linux//agent_tiny/examples/agent_tiny_demo.c ****     iot_security_param->server_port = "5684";
 149:/home/baikal/workspace/C50/Huawei_IoT_Agent_Tiny_SDK_Linux//agent_tiny/examples/agent_tiny_demo.c ****     bs_security_param->server_port = "5684";
 150:/home/baikal/workspace/C50/Huawei_IoT_Agent_Tiny_SDK_Linux//agent_tiny/examples/agent_tiny_demo.c **** 
 151:/home/baikal/workspace/C50/Huawei_IoT_Agent_Tiny_SDK_Linux//agent_tiny/examples/agent_tiny_demo.c ****     iot_security_param->psk_Id = g_endpoint_name_iots;
 152:/home/baikal/workspace/C50/Huawei_IoT_Agent_Tiny_SDK_Linux//agent_tiny/examples/agent_tiny_demo.c ****     iot_security_param->psk = (char*)g_psk_iot_value;
 153:/home/baikal/workspace/C50/Huawei_IoT_Agent_Tiny_SDK_Linux//agent_tiny/examples/agent_tiny_demo.c ****     iot_security_param->psk_len = IOT_PSK_VALUE_LENGTH;
 154:/home/baikal/workspace/C50/Huawei_IoT_Agent_Tiny_SDK_Linux//agent_tiny/examples/agent_tiny_demo.c **** 
 155:/home/baikal/workspace/C50/Huawei_IoT_Agent_Tiny_SDK_Linux//agent_tiny/examples/agent_tiny_demo.c ****     bs_security_param->psk_Id = g_endpoint_name_bs;
 156:/home/baikal/workspace/C50/Huawei_IoT_Agent_Tiny_SDK_Linux//agent_tiny/examples/agent_tiny_demo.c ****     bs_security_param->psk = (char*)g_psk_bs_value;
 157:/home/baikal/workspace/C50/Huawei_IoT_Agent_Tiny_SDK_Linux//agent_tiny/examples/agent_tiny_demo.c ****     bs_security_param->psk_len = BS_PSK_VALUE_LENGTH;
 158:/home/baikal/workspace/C50/Huawei_IoT_Agent_Tiny_SDK_Linux//agent_tiny/examples/agent_tiny_demo.c **** #else
 159:/home/baikal/workspace/C50/Huawei_IoT_Agent_Tiny_SDK_Linux//agent_tiny/examples/agent_tiny_demo.c ****     iot_security_param->server_port = "5683";
 119              		.loc 1 159 0
 120 005c 48C70500 		movq	$.LC4, g_atiny_params+32(%rip)
 120      00000000 
 120      000000
 160:/home/baikal/workspace/C50/Huawei_IoT_Agent_Tiny_SDK_Linux//agent_tiny/examples/agent_tiny_demo.c ****     bs_security_param->server_port = "5683";
 121              		.loc 1 160 0
 122 0067 48C70500 		movq	$.LC4, g_atiny_params+72(%rip)
 122      00000000 
 122      000000
 161:/home/baikal/workspace/C50/Huawei_IoT_Agent_Tiny_SDK_Linux//agent_tiny/examples/agent_tiny_demo.c **** #endif
 162:/home/baikal/workspace/C50/Huawei_IoT_Agent_Tiny_SDK_Linux//agent_tiny/examples/agent_tiny_demo.c **** 
 163:/home/baikal/workspace/C50/Huawei_IoT_Agent_Tiny_SDK_Linux//agent_tiny/examples/agent_tiny_demo.c ****     if(ATINY_OK != atiny_init(atiny_params, &g_phandle))
 123              		.loc 1 163 0
 124 0072 BE000000 		movl	$g_phandle, %esi
 124      00
 125 0077 BF000000 		movl	$g_atiny_params, %edi
 125      00
 126 007c E8000000 		call	atiny_init
 126      00
 127              	.LVL10:
 128 0081 85C0     		testl	%eax, %eax
 129 0083 753B     		jne	.L5
 164:/home/baikal/workspace/C50/Huawei_IoT_Agent_Tiny_SDK_Linux//agent_tiny/examples/agent_tiny_demo.c ****     {
 165:/home/baikal/workspace/C50/Huawei_IoT_Agent_Tiny_SDK_Linux//agent_tiny/examples/agent_tiny_demo.c ****         return;
 166:/home/baikal/workspace/C50/Huawei_IoT_Agent_Tiny_SDK_Linux//agent_tiny/examples/agent_tiny_demo.c ****     }
 167:/home/baikal/workspace/C50/Huawei_IoT_Agent_Tiny_SDK_Linux//agent_tiny/examples/agent_tiny_demo.c **** 
GAS LISTING /tmp/ccO5dN19.s 			page 7


 168:/home/baikal/workspace/C50/Huawei_IoT_Agent_Tiny_SDK_Linux//agent_tiny/examples/agent_tiny_demo.c **** 
 169:/home/baikal/workspace/C50/Huawei_IoT_Agent_Tiny_SDK_Linux//agent_tiny/examples/agent_tiny_demo.c ****     if ((pthread_create(&tidp, NULL, app_data_report, NULL)) == -1)
 130              		.loc 1 169 0
 131 0085 B9000000 		movl	$0, %ecx
 131      00
 132 008a BA000000 		movl	$app_data_report, %edx
 132      00
 133 008f BE000000 		movl	$0, %esi
 133      00
 134 0094 488D7C24 		leaq	8(%rsp), %rdi
 134      08
 135 0099 E8000000 		call	pthread_create
 135      00
 136              	.LVL11:
 137 009e 83F8FF   		cmpl	$-1, %eax
 138 00a1 750C     		jne	.L7
 139              	.LVL12:
 140              	.LBB4:
 141              	.LBB5:
 142              		.file 2 "/usr/include/x86_64-linux-gnu/bits/stdio2.h"
   1:/usr/include/x86_64-linux-gnu/bits/stdio2.h **** /* Checking macros for stdio functions.
   2:/usr/include/x86_64-linux-gnu/bits/stdio2.h ****    Copyright (C) 2004-2016 Free Software Foundation, Inc.
   3:/usr/include/x86_64-linux-gnu/bits/stdio2.h ****    This file is part of the GNU C Library.
   4:/usr/include/x86_64-linux-gnu/bits/stdio2.h **** 
   5:/usr/include/x86_64-linux-gnu/bits/stdio2.h ****    The GNU C Library is free software; you can redistribute it and/or
   6:/usr/include/x86_64-linux-gnu/bits/stdio2.h ****    modify it under the terms of the GNU Lesser General Public
   7:/usr/include/x86_64-linux-gnu/bits/stdio2.h ****    License as published by the Free Software Foundation; either
   8:/usr/include/x86_64-linux-gnu/bits/stdio2.h ****    version 2.1 of the License, or (at your option) any later version.
   9:/usr/include/x86_64-linux-gnu/bits/stdio2.h **** 
  10:/usr/include/x86_64-linux-gnu/bits/stdio2.h ****    The GNU C Library is distributed in the hope that it will be useful,
  11:/usr/include/x86_64-linux-gnu/bits/stdio2.h ****    but WITHOUT ANY WARRANTY; without even the implied warranty of
  12:/usr/include/x86_64-linux-gnu/bits/stdio2.h ****    MERCHANTABILITY or FITNESS FOR A PARTICULAR PURPOSE.  See the GNU
  13:/usr/include/x86_64-linux-gnu/bits/stdio2.h ****    Lesser General Public License for more details.
  14:/usr/include/x86_64-linux-gnu/bits/stdio2.h **** 
  15:/usr/include/x86_64-linux-gnu/bits/stdio2.h ****    You should have received a copy of the GNU Lesser General Public
  16:/usr/include/x86_64-linux-gnu/bits/stdio2.h ****    License along with the GNU C Library; if not, see
  17:/usr/include/x86_64-linux-gnu/bits/stdio2.h ****    <http://www.gnu.org/licenses/>.  */
  18:/usr/include/x86_64-linux-gnu/bits/stdio2.h **** 
  19:/usr/include/x86_64-linux-gnu/bits/stdio2.h **** #ifndef _STDIO_H
  20:/usr/include/x86_64-linux-gnu/bits/stdio2.h **** # error "Never include <bits/stdio2.h> directly; use <stdio.h> instead."
  21:/usr/include/x86_64-linux-gnu/bits/stdio2.h **** #endif
  22:/usr/include/x86_64-linux-gnu/bits/stdio2.h **** 
  23:/usr/include/x86_64-linux-gnu/bits/stdio2.h **** extern int __sprintf_chk (char *__restrict __s, int __flag, size_t __slen,
  24:/usr/include/x86_64-linux-gnu/bits/stdio2.h **** 			  const char *__restrict __format, ...) __THROW;
  25:/usr/include/x86_64-linux-gnu/bits/stdio2.h **** extern int __vsprintf_chk (char *__restrict __s, int __flag, size_t __slen,
  26:/usr/include/x86_64-linux-gnu/bits/stdio2.h **** 			   const char *__restrict __format,
  27:/usr/include/x86_64-linux-gnu/bits/stdio2.h **** 			   _G_va_list __ap) __THROW;
  28:/usr/include/x86_64-linux-gnu/bits/stdio2.h **** 
  29:/usr/include/x86_64-linux-gnu/bits/stdio2.h **** #ifdef __va_arg_pack
  30:/usr/include/x86_64-linux-gnu/bits/stdio2.h **** __fortify_function int
  31:/usr/include/x86_64-linux-gnu/bits/stdio2.h **** __NTH (sprintf (char *__restrict __s, const char *__restrict __fmt, ...))
  32:/usr/include/x86_64-linux-gnu/bits/stdio2.h **** {
  33:/usr/include/x86_64-linux-gnu/bits/stdio2.h ****   return __builtin___sprintf_chk (__s, __USE_FORTIFY_LEVEL - 1,
  34:/usr/include/x86_64-linux-gnu/bits/stdio2.h **** 				  __bos (__s), __fmt, __va_arg_pack ());
  35:/usr/include/x86_64-linux-gnu/bits/stdio2.h **** }
  36:/usr/include/x86_64-linux-gnu/bits/stdio2.h **** #elif !defined __cplusplus
  37:/usr/include/x86_64-linux-gnu/bits/stdio2.h **** # define sprintf(str, ...) \
GAS LISTING /tmp/ccO5dN19.s 			page 8


  38:/usr/include/x86_64-linux-gnu/bits/stdio2.h ****   __builtin___sprintf_chk (str, __USE_FORTIFY_LEVEL - 1, __bos (str), \
  39:/usr/include/x86_64-linux-gnu/bits/stdio2.h **** 			   __VA_ARGS__)
  40:/usr/include/x86_64-linux-gnu/bits/stdio2.h **** #endif
  41:/usr/include/x86_64-linux-gnu/bits/stdio2.h **** 
  42:/usr/include/x86_64-linux-gnu/bits/stdio2.h **** __fortify_function int
  43:/usr/include/x86_64-linux-gnu/bits/stdio2.h **** __NTH (vsprintf (char *__restrict __s, const char *__restrict __fmt,
  44:/usr/include/x86_64-linux-gnu/bits/stdio2.h **** 		 _G_va_list __ap))
  45:/usr/include/x86_64-linux-gnu/bits/stdio2.h **** {
  46:/usr/include/x86_64-linux-gnu/bits/stdio2.h ****   return __builtin___vsprintf_chk (__s, __USE_FORTIFY_LEVEL - 1,
  47:/usr/include/x86_64-linux-gnu/bits/stdio2.h **** 				   __bos (__s), __fmt, __ap);
  48:/usr/include/x86_64-linux-gnu/bits/stdio2.h **** }
  49:/usr/include/x86_64-linux-gnu/bits/stdio2.h **** 
  50:/usr/include/x86_64-linux-gnu/bits/stdio2.h **** #if defined __USE_ISOC99 || defined __USE_UNIX98
  51:/usr/include/x86_64-linux-gnu/bits/stdio2.h **** 
  52:/usr/include/x86_64-linux-gnu/bits/stdio2.h **** extern int __snprintf_chk (char *__restrict __s, size_t __n, int __flag,
  53:/usr/include/x86_64-linux-gnu/bits/stdio2.h **** 			   size_t __slen, const char *__restrict __format,
  54:/usr/include/x86_64-linux-gnu/bits/stdio2.h **** 			   ...) __THROW;
  55:/usr/include/x86_64-linux-gnu/bits/stdio2.h **** extern int __vsnprintf_chk (char *__restrict __s, size_t __n, int __flag,
  56:/usr/include/x86_64-linux-gnu/bits/stdio2.h **** 			    size_t __slen, const char *__restrict __format,
  57:/usr/include/x86_64-linux-gnu/bits/stdio2.h **** 			    _G_va_list __ap) __THROW;
  58:/usr/include/x86_64-linux-gnu/bits/stdio2.h **** 
  59:/usr/include/x86_64-linux-gnu/bits/stdio2.h **** # ifdef __va_arg_pack
  60:/usr/include/x86_64-linux-gnu/bits/stdio2.h **** __fortify_function int
  61:/usr/include/x86_64-linux-gnu/bits/stdio2.h **** __NTH (snprintf (char *__restrict __s, size_t __n,
  62:/usr/include/x86_64-linux-gnu/bits/stdio2.h **** 		 const char *__restrict __fmt, ...))
  63:/usr/include/x86_64-linux-gnu/bits/stdio2.h **** {
  64:/usr/include/x86_64-linux-gnu/bits/stdio2.h ****   return __builtin___snprintf_chk (__s, __n, __USE_FORTIFY_LEVEL - 1,
  65:/usr/include/x86_64-linux-gnu/bits/stdio2.h **** 				   __bos (__s), __fmt, __va_arg_pack ());
  66:/usr/include/x86_64-linux-gnu/bits/stdio2.h **** }
  67:/usr/include/x86_64-linux-gnu/bits/stdio2.h **** # elif !defined __cplusplus
  68:/usr/include/x86_64-linux-gnu/bits/stdio2.h **** #  define snprintf(str, len, ...) \
  69:/usr/include/x86_64-linux-gnu/bits/stdio2.h ****   __builtin___snprintf_chk (str, len, __USE_FORTIFY_LEVEL - 1, __bos (str), \
  70:/usr/include/x86_64-linux-gnu/bits/stdio2.h **** 			    __VA_ARGS__)
  71:/usr/include/x86_64-linux-gnu/bits/stdio2.h **** # endif
  72:/usr/include/x86_64-linux-gnu/bits/stdio2.h **** 
  73:/usr/include/x86_64-linux-gnu/bits/stdio2.h **** __fortify_function int
  74:/usr/include/x86_64-linux-gnu/bits/stdio2.h **** __NTH (vsnprintf (char *__restrict __s, size_t __n,
  75:/usr/include/x86_64-linux-gnu/bits/stdio2.h **** 		  const char *__restrict __fmt, _G_va_list __ap))
  76:/usr/include/x86_64-linux-gnu/bits/stdio2.h **** {
  77:/usr/include/x86_64-linux-gnu/bits/stdio2.h ****   return __builtin___vsnprintf_chk (__s, __n, __USE_FORTIFY_LEVEL - 1,
  78:/usr/include/x86_64-linux-gnu/bits/stdio2.h **** 				    __bos (__s), __fmt, __ap);
  79:/usr/include/x86_64-linux-gnu/bits/stdio2.h **** }
  80:/usr/include/x86_64-linux-gnu/bits/stdio2.h **** 
  81:/usr/include/x86_64-linux-gnu/bits/stdio2.h **** #endif
  82:/usr/include/x86_64-linux-gnu/bits/stdio2.h **** 
  83:/usr/include/x86_64-linux-gnu/bits/stdio2.h **** #if __USE_FORTIFY_LEVEL > 1
  84:/usr/include/x86_64-linux-gnu/bits/stdio2.h **** 
  85:/usr/include/x86_64-linux-gnu/bits/stdio2.h **** extern int __fprintf_chk (FILE *__restrict __stream, int __flag,
  86:/usr/include/x86_64-linux-gnu/bits/stdio2.h **** 			  const char *__restrict __format, ...);
  87:/usr/include/x86_64-linux-gnu/bits/stdio2.h **** extern int __printf_chk (int __flag, const char *__restrict __format, ...);
  88:/usr/include/x86_64-linux-gnu/bits/stdio2.h **** extern int __vfprintf_chk (FILE *__restrict __stream, int __flag,
  89:/usr/include/x86_64-linux-gnu/bits/stdio2.h **** 			   const char *__restrict __format, _G_va_list __ap);
  90:/usr/include/x86_64-linux-gnu/bits/stdio2.h **** extern int __vprintf_chk (int __flag, const char *__restrict __format,
  91:/usr/include/x86_64-linux-gnu/bits/stdio2.h **** 			  _G_va_list __ap);
  92:/usr/include/x86_64-linux-gnu/bits/stdio2.h **** 
  93:/usr/include/x86_64-linux-gnu/bits/stdio2.h **** # ifdef __va_arg_pack
  94:/usr/include/x86_64-linux-gnu/bits/stdio2.h **** __fortify_function int
GAS LISTING /tmp/ccO5dN19.s 			page 9


  95:/usr/include/x86_64-linux-gnu/bits/stdio2.h **** fprintf (FILE *__restrict __stream, const char *__restrict __fmt, ...)
  96:/usr/include/x86_64-linux-gnu/bits/stdio2.h **** {
  97:/usr/include/x86_64-linux-gnu/bits/stdio2.h ****   return __fprintf_chk (__stream, __USE_FORTIFY_LEVEL - 1, __fmt,
  98:/usr/include/x86_64-linux-gnu/bits/stdio2.h **** 			__va_arg_pack ());
  99:/usr/include/x86_64-linux-gnu/bits/stdio2.h **** }
 100:/usr/include/x86_64-linux-gnu/bits/stdio2.h **** 
 101:/usr/include/x86_64-linux-gnu/bits/stdio2.h **** __fortify_function int
 102:/usr/include/x86_64-linux-gnu/bits/stdio2.h **** printf (const char *__restrict __fmt, ...)
 103:/usr/include/x86_64-linux-gnu/bits/stdio2.h **** {
 104:/usr/include/x86_64-linux-gnu/bits/stdio2.h ****   return __printf_chk (__USE_FORTIFY_LEVEL - 1, __fmt, __va_arg_pack ());
 143              		.loc 2 104 0
 144 00a3 BF000000 		movl	$.LC5, %edi
 144      00
 145 00a8 E8000000 		call	puts
 145      00
 146              	.LVL13:
 147 00ad EB11     		jmp	.L5
 148              	.LVL14:
 149              	.L7:
 150              	.LBE5:
 151              	.LBE4:
 170:/home/baikal/workspace/C50/Huawei_IoT_Agent_Tiny_SDK_Linux//agent_tiny/examples/agent_tiny_demo.c ****     {
 171:/home/baikal/workspace/C50/Huawei_IoT_Agent_Tiny_SDK_Linux//agent_tiny/examples/agent_tiny_demo.c ****         printf("create error!\n");
 172:/home/baikal/workspace/C50/Huawei_IoT_Agent_Tiny_SDK_Linux//agent_tiny/examples/agent_tiny_demo.c ****         return 1;
 173:/home/baikal/workspace/C50/Huawei_IoT_Agent_Tiny_SDK_Linux//agent_tiny/examples/agent_tiny_demo.c ****     }
 174:/home/baikal/workspace/C50/Huawei_IoT_Agent_Tiny_SDK_Linux//agent_tiny/examples/agent_tiny_demo.c **** 
 175:/home/baikal/workspace/C50/Huawei_IoT_Agent_Tiny_SDK_Linux//agent_tiny/examples/agent_tiny_demo.c **** 
 176:/home/baikal/workspace/C50/Huawei_IoT_Agent_Tiny_SDK_Linux//agent_tiny/examples/agent_tiny_demo.c ****     (void)atiny_bind(device_info, g_phandle);
 152              		.loc 1 176 0
 153 00af 488B3500 		movq	g_phandle(%rip), %rsi
 153      000000
 154 00b6 BF000000 		movl	$g_device_info, %edi
 154      00
 155 00bb E8000000 		call	atiny_bind
 155      00
 156              	.LVL15:
 157              	.L5:
 177:/home/baikal/workspace/C50/Huawei_IoT_Agent_Tiny_SDK_Linux//agent_tiny/examples/agent_tiny_demo.c **** }
 158              		.loc 1 177 0
 159 00c0 4883C418 		addq	$24, %rsp
 160              	.LCFI3:
 161              		.cfi_def_cfa_offset 8
 162 00c4 C3       		ret
 163              		.cfi_endproc
 164              	.LFE61:
 166              		.section	.bss.g_atiny_params,"aw",@nobits
 167              		.align 32
 170              	g_atiny_params:
 171 0000 00000000 		.zero	104
 171      00000000 
 171      00000000 
 171      00000000 
 171      00000000 
 172              		.section	.bss.g_device_info,"aw",@nobits
 173              		.align 16
 176              	g_device_info:
 177 0000 00000000 		.zero	24
GAS LISTING /tmp/ccO5dN19.s 			page 10


 177      00000000 
 177      00000000 
 177      00000000 
 177      00000000 
 178              		.globl	g_phandle
 179              		.section	.bss.g_phandle,"aw",@nobits
 180              		.align 8
 183              	g_phandle:
 184 0000 00000000 		.zero	8
 184      00000000 
 185              		.globl	g_endpoint_name
 186              		.section	.rodata.str1.1
 187              	.LC6:
 188 0031 31313131 		.string	"11110001"
 188      30303031 
 188      00
 189              		.section	.data.g_endpoint_name,"aw",@progbits
 190              		.align 8
 193              	g_endpoint_name:
 194 0000 00000000 		.quad	.LC6
 194      00000000 
 195              		.globl	bh_str
 196              		.section	.bss.bh_str,"aw",@nobits
 199              	bh_str:
 200 0000 00       		.zero	1
 201              		.globl	bh_temp
 202              		.section	.bss.bh_temp,"aw",@nobits
 205              	bh_temp:
 206 0000 00       		.zero	1
 207              		.text
 208              	.Letext0:
 209              		.file 3 "/usr/include/stdint.h"
 210              		.file 4 "/usr/lib/gcc/x86_64-linux-gnu/5/include/stddef.h"
 211              		.file 5 "/usr/include/x86_64-linux-gnu/bits/types.h"
 212              		.file 6 "/usr/include/libio.h"
 213              		.file 7 "/home/baikal/workspace/C50/Huawei_IoT_Agent_Tiny_SDK_Linux//agent_tiny/lwm2m_client/agent
 214              		.file 8 "/usr/include/x86_64-linux-gnu/bits/pthreadtypes.h"
 215              		.file 9 "/usr/include/stdio.h"
 216              		.file 10 "/usr/include/unistd.h"
 217              		.file 11 "/usr/include/pthread.h"
 218              		.file 12 "<built-in>"
GAS LISTING /tmp/ccO5dN19.s 			page 11


DEFINED SYMBOLS
                            *ABS*:0000000000000000 agent_tiny_demo.c
     /tmp/ccO5dN19.s:7      .text.ack_callback:0000000000000000 ack_callback
     /tmp/ccO5dN19.s:23     .text.app_data_report:0000000000000000 app_data_report
     /tmp/ccO5dN19.s:183    .bss.g_phandle:0000000000000000 g_phandle
     /tmp/ccO5dN19.s:92     .text.agent_tiny_entry:0000000000000000 agent_tiny_entry
     /tmp/ccO5dN19.s:193    .data.g_endpoint_name:0000000000000000 g_endpoint_name
     /tmp/ccO5dN19.s:176    .bss.g_device_info:0000000000000000 g_device_info
     /tmp/ccO5dN19.s:170    .bss.g_atiny_params:0000000000000000 g_atiny_params
     /tmp/ccO5dN19.s:199    .bss.bh_str:0000000000000000 bh_str
     /tmp/ccO5dN19.s:205    .bss.bh_temp:0000000000000000 bh_temp

UNDEFINED SYMBOLS
atiny_data_report
atiny_data_change
sleep
atiny_init
pthread_create
puts
atiny_bind
