GAS LISTING /tmp/ccFIbPhJ.s 			page 1


   1              		.file	"bootstrap.c"
   2              		.text
   3              	.Ltext0:
   4              		.section	.text.prv_tagAllServer,"ax",@progbits
   6              	prv_tagAllServer:
   7              	.LFB72:
   8              		.file 1 "/home/baikal/workspace/C50/Huawei_IoT_Agent_Tiny_SDK_Linux//lwm2m/core/bootstrap.c"
   1:/home/baikal/workspace/C50/Huawei_IoT_Agent_Tiny_SDK_Linux//lwm2m/core/bootstrap.c **** /*******************************************************************************
   2:/home/baikal/workspace/C50/Huawei_IoT_Agent_Tiny_SDK_Linux//lwm2m/core/bootstrap.c ****  *
   3:/home/baikal/workspace/C50/Huawei_IoT_Agent_Tiny_SDK_Linux//lwm2m/core/bootstrap.c ****  * Copyright (c) 2015 Sierra Wireless and others.
   4:/home/baikal/workspace/C50/Huawei_IoT_Agent_Tiny_SDK_Linux//lwm2m/core/bootstrap.c ****  * All rights reserved. This program and the accompanying materials
   5:/home/baikal/workspace/C50/Huawei_IoT_Agent_Tiny_SDK_Linux//lwm2m/core/bootstrap.c ****  * are made available under the terms of the Eclipse Public License v1.0
   6:/home/baikal/workspace/C50/Huawei_IoT_Agent_Tiny_SDK_Linux//lwm2m/core/bootstrap.c ****  * and Eclipse Distribution License v1.0 which accompany this distribution.
   7:/home/baikal/workspace/C50/Huawei_IoT_Agent_Tiny_SDK_Linux//lwm2m/core/bootstrap.c ****  *
   8:/home/baikal/workspace/C50/Huawei_IoT_Agent_Tiny_SDK_Linux//lwm2m/core/bootstrap.c ****  * The Eclipse Public License is available at
   9:/home/baikal/workspace/C50/Huawei_IoT_Agent_Tiny_SDK_Linux//lwm2m/core/bootstrap.c ****  *    http://www.eclipse.org/legal/epl-v10.html
  10:/home/baikal/workspace/C50/Huawei_IoT_Agent_Tiny_SDK_Linux//lwm2m/core/bootstrap.c ****  * The Eclipse Distribution License is available at
  11:/home/baikal/workspace/C50/Huawei_IoT_Agent_Tiny_SDK_Linux//lwm2m/core/bootstrap.c ****  *    http://www.eclipse.org/org/documents/edl-v10.php.
  12:/home/baikal/workspace/C50/Huawei_IoT_Agent_Tiny_SDK_Linux//lwm2m/core/bootstrap.c ****  *
  13:/home/baikal/workspace/C50/Huawei_IoT_Agent_Tiny_SDK_Linux//lwm2m/core/bootstrap.c ****  * Contributors:
  14:/home/baikal/workspace/C50/Huawei_IoT_Agent_Tiny_SDK_Linux//lwm2m/core/bootstrap.c ****  *    Pascal Rieux - Please refer to git log
  15:/home/baikal/workspace/C50/Huawei_IoT_Agent_Tiny_SDK_Linux//lwm2m/core/bootstrap.c ****  *    Bosch Software Innovations GmbH - Please refer to git log
  16:/home/baikal/workspace/C50/Huawei_IoT_Agent_Tiny_SDK_Linux//lwm2m/core/bootstrap.c ****  *    David Navarro, Intel Corporation - Please refer to git log
  17:/home/baikal/workspace/C50/Huawei_IoT_Agent_Tiny_SDK_Linux//lwm2m/core/bootstrap.c ****  *
  18:/home/baikal/workspace/C50/Huawei_IoT_Agent_Tiny_SDK_Linux//lwm2m/core/bootstrap.c ****  *******************************************************************************/
  19:/home/baikal/workspace/C50/Huawei_IoT_Agent_Tiny_SDK_Linux//lwm2m/core/bootstrap.c **** 
  20:/home/baikal/workspace/C50/Huawei_IoT_Agent_Tiny_SDK_Linux//lwm2m/core/bootstrap.c **** #include "internals.h"
  21:/home/baikal/workspace/C50/Huawei_IoT_Agent_Tiny_SDK_Linux//lwm2m/core/bootstrap.c **** 
  22:/home/baikal/workspace/C50/Huawei_IoT_Agent_Tiny_SDK_Linux//lwm2m/core/bootstrap.c **** #include <stdlib.h>
  23:/home/baikal/workspace/C50/Huawei_IoT_Agent_Tiny_SDK_Linux//lwm2m/core/bootstrap.c **** #include <string.h>
  24:/home/baikal/workspace/C50/Huawei_IoT_Agent_Tiny_SDK_Linux//lwm2m/core/bootstrap.c **** #include <stdio.h>
  25:/home/baikal/workspace/C50/Huawei_IoT_Agent_Tiny_SDK_Linux//lwm2m/core/bootstrap.c **** 
  26:/home/baikal/workspace/C50/Huawei_IoT_Agent_Tiny_SDK_Linux//lwm2m/core/bootstrap.c **** #ifdef LWM2M_CLIENT_MODE
  27:/home/baikal/workspace/C50/Huawei_IoT_Agent_Tiny_SDK_Linux//lwm2m/core/bootstrap.c **** #ifdef LWM2M_BOOTSTRAP
  28:/home/baikal/workspace/C50/Huawei_IoT_Agent_Tiny_SDK_Linux//lwm2m/core/bootstrap.c **** 
  29:/home/baikal/workspace/C50/Huawei_IoT_Agent_Tiny_SDK_Linux//lwm2m/core/bootstrap.c **** #define PRV_QUERY_BUFFER_LENGTH 200
  30:/home/baikal/workspace/C50/Huawei_IoT_Agent_Tiny_SDK_Linux//lwm2m/core/bootstrap.c **** 
  31:/home/baikal/workspace/C50/Huawei_IoT_Agent_Tiny_SDK_Linux//lwm2m/core/bootstrap.c **** 
  32:/home/baikal/workspace/C50/Huawei_IoT_Agent_Tiny_SDK_Linux//lwm2m/core/bootstrap.c **** static void prv_handleResponse(lwm2m_server_t *bootstrapServer,
  33:/home/baikal/workspace/C50/Huawei_IoT_Agent_Tiny_SDK_Linux//lwm2m/core/bootstrap.c ****                                coap_packet_t *message)
  34:/home/baikal/workspace/C50/Huawei_IoT_Agent_Tiny_SDK_Linux//lwm2m/core/bootstrap.c **** {
  35:/home/baikal/workspace/C50/Huawei_IoT_Agent_Tiny_SDK_Linux//lwm2m/core/bootstrap.c ****     if (COAP_204_CHANGED == message->code)
  36:/home/baikal/workspace/C50/Huawei_IoT_Agent_Tiny_SDK_Linux//lwm2m/core/bootstrap.c ****     {
  37:/home/baikal/workspace/C50/Huawei_IoT_Agent_Tiny_SDK_Linux//lwm2m/core/bootstrap.c ****         LOG("Received ACK/2.04, Bootstrap pending, waiting for DEL/PUT from BS server...");
  38:/home/baikal/workspace/C50/Huawei_IoT_Agent_Tiny_SDK_Linux//lwm2m/core/bootstrap.c ****         bootstrapServer->status = STATE_BS_PENDING;
  39:/home/baikal/workspace/C50/Huawei_IoT_Agent_Tiny_SDK_Linux//lwm2m/core/bootstrap.c ****         bootstrapServer->registration = lwm2m_gettime() + COAP_EXCHANGE_LIFETIME;
  40:/home/baikal/workspace/C50/Huawei_IoT_Agent_Tiny_SDK_Linux//lwm2m/core/bootstrap.c ****     }
  41:/home/baikal/workspace/C50/Huawei_IoT_Agent_Tiny_SDK_Linux//lwm2m/core/bootstrap.c ****     else
  42:/home/baikal/workspace/C50/Huawei_IoT_Agent_Tiny_SDK_Linux//lwm2m/core/bootstrap.c ****     {
  43:/home/baikal/workspace/C50/Huawei_IoT_Agent_Tiny_SDK_Linux//lwm2m/core/bootstrap.c ****         bootstrapServer->status = STATE_BS_FAILING;
  44:/home/baikal/workspace/C50/Huawei_IoT_Agent_Tiny_SDK_Linux//lwm2m/core/bootstrap.c ****     }
  45:/home/baikal/workspace/C50/Huawei_IoT_Agent_Tiny_SDK_Linux//lwm2m/core/bootstrap.c **** }
  46:/home/baikal/workspace/C50/Huawei_IoT_Agent_Tiny_SDK_Linux//lwm2m/core/bootstrap.c **** 
  47:/home/baikal/workspace/C50/Huawei_IoT_Agent_Tiny_SDK_Linux//lwm2m/core/bootstrap.c **** static void prv_handleBootstrapReply(lwm2m_transaction_t *transaction,
  48:/home/baikal/workspace/C50/Huawei_IoT_Agent_Tiny_SDK_Linux//lwm2m/core/bootstrap.c ****                                      void *message)
  49:/home/baikal/workspace/C50/Huawei_IoT_Agent_Tiny_SDK_Linux//lwm2m/core/bootstrap.c **** {
  50:/home/baikal/workspace/C50/Huawei_IoT_Agent_Tiny_SDK_Linux//lwm2m/core/bootstrap.c ****     lwm2m_server_t *bootstrapServer = (lwm2m_server_t *)transaction->userData;
GAS LISTING /tmp/ccFIbPhJ.s 			page 2


  51:/home/baikal/workspace/C50/Huawei_IoT_Agent_Tiny_SDK_Linux//lwm2m/core/bootstrap.c ****     coap_packet_t *coapMessage = (coap_packet_t *)message;
  52:/home/baikal/workspace/C50/Huawei_IoT_Agent_Tiny_SDK_Linux//lwm2m/core/bootstrap.c **** 
  53:/home/baikal/workspace/C50/Huawei_IoT_Agent_Tiny_SDK_Linux//lwm2m/core/bootstrap.c ****     LOG("Entering");
  54:/home/baikal/workspace/C50/Huawei_IoT_Agent_Tiny_SDK_Linux//lwm2m/core/bootstrap.c **** 
  55:/home/baikal/workspace/C50/Huawei_IoT_Agent_Tiny_SDK_Linux//lwm2m/core/bootstrap.c ****     if (bootstrapServer->status == STATE_BS_INITIATED)
  56:/home/baikal/workspace/C50/Huawei_IoT_Agent_Tiny_SDK_Linux//lwm2m/core/bootstrap.c ****     {
  57:/home/baikal/workspace/C50/Huawei_IoT_Agent_Tiny_SDK_Linux//lwm2m/core/bootstrap.c ****         if (NULL != coapMessage && COAP_TYPE_RST != coapMessage->type)
  58:/home/baikal/workspace/C50/Huawei_IoT_Agent_Tiny_SDK_Linux//lwm2m/core/bootstrap.c ****         {
  59:/home/baikal/workspace/C50/Huawei_IoT_Agent_Tiny_SDK_Linux//lwm2m/core/bootstrap.c ****             prv_handleResponse(bootstrapServer, coapMessage);
  60:/home/baikal/workspace/C50/Huawei_IoT_Agent_Tiny_SDK_Linux//lwm2m/core/bootstrap.c ****         }
  61:/home/baikal/workspace/C50/Huawei_IoT_Agent_Tiny_SDK_Linux//lwm2m/core/bootstrap.c ****         else
  62:/home/baikal/workspace/C50/Huawei_IoT_Agent_Tiny_SDK_Linux//lwm2m/core/bootstrap.c ****         {
  63:/home/baikal/workspace/C50/Huawei_IoT_Agent_Tiny_SDK_Linux//lwm2m/core/bootstrap.c ****             bootstrapServer->status = STATE_BS_FAILING;
  64:/home/baikal/workspace/C50/Huawei_IoT_Agent_Tiny_SDK_Linux//lwm2m/core/bootstrap.c ****         }
  65:/home/baikal/workspace/C50/Huawei_IoT_Agent_Tiny_SDK_Linux//lwm2m/core/bootstrap.c ****     }
  66:/home/baikal/workspace/C50/Huawei_IoT_Agent_Tiny_SDK_Linux//lwm2m/core/bootstrap.c **** }
  67:/home/baikal/workspace/C50/Huawei_IoT_Agent_Tiny_SDK_Linux//lwm2m/core/bootstrap.c **** 
  68:/home/baikal/workspace/C50/Huawei_IoT_Agent_Tiny_SDK_Linux//lwm2m/core/bootstrap.c **** // start a device initiated bootstrap
  69:/home/baikal/workspace/C50/Huawei_IoT_Agent_Tiny_SDK_Linux//lwm2m/core/bootstrap.c **** static void prv_requestBootstrap(lwm2m_context_t *context,
  70:/home/baikal/workspace/C50/Huawei_IoT_Agent_Tiny_SDK_Linux//lwm2m/core/bootstrap.c ****                                  lwm2m_server_t *bootstrapServer)
  71:/home/baikal/workspace/C50/Huawei_IoT_Agent_Tiny_SDK_Linux//lwm2m/core/bootstrap.c **** {
  72:/home/baikal/workspace/C50/Huawei_IoT_Agent_Tiny_SDK_Linux//lwm2m/core/bootstrap.c ****     char query[PRV_QUERY_BUFFER_LENGTH];
  73:/home/baikal/workspace/C50/Huawei_IoT_Agent_Tiny_SDK_Linux//lwm2m/core/bootstrap.c ****     int query_length = 0;
  74:/home/baikal/workspace/C50/Huawei_IoT_Agent_Tiny_SDK_Linux//lwm2m/core/bootstrap.c ****     int res;
  75:/home/baikal/workspace/C50/Huawei_IoT_Agent_Tiny_SDK_Linux//lwm2m/core/bootstrap.c **** 
  76:/home/baikal/workspace/C50/Huawei_IoT_Agent_Tiny_SDK_Linux//lwm2m/core/bootstrap.c ****     LOG("Entering");
  77:/home/baikal/workspace/C50/Huawei_IoT_Agent_Tiny_SDK_Linux//lwm2m/core/bootstrap.c **** 
  78:/home/baikal/workspace/C50/Huawei_IoT_Agent_Tiny_SDK_Linux//lwm2m/core/bootstrap.c ****     query_length = utils_stringCopy(query, PRV_QUERY_BUFFER_LENGTH, QUERY_STARTER QUERY_NAME);
  79:/home/baikal/workspace/C50/Huawei_IoT_Agent_Tiny_SDK_Linux//lwm2m/core/bootstrap.c ****     if (query_length < 0)
  80:/home/baikal/workspace/C50/Huawei_IoT_Agent_Tiny_SDK_Linux//lwm2m/core/bootstrap.c ****     {
  81:/home/baikal/workspace/C50/Huawei_IoT_Agent_Tiny_SDK_Linux//lwm2m/core/bootstrap.c ****         bootstrapServer->status = STATE_BS_FAILING;
  82:/home/baikal/workspace/C50/Huawei_IoT_Agent_Tiny_SDK_Linux//lwm2m/core/bootstrap.c ****         return;
  83:/home/baikal/workspace/C50/Huawei_IoT_Agent_Tiny_SDK_Linux//lwm2m/core/bootstrap.c ****     }
  84:/home/baikal/workspace/C50/Huawei_IoT_Agent_Tiny_SDK_Linux//lwm2m/core/bootstrap.c ****     res = utils_stringCopy(query + query_length, PRV_QUERY_BUFFER_LENGTH - query_length, context->e
  85:/home/baikal/workspace/C50/Huawei_IoT_Agent_Tiny_SDK_Linux//lwm2m/core/bootstrap.c ****     if (res < 0)
  86:/home/baikal/workspace/C50/Huawei_IoT_Agent_Tiny_SDK_Linux//lwm2m/core/bootstrap.c ****     {
  87:/home/baikal/workspace/C50/Huawei_IoT_Agent_Tiny_SDK_Linux//lwm2m/core/bootstrap.c ****         bootstrapServer->status = STATE_BS_FAILING;
  88:/home/baikal/workspace/C50/Huawei_IoT_Agent_Tiny_SDK_Linux//lwm2m/core/bootstrap.c ****         return;
  89:/home/baikal/workspace/C50/Huawei_IoT_Agent_Tiny_SDK_Linux//lwm2m/core/bootstrap.c ****     }
  90:/home/baikal/workspace/C50/Huawei_IoT_Agent_Tiny_SDK_Linux//lwm2m/core/bootstrap.c ****     query_length += res;
  91:/home/baikal/workspace/C50/Huawei_IoT_Agent_Tiny_SDK_Linux//lwm2m/core/bootstrap.c **** 
  92:/home/baikal/workspace/C50/Huawei_IoT_Agent_Tiny_SDK_Linux//lwm2m/core/bootstrap.c ****     if (bootstrapServer->sessionH == NULL)
  93:/home/baikal/workspace/C50/Huawei_IoT_Agent_Tiny_SDK_Linux//lwm2m/core/bootstrap.c ****     {
  94:/home/baikal/workspace/C50/Huawei_IoT_Agent_Tiny_SDK_Linux//lwm2m/core/bootstrap.c ****         bootstrapServer->sessionH = lwm2m_connect_server(bootstrapServer->secObjInstID, context->us
  95:/home/baikal/workspace/C50/Huawei_IoT_Agent_Tiny_SDK_Linux//lwm2m/core/bootstrap.c ****     }
  96:/home/baikal/workspace/C50/Huawei_IoT_Agent_Tiny_SDK_Linux//lwm2m/core/bootstrap.c **** 
  97:/home/baikal/workspace/C50/Huawei_IoT_Agent_Tiny_SDK_Linux//lwm2m/core/bootstrap.c ****     if (bootstrapServer->sessionH != NULL)
  98:/home/baikal/workspace/C50/Huawei_IoT_Agent_Tiny_SDK_Linux//lwm2m/core/bootstrap.c ****     {
  99:/home/baikal/workspace/C50/Huawei_IoT_Agent_Tiny_SDK_Linux//lwm2m/core/bootstrap.c ****         lwm2m_transaction_t *transaction = NULL;
 100:/home/baikal/workspace/C50/Huawei_IoT_Agent_Tiny_SDK_Linux//lwm2m/core/bootstrap.c **** 
 101:/home/baikal/workspace/C50/Huawei_IoT_Agent_Tiny_SDK_Linux//lwm2m/core/bootstrap.c ****         LOG("Bootstrap server connection opened");
 102:/home/baikal/workspace/C50/Huawei_IoT_Agent_Tiny_SDK_Linux//lwm2m/core/bootstrap.c **** 
 103:/home/baikal/workspace/C50/Huawei_IoT_Agent_Tiny_SDK_Linux//lwm2m/core/bootstrap.c ****         transaction = transaction_new(bootstrapServer->sessionH, COAP_POST, NULL, NULL, context->ne
 104:/home/baikal/workspace/C50/Huawei_IoT_Agent_Tiny_SDK_Linux//lwm2m/core/bootstrap.c ****         if (transaction == NULL)
 105:/home/baikal/workspace/C50/Huawei_IoT_Agent_Tiny_SDK_Linux//lwm2m/core/bootstrap.c ****         {
 106:/home/baikal/workspace/C50/Huawei_IoT_Agent_Tiny_SDK_Linux//lwm2m/core/bootstrap.c ****             bootstrapServer->status = STATE_BS_FAILING;
 107:/home/baikal/workspace/C50/Huawei_IoT_Agent_Tiny_SDK_Linux//lwm2m/core/bootstrap.c ****             return;
GAS LISTING /tmp/ccFIbPhJ.s 			page 3


 108:/home/baikal/workspace/C50/Huawei_IoT_Agent_Tiny_SDK_Linux//lwm2m/core/bootstrap.c ****         }
 109:/home/baikal/workspace/C50/Huawei_IoT_Agent_Tiny_SDK_Linux//lwm2m/core/bootstrap.c **** 
 110:/home/baikal/workspace/C50/Huawei_IoT_Agent_Tiny_SDK_Linux//lwm2m/core/bootstrap.c ****         coap_set_header_uri_path(transaction->message, "/"URI_BOOTSTRAP_SEGMENT);
 111:/home/baikal/workspace/C50/Huawei_IoT_Agent_Tiny_SDK_Linux//lwm2m/core/bootstrap.c ****         coap_set_header_uri_query(transaction->message, query);
 112:/home/baikal/workspace/C50/Huawei_IoT_Agent_Tiny_SDK_Linux//lwm2m/core/bootstrap.c ****         transaction->callback = prv_handleBootstrapReply;
 113:/home/baikal/workspace/C50/Huawei_IoT_Agent_Tiny_SDK_Linux//lwm2m/core/bootstrap.c ****         transaction->userData = (void *)bootstrapServer;
 114:/home/baikal/workspace/C50/Huawei_IoT_Agent_Tiny_SDK_Linux//lwm2m/core/bootstrap.c ****         context->transactionList = (lwm2m_transaction_t *)LWM2M_LIST_ADD(context->transactionList, 
 115:/home/baikal/workspace/C50/Huawei_IoT_Agent_Tiny_SDK_Linux//lwm2m/core/bootstrap.c ****         if (transaction_send(context, transaction) == 0)
 116:/home/baikal/workspace/C50/Huawei_IoT_Agent_Tiny_SDK_Linux//lwm2m/core/bootstrap.c ****         {
 117:/home/baikal/workspace/C50/Huawei_IoT_Agent_Tiny_SDK_Linux//lwm2m/core/bootstrap.c ****             LOG("CI bootstrap requested to BS server");
 118:/home/baikal/workspace/C50/Huawei_IoT_Agent_Tiny_SDK_Linux//lwm2m/core/bootstrap.c ****             bootstrapServer->status = STATE_BS_INITIATED;
 119:/home/baikal/workspace/C50/Huawei_IoT_Agent_Tiny_SDK_Linux//lwm2m/core/bootstrap.c ****         }
 120:/home/baikal/workspace/C50/Huawei_IoT_Agent_Tiny_SDK_Linux//lwm2m/core/bootstrap.c ****     }
 121:/home/baikal/workspace/C50/Huawei_IoT_Agent_Tiny_SDK_Linux//lwm2m/core/bootstrap.c ****     else
 122:/home/baikal/workspace/C50/Huawei_IoT_Agent_Tiny_SDK_Linux//lwm2m/core/bootstrap.c ****     {
 123:/home/baikal/workspace/C50/Huawei_IoT_Agent_Tiny_SDK_Linux//lwm2m/core/bootstrap.c ****         LOG("Connecting bootstrap server failed");
 124:/home/baikal/workspace/C50/Huawei_IoT_Agent_Tiny_SDK_Linux//lwm2m/core/bootstrap.c ****         bootstrapServer->status = STATE_BS_FAILED;
 125:/home/baikal/workspace/C50/Huawei_IoT_Agent_Tiny_SDK_Linux//lwm2m/core/bootstrap.c ****     }
 126:/home/baikal/workspace/C50/Huawei_IoT_Agent_Tiny_SDK_Linux//lwm2m/core/bootstrap.c **** }
 127:/home/baikal/workspace/C50/Huawei_IoT_Agent_Tiny_SDK_Linux//lwm2m/core/bootstrap.c **** 
 128:/home/baikal/workspace/C50/Huawei_IoT_Agent_Tiny_SDK_Linux//lwm2m/core/bootstrap.c **** /*
 129:/home/baikal/workspace/C50/Huawei_IoT_Agent_Tiny_SDK_Linux//lwm2m/core/bootstrap.c ****  * modify info:
 130:/home/baikal/workspace/C50/Huawei_IoT_Agent_Tiny_SDK_Linux//lwm2m/core/bootstrap.c ****  * modify date:     2019-06-04
 131:/home/baikal/workspace/C50/Huawei_IoT_Agent_Tiny_SDK_Linux//lwm2m/core/bootstrap.c ****  * modify place:    STATE_BS_HOLD_OFF, STATE_BS_PENDING
 132:/home/baikal/workspace/C50/Huawei_IoT_Agent_Tiny_SDK_Linux//lwm2m/core/bootstrap.c ****  * pay attention:
 133:/home/baikal/workspace/C50/Huawei_IoT_Agent_Tiny_SDK_Linux//lwm2m/core/bootstrap.c ****  *                  the targetP->status are important, change one, should take care of other status
 134:/home/baikal/workspace/C50/Huawei_IoT_Agent_Tiny_SDK_Linux//lwm2m/core/bootstrap.c ****  *
 135:/home/baikal/workspace/C50/Huawei_IoT_Agent_Tiny_SDK_Linux//lwm2m/core/bootstrap.c ****  */
 136:/home/baikal/workspace/C50/Huawei_IoT_Agent_Tiny_SDK_Linux//lwm2m/core/bootstrap.c **** void bootstrap_step(lwm2m_context_t *contextP,
 137:/home/baikal/workspace/C50/Huawei_IoT_Agent_Tiny_SDK_Linux//lwm2m/core/bootstrap.c ****                     uint32_t currentTime,
 138:/home/baikal/workspace/C50/Huawei_IoT_Agent_Tiny_SDK_Linux//lwm2m/core/bootstrap.c ****                     time_t *timeoutP)
 139:/home/baikal/workspace/C50/Huawei_IoT_Agent_Tiny_SDK_Linux//lwm2m/core/bootstrap.c **** {
 140:/home/baikal/workspace/C50/Huawei_IoT_Agent_Tiny_SDK_Linux//lwm2m/core/bootstrap.c ****     lwm2m_server_t *targetP;
 141:/home/baikal/workspace/C50/Huawei_IoT_Agent_Tiny_SDK_Linux//lwm2m/core/bootstrap.c ****     bool server_to_client_mode = false;
 142:/home/baikal/workspace/C50/Huawei_IoT_Agent_Tiny_SDK_Linux//lwm2m/core/bootstrap.c **** 
 143:/home/baikal/workspace/C50/Huawei_IoT_Agent_Tiny_SDK_Linux//lwm2m/core/bootstrap.c ****     LOG("entering");
 144:/home/baikal/workspace/C50/Huawei_IoT_Agent_Tiny_SDK_Linux//lwm2m/core/bootstrap.c ****     targetP = contextP->bootstrapServerList;
 145:/home/baikal/workspace/C50/Huawei_IoT_Agent_Tiny_SDK_Linux//lwm2m/core/bootstrap.c ****     while (targetP != NULL)
 146:/home/baikal/workspace/C50/Huawei_IoT_Agent_Tiny_SDK_Linux//lwm2m/core/bootstrap.c ****     {
 147:/home/baikal/workspace/C50/Huawei_IoT_Agent_Tiny_SDK_Linux//lwm2m/core/bootstrap.c ****         LOG_ARG("Initial status: %s", STR_STATUS(targetP->status));
 148:/home/baikal/workspace/C50/Huawei_IoT_Agent_Tiny_SDK_Linux//lwm2m/core/bootstrap.c ****         switch (targetP->status)
 149:/home/baikal/workspace/C50/Huawei_IoT_Agent_Tiny_SDK_Linux//lwm2m/core/bootstrap.c ****         {
 150:/home/baikal/workspace/C50/Huawei_IoT_Agent_Tiny_SDK_Linux//lwm2m/core/bootstrap.c ****         case STATE_DEREGISTERED:
 151:/home/baikal/workspace/C50/Huawei_IoT_Agent_Tiny_SDK_Linux//lwm2m/core/bootstrap.c ****             //pay attention: targetP->lifetime come from securityobj instance, it's init value is 1
 152:/home/baikal/workspace/C50/Huawei_IoT_Agent_Tiny_SDK_Linux//lwm2m/core/bootstrap.c ****             //STATE_BS_HOLD_OFF. of course, the value could be wrote by the bs server. encode decod
 153:/home/baikal/workspace/C50/Huawei_IoT_Agent_Tiny_SDK_Linux//lwm2m/core/bootstrap.c ****             targetP->registration = currentTime + targetP->lifetime;
 154:/home/baikal/workspace/C50/Huawei_IoT_Agent_Tiny_SDK_Linux//lwm2m/core/bootstrap.c ****             targetP->status = STATE_BS_HOLD_OFF;
 155:/home/baikal/workspace/C50/Huawei_IoT_Agent_Tiny_SDK_Linux//lwm2m/core/bootstrap.c ****             if (*timeoutP > targetP->lifetime)
 156:/home/baikal/workspace/C50/Huawei_IoT_Agent_Tiny_SDK_Linux//lwm2m/core/bootstrap.c ****             {
 157:/home/baikal/workspace/C50/Huawei_IoT_Agent_Tiny_SDK_Linux//lwm2m/core/bootstrap.c ****                 *timeoutP = targetP->lifetime;
 158:/home/baikal/workspace/C50/Huawei_IoT_Agent_Tiny_SDK_Linux//lwm2m/core/bootstrap.c ****             }
 159:/home/baikal/workspace/C50/Huawei_IoT_Agent_Tiny_SDK_Linux//lwm2m/core/bootstrap.c ****             break;
 160:/home/baikal/workspace/C50/Huawei_IoT_Agent_Tiny_SDK_Linux//lwm2m/core/bootstrap.c **** 
 161:/home/baikal/workspace/C50/Huawei_IoT_Agent_Tiny_SDK_Linux//lwm2m/core/bootstrap.c ****         case STATE_BS_HOLD_OFF:
 162:/home/baikal/workspace/C50/Huawei_IoT_Agent_Tiny_SDK_Linux//lwm2m/core/bootstrap.c ****             if (targetP->registration <= currentTime)
 163:/home/baikal/workspace/C50/Huawei_IoT_Agent_Tiny_SDK_Linux//lwm2m/core/bootstrap.c ****             {
 164:/home/baikal/workspace/C50/Huawei_IoT_Agent_Tiny_SDK_Linux//lwm2m/core/bootstrap.c ****                 if((contextP->bs_sequence_state == BS_SEQUENCE_STATE_CLIENT_INITIATED) || (contextP
GAS LISTING /tmp/ccFIbPhJ.s 			page 4


 165:/home/baikal/workspace/C50/Huawei_IoT_Agent_Tiny_SDK_Linux//lwm2m/core/bootstrap.c ****                 {
 166:/home/baikal/workspace/C50/Huawei_IoT_Agent_Tiny_SDK_Linux//lwm2m/core/bootstrap.c ****                     prv_requestBootstrap(contextP, targetP);
 167:/home/baikal/workspace/C50/Huawei_IoT_Agent_Tiny_SDK_Linux//lwm2m/core/bootstrap.c ****                 }
 168:/home/baikal/workspace/C50/Huawei_IoT_Agent_Tiny_SDK_Linux//lwm2m/core/bootstrap.c ****                 else if(contextP->bs_sequence_state == BS_SEQUENCE_STATE_SERVER_INITIATED)
 169:/home/baikal/workspace/C50/Huawei_IoT_Agent_Tiny_SDK_Linux//lwm2m/core/bootstrap.c ****                 {
 170:/home/baikal/workspace/C50/Huawei_IoT_Agent_Tiny_SDK_Linux//lwm2m/core/bootstrap.c ****                     //this situation is over clientHoldOffTime
 171:/home/baikal/workspace/C50/Huawei_IoT_Agent_Tiny_SDK_Linux//lwm2m/core/bootstrap.c ****                     //targetP->status = STATE_BS_PENDING;
 172:/home/baikal/workspace/C50/Huawei_IoT_Agent_Tiny_SDK_Linux//lwm2m/core/bootstrap.c ****                     //if(contextP->bs_server_uri != NULL)
 173:/home/baikal/workspace/C50/Huawei_IoT_Agent_Tiny_SDK_Linux//lwm2m/core/bootstrap.c ****                     {
 174:/home/baikal/workspace/C50/Huawei_IoT_Agent_Tiny_SDK_Linux//lwm2m/core/bootstrap.c ****                         targetP->status = STATE_BS_FINISHING; //so get to the process : contextP->s
 175:/home/baikal/workspace/C50/Huawei_IoT_Agent_Tiny_SDK_Linux//lwm2m/core/bootstrap.c **** 
 176:/home/baikal/workspace/C50/Huawei_IoT_Agent_Tiny_SDK_Linux//lwm2m/core/bootstrap.c ****                         server_to_client_mode = true;  //
 177:/home/baikal/workspace/C50/Huawei_IoT_Agent_Tiny_SDK_Linux//lwm2m/core/bootstrap.c ****                         contextP->bs_sequence_state = BS_SEQUENCE_STATE_CLIENT_INITIATED;
 178:/home/baikal/workspace/C50/Huawei_IoT_Agent_Tiny_SDK_Linux//lwm2m/core/bootstrap.c ****                     }
 179:/home/baikal/workspace/C50/Huawei_IoT_Agent_Tiny_SDK_Linux//lwm2m/core/bootstrap.c **** 
 180:/home/baikal/workspace/C50/Huawei_IoT_Agent_Tiny_SDK_Linux//lwm2m/core/bootstrap.c ****                 }
 181:/home/baikal/workspace/C50/Huawei_IoT_Agent_Tiny_SDK_Linux//lwm2m/core/bootstrap.c ****             }
 182:/home/baikal/workspace/C50/Huawei_IoT_Agent_Tiny_SDK_Linux//lwm2m/core/bootstrap.c ****             else if (*timeoutP > targetP->registration - currentTime)
 183:/home/baikal/workspace/C50/Huawei_IoT_Agent_Tiny_SDK_Linux//lwm2m/core/bootstrap.c ****             {
 184:/home/baikal/workspace/C50/Huawei_IoT_Agent_Tiny_SDK_Linux//lwm2m/core/bootstrap.c ****                 *timeoutP = targetP->registration - currentTime;
 185:/home/baikal/workspace/C50/Huawei_IoT_Agent_Tiny_SDK_Linux//lwm2m/core/bootstrap.c ****             }
 186:/home/baikal/workspace/C50/Huawei_IoT_Agent_Tiny_SDK_Linux//lwm2m/core/bootstrap.c ****             break;
 187:/home/baikal/workspace/C50/Huawei_IoT_Agent_Tiny_SDK_Linux//lwm2m/core/bootstrap.c **** 
 188:/home/baikal/workspace/C50/Huawei_IoT_Agent_Tiny_SDK_Linux//lwm2m/core/bootstrap.c **** 
 189:/home/baikal/workspace/C50/Huawei_IoT_Agent_Tiny_SDK_Linux//lwm2m/core/bootstrap.c ****         case STATE_BS_INITIATED:
 190:/home/baikal/workspace/C50/Huawei_IoT_Agent_Tiny_SDK_Linux//lwm2m/core/bootstrap.c ****             // waiting
 191:/home/baikal/workspace/C50/Huawei_IoT_Agent_Tiny_SDK_Linux//lwm2m/core/bootstrap.c ****             break;
 192:/home/baikal/workspace/C50/Huawei_IoT_Agent_Tiny_SDK_Linux//lwm2m/core/bootstrap.c **** 
 193:/home/baikal/workspace/C50/Huawei_IoT_Agent_Tiny_SDK_Linux//lwm2m/core/bootstrap.c ****         case STATE_BS_PENDING:
 194:/home/baikal/workspace/C50/Huawei_IoT_Agent_Tiny_SDK_Linux//lwm2m/core/bootstrap.c ****             if((contextP->bs_sequence_state == BS_SEQUENCE_STATE_CLIENT_INITIATED) || (contextP->bs
 195:/home/baikal/workspace/C50/Huawei_IoT_Agent_Tiny_SDK_Linux//lwm2m/core/bootstrap.c ****             {
 196:/home/baikal/workspace/C50/Huawei_IoT_Agent_Tiny_SDK_Linux//lwm2m/core/bootstrap.c ****                 if (targetP->registration <= currentTime)
 197:/home/baikal/workspace/C50/Huawei_IoT_Agent_Tiny_SDK_Linux//lwm2m/core/bootstrap.c ****                 {
 198:/home/baikal/workspace/C50/Huawei_IoT_Agent_Tiny_SDK_Linux//lwm2m/core/bootstrap.c ****                     //bootstrap failed, and in the atiny_bind, will return error again and again. d
 199:/home/baikal/workspace/C50/Huawei_IoT_Agent_Tiny_SDK_Linux//lwm2m/core/bootstrap.c ****                     //need it?
 200:/home/baikal/workspace/C50/Huawei_IoT_Agent_Tiny_SDK_Linux//lwm2m/core/bootstrap.c ****                     targetP->status = STATE_BS_FAILING;
 201:/home/baikal/workspace/C50/Huawei_IoT_Agent_Tiny_SDK_Linux//lwm2m/core/bootstrap.c ****                     *timeoutP = 0;
 202:/home/baikal/workspace/C50/Huawei_IoT_Agent_Tiny_SDK_Linux//lwm2m/core/bootstrap.c ****                 }
 203:/home/baikal/workspace/C50/Huawei_IoT_Agent_Tiny_SDK_Linux//lwm2m/core/bootstrap.c ****                 else if (*timeoutP > targetP->registration - currentTime)
 204:/home/baikal/workspace/C50/Huawei_IoT_Agent_Tiny_SDK_Linux//lwm2m/core/bootstrap.c ****                 {
 205:/home/baikal/workspace/C50/Huawei_IoT_Agent_Tiny_SDK_Linux//lwm2m/core/bootstrap.c ****                     *timeoutP = targetP->registration - currentTime;
 206:/home/baikal/workspace/C50/Huawei_IoT_Agent_Tiny_SDK_Linux//lwm2m/core/bootstrap.c ****                 }
 207:/home/baikal/workspace/C50/Huawei_IoT_Agent_Tiny_SDK_Linux//lwm2m/core/bootstrap.c ****             }
 208:/home/baikal/workspace/C50/Huawei_IoT_Agent_Tiny_SDK_Linux//lwm2m/core/bootstrap.c ****             else if(contextP->bs_sequence_state == BS_SEQUENCE_STATE_SERVER_INITIATED)
 209:/home/baikal/workspace/C50/Huawei_IoT_Agent_Tiny_SDK_Linux//lwm2m/core/bootstrap.c ****             {
 210:/home/baikal/workspace/C50/Huawei_IoT_Agent_Tiny_SDK_Linux//lwm2m/core/bootstrap.c ****                 if (targetP->registration <= currentTime)
 211:/home/baikal/workspace/C50/Huawei_IoT_Agent_Tiny_SDK_Linux//lwm2m/core/bootstrap.c ****                 {
 212:/home/baikal/workspace/C50/Huawei_IoT_Agent_Tiny_SDK_Linux//lwm2m/core/bootstrap.c ****                     //SERVER_INITIATED after write info, start to regist----,server not send finish
 213:/home/baikal/workspace/C50/Huawei_IoT_Agent_Tiny_SDK_Linux//lwm2m/core/bootstrap.c ****                     targetP->status = STATE_BS_FINISHING;
 214:/home/baikal/workspace/C50/Huawei_IoT_Agent_Tiny_SDK_Linux//lwm2m/core/bootstrap.c ****                     *timeoutP = 0;
 215:/home/baikal/workspace/C50/Huawei_IoT_Agent_Tiny_SDK_Linux//lwm2m/core/bootstrap.c ****                 }
 216:/home/baikal/workspace/C50/Huawei_IoT_Agent_Tiny_SDK_Linux//lwm2m/core/bootstrap.c ****                 else if (*timeoutP > targetP->registration - currentTime)
 217:/home/baikal/workspace/C50/Huawei_IoT_Agent_Tiny_SDK_Linux//lwm2m/core/bootstrap.c ****                 {
 218:/home/baikal/workspace/C50/Huawei_IoT_Agent_Tiny_SDK_Linux//lwm2m/core/bootstrap.c ****                     *timeoutP = targetP->registration - currentTime;
 219:/home/baikal/workspace/C50/Huawei_IoT_Agent_Tiny_SDK_Linux//lwm2m/core/bootstrap.c ****                 }
 220:/home/baikal/workspace/C50/Huawei_IoT_Agent_Tiny_SDK_Linux//lwm2m/core/bootstrap.c ****             }
 221:/home/baikal/workspace/C50/Huawei_IoT_Agent_Tiny_SDK_Linux//lwm2m/core/bootstrap.c ****             break;
GAS LISTING /tmp/ccFIbPhJ.s 			page 5


 222:/home/baikal/workspace/C50/Huawei_IoT_Agent_Tiny_SDK_Linux//lwm2m/core/bootstrap.c **** 
 223:/home/baikal/workspace/C50/Huawei_IoT_Agent_Tiny_SDK_Linux//lwm2m/core/bootstrap.c ****         case STATE_BS_FINISHING:
 224:/home/baikal/workspace/C50/Huawei_IoT_Agent_Tiny_SDK_Linux//lwm2m/core/bootstrap.c ****             if (targetP->sessionH != NULL)
 225:/home/baikal/workspace/C50/Huawei_IoT_Agent_Tiny_SDK_Linux//lwm2m/core/bootstrap.c ****             {
 226:/home/baikal/workspace/C50/Huawei_IoT_Agent_Tiny_SDK_Linux//lwm2m/core/bootstrap.c ****                 lwm2m_close_connection(targetP->sessionH, contextP->userData);
 227:/home/baikal/workspace/C50/Huawei_IoT_Agent_Tiny_SDK_Linux//lwm2m/core/bootstrap.c ****                 targetP->sessionH = NULL;
 228:/home/baikal/workspace/C50/Huawei_IoT_Agent_Tiny_SDK_Linux//lwm2m/core/bootstrap.c ****             }
 229:/home/baikal/workspace/C50/Huawei_IoT_Agent_Tiny_SDK_Linux//lwm2m/core/bootstrap.c ****             targetP->status = STATE_BS_FINISHED;
 230:/home/baikal/workspace/C50/Huawei_IoT_Agent_Tiny_SDK_Linux//lwm2m/core/bootstrap.c ****             *timeoutP = 0;
 231:/home/baikal/workspace/C50/Huawei_IoT_Agent_Tiny_SDK_Linux//lwm2m/core/bootstrap.c ****             break;
 232:/home/baikal/workspace/C50/Huawei_IoT_Agent_Tiny_SDK_Linux//lwm2m/core/bootstrap.c **** 
 233:/home/baikal/workspace/C50/Huawei_IoT_Agent_Tiny_SDK_Linux//lwm2m/core/bootstrap.c ****         case STATE_BS_FAILING:
 234:/home/baikal/workspace/C50/Huawei_IoT_Agent_Tiny_SDK_Linux//lwm2m/core/bootstrap.c ****             if (targetP->sessionH != NULL)
 235:/home/baikal/workspace/C50/Huawei_IoT_Agent_Tiny_SDK_Linux//lwm2m/core/bootstrap.c ****             {
 236:/home/baikal/workspace/C50/Huawei_IoT_Agent_Tiny_SDK_Linux//lwm2m/core/bootstrap.c ****                 lwm2m_close_connection(targetP->sessionH, contextP->userData);
 237:/home/baikal/workspace/C50/Huawei_IoT_Agent_Tiny_SDK_Linux//lwm2m/core/bootstrap.c ****                 targetP->sessionH = NULL;
 238:/home/baikal/workspace/C50/Huawei_IoT_Agent_Tiny_SDK_Linux//lwm2m/core/bootstrap.c ****             }
 239:/home/baikal/workspace/C50/Huawei_IoT_Agent_Tiny_SDK_Linux//lwm2m/core/bootstrap.c ****             targetP->status = STATE_BS_FAILED;
 240:/home/baikal/workspace/C50/Huawei_IoT_Agent_Tiny_SDK_Linux//lwm2m/core/bootstrap.c ****             *timeoutP = 0;
 241:/home/baikal/workspace/C50/Huawei_IoT_Agent_Tiny_SDK_Linux//lwm2m/core/bootstrap.c ****             break;
 242:/home/baikal/workspace/C50/Huawei_IoT_Agent_Tiny_SDK_Linux//lwm2m/core/bootstrap.c **** 
 243:/home/baikal/workspace/C50/Huawei_IoT_Agent_Tiny_SDK_Linux//lwm2m/core/bootstrap.c ****         default:
 244:/home/baikal/workspace/C50/Huawei_IoT_Agent_Tiny_SDK_Linux//lwm2m/core/bootstrap.c ****             break;
 245:/home/baikal/workspace/C50/Huawei_IoT_Agent_Tiny_SDK_Linux//lwm2m/core/bootstrap.c ****         }
 246:/home/baikal/workspace/C50/Huawei_IoT_Agent_Tiny_SDK_Linux//lwm2m/core/bootstrap.c ****         LOG_ARG("Finalal status: %s", STR_STATUS(targetP->status));
 247:/home/baikal/workspace/C50/Huawei_IoT_Agent_Tiny_SDK_Linux//lwm2m/core/bootstrap.c ****         targetP = targetP->next;
 248:/home/baikal/workspace/C50/Huawei_IoT_Agent_Tiny_SDK_Linux//lwm2m/core/bootstrap.c ****     }
 249:/home/baikal/workspace/C50/Huawei_IoT_Agent_Tiny_SDK_Linux//lwm2m/core/bootstrap.c **** 
 250:/home/baikal/workspace/C50/Huawei_IoT_Agent_Tiny_SDK_Linux//lwm2m/core/bootstrap.c ****     if(server_to_client_mode)
 251:/home/baikal/workspace/C50/Huawei_IoT_Agent_Tiny_SDK_Linux//lwm2m/core/bootstrap.c ****     {
 252:/home/baikal/workspace/C50/Huawei_IoT_Agent_Tiny_SDK_Linux//lwm2m/core/bootstrap.c ****         if(lwm2m_bootstrap_sequence_server_to_client_initiated(contextP) == 0)
 253:/home/baikal/workspace/C50/Huawei_IoT_Agent_Tiny_SDK_Linux//lwm2m/core/bootstrap.c ****         {
 254:/home/baikal/workspace/C50/Huawei_IoT_Agent_Tiny_SDK_Linux//lwm2m/core/bootstrap.c ****             contextP->state = STATE_INITIAL;
 255:/home/baikal/workspace/C50/Huawei_IoT_Agent_Tiny_SDK_Linux//lwm2m/core/bootstrap.c ****             contextP->regist_first_flag = false;
 256:/home/baikal/workspace/C50/Huawei_IoT_Agent_Tiny_SDK_Linux//lwm2m/core/bootstrap.c ****         }
 257:/home/baikal/workspace/C50/Huawei_IoT_Agent_Tiny_SDK_Linux//lwm2m/core/bootstrap.c ****     }
 258:/home/baikal/workspace/C50/Huawei_IoT_Agent_Tiny_SDK_Linux//lwm2m/core/bootstrap.c **** 
 259:/home/baikal/workspace/C50/Huawei_IoT_Agent_Tiny_SDK_Linux//lwm2m/core/bootstrap.c **** }
 260:/home/baikal/workspace/C50/Huawei_IoT_Agent_Tiny_SDK_Linux//lwm2m/core/bootstrap.c **** 
 261:/home/baikal/workspace/C50/Huawei_IoT_Agent_Tiny_SDK_Linux//lwm2m/core/bootstrap.c **** uint8_t bootstrap_handleFinish(lwm2m_context_t *context,
 262:/home/baikal/workspace/C50/Huawei_IoT_Agent_Tiny_SDK_Linux//lwm2m/core/bootstrap.c ****                                void *fromSessionH)
 263:/home/baikal/workspace/C50/Huawei_IoT_Agent_Tiny_SDK_Linux//lwm2m/core/bootstrap.c **** {
 264:/home/baikal/workspace/C50/Huawei_IoT_Agent_Tiny_SDK_Linux//lwm2m/core/bootstrap.c ****     lwm2m_server_t *bootstrapServer;
 265:/home/baikal/workspace/C50/Huawei_IoT_Agent_Tiny_SDK_Linux//lwm2m/core/bootstrap.c **** 
 266:/home/baikal/workspace/C50/Huawei_IoT_Agent_Tiny_SDK_Linux//lwm2m/core/bootstrap.c ****     LOG("Entering");
 267:/home/baikal/workspace/C50/Huawei_IoT_Agent_Tiny_SDK_Linux//lwm2m/core/bootstrap.c ****     bootstrapServer = utils_findBootstrapServer(context, fromSessionH);
 268:/home/baikal/workspace/C50/Huawei_IoT_Agent_Tiny_SDK_Linux//lwm2m/core/bootstrap.c ****     if (bootstrapServer != NULL
 269:/home/baikal/workspace/C50/Huawei_IoT_Agent_Tiny_SDK_Linux//lwm2m/core/bootstrap.c ****             && bootstrapServer->status == STATE_BS_PENDING)
 270:/home/baikal/workspace/C50/Huawei_IoT_Agent_Tiny_SDK_Linux//lwm2m/core/bootstrap.c ****     {
 271:/home/baikal/workspace/C50/Huawei_IoT_Agent_Tiny_SDK_Linux//lwm2m/core/bootstrap.c ****         if (object_getServers(context, true) == 0)
 272:/home/baikal/workspace/C50/Huawei_IoT_Agent_Tiny_SDK_Linux//lwm2m/core/bootstrap.c ****         {
 273:/home/baikal/workspace/C50/Huawei_IoT_Agent_Tiny_SDK_Linux//lwm2m/core/bootstrap.c ****             LOG("Bootstrap server status changed to STATE_BS_FINISHING");
 274:/home/baikal/workspace/C50/Huawei_IoT_Agent_Tiny_SDK_Linux//lwm2m/core/bootstrap.c ****             bootstrapServer->status = STATE_BS_FINISHING;
 275:/home/baikal/workspace/C50/Huawei_IoT_Agent_Tiny_SDK_Linux//lwm2m/core/bootstrap.c ****             return COAP_204_CHANGED;
 276:/home/baikal/workspace/C50/Huawei_IoT_Agent_Tiny_SDK_Linux//lwm2m/core/bootstrap.c ****         }
 277:/home/baikal/workspace/C50/Huawei_IoT_Agent_Tiny_SDK_Linux//lwm2m/core/bootstrap.c ****         else
 278:/home/baikal/workspace/C50/Huawei_IoT_Agent_Tiny_SDK_Linux//lwm2m/core/bootstrap.c ****         {
GAS LISTING /tmp/ccFIbPhJ.s 			page 6


 279:/home/baikal/workspace/C50/Huawei_IoT_Agent_Tiny_SDK_Linux//lwm2m/core/bootstrap.c ****             return COAP_406_NOT_ACCEPTABLE;
 280:/home/baikal/workspace/C50/Huawei_IoT_Agent_Tiny_SDK_Linux//lwm2m/core/bootstrap.c ****         }
 281:/home/baikal/workspace/C50/Huawei_IoT_Agent_Tiny_SDK_Linux//lwm2m/core/bootstrap.c ****     }
 282:/home/baikal/workspace/C50/Huawei_IoT_Agent_Tiny_SDK_Linux//lwm2m/core/bootstrap.c **** 
 283:/home/baikal/workspace/C50/Huawei_IoT_Agent_Tiny_SDK_Linux//lwm2m/core/bootstrap.c ****     return COAP_IGNORE;
 284:/home/baikal/workspace/C50/Huawei_IoT_Agent_Tiny_SDK_Linux//lwm2m/core/bootstrap.c **** }
 285:/home/baikal/workspace/C50/Huawei_IoT_Agent_Tiny_SDK_Linux//lwm2m/core/bootstrap.c **** 
 286:/home/baikal/workspace/C50/Huawei_IoT_Agent_Tiny_SDK_Linux//lwm2m/core/bootstrap.c **** /*
 287:/home/baikal/workspace/C50/Huawei_IoT_Agent_Tiny_SDK_Linux//lwm2m/core/bootstrap.c ****  * Reset the bootstrap servers statuses
 288:/home/baikal/workspace/C50/Huawei_IoT_Agent_Tiny_SDK_Linux//lwm2m/core/bootstrap.c ****  *
 289:/home/baikal/workspace/C50/Huawei_IoT_Agent_Tiny_SDK_Linux//lwm2m/core/bootstrap.c ****  * TODO: handle LWM2M Servers the client is registered to ?
 290:/home/baikal/workspace/C50/Huawei_IoT_Agent_Tiny_SDK_Linux//lwm2m/core/bootstrap.c ****  *
 291:/home/baikal/workspace/C50/Huawei_IoT_Agent_Tiny_SDK_Linux//lwm2m/core/bootstrap.c ****  */
 292:/home/baikal/workspace/C50/Huawei_IoT_Agent_Tiny_SDK_Linux//lwm2m/core/bootstrap.c **** void bootstrap_start(lwm2m_context_t *contextP)
 293:/home/baikal/workspace/C50/Huawei_IoT_Agent_Tiny_SDK_Linux//lwm2m/core/bootstrap.c **** {
 294:/home/baikal/workspace/C50/Huawei_IoT_Agent_Tiny_SDK_Linux//lwm2m/core/bootstrap.c ****     lwm2m_server_t *targetP;
 295:/home/baikal/workspace/C50/Huawei_IoT_Agent_Tiny_SDK_Linux//lwm2m/core/bootstrap.c **** 
 296:/home/baikal/workspace/C50/Huawei_IoT_Agent_Tiny_SDK_Linux//lwm2m/core/bootstrap.c ****     LOG("Entering");
 297:/home/baikal/workspace/C50/Huawei_IoT_Agent_Tiny_SDK_Linux//lwm2m/core/bootstrap.c ****     targetP = contextP->bootstrapServerList;
 298:/home/baikal/workspace/C50/Huawei_IoT_Agent_Tiny_SDK_Linux//lwm2m/core/bootstrap.c ****     while (targetP != NULL)
 299:/home/baikal/workspace/C50/Huawei_IoT_Agent_Tiny_SDK_Linux//lwm2m/core/bootstrap.c ****     {
 300:/home/baikal/workspace/C50/Huawei_IoT_Agent_Tiny_SDK_Linux//lwm2m/core/bootstrap.c ****         targetP->status = STATE_DEREGISTERED;
 301:/home/baikal/workspace/C50/Huawei_IoT_Agent_Tiny_SDK_Linux//lwm2m/core/bootstrap.c ****         if (targetP->sessionH == NULL)
 302:/home/baikal/workspace/C50/Huawei_IoT_Agent_Tiny_SDK_Linux//lwm2m/core/bootstrap.c ****         {
 303:/home/baikal/workspace/C50/Huawei_IoT_Agent_Tiny_SDK_Linux//lwm2m/core/bootstrap.c ****             targetP->sessionH = lwm2m_connect_server(targetP->secObjInstID, contextP->userData, tru
 304:/home/baikal/workspace/C50/Huawei_IoT_Agent_Tiny_SDK_Linux//lwm2m/core/bootstrap.c ****         }
 305:/home/baikal/workspace/C50/Huawei_IoT_Agent_Tiny_SDK_Linux//lwm2m/core/bootstrap.c ****         targetP = targetP->next;
 306:/home/baikal/workspace/C50/Huawei_IoT_Agent_Tiny_SDK_Linux//lwm2m/core/bootstrap.c ****     }
 307:/home/baikal/workspace/C50/Huawei_IoT_Agent_Tiny_SDK_Linux//lwm2m/core/bootstrap.c **** }
 308:/home/baikal/workspace/C50/Huawei_IoT_Agent_Tiny_SDK_Linux//lwm2m/core/bootstrap.c **** 
 309:/home/baikal/workspace/C50/Huawei_IoT_Agent_Tiny_SDK_Linux//lwm2m/core/bootstrap.c **** /*
 310:/home/baikal/workspace/C50/Huawei_IoT_Agent_Tiny_SDK_Linux//lwm2m/core/bootstrap.c ****  * Returns STATE_BS_PENDING if at least one bootstrap is still pending
 311:/home/baikal/workspace/C50/Huawei_IoT_Agent_Tiny_SDK_Linux//lwm2m/core/bootstrap.c ****  * Returns STATE_BS_FINISHED if at least one bootstrap succeeded and no bootstrap is pending
 312:/home/baikal/workspace/C50/Huawei_IoT_Agent_Tiny_SDK_Linux//lwm2m/core/bootstrap.c ****  * Returns STATE_BS_FAILED if all bootstrap failed.
 313:/home/baikal/workspace/C50/Huawei_IoT_Agent_Tiny_SDK_Linux//lwm2m/core/bootstrap.c ****  */
 314:/home/baikal/workspace/C50/Huawei_IoT_Agent_Tiny_SDK_Linux//lwm2m/core/bootstrap.c **** lwm2m_status_t bootstrap_getStatus(lwm2m_context_t *contextP)
 315:/home/baikal/workspace/C50/Huawei_IoT_Agent_Tiny_SDK_Linux//lwm2m/core/bootstrap.c **** {
 316:/home/baikal/workspace/C50/Huawei_IoT_Agent_Tiny_SDK_Linux//lwm2m/core/bootstrap.c ****     lwm2m_server_t *targetP;
 317:/home/baikal/workspace/C50/Huawei_IoT_Agent_Tiny_SDK_Linux//lwm2m/core/bootstrap.c ****     lwm2m_status_t bs_status;
 318:/home/baikal/workspace/C50/Huawei_IoT_Agent_Tiny_SDK_Linux//lwm2m/core/bootstrap.c **** 
 319:/home/baikal/workspace/C50/Huawei_IoT_Agent_Tiny_SDK_Linux//lwm2m/core/bootstrap.c ****     LOG("Entering");
 320:/home/baikal/workspace/C50/Huawei_IoT_Agent_Tiny_SDK_Linux//lwm2m/core/bootstrap.c ****     targetP = contextP->bootstrapServerList;
 321:/home/baikal/workspace/C50/Huawei_IoT_Agent_Tiny_SDK_Linux//lwm2m/core/bootstrap.c ****     bs_status = STATE_BS_FAILED;
 322:/home/baikal/workspace/C50/Huawei_IoT_Agent_Tiny_SDK_Linux//lwm2m/core/bootstrap.c **** 
 323:/home/baikal/workspace/C50/Huawei_IoT_Agent_Tiny_SDK_Linux//lwm2m/core/bootstrap.c ****     while (targetP != NULL)
 324:/home/baikal/workspace/C50/Huawei_IoT_Agent_Tiny_SDK_Linux//lwm2m/core/bootstrap.c ****     {
 325:/home/baikal/workspace/C50/Huawei_IoT_Agent_Tiny_SDK_Linux//lwm2m/core/bootstrap.c ****         switch (targetP->status)
 326:/home/baikal/workspace/C50/Huawei_IoT_Agent_Tiny_SDK_Linux//lwm2m/core/bootstrap.c ****         {
 327:/home/baikal/workspace/C50/Huawei_IoT_Agent_Tiny_SDK_Linux//lwm2m/core/bootstrap.c ****         case STATE_BS_FINISHED:
 328:/home/baikal/workspace/C50/Huawei_IoT_Agent_Tiny_SDK_Linux//lwm2m/core/bootstrap.c ****             if (bs_status == STATE_BS_FAILED)
 329:/home/baikal/workspace/C50/Huawei_IoT_Agent_Tiny_SDK_Linux//lwm2m/core/bootstrap.c ****             {
 330:/home/baikal/workspace/C50/Huawei_IoT_Agent_Tiny_SDK_Linux//lwm2m/core/bootstrap.c ****                 bs_status = STATE_BS_FINISHED;
 331:/home/baikal/workspace/C50/Huawei_IoT_Agent_Tiny_SDK_Linux//lwm2m/core/bootstrap.c ****             }
 332:/home/baikal/workspace/C50/Huawei_IoT_Agent_Tiny_SDK_Linux//lwm2m/core/bootstrap.c ****             break;
 333:/home/baikal/workspace/C50/Huawei_IoT_Agent_Tiny_SDK_Linux//lwm2m/core/bootstrap.c **** 
 334:/home/baikal/workspace/C50/Huawei_IoT_Agent_Tiny_SDK_Linux//lwm2m/core/bootstrap.c ****         case STATE_BS_HOLD_OFF:
 335:/home/baikal/workspace/C50/Huawei_IoT_Agent_Tiny_SDK_Linux//lwm2m/core/bootstrap.c ****         case STATE_BS_INITIATED:
GAS LISTING /tmp/ccFIbPhJ.s 			page 7


 336:/home/baikal/workspace/C50/Huawei_IoT_Agent_Tiny_SDK_Linux//lwm2m/core/bootstrap.c ****         case STATE_BS_PENDING:
 337:/home/baikal/workspace/C50/Huawei_IoT_Agent_Tiny_SDK_Linux//lwm2m/core/bootstrap.c ****         case STATE_BS_FINISHING:
 338:/home/baikal/workspace/C50/Huawei_IoT_Agent_Tiny_SDK_Linux//lwm2m/core/bootstrap.c ****         case STATE_BS_FAILING:
 339:/home/baikal/workspace/C50/Huawei_IoT_Agent_Tiny_SDK_Linux//lwm2m/core/bootstrap.c ****             bs_status = STATE_BS_PENDING;
 340:/home/baikal/workspace/C50/Huawei_IoT_Agent_Tiny_SDK_Linux//lwm2m/core/bootstrap.c ****             break;
 341:/home/baikal/workspace/C50/Huawei_IoT_Agent_Tiny_SDK_Linux//lwm2m/core/bootstrap.c **** 
 342:/home/baikal/workspace/C50/Huawei_IoT_Agent_Tiny_SDK_Linux//lwm2m/core/bootstrap.c ****         default:
 343:/home/baikal/workspace/C50/Huawei_IoT_Agent_Tiny_SDK_Linux//lwm2m/core/bootstrap.c ****             break;
 344:/home/baikal/workspace/C50/Huawei_IoT_Agent_Tiny_SDK_Linux//lwm2m/core/bootstrap.c ****         }
 345:/home/baikal/workspace/C50/Huawei_IoT_Agent_Tiny_SDK_Linux//lwm2m/core/bootstrap.c ****         targetP = targetP->next;
 346:/home/baikal/workspace/C50/Huawei_IoT_Agent_Tiny_SDK_Linux//lwm2m/core/bootstrap.c ****     }
 347:/home/baikal/workspace/C50/Huawei_IoT_Agent_Tiny_SDK_Linux//lwm2m/core/bootstrap.c **** 
 348:/home/baikal/workspace/C50/Huawei_IoT_Agent_Tiny_SDK_Linux//lwm2m/core/bootstrap.c ****     LOG_ARG("Returned status: %s", STR_STATUS(bs_status));
 349:/home/baikal/workspace/C50/Huawei_IoT_Agent_Tiny_SDK_Linux//lwm2m/core/bootstrap.c **** 
 350:/home/baikal/workspace/C50/Huawei_IoT_Agent_Tiny_SDK_Linux//lwm2m/core/bootstrap.c ****     return bs_status;
 351:/home/baikal/workspace/C50/Huawei_IoT_Agent_Tiny_SDK_Linux//lwm2m/core/bootstrap.c **** }
 352:/home/baikal/workspace/C50/Huawei_IoT_Agent_Tiny_SDK_Linux//lwm2m/core/bootstrap.c **** 
 353:/home/baikal/workspace/C50/Huawei_IoT_Agent_Tiny_SDK_Linux//lwm2m/core/bootstrap.c **** static uint8_t prv_checkServerStatus(lwm2m_server_t *serverP)
 354:/home/baikal/workspace/C50/Huawei_IoT_Agent_Tiny_SDK_Linux//lwm2m/core/bootstrap.c **** {
 355:/home/baikal/workspace/C50/Huawei_IoT_Agent_Tiny_SDK_Linux//lwm2m/core/bootstrap.c ****     LOG_ARG("Initial status: %s", STR_STATUS(serverP->status));
 356:/home/baikal/workspace/C50/Huawei_IoT_Agent_Tiny_SDK_Linux//lwm2m/core/bootstrap.c **** 
 357:/home/baikal/workspace/C50/Huawei_IoT_Agent_Tiny_SDK_Linux//lwm2m/core/bootstrap.c ****     switch (serverP->status)
 358:/home/baikal/workspace/C50/Huawei_IoT_Agent_Tiny_SDK_Linux//lwm2m/core/bootstrap.c ****     {
 359:/home/baikal/workspace/C50/Huawei_IoT_Agent_Tiny_SDK_Linux//lwm2m/core/bootstrap.c ****     case STATE_BS_HOLD_OFF:
 360:/home/baikal/workspace/C50/Huawei_IoT_Agent_Tiny_SDK_Linux//lwm2m/core/bootstrap.c ****         serverP->status = STATE_BS_PENDING;
 361:/home/baikal/workspace/C50/Huawei_IoT_Agent_Tiny_SDK_Linux//lwm2m/core/bootstrap.c ****         LOG_ARG("Status changed to: %s", STR_STATUS(serverP->status));
 362:/home/baikal/workspace/C50/Huawei_IoT_Agent_Tiny_SDK_Linux//lwm2m/core/bootstrap.c ****         break;
 363:/home/baikal/workspace/C50/Huawei_IoT_Agent_Tiny_SDK_Linux//lwm2m/core/bootstrap.c **** 
 364:/home/baikal/workspace/C50/Huawei_IoT_Agent_Tiny_SDK_Linux//lwm2m/core/bootstrap.c ****     case STATE_BS_INITIATED:
 365:/home/baikal/workspace/C50/Huawei_IoT_Agent_Tiny_SDK_Linux//lwm2m/core/bootstrap.c ****         // The ACK was probably lost
 366:/home/baikal/workspace/C50/Huawei_IoT_Agent_Tiny_SDK_Linux//lwm2m/core/bootstrap.c ****         serverP->status = STATE_BS_PENDING;
 367:/home/baikal/workspace/C50/Huawei_IoT_Agent_Tiny_SDK_Linux//lwm2m/core/bootstrap.c ****         LOG_ARG("Status changed to: %s", STR_STATUS(serverP->status));
 368:/home/baikal/workspace/C50/Huawei_IoT_Agent_Tiny_SDK_Linux//lwm2m/core/bootstrap.c ****         break;
 369:/home/baikal/workspace/C50/Huawei_IoT_Agent_Tiny_SDK_Linux//lwm2m/core/bootstrap.c **** 
 370:/home/baikal/workspace/C50/Huawei_IoT_Agent_Tiny_SDK_Linux//lwm2m/core/bootstrap.c ****     case STATE_DEREGISTERED:
 371:/home/baikal/workspace/C50/Huawei_IoT_Agent_Tiny_SDK_Linux//lwm2m/core/bootstrap.c ****     // server initiated bootstrap
 372:/home/baikal/workspace/C50/Huawei_IoT_Agent_Tiny_SDK_Linux//lwm2m/core/bootstrap.c ****     case STATE_BS_PENDING:
 373:/home/baikal/workspace/C50/Huawei_IoT_Agent_Tiny_SDK_Linux//lwm2m/core/bootstrap.c ****         serverP->registration = lwm2m_gettime() + COAP_EXCHANGE_LIFETIME;
 374:/home/baikal/workspace/C50/Huawei_IoT_Agent_Tiny_SDK_Linux//lwm2m/core/bootstrap.c ****         break;
 375:/home/baikal/workspace/C50/Huawei_IoT_Agent_Tiny_SDK_Linux//lwm2m/core/bootstrap.c **** 
 376:/home/baikal/workspace/C50/Huawei_IoT_Agent_Tiny_SDK_Linux//lwm2m/core/bootstrap.c ****     case STATE_BS_FINISHED:
 377:/home/baikal/workspace/C50/Huawei_IoT_Agent_Tiny_SDK_Linux//lwm2m/core/bootstrap.c ****     case STATE_BS_FINISHING:
 378:/home/baikal/workspace/C50/Huawei_IoT_Agent_Tiny_SDK_Linux//lwm2m/core/bootstrap.c ****     case STATE_BS_FAILING:
 379:/home/baikal/workspace/C50/Huawei_IoT_Agent_Tiny_SDK_Linux//lwm2m/core/bootstrap.c ****     case STATE_BS_FAILED:
 380:/home/baikal/workspace/C50/Huawei_IoT_Agent_Tiny_SDK_Linux//lwm2m/core/bootstrap.c ****     default:
 381:/home/baikal/workspace/C50/Huawei_IoT_Agent_Tiny_SDK_Linux//lwm2m/core/bootstrap.c ****         LOG("Returning COAP_IGNORE");
 382:/home/baikal/workspace/C50/Huawei_IoT_Agent_Tiny_SDK_Linux//lwm2m/core/bootstrap.c ****         return COAP_IGNORE;
 383:/home/baikal/workspace/C50/Huawei_IoT_Agent_Tiny_SDK_Linux//lwm2m/core/bootstrap.c ****     }
 384:/home/baikal/workspace/C50/Huawei_IoT_Agent_Tiny_SDK_Linux//lwm2m/core/bootstrap.c **** 
 385:/home/baikal/workspace/C50/Huawei_IoT_Agent_Tiny_SDK_Linux//lwm2m/core/bootstrap.c ****     return COAP_NO_ERROR;
 386:/home/baikal/workspace/C50/Huawei_IoT_Agent_Tiny_SDK_Linux//lwm2m/core/bootstrap.c **** }
 387:/home/baikal/workspace/C50/Huawei_IoT_Agent_Tiny_SDK_Linux//lwm2m/core/bootstrap.c **** 
 388:/home/baikal/workspace/C50/Huawei_IoT_Agent_Tiny_SDK_Linux//lwm2m/core/bootstrap.c **** static void prv_tagServer(lwm2m_context_t *contextP,
 389:/home/baikal/workspace/C50/Huawei_IoT_Agent_Tiny_SDK_Linux//lwm2m/core/bootstrap.c ****                           uint16_t id)
 390:/home/baikal/workspace/C50/Huawei_IoT_Agent_Tiny_SDK_Linux//lwm2m/core/bootstrap.c **** {
 391:/home/baikal/workspace/C50/Huawei_IoT_Agent_Tiny_SDK_Linux//lwm2m/core/bootstrap.c ****     lwm2m_server_t *targetP;
 392:/home/baikal/workspace/C50/Huawei_IoT_Agent_Tiny_SDK_Linux//lwm2m/core/bootstrap.c **** 
GAS LISTING /tmp/ccFIbPhJ.s 			page 8


 393:/home/baikal/workspace/C50/Huawei_IoT_Agent_Tiny_SDK_Linux//lwm2m/core/bootstrap.c ****     targetP = (lwm2m_server_t *)LWM2M_LIST_FIND(contextP->bootstrapServerList, id);
 394:/home/baikal/workspace/C50/Huawei_IoT_Agent_Tiny_SDK_Linux//lwm2m/core/bootstrap.c ****     if (targetP == NULL)
 395:/home/baikal/workspace/C50/Huawei_IoT_Agent_Tiny_SDK_Linux//lwm2m/core/bootstrap.c ****     {
 396:/home/baikal/workspace/C50/Huawei_IoT_Agent_Tiny_SDK_Linux//lwm2m/core/bootstrap.c ****         targetP = (lwm2m_server_t *)LWM2M_LIST_FIND(contextP->serverList, id);
 397:/home/baikal/workspace/C50/Huawei_IoT_Agent_Tiny_SDK_Linux//lwm2m/core/bootstrap.c ****     }
 398:/home/baikal/workspace/C50/Huawei_IoT_Agent_Tiny_SDK_Linux//lwm2m/core/bootstrap.c ****     if (targetP != NULL)
 399:/home/baikal/workspace/C50/Huawei_IoT_Agent_Tiny_SDK_Linux//lwm2m/core/bootstrap.c ****     {
 400:/home/baikal/workspace/C50/Huawei_IoT_Agent_Tiny_SDK_Linux//lwm2m/core/bootstrap.c ****         targetP->dirty = true;
 401:/home/baikal/workspace/C50/Huawei_IoT_Agent_Tiny_SDK_Linux//lwm2m/core/bootstrap.c ****     }
 402:/home/baikal/workspace/C50/Huawei_IoT_Agent_Tiny_SDK_Linux//lwm2m/core/bootstrap.c **** }
 403:/home/baikal/workspace/C50/Huawei_IoT_Agent_Tiny_SDK_Linux//lwm2m/core/bootstrap.c **** 
 404:/home/baikal/workspace/C50/Huawei_IoT_Agent_Tiny_SDK_Linux//lwm2m/core/bootstrap.c **** static void prv_tagAllServer(lwm2m_context_t *contextP,
 405:/home/baikal/workspace/C50/Huawei_IoT_Agent_Tiny_SDK_Linux//lwm2m/core/bootstrap.c ****                              lwm2m_server_t *serverP)
 406:/home/baikal/workspace/C50/Huawei_IoT_Agent_Tiny_SDK_Linux//lwm2m/core/bootstrap.c **** {
   9              		.loc 1 406 0
  10              		.cfi_startproc
  11              	.LVL0:
 407:/home/baikal/workspace/C50/Huawei_IoT_Agent_Tiny_SDK_Linux//lwm2m/core/bootstrap.c ****     lwm2m_server_t *targetP;
 408:/home/baikal/workspace/C50/Huawei_IoT_Agent_Tiny_SDK_Linux//lwm2m/core/bootstrap.c **** 
 409:/home/baikal/workspace/C50/Huawei_IoT_Agent_Tiny_SDK_Linux//lwm2m/core/bootstrap.c ****     targetP = contextP->bootstrapServerList;
  12              		.loc 1 409 0
  13 0000 488B4728 		movq	40(%rdi), %rax
  14              	.LVL1:
 410:/home/baikal/workspace/C50/Huawei_IoT_Agent_Tiny_SDK_Linux//lwm2m/core/bootstrap.c ****     while (targetP != NULL)
  15              		.loc 1 410 0
  16 0004 EB0C     		jmp	.L2
  17              	.L4:
 411:/home/baikal/workspace/C50/Huawei_IoT_Agent_Tiny_SDK_Linux//lwm2m/core/bootstrap.c ****     {
 412:/home/baikal/workspace/C50/Huawei_IoT_Agent_Tiny_SDK_Linux//lwm2m/core/bootstrap.c ****         if (targetP != serverP)
  18              		.loc 1 412 0
  19 0006 4839F0   		cmpq	%rsi, %rax
  20 0009 7404     		je	.L3
 413:/home/baikal/workspace/C50/Huawei_IoT_Agent_Tiny_SDK_Linux//lwm2m/core/bootstrap.c ****         {
 414:/home/baikal/workspace/C50/Huawei_IoT_Agent_Tiny_SDK_Linux//lwm2m/core/bootstrap.c ****             targetP->dirty = true;
  21              		.loc 1 414 0
  22 000b C6404001 		movb	$1, 64(%rax)
  23              	.L3:
 415:/home/baikal/workspace/C50/Huawei_IoT_Agent_Tiny_SDK_Linux//lwm2m/core/bootstrap.c ****         }
 416:/home/baikal/workspace/C50/Huawei_IoT_Agent_Tiny_SDK_Linux//lwm2m/core/bootstrap.c ****         targetP = targetP->next;
  24              		.loc 1 416 0
  25 000f 488B00   		movq	(%rax), %rax
  26              	.LVL2:
  27              	.L2:
 410:/home/baikal/workspace/C50/Huawei_IoT_Agent_Tiny_SDK_Linux//lwm2m/core/bootstrap.c ****     {
  28              		.loc 1 410 0
  29 0012 4885C0   		testq	%rax, %rax
  30 0015 75EF     		jne	.L4
 417:/home/baikal/workspace/C50/Huawei_IoT_Agent_Tiny_SDK_Linux//lwm2m/core/bootstrap.c ****     }
 418:/home/baikal/workspace/C50/Huawei_IoT_Agent_Tiny_SDK_Linux//lwm2m/core/bootstrap.c ****     targetP = contextP->serverList;
  31              		.loc 1 418 0
  32 0017 488B4730 		movq	48(%rdi), %rax
  33              	.LVL3:
 419:/home/baikal/workspace/C50/Huawei_IoT_Agent_Tiny_SDK_Linux//lwm2m/core/bootstrap.c ****     while (targetP != NULL)
  34              		.loc 1 419 0
  35 001b EB07     		jmp	.L5
  36              	.L6:
 420:/home/baikal/workspace/C50/Huawei_IoT_Agent_Tiny_SDK_Linux//lwm2m/core/bootstrap.c ****     {
GAS LISTING /tmp/ccFIbPhJ.s 			page 9


 421:/home/baikal/workspace/C50/Huawei_IoT_Agent_Tiny_SDK_Linux//lwm2m/core/bootstrap.c ****         targetP->dirty = true;
  37              		.loc 1 421 0
  38 001d C6404001 		movb	$1, 64(%rax)
 422:/home/baikal/workspace/C50/Huawei_IoT_Agent_Tiny_SDK_Linux//lwm2m/core/bootstrap.c ****         targetP = targetP->next;
  39              		.loc 1 422 0
  40 0021 488B00   		movq	(%rax), %rax
  41              	.LVL4:
  42              	.L5:
 419:/home/baikal/workspace/C50/Huawei_IoT_Agent_Tiny_SDK_Linux//lwm2m/core/bootstrap.c ****     while (targetP != NULL)
  43              		.loc 1 419 0
  44 0024 4885C0   		testq	%rax, %rax
  45 0027 75F4     		jne	.L6
 423:/home/baikal/workspace/C50/Huawei_IoT_Agent_Tiny_SDK_Linux//lwm2m/core/bootstrap.c ****     }
 424:/home/baikal/workspace/C50/Huawei_IoT_Agent_Tiny_SDK_Linux//lwm2m/core/bootstrap.c **** }
  46              		.loc 1 424 0
  47 0029 F3C3     		rep ret
  48              		.cfi_endproc
  49              	.LFE72:
  51              		.section	.rodata.str1.1,"aMS",@progbits,1
  52              	.LC0:
  53 0000 3F65703D 		.string	"?ep="
  53      00
  54              	.LC1:
  55 0005 2F627300 		.string	"/bs"
  56              		.section	.text.prv_requestBootstrap,"ax",@progbits
  58              	prv_requestBootstrap:
  59              	.LFB65:
  71:/home/baikal/workspace/C50/Huawei_IoT_Agent_Tiny_SDK_Linux//lwm2m/core/bootstrap.c ****     char query[PRV_QUERY_BUFFER_LENGTH];
  60              		.loc 1 71 0
  61              		.cfi_startproc
  62              	.LVL5:
  63 0000 4154     		pushq	%r12
  64              	.LCFI0:
  65              		.cfi_def_cfa_offset 16
  66              		.cfi_offset 12, -16
  67 0002 55       		pushq	%rbp
  68              	.LCFI1:
  69              		.cfi_def_cfa_offset 24
  70              		.cfi_offset 6, -24
  71 0003 53       		pushq	%rbx
  72              	.LCFI2:
  73              		.cfi_def_cfa_offset 32
  74              		.cfi_offset 3, -32
  75 0004 4881ECD0 		subq	$208, %rsp
  75      000000
  76              	.LCFI3:
  77              		.cfi_def_cfa_offset 240
  78 000b 4889FD   		movq	%rdi, %rbp
  79 000e 4889F3   		movq	%rsi, %rbx
  80              	.LVL6:
  78:/home/baikal/workspace/C50/Huawei_IoT_Agent_Tiny_SDK_Linux//lwm2m/core/bootstrap.c ****     if (query_length < 0)
  81              		.loc 1 78 0
  82 0011 BA000000 		movl	$.LC0, %edx
  82      00
  83 0016 BEC80000 		movl	$200, %esi
  83      00
  84              	.LVL7:
GAS LISTING /tmp/ccFIbPhJ.s 			page 10


  85 001b 4889E7   		movq	%rsp, %rdi
  86              	.LVL8:
  87 001e E8000000 		call	utils_stringCopy
  87      00
  88              	.LVL9:
  79:/home/baikal/workspace/C50/Huawei_IoT_Agent_Tiny_SDK_Linux//lwm2m/core/bootstrap.c ****     {
  89              		.loc 1 79 0
  90 0023 85C0     		testl	%eax, %eax
  91 0025 790C     		jns	.L8
  81:/home/baikal/workspace/C50/Huawei_IoT_Agent_Tiny_SDK_Linux//lwm2m/core/bootstrap.c ****         return;
  92              		.loc 1 81 0
  93 0027 C743300D 		movl	$13, 48(%rbx)
  93      000000
  82:/home/baikal/workspace/C50/Huawei_IoT_Agent_Tiny_SDK_Linux//lwm2m/core/bootstrap.c ****     }
  94              		.loc 1 82 0
  95 002e E9F30000 		jmp	.L7
  95      00
  96              	.L8:
  84:/home/baikal/workspace/C50/Huawei_IoT_Agent_Tiny_SDK_Linux//lwm2m/core/bootstrap.c ****     if (res < 0)
  97              		.loc 1 84 0
  98 0033 488B5510 		movq	16(%rbp), %rdx
  99 0037 BEC80000 		movl	$200, %esi
  99      00
 100 003c 29C6     		subl	%eax, %esi
 101 003e 4863F6   		movslq	%esi, %rsi
 102 0041 4898     		cltq
 103 0043 488D3C04 		leaq	(%rsp,%rax), %rdi
 104 0047 E8000000 		call	utils_stringCopy
 104      00
 105              	.LVL10:
  85:/home/baikal/workspace/C50/Huawei_IoT_Agent_Tiny_SDK_Linux//lwm2m/core/bootstrap.c ****     {
 106              		.loc 1 85 0
 107 004c 85C0     		testl	%eax, %eax
 108 004e 790C     		jns	.L10
  87:/home/baikal/workspace/C50/Huawei_IoT_Agent_Tiny_SDK_Linux//lwm2m/core/bootstrap.c ****         return;
 109              		.loc 1 87 0
 110 0050 C743300D 		movl	$13, 48(%rbx)
 110      000000
  88:/home/baikal/workspace/C50/Huawei_IoT_Agent_Tiny_SDK_Linux//lwm2m/core/bootstrap.c ****     }
 111              		.loc 1 88 0
 112 0057 E9CA0000 		jmp	.L7
 112      00
 113              	.L10:
  92:/home/baikal/workspace/C50/Huawei_IoT_Agent_Tiny_SDK_Linux//lwm2m/core/bootstrap.c ****     {
 114              		.loc 1 92 0
 115 005c 48837B28 		cmpq	$0, 40(%rbx)
 115      00
 116 0061 7516     		jne	.L11
  94:/home/baikal/workspace/C50/Huawei_IoT_Agent_Tiny_SDK_Linux//lwm2m/core/bootstrap.c ****     }
 117              		.loc 1 94 0
 118 0063 488B7560 		movq	96(%rbp), %rsi
 119 0067 0FB77B08 		movzwl	8(%rbx), %edi
 120 006b BA010000 		movl	$1, %edx
 120      00
 121 0070 E8000000 		call	lwm2m_connect_server
 121      00
 122              	.LVL11:
GAS LISTING /tmp/ccFIbPhJ.s 			page 11


 123 0075 48894328 		movq	%rax, 40(%rbx)
 124              	.L11:
  97:/home/baikal/workspace/C50/Huawei_IoT_Agent_Tiny_SDK_Linux//lwm2m/core/bootstrap.c ****     {
 125              		.loc 1 97 0
 126 0079 48837B28 		cmpq	$0, 40(%rbx)
 126      00
 127 007e 0F849B00 		je	.L12
 127      0000
 128              	.LVL12:
 129              	.LBB6:
 103:/home/baikal/workspace/C50/Huawei_IoT_Agent_Tiny_SDK_Linux//lwm2m/core/bootstrap.c ****         if (transaction == NULL)
 130              		.loc 1 103 0
 131 0084 440FB745 		movzwl	80(%rbp), %r8d
 131      50
 132 0089 418D4001 		leal	1(%r8), %eax
 133 008d 66894550 		movw	%ax, 80(%rbp)
 134 0091 488B7B28 		movq	40(%rbx), %rdi
 135 0095 4883EC08 		subq	$8, %rsp
 136              	.LCFI4:
 137              		.cfi_def_cfa_offset 248
 138 0099 6A00     		pushq	$0
 139              	.LCFI5:
 140              		.cfi_def_cfa_offset 256
 141 009b 41B90400 		movl	$4, %r9d
 141      0000
 142 00a1 450FB7C0 		movzwl	%r8w, %r8d
 143 00a5 B9000000 		movl	$0, %ecx
 143      00
 144 00aa BA000000 		movl	$0, %edx
 144      00
 145 00af BE020000 		movl	$2, %esi
 145      00
 146 00b4 E8000000 		call	transaction_new
 146      00
 147              	.LVL13:
 148 00b9 4989C4   		movq	%rax, %r12
 149              	.LVL14:
 104:/home/baikal/workspace/C50/Huawei_IoT_Agent_Tiny_SDK_Linux//lwm2m/core/bootstrap.c ****         {
 150              		.loc 1 104 0
 151 00bc 4883C410 		addq	$16, %rsp
 152              	.LCFI6:
 153              		.cfi_def_cfa_offset 240
 154 00c0 4885C0   		testq	%rax, %rax
 155 00c3 7509     		jne	.L13
 106:/home/baikal/workspace/C50/Huawei_IoT_Agent_Tiny_SDK_Linux//lwm2m/core/bootstrap.c ****             return;
 156              		.loc 1 106 0
 157 00c5 C743300D 		movl	$13, 48(%rbx)
 157      000000
 107:/home/baikal/workspace/C50/Huawei_IoT_Agent_Tiny_SDK_Linux//lwm2m/core/bootstrap.c ****         }
 158              		.loc 1 107 0
 159 00cc EB58     		jmp	.L7
 160              	.L13:
 110:/home/baikal/workspace/C50/Huawei_IoT_Agent_Tiny_SDK_Linux//lwm2m/core/bootstrap.c ****         coap_set_header_uri_query(transaction->message, query);
 161              		.loc 1 110 0
 162 00ce 488B7838 		movq	56(%rax), %rdi
 163 00d2 BE000000 		movl	$.LC1, %esi
 163      00
GAS LISTING /tmp/ccFIbPhJ.s 			page 12


 164 00d7 E8000000 		call	coap_set_header_uri_path
 164      00
 165              	.LVL15:
 111:/home/baikal/workspace/C50/Huawei_IoT_Agent_Tiny_SDK_Linux//lwm2m/core/bootstrap.c ****         transaction->callback = prv_handleBootstrapReply;
 166              		.loc 1 111 0
 167 00dc 498B7C24 		movq	56(%r12), %rdi
 167      38
 168 00e1 4889E6   		movq	%rsp, %rsi
 169 00e4 E8000000 		call	coap_set_header_uri_query
 169      00
 170              	.LVL16:
 112:/home/baikal/workspace/C50/Huawei_IoT_Agent_Tiny_SDK_Linux//lwm2m/core/bootstrap.c ****         transaction->userData = (void *)bootstrapServer;
 171              		.loc 1 112 0
 172 00e9 49C74424 		movq	$prv_handleBootstrapReply, 96(%r12)
 172      60000000 
 172      00
 113:/home/baikal/workspace/C50/Huawei_IoT_Agent_Tiny_SDK_Linux//lwm2m/core/bootstrap.c ****         context->transactionList = (lwm2m_transaction_t *)LWM2M_LIST_ADD(context->transactionList, 
 173              		.loc 1 113 0
 174 00f2 49895C24 		movq	%rbx, 104(%r12)
 174      68
 114:/home/baikal/workspace/C50/Huawei_IoT_Agent_Tiny_SDK_Linux//lwm2m/core/bootstrap.c ****         if (transaction_send(context, transaction) == 0)
 175              		.loc 1 114 0
 176 00f7 488B7D58 		movq	88(%rbp), %rdi
 177 00fb 4C89E6   		movq	%r12, %rsi
 178 00fe E8000000 		call	lwm2m_list_add
 178      00
 179              	.LVL17:
 180 0103 48894558 		movq	%rax, 88(%rbp)
 115:/home/baikal/workspace/C50/Huawei_IoT_Agent_Tiny_SDK_Linux//lwm2m/core/bootstrap.c ****         {
 181              		.loc 1 115 0
 182 0107 4C89E6   		movq	%r12, %rsi
 183 010a 4889EF   		movq	%rbp, %rdi
 184 010d E8000000 		call	transaction_send
 184      00
 185              	.LVL18:
 186 0112 85C0     		testl	%eax, %eax
 187 0114 7510     		jne	.L7
 118:/home/baikal/workspace/C50/Huawei_IoT_Agent_Tiny_SDK_Linux//lwm2m/core/bootstrap.c ****         }
 188              		.loc 1 118 0
 189 0116 C7433009 		movl	$9, 48(%rbx)
 189      000000
 190 011d EB07     		jmp	.L7
 191              	.LVL19:
 192              	.L12:
 193              	.LBE6:
 124:/home/baikal/workspace/C50/Huawei_IoT_Agent_Tiny_SDK_Linux//lwm2m/core/bootstrap.c ****     }
 194              		.loc 1 124 0
 195 011f C743300E 		movl	$14, 48(%rbx)
 195      000000
 196              	.L7:
 126:/home/baikal/workspace/C50/Huawei_IoT_Agent_Tiny_SDK_Linux//lwm2m/core/bootstrap.c **** 
 197              		.loc 1 126 0
 198 0126 4881C4D0 		addq	$208, %rsp
 198      000000
 199              	.LCFI7:
 200              		.cfi_def_cfa_offset 32
 201 012d 5B       		popq	%rbx
GAS LISTING /tmp/ccFIbPhJ.s 			page 13


 202              	.LCFI8:
 203              		.cfi_def_cfa_offset 24
 204              	.LVL20:
 205 012e 5D       		popq	%rbp
 206              	.LCFI9:
 207              		.cfi_def_cfa_offset 16
 208              	.LVL21:
 209 012f 415C     		popq	%r12
 210              	.LCFI10:
 211              		.cfi_def_cfa_offset 8
 212 0131 C3       		ret
 213              		.cfi_endproc
 214              	.LFE65:
 216              		.section	.text.prv_handleResponse,"ax",@progbits
 218              	prv_handleResponse:
 219              	.LFB63:
  34:/home/baikal/workspace/C50/Huawei_IoT_Agent_Tiny_SDK_Linux//lwm2m/core/bootstrap.c ****     if (COAP_204_CHANGED == message->code)
 220              		.loc 1 34 0
 221              		.cfi_startproc
 222              	.LVL22:
  35:/home/baikal/workspace/C50/Huawei_IoT_Agent_Tiny_SDK_Linux//lwm2m/core/bootstrap.c ****     {
 223              		.loc 1 35 0
 224 0000 807E1044 		cmpb	$68, 16(%rsi)
 225 0004 752C     		jne	.L18
  34:/home/baikal/workspace/C50/Huawei_IoT_Agent_Tiny_SDK_Linux//lwm2m/core/bootstrap.c ****     if (COAP_204_CHANGED == message->code)
 226              		.loc 1 34 0
 227 0006 53       		pushq	%rbx
 228              	.LCFI11:
 229              		.cfi_def_cfa_offset 16
 230              		.cfi_offset 3, -16
 231 0007 4889FB   		movq	%rdi, %rbx
  38:/home/baikal/workspace/C50/Huawei_IoT_Agent_Tiny_SDK_Linux//lwm2m/core/bootstrap.c ****         bootstrapServer->registration = lwm2m_gettime() + COAP_EXCHANGE_LIFETIME;
 232              		.loc 1 38 0
 233 000a C747300A 		movl	$10, 48(%rdi)
 233      000000
  39:/home/baikal/workspace/C50/Huawei_IoT_Agent_Tiny_SDK_Linux//lwm2m/core/bootstrap.c ****     }
 234              		.loc 1 39 0
 235 0011 E8000000 		call	lwm2m_gettime
 235      00
 236              	.LVL23:
 237 0016 660FEFC0 		pxor	%xmm0, %xmm0
 238 001a F2480F2A 		cvtsi2sdq	%rax, %xmm0
 238      C0
 239 001f F20F5805 		addsd	.LC2(%rip), %xmm0
 239      00000000 
 240 0027 F2480F2C 		cvttsd2siq	%xmm0, %rax
 240      C0
 241 002c 48894318 		movq	%rax, 24(%rbx)
 242 0030 EB08     		jmp	.L17
 243              	.LVL24:
 244              	.L18:
 245              	.LCFI12:
 246              		.cfi_def_cfa_offset 8
 247              		.cfi_restore 3
  43:/home/baikal/workspace/C50/Huawei_IoT_Agent_Tiny_SDK_Linux//lwm2m/core/bootstrap.c ****     }
 248              		.loc 1 43 0
 249 0032 C747300D 		movl	$13, 48(%rdi)
GAS LISTING /tmp/ccFIbPhJ.s 			page 14


 249      000000
  45:/home/baikal/workspace/C50/Huawei_IoT_Agent_Tiny_SDK_Linux//lwm2m/core/bootstrap.c **** 
 250              		.loc 1 45 0
 251 0039 C3       		ret
 252              	.LVL25:
 253              	.L17:
 254              	.LCFI13:
 255              		.cfi_def_cfa_offset 16
 256              		.cfi_offset 3, -16
 257 003a 5B       		popq	%rbx
 258              	.LCFI14:
 259              		.cfi_restore 3
 260              		.cfi_def_cfa_offset 8
 261              	.LVL26:
 262 003b C3       		ret
 263              		.cfi_endproc
 264              	.LFE63:
 266              		.section	.text.prv_handleBootstrapReply,"ax",@progbits
 268              	prv_handleBootstrapReply:
 269              	.LFB64:
  49:/home/baikal/workspace/C50/Huawei_IoT_Agent_Tiny_SDK_Linux//lwm2m/core/bootstrap.c ****     lwm2m_server_t *bootstrapServer = (lwm2m_server_t *)transaction->userData;
 270              		.loc 1 49 0
 271              		.cfi_startproc
 272              	.LVL27:
  50:/home/baikal/workspace/C50/Huawei_IoT_Agent_Tiny_SDK_Linux//lwm2m/core/bootstrap.c ****     coap_packet_t *coapMessage = (coap_packet_t *)message;
 273              		.loc 1 50 0
 274 0000 488B7F68 		movq	104(%rdi), %rdi
 275              	.LVL28:
  55:/home/baikal/workspace/C50/Huawei_IoT_Agent_Tiny_SDK_Linux//lwm2m/core/bootstrap.c ****     {
 276              		.loc 1 55 0
 277 0004 837F3009 		cmpl	$9, 48(%rdi)
 278 0008 7522     		jne	.L27
  57:/home/baikal/workspace/C50/Huawei_IoT_Agent_Tiny_SDK_Linux//lwm2m/core/bootstrap.c ****         {
 279              		.loc 1 57 0
 280 000a 4885F6   		testq	%rsi, %rsi
 281 000d 7411     		je	.L24
  57:/home/baikal/workspace/C50/Huawei_IoT_Agent_Tiny_SDK_Linux//lwm2m/core/bootstrap.c ****         {
 282              		.loc 1 57 0 is_stmt 0 discriminator 1
 283 000f 837E0C03 		cmpl	$3, 12(%rsi)
 284 0013 740B     		je	.L24
  49:/home/baikal/workspace/C50/Huawei_IoT_Agent_Tiny_SDK_Linux//lwm2m/core/bootstrap.c ****     lwm2m_server_t *bootstrapServer = (lwm2m_server_t *)transaction->userData;
 285              		.loc 1 49 0 is_stmt 1
 286 0015 4883EC08 		subq	$8, %rsp
 287              	.LCFI15:
 288              		.cfi_def_cfa_offset 16
  59:/home/baikal/workspace/C50/Huawei_IoT_Agent_Tiny_SDK_Linux//lwm2m/core/bootstrap.c ****         }
 289              		.loc 1 59 0
 290 0019 E8000000 		call	prv_handleResponse
 290      00
 291              	.LVL29:
 292 001e EB08     		jmp	.L22
 293              	.LVL30:
 294              	.L24:
 295              	.LCFI16:
 296              		.cfi_def_cfa_offset 8
  63:/home/baikal/workspace/C50/Huawei_IoT_Agent_Tiny_SDK_Linux//lwm2m/core/bootstrap.c ****         }
 297              		.loc 1 63 0
GAS LISTING /tmp/ccFIbPhJ.s 			page 15


 298 0020 C747300D 		movl	$13, 48(%rdi)
 298      000000
  66:/home/baikal/workspace/C50/Huawei_IoT_Agent_Tiny_SDK_Linux//lwm2m/core/bootstrap.c **** 
 299              		.loc 1 66 0
 300 0027 C3       		ret
 301              	.LVL31:
 302              	.L22:
 303              	.LCFI17:
 304              		.cfi_def_cfa_offset 16
 305 0028 4883C408 		addq	$8, %rsp
 306              	.LCFI18:
 307              		.cfi_def_cfa_offset 8
 308              	.L27:
 309 002c F3C3     		rep ret
 310              		.cfi_endproc
 311              	.LFE64:
 313              		.section	.text.prv_checkServerStatus,"ax",@progbits
 315              	prv_checkServerStatus:
 316              	.LFB70:
 354:/home/baikal/workspace/C50/Huawei_IoT_Agent_Tiny_SDK_Linux//lwm2m/core/bootstrap.c ****     LOG_ARG("Initial status: %s", STR_STATUS(serverP->status));
 317              		.loc 1 354 0
 318              		.cfi_startproc
 319              	.LVL32:
 320 0000 53       		pushq	%rbx
 321              	.LCFI19:
 322              		.cfi_def_cfa_offset 16
 323              		.cfi_offset 3, -16
 357:/home/baikal/workspace/C50/Huawei_IoT_Agent_Tiny_SDK_Linux//lwm2m/core/bootstrap.c ****     {
 324              		.loc 1 357 0
 325 0001 8B4730   		movl	48(%rdi), %eax
 326 0004 83F808   		cmpl	$8, %eax
 327 0007 7417     		je	.L30
 328 0009 83F808   		cmpl	$8, %eax
 329 000c 7706     		ja	.L31
 330 000e 85C0     		testl	%eax, %eax
 331 0010 742A     		je	.L32
 332 0012 EB51     		jmp	.L34
 333              	.L31:
 334 0014 83F809   		cmpl	$9, %eax
 335 0017 7415     		je	.L33
 336 0019 83F80A   		cmpl	$10, %eax
 337 001c 741E     		je	.L32
 338 001e EB45     		jmp	.L34
 339              	.L30:
 360:/home/baikal/workspace/C50/Huawei_IoT_Agent_Tiny_SDK_Linux//lwm2m/core/bootstrap.c ****         LOG_ARG("Status changed to: %s", STR_STATUS(serverP->status));
 340              		.loc 1 360 0
 341 0020 C747300A 		movl	$10, 48(%rdi)
 341      000000
 385:/home/baikal/workspace/C50/Huawei_IoT_Agent_Tiny_SDK_Linux//lwm2m/core/bootstrap.c **** }
 342              		.loc 1 385 0
 343 0027 B8000000 		movl	$0, %eax
 343      00
 362:/home/baikal/workspace/C50/Huawei_IoT_Agent_Tiny_SDK_Linux//lwm2m/core/bootstrap.c **** 
 344              		.loc 1 362 0
 345 002c EB3C     		jmp	.L29
 346              	.L33:
 366:/home/baikal/workspace/C50/Huawei_IoT_Agent_Tiny_SDK_Linux//lwm2m/core/bootstrap.c ****         LOG_ARG("Status changed to: %s", STR_STATUS(serverP->status));
GAS LISTING /tmp/ccFIbPhJ.s 			page 16


 347              		.loc 1 366 0
 348 002e C747300A 		movl	$10, 48(%rdi)
 348      000000
 385:/home/baikal/workspace/C50/Huawei_IoT_Agent_Tiny_SDK_Linux//lwm2m/core/bootstrap.c **** }
 349              		.loc 1 385 0
 350 0035 B8000000 		movl	$0, %eax
 350      00
 368:/home/baikal/workspace/C50/Huawei_IoT_Agent_Tiny_SDK_Linux//lwm2m/core/bootstrap.c **** 
 351              		.loc 1 368 0
 352 003a EB2E     		jmp	.L29
 353              	.L32:
 354 003c 4889FB   		movq	%rdi, %rbx
 373:/home/baikal/workspace/C50/Huawei_IoT_Agent_Tiny_SDK_Linux//lwm2m/core/bootstrap.c ****         break;
 355              		.loc 1 373 0
 356 003f E8000000 		call	lwm2m_gettime
 356      00
 357              	.LVL33:
 358 0044 660FEFC0 		pxor	%xmm0, %xmm0
 359 0048 F2480F2A 		cvtsi2sdq	%rax, %xmm0
 359      C0
 360 004d F20F5805 		addsd	.LC2(%rip), %xmm0
 360      00000000 
 361 0055 F2480F2C 		cvttsd2siq	%xmm0, %rax
 361      C0
 362 005a 48894318 		movq	%rax, 24(%rbx)
 385:/home/baikal/workspace/C50/Huawei_IoT_Agent_Tiny_SDK_Linux//lwm2m/core/bootstrap.c **** }
 363              		.loc 1 385 0
 364 005e B8000000 		movl	$0, %eax
 364      00
 374:/home/baikal/workspace/C50/Huawei_IoT_Agent_Tiny_SDK_Linux//lwm2m/core/bootstrap.c **** 
 365              		.loc 1 374 0
 366 0063 EB05     		jmp	.L29
 367              	.LVL34:
 368              	.L34:
 382:/home/baikal/workspace/C50/Huawei_IoT_Agent_Tiny_SDK_Linux//lwm2m/core/bootstrap.c ****     }
 369              		.loc 1 382 0
 370 0065 B8010000 		movl	$1, %eax
 370      00
 371              	.LVL35:
 372              	.L29:
 386:/home/baikal/workspace/C50/Huawei_IoT_Agent_Tiny_SDK_Linux//lwm2m/core/bootstrap.c **** 
 373              		.loc 1 386 0
 374 006a 5B       		popq	%rbx
 375              	.LCFI20:
 376              		.cfi_def_cfa_offset 8
 377 006b C3       		ret
 378              		.cfi_endproc
 379              	.LFE70:
 381              		.section	.text.prv_tagServer,"ax",@progbits
 383              	prv_tagServer:
 384              	.LFB71:
 390:/home/baikal/workspace/C50/Huawei_IoT_Agent_Tiny_SDK_Linux//lwm2m/core/bootstrap.c ****     lwm2m_server_t *targetP;
 385              		.loc 1 390 0
 386              		.cfi_startproc
 387              	.LVL36:
 388 0000 55       		pushq	%rbp
 389              	.LCFI21:
GAS LISTING /tmp/ccFIbPhJ.s 			page 17


 390              		.cfi_def_cfa_offset 16
 391              		.cfi_offset 6, -16
 392 0001 53       		pushq	%rbx
 393              	.LCFI22:
 394              		.cfi_def_cfa_offset 24
 395              		.cfi_offset 3, -24
 396 0002 4883EC08 		subq	$8, %rsp
 397              	.LCFI23:
 398              		.cfi_def_cfa_offset 32
 399 0006 4889FD   		movq	%rdi, %rbp
 393:/home/baikal/workspace/C50/Huawei_IoT_Agent_Tiny_SDK_Linux//lwm2m/core/bootstrap.c ****     if (targetP == NULL)
 400              		.loc 1 393 0
 401 0009 0FB7DE   		movzwl	%si, %ebx
 402 000c 488B7F28 		movq	40(%rdi), %rdi
 403              	.LVL37:
 404 0010 89DE     		movl	%ebx, %esi
 405              	.LVL38:
 406 0012 E8000000 		call	lwm2m_list_find
 406      00
 407              	.LVL39:
 394:/home/baikal/workspace/C50/Huawei_IoT_Agent_Tiny_SDK_Linux//lwm2m/core/bootstrap.c ****     {
 408              		.loc 1 394 0
 409 0017 4885C0   		testq	%rax, %rax
 410 001a 750B     		jne	.L37
 396:/home/baikal/workspace/C50/Huawei_IoT_Agent_Tiny_SDK_Linux//lwm2m/core/bootstrap.c ****     }
 411              		.loc 1 396 0
 412 001c 488B7D30 		movq	48(%rbp), %rdi
 413 0020 89DE     		movl	%ebx, %esi
 414 0022 E8000000 		call	lwm2m_list_find
 414      00
 415              	.LVL40:
 416              	.L37:
 398:/home/baikal/workspace/C50/Huawei_IoT_Agent_Tiny_SDK_Linux//lwm2m/core/bootstrap.c ****     {
 417              		.loc 1 398 0
 418 0027 4885C0   		testq	%rax, %rax
 419 002a 7404     		je	.L36
 400:/home/baikal/workspace/C50/Huawei_IoT_Agent_Tiny_SDK_Linux//lwm2m/core/bootstrap.c ****     }
 420              		.loc 1 400 0
 421 002c C6404001 		movb	$1, 64(%rax)
 422              	.L36:
 402:/home/baikal/workspace/C50/Huawei_IoT_Agent_Tiny_SDK_Linux//lwm2m/core/bootstrap.c **** 
 423              		.loc 1 402 0
 424 0030 4883C408 		addq	$8, %rsp
 425              	.LCFI24:
 426              		.cfi_def_cfa_offset 24
 427 0034 5B       		popq	%rbx
 428              	.LCFI25:
 429              		.cfi_def_cfa_offset 16
 430              	.LVL41:
 431 0035 5D       		popq	%rbp
 432              	.LCFI26:
 433              		.cfi_def_cfa_offset 8
 434              	.LVL42:
 435 0036 C3       		ret
 436              		.cfi_endproc
 437              	.LFE71:
 439              		.section	.text.bootstrap_step,"ax",@progbits
GAS LISTING /tmp/ccFIbPhJ.s 			page 18


 440              		.globl	bootstrap_step
 442              	bootstrap_step:
 443              	.LFB66:
 139:/home/baikal/workspace/C50/Huawei_IoT_Agent_Tiny_SDK_Linux//lwm2m/core/bootstrap.c ****     lwm2m_server_t *targetP;
 444              		.loc 1 139 0
 445              		.cfi_startproc
 446              	.LVL43:
 447 0000 4156     		pushq	%r14
 448              	.LCFI27:
 449              		.cfi_def_cfa_offset 16
 450              		.cfi_offset 14, -16
 451 0002 4155     		pushq	%r13
 452              	.LCFI28:
 453              		.cfi_def_cfa_offset 24
 454              		.cfi_offset 13, -24
 455 0004 4154     		pushq	%r12
 456              	.LCFI29:
 457              		.cfi_def_cfa_offset 32
 458              		.cfi_offset 12, -32
 459 0006 55       		pushq	%rbp
 460              	.LCFI30:
 461              		.cfi_def_cfa_offset 40
 462              		.cfi_offset 6, -40
 463 0007 53       		pushq	%rbx
 464              	.LCFI31:
 465              		.cfi_def_cfa_offset 48
 466              		.cfi_offset 3, -48
 467 0008 4989FC   		movq	%rdi, %r12
 468 000b 4189F5   		movl	%esi, %r13d
 469 000e 4889D5   		movq	%rdx, %rbp
 470              	.LVL44:
 144:/home/baikal/workspace/C50/Huawei_IoT_Agent_Tiny_SDK_Linux//lwm2m/core/bootstrap.c ****     while (targetP != NULL)
 471              		.loc 1 144 0
 472 0011 488B5F28 		movq	40(%rdi), %rbx
 473              	.LVL45:
 141:/home/baikal/workspace/C50/Huawei_IoT_Agent_Tiny_SDK_Linux//lwm2m/core/bootstrap.c **** 
 474              		.loc 1 141 0
 475 0015 41BE0000 		movl	$0, %r14d
 475      0000
 145:/home/baikal/workspace/C50/Huawei_IoT_Agent_Tiny_SDK_Linux//lwm2m/core/bootstrap.c ****     {
 476              		.loc 1 145 0
 477 001b E9710100 		jmp	.L41
 477      00
 478              	.LVL46:
 479              	.L56:
 148:/home/baikal/workspace/C50/Huawei_IoT_Agent_Tiny_SDK_Linux//lwm2m/core/bootstrap.c ****         {
 480              		.loc 1 148 0
 481 0020 8B4330   		movl	48(%rbx), %eax
 482 0023 83F80D   		cmpl	$13, %eax
 483 0026 0F876201 		ja	.L42
 483      0000
 484 002c 89C0     		movl	%eax, %eax
 485 002e FF24C500 		jmp	*.L44(,%rax,8)
 485      000000
 486              		.section	.rodata.bootstrap_step,"a",@progbits
 487              		.align 8
 488              		.align 4
GAS LISTING /tmp/ccFIbPhJ.s 			page 19


 489              	.L44:
 490 0000 00000000 		.quad	.L43
 490      00000000 
 491 0008 00000000 		.quad	.L42
 491      00000000 
 492 0010 00000000 		.quad	.L42
 492      00000000 
 493 0018 00000000 		.quad	.L42
 493      00000000 
 494 0020 00000000 		.quad	.L42
 494      00000000 
 495 0028 00000000 		.quad	.L42
 495      00000000 
 496 0030 00000000 		.quad	.L42
 496      00000000 
 497 0038 00000000 		.quad	.L42
 497      00000000 
 498 0040 00000000 		.quad	.L45
 498      00000000 
 499 0048 00000000 		.quad	.L42
 499      00000000 
 500 0050 00000000 		.quad	.L46
 500      00000000 
 501 0058 00000000 		.quad	.L47
 501      00000000 
 502 0060 00000000 		.quad	.L42
 502      00000000 
 503 0068 00000000 		.quad	.L48
 503      00000000 
 504              		.section	.text.bootstrap_step
 505              	.L43:
 153:/home/baikal/workspace/C50/Huawei_IoT_Agent_Tiny_SDK_Linux//lwm2m/core/bootstrap.c ****             targetP->status = STATE_BS_HOLD_OFF;
 506              		.loc 1 153 0
 507 0035 488B5310 		movq	16(%rbx), %rdx
 508 0039 4489E8   		movl	%r13d, %eax
 509 003c 4801D0   		addq	%rdx, %rax
 510 003f 48894318 		movq	%rax, 24(%rbx)
 154:/home/baikal/workspace/C50/Huawei_IoT_Agent_Tiny_SDK_Linux//lwm2m/core/bootstrap.c ****             if (*timeoutP > targetP->lifetime)
 511              		.loc 1 154 0
 512 0043 C7433008 		movl	$8, 48(%rbx)
 512      000000
 155:/home/baikal/workspace/C50/Huawei_IoT_Agent_Tiny_SDK_Linux//lwm2m/core/bootstrap.c ****             {
 513              		.loc 1 155 0
 514 004a 483B5500 		cmpq	0(%rbp), %rdx
 515 004e 0F8D3A01 		jge	.L42
 515      0000
 157:/home/baikal/workspace/C50/Huawei_IoT_Agent_Tiny_SDK_Linux//lwm2m/core/bootstrap.c ****             }
 516              		.loc 1 157 0
 517 0054 48895500 		movq	%rdx, 0(%rbp)
 518 0058 E9310100 		jmp	.L42
 518      00
 519              	.L45:
 162:/home/baikal/workspace/C50/Huawei_IoT_Agent_Tiny_SDK_Linux//lwm2m/core/bootstrap.c ****             {
 520              		.loc 1 162 0
 521 005d 488B4318 		movq	24(%rbx), %rax
 522 0061 4489EA   		movl	%r13d, %edx
 523 0064 4839D0   		cmpq	%rdx, %rax
GAS LISTING /tmp/ccFIbPhJ.s 			page 20


 524 0067 7F41     		jg	.L49
 164:/home/baikal/workspace/C50/Huawei_IoT_Agent_Tiny_SDK_Linux//lwm2m/core/bootstrap.c ****                 {
 525              		.loc 1 164 0
 526 0069 418B4424 		movl	4(%r12), %eax
 526      04
 527 006e 8D50FD   		leal	-3(%rax), %edx
 528 0071 83FA01   		cmpl	$1, %edx
 529 0074 7710     		ja	.L50
 166:/home/baikal/workspace/C50/Huawei_IoT_Agent_Tiny_SDK_Linux//lwm2m/core/bootstrap.c ****                 }
 530              		.loc 1 166 0
 531 0076 4889DE   		movq	%rbx, %rsi
 532 0079 4C89E7   		movq	%r12, %rdi
 533 007c E8000000 		call	prv_requestBootstrap
 533      00
 534              	.LVL47:
 535 0081 E9080100 		jmp	.L42
 535      00
 536              	.L50:
 168:/home/baikal/workspace/C50/Huawei_IoT_Agent_Tiny_SDK_Linux//lwm2m/core/bootstrap.c ****                 {
 537              		.loc 1 168 0
 538 0086 83F802   		cmpl	$2, %eax
 539 0089 0F85FF00 		jne	.L42
 539      0000
 174:/home/baikal/workspace/C50/Huawei_IoT_Agent_Tiny_SDK_Linux//lwm2m/core/bootstrap.c **** 
 540              		.loc 1 174 0
 541 008f C743300B 		movl	$11, 48(%rbx)
 541      000000
 542              	.LVL48:
 177:/home/baikal/workspace/C50/Huawei_IoT_Agent_Tiny_SDK_Linux//lwm2m/core/bootstrap.c ****                     }
 543              		.loc 1 177 0
 544 0096 41C74424 		movl	$3, 4(%r12)
 544      04030000 
 544      00
 176:/home/baikal/workspace/C50/Huawei_IoT_Agent_Tiny_SDK_Linux//lwm2m/core/bootstrap.c ****                         contextP->bs_sequence_state = BS_SEQUENCE_STATE_CLIENT_INITIATED;
 545              		.loc 1 176 0
 546 009f 41BE0100 		movl	$1, %r14d
 546      0000
 547 00a5 E9E40000 		jmp	.L42
 547      00
 548              	.LVL49:
 549              	.L49:
 182:/home/baikal/workspace/C50/Huawei_IoT_Agent_Tiny_SDK_Linux//lwm2m/core/bootstrap.c ****             {
 550              		.loc 1 182 0
 551 00aa 4829D0   		subq	%rdx, %rax
 552 00ad 48394500 		cmpq	%rax, 0(%rbp)
 553 00b1 0F8ED700 		jle	.L42
 553      0000
 184:/home/baikal/workspace/C50/Huawei_IoT_Agent_Tiny_SDK_Linux//lwm2m/core/bootstrap.c ****             }
 554              		.loc 1 184 0
 555 00b7 48894500 		movq	%rax, 0(%rbp)
 556 00bb E9CE0000 		jmp	.L42
 556      00
 557              	.L46:
 194:/home/baikal/workspace/C50/Huawei_IoT_Agent_Tiny_SDK_Linux//lwm2m/core/bootstrap.c ****             {
 558              		.loc 1 194 0
 559 00c0 418B4424 		movl	4(%r12), %eax
 559      04
GAS LISTING /tmp/ccFIbPhJ.s 			page 21


 560 00c5 8D50FD   		leal	-3(%rax), %edx
 561 00c8 83FA01   		cmpl	$1, %edx
 562 00cb 7736     		ja	.L51
 196:/home/baikal/workspace/C50/Huawei_IoT_Agent_Tiny_SDK_Linux//lwm2m/core/bootstrap.c ****                 {
 563              		.loc 1 196 0
 564 00cd 488B4318 		movq	24(%rbx), %rax
 565 00d1 4489EA   		movl	%r13d, %edx
 566 00d4 4839D0   		cmpq	%rdx, %rax
 567 00d7 7F14     		jg	.L52
 200:/home/baikal/workspace/C50/Huawei_IoT_Agent_Tiny_SDK_Linux//lwm2m/core/bootstrap.c ****                     *timeoutP = 0;
 568              		.loc 1 200 0
 569 00d9 C743300D 		movl	$13, 48(%rbx)
 569      000000
 201:/home/baikal/workspace/C50/Huawei_IoT_Agent_Tiny_SDK_Linux//lwm2m/core/bootstrap.c ****                 }
 570              		.loc 1 201 0
 571 00e0 48C74500 		movq	$0, 0(%rbp)
 571      00000000 
 572 00e8 E9A10000 		jmp	.L42
 572      00
 573              	.L52:
 203:/home/baikal/workspace/C50/Huawei_IoT_Agent_Tiny_SDK_Linux//lwm2m/core/bootstrap.c ****                 {
 574              		.loc 1 203 0
 575 00ed 4829D0   		subq	%rdx, %rax
 576 00f0 48394500 		cmpq	%rax, 0(%rbp)
 577 00f4 0F8E9400 		jle	.L42
 577      0000
 205:/home/baikal/workspace/C50/Huawei_IoT_Agent_Tiny_SDK_Linux//lwm2m/core/bootstrap.c ****                 }
 578              		.loc 1 205 0
 579 00fa 48894500 		movq	%rax, 0(%rbp)
 580 00fe E98B0000 		jmp	.L42
 580      00
 581              	.L51:
 208:/home/baikal/workspace/C50/Huawei_IoT_Agent_Tiny_SDK_Linux//lwm2m/core/bootstrap.c ****             {
 582              		.loc 1 208 0
 583 0103 83F802   		cmpl	$2, %eax
 584 0106 0F858200 		jne	.L42
 584      0000
 210:/home/baikal/workspace/C50/Huawei_IoT_Agent_Tiny_SDK_Linux//lwm2m/core/bootstrap.c ****                 {
 585              		.loc 1 210 0
 586 010c 488B4318 		movq	24(%rbx), %rax
 587 0110 4489EA   		movl	%r13d, %edx
 588 0113 4839D0   		cmpq	%rdx, %rax
 589 0116 7F11     		jg	.L53
 213:/home/baikal/workspace/C50/Huawei_IoT_Agent_Tiny_SDK_Linux//lwm2m/core/bootstrap.c ****                     *timeoutP = 0;
 590              		.loc 1 213 0
 591 0118 C743300B 		movl	$11, 48(%rbx)
 591      000000
 214:/home/baikal/workspace/C50/Huawei_IoT_Agent_Tiny_SDK_Linux//lwm2m/core/bootstrap.c ****                 }
 592              		.loc 1 214 0
 593 011f 48C74500 		movq	$0, 0(%rbp)
 593      00000000 
 594 0127 EB65     		jmp	.L42
 595              	.L53:
 216:/home/baikal/workspace/C50/Huawei_IoT_Agent_Tiny_SDK_Linux//lwm2m/core/bootstrap.c ****                 {
 596              		.loc 1 216 0
 597 0129 4829D0   		subq	%rdx, %rax
 598 012c 48394500 		cmpq	%rax, 0(%rbp)
GAS LISTING /tmp/ccFIbPhJ.s 			page 22


 599 0130 7E5C     		jle	.L42
 218:/home/baikal/workspace/C50/Huawei_IoT_Agent_Tiny_SDK_Linux//lwm2m/core/bootstrap.c ****                 }
 600              		.loc 1 218 0
 601 0132 48894500 		movq	%rax, 0(%rbp)
 602 0136 EB56     		jmp	.L42
 603              	.L47:
 224:/home/baikal/workspace/C50/Huawei_IoT_Agent_Tiny_SDK_Linux//lwm2m/core/bootstrap.c ****             {
 604              		.loc 1 224 0
 605 0138 488B7B28 		movq	40(%rbx), %rdi
 606 013c 4885FF   		testq	%rdi, %rdi
 607 013f 7412     		je	.L54
 226:/home/baikal/workspace/C50/Huawei_IoT_Agent_Tiny_SDK_Linux//lwm2m/core/bootstrap.c ****                 targetP->sessionH = NULL;
 608              		.loc 1 226 0
 609 0141 498B7424 		movq	96(%r12), %rsi
 609      60
 610 0146 E8000000 		call	lwm2m_close_connection
 610      00
 611              	.LVL50:
 227:/home/baikal/workspace/C50/Huawei_IoT_Agent_Tiny_SDK_Linux//lwm2m/core/bootstrap.c ****             }
 612              		.loc 1 227 0
 613 014b 48C74328 		movq	$0, 40(%rbx)
 613      00000000 
 614              	.L54:
 229:/home/baikal/workspace/C50/Huawei_IoT_Agent_Tiny_SDK_Linux//lwm2m/core/bootstrap.c ****             *timeoutP = 0;
 615              		.loc 1 229 0
 616 0153 C743300C 		movl	$12, 48(%rbx)
 616      000000
 230:/home/baikal/workspace/C50/Huawei_IoT_Agent_Tiny_SDK_Linux//lwm2m/core/bootstrap.c ****             break;
 617              		.loc 1 230 0
 618 015a 48C74500 		movq	$0, 0(%rbp)
 618      00000000 
 231:/home/baikal/workspace/C50/Huawei_IoT_Agent_Tiny_SDK_Linux//lwm2m/core/bootstrap.c **** 
 619              		.loc 1 231 0
 620 0162 EB2A     		jmp	.L42
 621              	.L48:
 234:/home/baikal/workspace/C50/Huawei_IoT_Agent_Tiny_SDK_Linux//lwm2m/core/bootstrap.c ****             {
 622              		.loc 1 234 0
 623 0164 488B7B28 		movq	40(%rbx), %rdi
 624 0168 4885FF   		testq	%rdi, %rdi
 625 016b 7412     		je	.L55
 236:/home/baikal/workspace/C50/Huawei_IoT_Agent_Tiny_SDK_Linux//lwm2m/core/bootstrap.c ****                 targetP->sessionH = NULL;
 626              		.loc 1 236 0
 627 016d 498B7424 		movq	96(%r12), %rsi
 627      60
 628 0172 E8000000 		call	lwm2m_close_connection
 628      00
 629              	.LVL51:
 237:/home/baikal/workspace/C50/Huawei_IoT_Agent_Tiny_SDK_Linux//lwm2m/core/bootstrap.c ****             }
 630              		.loc 1 237 0
 631 0177 48C74328 		movq	$0, 40(%rbx)
 631      00000000 
 632              	.L55:
 239:/home/baikal/workspace/C50/Huawei_IoT_Agent_Tiny_SDK_Linux//lwm2m/core/bootstrap.c ****             *timeoutP = 0;
 633              		.loc 1 239 0
 634 017f C743300E 		movl	$14, 48(%rbx)
 634      000000
 240:/home/baikal/workspace/C50/Huawei_IoT_Agent_Tiny_SDK_Linux//lwm2m/core/bootstrap.c ****             break;
GAS LISTING /tmp/ccFIbPhJ.s 			page 23


 635              		.loc 1 240 0
 636 0186 48C74500 		movq	$0, 0(%rbp)
 636      00000000 
 637              	.LVL52:
 638              	.L42:
 247:/home/baikal/workspace/C50/Huawei_IoT_Agent_Tiny_SDK_Linux//lwm2m/core/bootstrap.c ****     }
 639              		.loc 1 247 0
 640 018e 488B1B   		movq	(%rbx), %rbx
 641              	.LVL53:
 642              	.L41:
 145:/home/baikal/workspace/C50/Huawei_IoT_Agent_Tiny_SDK_Linux//lwm2m/core/bootstrap.c ****     {
 643              		.loc 1 145 0
 644 0191 4885DB   		testq	%rbx, %rbx
 645 0194 0F8586FE 		jne	.L56
 645      FFFF
 250:/home/baikal/workspace/C50/Huawei_IoT_Agent_Tiny_SDK_Linux//lwm2m/core/bootstrap.c ****     {
 646              		.loc 1 250 0
 647 019a 4584F6   		testb	%r14b, %r14b
 648 019d 741A     		je	.L40
 252:/home/baikal/workspace/C50/Huawei_IoT_Agent_Tiny_SDK_Linux//lwm2m/core/bootstrap.c ****         {
 649              		.loc 1 252 0
 650 019f 4C89E7   		movq	%r12, %rdi
 651 01a2 E8000000 		call	lwm2m_bootstrap_sequence_server_to_client_initiated
 651      00
 652              	.LVL54:
 653 01a7 85C0     		testl	%eax, %eax
 654 01a9 750E     		jne	.L40
 254:/home/baikal/workspace/C50/Huawei_IoT_Agent_Tiny_SDK_Linux//lwm2m/core/bootstrap.c ****             contextP->regist_first_flag = false;
 655              		.loc 1 254 0
 656 01ab 41C70424 		movl	$0, (%r12)
 656      00000000 
 255:/home/baikal/workspace/C50/Huawei_IoT_Agent_Tiny_SDK_Linux//lwm2m/core/bootstrap.c ****         }
 657              		.loc 1 255 0
 658 01b3 41C64424 		movb	$0, 8(%r12)
 658      0800
 659              	.L40:
 259:/home/baikal/workspace/C50/Huawei_IoT_Agent_Tiny_SDK_Linux//lwm2m/core/bootstrap.c **** 
 660              		.loc 1 259 0
 661 01b9 5B       		popq	%rbx
 662              	.LCFI32:
 663              		.cfi_def_cfa_offset 40
 664              	.LVL55:
 665 01ba 5D       		popq	%rbp
 666              	.LCFI33:
 667              		.cfi_def_cfa_offset 32
 668              	.LVL56:
 669 01bb 415C     		popq	%r12
 670              	.LCFI34:
 671              		.cfi_def_cfa_offset 24
 672              	.LVL57:
 673 01bd 415D     		popq	%r13
 674              	.LCFI35:
 675              		.cfi_def_cfa_offset 16
 676              	.LVL58:
 677 01bf 415E     		popq	%r14
 678              	.LCFI36:
 679              		.cfi_def_cfa_offset 8
GAS LISTING /tmp/ccFIbPhJ.s 			page 24


 680              	.LVL59:
 681 01c1 C3       		ret
 682              		.cfi_endproc
 683              	.LFE66:
 685              		.section	.text.bootstrap_handleFinish,"ax",@progbits
 686              		.globl	bootstrap_handleFinish
 688              	bootstrap_handleFinish:
 689              	.LFB67:
 263:/home/baikal/workspace/C50/Huawei_IoT_Agent_Tiny_SDK_Linux//lwm2m/core/bootstrap.c ****     lwm2m_server_t *bootstrapServer;
 690              		.loc 1 263 0
 691              		.cfi_startproc
 692              	.LVL60:
 693 0000 55       		pushq	%rbp
 694              	.LCFI37:
 695              		.cfi_def_cfa_offset 16
 696              		.cfi_offset 6, -16
 697 0001 53       		pushq	%rbx
 698              	.LCFI38:
 699              		.cfi_def_cfa_offset 24
 700              		.cfi_offset 3, -24
 701 0002 4883EC08 		subq	$8, %rsp
 702              	.LCFI39:
 703              		.cfi_def_cfa_offset 32
 704 0006 4889FD   		movq	%rdi, %rbp
 267:/home/baikal/workspace/C50/Huawei_IoT_Agent_Tiny_SDK_Linux//lwm2m/core/bootstrap.c ****     if (bootstrapServer != NULL
 705              		.loc 1 267 0
 706 0009 E8000000 		call	utils_findBootstrapServer
 706      00
 707              	.LVL61:
 268:/home/baikal/workspace/C50/Huawei_IoT_Agent_Tiny_SDK_Linux//lwm2m/core/bootstrap.c ****             && bootstrapServer->status == STATE_BS_PENDING)
 708              		.loc 1 268 0
 709 000e 4885C0   		testq	%rax, %rax
 710 0011 7428     		je	.L61
 711 0013 4889C3   		movq	%rax, %rbx
 269:/home/baikal/workspace/C50/Huawei_IoT_Agent_Tiny_SDK_Linux//lwm2m/core/bootstrap.c ****     {
 712              		.loc 1 269 0
 713 0016 8378300A 		cmpl	$10, 48(%rax)
 714 001a 7526     		jne	.L62
 271:/home/baikal/workspace/C50/Huawei_IoT_Agent_Tiny_SDK_Linux//lwm2m/core/bootstrap.c ****         {
 715              		.loc 1 271 0
 716 001c BE010000 		movl	$1, %esi
 716      00
 717 0021 4889EF   		movq	%rbp, %rdi
 718 0024 E8000000 		call	object_getServers
 718      00
 719              	.LVL62:
 720 0029 85C0     		testl	%eax, %eax
 721 002b 751C     		jne	.L63
 274:/home/baikal/workspace/C50/Huawei_IoT_Agent_Tiny_SDK_Linux//lwm2m/core/bootstrap.c ****             return COAP_204_CHANGED;
 722              		.loc 1 274 0
 723 002d C743300B 		movl	$11, 48(%rbx)
 723      000000
 275:/home/baikal/workspace/C50/Huawei_IoT_Agent_Tiny_SDK_Linux//lwm2m/core/bootstrap.c ****         }
 724              		.loc 1 275 0
 725 0034 B8440000 		movl	$68, %eax
 725      00
 726 0039 EB13     		jmp	.L60
GAS LISTING /tmp/ccFIbPhJ.s 			page 25


 727              	.LVL63:
 728              	.L61:
 283:/home/baikal/workspace/C50/Huawei_IoT_Agent_Tiny_SDK_Linux//lwm2m/core/bootstrap.c **** }
 729              		.loc 1 283 0
 730 003b B8010000 		movl	$1, %eax
 730      00
 731              	.LVL64:
 732 0040 EB0C     		jmp	.L60
 733              	.LVL65:
 734              	.L62:
 735 0042 B8010000 		movl	$1, %eax
 735      00
 736              	.LVL66:
 737 0047 EB05     		jmp	.L60
 738              	.L63:
 279:/home/baikal/workspace/C50/Huawei_IoT_Agent_Tiny_SDK_Linux//lwm2m/core/bootstrap.c ****         }
 739              		.loc 1 279 0
 740 0049 B886FFFF 		movl	$-122, %eax
 740      FF
 741              	.LVL67:
 742              	.L60:
 284:/home/baikal/workspace/C50/Huawei_IoT_Agent_Tiny_SDK_Linux//lwm2m/core/bootstrap.c **** 
 743              		.loc 1 284 0
 744 004e 4883C408 		addq	$8, %rsp
 745              	.LCFI40:
 746              		.cfi_def_cfa_offset 24
 747 0052 5B       		popq	%rbx
 748              	.LCFI41:
 749              		.cfi_def_cfa_offset 16
 750 0053 5D       		popq	%rbp
 751              	.LCFI42:
 752              		.cfi_def_cfa_offset 8
 753              	.LVL68:
 754 0054 C3       		ret
 755              		.cfi_endproc
 756              	.LFE67:
 758              		.section	.text.bootstrap_start,"ax",@progbits
 759              		.globl	bootstrap_start
 761              	bootstrap_start:
 762              	.LFB68:
 293:/home/baikal/workspace/C50/Huawei_IoT_Agent_Tiny_SDK_Linux//lwm2m/core/bootstrap.c ****     lwm2m_server_t *targetP;
 763              		.loc 1 293 0
 764              		.cfi_startproc
 765              	.LVL69:
 766 0000 55       		pushq	%rbp
 767              	.LCFI43:
 768              		.cfi_def_cfa_offset 16
 769              		.cfi_offset 6, -16
 770 0001 53       		pushq	%rbx
 771              	.LCFI44:
 772              		.cfi_def_cfa_offset 24
 773              		.cfi_offset 3, -24
 774 0002 4883EC08 		subq	$8, %rsp
 775              	.LCFI45:
 776              		.cfi_def_cfa_offset 32
 777 0006 4889FD   		movq	%rdi, %rbp
 297:/home/baikal/workspace/C50/Huawei_IoT_Agent_Tiny_SDK_Linux//lwm2m/core/bootstrap.c ****     while (targetP != NULL)
GAS LISTING /tmp/ccFIbPhJ.s 			page 26


 778              		.loc 1 297 0
 779 0009 488B5F28 		movq	40(%rdi), %rbx
 780              	.LVL70:
 298:/home/baikal/workspace/C50/Huawei_IoT_Agent_Tiny_SDK_Linux//lwm2m/core/bootstrap.c ****     {
 781              		.loc 1 298 0
 782 000d EB27     		jmp	.L66
 783              	.LVL71:
 784              	.L68:
 300:/home/baikal/workspace/C50/Huawei_IoT_Agent_Tiny_SDK_Linux//lwm2m/core/bootstrap.c ****         if (targetP->sessionH == NULL)
 785              		.loc 1 300 0
 786 000f C7433000 		movl	$0, 48(%rbx)
 786      000000
 301:/home/baikal/workspace/C50/Huawei_IoT_Agent_Tiny_SDK_Linux//lwm2m/core/bootstrap.c ****         {
 787              		.loc 1 301 0
 788 0016 48837B28 		cmpq	$0, 40(%rbx)
 788      00
 789 001b 7516     		jne	.L67
 303:/home/baikal/workspace/C50/Huawei_IoT_Agent_Tiny_SDK_Linux//lwm2m/core/bootstrap.c ****         }
 790              		.loc 1 303 0
 791 001d 488B7560 		movq	96(%rbp), %rsi
 792 0021 0FB77B08 		movzwl	8(%rbx), %edi
 793 0025 BA010000 		movl	$1, %edx
 793      00
 794 002a E8000000 		call	lwm2m_connect_server
 794      00
 795              	.LVL72:
 796 002f 48894328 		movq	%rax, 40(%rbx)
 797              	.L67:
 305:/home/baikal/workspace/C50/Huawei_IoT_Agent_Tiny_SDK_Linux//lwm2m/core/bootstrap.c ****     }
 798              		.loc 1 305 0
 799 0033 488B1B   		movq	(%rbx), %rbx
 800              	.LVL73:
 801              	.L66:
 298:/home/baikal/workspace/C50/Huawei_IoT_Agent_Tiny_SDK_Linux//lwm2m/core/bootstrap.c ****     {
 802              		.loc 1 298 0
 803 0036 4885DB   		testq	%rbx, %rbx
 804 0039 75D4     		jne	.L68
 307:/home/baikal/workspace/C50/Huawei_IoT_Agent_Tiny_SDK_Linux//lwm2m/core/bootstrap.c **** 
 805              		.loc 1 307 0
 806 003b 4883C408 		addq	$8, %rsp
 807              	.LCFI46:
 808              		.cfi_def_cfa_offset 24
 809 003f 5B       		popq	%rbx
 810              	.LCFI47:
 811              		.cfi_def_cfa_offset 16
 812              	.LVL74:
 813 0040 5D       		popq	%rbp
 814              	.LCFI48:
 815              		.cfi_def_cfa_offset 8
 816              	.LVL75:
 817 0041 C3       		ret
 818              		.cfi_endproc
 819              	.LFE68:
 821              		.section	.text.bootstrap_getStatus,"ax",@progbits
 822              		.globl	bootstrap_getStatus
 824              	bootstrap_getStatus:
 825              	.LFB69:
GAS LISTING /tmp/ccFIbPhJ.s 			page 27


 315:/home/baikal/workspace/C50/Huawei_IoT_Agent_Tiny_SDK_Linux//lwm2m/core/bootstrap.c ****     lwm2m_server_t *targetP;
 826              		.loc 1 315 0
 827              		.cfi_startproc
 828              	.LVL76:
 320:/home/baikal/workspace/C50/Huawei_IoT_Agent_Tiny_SDK_Linux//lwm2m/core/bootstrap.c ****     bs_status = STATE_BS_FAILED;
 829              		.loc 1 320 0
 830 0000 488B5728 		movq	40(%rdi), %rdx
 831              	.LVL77:
 321:/home/baikal/workspace/C50/Huawei_IoT_Agent_Tiny_SDK_Linux//lwm2m/core/bootstrap.c **** 
 832              		.loc 1 321 0
 833 0004 B80E0000 		movl	$14, %eax
 833      00
 323:/home/baikal/workspace/C50/Huawei_IoT_Agent_Tiny_SDK_Linux//lwm2m/core/bootstrap.c ****     {
 834              		.loc 1 323 0
 835 0009 EB31     		jmp	.L71
 836              	.LVL78:
 837              	.L76:
 325:/home/baikal/workspace/C50/Huawei_IoT_Agent_Tiny_SDK_Linux//lwm2m/core/bootstrap.c ****         {
 838              		.loc 1 325 0
 839 000b 8B4A30   		movl	48(%rdx), %ecx
 840 000e 83F90C   		cmpl	$12, %ecx
 841 0011 7413     		je	.L73
 842 0013 83F90C   		cmpl	$12, %ecx
 843 0016 7707     		ja	.L74
 844 0018 83F908   		cmpl	$8, %ecx
 845 001b 721C     		jb	.L75
 846 001d EB0E     		jmp	.L77
 847              	.L74:
 848 001f 83F90D   		cmpl	$13, %ecx
 849 0022 7409     		je	.L77
 850 0024 EB13     		jmp	.L75
 851              	.L73:
 328:/home/baikal/workspace/C50/Huawei_IoT_Agent_Tiny_SDK_Linux//lwm2m/core/bootstrap.c ****             {
 852              		.loc 1 328 0
 853 0026 83F80E   		cmpl	$14, %eax
 854 0029 750E     		jne	.L75
 855 002b EB07     		jmp	.L78
 856              	.L77:
 339:/home/baikal/workspace/C50/Huawei_IoT_Agent_Tiny_SDK_Linux//lwm2m/core/bootstrap.c ****             break;
 857              		.loc 1 339 0
 858 002d B80A0000 		movl	$10, %eax
 858      00
 859              	.LVL79:
 860 0032 EB05     		jmp	.L75
 861              	.LVL80:
 862              	.L78:
 330:/home/baikal/workspace/C50/Huawei_IoT_Agent_Tiny_SDK_Linux//lwm2m/core/bootstrap.c ****             }
 863              		.loc 1 330 0
 864 0034 B80C0000 		movl	$12, %eax
 864      00
 865              	.LVL81:
 866              	.L75:
 345:/home/baikal/workspace/C50/Huawei_IoT_Agent_Tiny_SDK_Linux//lwm2m/core/bootstrap.c ****     }
 867              		.loc 1 345 0
 868 0039 488B12   		movq	(%rdx), %rdx
 869              	.LVL82:
 870              	.L71:
GAS LISTING /tmp/ccFIbPhJ.s 			page 28


 323:/home/baikal/workspace/C50/Huawei_IoT_Agent_Tiny_SDK_Linux//lwm2m/core/bootstrap.c ****     {
 871              		.loc 1 323 0
 872 003c 4885D2   		testq	%rdx, %rdx
 873 003f 75CA     		jne	.L76
 351:/home/baikal/workspace/C50/Huawei_IoT_Agent_Tiny_SDK_Linux//lwm2m/core/bootstrap.c **** 
 874              		.loc 1 351 0
 875 0041 F3C3     		rep ret
 876              		.cfi_endproc
 877              	.LFE69:
 879              		.section	.text.bootstrap_handleCommand,"ax",@progbits
 880              		.globl	bootstrap_handleCommand
 882              	bootstrap_handleCommand:
 883              	.LFB73:
 425:/home/baikal/workspace/C50/Huawei_IoT_Agent_Tiny_SDK_Linux//lwm2m/core/bootstrap.c **** 
 426:/home/baikal/workspace/C50/Huawei_IoT_Agent_Tiny_SDK_Linux//lwm2m/core/bootstrap.c **** uint8_t bootstrap_handleCommand(lwm2m_context_t *contextP,
 427:/home/baikal/workspace/C50/Huawei_IoT_Agent_Tiny_SDK_Linux//lwm2m/core/bootstrap.c ****                                 lwm2m_uri_t *uriP,
 428:/home/baikal/workspace/C50/Huawei_IoT_Agent_Tiny_SDK_Linux//lwm2m/core/bootstrap.c ****                                 lwm2m_server_t *serverP,
 429:/home/baikal/workspace/C50/Huawei_IoT_Agent_Tiny_SDK_Linux//lwm2m/core/bootstrap.c ****                                 coap_packet_t *message,
 430:/home/baikal/workspace/C50/Huawei_IoT_Agent_Tiny_SDK_Linux//lwm2m/core/bootstrap.c ****                                 coap_packet_t *response)
 431:/home/baikal/workspace/C50/Huawei_IoT_Agent_Tiny_SDK_Linux//lwm2m/core/bootstrap.c **** {
 884              		.loc 1 431 0
 885              		.cfi_startproc
 886              	.LVL83:
 887 0000 4157     		pushq	%r15
 888              	.LCFI49:
 889              		.cfi_def_cfa_offset 16
 890              		.cfi_offset 15, -16
 891 0002 4156     		pushq	%r14
 892              	.LCFI50:
 893              		.cfi_def_cfa_offset 24
 894              		.cfi_offset 14, -24
 895 0004 4155     		pushq	%r13
 896              	.LCFI51:
 897              		.cfi_def_cfa_offset 32
 898              		.cfi_offset 13, -32
 899 0006 4154     		pushq	%r12
 900              	.LCFI52:
 901              		.cfi_def_cfa_offset 40
 902              		.cfi_offset 12, -40
 903 0008 55       		pushq	%rbp
 904              	.LCFI53:
 905              		.cfi_def_cfa_offset 48
 906              		.cfi_offset 6, -48
 907 0009 53       		pushq	%rbx
 908              	.LCFI54:
 909              		.cfi_def_cfa_offset 56
 910              		.cfi_offset 3, -56
 911 000a 4883EC28 		subq	$40, %rsp
 912              	.LCFI55:
 913              		.cfi_def_cfa_offset 96
 914 000e 4989FE   		movq	%rdi, %r14
 915 0011 4989F4   		movq	%rsi, %r12
 916 0014 4889D5   		movq	%rdx, %rbp
 917 0017 4989CD   		movq	%rcx, %r13
 432:/home/baikal/workspace/C50/Huawei_IoT_Agent_Tiny_SDK_Linux//lwm2m/core/bootstrap.c ****     uint8_t result;
 433:/home/baikal/workspace/C50/Huawei_IoT_Agent_Tiny_SDK_Linux//lwm2m/core/bootstrap.c ****     lwm2m_media_type_t format;
 434:/home/baikal/workspace/C50/Huawei_IoT_Agent_Tiny_SDK_Linux//lwm2m/core/bootstrap.c **** 
GAS LISTING /tmp/ccFIbPhJ.s 			page 29


 435:/home/baikal/workspace/C50/Huawei_IoT_Agent_Tiny_SDK_Linux//lwm2m/core/bootstrap.c ****     LOG_ARG("Code: %02X", message->code);
 436:/home/baikal/workspace/C50/Huawei_IoT_Agent_Tiny_SDK_Linux//lwm2m/core/bootstrap.c ****     LOG_URI(uriP);
 437:/home/baikal/workspace/C50/Huawei_IoT_Agent_Tiny_SDK_Linux//lwm2m/core/bootstrap.c ****     format = utils_convertMediaType(message->content_type);
 918              		.loc 1 437 0
 919 001a 8B791C   		movl	28(%rcx), %edi
 920              	.LVL84:
 921 001d E8000000 		call	utils_convertMediaType
 921      00
 922              	.LVL85:
 923 0022 4189C7   		movl	%eax, %r15d
 924              	.LVL86:
 438:/home/baikal/workspace/C50/Huawei_IoT_Agent_Tiny_SDK_Linux//lwm2m/core/bootstrap.c **** 
 439:/home/baikal/workspace/C50/Huawei_IoT_Agent_Tiny_SDK_Linux//lwm2m/core/bootstrap.c ****     result = prv_checkServerStatus(serverP);
 925              		.loc 1 439 0
 926 0025 4889EF   		movq	%rbp, %rdi
 927 0028 E8000000 		call	prv_checkServerStatus
 927      00
 928              	.LVL87:
 929 002d 89C3     		movl	%eax, %ebx
 930              	.LVL88:
 440:/home/baikal/workspace/C50/Huawei_IoT_Agent_Tiny_SDK_Linux//lwm2m/core/bootstrap.c ****     if (result != COAP_NO_ERROR) return result;
 931              		.loc 1 440 0
 932 002f 84C0     		testb	%al, %al
 933 0031 0F854602 		jne	.L80
 933      0000
 441:/home/baikal/workspace/C50/Huawei_IoT_Agent_Tiny_SDK_Linux//lwm2m/core/bootstrap.c **** 
 442:/home/baikal/workspace/C50/Huawei_IoT_Agent_Tiny_SDK_Linux//lwm2m/core/bootstrap.c ****     switch (message->code)
 934              		.loc 1 442 0
 935 0037 410FB645 		movzbl	16(%r13), %eax
 935      10
 936              	.LVL89:
 937 003c 3C03     		cmpb	$3, %al
 938 003e 740D     		je	.L82
 939 0040 3C04     		cmpb	$4, %al
 940 0042 0F84B701 		je	.L83
 940      0000
 941 0048 E9F90100 		jmp	.L102
 941      00
 942              	.L82:
 443:/home/baikal/workspace/C50/Huawei_IoT_Agent_Tiny_SDK_Linux//lwm2m/core/bootstrap.c ****     {
 444:/home/baikal/workspace/C50/Huawei_IoT_Agent_Tiny_SDK_Linux//lwm2m/core/bootstrap.c ****     case COAP_PUT:
 445:/home/baikal/workspace/C50/Huawei_IoT_Agent_Tiny_SDK_Linux//lwm2m/core/bootstrap.c ****     {
 446:/home/baikal/workspace/C50/Huawei_IoT_Agent_Tiny_SDK_Linux//lwm2m/core/bootstrap.c ****         if (LWM2M_URI_IS_SET_INSTANCE(uriP))
 943              		.loc 1 446 0
 944 004d 41F60424 		testb	$2, (%r12)
 944      02
 945 0052 0F848B00 		je	.L84
 945      0000
 447:/home/baikal/workspace/C50/Huawei_IoT_Agent_Tiny_SDK_Linux//lwm2m/core/bootstrap.c ****         {
 448:/home/baikal/workspace/C50/Huawei_IoT_Agent_Tiny_SDK_Linux//lwm2m/core/bootstrap.c ****             if (object_isInstanceNew(contextP, uriP->objectId, uriP->instanceId))
 946              		.loc 1 448 0
 947 0058 410FB754 		movzwl	4(%r12), %edx
 947      2404
 948 005e 410FB774 		movzwl	2(%r12), %esi
 948      2402
 949 0064 4C89F7   		movq	%r14, %rdi
 950 0067 E8000000 		call	object_isInstanceNew
GAS LISTING /tmp/ccFIbPhJ.s 			page 30


 950      00
 951              	.LVL90:
 952 006c 84C0     		testb	%al, %al
 953 006e 742C     		je	.L85
 449:/home/baikal/workspace/C50/Huawei_IoT_Agent_Tiny_SDK_Linux//lwm2m/core/bootstrap.c ****             {
 450:/home/baikal/workspace/C50/Huawei_IoT_Agent_Tiny_SDK_Linux//lwm2m/core/bootstrap.c ****                 result = object_create(contextP, uriP, format, message->payload, message->payload_l
 954              		.loc 1 450 0
 955 0070 498B8DC8 		movq	200(%r13), %rcx
 955      000000
 956 0077 450FB785 		movzwl	194(%r13), %r8d
 956      C2000000 
 957 007f 4489FA   		movl	%r15d, %edx
 958 0082 4C89E6   		movq	%r12, %rsi
 959 0085 4C89F7   		movq	%r14, %rdi
 960 0088 E8000000 		call	object_create
 960      00
 961              	.LVL91:
 962 008d 89C3     		movl	%eax, %ebx
 963              	.LVL92:
 451:/home/baikal/workspace/C50/Huawei_IoT_Agent_Tiny_SDK_Linux//lwm2m/core/bootstrap.c ****                 if (COAP_201_CREATED == result)
 964              		.loc 1 451 0
 965 008f 3C41     		cmpb	$65, %al
 966 0091 0F85C201 		jne	.L81
 966      0000
 967 0097 E9B10100 		jmp	.L95
 967      00
 968              	.LVL93:
 969              	.L85:
 452:/home/baikal/workspace/C50/Huawei_IoT_Agent_Tiny_SDK_Linux//lwm2m/core/bootstrap.c ****                 {
 453:/home/baikal/workspace/C50/Huawei_IoT_Agent_Tiny_SDK_Linux//lwm2m/core/bootstrap.c ****                     result = COAP_204_CHANGED;
 454:/home/baikal/workspace/C50/Huawei_IoT_Agent_Tiny_SDK_Linux//lwm2m/core/bootstrap.c ****                 }
 455:/home/baikal/workspace/C50/Huawei_IoT_Agent_Tiny_SDK_Linux//lwm2m/core/bootstrap.c ****             }
 456:/home/baikal/workspace/C50/Huawei_IoT_Agent_Tiny_SDK_Linux//lwm2m/core/bootstrap.c ****             else
 457:/home/baikal/workspace/C50/Huawei_IoT_Agent_Tiny_SDK_Linux//lwm2m/core/bootstrap.c ****             {
 458:/home/baikal/workspace/C50/Huawei_IoT_Agent_Tiny_SDK_Linux//lwm2m/core/bootstrap.c ****                 result = object_write(contextP, uriP, format, message->payload, message->payload_le
 970              		.loc 1 458 0
 971 009c 498B8DC8 		movq	200(%r13), %rcx
 971      000000
 972 00a3 450FB785 		movzwl	194(%r13), %r8d
 972      C2000000 
 973 00ab 4489FA   		movl	%r15d, %edx
 974 00ae 4C89E6   		movq	%r12, %rsi
 975 00b1 4C89F7   		movq	%r14, %rdi
 976 00b4 E8000000 		call	object_write
 976      00
 977              	.LVL94:
 978 00b9 89C3     		movl	%eax, %ebx
 979              	.LVL95:
 459:/home/baikal/workspace/C50/Huawei_IoT_Agent_Tiny_SDK_Linux//lwm2m/core/bootstrap.c ****                 if (uriP->objectId == LWM2M_SECURITY_OBJECT_ID
 980              		.loc 1 459 0
 981 00bb 6641837C 		cmpw	$0, 2(%r12)
 981      240200
 982 00c2 0F859101 		jne	.L81
 982      0000
 460:/home/baikal/workspace/C50/Huawei_IoT_Agent_Tiny_SDK_Linux//lwm2m/core/bootstrap.c ****                         && result == COAP_204_CHANGED)
 983              		.loc 1 460 0
 984 00c8 3C44     		cmpb	$68, %al
GAS LISTING /tmp/ccFIbPhJ.s 			page 31


 985 00ca 0F858901 		jne	.L81
 985      0000
 461:/home/baikal/workspace/C50/Huawei_IoT_Agent_Tiny_SDK_Linux//lwm2m/core/bootstrap.c ****                 {
 462:/home/baikal/workspace/C50/Huawei_IoT_Agent_Tiny_SDK_Linux//lwm2m/core/bootstrap.c ****                     prv_tagServer(contextP, uriP->instanceId);
 986              		.loc 1 462 0
 987 00d0 410FB774 		movzwl	4(%r12), %esi
 987      2404
 988 00d6 4C89F7   		movq	%r14, %rdi
 989 00d9 E8000000 		call	prv_tagServer
 989      00
 990              	.LVL96:
 991 00de E9760100 		jmp	.L81
 991      00
 992              	.L84:
 993              	.LBB7:
 463:/home/baikal/workspace/C50/Huawei_IoT_Agent_Tiny_SDK_Linux//lwm2m/core/bootstrap.c ****                 }
 464:/home/baikal/workspace/C50/Huawei_IoT_Agent_Tiny_SDK_Linux//lwm2m/core/bootstrap.c ****             }
 465:/home/baikal/workspace/C50/Huawei_IoT_Agent_Tiny_SDK_Linux//lwm2m/core/bootstrap.c ****         }
 466:/home/baikal/workspace/C50/Huawei_IoT_Agent_Tiny_SDK_Linux//lwm2m/core/bootstrap.c ****         else
 467:/home/baikal/workspace/C50/Huawei_IoT_Agent_Tiny_SDK_Linux//lwm2m/core/bootstrap.c ****         {
 468:/home/baikal/workspace/C50/Huawei_IoT_Agent_Tiny_SDK_Linux//lwm2m/core/bootstrap.c ****             lwm2m_data_t *dataP = NULL;
 994              		.loc 1 468 0
 995 00e3 48C74424 		movq	$0, 24(%rsp)
 995      18000000 
 995      00
 996              	.LVL97:
 469:/home/baikal/workspace/C50/Huawei_IoT_Agent_Tiny_SDK_Linux//lwm2m/core/bootstrap.c ****             int size = 0;
 470:/home/baikal/workspace/C50/Huawei_IoT_Agent_Tiny_SDK_Linux//lwm2m/core/bootstrap.c ****             int i;
 471:/home/baikal/workspace/C50/Huawei_IoT_Agent_Tiny_SDK_Linux//lwm2m/core/bootstrap.c **** 
 472:/home/baikal/workspace/C50/Huawei_IoT_Agent_Tiny_SDK_Linux//lwm2m/core/bootstrap.c ****             if (message->payload_len == 0 || message->payload == 0)
 997              		.loc 1 472 0
 998 00ec 410FB795 		movzwl	194(%r13), %edx
 998      C2000000 
 999 00f4 6685D2   		testw	%dx, %dx
 1000 00f7 0F84F400 		je	.L96
 1000      0000
 1001              		.loc 1 472 0 is_stmt 0 discriminator 1
 1002 00fd 498BB5C8 		movq	200(%r13), %rsi
 1002      000000
 1003 0104 4885F6   		testq	%rsi, %rsi
 1004 0107 0F84EB00 		je	.L97
 1004      0000
 473:/home/baikal/workspace/C50/Huawei_IoT_Agent_Tiny_SDK_Linux//lwm2m/core/bootstrap.c ****             {
 474:/home/baikal/workspace/C50/Huawei_IoT_Agent_Tiny_SDK_Linux//lwm2m/core/bootstrap.c ****                 result = COAP_400_BAD_REQUEST;
 475:/home/baikal/workspace/C50/Huawei_IoT_Agent_Tiny_SDK_Linux//lwm2m/core/bootstrap.c ****             }
 476:/home/baikal/workspace/C50/Huawei_IoT_Agent_Tiny_SDK_Linux//lwm2m/core/bootstrap.c ****             else
 477:/home/baikal/workspace/C50/Huawei_IoT_Agent_Tiny_SDK_Linux//lwm2m/core/bootstrap.c ****             {
 478:/home/baikal/workspace/C50/Huawei_IoT_Agent_Tiny_SDK_Linux//lwm2m/core/bootstrap.c ****                 size = lwm2m_data_parse(uriP, message->payload, message->payload_len, format, &data
 1005              		.loc 1 478 0 is_stmt 1
 1006 010d 0FB7D2   		movzwl	%dx, %edx
 1007 0110 4C8D4424 		leaq	24(%rsp), %r8
 1007      18
 1008 0115 4489F9   		movl	%r15d, %ecx
 1009 0118 4C89E7   		movq	%r12, %rdi
 1010 011b E8000000 		call	lwm2m_data_parse
 1010      00
 1011              	.LVL98:
GAS LISTING /tmp/ccFIbPhJ.s 			page 32


 1012 0120 8944240C 		movl	%eax, 12(%rsp)
 1013              	.LVL99:
 479:/home/baikal/workspace/C50/Huawei_IoT_Agent_Tiny_SDK_Linux//lwm2m/core/bootstrap.c ****                 if (size == 0)
 1014              		.loc 1 479 0
 1015 0124 85C0     		testl	%eax, %eax
 1016 0126 0F85A400 		jne	.L98
 1016      0000
 1017              	.LVL100:
 480:/home/baikal/workspace/C50/Huawei_IoT_Agent_Tiny_SDK_Linux//lwm2m/core/bootstrap.c ****                 {
 481:/home/baikal/workspace/C50/Huawei_IoT_Agent_Tiny_SDK_Linux//lwm2m/core/bootstrap.c ****                     result = COAP_500_INTERNAL_SERVER_ERROR;
 1018              		.loc 1 481 0
 1019 012c BBA0FFFF 		movl	$-96, %ebx
 1019      FF
 1020 0131 E9230100 		jmp	.L81
 1020      00
 1021              	.LVL101:
 1022              	.L92:
 482:/home/baikal/workspace/C50/Huawei_IoT_Agent_Tiny_SDK_Linux//lwm2m/core/bootstrap.c ****                     break;
 483:/home/baikal/workspace/C50/Huawei_IoT_Agent_Tiny_SDK_Linux//lwm2m/core/bootstrap.c ****                 }
 484:/home/baikal/workspace/C50/Huawei_IoT_Agent_Tiny_SDK_Linux//lwm2m/core/bootstrap.c **** 
 485:/home/baikal/workspace/C50/Huawei_IoT_Agent_Tiny_SDK_Linux//lwm2m/core/bootstrap.c ****                 for (i = 0 ; i < size ; i++)
 486:/home/baikal/workspace/C50/Huawei_IoT_Agent_Tiny_SDK_Linux//lwm2m/core/bootstrap.c ****                 {
 487:/home/baikal/workspace/C50/Huawei_IoT_Agent_Tiny_SDK_Linux//lwm2m/core/bootstrap.c ****                     if(dataP[i].type == LWM2M_TYPE_OBJECT_INSTANCE)
 1023              		.loc 1 487 0
 1024 0136 4963C5   		movslq	%r13d, %rax
 1025 0139 488D0440 		leaq	(%rax,%rax,2), %rax
 1026 013d 4C8D3CC5 		leaq	0(,%rax,8), %r15
 1026      00000000 
 1027 0145 4C89F8   		movq	%r15, %rax
 1028 0148 48034424 		addq	24(%rsp), %rax
 1028      18
 1029 014d 833802   		cmpl	$2, (%rax)
 1030 0150 7573     		jne	.L99
 488:/home/baikal/workspace/C50/Huawei_IoT_Agent_Tiny_SDK_Linux//lwm2m/core/bootstrap.c ****                     {
 489:/home/baikal/workspace/C50/Huawei_IoT_Agent_Tiny_SDK_Linux//lwm2m/core/bootstrap.c ****                         if (object_isInstanceNew(contextP, uriP->objectId, dataP[i].id))
 1031              		.loc 1 489 0
 1032 0152 0FB75004 		movzwl	4(%rax), %edx
 1033 0156 410FB774 		movzwl	2(%r12), %esi
 1033      2402
 1034 015c 4C89F7   		movq	%r14, %rdi
 1035 015f E8000000 		call	object_isInstanceNew
 1035      00
 1036              	.LVL102:
 1037 0164 84C0     		testb	%al, %al
 1038 0166 741B     		je	.L89
 490:/home/baikal/workspace/C50/Huawei_IoT_Agent_Tiny_SDK_Linux//lwm2m/core/bootstrap.c ****                         {
 491:/home/baikal/workspace/C50/Huawei_IoT_Agent_Tiny_SDK_Linux//lwm2m/core/bootstrap.c ****                             result = object_createInstance(contextP, uriP, &dataP[i]);
 1039              		.loc 1 491 0
 1040 0168 4C89FA   		movq	%r15, %rdx
 1041 016b 48035424 		addq	24(%rsp), %rdx
 1041      18
 1042 0170 4C89E6   		movq	%r12, %rsi
 1043 0173 4C89F7   		movq	%r14, %rdi
 1044 0176 E8000000 		call	object_createInstance
 1044      00
 1045              	.LVL103:
 1046 017b 89C3     		movl	%eax, %ebx
GAS LISTING /tmp/ccFIbPhJ.s 			page 33


 1047              	.LVL104:
 492:/home/baikal/workspace/C50/Huawei_IoT_Agent_Tiny_SDK_Linux//lwm2m/core/bootstrap.c ****                             if (COAP_201_CREATED == result)
 1048              		.loc 1 492 0
 1049 017d 3C41     		cmpb	$65, %al
 1050 017f 753D     		jne	.L90
 1051 0181 EB36     		jmp	.L100
 1052              	.LVL105:
 1053              	.L89:
 493:/home/baikal/workspace/C50/Huawei_IoT_Agent_Tiny_SDK_Linux//lwm2m/core/bootstrap.c ****                             {
 494:/home/baikal/workspace/C50/Huawei_IoT_Agent_Tiny_SDK_Linux//lwm2m/core/bootstrap.c ****                                 result = COAP_204_CHANGED;
 495:/home/baikal/workspace/C50/Huawei_IoT_Agent_Tiny_SDK_Linux//lwm2m/core/bootstrap.c ****                             }
 496:/home/baikal/workspace/C50/Huawei_IoT_Agent_Tiny_SDK_Linux//lwm2m/core/bootstrap.c ****                         }
 497:/home/baikal/workspace/C50/Huawei_IoT_Agent_Tiny_SDK_Linux//lwm2m/core/bootstrap.c ****                         else
 498:/home/baikal/workspace/C50/Huawei_IoT_Agent_Tiny_SDK_Linux//lwm2m/core/bootstrap.c ****                         {
 499:/home/baikal/workspace/C50/Huawei_IoT_Agent_Tiny_SDK_Linux//lwm2m/core/bootstrap.c ****                             result = object_writeInstance(contextP, uriP, &dataP[i]);
 1054              		.loc 1 499 0
 1055 0183 4C89FA   		movq	%r15, %rdx
 1056 0186 48035424 		addq	24(%rsp), %rdx
 1056      18
 1057 018b 4C89E6   		movq	%r12, %rsi
 1058 018e 4C89F7   		movq	%r14, %rdi
 1059 0191 E8000000 		call	object_writeInstance
 1059      00
 1060              	.LVL106:
 1061 0196 89C3     		movl	%eax, %ebx
 1062              	.LVL107:
 500:/home/baikal/workspace/C50/Huawei_IoT_Agent_Tiny_SDK_Linux//lwm2m/core/bootstrap.c ****                             if (uriP->objectId == LWM2M_SECURITY_OBJECT_ID
 1063              		.loc 1 500 0
 1064 0198 6641837C 		cmpw	$0, 2(%r12)
 1064      240200
 1065 019f 751D     		jne	.L90
 501:/home/baikal/workspace/C50/Huawei_IoT_Agent_Tiny_SDK_Linux//lwm2m/core/bootstrap.c ****                                     && result == COAP_204_CHANGED)
 1066              		.loc 1 501 0
 1067 01a1 3C44     		cmpb	$68, %al
 1068 01a3 7519     		jne	.L90
 502:/home/baikal/workspace/C50/Huawei_IoT_Agent_Tiny_SDK_Linux//lwm2m/core/bootstrap.c ****                             {
 503:/home/baikal/workspace/C50/Huawei_IoT_Agent_Tiny_SDK_Linux//lwm2m/core/bootstrap.c ****                                 prv_tagServer(contextP, dataP[i].id);
 1069              		.loc 1 503 0
 1070 01a5 4C037C24 		addq	24(%rsp), %r15
 1070      18
 1071 01aa 410FB777 		movzwl	4(%r15), %esi
 1071      04
 1072 01af 4C89F7   		movq	%r14, %rdi
 1073 01b2 E8000000 		call	prv_tagServer
 1073      00
 1074              	.LVL108:
 1075 01b7 EB05     		jmp	.L90
 1076              	.LVL109:
 1077              	.L100:
 494:/home/baikal/workspace/C50/Huawei_IoT_Agent_Tiny_SDK_Linux//lwm2m/core/bootstrap.c ****                             }
 1078              		.loc 1 494 0
 1079 01b9 BB440000 		movl	$68, %ebx
 1079      00
 1080              	.LVL110:
 1081              	.L90:
 504:/home/baikal/workspace/C50/Huawei_IoT_Agent_Tiny_SDK_Linux//lwm2m/core/bootstrap.c ****                             }
 505:/home/baikal/workspace/C50/Huawei_IoT_Agent_Tiny_SDK_Linux//lwm2m/core/bootstrap.c ****                         }
GAS LISTING /tmp/ccFIbPhJ.s 			page 34


 506:/home/baikal/workspace/C50/Huawei_IoT_Agent_Tiny_SDK_Linux//lwm2m/core/bootstrap.c **** 
 507:/home/baikal/workspace/C50/Huawei_IoT_Agent_Tiny_SDK_Linux//lwm2m/core/bootstrap.c ****                         if(result != COAP_204_CHANGED) // Stop object create or write when result i
 1082              		.loc 1 507 0
 1083 01be 80FB44   		cmpb	$68, %bl
 1084 01c1 7407     		je	.L88
 1085 01c3 EB1C     		jmp	.L91
 1086              	.L99:
 508:/home/baikal/workspace/C50/Huawei_IoT_Agent_Tiny_SDK_Linux//lwm2m/core/bootstrap.c ****                         {
 509:/home/baikal/workspace/C50/Huawei_IoT_Agent_Tiny_SDK_Linux//lwm2m/core/bootstrap.c ****                             break;
 510:/home/baikal/workspace/C50/Huawei_IoT_Agent_Tiny_SDK_Linux//lwm2m/core/bootstrap.c ****                         }
 511:/home/baikal/workspace/C50/Huawei_IoT_Agent_Tiny_SDK_Linux//lwm2m/core/bootstrap.c ****                     }
 512:/home/baikal/workspace/C50/Huawei_IoT_Agent_Tiny_SDK_Linux//lwm2m/core/bootstrap.c ****                     else
 513:/home/baikal/workspace/C50/Huawei_IoT_Agent_Tiny_SDK_Linux//lwm2m/core/bootstrap.c ****                     {
 514:/home/baikal/workspace/C50/Huawei_IoT_Agent_Tiny_SDK_Linux//lwm2m/core/bootstrap.c ****                         result = COAP_400_BAD_REQUEST;
 1087              		.loc 1 514 0
 1088 01c5 BB80FFFF 		movl	$-128, %ebx
 1088      FF
 1089              	.LVL111:
 1090              	.L88:
 485:/home/baikal/workspace/C50/Huawei_IoT_Agent_Tiny_SDK_Linux//lwm2m/core/bootstrap.c ****                 {
 1091              		.loc 1 485 0 discriminator 2
 1092 01ca 4183C501 		addl	$1, %r13d
 1093              	.LVL112:
 1094 01ce EB06     		jmp	.L87
 1095              	.LVL113:
 1096              	.L98:
 1097 01d0 41BD0000 		movl	$0, %r13d
 1097      0000
 1098              	.LVL114:
 1099              	.L87:
 485:/home/baikal/workspace/C50/Huawei_IoT_Agent_Tiny_SDK_Linux//lwm2m/core/bootstrap.c ****                 {
 1100              		.loc 1 485 0 is_stmt 0 discriminator 1
 1101 01d6 443B6C24 		cmpl	12(%rsp), %r13d
 1101      0C
 1102 01db 0F8C55FF 		jl	.L92
 1102      FFFF
 1103              	.L91:
 515:/home/baikal/workspace/C50/Huawei_IoT_Agent_Tiny_SDK_Linux//lwm2m/core/bootstrap.c ****                     }
 516:/home/baikal/workspace/C50/Huawei_IoT_Agent_Tiny_SDK_Linux//lwm2m/core/bootstrap.c ****                 }
 517:/home/baikal/workspace/C50/Huawei_IoT_Agent_Tiny_SDK_Linux//lwm2m/core/bootstrap.c ****                 lwm2m_data_free(size, dataP);
 1104              		.loc 1 517 0 is_stmt 1
 1105 01e1 488B7424 		movq	24(%rsp), %rsi
 1105      18
 1106 01e6 8B7C240C 		movl	12(%rsp), %edi
 1107 01ea E8000000 		call	lwm2m_data_free
 1107      00
 1108              	.LVL115:
 1109 01ef EB68     		jmp	.L81
 1110              	.LVL116:
 1111              	.L96:
 474:/home/baikal/workspace/C50/Huawei_IoT_Agent_Tiny_SDK_Linux//lwm2m/core/bootstrap.c ****             }
 1112              		.loc 1 474 0
 1113 01f1 BB80FFFF 		movl	$-128, %ebx
 1113      FF
 1114              	.LVL117:
 1115 01f6 EB61     		jmp	.L81
 1116              	.LVL118:
GAS LISTING /tmp/ccFIbPhJ.s 			page 35


 1117              	.L97:
 1118 01f8 BB80FFFF 		movl	$-128, %ebx
 1118      FF
 1119              	.LVL119:
 1120 01fd EB5A     		jmp	.L81
 1121              	.LVL120:
 1122              	.L83:
 1123              	.LBE7:
 518:/home/baikal/workspace/C50/Huawei_IoT_Agent_Tiny_SDK_Linux//lwm2m/core/bootstrap.c ****             }
 519:/home/baikal/workspace/C50/Huawei_IoT_Agent_Tiny_SDK_Linux//lwm2m/core/bootstrap.c ****         }
 520:/home/baikal/workspace/C50/Huawei_IoT_Agent_Tiny_SDK_Linux//lwm2m/core/bootstrap.c ****     }
 521:/home/baikal/workspace/C50/Huawei_IoT_Agent_Tiny_SDK_Linux//lwm2m/core/bootstrap.c ****     break;
 522:/home/baikal/workspace/C50/Huawei_IoT_Agent_Tiny_SDK_Linux//lwm2m/core/bootstrap.c **** 
 523:/home/baikal/workspace/C50/Huawei_IoT_Agent_Tiny_SDK_Linux//lwm2m/core/bootstrap.c ****     case COAP_DELETE:
 524:/home/baikal/workspace/C50/Huawei_IoT_Agent_Tiny_SDK_Linux//lwm2m/core/bootstrap.c ****     {
 525:/home/baikal/workspace/C50/Huawei_IoT_Agent_Tiny_SDK_Linux//lwm2m/core/bootstrap.c ****         if (LWM2M_URI_IS_SET_RESOURCE(uriP))
 1124              		.loc 1 525 0
 1125 01ff 41F60424 		testb	$1, (%r12)
 1125      01
 1126 0204 754E     		jne	.L101
 526:/home/baikal/workspace/C50/Huawei_IoT_Agent_Tiny_SDK_Linux//lwm2m/core/bootstrap.c ****         {
 527:/home/baikal/workspace/C50/Huawei_IoT_Agent_Tiny_SDK_Linux//lwm2m/core/bootstrap.c ****             result = COAP_400_BAD_REQUEST;
 528:/home/baikal/workspace/C50/Huawei_IoT_Agent_Tiny_SDK_Linux//lwm2m/core/bootstrap.c ****         }
 529:/home/baikal/workspace/C50/Huawei_IoT_Agent_Tiny_SDK_Linux//lwm2m/core/bootstrap.c ****         else
 530:/home/baikal/workspace/C50/Huawei_IoT_Agent_Tiny_SDK_Linux//lwm2m/core/bootstrap.c ****         {
 531:/home/baikal/workspace/C50/Huawei_IoT_Agent_Tiny_SDK_Linux//lwm2m/core/bootstrap.c ****             result = object_delete(contextP, uriP);
 1127              		.loc 1 531 0
 1128 0206 4C89E6   		movq	%r12, %rsi
 1129 0209 4C89F7   		movq	%r14, %rdi
 1130 020c E8000000 		call	object_delete
 1130      00
 1131              	.LVL121:
 1132 0211 89C3     		movl	%eax, %ebx
 1133              	.LVL122:
 532:/home/baikal/workspace/C50/Huawei_IoT_Agent_Tiny_SDK_Linux//lwm2m/core/bootstrap.c ****             if (uriP->objectId == LWM2M_SECURITY_OBJECT_ID
 1134              		.loc 1 532 0
 1135 0213 6641837C 		cmpw	$0, 2(%r12)
 1135      240200
 1136 021a 753D     		jne	.L81
 533:/home/baikal/workspace/C50/Huawei_IoT_Agent_Tiny_SDK_Linux//lwm2m/core/bootstrap.c ****                     && result == COAP_202_DELETED)
 1137              		.loc 1 533 0
 1138 021c 3C42     		cmpb	$66, %al
 1139 021e 7539     		jne	.L81
 534:/home/baikal/workspace/C50/Huawei_IoT_Agent_Tiny_SDK_Linux//lwm2m/core/bootstrap.c ****             {
 535:/home/baikal/workspace/C50/Huawei_IoT_Agent_Tiny_SDK_Linux//lwm2m/core/bootstrap.c ****                 if (LWM2M_URI_IS_SET_INSTANCE(uriP))
 1140              		.loc 1 535 0
 1141 0220 41F60424 		testb	$2, (%r12)
 1141      02
 1142 0225 7410     		je	.L93
 536:/home/baikal/workspace/C50/Huawei_IoT_Agent_Tiny_SDK_Linux//lwm2m/core/bootstrap.c ****                 {
 537:/home/baikal/workspace/C50/Huawei_IoT_Agent_Tiny_SDK_Linux//lwm2m/core/bootstrap.c ****                     prv_tagServer(contextP, uriP->instanceId);
 1143              		.loc 1 537 0
 1144 0227 410FB774 		movzwl	4(%r12), %esi
 1144      2404
 1145 022d 4C89F7   		movq	%r14, %rdi
 1146 0230 E8000000 		call	prv_tagServer
 1146      00
GAS LISTING /tmp/ccFIbPhJ.s 			page 36


 1147              	.LVL123:
 1148 0235 EB22     		jmp	.L81
 1149              	.LVL124:
 1150              	.L93:
 538:/home/baikal/workspace/C50/Huawei_IoT_Agent_Tiny_SDK_Linux//lwm2m/core/bootstrap.c ****                 }
 539:/home/baikal/workspace/C50/Huawei_IoT_Agent_Tiny_SDK_Linux//lwm2m/core/bootstrap.c ****                 else
 540:/home/baikal/workspace/C50/Huawei_IoT_Agent_Tiny_SDK_Linux//lwm2m/core/bootstrap.c ****                 {
 541:/home/baikal/workspace/C50/Huawei_IoT_Agent_Tiny_SDK_Linux//lwm2m/core/bootstrap.c ****                     prv_tagAllServer(contextP, NULL);
 1151              		.loc 1 541 0
 1152 0237 BE000000 		movl	$0, %esi
 1152      00
 1153 023c 4C89F7   		movq	%r14, %rdi
 1154 023f E8000000 		call	prv_tagAllServer
 1154      00
 1155              	.LVL125:
 1156 0244 EB13     		jmp	.L81
 1157              	.L102:
 542:/home/baikal/workspace/C50/Huawei_IoT_Agent_Tiny_SDK_Linux//lwm2m/core/bootstrap.c ****                 }
 543:/home/baikal/workspace/C50/Huawei_IoT_Agent_Tiny_SDK_Linux//lwm2m/core/bootstrap.c ****             }
 544:/home/baikal/workspace/C50/Huawei_IoT_Agent_Tiny_SDK_Linux//lwm2m/core/bootstrap.c ****         }
 545:/home/baikal/workspace/C50/Huawei_IoT_Agent_Tiny_SDK_Linux//lwm2m/core/bootstrap.c ****     }
 546:/home/baikal/workspace/C50/Huawei_IoT_Agent_Tiny_SDK_Linux//lwm2m/core/bootstrap.c ****     break;
 547:/home/baikal/workspace/C50/Huawei_IoT_Agent_Tiny_SDK_Linux//lwm2m/core/bootstrap.c **** 
 548:/home/baikal/workspace/C50/Huawei_IoT_Agent_Tiny_SDK_Linux//lwm2m/core/bootstrap.c ****     case COAP_GET:
 549:/home/baikal/workspace/C50/Huawei_IoT_Agent_Tiny_SDK_Linux//lwm2m/core/bootstrap.c ****     case COAP_POST:
 550:/home/baikal/workspace/C50/Huawei_IoT_Agent_Tiny_SDK_Linux//lwm2m/core/bootstrap.c ****     default:
 551:/home/baikal/workspace/C50/Huawei_IoT_Agent_Tiny_SDK_Linux//lwm2m/core/bootstrap.c ****         result = COAP_400_BAD_REQUEST;
 1158              		.loc 1 551 0
 1159 0246 BB80FFFF 		movl	$-128, %ebx
 1159      FF
 1160              	.LVL126:
 1161 024b EB0C     		jmp	.L81
 1162              	.LVL127:
 1163              	.L95:
 453:/home/baikal/workspace/C50/Huawei_IoT_Agent_Tiny_SDK_Linux//lwm2m/core/bootstrap.c ****                 }
 1164              		.loc 1 453 0
 1165 024d BB440000 		movl	$68, %ebx
 1165      00
 1166 0252 EB05     		jmp	.L81
 1167              	.LVL128:
 1168              	.L101:
 527:/home/baikal/workspace/C50/Huawei_IoT_Agent_Tiny_SDK_Linux//lwm2m/core/bootstrap.c ****         }
 1169              		.loc 1 527 0
 1170 0254 BB80FFFF 		movl	$-128, %ebx
 1170      FF
 1171              	.LVL129:
 1172              	.L81:
 552:/home/baikal/workspace/C50/Huawei_IoT_Agent_Tiny_SDK_Linux//lwm2m/core/bootstrap.c ****         break;
 553:/home/baikal/workspace/C50/Huawei_IoT_Agent_Tiny_SDK_Linux//lwm2m/core/bootstrap.c ****     }
 554:/home/baikal/workspace/C50/Huawei_IoT_Agent_Tiny_SDK_Linux//lwm2m/core/bootstrap.c **** 
 555:/home/baikal/workspace/C50/Huawei_IoT_Agent_Tiny_SDK_Linux//lwm2m/core/bootstrap.c ****     if (result == COAP_202_DELETED
 1173              		.loc 1 555 0
 1174 0259 80FB42   		cmpb	$66, %bl
 1175 025c 0F94C2   		sete	%dl
 556:/home/baikal/workspace/C50/Huawei_IoT_Agent_Tiny_SDK_Linux//lwm2m/core/bootstrap.c ****             || result == COAP_204_CHANGED)
 1176              		.loc 1 556 0
 1177 025f 80FB44   		cmpb	$68, %bl
GAS LISTING /tmp/ccFIbPhJ.s 			page 37


 1178 0262 0F94C0   		sete	%al
 555:/home/baikal/workspace/C50/Huawei_IoT_Agent_Tiny_SDK_Linux//lwm2m/core/bootstrap.c ****             || result == COAP_204_CHANGED)
 1179              		.loc 1 555 0
 1180 0265 08C2     		orb	%al, %dl
 1181 0267 7414     		je	.L80
 557:/home/baikal/workspace/C50/Huawei_IoT_Agent_Tiny_SDK_Linux//lwm2m/core/bootstrap.c ****     {
 558:/home/baikal/workspace/C50/Huawei_IoT_Agent_Tiny_SDK_Linux//lwm2m/core/bootstrap.c ****         if (serverP->status != STATE_BS_PENDING)
 1182              		.loc 1 558 0
 1183 0269 837D300A 		cmpl	$10, 48(%rbp)
 1184 026d 740E     		je	.L80
 559:/home/baikal/workspace/C50/Huawei_IoT_Agent_Tiny_SDK_Linux//lwm2m/core/bootstrap.c ****         {
 560:/home/baikal/workspace/C50/Huawei_IoT_Agent_Tiny_SDK_Linux//lwm2m/core/bootstrap.c ****             serverP->status = STATE_BS_PENDING;
 1185              		.loc 1 560 0
 1186 026f C745300A 		movl	$10, 48(%rbp)
 1186      000000
 561:/home/baikal/workspace/C50/Huawei_IoT_Agent_Tiny_SDK_Linux//lwm2m/core/bootstrap.c ****             contextP->state = STATE_BOOTSTRAPPING;
 1187              		.loc 1 561 0
 1188 0276 41C70602 		movl	$2, (%r14)
 1188      000000
 1189              	.L80:
 562:/home/baikal/workspace/C50/Huawei_IoT_Agent_Tiny_SDK_Linux//lwm2m/core/bootstrap.c ****         }
 563:/home/baikal/workspace/C50/Huawei_IoT_Agent_Tiny_SDK_Linux//lwm2m/core/bootstrap.c ****     }
 564:/home/baikal/workspace/C50/Huawei_IoT_Agent_Tiny_SDK_Linux//lwm2m/core/bootstrap.c ****     LOG_ARG("Server status: %s", STR_STATUS(serverP->status));
 565:/home/baikal/workspace/C50/Huawei_IoT_Agent_Tiny_SDK_Linux//lwm2m/core/bootstrap.c **** 
 566:/home/baikal/workspace/C50/Huawei_IoT_Agent_Tiny_SDK_Linux//lwm2m/core/bootstrap.c ****     return result;
 567:/home/baikal/workspace/C50/Huawei_IoT_Agent_Tiny_SDK_Linux//lwm2m/core/bootstrap.c **** }
 1190              		.loc 1 567 0
 1191 027d 89D8     		movl	%ebx, %eax
 1192 027f 4883C428 		addq	$40, %rsp
 1193              	.LCFI56:
 1194              		.cfi_def_cfa_offset 56
 1195 0283 5B       		popq	%rbx
 1196              	.LCFI57:
 1197              		.cfi_def_cfa_offset 48
 1198              	.LVL130:
 1199 0284 5D       		popq	%rbp
 1200              	.LCFI58:
 1201              		.cfi_def_cfa_offset 40
 1202              	.LVL131:
 1203 0285 415C     		popq	%r12
 1204              	.LCFI59:
 1205              		.cfi_def_cfa_offset 32
 1206              	.LVL132:
 1207 0287 415D     		popq	%r13
 1208              	.LCFI60:
 1209              		.cfi_def_cfa_offset 24
 1210 0289 415E     		popq	%r14
 1211              	.LCFI61:
 1212              		.cfi_def_cfa_offset 16
 1213              	.LVL133:
 1214 028b 415F     		popq	%r15
 1215              	.LCFI62:
 1216              		.cfi_def_cfa_offset 8
 1217 028d C3       		ret
 1218              		.cfi_endproc
 1219              	.LFE73:
 1221              		.section	.text.bootstrap_handleDeleteAll,"ax",@progbits
GAS LISTING /tmp/ccFIbPhJ.s 			page 38


 1222              		.globl	bootstrap_handleDeleteAll
 1224              	bootstrap_handleDeleteAll:
 1225              	.LFB74:
 568:/home/baikal/workspace/C50/Huawei_IoT_Agent_Tiny_SDK_Linux//lwm2m/core/bootstrap.c **** 
 569:/home/baikal/workspace/C50/Huawei_IoT_Agent_Tiny_SDK_Linux//lwm2m/core/bootstrap.c **** uint8_t bootstrap_handleDeleteAll(lwm2m_context_t *contextP,
 570:/home/baikal/workspace/C50/Huawei_IoT_Agent_Tiny_SDK_Linux//lwm2m/core/bootstrap.c ****                                   void *fromSessionH)
 571:/home/baikal/workspace/C50/Huawei_IoT_Agent_Tiny_SDK_Linux//lwm2m/core/bootstrap.c **** {
 1226              		.loc 1 571 0
 1227              		.cfi_startproc
 1228              	.LVL134:
 1229 0000 4155     		pushq	%r13
 1230              	.LCFI63:
 1231              		.cfi_def_cfa_offset 16
 1232              		.cfi_offset 13, -16
 1233 0002 4154     		pushq	%r12
 1234              	.LCFI64:
 1235              		.cfi_def_cfa_offset 24
 1236              		.cfi_offset 12, -24
 1237 0004 55       		pushq	%rbp
 1238              	.LCFI65:
 1239              		.cfi_def_cfa_offset 32
 1240              		.cfi_offset 6, -32
 1241 0005 53       		pushq	%rbx
 1242              	.LCFI66:
 1243              		.cfi_def_cfa_offset 40
 1244              		.cfi_offset 3, -40
 1245 0006 4883EC18 		subq	$24, %rsp
 1246              	.LCFI67:
 1247              		.cfi_def_cfa_offset 64
 1248 000a 4989FD   		movq	%rdi, %r13
 572:/home/baikal/workspace/C50/Huawei_IoT_Agent_Tiny_SDK_Linux//lwm2m/core/bootstrap.c ****     lwm2m_server_t *serverP;
 573:/home/baikal/workspace/C50/Huawei_IoT_Agent_Tiny_SDK_Linux//lwm2m/core/bootstrap.c ****     uint8_t result;
 574:/home/baikal/workspace/C50/Huawei_IoT_Agent_Tiny_SDK_Linux//lwm2m/core/bootstrap.c ****     lwm2m_object_t *objectP;
 575:/home/baikal/workspace/C50/Huawei_IoT_Agent_Tiny_SDK_Linux//lwm2m/core/bootstrap.c **** 
 576:/home/baikal/workspace/C50/Huawei_IoT_Agent_Tiny_SDK_Linux//lwm2m/core/bootstrap.c ****     LOG("Entering");
 577:/home/baikal/workspace/C50/Huawei_IoT_Agent_Tiny_SDK_Linux//lwm2m/core/bootstrap.c ****     serverP = utils_findBootstrapServer(contextP, fromSessionH);
 1249              		.loc 1 577 0
 1250 000d E8000000 		call	utils_findBootstrapServer
 1250      00
 1251              	.LVL135:
 578:/home/baikal/workspace/C50/Huawei_IoT_Agent_Tiny_SDK_Linux//lwm2m/core/bootstrap.c ****     if (serverP == NULL) return COAP_IGNORE;
 1252              		.loc 1 578 0
 1253 0012 4885C0   		testq	%rax, %rax
 1254 0015 0F84B500 		je	.L114
 1254      0000
 1255 001b 4989C4   		movq	%rax, %r12
 579:/home/baikal/workspace/C50/Huawei_IoT_Agent_Tiny_SDK_Linux//lwm2m/core/bootstrap.c ****     result = prv_checkServerStatus(serverP);
 1256              		.loc 1 579 0
 1257 001e 4889C7   		movq	%rax, %rdi
 1258 0021 E8000000 		call	prv_checkServerStatus
 1258      00
 1259              	.LVL136:
 580:/home/baikal/workspace/C50/Huawei_IoT_Agent_Tiny_SDK_Linux//lwm2m/core/bootstrap.c ****     if (result != COAP_NO_ERROR) return result;
 1260              		.loc 1 580 0
 1261 0026 84C0     		testb	%al, %al
 1262 0028 0F85A700 		jne	.L105
 1262      0000
GAS LISTING /tmp/ccFIbPhJ.s 			page 39


 1263              	.LVL137:
 581:/home/baikal/workspace/C50/Huawei_IoT_Agent_Tiny_SDK_Linux//lwm2m/core/bootstrap.c **** 
 582:/home/baikal/workspace/C50/Huawei_IoT_Agent_Tiny_SDK_Linux//lwm2m/core/bootstrap.c ****     result = COAP_202_DELETED;
 583:/home/baikal/workspace/C50/Huawei_IoT_Agent_Tiny_SDK_Linux//lwm2m/core/bootstrap.c ****     for (objectP = contextP->objectList; objectP != NULL; objectP = objectP->next)
 1264              		.loc 1 583 0
 1265 002e 498B6D38 		movq	56(%r13), %rbp
 1266              	.LVL138:
 582:/home/baikal/workspace/C50/Huawei_IoT_Agent_Tiny_SDK_Linux//lwm2m/core/bootstrap.c ****     for (objectP = contextP->objectList; objectP != NULL; objectP = objectP->next)
 1267              		.loc 1 582 0
 1268 0032 BB420000 		movl	$66, %ebx
 1268      00
 1269              		.loc 1 583 0
 1270 0037 E9870000 		jmp	.L106
 1270      00
 1271              	.LVL139:
 1272              	.L113:
 1273              	.LBB8:
 1274              	.LBB9:
 1275              	.LBB10:
 1276              		.file 2 "/usr/include/x86_64-linux-gnu/bits/string3.h"
   1:/usr/include/x86_64-linux-gnu/bits/string3.h **** /* Copyright (C) 2004-2016 Free Software Foundation, Inc.
   2:/usr/include/x86_64-linux-gnu/bits/string3.h ****    This file is part of the GNU C Library.
   3:/usr/include/x86_64-linux-gnu/bits/string3.h **** 
   4:/usr/include/x86_64-linux-gnu/bits/string3.h ****    The GNU C Library is free software; you can redistribute it and/or
   5:/usr/include/x86_64-linux-gnu/bits/string3.h ****    modify it under the terms of the GNU Lesser General Public
   6:/usr/include/x86_64-linux-gnu/bits/string3.h ****    License as published by the Free Software Foundation; either
   7:/usr/include/x86_64-linux-gnu/bits/string3.h ****    version 2.1 of the License, or (at your option) any later version.
   8:/usr/include/x86_64-linux-gnu/bits/string3.h **** 
   9:/usr/include/x86_64-linux-gnu/bits/string3.h ****    The GNU C Library is distributed in the hope that it will be useful,
  10:/usr/include/x86_64-linux-gnu/bits/string3.h ****    but WITHOUT ANY WARRANTY; without even the implied warranty of
  11:/usr/include/x86_64-linux-gnu/bits/string3.h ****    MERCHANTABILITY or FITNESS FOR A PARTICULAR PURPOSE.  See the GNU
  12:/usr/include/x86_64-linux-gnu/bits/string3.h ****    Lesser General Public License for more details.
  13:/usr/include/x86_64-linux-gnu/bits/string3.h **** 
  14:/usr/include/x86_64-linux-gnu/bits/string3.h ****    You should have received a copy of the GNU Lesser General Public
  15:/usr/include/x86_64-linux-gnu/bits/string3.h ****    License along with the GNU C Library; if not, see
  16:/usr/include/x86_64-linux-gnu/bits/string3.h ****    <http://www.gnu.org/licenses/>.  */
  17:/usr/include/x86_64-linux-gnu/bits/string3.h **** 
  18:/usr/include/x86_64-linux-gnu/bits/string3.h **** #ifndef _STRING_H
  19:/usr/include/x86_64-linux-gnu/bits/string3.h **** # error "Never use <bits/string3.h> directly; include <string.h> instead."
  20:/usr/include/x86_64-linux-gnu/bits/string3.h **** #endif
  21:/usr/include/x86_64-linux-gnu/bits/string3.h **** 
  22:/usr/include/x86_64-linux-gnu/bits/string3.h **** #if !__GNUC_PREREQ (5,0)
  23:/usr/include/x86_64-linux-gnu/bits/string3.h **** __warndecl (__warn_memset_zero_len,
  24:/usr/include/x86_64-linux-gnu/bits/string3.h **** 	    "memset used with constant zero length parameter; this could be due to transposed parameters")
  25:/usr/include/x86_64-linux-gnu/bits/string3.h **** #endif
  26:/usr/include/x86_64-linux-gnu/bits/string3.h **** 
  27:/usr/include/x86_64-linux-gnu/bits/string3.h **** #ifndef __cplusplus
  28:/usr/include/x86_64-linux-gnu/bits/string3.h **** /* XXX This is temporarily.  We should not redefine any of the symbols
  29:/usr/include/x86_64-linux-gnu/bits/string3.h ****    and instead integrate the error checking into the original
  30:/usr/include/x86_64-linux-gnu/bits/string3.h ****    definitions.  */
  31:/usr/include/x86_64-linux-gnu/bits/string3.h **** # undef memcpy
  32:/usr/include/x86_64-linux-gnu/bits/string3.h **** # undef memmove
  33:/usr/include/x86_64-linux-gnu/bits/string3.h **** # undef memset
  34:/usr/include/x86_64-linux-gnu/bits/string3.h **** # undef strcat
  35:/usr/include/x86_64-linux-gnu/bits/string3.h **** # undef strcpy
  36:/usr/include/x86_64-linux-gnu/bits/string3.h **** # undef strncat
  37:/usr/include/x86_64-linux-gnu/bits/string3.h **** # undef strncpy
GAS LISTING /tmp/ccFIbPhJ.s 			page 40


  38:/usr/include/x86_64-linux-gnu/bits/string3.h **** # ifdef __USE_GNU
  39:/usr/include/x86_64-linux-gnu/bits/string3.h **** #  undef mempcpy
  40:/usr/include/x86_64-linux-gnu/bits/string3.h **** #  undef stpcpy
  41:/usr/include/x86_64-linux-gnu/bits/string3.h **** # endif
  42:/usr/include/x86_64-linux-gnu/bits/string3.h **** # ifdef __USE_MISC
  43:/usr/include/x86_64-linux-gnu/bits/string3.h **** #  undef bcopy
  44:/usr/include/x86_64-linux-gnu/bits/string3.h **** #  undef bzero
  45:/usr/include/x86_64-linux-gnu/bits/string3.h **** # endif
  46:/usr/include/x86_64-linux-gnu/bits/string3.h **** #endif
  47:/usr/include/x86_64-linux-gnu/bits/string3.h **** 
  48:/usr/include/x86_64-linux-gnu/bits/string3.h **** 
  49:/usr/include/x86_64-linux-gnu/bits/string3.h **** __fortify_function void *
  50:/usr/include/x86_64-linux-gnu/bits/string3.h **** __NTH (memcpy (void *__restrict __dest, const void *__restrict __src,
  51:/usr/include/x86_64-linux-gnu/bits/string3.h **** 	       size_t __len))
  52:/usr/include/x86_64-linux-gnu/bits/string3.h **** {
  53:/usr/include/x86_64-linux-gnu/bits/string3.h ****   return __builtin___memcpy_chk (__dest, __src, __len, __bos0 (__dest));
  54:/usr/include/x86_64-linux-gnu/bits/string3.h **** }
  55:/usr/include/x86_64-linux-gnu/bits/string3.h **** 
  56:/usr/include/x86_64-linux-gnu/bits/string3.h **** __fortify_function void *
  57:/usr/include/x86_64-linux-gnu/bits/string3.h **** __NTH (memmove (void *__dest, const void *__src, size_t __len))
  58:/usr/include/x86_64-linux-gnu/bits/string3.h **** {
  59:/usr/include/x86_64-linux-gnu/bits/string3.h ****   return __builtin___memmove_chk (__dest, __src, __len, __bos0 (__dest));
  60:/usr/include/x86_64-linux-gnu/bits/string3.h **** }
  61:/usr/include/x86_64-linux-gnu/bits/string3.h **** 
  62:/usr/include/x86_64-linux-gnu/bits/string3.h **** #ifdef __USE_GNU
  63:/usr/include/x86_64-linux-gnu/bits/string3.h **** __fortify_function void *
  64:/usr/include/x86_64-linux-gnu/bits/string3.h **** __NTH (mempcpy (void *__restrict __dest, const void *__restrict __src,
  65:/usr/include/x86_64-linux-gnu/bits/string3.h **** 		size_t __len))
  66:/usr/include/x86_64-linux-gnu/bits/string3.h **** {
  67:/usr/include/x86_64-linux-gnu/bits/string3.h ****   return __builtin___mempcpy_chk (__dest, __src, __len, __bos0 (__dest));
  68:/usr/include/x86_64-linux-gnu/bits/string3.h **** }
  69:/usr/include/x86_64-linux-gnu/bits/string3.h **** #endif
  70:/usr/include/x86_64-linux-gnu/bits/string3.h **** 
  71:/usr/include/x86_64-linux-gnu/bits/string3.h **** 
  72:/usr/include/x86_64-linux-gnu/bits/string3.h **** /* The first two tests here help to catch a somewhat common problem
  73:/usr/include/x86_64-linux-gnu/bits/string3.h ****    where the second and third parameter are transposed.  This is
  74:/usr/include/x86_64-linux-gnu/bits/string3.h ****    especially problematic if the intended fill value is zero.  In this
  75:/usr/include/x86_64-linux-gnu/bits/string3.h ****    case no work is done at all.  We detect these problems by referring
  76:/usr/include/x86_64-linux-gnu/bits/string3.h ****    non-existing functions.  */
  77:/usr/include/x86_64-linux-gnu/bits/string3.h **** __fortify_function void *
  78:/usr/include/x86_64-linux-gnu/bits/string3.h **** __NTH (memset (void *__dest, int __ch, size_t __len))
  79:/usr/include/x86_64-linux-gnu/bits/string3.h **** {
  80:/usr/include/x86_64-linux-gnu/bits/string3.h ****   /* GCC-5.0 and newer implements these checks in the compiler, so we don't
  81:/usr/include/x86_64-linux-gnu/bits/string3.h ****      need them here.  */
  82:/usr/include/x86_64-linux-gnu/bits/string3.h **** #if !__GNUC_PREREQ (5,0)
  83:/usr/include/x86_64-linux-gnu/bits/string3.h ****   if (__builtin_constant_p (__len) && __len == 0
  84:/usr/include/x86_64-linux-gnu/bits/string3.h ****       && (!__builtin_constant_p (__ch) || __ch != 0))
  85:/usr/include/x86_64-linux-gnu/bits/string3.h ****     {
  86:/usr/include/x86_64-linux-gnu/bits/string3.h ****       __warn_memset_zero_len ();
  87:/usr/include/x86_64-linux-gnu/bits/string3.h ****       return __dest;
  88:/usr/include/x86_64-linux-gnu/bits/string3.h ****     }
  89:/usr/include/x86_64-linux-gnu/bits/string3.h **** #endif
  90:/usr/include/x86_64-linux-gnu/bits/string3.h ****   return __builtin___memset_chk (__dest, __ch, __len, __bos0 (__dest));
 1277              		.loc 2 90 0
 1278 003c 48C70424 		movq	$0, (%rsp)
 1278      00000000 
 1279              	.LVL140:
GAS LISTING /tmp/ccFIbPhJ.s 			page 41


 1280              	.LBE10:
 1281              	.LBE9:
 584:/home/baikal/workspace/C50/Huawei_IoT_Agent_Tiny_SDK_Linux//lwm2m/core/bootstrap.c ****     {
 585:/home/baikal/workspace/C50/Huawei_IoT_Agent_Tiny_SDK_Linux//lwm2m/core/bootstrap.c ****         lwm2m_uri_t uri;
 586:/home/baikal/workspace/C50/Huawei_IoT_Agent_Tiny_SDK_Linux//lwm2m/core/bootstrap.c **** 
 587:/home/baikal/workspace/C50/Huawei_IoT_Agent_Tiny_SDK_Linux//lwm2m/core/bootstrap.c ****         memset(&uri, 0, sizeof(lwm2m_uri_t));
 588:/home/baikal/workspace/C50/Huawei_IoT_Agent_Tiny_SDK_Linux//lwm2m/core/bootstrap.c ****         uri.flag = LWM2M_URI_FLAG_OBJECT_ID;
 1282              		.loc 1 588 0
 1283 0044 C6042404 		movb	$4, (%rsp)
 589:/home/baikal/workspace/C50/Huawei_IoT_Agent_Tiny_SDK_Linux//lwm2m/core/bootstrap.c ****         uri.objectId = objectP->objID;
 1284              		.loc 1 589 0
 1285 0048 0FB74508 		movzwl	8(%rbp), %eax
 1286 004c 66894424 		movw	%ax, 2(%rsp)
 1286      02
 590:/home/baikal/workspace/C50/Huawei_IoT_Agent_Tiny_SDK_Linux//lwm2m/core/bootstrap.c **** 
 591:/home/baikal/workspace/C50/Huawei_IoT_Agent_Tiny_SDK_Linux//lwm2m/core/bootstrap.c ****         if (objectP->objID == LWM2M_SECURITY_OBJECT_ID)
 1287              		.loc 1 591 0
 1288 0051 6685C0   		testw	%ax, %ax
 1289 0054 7553     		jne	.L107
 1290              	.LBB11:
 592:/home/baikal/workspace/C50/Huawei_IoT_Agent_Tiny_SDK_Linux//lwm2m/core/bootstrap.c ****         {
 593:/home/baikal/workspace/C50/Huawei_IoT_Agent_Tiny_SDK_Linux//lwm2m/core/bootstrap.c ****             lwm2m_list_t *instanceP;
 594:/home/baikal/workspace/C50/Huawei_IoT_Agent_Tiny_SDK_Linux//lwm2m/core/bootstrap.c **** 
 595:/home/baikal/workspace/C50/Huawei_IoT_Agent_Tiny_SDK_Linux//lwm2m/core/bootstrap.c ****             instanceP = objectP->instanceList;
 1291              		.loc 1 595 0
 1292 0056 488B5510 		movq	16(%rbp), %rdx
 1293              	.LVL141:
 596:/home/baikal/workspace/C50/Huawei_IoT_Agent_Tiny_SDK_Linux//lwm2m/core/bootstrap.c ****             while (NULL != instanceP
 1294              		.loc 1 596 0
 1295 005a EB2B     		jmp	.L108
 1296              	.L111:
 597:/home/baikal/workspace/C50/Huawei_IoT_Agent_Tiny_SDK_Linux//lwm2m/core/bootstrap.c ****                     && result == COAP_202_DELETED)
 598:/home/baikal/workspace/C50/Huawei_IoT_Agent_Tiny_SDK_Linux//lwm2m/core/bootstrap.c ****             {
 599:/home/baikal/workspace/C50/Huawei_IoT_Agent_Tiny_SDK_Linux//lwm2m/core/bootstrap.c ****                 if (instanceP->id == serverP->secObjInstID)
 1297              		.loc 1 599 0
 1298 005c 0FB74A08 		movzwl	8(%rdx), %ecx
 1299 0060 66413B4C 		cmpw	8(%r12), %cx
 1299      2408
 1300 0066 7505     		jne	.L109
 600:/home/baikal/workspace/C50/Huawei_IoT_Agent_Tiny_SDK_Linux//lwm2m/core/bootstrap.c ****                 {
 601:/home/baikal/workspace/C50/Huawei_IoT_Agent_Tiny_SDK_Linux//lwm2m/core/bootstrap.c ****                     instanceP = instanceP->next;
 1301              		.loc 1 601 0
 1302 0068 488B12   		movq	(%rdx), %rdx
 1303              	.LVL142:
 1304 006b EB1A     		jmp	.L108
 1305              	.L109:
 602:/home/baikal/workspace/C50/Huawei_IoT_Agent_Tiny_SDK_Linux//lwm2m/core/bootstrap.c ****                 }
 603:/home/baikal/workspace/C50/Huawei_IoT_Agent_Tiny_SDK_Linux//lwm2m/core/bootstrap.c ****                 else
 604:/home/baikal/workspace/C50/Huawei_IoT_Agent_Tiny_SDK_Linux//lwm2m/core/bootstrap.c ****                 {
 605:/home/baikal/workspace/C50/Huawei_IoT_Agent_Tiny_SDK_Linux//lwm2m/core/bootstrap.c ****                     uri.flag = LWM2M_URI_FLAG_OBJECT_ID | LWM2M_URI_FLAG_INSTANCE_ID;
 1306              		.loc 1 605 0
 1307 006d C6042406 		movb	$6, (%rsp)
 606:/home/baikal/workspace/C50/Huawei_IoT_Agent_Tiny_SDK_Linux//lwm2m/core/bootstrap.c ****                     uri.instanceId = instanceP->id;
 1308              		.loc 1 606 0
 1309 0071 66894C24 		movw	%cx, 4(%rsp)
 1309      04
 607:/home/baikal/workspace/C50/Huawei_IoT_Agent_Tiny_SDK_Linux//lwm2m/core/bootstrap.c ****                     result = object_delete(contextP, &uri);
GAS LISTING /tmp/ccFIbPhJ.s 			page 42


 1310              		.loc 1 607 0
 1311 0076 4889E6   		movq	%rsp, %rsi
 1312 0079 4C89EF   		movq	%r13, %rdi
 1313 007c E8000000 		call	object_delete
 1313      00
 1314              	.LVL143:
 1315 0081 89C3     		movl	%eax, %ebx
 1316              	.LVL144:
 608:/home/baikal/workspace/C50/Huawei_IoT_Agent_Tiny_SDK_Linux//lwm2m/core/bootstrap.c ****                     instanceP = objectP->instanceList;
 1317              		.loc 1 608 0
 1318 0083 488B5510 		movq	16(%rbp), %rdx
 1319              	.LVL145:
 1320              	.L108:
 596:/home/baikal/workspace/C50/Huawei_IoT_Agent_Tiny_SDK_Linux//lwm2m/core/bootstrap.c ****                     && result == COAP_202_DELETED)
 1321              		.loc 1 596 0
 1322 0087 4885D2   		testq	%rdx, %rdx
 1323 008a 0F95C1   		setne	%cl
 597:/home/baikal/workspace/C50/Huawei_IoT_Agent_Tiny_SDK_Linux//lwm2m/core/bootstrap.c ****             {
 1324              		.loc 1 597 0
 1325 008d 80FB42   		cmpb	$66, %bl
 1326 0090 0F94C0   		sete	%al
 596:/home/baikal/workspace/C50/Huawei_IoT_Agent_Tiny_SDK_Linux//lwm2m/core/bootstrap.c ****                     && result == COAP_202_DELETED)
 1327              		.loc 1 596 0
 1328 0093 84C1     		testb	%al, %cl
 1329 0095 75C5     		jne	.L111
 609:/home/baikal/workspace/C50/Huawei_IoT_Agent_Tiny_SDK_Linux//lwm2m/core/bootstrap.c ****                 }
 610:/home/baikal/workspace/C50/Huawei_IoT_Agent_Tiny_SDK_Linux//lwm2m/core/bootstrap.c ****             }
 611:/home/baikal/workspace/C50/Huawei_IoT_Agent_Tiny_SDK_Linux//lwm2m/core/bootstrap.c ****             if (result == COAP_202_DELETED)
 1330              		.loc 1 611 0
 1331 0097 80FB42   		cmpb	$66, %bl
 1332 009a 7523     		jne	.L112
 612:/home/baikal/workspace/C50/Huawei_IoT_Agent_Tiny_SDK_Linux//lwm2m/core/bootstrap.c ****             {
 613:/home/baikal/workspace/C50/Huawei_IoT_Agent_Tiny_SDK_Linux//lwm2m/core/bootstrap.c ****                 prv_tagAllServer(contextP, serverP);
 1333              		.loc 1 613 0
 1334 009c 4C89E6   		movq	%r12, %rsi
 1335 009f 4C89EF   		movq	%r13, %rdi
 1336 00a2 E8000000 		call	prv_tagAllServer
 1336      00
 1337              	.LVL146:
 1338 00a7 EB16     		jmp	.L112
 1339              	.L107:
 1340              	.LBE11:
 614:/home/baikal/workspace/C50/Huawei_IoT_Agent_Tiny_SDK_Linux//lwm2m/core/bootstrap.c ****             }
 615:/home/baikal/workspace/C50/Huawei_IoT_Agent_Tiny_SDK_Linux//lwm2m/core/bootstrap.c ****         }
 616:/home/baikal/workspace/C50/Huawei_IoT_Agent_Tiny_SDK_Linux//lwm2m/core/bootstrap.c ****         else
 617:/home/baikal/workspace/C50/Huawei_IoT_Agent_Tiny_SDK_Linux//lwm2m/core/bootstrap.c ****         {
 618:/home/baikal/workspace/C50/Huawei_IoT_Agent_Tiny_SDK_Linux//lwm2m/core/bootstrap.c ****             result = object_delete(contextP, &uri);
 1341              		.loc 1 618 0
 1342 00a9 4889E6   		movq	%rsp, %rsi
 1343 00ac 4C89EF   		movq	%r13, %rdi
 1344 00af E8000000 		call	object_delete
 1344      00
 1345              	.LVL147:
 1346 00b4 89C3     		movl	%eax, %ebx
 1347              	.LVL148:
 619:/home/baikal/workspace/C50/Huawei_IoT_Agent_Tiny_SDK_Linux//lwm2m/core/bootstrap.c ****             if (result == COAP_405_METHOD_NOT_ALLOWED)
 1348              		.loc 1 619 0
GAS LISTING /tmp/ccFIbPhJ.s 			page 43


 1349 00b6 3C85     		cmpb	$-123, %al
 1350 00b8 7505     		jne	.L112
 620:/home/baikal/workspace/C50/Huawei_IoT_Agent_Tiny_SDK_Linux//lwm2m/core/bootstrap.c ****             {
 621:/home/baikal/workspace/C50/Huawei_IoT_Agent_Tiny_SDK_Linux//lwm2m/core/bootstrap.c ****                 // Fake a successful deletion for static objects like the Device object.
 622:/home/baikal/workspace/C50/Huawei_IoT_Agent_Tiny_SDK_Linux//lwm2m/core/bootstrap.c ****                 result = COAP_202_DELETED;
 1351              		.loc 1 622 0
 1352 00ba BB420000 		movl	$66, %ebx
 1352      00
 1353              	.LVL149:
 1354              	.L112:
 1355              	.LBE8:
 583:/home/baikal/workspace/C50/Huawei_IoT_Agent_Tiny_SDK_Linux//lwm2m/core/bootstrap.c ****     {
 1356              		.loc 1 583 0 discriminator 1
 1357 00bf 488B6D00 		movq	0(%rbp), %rbp
 1358              	.LVL150:
 1359              	.L106:
 583:/home/baikal/workspace/C50/Huawei_IoT_Agent_Tiny_SDK_Linux//lwm2m/core/bootstrap.c ****     {
 1360              		.loc 1 583 0 is_stmt 0 discriminator 2
 1361 00c3 4885ED   		testq	%rbp, %rbp
 1362 00c6 0F8570FF 		jne	.L113
 1362      FFFF
 623:/home/baikal/workspace/C50/Huawei_IoT_Agent_Tiny_SDK_Linux//lwm2m/core/bootstrap.c ****             }
 624:/home/baikal/workspace/C50/Huawei_IoT_Agent_Tiny_SDK_Linux//lwm2m/core/bootstrap.c ****         }
 625:/home/baikal/workspace/C50/Huawei_IoT_Agent_Tiny_SDK_Linux//lwm2m/core/bootstrap.c ****     }
 626:/home/baikal/workspace/C50/Huawei_IoT_Agent_Tiny_SDK_Linux//lwm2m/core/bootstrap.c **** 
 627:/home/baikal/workspace/C50/Huawei_IoT_Agent_Tiny_SDK_Linux//lwm2m/core/bootstrap.c ****     return result;
 1363              		.loc 1 627 0 is_stmt 1
 1364 00cc 89D8     		movl	%ebx, %eax
 1365 00ce EB05     		jmp	.L105
 1366              	.LVL151:
 1367              	.L114:
 578:/home/baikal/workspace/C50/Huawei_IoT_Agent_Tiny_SDK_Linux//lwm2m/core/bootstrap.c ****     result = prv_checkServerStatus(serverP);
 1368              		.loc 1 578 0
 1369 00d0 B8010000 		movl	$1, %eax
 1369      00
 1370              	.LVL152:
 1371              	.L105:
 628:/home/baikal/workspace/C50/Huawei_IoT_Agent_Tiny_SDK_Linux//lwm2m/core/bootstrap.c **** }
 1372              		.loc 1 628 0
 1373 00d5 4883C418 		addq	$24, %rsp
 1374              	.LCFI68:
 1375              		.cfi_def_cfa_offset 40
 1376 00d9 5B       		popq	%rbx
 1377              	.LCFI69:
 1378              		.cfi_def_cfa_offset 32
 1379 00da 5D       		popq	%rbp
 1380              	.LCFI70:
 1381              		.cfi_def_cfa_offset 24
 1382 00db 415C     		popq	%r12
 1383              	.LCFI71:
 1384              		.cfi_def_cfa_offset 16
 1385 00dd 415D     		popq	%r13
 1386              	.LCFI72:
 1387              		.cfi_def_cfa_offset 8
 1388              	.LVL153:
 1389 00df C3       		ret
 1390              		.cfi_endproc
GAS LISTING /tmp/ccFIbPhJ.s 			page 44


 1391              	.LFE74:
 1393              		.section	.rodata.cst8,"aM",@progbits,8
 1394              		.align 8
 1395              	.LC2:
 1396 0000 00000000 		.long	0
 1397 0004 00C6B840 		.long	1085851136
 1398              		.text
 1399              	.Letext0:
 1400              		.file 3 "/usr/include/stdint.h"
 1401              		.file 4 "/usr/lib/gcc/x86_64-linux-gnu/5/include/stddef.h"
 1402              		.file 5 "/usr/include/x86_64-linux-gnu/bits/types.h"
 1403              		.file 6 "/usr/include/time.h"
 1404              		.file 7 "/home/baikal/workspace/C50/Huawei_IoT_Agent_Tiny_SDK_Linux//lwm2m/core/er-coap-13/er-coap
 1405              		.file 8 "/usr/include/libio.h"
 1406              		.file 9 "/home/baikal/workspace/C50/Huawei_IoT_Agent_Tiny_SDK_Linux//lwm2m/core/liblwm2m.h"
 1407              		.file 10 "/usr/include/stdio.h"
 1408              		.file 11 "/home/baikal/workspace/C50/Huawei_IoT_Agent_Tiny_SDK_Linux//lwm2m/core/internals.h"
GAS LISTING /tmp/ccFIbPhJ.s 			page 45

