GAS LISTING /tmp/ccEyAHyj.s 			page 1


   1              		.file	"commandline.c"
   2              		.text
   3              	.Ltext0:
   4              		.section	.rodata.str1.1,"aMS",@progbits,1
   5              	.LC0:
   6 0000 434F4150 		.string	"COAP_NO_ERROR"
   6      5F4E4F5F 
   6      4552524F 
   6      5200
   7              	.LC1:
   8 000e 434F4150 		.string	"COAP_IGNORE"
   8      5F49474E 
   8      4F524500 
   9              	.LC2:
  10 001a 434F4150 		.string	"COAP_201_CREATED"
  10      5F323031 
  10      5F435245 
  10      41544544 
  10      00
  11              	.LC3:
  12 002b 434F4150 		.string	"COAP_202_DELETED"
  12      5F323032 
  12      5F44454C 
  12      45544544 
  12      00
  13              	.LC4:
  14 003c 434F4150 		.string	"COAP_204_CHANGED"
  14      5F323034 
  14      5F434841 
  14      4E474544 
  14      00
  15              	.LC5:
  16 004d 434F4150 		.string	"COAP_205_CONTENT"
  16      5F323035 
  16      5F434F4E 
  16      54454E54 
  16      00
  17              	.LC6:
  18 005e 434F4150 		.string	"COAP_400_BAD_REQUEST"
  18      5F343030 
  18      5F424144 
  18      5F524551 
  18      55455354 
  19              	.LC7:
  20 0073 434F4150 		.string	"COAP_401_UNAUTHORIZED"
  20      5F343031 
  20      5F554E41 
  20      5554484F 
  20      52495A45 
  21              	.LC8:
  22 0089 434F4150 		.string	"COAP_404_NOT_FOUND"
  22      5F343034 
  22      5F4E4F54 
  22      5F464F55 
  22      4E4400
  23              	.LC9:
  24 009c 434F4150 		.string	"COAP_405_METHOD_NOT_ALLOWED"
GAS LISTING /tmp/ccEyAHyj.s 			page 2


  24      5F343035 
  24      5F4D4554 
  24      484F445F 
  24      4E4F545F 
  25              	.LC10:
  26 00b8 434F4150 		.string	"COAP_406_NOT_ACCEPTABLE"
  26      5F343036 
  26      5F4E4F54 
  26      5F414343 
  26      45505441 
  27              		.section	.rodata.str1.8,"aMS",@progbits,1
  28              		.align 8
  29              	.LC11:
  30 0000 434F4150 		.string	"COAP_500_INTERNAL_SERVER_ERROR"
  30      5F353030 
  30      5F494E54 
  30      45524E41 
  30      4C5F5345 
  31              		.section	.rodata.str1.1
  32              	.LC12:
  33 00d0 434F4150 		.string	"COAP_501_NOT_IMPLEMENTED"
  33      5F353031 
  33      5F4E4F54 
  33      5F494D50 
  33      4C454D45 
  34              	.LC13:
  35 00e9 434F4150 		.string	"COAP_503_SERVICE_UNAVAILABLE"
  35      5F353033 
  35      5F534552 
  35      56494345 
  35      5F554E41 
  36              	.LC14:
  37 0106 00       		.string	""
  38              		.section	.text.prv_status_to_string,"ax",@progbits
  40              	prv_status_to_string:
  41              	.LFB79:
  42              		.file 1 "/home/baikal/workspace/C50/Huawei_IoT_Agent_Tiny_SDK_Linux///lwm2m/examples/shared/comman
   1:/home/baikal/workspace/C50/Huawei_IoT_Agent_Tiny_SDK_Linux///lwm2m/examples/shared/commandline.c **** /*----------------------------------------------------------------------------
   2:/home/baikal/workspace/C50/Huawei_IoT_Agent_Tiny_SDK_Linux///lwm2m/examples/shared/commandline.c ****  * Copyright (c) <2016-2018>, <Huawei Technologies Co., Ltd>
   3:/home/baikal/workspace/C50/Huawei_IoT_Agent_Tiny_SDK_Linux///lwm2m/examples/shared/commandline.c ****  * All rights reserved.
   4:/home/baikal/workspace/C50/Huawei_IoT_Agent_Tiny_SDK_Linux///lwm2m/examples/shared/commandline.c ****  * Redistribution and use in source and binary forms, with or without modification,
   5:/home/baikal/workspace/C50/Huawei_IoT_Agent_Tiny_SDK_Linux///lwm2m/examples/shared/commandline.c ****  * are permitted provided that the following conditions are met:
   6:/home/baikal/workspace/C50/Huawei_IoT_Agent_Tiny_SDK_Linux///lwm2m/examples/shared/commandline.c ****  * 1. Redistributions of source code must retain the above copyright notice, this list of
   7:/home/baikal/workspace/C50/Huawei_IoT_Agent_Tiny_SDK_Linux///lwm2m/examples/shared/commandline.c ****  * conditions and the following disclaimer.
   8:/home/baikal/workspace/C50/Huawei_IoT_Agent_Tiny_SDK_Linux///lwm2m/examples/shared/commandline.c ****  * 2. Redistributions in binary form must reproduce the above copyright notice, this list
   9:/home/baikal/workspace/C50/Huawei_IoT_Agent_Tiny_SDK_Linux///lwm2m/examples/shared/commandline.c ****  * of conditions and the following disclaimer in the documentation and/or other materials
  10:/home/baikal/workspace/C50/Huawei_IoT_Agent_Tiny_SDK_Linux///lwm2m/examples/shared/commandline.c ****  * provided with the distribution.
  11:/home/baikal/workspace/C50/Huawei_IoT_Agent_Tiny_SDK_Linux///lwm2m/examples/shared/commandline.c ****  * 3. Neither the name of the copyright holder nor the names of its contributors may be used
  12:/home/baikal/workspace/C50/Huawei_IoT_Agent_Tiny_SDK_Linux///lwm2m/examples/shared/commandline.c ****  * to endorse or promote products derived from this software without specific prior written
  13:/home/baikal/workspace/C50/Huawei_IoT_Agent_Tiny_SDK_Linux///lwm2m/examples/shared/commandline.c ****  * permission.
  14:/home/baikal/workspace/C50/Huawei_IoT_Agent_Tiny_SDK_Linux///lwm2m/examples/shared/commandline.c ****  * THIS SOFTWARE IS PROVIDED BY THE COPYRIGHT HOLDERS AND CONTRIBUTORS
  15:/home/baikal/workspace/C50/Huawei_IoT_Agent_Tiny_SDK_Linux///lwm2m/examples/shared/commandline.c ****  * "AS IS" AND ANY EXPRESS OR IMPLIED WARRANTIES, INCLUDING, BUT NOT LIMITED TO,
  16:/home/baikal/workspace/C50/Huawei_IoT_Agent_Tiny_SDK_Linux///lwm2m/examples/shared/commandline.c ****  * THE IMPLIED WARRANTIES OF MERCHANTABILITY AND FITNESS FOR A PARTICULAR
  17:/home/baikal/workspace/C50/Huawei_IoT_Agent_Tiny_SDK_Linux///lwm2m/examples/shared/commandline.c ****  * PURPOSE ARE DISCLAIMED. IN NO EVENT SHALL THE COPYRIGHT HOLDER OR
  18:/home/baikal/workspace/C50/Huawei_IoT_Agent_Tiny_SDK_Linux///lwm2m/examples/shared/commandline.c ****  * CONTRIBUTORS BE LIABLE FOR ANY DIRECT, INDIRECT, INCIDENTAL, SPECIAL,
  19:/home/baikal/workspace/C50/Huawei_IoT_Agent_Tiny_SDK_Linux///lwm2m/examples/shared/commandline.c ****  * EXEMPLARY, OR CONSEQUENTIAL DAMAGES (INCLUDING, BUT NOT LIMITED TO,
  20:/home/baikal/workspace/C50/Huawei_IoT_Agent_Tiny_SDK_Linux///lwm2m/examples/shared/commandline.c ****  * PROCUREMENT OF SUBSTITUTE GOODS OR SERVICES; LOSS OF USE, DATA, OR PROFITS;
GAS LISTING /tmp/ccEyAHyj.s 			page 3


  21:/home/baikal/workspace/C50/Huawei_IoT_Agent_Tiny_SDK_Linux///lwm2m/examples/shared/commandline.c ****  * OR BUSINESS INTERRUPTION) HOWEVER CAUSED AND ON ANY THEORY OF LIABILITY,
  22:/home/baikal/workspace/C50/Huawei_IoT_Agent_Tiny_SDK_Linux///lwm2m/examples/shared/commandline.c ****  * WHETHER IN CONTRACT, STRICT LIABILITY, OR TORT (INCLUDING NEGLIGENCE OR
  23:/home/baikal/workspace/C50/Huawei_IoT_Agent_Tiny_SDK_Linux///lwm2m/examples/shared/commandline.c ****  * OTHERWISE) ARISING IN ANY WAY OUT OF THE USE OF THIS SOFTWARE, EVEN IF
  24:/home/baikal/workspace/C50/Huawei_IoT_Agent_Tiny_SDK_Linux///lwm2m/examples/shared/commandline.c ****  * ADVISED OF THE POSSIBILITY OF SUCH DAMAGE.
  25:/home/baikal/workspace/C50/Huawei_IoT_Agent_Tiny_SDK_Linux///lwm2m/examples/shared/commandline.c ****  *---------------------------------------------------------------------------*/
  26:/home/baikal/workspace/C50/Huawei_IoT_Agent_Tiny_SDK_Linux///lwm2m/examples/shared/commandline.c **** /*----------------------------------------------------------------------------
  27:/home/baikal/workspace/C50/Huawei_IoT_Agent_Tiny_SDK_Linux///lwm2m/examples/shared/commandline.c ****  * Notice of Export Control Law
  28:/home/baikal/workspace/C50/Huawei_IoT_Agent_Tiny_SDK_Linux///lwm2m/examples/shared/commandline.c ****  * ===============================================
  29:/home/baikal/workspace/C50/Huawei_IoT_Agent_Tiny_SDK_Linux///lwm2m/examples/shared/commandline.c ****  * Huawei LiteOS may be subject to applicable export control laws and regulations, which might
  30:/home/baikal/workspace/C50/Huawei_IoT_Agent_Tiny_SDK_Linux///lwm2m/examples/shared/commandline.c ****  * include those applicable to Huawei LiteOS of U.S. and the country in which you are located.
  31:/home/baikal/workspace/C50/Huawei_IoT_Agent_Tiny_SDK_Linux///lwm2m/examples/shared/commandline.c ****  * Import, export and usage of Huawei LiteOS in any manner by you shall be in compliance with such
  32:/home/baikal/workspace/C50/Huawei_IoT_Agent_Tiny_SDK_Linux///lwm2m/examples/shared/commandline.c ****  * applicable export control laws and regulations.
  33:/home/baikal/workspace/C50/Huawei_IoT_Agent_Tiny_SDK_Linux///lwm2m/examples/shared/commandline.c ****  *---------------------------------------------------------------------------*/
  34:/home/baikal/workspace/C50/Huawei_IoT_Agent_Tiny_SDK_Linux///lwm2m/examples/shared/commandline.c **** 
  35:/home/baikal/workspace/C50/Huawei_IoT_Agent_Tiny_SDK_Linux///lwm2m/examples/shared/commandline.c **** /*******************************************************************************
  36:/home/baikal/workspace/C50/Huawei_IoT_Agent_Tiny_SDK_Linux///lwm2m/examples/shared/commandline.c ****  *
  37:/home/baikal/workspace/C50/Huawei_IoT_Agent_Tiny_SDK_Linux///lwm2m/examples/shared/commandline.c ****  * Copyright (c) 2013, 2014, 2015 Intel Corporation and others.
  38:/home/baikal/workspace/C50/Huawei_IoT_Agent_Tiny_SDK_Linux///lwm2m/examples/shared/commandline.c ****  * All rights reserved. This program and the accompanying materials
  39:/home/baikal/workspace/C50/Huawei_IoT_Agent_Tiny_SDK_Linux///lwm2m/examples/shared/commandline.c ****  * are made available under the terms of the Eclipse Public License v1.0
  40:/home/baikal/workspace/C50/Huawei_IoT_Agent_Tiny_SDK_Linux///lwm2m/examples/shared/commandline.c ****  * and Eclipse Distribution License v1.0 which accompany this distribution.
  41:/home/baikal/workspace/C50/Huawei_IoT_Agent_Tiny_SDK_Linux///lwm2m/examples/shared/commandline.c ****  *
  42:/home/baikal/workspace/C50/Huawei_IoT_Agent_Tiny_SDK_Linux///lwm2m/examples/shared/commandline.c ****  * The Eclipse Public License is available at
  43:/home/baikal/workspace/C50/Huawei_IoT_Agent_Tiny_SDK_Linux///lwm2m/examples/shared/commandline.c ****  *    http://www.eclipse.org/legal/epl-v10.html
  44:/home/baikal/workspace/C50/Huawei_IoT_Agent_Tiny_SDK_Linux///lwm2m/examples/shared/commandline.c ****  * The Eclipse Distribution License is available at
  45:/home/baikal/workspace/C50/Huawei_IoT_Agent_Tiny_SDK_Linux///lwm2m/examples/shared/commandline.c ****  *    http://www.eclipse.org/org/documents/edl-v10.php.
  46:/home/baikal/workspace/C50/Huawei_IoT_Agent_Tiny_SDK_Linux///lwm2m/examples/shared/commandline.c ****  *
  47:/home/baikal/workspace/C50/Huawei_IoT_Agent_Tiny_SDK_Linux///lwm2m/examples/shared/commandline.c ****  * Contributors:
  48:/home/baikal/workspace/C50/Huawei_IoT_Agent_Tiny_SDK_Linux///lwm2m/examples/shared/commandline.c ****  *    David Navarro, Intel Corporation - initial API and implementation
  49:/home/baikal/workspace/C50/Huawei_IoT_Agent_Tiny_SDK_Linux///lwm2m/examples/shared/commandline.c ****  *    Fabien Fleutot - Please refer to git log
  50:/home/baikal/workspace/C50/Huawei_IoT_Agent_Tiny_SDK_Linux///lwm2m/examples/shared/commandline.c ****  *
  51:/home/baikal/workspace/C50/Huawei_IoT_Agent_Tiny_SDK_Linux///lwm2m/examples/shared/commandline.c ****  *******************************************************************************/
  52:/home/baikal/workspace/C50/Huawei_IoT_Agent_Tiny_SDK_Linux///lwm2m/examples/shared/commandline.c **** 
  53:/home/baikal/workspace/C50/Huawei_IoT_Agent_Tiny_SDK_Linux///lwm2m/examples/shared/commandline.c **** #include <string.h>
  54:/home/baikal/workspace/C50/Huawei_IoT_Agent_Tiny_SDK_Linux///lwm2m/examples/shared/commandline.c **** #include <stdlib.h>
  55:/home/baikal/workspace/C50/Huawei_IoT_Agent_Tiny_SDK_Linux///lwm2m/examples/shared/commandline.c **** #include <stdio.h>
  56:/home/baikal/workspace/C50/Huawei_IoT_Agent_Tiny_SDK_Linux///lwm2m/examples/shared/commandline.c **** #include <ctype.h>
  57:/home/baikal/workspace/C50/Huawei_IoT_Agent_Tiny_SDK_Linux///lwm2m/examples/shared/commandline.c **** #include <inttypes.h>
  58:/home/baikal/workspace/C50/Huawei_IoT_Agent_Tiny_SDK_Linux///lwm2m/examples/shared/commandline.c **** #include "liblwm2m.h"
  59:/home/baikal/workspace/C50/Huawei_IoT_Agent_Tiny_SDK_Linux///lwm2m/examples/shared/commandline.c **** #include "internals.h"
  60:/home/baikal/workspace/C50/Huawei_IoT_Agent_Tiny_SDK_Linux///lwm2m/examples/shared/commandline.c **** #include "commandline.h"
  61:/home/baikal/workspace/C50/Huawei_IoT_Agent_Tiny_SDK_Linux///lwm2m/examples/shared/commandline.c **** 
  62:/home/baikal/workspace/C50/Huawei_IoT_Agent_Tiny_SDK_Linux///lwm2m/examples/shared/commandline.c **** #define HELP_COMMAND "help"
  63:/home/baikal/workspace/C50/Huawei_IoT_Agent_Tiny_SDK_Linux///lwm2m/examples/shared/commandline.c **** #define HELP_DESC    "Type '"HELP_COMMAND" [COMMAND]' for more details on a command."
  64:/home/baikal/workspace/C50/Huawei_IoT_Agent_Tiny_SDK_Linux///lwm2m/examples/shared/commandline.c **** #define UNKNOWN_CMD_MSG "Unknown command. Type '"HELP_COMMAND"' for help."
  65:/home/baikal/workspace/C50/Huawei_IoT_Agent_Tiny_SDK_Linux///lwm2m/examples/shared/commandline.c **** 
  66:/home/baikal/workspace/C50/Huawei_IoT_Agent_Tiny_SDK_Linux///lwm2m/examples/shared/commandline.c **** static command_desc_t *prv_find_command(command_desc_t *commandArray,
  67:/home/baikal/workspace/C50/Huawei_IoT_Agent_Tiny_SDK_Linux///lwm2m/examples/shared/commandline.c ****                                         char *buffer,
  68:/home/baikal/workspace/C50/Huawei_IoT_Agent_Tiny_SDK_Linux///lwm2m/examples/shared/commandline.c ****                                         size_t length)
  69:/home/baikal/workspace/C50/Huawei_IoT_Agent_Tiny_SDK_Linux///lwm2m/examples/shared/commandline.c **** {
  70:/home/baikal/workspace/C50/Huawei_IoT_Agent_Tiny_SDK_Linux///lwm2m/examples/shared/commandline.c ****     int i;
  71:/home/baikal/workspace/C50/Huawei_IoT_Agent_Tiny_SDK_Linux///lwm2m/examples/shared/commandline.c **** 
  72:/home/baikal/workspace/C50/Huawei_IoT_Agent_Tiny_SDK_Linux///lwm2m/examples/shared/commandline.c ****     if (length == 0) return NULL;
  73:/home/baikal/workspace/C50/Huawei_IoT_Agent_Tiny_SDK_Linux///lwm2m/examples/shared/commandline.c **** 
  74:/home/baikal/workspace/C50/Huawei_IoT_Agent_Tiny_SDK_Linux///lwm2m/examples/shared/commandline.c ****     i = 0;
  75:/home/baikal/workspace/C50/Huawei_IoT_Agent_Tiny_SDK_Linux///lwm2m/examples/shared/commandline.c ****     while (commandArray[i].name != NULL
  76:/home/baikal/workspace/C50/Huawei_IoT_Agent_Tiny_SDK_Linux///lwm2m/examples/shared/commandline.c ****             && (strlen(commandArray[i].name) != length || strncmp(buffer, commandArray[i].name, len
  77:/home/baikal/workspace/C50/Huawei_IoT_Agent_Tiny_SDK_Linux///lwm2m/examples/shared/commandline.c ****     {
GAS LISTING /tmp/ccEyAHyj.s 			page 4


  78:/home/baikal/workspace/C50/Huawei_IoT_Agent_Tiny_SDK_Linux///lwm2m/examples/shared/commandline.c ****         i++;
  79:/home/baikal/workspace/C50/Huawei_IoT_Agent_Tiny_SDK_Linux///lwm2m/examples/shared/commandline.c ****     }
  80:/home/baikal/workspace/C50/Huawei_IoT_Agent_Tiny_SDK_Linux///lwm2m/examples/shared/commandline.c **** 
  81:/home/baikal/workspace/C50/Huawei_IoT_Agent_Tiny_SDK_Linux///lwm2m/examples/shared/commandline.c ****     if (commandArray[i].name == NULL)
  82:/home/baikal/workspace/C50/Huawei_IoT_Agent_Tiny_SDK_Linux///lwm2m/examples/shared/commandline.c ****     {
  83:/home/baikal/workspace/C50/Huawei_IoT_Agent_Tiny_SDK_Linux///lwm2m/examples/shared/commandline.c ****         return NULL;
  84:/home/baikal/workspace/C50/Huawei_IoT_Agent_Tiny_SDK_Linux///lwm2m/examples/shared/commandline.c ****     }
  85:/home/baikal/workspace/C50/Huawei_IoT_Agent_Tiny_SDK_Linux///lwm2m/examples/shared/commandline.c ****     else
  86:/home/baikal/workspace/C50/Huawei_IoT_Agent_Tiny_SDK_Linux///lwm2m/examples/shared/commandline.c ****     {
  87:/home/baikal/workspace/C50/Huawei_IoT_Agent_Tiny_SDK_Linux///lwm2m/examples/shared/commandline.c ****         return &commandArray[i];
  88:/home/baikal/workspace/C50/Huawei_IoT_Agent_Tiny_SDK_Linux///lwm2m/examples/shared/commandline.c ****     }
  89:/home/baikal/workspace/C50/Huawei_IoT_Agent_Tiny_SDK_Linux///lwm2m/examples/shared/commandline.c **** }
  90:/home/baikal/workspace/C50/Huawei_IoT_Agent_Tiny_SDK_Linux///lwm2m/examples/shared/commandline.c **** 
  91:/home/baikal/workspace/C50/Huawei_IoT_Agent_Tiny_SDK_Linux///lwm2m/examples/shared/commandline.c **** static void prv_displayHelp(command_desc_t *commandArray,
  92:/home/baikal/workspace/C50/Huawei_IoT_Agent_Tiny_SDK_Linux///lwm2m/examples/shared/commandline.c ****                             char *buffer)
  93:/home/baikal/workspace/C50/Huawei_IoT_Agent_Tiny_SDK_Linux///lwm2m/examples/shared/commandline.c **** {
  94:/home/baikal/workspace/C50/Huawei_IoT_Agent_Tiny_SDK_Linux///lwm2m/examples/shared/commandline.c ****     command_desc_t *cmdP;
  95:/home/baikal/workspace/C50/Huawei_IoT_Agent_Tiny_SDK_Linux///lwm2m/examples/shared/commandline.c ****     int length;
  96:/home/baikal/workspace/C50/Huawei_IoT_Agent_Tiny_SDK_Linux///lwm2m/examples/shared/commandline.c **** 
  97:/home/baikal/workspace/C50/Huawei_IoT_Agent_Tiny_SDK_Linux///lwm2m/examples/shared/commandline.c ****     // find end of first argument
  98:/home/baikal/workspace/C50/Huawei_IoT_Agent_Tiny_SDK_Linux///lwm2m/examples/shared/commandline.c ****     length = 0;
  99:/home/baikal/workspace/C50/Huawei_IoT_Agent_Tiny_SDK_Linux///lwm2m/examples/shared/commandline.c ****     while (buffer[length] != 0 && !isspace(buffer[length] & 0xff))
 100:/home/baikal/workspace/C50/Huawei_IoT_Agent_Tiny_SDK_Linux///lwm2m/examples/shared/commandline.c ****         length++;
 101:/home/baikal/workspace/C50/Huawei_IoT_Agent_Tiny_SDK_Linux///lwm2m/examples/shared/commandline.c **** 
 102:/home/baikal/workspace/C50/Huawei_IoT_Agent_Tiny_SDK_Linux///lwm2m/examples/shared/commandline.c ****     cmdP = prv_find_command(commandArray, buffer, length);
 103:/home/baikal/workspace/C50/Huawei_IoT_Agent_Tiny_SDK_Linux///lwm2m/examples/shared/commandline.c **** 
 104:/home/baikal/workspace/C50/Huawei_IoT_Agent_Tiny_SDK_Linux///lwm2m/examples/shared/commandline.c ****     if (cmdP == NULL)
 105:/home/baikal/workspace/C50/Huawei_IoT_Agent_Tiny_SDK_Linux///lwm2m/examples/shared/commandline.c ****     {
 106:/home/baikal/workspace/C50/Huawei_IoT_Agent_Tiny_SDK_Linux///lwm2m/examples/shared/commandline.c ****         int i;
 107:/home/baikal/workspace/C50/Huawei_IoT_Agent_Tiny_SDK_Linux///lwm2m/examples/shared/commandline.c **** 
 108:/home/baikal/workspace/C50/Huawei_IoT_Agent_Tiny_SDK_Linux///lwm2m/examples/shared/commandline.c ****         fprintf(stdout, HELP_COMMAND"\t"HELP_DESC"\r\n");
 109:/home/baikal/workspace/C50/Huawei_IoT_Agent_Tiny_SDK_Linux///lwm2m/examples/shared/commandline.c **** 
 110:/home/baikal/workspace/C50/Huawei_IoT_Agent_Tiny_SDK_Linux///lwm2m/examples/shared/commandline.c ****         for (i = 0 ; commandArray[i].name != NULL ; i++)
 111:/home/baikal/workspace/C50/Huawei_IoT_Agent_Tiny_SDK_Linux///lwm2m/examples/shared/commandline.c ****         {
 112:/home/baikal/workspace/C50/Huawei_IoT_Agent_Tiny_SDK_Linux///lwm2m/examples/shared/commandline.c ****             fprintf(stdout, "%s\t%s\r\n", commandArray[i].name, commandArray[i].shortDesc);
 113:/home/baikal/workspace/C50/Huawei_IoT_Agent_Tiny_SDK_Linux///lwm2m/examples/shared/commandline.c ****         }
 114:/home/baikal/workspace/C50/Huawei_IoT_Agent_Tiny_SDK_Linux///lwm2m/examples/shared/commandline.c ****     }
 115:/home/baikal/workspace/C50/Huawei_IoT_Agent_Tiny_SDK_Linux///lwm2m/examples/shared/commandline.c ****     else
 116:/home/baikal/workspace/C50/Huawei_IoT_Agent_Tiny_SDK_Linux///lwm2m/examples/shared/commandline.c ****     {
 117:/home/baikal/workspace/C50/Huawei_IoT_Agent_Tiny_SDK_Linux///lwm2m/examples/shared/commandline.c ****         fprintf(stdout, "%s\r\n", cmdP->longDesc ? cmdP->longDesc : cmdP->shortDesc);
 118:/home/baikal/workspace/C50/Huawei_IoT_Agent_Tiny_SDK_Linux///lwm2m/examples/shared/commandline.c ****     }
 119:/home/baikal/workspace/C50/Huawei_IoT_Agent_Tiny_SDK_Linux///lwm2m/examples/shared/commandline.c **** }
 120:/home/baikal/workspace/C50/Huawei_IoT_Agent_Tiny_SDK_Linux///lwm2m/examples/shared/commandline.c **** 
 121:/home/baikal/workspace/C50/Huawei_IoT_Agent_Tiny_SDK_Linux///lwm2m/examples/shared/commandline.c **** 
 122:/home/baikal/workspace/C50/Huawei_IoT_Agent_Tiny_SDK_Linux///lwm2m/examples/shared/commandline.c **** void handle_command(command_desc_t *commandArray,
 123:/home/baikal/workspace/C50/Huawei_IoT_Agent_Tiny_SDK_Linux///lwm2m/examples/shared/commandline.c ****                     char *buffer)
 124:/home/baikal/workspace/C50/Huawei_IoT_Agent_Tiny_SDK_Linux///lwm2m/examples/shared/commandline.c **** {
 125:/home/baikal/workspace/C50/Huawei_IoT_Agent_Tiny_SDK_Linux///lwm2m/examples/shared/commandline.c ****     command_desc_t *cmdP;
 126:/home/baikal/workspace/C50/Huawei_IoT_Agent_Tiny_SDK_Linux///lwm2m/examples/shared/commandline.c ****     int length;
 127:/home/baikal/workspace/C50/Huawei_IoT_Agent_Tiny_SDK_Linux///lwm2m/examples/shared/commandline.c **** 
 128:/home/baikal/workspace/C50/Huawei_IoT_Agent_Tiny_SDK_Linux///lwm2m/examples/shared/commandline.c ****     // find end of command name
 129:/home/baikal/workspace/C50/Huawei_IoT_Agent_Tiny_SDK_Linux///lwm2m/examples/shared/commandline.c ****     length = 0;
 130:/home/baikal/workspace/C50/Huawei_IoT_Agent_Tiny_SDK_Linux///lwm2m/examples/shared/commandline.c ****     while (buffer[length] != 0 && !isspace(buffer[length] & 0xFF))
 131:/home/baikal/workspace/C50/Huawei_IoT_Agent_Tiny_SDK_Linux///lwm2m/examples/shared/commandline.c ****         length++;
 132:/home/baikal/workspace/C50/Huawei_IoT_Agent_Tiny_SDK_Linux///lwm2m/examples/shared/commandline.c **** 
 133:/home/baikal/workspace/C50/Huawei_IoT_Agent_Tiny_SDK_Linux///lwm2m/examples/shared/commandline.c ****     cmdP = prv_find_command(commandArray, buffer, length);
 134:/home/baikal/workspace/C50/Huawei_IoT_Agent_Tiny_SDK_Linux///lwm2m/examples/shared/commandline.c ****     if (cmdP != NULL)
GAS LISTING /tmp/ccEyAHyj.s 			page 5


 135:/home/baikal/workspace/C50/Huawei_IoT_Agent_Tiny_SDK_Linux///lwm2m/examples/shared/commandline.c ****     {
 136:/home/baikal/workspace/C50/Huawei_IoT_Agent_Tiny_SDK_Linux///lwm2m/examples/shared/commandline.c ****         while (buffer[length] != 0 && isspace(buffer[length] & 0xFF))
 137:/home/baikal/workspace/C50/Huawei_IoT_Agent_Tiny_SDK_Linux///lwm2m/examples/shared/commandline.c ****             length++;
 138:/home/baikal/workspace/C50/Huawei_IoT_Agent_Tiny_SDK_Linux///lwm2m/examples/shared/commandline.c ****         cmdP->callback(buffer + length, cmdP->userData);
 139:/home/baikal/workspace/C50/Huawei_IoT_Agent_Tiny_SDK_Linux///lwm2m/examples/shared/commandline.c ****     }
 140:/home/baikal/workspace/C50/Huawei_IoT_Agent_Tiny_SDK_Linux///lwm2m/examples/shared/commandline.c ****     else
 141:/home/baikal/workspace/C50/Huawei_IoT_Agent_Tiny_SDK_Linux///lwm2m/examples/shared/commandline.c ****     {
 142:/home/baikal/workspace/C50/Huawei_IoT_Agent_Tiny_SDK_Linux///lwm2m/examples/shared/commandline.c ****         if (!strncmp(buffer, HELP_COMMAND, length))
 143:/home/baikal/workspace/C50/Huawei_IoT_Agent_Tiny_SDK_Linux///lwm2m/examples/shared/commandline.c ****         {
 144:/home/baikal/workspace/C50/Huawei_IoT_Agent_Tiny_SDK_Linux///lwm2m/examples/shared/commandline.c ****             while (buffer[length] != 0 && isspace(buffer[length] & 0xFF))
 145:/home/baikal/workspace/C50/Huawei_IoT_Agent_Tiny_SDK_Linux///lwm2m/examples/shared/commandline.c ****                 length++;
 146:/home/baikal/workspace/C50/Huawei_IoT_Agent_Tiny_SDK_Linux///lwm2m/examples/shared/commandline.c ****             prv_displayHelp(commandArray, buffer + length);
 147:/home/baikal/workspace/C50/Huawei_IoT_Agent_Tiny_SDK_Linux///lwm2m/examples/shared/commandline.c ****         }
 148:/home/baikal/workspace/C50/Huawei_IoT_Agent_Tiny_SDK_Linux///lwm2m/examples/shared/commandline.c ****         else
 149:/home/baikal/workspace/C50/Huawei_IoT_Agent_Tiny_SDK_Linux///lwm2m/examples/shared/commandline.c ****         {
 150:/home/baikal/workspace/C50/Huawei_IoT_Agent_Tiny_SDK_Linux///lwm2m/examples/shared/commandline.c ****             fprintf(stdout, UNKNOWN_CMD_MSG"\r\n");
 151:/home/baikal/workspace/C50/Huawei_IoT_Agent_Tiny_SDK_Linux///lwm2m/examples/shared/commandline.c ****         }
 152:/home/baikal/workspace/C50/Huawei_IoT_Agent_Tiny_SDK_Linux///lwm2m/examples/shared/commandline.c ****     }
 153:/home/baikal/workspace/C50/Huawei_IoT_Agent_Tiny_SDK_Linux///lwm2m/examples/shared/commandline.c **** }
 154:/home/baikal/workspace/C50/Huawei_IoT_Agent_Tiny_SDK_Linux///lwm2m/examples/shared/commandline.c **** 
 155:/home/baikal/workspace/C50/Huawei_IoT_Agent_Tiny_SDK_Linux///lwm2m/examples/shared/commandline.c **** static char *prv_end_of_space(char *buffer)
 156:/home/baikal/workspace/C50/Huawei_IoT_Agent_Tiny_SDK_Linux///lwm2m/examples/shared/commandline.c **** {
 157:/home/baikal/workspace/C50/Huawei_IoT_Agent_Tiny_SDK_Linux///lwm2m/examples/shared/commandline.c ****     while (isspace(buffer[0] & 0xff))
 158:/home/baikal/workspace/C50/Huawei_IoT_Agent_Tiny_SDK_Linux///lwm2m/examples/shared/commandline.c ****     {
 159:/home/baikal/workspace/C50/Huawei_IoT_Agent_Tiny_SDK_Linux///lwm2m/examples/shared/commandline.c ****         buffer++;
 160:/home/baikal/workspace/C50/Huawei_IoT_Agent_Tiny_SDK_Linux///lwm2m/examples/shared/commandline.c ****     }
 161:/home/baikal/workspace/C50/Huawei_IoT_Agent_Tiny_SDK_Linux///lwm2m/examples/shared/commandline.c ****     return buffer;
 162:/home/baikal/workspace/C50/Huawei_IoT_Agent_Tiny_SDK_Linux///lwm2m/examples/shared/commandline.c **** }
 163:/home/baikal/workspace/C50/Huawei_IoT_Agent_Tiny_SDK_Linux///lwm2m/examples/shared/commandline.c **** 
 164:/home/baikal/workspace/C50/Huawei_IoT_Agent_Tiny_SDK_Linux///lwm2m/examples/shared/commandline.c **** char *get_end_of_arg(char *buffer)
 165:/home/baikal/workspace/C50/Huawei_IoT_Agent_Tiny_SDK_Linux///lwm2m/examples/shared/commandline.c **** {
 166:/home/baikal/workspace/C50/Huawei_IoT_Agent_Tiny_SDK_Linux///lwm2m/examples/shared/commandline.c ****     while (buffer[0] != 0 && !isspace(buffer[0] & 0xFF))
 167:/home/baikal/workspace/C50/Huawei_IoT_Agent_Tiny_SDK_Linux///lwm2m/examples/shared/commandline.c ****     {
 168:/home/baikal/workspace/C50/Huawei_IoT_Agent_Tiny_SDK_Linux///lwm2m/examples/shared/commandline.c ****         buffer++;
 169:/home/baikal/workspace/C50/Huawei_IoT_Agent_Tiny_SDK_Linux///lwm2m/examples/shared/commandline.c ****     }
 170:/home/baikal/workspace/C50/Huawei_IoT_Agent_Tiny_SDK_Linux///lwm2m/examples/shared/commandline.c ****     return buffer;
 171:/home/baikal/workspace/C50/Huawei_IoT_Agent_Tiny_SDK_Linux///lwm2m/examples/shared/commandline.c **** }
 172:/home/baikal/workspace/C50/Huawei_IoT_Agent_Tiny_SDK_Linux///lwm2m/examples/shared/commandline.c **** 
 173:/home/baikal/workspace/C50/Huawei_IoT_Agent_Tiny_SDK_Linux///lwm2m/examples/shared/commandline.c **** char *get_next_arg(char *buffer, char **end)
 174:/home/baikal/workspace/C50/Huawei_IoT_Agent_Tiny_SDK_Linux///lwm2m/examples/shared/commandline.c **** {
 175:/home/baikal/workspace/C50/Huawei_IoT_Agent_Tiny_SDK_Linux///lwm2m/examples/shared/commandline.c ****     // skip arg
 176:/home/baikal/workspace/C50/Huawei_IoT_Agent_Tiny_SDK_Linux///lwm2m/examples/shared/commandline.c ****     buffer = get_end_of_arg(buffer);
 177:/home/baikal/workspace/C50/Huawei_IoT_Agent_Tiny_SDK_Linux///lwm2m/examples/shared/commandline.c ****     // skip space
 178:/home/baikal/workspace/C50/Huawei_IoT_Agent_Tiny_SDK_Linux///lwm2m/examples/shared/commandline.c ****     buffer = prv_end_of_space(buffer);
 179:/home/baikal/workspace/C50/Huawei_IoT_Agent_Tiny_SDK_Linux///lwm2m/examples/shared/commandline.c ****     if (NULL != end)
 180:/home/baikal/workspace/C50/Huawei_IoT_Agent_Tiny_SDK_Linux///lwm2m/examples/shared/commandline.c ****     {
 181:/home/baikal/workspace/C50/Huawei_IoT_Agent_Tiny_SDK_Linux///lwm2m/examples/shared/commandline.c ****         *end = get_end_of_arg(buffer);
 182:/home/baikal/workspace/C50/Huawei_IoT_Agent_Tiny_SDK_Linux///lwm2m/examples/shared/commandline.c ****     }
 183:/home/baikal/workspace/C50/Huawei_IoT_Agent_Tiny_SDK_Linux///lwm2m/examples/shared/commandline.c **** 
 184:/home/baikal/workspace/C50/Huawei_IoT_Agent_Tiny_SDK_Linux///lwm2m/examples/shared/commandline.c ****     return buffer;
 185:/home/baikal/workspace/C50/Huawei_IoT_Agent_Tiny_SDK_Linux///lwm2m/examples/shared/commandline.c **** }
 186:/home/baikal/workspace/C50/Huawei_IoT_Agent_Tiny_SDK_Linux///lwm2m/examples/shared/commandline.c **** 
 187:/home/baikal/workspace/C50/Huawei_IoT_Agent_Tiny_SDK_Linux///lwm2m/examples/shared/commandline.c **** int check_end_of_args(char *buffer)
 188:/home/baikal/workspace/C50/Huawei_IoT_Agent_Tiny_SDK_Linux///lwm2m/examples/shared/commandline.c **** {
 189:/home/baikal/workspace/C50/Huawei_IoT_Agent_Tiny_SDK_Linux///lwm2m/examples/shared/commandline.c ****     buffer = prv_end_of_space(buffer);
 190:/home/baikal/workspace/C50/Huawei_IoT_Agent_Tiny_SDK_Linux///lwm2m/examples/shared/commandline.c **** 
 191:/home/baikal/workspace/C50/Huawei_IoT_Agent_Tiny_SDK_Linux///lwm2m/examples/shared/commandline.c ****     return (0 == buffer[0]);
GAS LISTING /tmp/ccEyAHyj.s 			page 6


 192:/home/baikal/workspace/C50/Huawei_IoT_Agent_Tiny_SDK_Linux///lwm2m/examples/shared/commandline.c **** }
 193:/home/baikal/workspace/C50/Huawei_IoT_Agent_Tiny_SDK_Linux///lwm2m/examples/shared/commandline.c **** 
 194:/home/baikal/workspace/C50/Huawei_IoT_Agent_Tiny_SDK_Linux///lwm2m/examples/shared/commandline.c **** /**********************************************************
 195:/home/baikal/workspace/C50/Huawei_IoT_Agent_Tiny_SDK_Linux///lwm2m/examples/shared/commandline.c ****  * Display Functions
 196:/home/baikal/workspace/C50/Huawei_IoT_Agent_Tiny_SDK_Linux///lwm2m/examples/shared/commandline.c ****  */
 197:/home/baikal/workspace/C50/Huawei_IoT_Agent_Tiny_SDK_Linux///lwm2m/examples/shared/commandline.c **** 
 198:/home/baikal/workspace/C50/Huawei_IoT_Agent_Tiny_SDK_Linux///lwm2m/examples/shared/commandline.c **** static void print_indent(FILE *stream,
 199:/home/baikal/workspace/C50/Huawei_IoT_Agent_Tiny_SDK_Linux///lwm2m/examples/shared/commandline.c ****                          int num)
 200:/home/baikal/workspace/C50/Huawei_IoT_Agent_Tiny_SDK_Linux///lwm2m/examples/shared/commandline.c **** {
 201:/home/baikal/workspace/C50/Huawei_IoT_Agent_Tiny_SDK_Linux///lwm2m/examples/shared/commandline.c ****     int i;
 202:/home/baikal/workspace/C50/Huawei_IoT_Agent_Tiny_SDK_Linux///lwm2m/examples/shared/commandline.c **** 
 203:/home/baikal/workspace/C50/Huawei_IoT_Agent_Tiny_SDK_Linux///lwm2m/examples/shared/commandline.c ****     for ( i = 0 ; i < num ; i++)
 204:/home/baikal/workspace/C50/Huawei_IoT_Agent_Tiny_SDK_Linux///lwm2m/examples/shared/commandline.c ****         fprintf(stream, "    ");
 205:/home/baikal/workspace/C50/Huawei_IoT_Agent_Tiny_SDK_Linux///lwm2m/examples/shared/commandline.c **** }
 206:/home/baikal/workspace/C50/Huawei_IoT_Agent_Tiny_SDK_Linux///lwm2m/examples/shared/commandline.c **** #ifdef ATING_DEBUG
 207:/home/baikal/workspace/C50/Huawei_IoT_Agent_Tiny_SDK_Linux///lwm2m/examples/shared/commandline.c **** void output_buffer(FILE *stream,
 208:/home/baikal/workspace/C50/Huawei_IoT_Agent_Tiny_SDK_Linux///lwm2m/examples/shared/commandline.c ****                    uint8_t *buffer,
 209:/home/baikal/workspace/C50/Huawei_IoT_Agent_Tiny_SDK_Linux///lwm2m/examples/shared/commandline.c ****                    int length,
 210:/home/baikal/workspace/C50/Huawei_IoT_Agent_Tiny_SDK_Linux///lwm2m/examples/shared/commandline.c ****                    int indent)
 211:/home/baikal/workspace/C50/Huawei_IoT_Agent_Tiny_SDK_Linux///lwm2m/examples/shared/commandline.c **** {
 212:/home/baikal/workspace/C50/Huawei_IoT_Agent_Tiny_SDK_Linux///lwm2m/examples/shared/commandline.c ****     int i;
 213:/home/baikal/workspace/C50/Huawei_IoT_Agent_Tiny_SDK_Linux///lwm2m/examples/shared/commandline.c **** 
 214:/home/baikal/workspace/C50/Huawei_IoT_Agent_Tiny_SDK_Linux///lwm2m/examples/shared/commandline.c ****     if (length == 0) fprintf(stream, "\n");
 215:/home/baikal/workspace/C50/Huawei_IoT_Agent_Tiny_SDK_Linux///lwm2m/examples/shared/commandline.c **** 
 216:/home/baikal/workspace/C50/Huawei_IoT_Agent_Tiny_SDK_Linux///lwm2m/examples/shared/commandline.c ****     if (buffer == NULL) return;
 217:/home/baikal/workspace/C50/Huawei_IoT_Agent_Tiny_SDK_Linux///lwm2m/examples/shared/commandline.c **** 
 218:/home/baikal/workspace/C50/Huawei_IoT_Agent_Tiny_SDK_Linux///lwm2m/examples/shared/commandline.c ****     i = 0;
 219:/home/baikal/workspace/C50/Huawei_IoT_Agent_Tiny_SDK_Linux///lwm2m/examples/shared/commandline.c ****     while (i < length)
 220:/home/baikal/workspace/C50/Huawei_IoT_Agent_Tiny_SDK_Linux///lwm2m/examples/shared/commandline.c ****     {
 221:/home/baikal/workspace/C50/Huawei_IoT_Agent_Tiny_SDK_Linux///lwm2m/examples/shared/commandline.c ****         uint8_t array[16];
 222:/home/baikal/workspace/C50/Huawei_IoT_Agent_Tiny_SDK_Linux///lwm2m/examples/shared/commandline.c ****         int j;
 223:/home/baikal/workspace/C50/Huawei_IoT_Agent_Tiny_SDK_Linux///lwm2m/examples/shared/commandline.c **** 
 224:/home/baikal/workspace/C50/Huawei_IoT_Agent_Tiny_SDK_Linux///lwm2m/examples/shared/commandline.c ****         print_indent(stream, indent);
 225:/home/baikal/workspace/C50/Huawei_IoT_Agent_Tiny_SDK_Linux///lwm2m/examples/shared/commandline.c ****         memcpy(array, buffer + i, 16);
 226:/home/baikal/workspace/C50/Huawei_IoT_Agent_Tiny_SDK_Linux///lwm2m/examples/shared/commandline.c ****         for (j = 0 ; j < 16 && i + j < length; j++)
 227:/home/baikal/workspace/C50/Huawei_IoT_Agent_Tiny_SDK_Linux///lwm2m/examples/shared/commandline.c ****         {
 228:/home/baikal/workspace/C50/Huawei_IoT_Agent_Tiny_SDK_Linux///lwm2m/examples/shared/commandline.c ****             fprintf(stream, "%02X ", array[j]);
 229:/home/baikal/workspace/C50/Huawei_IoT_Agent_Tiny_SDK_Linux///lwm2m/examples/shared/commandline.c ****             if (j % 4 == 3) fprintf(stream, " ");
 230:/home/baikal/workspace/C50/Huawei_IoT_Agent_Tiny_SDK_Linux///lwm2m/examples/shared/commandline.c ****         }
 231:/home/baikal/workspace/C50/Huawei_IoT_Agent_Tiny_SDK_Linux///lwm2m/examples/shared/commandline.c ****         if (length > 16)
 232:/home/baikal/workspace/C50/Huawei_IoT_Agent_Tiny_SDK_Linux///lwm2m/examples/shared/commandline.c ****         {
 233:/home/baikal/workspace/C50/Huawei_IoT_Agent_Tiny_SDK_Linux///lwm2m/examples/shared/commandline.c ****             while (j < 16)
 234:/home/baikal/workspace/C50/Huawei_IoT_Agent_Tiny_SDK_Linux///lwm2m/examples/shared/commandline.c ****             {
 235:/home/baikal/workspace/C50/Huawei_IoT_Agent_Tiny_SDK_Linux///lwm2m/examples/shared/commandline.c ****                 fprintf(stream, "   ");
 236:/home/baikal/workspace/C50/Huawei_IoT_Agent_Tiny_SDK_Linux///lwm2m/examples/shared/commandline.c ****                 if (j % 4 == 3) fprintf(stream, " ");
 237:/home/baikal/workspace/C50/Huawei_IoT_Agent_Tiny_SDK_Linux///lwm2m/examples/shared/commandline.c ****                 j++;
 238:/home/baikal/workspace/C50/Huawei_IoT_Agent_Tiny_SDK_Linux///lwm2m/examples/shared/commandline.c ****             }
 239:/home/baikal/workspace/C50/Huawei_IoT_Agent_Tiny_SDK_Linux///lwm2m/examples/shared/commandline.c ****         }
 240:/home/baikal/workspace/C50/Huawei_IoT_Agent_Tiny_SDK_Linux///lwm2m/examples/shared/commandline.c ****         fprintf(stream, " ");
 241:/home/baikal/workspace/C50/Huawei_IoT_Agent_Tiny_SDK_Linux///lwm2m/examples/shared/commandline.c ****         for (j = 0 ; j < 16 && i + j < length; j++)
 242:/home/baikal/workspace/C50/Huawei_IoT_Agent_Tiny_SDK_Linux///lwm2m/examples/shared/commandline.c ****         {
 243:/home/baikal/workspace/C50/Huawei_IoT_Agent_Tiny_SDK_Linux///lwm2m/examples/shared/commandline.c ****             if (isprint(array[j]))
 244:/home/baikal/workspace/C50/Huawei_IoT_Agent_Tiny_SDK_Linux///lwm2m/examples/shared/commandline.c ****                 fprintf(stream, "%c", array[j]);
 245:/home/baikal/workspace/C50/Huawei_IoT_Agent_Tiny_SDK_Linux///lwm2m/examples/shared/commandline.c ****             else
 246:/home/baikal/workspace/C50/Huawei_IoT_Agent_Tiny_SDK_Linux///lwm2m/examples/shared/commandline.c ****                 fprintf(stream, ".");
 247:/home/baikal/workspace/C50/Huawei_IoT_Agent_Tiny_SDK_Linux///lwm2m/examples/shared/commandline.c ****         }
 248:/home/baikal/workspace/C50/Huawei_IoT_Agent_Tiny_SDK_Linux///lwm2m/examples/shared/commandline.c ****         fprintf(stream, "\n");
GAS LISTING /tmp/ccEyAHyj.s 			page 7


 249:/home/baikal/workspace/C50/Huawei_IoT_Agent_Tiny_SDK_Linux///lwm2m/examples/shared/commandline.c ****         i += 16;
 250:/home/baikal/workspace/C50/Huawei_IoT_Agent_Tiny_SDK_Linux///lwm2m/examples/shared/commandline.c ****     }
 251:/home/baikal/workspace/C50/Huawei_IoT_Agent_Tiny_SDK_Linux///lwm2m/examples/shared/commandline.c **** }
 252:/home/baikal/workspace/C50/Huawei_IoT_Agent_Tiny_SDK_Linux///lwm2m/examples/shared/commandline.c **** #else
 253:/home/baikal/workspace/C50/Huawei_IoT_Agent_Tiny_SDK_Linux///lwm2m/examples/shared/commandline.c **** void output_buffer(FILE *stream,
 254:/home/baikal/workspace/C50/Huawei_IoT_Agent_Tiny_SDK_Linux///lwm2m/examples/shared/commandline.c ****                    uint8_t *buffer,
 255:/home/baikal/workspace/C50/Huawei_IoT_Agent_Tiny_SDK_Linux///lwm2m/examples/shared/commandline.c ****                    int length,
 256:/home/baikal/workspace/C50/Huawei_IoT_Agent_Tiny_SDK_Linux///lwm2m/examples/shared/commandline.c ****                    int indent)
 257:/home/baikal/workspace/C50/Huawei_IoT_Agent_Tiny_SDK_Linux///lwm2m/examples/shared/commandline.c **** {
 258:/home/baikal/workspace/C50/Huawei_IoT_Agent_Tiny_SDK_Linux///lwm2m/examples/shared/commandline.c **** }
 259:/home/baikal/workspace/C50/Huawei_IoT_Agent_Tiny_SDK_Linux///lwm2m/examples/shared/commandline.c **** #endif
 260:/home/baikal/workspace/C50/Huawei_IoT_Agent_Tiny_SDK_Linux///lwm2m/examples/shared/commandline.c **** void output_tlv(FILE *stream,
 261:/home/baikal/workspace/C50/Huawei_IoT_Agent_Tiny_SDK_Linux///lwm2m/examples/shared/commandline.c ****                 uint8_t *buffer,
 262:/home/baikal/workspace/C50/Huawei_IoT_Agent_Tiny_SDK_Linux///lwm2m/examples/shared/commandline.c ****                 size_t buffer_len,
 263:/home/baikal/workspace/C50/Huawei_IoT_Agent_Tiny_SDK_Linux///lwm2m/examples/shared/commandline.c ****                 int indent)
 264:/home/baikal/workspace/C50/Huawei_IoT_Agent_Tiny_SDK_Linux///lwm2m/examples/shared/commandline.c **** {
 265:/home/baikal/workspace/C50/Huawei_IoT_Agent_Tiny_SDK_Linux///lwm2m/examples/shared/commandline.c ****     lwm2m_data_type_t type;
 266:/home/baikal/workspace/C50/Huawei_IoT_Agent_Tiny_SDK_Linux///lwm2m/examples/shared/commandline.c ****     uint16_t id;
 267:/home/baikal/workspace/C50/Huawei_IoT_Agent_Tiny_SDK_Linux///lwm2m/examples/shared/commandline.c ****     size_t dataIndex;
 268:/home/baikal/workspace/C50/Huawei_IoT_Agent_Tiny_SDK_Linux///lwm2m/examples/shared/commandline.c ****     size_t dataLen;
 269:/home/baikal/workspace/C50/Huawei_IoT_Agent_Tiny_SDK_Linux///lwm2m/examples/shared/commandline.c ****     int length = 0;
 270:/home/baikal/workspace/C50/Huawei_IoT_Agent_Tiny_SDK_Linux///lwm2m/examples/shared/commandline.c ****     int result;
 271:/home/baikal/workspace/C50/Huawei_IoT_Agent_Tiny_SDK_Linux///lwm2m/examples/shared/commandline.c **** 
 272:/home/baikal/workspace/C50/Huawei_IoT_Agent_Tiny_SDK_Linux///lwm2m/examples/shared/commandline.c ****     while (0 != (result = lwm2m_decode_TLV((uint8_t *)buffer + length, buffer_len - length, &type, 
 273:/home/baikal/workspace/C50/Huawei_IoT_Agent_Tiny_SDK_Linux///lwm2m/examples/shared/commandline.c ****     {
 274:/home/baikal/workspace/C50/Huawei_IoT_Agent_Tiny_SDK_Linux///lwm2m/examples/shared/commandline.c ****         print_indent(stream, indent);
 275:/home/baikal/workspace/C50/Huawei_IoT_Agent_Tiny_SDK_Linux///lwm2m/examples/shared/commandline.c ****         fprintf(stream, "{\r\n");
 276:/home/baikal/workspace/C50/Huawei_IoT_Agent_Tiny_SDK_Linux///lwm2m/examples/shared/commandline.c ****         print_indent(stream, indent + 1);
 277:/home/baikal/workspace/C50/Huawei_IoT_Agent_Tiny_SDK_Linux///lwm2m/examples/shared/commandline.c ****         fprintf(stream, "ID: %d", id);
 278:/home/baikal/workspace/C50/Huawei_IoT_Agent_Tiny_SDK_Linux///lwm2m/examples/shared/commandline.c **** 
 279:/home/baikal/workspace/C50/Huawei_IoT_Agent_Tiny_SDK_Linux///lwm2m/examples/shared/commandline.c ****         fprintf(stream, " type: ");
 280:/home/baikal/workspace/C50/Huawei_IoT_Agent_Tiny_SDK_Linux///lwm2m/examples/shared/commandline.c ****         switch (type)
 281:/home/baikal/workspace/C50/Huawei_IoT_Agent_Tiny_SDK_Linux///lwm2m/examples/shared/commandline.c ****         {
 282:/home/baikal/workspace/C50/Huawei_IoT_Agent_Tiny_SDK_Linux///lwm2m/examples/shared/commandline.c ****         case LWM2M_TYPE_OBJECT_INSTANCE:
 283:/home/baikal/workspace/C50/Huawei_IoT_Agent_Tiny_SDK_Linux///lwm2m/examples/shared/commandline.c ****             fprintf(stream, "Object Instance");
 284:/home/baikal/workspace/C50/Huawei_IoT_Agent_Tiny_SDK_Linux///lwm2m/examples/shared/commandline.c ****             break;
 285:/home/baikal/workspace/C50/Huawei_IoT_Agent_Tiny_SDK_Linux///lwm2m/examples/shared/commandline.c ****         case LWM2M_TYPE_MULTIPLE_RESOURCE:
 286:/home/baikal/workspace/C50/Huawei_IoT_Agent_Tiny_SDK_Linux///lwm2m/examples/shared/commandline.c ****             fprintf(stream, "Multiple Instances");
 287:/home/baikal/workspace/C50/Huawei_IoT_Agent_Tiny_SDK_Linux///lwm2m/examples/shared/commandline.c ****             break;
 288:/home/baikal/workspace/C50/Huawei_IoT_Agent_Tiny_SDK_Linux///lwm2m/examples/shared/commandline.c ****         case LWM2M_TYPE_OPAQUE:
 289:/home/baikal/workspace/C50/Huawei_IoT_Agent_Tiny_SDK_Linux///lwm2m/examples/shared/commandline.c ****             fprintf(stream, "Resource Value");
 290:/home/baikal/workspace/C50/Huawei_IoT_Agent_Tiny_SDK_Linux///lwm2m/examples/shared/commandline.c ****             break;
 291:/home/baikal/workspace/C50/Huawei_IoT_Agent_Tiny_SDK_Linux///lwm2m/examples/shared/commandline.c ****         default:
 292:/home/baikal/workspace/C50/Huawei_IoT_Agent_Tiny_SDK_Linux///lwm2m/examples/shared/commandline.c ****             printf("unknown (%d)", (int)type);
 293:/home/baikal/workspace/C50/Huawei_IoT_Agent_Tiny_SDK_Linux///lwm2m/examples/shared/commandline.c ****             break;
 294:/home/baikal/workspace/C50/Huawei_IoT_Agent_Tiny_SDK_Linux///lwm2m/examples/shared/commandline.c ****         }
 295:/home/baikal/workspace/C50/Huawei_IoT_Agent_Tiny_SDK_Linux///lwm2m/examples/shared/commandline.c ****         fprintf(stream, "\n");
 296:/home/baikal/workspace/C50/Huawei_IoT_Agent_Tiny_SDK_Linux///lwm2m/examples/shared/commandline.c **** 
 297:/home/baikal/workspace/C50/Huawei_IoT_Agent_Tiny_SDK_Linux///lwm2m/examples/shared/commandline.c ****         print_indent(stream, indent + 1);
 298:/home/baikal/workspace/C50/Huawei_IoT_Agent_Tiny_SDK_Linux///lwm2m/examples/shared/commandline.c ****         fprintf(stream, "{\n");
 299:/home/baikal/workspace/C50/Huawei_IoT_Agent_Tiny_SDK_Linux///lwm2m/examples/shared/commandline.c ****         if (type == LWM2M_TYPE_OBJECT_INSTANCE || type == LWM2M_TYPE_MULTIPLE_RESOURCE)
 300:/home/baikal/workspace/C50/Huawei_IoT_Agent_Tiny_SDK_Linux///lwm2m/examples/shared/commandline.c ****         {
 301:/home/baikal/workspace/C50/Huawei_IoT_Agent_Tiny_SDK_Linux///lwm2m/examples/shared/commandline.c ****             output_tlv(stream, buffer + length + dataIndex, dataLen, indent + 1);
 302:/home/baikal/workspace/C50/Huawei_IoT_Agent_Tiny_SDK_Linux///lwm2m/examples/shared/commandline.c ****         }
 303:/home/baikal/workspace/C50/Huawei_IoT_Agent_Tiny_SDK_Linux///lwm2m/examples/shared/commandline.c ****         else
 304:/home/baikal/workspace/C50/Huawei_IoT_Agent_Tiny_SDK_Linux///lwm2m/examples/shared/commandline.c ****         {
 305:/home/baikal/workspace/C50/Huawei_IoT_Agent_Tiny_SDK_Linux///lwm2m/examples/shared/commandline.c ****             int64_t intValue;
GAS LISTING /tmp/ccEyAHyj.s 			page 8


 306:/home/baikal/workspace/C50/Huawei_IoT_Agent_Tiny_SDK_Linux///lwm2m/examples/shared/commandline.c ****             double floatValue;
 307:/home/baikal/workspace/C50/Huawei_IoT_Agent_Tiny_SDK_Linux///lwm2m/examples/shared/commandline.c ****             uint8_t tmp;
 308:/home/baikal/workspace/C50/Huawei_IoT_Agent_Tiny_SDK_Linux///lwm2m/examples/shared/commandline.c **** 
 309:/home/baikal/workspace/C50/Huawei_IoT_Agent_Tiny_SDK_Linux///lwm2m/examples/shared/commandline.c ****             print_indent(stream, indent + 2);
 310:/home/baikal/workspace/C50/Huawei_IoT_Agent_Tiny_SDK_Linux///lwm2m/examples/shared/commandline.c ****             fprintf(stream, "data (%d bytes):\r\n", dataLen);
 311:/home/baikal/workspace/C50/Huawei_IoT_Agent_Tiny_SDK_Linux///lwm2m/examples/shared/commandline.c ****             output_buffer(stream, (uint8_t *)buffer + length + dataIndex, dataLen, indent + 2);
 312:/home/baikal/workspace/C50/Huawei_IoT_Agent_Tiny_SDK_Linux///lwm2m/examples/shared/commandline.c **** 
 313:/home/baikal/workspace/C50/Huawei_IoT_Agent_Tiny_SDK_Linux///lwm2m/examples/shared/commandline.c ****             tmp = buffer[length + dataIndex + dataLen];
 314:/home/baikal/workspace/C50/Huawei_IoT_Agent_Tiny_SDK_Linux///lwm2m/examples/shared/commandline.c ****             buffer[length + dataIndex + dataLen] = 0;
 315:/home/baikal/workspace/C50/Huawei_IoT_Agent_Tiny_SDK_Linux///lwm2m/examples/shared/commandline.c ****             if (0 < sscanf((const char *)buffer + length + dataIndex, "%"PRId64, &intValue))
 316:/home/baikal/workspace/C50/Huawei_IoT_Agent_Tiny_SDK_Linux///lwm2m/examples/shared/commandline.c ****             {
 317:/home/baikal/workspace/C50/Huawei_IoT_Agent_Tiny_SDK_Linux///lwm2m/examples/shared/commandline.c ****                 print_indent(stream, indent + 2);
 318:/home/baikal/workspace/C50/Huawei_IoT_Agent_Tiny_SDK_Linux///lwm2m/examples/shared/commandline.c ****                 fprintf(stream, "data as Integer: %" PRId64 "\r\n", intValue);
 319:/home/baikal/workspace/C50/Huawei_IoT_Agent_Tiny_SDK_Linux///lwm2m/examples/shared/commandline.c ****             }
 320:/home/baikal/workspace/C50/Huawei_IoT_Agent_Tiny_SDK_Linux///lwm2m/examples/shared/commandline.c ****             if (0 < sscanf((const char *)buffer + length + dataIndex, "%lg", &floatValue))
 321:/home/baikal/workspace/C50/Huawei_IoT_Agent_Tiny_SDK_Linux///lwm2m/examples/shared/commandline.c ****             {
 322:/home/baikal/workspace/C50/Huawei_IoT_Agent_Tiny_SDK_Linux///lwm2m/examples/shared/commandline.c ****                 print_indent(stream, indent + 2);
 323:/home/baikal/workspace/C50/Huawei_IoT_Agent_Tiny_SDK_Linux///lwm2m/examples/shared/commandline.c ****                 fprintf(stream, "data as Float: %.16g\r\n", floatValue);
 324:/home/baikal/workspace/C50/Huawei_IoT_Agent_Tiny_SDK_Linux///lwm2m/examples/shared/commandline.c ****             }
 325:/home/baikal/workspace/C50/Huawei_IoT_Agent_Tiny_SDK_Linux///lwm2m/examples/shared/commandline.c ****             buffer[length + dataIndex + dataLen] = tmp;
 326:/home/baikal/workspace/C50/Huawei_IoT_Agent_Tiny_SDK_Linux///lwm2m/examples/shared/commandline.c ****         }
 327:/home/baikal/workspace/C50/Huawei_IoT_Agent_Tiny_SDK_Linux///lwm2m/examples/shared/commandline.c ****         print_indent(stream, indent + 1);
 328:/home/baikal/workspace/C50/Huawei_IoT_Agent_Tiny_SDK_Linux///lwm2m/examples/shared/commandline.c ****         fprintf(stream, "}\r\n");
 329:/home/baikal/workspace/C50/Huawei_IoT_Agent_Tiny_SDK_Linux///lwm2m/examples/shared/commandline.c ****         length += result;
 330:/home/baikal/workspace/C50/Huawei_IoT_Agent_Tiny_SDK_Linux///lwm2m/examples/shared/commandline.c ****         print_indent(stream, indent);
 331:/home/baikal/workspace/C50/Huawei_IoT_Agent_Tiny_SDK_Linux///lwm2m/examples/shared/commandline.c ****         fprintf(stream, "}\r\n");
 332:/home/baikal/workspace/C50/Huawei_IoT_Agent_Tiny_SDK_Linux///lwm2m/examples/shared/commandline.c ****     }
 333:/home/baikal/workspace/C50/Huawei_IoT_Agent_Tiny_SDK_Linux///lwm2m/examples/shared/commandline.c **** }
 334:/home/baikal/workspace/C50/Huawei_IoT_Agent_Tiny_SDK_Linux///lwm2m/examples/shared/commandline.c **** 
 335:/home/baikal/workspace/C50/Huawei_IoT_Agent_Tiny_SDK_Linux///lwm2m/examples/shared/commandline.c **** void output_data(FILE *stream,
 336:/home/baikal/workspace/C50/Huawei_IoT_Agent_Tiny_SDK_Linux///lwm2m/examples/shared/commandline.c ****                  lwm2m_media_type_t format,
 337:/home/baikal/workspace/C50/Huawei_IoT_Agent_Tiny_SDK_Linux///lwm2m/examples/shared/commandline.c ****                  uint8_t *data,
 338:/home/baikal/workspace/C50/Huawei_IoT_Agent_Tiny_SDK_Linux///lwm2m/examples/shared/commandline.c ****                  int dataLength,
 339:/home/baikal/workspace/C50/Huawei_IoT_Agent_Tiny_SDK_Linux///lwm2m/examples/shared/commandline.c ****                  int indent)
 340:/home/baikal/workspace/C50/Huawei_IoT_Agent_Tiny_SDK_Linux///lwm2m/examples/shared/commandline.c **** {
 341:/home/baikal/workspace/C50/Huawei_IoT_Agent_Tiny_SDK_Linux///lwm2m/examples/shared/commandline.c ****     int i;
 342:/home/baikal/workspace/C50/Huawei_IoT_Agent_Tiny_SDK_Linux///lwm2m/examples/shared/commandline.c **** 
 343:/home/baikal/workspace/C50/Huawei_IoT_Agent_Tiny_SDK_Linux///lwm2m/examples/shared/commandline.c ****     print_indent(stream, indent);
 344:/home/baikal/workspace/C50/Huawei_IoT_Agent_Tiny_SDK_Linux///lwm2m/examples/shared/commandline.c ****     fprintf(stream, "%d bytes received of type ", dataLength);
 345:/home/baikal/workspace/C50/Huawei_IoT_Agent_Tiny_SDK_Linux///lwm2m/examples/shared/commandline.c **** 
 346:/home/baikal/workspace/C50/Huawei_IoT_Agent_Tiny_SDK_Linux///lwm2m/examples/shared/commandline.c ****     switch (format)
 347:/home/baikal/workspace/C50/Huawei_IoT_Agent_Tiny_SDK_Linux///lwm2m/examples/shared/commandline.c ****     {
 348:/home/baikal/workspace/C50/Huawei_IoT_Agent_Tiny_SDK_Linux///lwm2m/examples/shared/commandline.c ****     case LWM2M_CONTENT_TEXT:
 349:/home/baikal/workspace/C50/Huawei_IoT_Agent_Tiny_SDK_Linux///lwm2m/examples/shared/commandline.c ****         fprintf(stream, "text/plain:\r\n");
 350:/home/baikal/workspace/C50/Huawei_IoT_Agent_Tiny_SDK_Linux///lwm2m/examples/shared/commandline.c ****         output_buffer(stream, data, dataLength, indent);
 351:/home/baikal/workspace/C50/Huawei_IoT_Agent_Tiny_SDK_Linux///lwm2m/examples/shared/commandline.c ****         break;
 352:/home/baikal/workspace/C50/Huawei_IoT_Agent_Tiny_SDK_Linux///lwm2m/examples/shared/commandline.c **** 
 353:/home/baikal/workspace/C50/Huawei_IoT_Agent_Tiny_SDK_Linux///lwm2m/examples/shared/commandline.c ****     case LWM2M_CONTENT_OPAQUE:
 354:/home/baikal/workspace/C50/Huawei_IoT_Agent_Tiny_SDK_Linux///lwm2m/examples/shared/commandline.c ****         fprintf(stream, "application/octet-stream:\r\n");
 355:/home/baikal/workspace/C50/Huawei_IoT_Agent_Tiny_SDK_Linux///lwm2m/examples/shared/commandline.c ****         output_buffer(stream, data, dataLength, indent);
 356:/home/baikal/workspace/C50/Huawei_IoT_Agent_Tiny_SDK_Linux///lwm2m/examples/shared/commandline.c ****         break;
 357:/home/baikal/workspace/C50/Huawei_IoT_Agent_Tiny_SDK_Linux///lwm2m/examples/shared/commandline.c **** 
 358:/home/baikal/workspace/C50/Huawei_IoT_Agent_Tiny_SDK_Linux///lwm2m/examples/shared/commandline.c ****     case LWM2M_CONTENT_TLV:
 359:/home/baikal/workspace/C50/Huawei_IoT_Agent_Tiny_SDK_Linux///lwm2m/examples/shared/commandline.c ****         fprintf(stream, "application/vnd.oma.lwm2m+tlv:\r\n");
 360:/home/baikal/workspace/C50/Huawei_IoT_Agent_Tiny_SDK_Linux///lwm2m/examples/shared/commandline.c ****         output_tlv(stream, data, dataLength, indent);
 361:/home/baikal/workspace/C50/Huawei_IoT_Agent_Tiny_SDK_Linux///lwm2m/examples/shared/commandline.c ****         break;
 362:/home/baikal/workspace/C50/Huawei_IoT_Agent_Tiny_SDK_Linux///lwm2m/examples/shared/commandline.c **** 
GAS LISTING /tmp/ccEyAHyj.s 			page 9


 363:/home/baikal/workspace/C50/Huawei_IoT_Agent_Tiny_SDK_Linux///lwm2m/examples/shared/commandline.c ****     case LWM2M_CONTENT_JSON:
 364:/home/baikal/workspace/C50/Huawei_IoT_Agent_Tiny_SDK_Linux///lwm2m/examples/shared/commandline.c ****         fprintf(stream, "application/vnd.oma.lwm2m+json:\r\n");
 365:/home/baikal/workspace/C50/Huawei_IoT_Agent_Tiny_SDK_Linux///lwm2m/examples/shared/commandline.c ****         print_indent(stream, indent);
 366:/home/baikal/workspace/C50/Huawei_IoT_Agent_Tiny_SDK_Linux///lwm2m/examples/shared/commandline.c ****         for (i = 0 ; i < dataLength ; i++)
 367:/home/baikal/workspace/C50/Huawei_IoT_Agent_Tiny_SDK_Linux///lwm2m/examples/shared/commandline.c ****         {
 368:/home/baikal/workspace/C50/Huawei_IoT_Agent_Tiny_SDK_Linux///lwm2m/examples/shared/commandline.c ****             fprintf(stream, "%c", data[i]);
 369:/home/baikal/workspace/C50/Huawei_IoT_Agent_Tiny_SDK_Linux///lwm2m/examples/shared/commandline.c ****         }
 370:/home/baikal/workspace/C50/Huawei_IoT_Agent_Tiny_SDK_Linux///lwm2m/examples/shared/commandline.c ****         fprintf(stream, "\n");
 371:/home/baikal/workspace/C50/Huawei_IoT_Agent_Tiny_SDK_Linux///lwm2m/examples/shared/commandline.c ****         break;
 372:/home/baikal/workspace/C50/Huawei_IoT_Agent_Tiny_SDK_Linux///lwm2m/examples/shared/commandline.c **** 
 373:/home/baikal/workspace/C50/Huawei_IoT_Agent_Tiny_SDK_Linux///lwm2m/examples/shared/commandline.c ****     case LWM2M_CONTENT_LINK:
 374:/home/baikal/workspace/C50/Huawei_IoT_Agent_Tiny_SDK_Linux///lwm2m/examples/shared/commandline.c ****         fprintf(stream, "application/link-format:\r\n");
 375:/home/baikal/workspace/C50/Huawei_IoT_Agent_Tiny_SDK_Linux///lwm2m/examples/shared/commandline.c ****         print_indent(stream, indent);
 376:/home/baikal/workspace/C50/Huawei_IoT_Agent_Tiny_SDK_Linux///lwm2m/examples/shared/commandline.c ****         for (i = 0 ; i < dataLength ; i++)
 377:/home/baikal/workspace/C50/Huawei_IoT_Agent_Tiny_SDK_Linux///lwm2m/examples/shared/commandline.c ****         {
 378:/home/baikal/workspace/C50/Huawei_IoT_Agent_Tiny_SDK_Linux///lwm2m/examples/shared/commandline.c ****             fprintf(stream, "%c", data[i]);
 379:/home/baikal/workspace/C50/Huawei_IoT_Agent_Tiny_SDK_Linux///lwm2m/examples/shared/commandline.c ****         }
 380:/home/baikal/workspace/C50/Huawei_IoT_Agent_Tiny_SDK_Linux///lwm2m/examples/shared/commandline.c ****         fprintf(stream, "\n");
 381:/home/baikal/workspace/C50/Huawei_IoT_Agent_Tiny_SDK_Linux///lwm2m/examples/shared/commandline.c ****         break;
 382:/home/baikal/workspace/C50/Huawei_IoT_Agent_Tiny_SDK_Linux///lwm2m/examples/shared/commandline.c **** 
 383:/home/baikal/workspace/C50/Huawei_IoT_Agent_Tiny_SDK_Linux///lwm2m/examples/shared/commandline.c ****     default:
 384:/home/baikal/workspace/C50/Huawei_IoT_Agent_Tiny_SDK_Linux///lwm2m/examples/shared/commandline.c ****         fprintf(stream, "Unknown (%d):\r\n", format);
 385:/home/baikal/workspace/C50/Huawei_IoT_Agent_Tiny_SDK_Linux///lwm2m/examples/shared/commandline.c ****         output_buffer(stream, data, dataLength, indent);
 386:/home/baikal/workspace/C50/Huawei_IoT_Agent_Tiny_SDK_Linux///lwm2m/examples/shared/commandline.c ****         break;
 387:/home/baikal/workspace/C50/Huawei_IoT_Agent_Tiny_SDK_Linux///lwm2m/examples/shared/commandline.c ****     }
 388:/home/baikal/workspace/C50/Huawei_IoT_Agent_Tiny_SDK_Linux///lwm2m/examples/shared/commandline.c **** }
 389:/home/baikal/workspace/C50/Huawei_IoT_Agent_Tiny_SDK_Linux///lwm2m/examples/shared/commandline.c **** 
 390:/home/baikal/workspace/C50/Huawei_IoT_Agent_Tiny_SDK_Linux///lwm2m/examples/shared/commandline.c **** void dump_tlv(FILE *stream,
 391:/home/baikal/workspace/C50/Huawei_IoT_Agent_Tiny_SDK_Linux///lwm2m/examples/shared/commandline.c ****               int size,
 392:/home/baikal/workspace/C50/Huawei_IoT_Agent_Tiny_SDK_Linux///lwm2m/examples/shared/commandline.c ****               lwm2m_data_t *dataP,
 393:/home/baikal/workspace/C50/Huawei_IoT_Agent_Tiny_SDK_Linux///lwm2m/examples/shared/commandline.c ****               int indent)
 394:/home/baikal/workspace/C50/Huawei_IoT_Agent_Tiny_SDK_Linux///lwm2m/examples/shared/commandline.c **** {
 395:/home/baikal/workspace/C50/Huawei_IoT_Agent_Tiny_SDK_Linux///lwm2m/examples/shared/commandline.c ****     int i;
 396:/home/baikal/workspace/C50/Huawei_IoT_Agent_Tiny_SDK_Linux///lwm2m/examples/shared/commandline.c **** 
 397:/home/baikal/workspace/C50/Huawei_IoT_Agent_Tiny_SDK_Linux///lwm2m/examples/shared/commandline.c ****     for(i = 0 ; i < size ; i++)
 398:/home/baikal/workspace/C50/Huawei_IoT_Agent_Tiny_SDK_Linux///lwm2m/examples/shared/commandline.c ****     {
 399:/home/baikal/workspace/C50/Huawei_IoT_Agent_Tiny_SDK_Linux///lwm2m/examples/shared/commandline.c ****         print_indent(stream, indent);
 400:/home/baikal/workspace/C50/Huawei_IoT_Agent_Tiny_SDK_Linux///lwm2m/examples/shared/commandline.c ****         fprintf(stream, "{\r\n");
 401:/home/baikal/workspace/C50/Huawei_IoT_Agent_Tiny_SDK_Linux///lwm2m/examples/shared/commandline.c ****         print_indent(stream, indent + 1);
 402:/home/baikal/workspace/C50/Huawei_IoT_Agent_Tiny_SDK_Linux///lwm2m/examples/shared/commandline.c ****         fprintf(stream, "id: %d\r\n", dataP[i].id);
 403:/home/baikal/workspace/C50/Huawei_IoT_Agent_Tiny_SDK_Linux///lwm2m/examples/shared/commandline.c **** 
 404:/home/baikal/workspace/C50/Huawei_IoT_Agent_Tiny_SDK_Linux///lwm2m/examples/shared/commandline.c ****         print_indent(stream, indent + 1);
 405:/home/baikal/workspace/C50/Huawei_IoT_Agent_Tiny_SDK_Linux///lwm2m/examples/shared/commandline.c ****         fprintf(stream, "type: ");
 406:/home/baikal/workspace/C50/Huawei_IoT_Agent_Tiny_SDK_Linux///lwm2m/examples/shared/commandline.c ****         switch (dataP[i].type)
 407:/home/baikal/workspace/C50/Huawei_IoT_Agent_Tiny_SDK_Linux///lwm2m/examples/shared/commandline.c ****         {
 408:/home/baikal/workspace/C50/Huawei_IoT_Agent_Tiny_SDK_Linux///lwm2m/examples/shared/commandline.c ****         case LWM2M_TYPE_OBJECT:
 409:/home/baikal/workspace/C50/Huawei_IoT_Agent_Tiny_SDK_Linux///lwm2m/examples/shared/commandline.c ****             fprintf(stream, "LWM2M_TYPE_OBJECT\r\n");
 410:/home/baikal/workspace/C50/Huawei_IoT_Agent_Tiny_SDK_Linux///lwm2m/examples/shared/commandline.c ****             dump_tlv(stream, dataP[i].value.asChildren.count, dataP[i].value.asChildren.array, inde
 411:/home/baikal/workspace/C50/Huawei_IoT_Agent_Tiny_SDK_Linux///lwm2m/examples/shared/commandline.c ****             break;
 412:/home/baikal/workspace/C50/Huawei_IoT_Agent_Tiny_SDK_Linux///lwm2m/examples/shared/commandline.c ****         case LWM2M_TYPE_OBJECT_INSTANCE:
 413:/home/baikal/workspace/C50/Huawei_IoT_Agent_Tiny_SDK_Linux///lwm2m/examples/shared/commandline.c ****             fprintf(stream, "LWM2M_TYPE_OBJECT_INSTANCE\r\n");
 414:/home/baikal/workspace/C50/Huawei_IoT_Agent_Tiny_SDK_Linux///lwm2m/examples/shared/commandline.c ****             dump_tlv(stream, dataP[i].value.asChildren.count, dataP[i].value.asChildren.array, inde
 415:/home/baikal/workspace/C50/Huawei_IoT_Agent_Tiny_SDK_Linux///lwm2m/examples/shared/commandline.c ****             break;
 416:/home/baikal/workspace/C50/Huawei_IoT_Agent_Tiny_SDK_Linux///lwm2m/examples/shared/commandline.c ****         case LWM2M_TYPE_MULTIPLE_RESOURCE:
 417:/home/baikal/workspace/C50/Huawei_IoT_Agent_Tiny_SDK_Linux///lwm2m/examples/shared/commandline.c ****             fprintf(stream, "LWM2M_TYPE_MULTIPLE_RESOURCE\r\n");
 418:/home/baikal/workspace/C50/Huawei_IoT_Agent_Tiny_SDK_Linux///lwm2m/examples/shared/commandline.c ****             dump_tlv(stream, dataP[i].value.asChildren.count, dataP[i].value.asChildren.array, inde
 419:/home/baikal/workspace/C50/Huawei_IoT_Agent_Tiny_SDK_Linux///lwm2m/examples/shared/commandline.c ****             break;
GAS LISTING /tmp/ccEyAHyj.s 			page 10


 420:/home/baikal/workspace/C50/Huawei_IoT_Agent_Tiny_SDK_Linux///lwm2m/examples/shared/commandline.c ****         case LWM2M_TYPE_UNDEFINED:
 421:/home/baikal/workspace/C50/Huawei_IoT_Agent_Tiny_SDK_Linux///lwm2m/examples/shared/commandline.c ****             fprintf(stream, "LWM2M_TYPE_UNDEFINED\r\n");
 422:/home/baikal/workspace/C50/Huawei_IoT_Agent_Tiny_SDK_Linux///lwm2m/examples/shared/commandline.c ****             break;
 423:/home/baikal/workspace/C50/Huawei_IoT_Agent_Tiny_SDK_Linux///lwm2m/examples/shared/commandline.c ****         case LWM2M_TYPE_STRING:
 424:/home/baikal/workspace/C50/Huawei_IoT_Agent_Tiny_SDK_Linux///lwm2m/examples/shared/commandline.c ****             fprintf(stream, "LWM2M_TYPE_STRING\r\n");
 425:/home/baikal/workspace/C50/Huawei_IoT_Agent_Tiny_SDK_Linux///lwm2m/examples/shared/commandline.c ****             print_indent(stream, indent + 1);
 426:/home/baikal/workspace/C50/Huawei_IoT_Agent_Tiny_SDK_Linux///lwm2m/examples/shared/commandline.c ****             fprintf(stream, "\"%.*s\"\r\n", (int)dataP[i].value.asBuffer.length, dataP[i].value.asB
 427:/home/baikal/workspace/C50/Huawei_IoT_Agent_Tiny_SDK_Linux///lwm2m/examples/shared/commandline.c ****             break;
 428:/home/baikal/workspace/C50/Huawei_IoT_Agent_Tiny_SDK_Linux///lwm2m/examples/shared/commandline.c ****         case LWM2M_TYPE_OPAQUE:
 429:/home/baikal/workspace/C50/Huawei_IoT_Agent_Tiny_SDK_Linux///lwm2m/examples/shared/commandline.c ****             fprintf(stream, "LWM2M_TYPE_OPAQUE\r\n");
 430:/home/baikal/workspace/C50/Huawei_IoT_Agent_Tiny_SDK_Linux///lwm2m/examples/shared/commandline.c ****             output_buffer(stream, dataP[i].value.asBuffer.buffer, dataP[i].value.asBuffer.length, i
 431:/home/baikal/workspace/C50/Huawei_IoT_Agent_Tiny_SDK_Linux///lwm2m/examples/shared/commandline.c ****             break;
 432:/home/baikal/workspace/C50/Huawei_IoT_Agent_Tiny_SDK_Linux///lwm2m/examples/shared/commandline.c ****         case LWM2M_TYPE_INTEGER:
 433:/home/baikal/workspace/C50/Huawei_IoT_Agent_Tiny_SDK_Linux///lwm2m/examples/shared/commandline.c ****             fprintf(stream, "LWM2M_TYPE_INTEGER: ");
 434:/home/baikal/workspace/C50/Huawei_IoT_Agent_Tiny_SDK_Linux///lwm2m/examples/shared/commandline.c ****             print_indent(stream, indent + 1);
 435:/home/baikal/workspace/C50/Huawei_IoT_Agent_Tiny_SDK_Linux///lwm2m/examples/shared/commandline.c ****             fprintf(stream, "%" PRId64, dataP[i].value.asInteger);
 436:/home/baikal/workspace/C50/Huawei_IoT_Agent_Tiny_SDK_Linux///lwm2m/examples/shared/commandline.c ****             fprintf(stream, "\r\n");
 437:/home/baikal/workspace/C50/Huawei_IoT_Agent_Tiny_SDK_Linux///lwm2m/examples/shared/commandline.c ****             break;
 438:/home/baikal/workspace/C50/Huawei_IoT_Agent_Tiny_SDK_Linux///lwm2m/examples/shared/commandline.c ****         case LWM2M_TYPE_FLOAT:
 439:/home/baikal/workspace/C50/Huawei_IoT_Agent_Tiny_SDK_Linux///lwm2m/examples/shared/commandline.c ****             fprintf(stream, "LWM2M_TYPE_FLOAT: ");
 440:/home/baikal/workspace/C50/Huawei_IoT_Agent_Tiny_SDK_Linux///lwm2m/examples/shared/commandline.c ****             print_indent(stream, indent + 1);
 441:/home/baikal/workspace/C50/Huawei_IoT_Agent_Tiny_SDK_Linux///lwm2m/examples/shared/commandline.c ****             fprintf(stream, "%" PRId64, dataP[i].value.asInteger);
 442:/home/baikal/workspace/C50/Huawei_IoT_Agent_Tiny_SDK_Linux///lwm2m/examples/shared/commandline.c ****             fprintf(stream, "\r\n");
 443:/home/baikal/workspace/C50/Huawei_IoT_Agent_Tiny_SDK_Linux///lwm2m/examples/shared/commandline.c ****             break;
 444:/home/baikal/workspace/C50/Huawei_IoT_Agent_Tiny_SDK_Linux///lwm2m/examples/shared/commandline.c ****         case LWM2M_TYPE_BOOLEAN:
 445:/home/baikal/workspace/C50/Huawei_IoT_Agent_Tiny_SDK_Linux///lwm2m/examples/shared/commandline.c ****             fprintf(stream, "LWM2M_TYPE_BOOLEAN: ");
 446:/home/baikal/workspace/C50/Huawei_IoT_Agent_Tiny_SDK_Linux///lwm2m/examples/shared/commandline.c ****             fprintf(stream, "%s", dataP[i].value.asBoolean ? "true" : "false");
 447:/home/baikal/workspace/C50/Huawei_IoT_Agent_Tiny_SDK_Linux///lwm2m/examples/shared/commandline.c ****             fprintf(stream, "\r\n");
 448:/home/baikal/workspace/C50/Huawei_IoT_Agent_Tiny_SDK_Linux///lwm2m/examples/shared/commandline.c ****             break;
 449:/home/baikal/workspace/C50/Huawei_IoT_Agent_Tiny_SDK_Linux///lwm2m/examples/shared/commandline.c ****         case LWM2M_TYPE_OBJECT_LINK:
 450:/home/baikal/workspace/C50/Huawei_IoT_Agent_Tiny_SDK_Linux///lwm2m/examples/shared/commandline.c ****             fprintf(stream, "LWM2M_TYPE_OBJECT_LINK\r\n");
 451:/home/baikal/workspace/C50/Huawei_IoT_Agent_Tiny_SDK_Linux///lwm2m/examples/shared/commandline.c ****             break;
 452:/home/baikal/workspace/C50/Huawei_IoT_Agent_Tiny_SDK_Linux///lwm2m/examples/shared/commandline.c ****         default:
 453:/home/baikal/workspace/C50/Huawei_IoT_Agent_Tiny_SDK_Linux///lwm2m/examples/shared/commandline.c ****             fprintf(stream, "unknown (%d)\r\n", (int)dataP[i].type);
 454:/home/baikal/workspace/C50/Huawei_IoT_Agent_Tiny_SDK_Linux///lwm2m/examples/shared/commandline.c ****             break;
 455:/home/baikal/workspace/C50/Huawei_IoT_Agent_Tiny_SDK_Linux///lwm2m/examples/shared/commandline.c ****         }
 456:/home/baikal/workspace/C50/Huawei_IoT_Agent_Tiny_SDK_Linux///lwm2m/examples/shared/commandline.c ****         print_indent(stream, indent);
 457:/home/baikal/workspace/C50/Huawei_IoT_Agent_Tiny_SDK_Linux///lwm2m/examples/shared/commandline.c ****         fprintf(stream, "}\r\n");
 458:/home/baikal/workspace/C50/Huawei_IoT_Agent_Tiny_SDK_Linux///lwm2m/examples/shared/commandline.c ****     }
 459:/home/baikal/workspace/C50/Huawei_IoT_Agent_Tiny_SDK_Linux///lwm2m/examples/shared/commandline.c **** }
 460:/home/baikal/workspace/C50/Huawei_IoT_Agent_Tiny_SDK_Linux///lwm2m/examples/shared/commandline.c **** 
 461:/home/baikal/workspace/C50/Huawei_IoT_Agent_Tiny_SDK_Linux///lwm2m/examples/shared/commandline.c **** #define CODE_TO_STRING(X)   case X : return #X
 462:/home/baikal/workspace/C50/Huawei_IoT_Agent_Tiny_SDK_Linux///lwm2m/examples/shared/commandline.c **** 
 463:/home/baikal/workspace/C50/Huawei_IoT_Agent_Tiny_SDK_Linux///lwm2m/examples/shared/commandline.c **** static const char *prv_status_to_string(int status)
 464:/home/baikal/workspace/C50/Huawei_IoT_Agent_Tiny_SDK_Linux///lwm2m/examples/shared/commandline.c **** {
  43              		.loc 1 464 0
  44              		.cfi_startproc
  45              	.LVL0:
 465:/home/baikal/workspace/C50/Huawei_IoT_Agent_Tiny_SDK_Linux///lwm2m/examples/shared/commandline.c ****     switch(status)
  46              		.loc 1 465 0
  47 0000 81FF8000 		cmpl	$128, %edi
  47      0000
  48 0006 0F849B00 		je	.L3
  48      0000
  49 000c 81FF8000 		cmpl	$128, %edi
  49      0000
  50 0012 7F31     		jg	.L4
GAS LISTING /tmp/ccEyAHyj.s 			page 11


  51 0014 83FF41   		cmpl	$65, %edi
  52 0017 7476     		je	.L5
  53 0019 83FF41   		cmpl	$65, %edi
  54 001c 7F12     		jg	.L6
  55 001e 85FF     		testl	%edi, %edi
  56 0020 7467     		je	.L7
  57 0022 83FF01   		cmpl	$1, %edi
  58 0025 0F84B200 		je	.L20
  58      0000
  59 002b E9A70000 		jmp	.L2
  59      00
  60              	.L6:
  61 0030 83FF44   		cmpl	$68, %edi
  62 0033 7466     		je	.L9
  63 0035 83FF45   		cmpl	$69, %edi
  64 0038 7467     		je	.L10
  65 003a 83FF42   		cmpl	$66, %edi
  66 003d 0F859400 		jne	.L2
  66      0000
  67 0043 EB50     		jmp	.L11
  68              	.L4:
  69 0045 81FF8600 		cmpl	$134, %edi
  69      0000
  70 004b 7472     		je	.L12
  71 004d 81FF8600 		cmpl	$134, %edi
  71      0000
  72 0053 7F1A     		jg	.L13
  73 0055 81FF8400 		cmpl	$132, %edi
  73      0000
  74 005b 7456     		je	.L14
  75 005d 81FF8400 		cmpl	$132, %edi
  75      0000
  76 0063 7F54     		jg	.L15
  77 0065 81FF8100 		cmpl	$129, %edi
  77      0000
  78 006b 7440     		je	.L16
  79 006d EB68     		jmp	.L2
  80              	.L13:
  81 006f 81FFA100 		cmpl	$161, %edi
  81      0000
  82 0075 7454     		je	.L17
  83 0077 81FFA300 		cmpl	$163, %edi
  83      0000
  84 007d 7452     		je	.L18
  85 007f 81FFA000 		cmpl	$160, %edi
  85      0000
  86 0085 7550     		jne	.L2
  87 0087 EB3C     		jmp	.L19
  88              	.L7:
 466:/home/baikal/workspace/C50/Huawei_IoT_Agent_Tiny_SDK_Linux///lwm2m/examples/shared/commandline.c ****     {
 467:/home/baikal/workspace/C50/Huawei_IoT_Agent_Tiny_SDK_Linux///lwm2m/examples/shared/commandline.c ****         CODE_TO_STRING(COAP_NO_ERROR);
  89              		.loc 1 467 0
  90 0089 B8000000 		movl	$.LC0, %eax
  90      00
  91 008e C3       		ret
  92              	.L5:
 468:/home/baikal/workspace/C50/Huawei_IoT_Agent_Tiny_SDK_Linux///lwm2m/examples/shared/commandline.c ****         CODE_TO_STRING(COAP_IGNORE);
GAS LISTING /tmp/ccEyAHyj.s 			page 12


 469:/home/baikal/workspace/C50/Huawei_IoT_Agent_Tiny_SDK_Linux///lwm2m/examples/shared/commandline.c ****         CODE_TO_STRING(COAP_201_CREATED);
  93              		.loc 1 469 0
  94 008f B8000000 		movl	$.LC2, %eax
  94      00
  95 0094 C3       		ret
  96              	.L11:
 470:/home/baikal/workspace/C50/Huawei_IoT_Agent_Tiny_SDK_Linux///lwm2m/examples/shared/commandline.c ****         CODE_TO_STRING(COAP_202_DELETED);
  97              		.loc 1 470 0
  98 0095 B8000000 		movl	$.LC3, %eax
  98      00
  99 009a C3       		ret
 100              	.L9:
 471:/home/baikal/workspace/C50/Huawei_IoT_Agent_Tiny_SDK_Linux///lwm2m/examples/shared/commandline.c ****         CODE_TO_STRING(COAP_204_CHANGED);
 101              		.loc 1 471 0
 102 009b B8000000 		movl	$.LC4, %eax
 102      00
 103 00a0 C3       		ret
 104              	.L10:
 472:/home/baikal/workspace/C50/Huawei_IoT_Agent_Tiny_SDK_Linux///lwm2m/examples/shared/commandline.c ****         CODE_TO_STRING(COAP_205_CONTENT);
 105              		.loc 1 472 0
 106 00a1 B8000000 		movl	$.LC5, %eax
 106      00
 107 00a6 C3       		ret
 108              	.L3:
 473:/home/baikal/workspace/C50/Huawei_IoT_Agent_Tiny_SDK_Linux///lwm2m/examples/shared/commandline.c ****         CODE_TO_STRING(COAP_400_BAD_REQUEST);
 109              		.loc 1 473 0
 110 00a7 B8000000 		movl	$.LC6, %eax
 110      00
 111 00ac C3       		ret
 112              	.L16:
 474:/home/baikal/workspace/C50/Huawei_IoT_Agent_Tiny_SDK_Linux///lwm2m/examples/shared/commandline.c ****         CODE_TO_STRING(COAP_401_UNAUTHORIZED);
 113              		.loc 1 474 0
 114 00ad B8000000 		movl	$.LC7, %eax
 114      00
 115 00b2 C3       		ret
 116              	.L14:
 475:/home/baikal/workspace/C50/Huawei_IoT_Agent_Tiny_SDK_Linux///lwm2m/examples/shared/commandline.c ****         CODE_TO_STRING(COAP_404_NOT_FOUND);
 117              		.loc 1 475 0
 118 00b3 B8000000 		movl	$.LC8, %eax
 118      00
 119 00b8 C3       		ret
 120              	.L15:
 476:/home/baikal/workspace/C50/Huawei_IoT_Agent_Tiny_SDK_Linux///lwm2m/examples/shared/commandline.c ****         CODE_TO_STRING(COAP_405_METHOD_NOT_ALLOWED);
 121              		.loc 1 476 0
 122 00b9 B8000000 		movl	$.LC9, %eax
 122      00
 123 00be C3       		ret
 124              	.L12:
 477:/home/baikal/workspace/C50/Huawei_IoT_Agent_Tiny_SDK_Linux///lwm2m/examples/shared/commandline.c ****         CODE_TO_STRING(COAP_406_NOT_ACCEPTABLE);
 125              		.loc 1 477 0
 126 00bf B8000000 		movl	$.LC10, %eax
 126      00
 127 00c4 C3       		ret
 128              	.L19:
 478:/home/baikal/workspace/C50/Huawei_IoT_Agent_Tiny_SDK_Linux///lwm2m/examples/shared/commandline.c ****         CODE_TO_STRING(COAP_500_INTERNAL_SERVER_ERROR);
 129              		.loc 1 478 0
 130 00c5 B8000000 		movl	$.LC11, %eax
GAS LISTING /tmp/ccEyAHyj.s 			page 13


 130      00
 131 00ca C3       		ret
 132              	.L17:
 479:/home/baikal/workspace/C50/Huawei_IoT_Agent_Tiny_SDK_Linux///lwm2m/examples/shared/commandline.c ****         CODE_TO_STRING(COAP_501_NOT_IMPLEMENTED);
 133              		.loc 1 479 0
 134 00cb B8000000 		movl	$.LC12, %eax
 134      00
 135 00d0 C3       		ret
 136              	.L18:
 480:/home/baikal/workspace/C50/Huawei_IoT_Agent_Tiny_SDK_Linux///lwm2m/examples/shared/commandline.c ****         CODE_TO_STRING(COAP_503_SERVICE_UNAVAILABLE);
 137              		.loc 1 480 0
 138 00d1 B8000000 		movl	$.LC13, %eax
 138      00
 139 00d6 C3       		ret
 140              	.L2:
 481:/home/baikal/workspace/C50/Huawei_IoT_Agent_Tiny_SDK_Linux///lwm2m/examples/shared/commandline.c ****     default:
 482:/home/baikal/workspace/C50/Huawei_IoT_Agent_Tiny_SDK_Linux///lwm2m/examples/shared/commandline.c ****         return "";
 141              		.loc 1 482 0
 142 00d7 B8000000 		movl	$.LC14, %eax
 142      00
 143 00dc C3       		ret
 144              	.L20:
 468:/home/baikal/workspace/C50/Huawei_IoT_Agent_Tiny_SDK_Linux///lwm2m/examples/shared/commandline.c ****         CODE_TO_STRING(COAP_201_CREATED);
 145              		.loc 1 468 0
 146 00dd B8000000 		movl	$.LC1, %eax
 146      00
 483:/home/baikal/workspace/C50/Huawei_IoT_Agent_Tiny_SDK_Linux///lwm2m/examples/shared/commandline.c ****     }
 484:/home/baikal/workspace/C50/Huawei_IoT_Agent_Tiny_SDK_Linux///lwm2m/examples/shared/commandline.c **** }
 147              		.loc 1 484 0
 148 00e2 C3       		ret
 149              		.cfi_endproc
 150              	.LFE79:
 152              		.section	.text.prv_b64Revert,"ax",@progbits
 154              	prv_b64Revert:
 155              	.LFB81:
 485:/home/baikal/workspace/C50/Huawei_IoT_Agent_Tiny_SDK_Linux///lwm2m/examples/shared/commandline.c **** 
 486:/home/baikal/workspace/C50/Huawei_IoT_Agent_Tiny_SDK_Linux///lwm2m/examples/shared/commandline.c **** void print_status(FILE *stream,
 487:/home/baikal/workspace/C50/Huawei_IoT_Agent_Tiny_SDK_Linux///lwm2m/examples/shared/commandline.c ****                   uint8_t status)
 488:/home/baikal/workspace/C50/Huawei_IoT_Agent_Tiny_SDK_Linux///lwm2m/examples/shared/commandline.c **** {
 489:/home/baikal/workspace/C50/Huawei_IoT_Agent_Tiny_SDK_Linux///lwm2m/examples/shared/commandline.c ****     fprintf(stream, "%d.%02d (%s)", (status & 0xE0) >> 5, status & 0x1F, prv_status_to_string(statu
 490:/home/baikal/workspace/C50/Huawei_IoT_Agent_Tiny_SDK_Linux///lwm2m/examples/shared/commandline.c **** }
 491:/home/baikal/workspace/C50/Huawei_IoT_Agent_Tiny_SDK_Linux///lwm2m/examples/shared/commandline.c **** 
 492:/home/baikal/workspace/C50/Huawei_IoT_Agent_Tiny_SDK_Linux///lwm2m/examples/shared/commandline.c **** /**********************************************************
 493:/home/baikal/workspace/C50/Huawei_IoT_Agent_Tiny_SDK_Linux///lwm2m/examples/shared/commandline.c **** * Base64 decoding function
 494:/home/baikal/workspace/C50/Huawei_IoT_Agent_Tiny_SDK_Linux///lwm2m/examples/shared/commandline.c **** *
 495:/home/baikal/workspace/C50/Huawei_IoT_Agent_Tiny_SDK_Linux///lwm2m/examples/shared/commandline.c **** * WARNING: Bugged for input strings with length < 4
 496:/home/baikal/workspace/C50/Huawei_IoT_Agent_Tiny_SDK_Linux///lwm2m/examples/shared/commandline.c **** *
 497:/home/baikal/workspace/C50/Huawei_IoT_Agent_Tiny_SDK_Linux///lwm2m/examples/shared/commandline.c **** */
 498:/home/baikal/workspace/C50/Huawei_IoT_Agent_Tiny_SDK_Linux///lwm2m/examples/shared/commandline.c **** 
 499:/home/baikal/workspace/C50/Huawei_IoT_Agent_Tiny_SDK_Linux///lwm2m/examples/shared/commandline.c **** #define PRV_B64_PADDING '='
 500:/home/baikal/workspace/C50/Huawei_IoT_Agent_Tiny_SDK_Linux///lwm2m/examples/shared/commandline.c **** 
 501:/home/baikal/workspace/C50/Huawei_IoT_Agent_Tiny_SDK_Linux///lwm2m/examples/shared/commandline.c **** static uint8_t prv_b64Revert(uint8_t value)
 502:/home/baikal/workspace/C50/Huawei_IoT_Agent_Tiny_SDK_Linux///lwm2m/examples/shared/commandline.c **** {
 156              		.loc 1 502 0
 157              		.cfi_startproc
 158              	.LVL1:
 503:/home/baikal/workspace/C50/Huawei_IoT_Agent_Tiny_SDK_Linux///lwm2m/examples/shared/commandline.c ****     if (value >= 'A' && value <= 'Z')
GAS LISTING /tmp/ccEyAHyj.s 			page 14


 159              		.loc 1 503 0
 160 0000 8D47BF   		leal	-65(%rdi), %eax
 161 0003 3C19     		cmpb	$25, %al
 162 0005 7635     		jbe	.L22
 504:/home/baikal/workspace/C50/Huawei_IoT_Agent_Tiny_SDK_Linux///lwm2m/examples/shared/commandline.c ****     {
 505:/home/baikal/workspace/C50/Huawei_IoT_Agent_Tiny_SDK_Linux///lwm2m/examples/shared/commandline.c ****         return (value - 'A');
 506:/home/baikal/workspace/C50/Huawei_IoT_Agent_Tiny_SDK_Linux///lwm2m/examples/shared/commandline.c ****     }
 507:/home/baikal/workspace/C50/Huawei_IoT_Agent_Tiny_SDK_Linux///lwm2m/examples/shared/commandline.c ****     if (value >= 'a' && value <= 'z')
 163              		.loc 1 507 0
 164 0007 8D479F   		leal	-97(%rdi), %eax
 165 000a 3C19     		cmpb	$25, %al
 166 000c 7704     		ja	.L23
 508:/home/baikal/workspace/C50/Huawei_IoT_Agent_Tiny_SDK_Linux///lwm2m/examples/shared/commandline.c ****     {
 509:/home/baikal/workspace/C50/Huawei_IoT_Agent_Tiny_SDK_Linux///lwm2m/examples/shared/commandline.c ****         return (26 + value - 'a');
 167              		.loc 1 509 0
 168 000e 8D47B9   		leal	-71(%rdi), %eax
 169 0011 C3       		ret
 170              	.L23:
 510:/home/baikal/workspace/C50/Huawei_IoT_Agent_Tiny_SDK_Linux///lwm2m/examples/shared/commandline.c ****     }
 511:/home/baikal/workspace/C50/Huawei_IoT_Agent_Tiny_SDK_Linux///lwm2m/examples/shared/commandline.c ****     if (value >= '0' && value <= '9')
 171              		.loc 1 511 0
 172 0012 8D47D0   		leal	-48(%rdi), %eax
 173 0015 3C09     		cmpb	$9, %al
 174 0017 7704     		ja	.L24
 512:/home/baikal/workspace/C50/Huawei_IoT_Agent_Tiny_SDK_Linux///lwm2m/examples/shared/commandline.c ****     {
 513:/home/baikal/workspace/C50/Huawei_IoT_Agent_Tiny_SDK_Linux///lwm2m/examples/shared/commandline.c ****         return (52 + value - '0');
 175              		.loc 1 513 0
 176 0019 8D4704   		leal	4(%rdi), %eax
 177 001c C3       		ret
 178              	.L24:
 514:/home/baikal/workspace/C50/Huawei_IoT_Agent_Tiny_SDK_Linux///lwm2m/examples/shared/commandline.c ****     }
 515:/home/baikal/workspace/C50/Huawei_IoT_Agent_Tiny_SDK_Linux///lwm2m/examples/shared/commandline.c ****     switch (value)
 179              		.loc 1 515 0
 180 001d 4080FF2B 		cmpb	$43, %dil
 181 0021 7408     		je	.L26
 182 0023 4080FF2F 		cmpb	$47, %dil
 183 0027 740E     		je	.L27
 184 0029 EB06     		jmp	.L28
 185              	.L26:
 516:/home/baikal/workspace/C50/Huawei_IoT_Agent_Tiny_SDK_Linux///lwm2m/examples/shared/commandline.c ****     {
 517:/home/baikal/workspace/C50/Huawei_IoT_Agent_Tiny_SDK_Linux///lwm2m/examples/shared/commandline.c ****     case '+':
 518:/home/baikal/workspace/C50/Huawei_IoT_Agent_Tiny_SDK_Linux///lwm2m/examples/shared/commandline.c ****         return 62;
 186              		.loc 1 518 0
 187 002b B83E0000 		movl	$62, %eax
 187      00
 188 0030 C3       		ret
 189              	.L28:
 519:/home/baikal/workspace/C50/Huawei_IoT_Agent_Tiny_SDK_Linux///lwm2m/examples/shared/commandline.c ****     case '/':
 520:/home/baikal/workspace/C50/Huawei_IoT_Agent_Tiny_SDK_Linux///lwm2m/examples/shared/commandline.c ****         return 63;
 521:/home/baikal/workspace/C50/Huawei_IoT_Agent_Tiny_SDK_Linux///lwm2m/examples/shared/commandline.c ****     default:
 522:/home/baikal/workspace/C50/Huawei_IoT_Agent_Tiny_SDK_Linux///lwm2m/examples/shared/commandline.c ****         return 0;
 190              		.loc 1 522 0
 191 0031 B8000000 		movl	$0, %eax
 191      00
 192 0036 C3       		ret
 193              	.L27:
 520:/home/baikal/workspace/C50/Huawei_IoT_Agent_Tiny_SDK_Linux///lwm2m/examples/shared/commandline.c ****     default:
GAS LISTING /tmp/ccEyAHyj.s 			page 15


 194              		.loc 1 520 0
 195 0037 B83F0000 		movl	$63, %eax
 195      00
 196              	.L22:
 523:/home/baikal/workspace/C50/Huawei_IoT_Agent_Tiny_SDK_Linux///lwm2m/examples/shared/commandline.c ****     }
 524:/home/baikal/workspace/C50/Huawei_IoT_Agent_Tiny_SDK_Linux///lwm2m/examples/shared/commandline.c **** }
 197              		.loc 1 524 0
 198 003c F3C3     		rep ret
 199              		.cfi_endproc
 200              	.LFE81:
 202              		.section	.text.prv_end_of_space,"ax",@progbits
 204              	prv_end_of_space:
 205              	.LFB70:
 156:/home/baikal/workspace/C50/Huawei_IoT_Agent_Tiny_SDK_Linux///lwm2m/examples/shared/commandline.c ****     while (isspace(buffer[0] & 0xff))
 206              		.loc 1 156 0
 207              		.cfi_startproc
 208              	.LVL2:
 209 0000 53       		pushq	%rbx
 210              	.LCFI0:
 211              		.cfi_def_cfa_offset 16
 212              		.cfi_offset 3, -16
 213 0001 4889FB   		movq	%rdi, %rbx
 157:/home/baikal/workspace/C50/Huawei_IoT_Agent_Tiny_SDK_Linux///lwm2m/examples/shared/commandline.c ****     {
 214              		.loc 1 157 0
 215 0004 EB04     		jmp	.L30
 216              	.LVL3:
 217              	.L31:
 159:/home/baikal/workspace/C50/Huawei_IoT_Agent_Tiny_SDK_Linux///lwm2m/examples/shared/commandline.c ****     }
 218              		.loc 1 159 0
 219 0006 4883C301 		addq	$1, %rbx
 220              	.LVL4:
 221              	.L30:
 157:/home/baikal/workspace/C50/Huawei_IoT_Agent_Tiny_SDK_Linux///lwm2m/examples/shared/commandline.c ****     {
 222              		.loc 1 157 0
 223 000a E8000000 		call	__ctype_b_loc
 223      00
 224              	.LVL5:
 225 000f 488B00   		movq	(%rax), %rax
 226 0012 0FB613   		movzbl	(%rbx), %edx
 227 0015 F6445001 		testb	$32, 1(%rax,%rdx,2)
 227      20
 228 001a 75EA     		jne	.L31
 162:/home/baikal/workspace/C50/Huawei_IoT_Agent_Tiny_SDK_Linux///lwm2m/examples/shared/commandline.c **** 
 229              		.loc 1 162 0
 230 001c 4889D8   		movq	%rbx, %rax
 231 001f 5B       		popq	%rbx
 232              	.LCFI1:
 233              		.cfi_def_cfa_offset 8
 234              	.LVL6:
 235 0020 C3       		ret
 236              		.cfi_endproc
 237              	.LFE70:
 239              		.section	.text.prv_find_command,"ax",@progbits
 241              	prv_find_command:
 242              	.LFB67:
  69:/home/baikal/workspace/C50/Huawei_IoT_Agent_Tiny_SDK_Linux///lwm2m/examples/shared/commandline.c ****     int i;
 243              		.loc 1 69 0
GAS LISTING /tmp/ccEyAHyj.s 			page 16


 244              		.cfi_startproc
 245              	.LVL7:
 246 0000 4157     		pushq	%r15
 247              	.LCFI2:
 248              		.cfi_def_cfa_offset 16
 249              		.cfi_offset 15, -16
 250 0002 4156     		pushq	%r14
 251              	.LCFI3:
 252              		.cfi_def_cfa_offset 24
 253              		.cfi_offset 14, -24
 254 0004 4155     		pushq	%r13
 255              	.LCFI4:
 256              		.cfi_def_cfa_offset 32
 257              		.cfi_offset 13, -32
 258 0006 4154     		pushq	%r12
 259              	.LCFI5:
 260              		.cfi_def_cfa_offset 40
 261              		.cfi_offset 12, -40
 262 0008 55       		pushq	%rbp
 263              	.LCFI6:
 264              		.cfi_def_cfa_offset 48
 265              		.cfi_offset 6, -48
 266 0009 53       		pushq	%rbx
 267              	.LCFI7:
 268              		.cfi_def_cfa_offset 56
 269              		.cfi_offset 3, -56
 270 000a 4883EC08 		subq	$8, %rsp
 271              	.LCFI8:
 272              		.cfi_def_cfa_offset 64
  72:/home/baikal/workspace/C50/Huawei_IoT_Agent_Tiny_SDK_Linux///lwm2m/examples/shared/commandline.c **** 
 273              		.loc 1 72 0
 274 000e 4885D2   		testq	%rdx, %rdx
 275 0011 746D     		je	.L38
 276 0013 4989D5   		movq	%rdx, %r13
 277 0016 4989F7   		movq	%rsi, %r15
 278 0019 4989FE   		movq	%rdi, %r14
 279 001c 41BC0000 		movl	$0, %r12d
 279      0000
 280 0022 EB04     		jmp	.L35
 281              	.LVL8:
 282              	.L37:
  78:/home/baikal/workspace/C50/Huawei_IoT_Agent_Tiny_SDK_Linux///lwm2m/examples/shared/commandline.c ****     }
 283              		.loc 1 78 0
 284 0024 4183C401 		addl	$1, %r12d
 285              	.LVL9:
 286              	.L35:
  75:/home/baikal/workspace/C50/Huawei_IoT_Agent_Tiny_SDK_Linux///lwm2m/examples/shared/commandline.c ****             && (strlen(commandArray[i].name) != length || strncmp(buffer, commandArray[i].name, len
 287              		.loc 1 75 0
 288 0028 4963C4   		movslq	%r12d, %rax
 289 002b 488D0480 		leaq	(%rax,%rax,4), %rax
 290 002f 488D1CC5 		leaq	0(,%rax,8), %rbx
 290      00000000 
 291 0037 4C01F3   		addq	%r14, %rbx
 292 003a 488B2B   		movq	(%rbx), %rbp
 293 003d 4885ED   		testq	%rbp, %rbp
 294 0040 7432     		je	.L36
  76:/home/baikal/workspace/C50/Huawei_IoT_Agent_Tiny_SDK_Linux///lwm2m/examples/shared/commandline.c ****     {
GAS LISTING /tmp/ccEyAHyj.s 			page 17


 295              		.loc 1 76 0
 296 0042 B8000000 		movl	$0, %eax
 296      00
 297 0047 48C7C1FF 		movq	$-1, %rcx
 297      FFFFFF
 298 004e 4889EF   		movq	%rbp, %rdi
 299 0051 F2AE     		repnz scasb
 300 0053 4889C8   		movq	%rcx, %rax
 301 0056 48F7D0   		notq	%rax
 302 0059 4883E801 		subq	$1, %rax
 303 005d 4939C5   		cmpq	%rax, %r13
 304 0060 75C2     		jne	.L37
  76:/home/baikal/workspace/C50/Huawei_IoT_Agent_Tiny_SDK_Linux///lwm2m/examples/shared/commandline.c ****     {
 305              		.loc 1 76 0 is_stmt 0 discriminator 1
 306 0062 4C89EA   		movq	%r13, %rdx
 307 0065 4889EE   		movq	%rbp, %rsi
 308 0068 4C89FF   		movq	%r15, %rdi
 309 006b E8000000 		call	strncmp
 309      00
 310              	.LVL10:
 311 0070 85C0     		testl	%eax, %eax
 312 0072 75B0     		jne	.L37
 313              	.L36:
  81:/home/baikal/workspace/C50/Huawei_IoT_Agent_Tiny_SDK_Linux///lwm2m/examples/shared/commandline.c ****     {
 314              		.loc 1 81 0 is_stmt 1
 315 0074 4885ED   		testq	%rbp, %rbp
 316 0077 750C     		jne	.L34
  83:/home/baikal/workspace/C50/Huawei_IoT_Agent_Tiny_SDK_Linux///lwm2m/examples/shared/commandline.c ****     }
 317              		.loc 1 83 0
 318 0079 BB000000 		movl	$0, %ebx
 318      00
 319 007e EB05     		jmp	.L34
 320              	.LVL11:
 321              	.L38:
  72:/home/baikal/workspace/C50/Huawei_IoT_Agent_Tiny_SDK_Linux///lwm2m/examples/shared/commandline.c **** 
 322              		.loc 1 72 0
 323 0080 BB000000 		movl	$0, %ebx
 323      00
 324              	.LVL12:
 325              	.L34:
  89:/home/baikal/workspace/C50/Huawei_IoT_Agent_Tiny_SDK_Linux///lwm2m/examples/shared/commandline.c **** 
 326              		.loc 1 89 0
 327 0085 4889D8   		movq	%rbx, %rax
 328 0088 4883C408 		addq	$8, %rsp
 329              	.LCFI9:
 330              		.cfi_def_cfa_offset 56
 331 008c 5B       		popq	%rbx
 332              	.LCFI10:
 333              		.cfi_def_cfa_offset 48
 334 008d 5D       		popq	%rbp
 335              	.LCFI11:
 336              		.cfi_def_cfa_offset 40
 337 008e 415C     		popq	%r12
 338              	.LCFI12:
 339              		.cfi_def_cfa_offset 32
 340 0090 415D     		popq	%r13
 341              	.LCFI13:
GAS LISTING /tmp/ccEyAHyj.s 			page 18


 342              		.cfi_def_cfa_offset 24
 343 0092 415E     		popq	%r14
 344              	.LCFI14:
 345              		.cfi_def_cfa_offset 16
 346 0094 415F     		popq	%r15
 347              	.LCFI15:
 348              		.cfi_def_cfa_offset 8
 349 0096 C3       		ret
 350              		.cfi_endproc
 351              	.LFE67:
 353              		.section	.rodata.str1.1
 354              	.LC15:
 355 0107 20202020 		.string	"    "
 355      00
 356              		.section	.text.print_indent,"ax",@progbits
 358              	print_indent:
 359              	.LFB74:
 200:/home/baikal/workspace/C50/Huawei_IoT_Agent_Tiny_SDK_Linux///lwm2m/examples/shared/commandline.c ****     int i;
 360              		.loc 1 200 0
 361              		.cfi_startproc
 362              	.LVL13:
 363 0000 4154     		pushq	%r12
 364              	.LCFI16:
 365              		.cfi_def_cfa_offset 16
 366              		.cfi_offset 12, -16
 367 0002 55       		pushq	%rbp
 368              	.LCFI17:
 369              		.cfi_def_cfa_offset 24
 370              		.cfi_offset 6, -24
 371 0003 53       		pushq	%rbx
 372              	.LCFI18:
 373              		.cfi_def_cfa_offset 32
 374              		.cfi_offset 3, -32
 375 0004 4989FC   		movq	%rdi, %r12
 376 0007 89F5     		movl	%esi, %ebp
 377              	.LVL14:
 203:/home/baikal/workspace/C50/Huawei_IoT_Agent_Tiny_SDK_Linux///lwm2m/examples/shared/commandline.c ****         fprintf(stream, "    ");
 378              		.loc 1 203 0
 379 0009 BB000000 		movl	$0, %ebx
 379      00
 380 000e EB1A     		jmp	.L41
 381              	.LVL15:
 382              	.L42:
 383              	.LBB118:
 384              	.LBB119:
 385              		.file 2 "/usr/include/x86_64-linux-gnu/bits/stdio2.h"
   1:/usr/include/x86_64-linux-gnu/bits/stdio2.h **** /* Checking macros for stdio functions.
   2:/usr/include/x86_64-linux-gnu/bits/stdio2.h ****    Copyright (C) 2004-2016 Free Software Foundation, Inc.
   3:/usr/include/x86_64-linux-gnu/bits/stdio2.h ****    This file is part of the GNU C Library.
   4:/usr/include/x86_64-linux-gnu/bits/stdio2.h **** 
   5:/usr/include/x86_64-linux-gnu/bits/stdio2.h ****    The GNU C Library is free software; you can redistribute it and/or
   6:/usr/include/x86_64-linux-gnu/bits/stdio2.h ****    modify it under the terms of the GNU Lesser General Public
   7:/usr/include/x86_64-linux-gnu/bits/stdio2.h ****    License as published by the Free Software Foundation; either
   8:/usr/include/x86_64-linux-gnu/bits/stdio2.h ****    version 2.1 of the License, or (at your option) any later version.
   9:/usr/include/x86_64-linux-gnu/bits/stdio2.h **** 
  10:/usr/include/x86_64-linux-gnu/bits/stdio2.h ****    The GNU C Library is distributed in the hope that it will be useful,
  11:/usr/include/x86_64-linux-gnu/bits/stdio2.h ****    but WITHOUT ANY WARRANTY; without even the implied warranty of
GAS LISTING /tmp/ccEyAHyj.s 			page 19


  12:/usr/include/x86_64-linux-gnu/bits/stdio2.h ****    MERCHANTABILITY or FITNESS FOR A PARTICULAR PURPOSE.  See the GNU
  13:/usr/include/x86_64-linux-gnu/bits/stdio2.h ****    Lesser General Public License for more details.
  14:/usr/include/x86_64-linux-gnu/bits/stdio2.h **** 
  15:/usr/include/x86_64-linux-gnu/bits/stdio2.h ****    You should have received a copy of the GNU Lesser General Public
  16:/usr/include/x86_64-linux-gnu/bits/stdio2.h ****    License along with the GNU C Library; if not, see
  17:/usr/include/x86_64-linux-gnu/bits/stdio2.h ****    <http://www.gnu.org/licenses/>.  */
  18:/usr/include/x86_64-linux-gnu/bits/stdio2.h **** 
  19:/usr/include/x86_64-linux-gnu/bits/stdio2.h **** #ifndef _STDIO_H
  20:/usr/include/x86_64-linux-gnu/bits/stdio2.h **** # error "Never include <bits/stdio2.h> directly; use <stdio.h> instead."
  21:/usr/include/x86_64-linux-gnu/bits/stdio2.h **** #endif
  22:/usr/include/x86_64-linux-gnu/bits/stdio2.h **** 
  23:/usr/include/x86_64-linux-gnu/bits/stdio2.h **** extern int __sprintf_chk (char *__restrict __s, int __flag, size_t __slen,
  24:/usr/include/x86_64-linux-gnu/bits/stdio2.h **** 			  const char *__restrict __format, ...) __THROW;
  25:/usr/include/x86_64-linux-gnu/bits/stdio2.h **** extern int __vsprintf_chk (char *__restrict __s, int __flag, size_t __slen,
  26:/usr/include/x86_64-linux-gnu/bits/stdio2.h **** 			   const char *__restrict __format,
  27:/usr/include/x86_64-linux-gnu/bits/stdio2.h **** 			   _G_va_list __ap) __THROW;
  28:/usr/include/x86_64-linux-gnu/bits/stdio2.h **** 
  29:/usr/include/x86_64-linux-gnu/bits/stdio2.h **** #ifdef __va_arg_pack
  30:/usr/include/x86_64-linux-gnu/bits/stdio2.h **** __fortify_function int
  31:/usr/include/x86_64-linux-gnu/bits/stdio2.h **** __NTH (sprintf (char *__restrict __s, const char *__restrict __fmt, ...))
  32:/usr/include/x86_64-linux-gnu/bits/stdio2.h **** {
  33:/usr/include/x86_64-linux-gnu/bits/stdio2.h ****   return __builtin___sprintf_chk (__s, __USE_FORTIFY_LEVEL - 1,
  34:/usr/include/x86_64-linux-gnu/bits/stdio2.h **** 				  __bos (__s), __fmt, __va_arg_pack ());
  35:/usr/include/x86_64-linux-gnu/bits/stdio2.h **** }
  36:/usr/include/x86_64-linux-gnu/bits/stdio2.h **** #elif !defined __cplusplus
  37:/usr/include/x86_64-linux-gnu/bits/stdio2.h **** # define sprintf(str, ...) \
  38:/usr/include/x86_64-linux-gnu/bits/stdio2.h ****   __builtin___sprintf_chk (str, __USE_FORTIFY_LEVEL - 1, __bos (str), \
  39:/usr/include/x86_64-linux-gnu/bits/stdio2.h **** 			   __VA_ARGS__)
  40:/usr/include/x86_64-linux-gnu/bits/stdio2.h **** #endif
  41:/usr/include/x86_64-linux-gnu/bits/stdio2.h **** 
  42:/usr/include/x86_64-linux-gnu/bits/stdio2.h **** __fortify_function int
  43:/usr/include/x86_64-linux-gnu/bits/stdio2.h **** __NTH (vsprintf (char *__restrict __s, const char *__restrict __fmt,
  44:/usr/include/x86_64-linux-gnu/bits/stdio2.h **** 		 _G_va_list __ap))
  45:/usr/include/x86_64-linux-gnu/bits/stdio2.h **** {
  46:/usr/include/x86_64-linux-gnu/bits/stdio2.h ****   return __builtin___vsprintf_chk (__s, __USE_FORTIFY_LEVEL - 1,
  47:/usr/include/x86_64-linux-gnu/bits/stdio2.h **** 				   __bos (__s), __fmt, __ap);
  48:/usr/include/x86_64-linux-gnu/bits/stdio2.h **** }
  49:/usr/include/x86_64-linux-gnu/bits/stdio2.h **** 
  50:/usr/include/x86_64-linux-gnu/bits/stdio2.h **** #if defined __USE_ISOC99 || defined __USE_UNIX98
  51:/usr/include/x86_64-linux-gnu/bits/stdio2.h **** 
  52:/usr/include/x86_64-linux-gnu/bits/stdio2.h **** extern int __snprintf_chk (char *__restrict __s, size_t __n, int __flag,
  53:/usr/include/x86_64-linux-gnu/bits/stdio2.h **** 			   size_t __slen, const char *__restrict __format,
  54:/usr/include/x86_64-linux-gnu/bits/stdio2.h **** 			   ...) __THROW;
  55:/usr/include/x86_64-linux-gnu/bits/stdio2.h **** extern int __vsnprintf_chk (char *__restrict __s, size_t __n, int __flag,
  56:/usr/include/x86_64-linux-gnu/bits/stdio2.h **** 			    size_t __slen, const char *__restrict __format,
  57:/usr/include/x86_64-linux-gnu/bits/stdio2.h **** 			    _G_va_list __ap) __THROW;
  58:/usr/include/x86_64-linux-gnu/bits/stdio2.h **** 
  59:/usr/include/x86_64-linux-gnu/bits/stdio2.h **** # ifdef __va_arg_pack
  60:/usr/include/x86_64-linux-gnu/bits/stdio2.h **** __fortify_function int
  61:/usr/include/x86_64-linux-gnu/bits/stdio2.h **** __NTH (snprintf (char *__restrict __s, size_t __n,
  62:/usr/include/x86_64-linux-gnu/bits/stdio2.h **** 		 const char *__restrict __fmt, ...))
  63:/usr/include/x86_64-linux-gnu/bits/stdio2.h **** {
  64:/usr/include/x86_64-linux-gnu/bits/stdio2.h ****   return __builtin___snprintf_chk (__s, __n, __USE_FORTIFY_LEVEL - 1,
  65:/usr/include/x86_64-linux-gnu/bits/stdio2.h **** 				   __bos (__s), __fmt, __va_arg_pack ());
  66:/usr/include/x86_64-linux-gnu/bits/stdio2.h **** }
  67:/usr/include/x86_64-linux-gnu/bits/stdio2.h **** # elif !defined __cplusplus
  68:/usr/include/x86_64-linux-gnu/bits/stdio2.h **** #  define snprintf(str, len, ...) \
GAS LISTING /tmp/ccEyAHyj.s 			page 20


  69:/usr/include/x86_64-linux-gnu/bits/stdio2.h ****   __builtin___snprintf_chk (str, len, __USE_FORTIFY_LEVEL - 1, __bos (str), \
  70:/usr/include/x86_64-linux-gnu/bits/stdio2.h **** 			    __VA_ARGS__)
  71:/usr/include/x86_64-linux-gnu/bits/stdio2.h **** # endif
  72:/usr/include/x86_64-linux-gnu/bits/stdio2.h **** 
  73:/usr/include/x86_64-linux-gnu/bits/stdio2.h **** __fortify_function int
  74:/usr/include/x86_64-linux-gnu/bits/stdio2.h **** __NTH (vsnprintf (char *__restrict __s, size_t __n,
  75:/usr/include/x86_64-linux-gnu/bits/stdio2.h **** 		  const char *__restrict __fmt, _G_va_list __ap))
  76:/usr/include/x86_64-linux-gnu/bits/stdio2.h **** {
  77:/usr/include/x86_64-linux-gnu/bits/stdio2.h ****   return __builtin___vsnprintf_chk (__s, __n, __USE_FORTIFY_LEVEL - 1,
  78:/usr/include/x86_64-linux-gnu/bits/stdio2.h **** 				    __bos (__s), __fmt, __ap);
  79:/usr/include/x86_64-linux-gnu/bits/stdio2.h **** }
  80:/usr/include/x86_64-linux-gnu/bits/stdio2.h **** 
  81:/usr/include/x86_64-linux-gnu/bits/stdio2.h **** #endif
  82:/usr/include/x86_64-linux-gnu/bits/stdio2.h **** 
  83:/usr/include/x86_64-linux-gnu/bits/stdio2.h **** #if __USE_FORTIFY_LEVEL > 1
  84:/usr/include/x86_64-linux-gnu/bits/stdio2.h **** 
  85:/usr/include/x86_64-linux-gnu/bits/stdio2.h **** extern int __fprintf_chk (FILE *__restrict __stream, int __flag,
  86:/usr/include/x86_64-linux-gnu/bits/stdio2.h **** 			  const char *__restrict __format, ...);
  87:/usr/include/x86_64-linux-gnu/bits/stdio2.h **** extern int __printf_chk (int __flag, const char *__restrict __format, ...);
  88:/usr/include/x86_64-linux-gnu/bits/stdio2.h **** extern int __vfprintf_chk (FILE *__restrict __stream, int __flag,
  89:/usr/include/x86_64-linux-gnu/bits/stdio2.h **** 			   const char *__restrict __format, _G_va_list __ap);
  90:/usr/include/x86_64-linux-gnu/bits/stdio2.h **** extern int __vprintf_chk (int __flag, const char *__restrict __format,
  91:/usr/include/x86_64-linux-gnu/bits/stdio2.h **** 			  _G_va_list __ap);
  92:/usr/include/x86_64-linux-gnu/bits/stdio2.h **** 
  93:/usr/include/x86_64-linux-gnu/bits/stdio2.h **** # ifdef __va_arg_pack
  94:/usr/include/x86_64-linux-gnu/bits/stdio2.h **** __fortify_function int
  95:/usr/include/x86_64-linux-gnu/bits/stdio2.h **** fprintf (FILE *__restrict __stream, const char *__restrict __fmt, ...)
  96:/usr/include/x86_64-linux-gnu/bits/stdio2.h **** {
  97:/usr/include/x86_64-linux-gnu/bits/stdio2.h ****   return __fprintf_chk (__stream, __USE_FORTIFY_LEVEL - 1, __fmt,
 386              		.loc 2 97 0
 387 0010 4C89E1   		movq	%r12, %rcx
 388 0013 BA040000 		movl	$4, %edx
 388      00
 389 0018 BE010000 		movl	$1, %esi
 389      00
 390 001d BF000000 		movl	$.LC15, %edi
 390      00
 391 0022 E8000000 		call	fwrite
 391      00
 392              	.LVL16:
 393              	.LBE119:
 394              	.LBE118:
 203:/home/baikal/workspace/C50/Huawei_IoT_Agent_Tiny_SDK_Linux///lwm2m/examples/shared/commandline.c ****         fprintf(stream, "    ");
 395              		.loc 1 203 0
 396 0027 83C301   		addl	$1, %ebx
 397              	.LVL17:
 398              	.L41:
 203:/home/baikal/workspace/C50/Huawei_IoT_Agent_Tiny_SDK_Linux///lwm2m/examples/shared/commandline.c ****         fprintf(stream, "    ");
 399              		.loc 1 203 0 is_stmt 0 discriminator 1
 400 002a 39EB     		cmpl	%ebp, %ebx
 401 002c 7CE2     		jl	.L42
 205:/home/baikal/workspace/C50/Huawei_IoT_Agent_Tiny_SDK_Linux///lwm2m/examples/shared/commandline.c **** #ifdef ATING_DEBUG
 402              		.loc 1 205 0 is_stmt 1
 403 002e 5B       		popq	%rbx
 404              	.LCFI19:
 405              		.cfi_def_cfa_offset 24
 406              	.LVL18:
GAS LISTING /tmp/ccEyAHyj.s 			page 21


 407 002f 5D       		popq	%rbp
 408              	.LCFI20:
 409              		.cfi_def_cfa_offset 16
 410              	.LVL19:
 411 0030 415C     		popq	%r12
 412              	.LCFI21:
 413              		.cfi_def_cfa_offset 8
 414              	.LVL20:
 415 0032 C3       		ret
 416              		.cfi_endproc
 417              	.LFE74:
 419              		.section	.rodata.str1.8
 420 001f 00       		.align 8
 421              	.LC16:
 422 0020 68656C70 		.string	"help\tType 'help [COMMAND]' for more details on a command.\r\n"
 422      09547970 
 422      65202768 
 422      656C7020 
 422      5B434F4D 
 423              		.section	.rodata.str1.1
 424              	.LC17:
 425 010c 25730925 		.string	"%s\t%s\r\n"
 425      730D0A00 
 426              	.LC18:
 427 0114 25730D0A 		.string	"%s\r\n"
 427      00
 428              		.section	.text.prv_displayHelp,"ax",@progbits
 430              	prv_displayHelp:
 431              	.LFB68:
  93:/home/baikal/workspace/C50/Huawei_IoT_Agent_Tiny_SDK_Linux///lwm2m/examples/shared/commandline.c ****     command_desc_t *cmdP;
 432              		.loc 1 93 0
 433              		.cfi_startproc
 434              	.LVL21:
 435 0000 4156     		pushq	%r14
 436              	.LCFI22:
 437              		.cfi_def_cfa_offset 16
 438              		.cfi_offset 14, -16
 439 0002 4155     		pushq	%r13
 440              	.LCFI23:
 441              		.cfi_def_cfa_offset 24
 442              		.cfi_offset 13, -24
 443 0004 4154     		pushq	%r12
 444              	.LCFI24:
 445              		.cfi_def_cfa_offset 32
 446              		.cfi_offset 12, -32
 447 0006 55       		pushq	%rbp
 448              	.LCFI25:
 449              		.cfi_def_cfa_offset 40
 450              		.cfi_offset 6, -40
 451 0007 53       		pushq	%rbx
 452              	.LCFI26:
 453              		.cfi_def_cfa_offset 48
 454              		.cfi_offset 3, -48
 455 0008 4989FE   		movq	%rdi, %r14
 456 000b 4989F5   		movq	%rsi, %r13
 457              	.LVL22:
  98:/home/baikal/workspace/C50/Huawei_IoT_Agent_Tiny_SDK_Linux///lwm2m/examples/shared/commandline.c ****     while (buffer[length] != 0 && !isspace(buffer[length] & 0xff))
GAS LISTING /tmp/ccEyAHyj.s 			page 22


 458              		.loc 1 98 0
 459 000e BD000000 		movl	$0, %ebp
 459      00
  99:/home/baikal/workspace/C50/Huawei_IoT_Agent_Tiny_SDK_Linux///lwm2m/examples/shared/commandline.c ****         length++;
 460              		.loc 1 99 0
 461 0013 EB03     		jmp	.L45
 462              	.LVL23:
 463              	.L47:
 100:/home/baikal/workspace/C50/Huawei_IoT_Agent_Tiny_SDK_Linux///lwm2m/examples/shared/commandline.c **** 
 464              		.loc 1 100 0
 465 0015 83C501   		addl	$1, %ebp
 466              	.LVL24:
 467              	.L45:
  99:/home/baikal/workspace/C50/Huawei_IoT_Agent_Tiny_SDK_Linux///lwm2m/examples/shared/commandline.c ****         length++;
 468              		.loc 1 99 0
 469 0018 4C63E5   		movslq	%ebp, %r12
 470 001b 430FB65C 		movzbl	0(%r13,%r12), %ebx
 470      2500
 471 0021 84DB     		testb	%bl, %bl
 472 0023 7412     		je	.L46
  99:/home/baikal/workspace/C50/Huawei_IoT_Agent_Tiny_SDK_Linux///lwm2m/examples/shared/commandline.c ****         length++;
 473              		.loc 1 99 0 is_stmt 0 discriminator 1
 474 0025 E8000000 		call	__ctype_b_loc
 474      00
 475              	.LVL25:
 476 002a 488B00   		movq	(%rax), %rax
 477 002d 0FB6DB   		movzbl	%bl, %ebx
 478 0030 F6445801 		testb	$32, 1(%rax,%rbx,2)
 478      20
 479 0035 74DE     		je	.L47
 480              	.L46:
 102:/home/baikal/workspace/C50/Huawei_IoT_Agent_Tiny_SDK_Linux///lwm2m/examples/shared/commandline.c **** 
 481              		.loc 1 102 0 is_stmt 1
 482 0037 4C89E2   		movq	%r12, %rdx
 483 003a 4C89EE   		movq	%r13, %rsi
 484 003d 4C89F7   		movq	%r14, %rdi
 485 0040 E8000000 		call	prv_find_command
 485      00
 486              	.LVL26:
 104:/home/baikal/workspace/C50/Huawei_IoT_Agent_Tiny_SDK_Linux///lwm2m/examples/shared/commandline.c ****     {
 487              		.loc 1 104 0
 488 0045 4885C0   		testq	%rax, %rax
 489 0048 7560     		jne	.L48
 490              	.LVL27:
 491              	.LBB120:
 492              	.LBB121:
 493              	.LBB122:
 494              		.loc 2 97 0
 495 004a 488B0D00 		movq	stdout(%rip), %rcx
 495      000000
 496 0051 BA3B0000 		movl	$59, %edx
 496      00
 497 0056 BE010000 		movl	$1, %esi
 497      00
 498 005b BF000000 		movl	$.LC16, %edi
 498      00
 499 0060 E8000000 		call	fwrite
GAS LISTING /tmp/ccEyAHyj.s 			page 23


 499      00
 500              	.LVL28:
 501              	.LBE122:
 502              	.LBE121:
 110:/home/baikal/workspace/C50/Huawei_IoT_Agent_Tiny_SDK_Linux///lwm2m/examples/shared/commandline.c ****         {
 503              		.loc 1 110 0
 504 0065 BB000000 		movl	$0, %ebx
 504      00
 505 006a EB22     		jmp	.L49
 506              	.LVL29:
 507              	.L50:
 508              	.LBB123:
 509              	.LBB124:
 510              		.loc 2 97 0 discriminator 3
 511 006c 4C8B4008 		movq	8(%rax), %r8
 512 0070 BA000000 		movl	$.LC17, %edx
 512      00
 513 0075 BE010000 		movl	$1, %esi
 513      00
 514 007a 488B3D00 		movq	stdout(%rip), %rdi
 514      000000
 515 0081 B8000000 		movl	$0, %eax
 515      00
 516 0086 E8000000 		call	__fprintf_chk
 516      00
 517              	.LVL30:
 518              	.LBE124:
 519              	.LBE123:
 110:/home/baikal/workspace/C50/Huawei_IoT_Agent_Tiny_SDK_Linux///lwm2m/examples/shared/commandline.c ****         {
 520              		.loc 1 110 0 discriminator 3
 521 008b 83C301   		addl	$1, %ebx
 522              	.LVL31:
 523              	.L49:
 110:/home/baikal/workspace/C50/Huawei_IoT_Agent_Tiny_SDK_Linux///lwm2m/examples/shared/commandline.c ****         {
 524              		.loc 1 110 0 is_stmt 0 discriminator 1
 525 008e 4863C3   		movslq	%ebx, %rax
 526 0091 488D1480 		leaq	(%rax,%rax,4), %rdx
 527 0095 488D04D5 		leaq	0(,%rdx,8), %rax
 527      00000000 
 528 009d 4C01F0   		addq	%r14, %rax
 529 00a0 488B08   		movq	(%rax), %rcx
 530 00a3 4885C9   		testq	%rcx, %rcx
 531 00a6 75C4     		jne	.L50
 532 00a8 EB28     		jmp	.L44
 533              	.LVL32:
 534              	.L48:
 535              	.LBE120:
 117:/home/baikal/workspace/C50/Huawei_IoT_Agent_Tiny_SDK_Linux///lwm2m/examples/shared/commandline.c ****     }
 536              		.loc 1 117 0 is_stmt 1
 537 00aa 488B4810 		movq	16(%rax), %rcx
 538 00ae 4885C9   		testq	%rcx, %rcx
 539 00b1 7504     		jne	.L52
 117:/home/baikal/workspace/C50/Huawei_IoT_Agent_Tiny_SDK_Linux///lwm2m/examples/shared/commandline.c ****     }
 540              		.loc 1 117 0 is_stmt 0 discriminator 2
 541 00b3 488B4808 		movq	8(%rax), %rcx
 542              	.L52:
 543              	.LVL33:
GAS LISTING /tmp/ccEyAHyj.s 			page 24


 544              	.LBB125:
 545              	.LBB126:
 546              		.loc 2 97 0 is_stmt 1 discriminator 4
 547 00b7 BA000000 		movl	$.LC18, %edx
 547      00
 548 00bc BE010000 		movl	$1, %esi
 548      00
 549 00c1 488B3D00 		movq	stdout(%rip), %rdi
 549      000000
 550 00c8 B8000000 		movl	$0, %eax
 550      00
 551              	.LVL34:
 552 00cd E8000000 		call	__fprintf_chk
 552      00
 553              	.LVL35:
 554              	.L44:
 555              	.LBE126:
 556              	.LBE125:
 119:/home/baikal/workspace/C50/Huawei_IoT_Agent_Tiny_SDK_Linux///lwm2m/examples/shared/commandline.c **** 
 557              		.loc 1 119 0
 558 00d2 5B       		popq	%rbx
 559              	.LCFI27:
 560              		.cfi_def_cfa_offset 40
 561 00d3 5D       		popq	%rbp
 562              	.LCFI28:
 563              		.cfi_def_cfa_offset 32
 564              	.LVL36:
 565 00d4 415C     		popq	%r12
 566              	.LCFI29:
 567              		.cfi_def_cfa_offset 24
 568              	.LVL37:
 569 00d6 415D     		popq	%r13
 570              	.LCFI30:
 571              		.cfi_def_cfa_offset 16
 572              	.LVL38:
 573 00d8 415E     		popq	%r14
 574              	.LCFI31:
 575              		.cfi_def_cfa_offset 8
 576              	.LVL39:
 577 00da C3       		ret
 578              		.cfi_endproc
 579              	.LFE68:
 581              		.section	.text.prv_decodeBlock,"ax",@progbits
 583              	prv_decodeBlock:
 584              	.LFB82:
 525:/home/baikal/workspace/C50/Huawei_IoT_Agent_Tiny_SDK_Linux///lwm2m/examples/shared/commandline.c **** 
 526:/home/baikal/workspace/C50/Huawei_IoT_Agent_Tiny_SDK_Linux///lwm2m/examples/shared/commandline.c **** static void prv_decodeBlock(uint8_t input[4],
 527:/home/baikal/workspace/C50/Huawei_IoT_Agent_Tiny_SDK_Linux///lwm2m/examples/shared/commandline.c ****                             uint8_t output[3])
 528:/home/baikal/workspace/C50/Huawei_IoT_Agent_Tiny_SDK_Linux///lwm2m/examples/shared/commandline.c **** {
 585              		.loc 1 528 0
 586              		.cfi_startproc
 587              	.LVL40:
 588 0000 4155     		pushq	%r13
 589              	.LCFI32:
 590              		.cfi_def_cfa_offset 16
 591              		.cfi_offset 13, -16
 592 0002 4154     		pushq	%r12
GAS LISTING /tmp/ccEyAHyj.s 			page 25


 593              	.LCFI33:
 594              		.cfi_def_cfa_offset 24
 595              		.cfi_offset 12, -24
 596 0004 55       		pushq	%rbp
 597              	.LCFI34:
 598              		.cfi_def_cfa_offset 32
 599              		.cfi_offset 6, -32
 600 0005 53       		pushq	%rbx
 601              	.LCFI35:
 602              		.cfi_def_cfa_offset 40
 603              		.cfi_offset 3, -40
 604 0006 4883EC10 		subq	$16, %rsp
 605              	.LCFI36:
 606              		.cfi_def_cfa_offset 56
 607 000a 4989FD   		movq	%rdi, %r13
 608 000d 4989F4   		movq	%rsi, %r12
 609              	.LVL41:
 610              	.LBB127:
 611              	.LBB128:
 612              		.file 3 "/usr/include/x86_64-linux-gnu/bits/string3.h"
   1:/usr/include/x86_64-linux-gnu/bits/string3.h **** /* Copyright (C) 2004-2016 Free Software Foundation, Inc.
   2:/usr/include/x86_64-linux-gnu/bits/string3.h ****    This file is part of the GNU C Library.
   3:/usr/include/x86_64-linux-gnu/bits/string3.h **** 
   4:/usr/include/x86_64-linux-gnu/bits/string3.h ****    The GNU C Library is free software; you can redistribute it and/or
   5:/usr/include/x86_64-linux-gnu/bits/string3.h ****    modify it under the terms of the GNU Lesser General Public
   6:/usr/include/x86_64-linux-gnu/bits/string3.h ****    License as published by the Free Software Foundation; either
   7:/usr/include/x86_64-linux-gnu/bits/string3.h ****    version 2.1 of the License, or (at your option) any later version.
   8:/usr/include/x86_64-linux-gnu/bits/string3.h **** 
   9:/usr/include/x86_64-linux-gnu/bits/string3.h ****    The GNU C Library is distributed in the hope that it will be useful,
  10:/usr/include/x86_64-linux-gnu/bits/string3.h ****    but WITHOUT ANY WARRANTY; without even the implied warranty of
  11:/usr/include/x86_64-linux-gnu/bits/string3.h ****    MERCHANTABILITY or FITNESS FOR A PARTICULAR PURPOSE.  See the GNU
  12:/usr/include/x86_64-linux-gnu/bits/string3.h ****    Lesser General Public License for more details.
  13:/usr/include/x86_64-linux-gnu/bits/string3.h **** 
  14:/usr/include/x86_64-linux-gnu/bits/string3.h ****    You should have received a copy of the GNU Lesser General Public
  15:/usr/include/x86_64-linux-gnu/bits/string3.h ****    License along with the GNU C Library; if not, see
  16:/usr/include/x86_64-linux-gnu/bits/string3.h ****    <http://www.gnu.org/licenses/>.  */
  17:/usr/include/x86_64-linux-gnu/bits/string3.h **** 
  18:/usr/include/x86_64-linux-gnu/bits/string3.h **** #ifndef _STRING_H
  19:/usr/include/x86_64-linux-gnu/bits/string3.h **** # error "Never use <bits/string3.h> directly; include <string.h> instead."
  20:/usr/include/x86_64-linux-gnu/bits/string3.h **** #endif
  21:/usr/include/x86_64-linux-gnu/bits/string3.h **** 
  22:/usr/include/x86_64-linux-gnu/bits/string3.h **** #if !__GNUC_PREREQ (5,0)
  23:/usr/include/x86_64-linux-gnu/bits/string3.h **** __warndecl (__warn_memset_zero_len,
  24:/usr/include/x86_64-linux-gnu/bits/string3.h **** 	    "memset used with constant zero length parameter; this could be due to transposed parameters")
  25:/usr/include/x86_64-linux-gnu/bits/string3.h **** #endif
  26:/usr/include/x86_64-linux-gnu/bits/string3.h **** 
  27:/usr/include/x86_64-linux-gnu/bits/string3.h **** #ifndef __cplusplus
  28:/usr/include/x86_64-linux-gnu/bits/string3.h **** /* XXX This is temporarily.  We should not redefine any of the symbols
  29:/usr/include/x86_64-linux-gnu/bits/string3.h ****    and instead integrate the error checking into the original
  30:/usr/include/x86_64-linux-gnu/bits/string3.h ****    definitions.  */
  31:/usr/include/x86_64-linux-gnu/bits/string3.h **** # undef memcpy
  32:/usr/include/x86_64-linux-gnu/bits/string3.h **** # undef memmove
  33:/usr/include/x86_64-linux-gnu/bits/string3.h **** # undef memset
  34:/usr/include/x86_64-linux-gnu/bits/string3.h **** # undef strcat
  35:/usr/include/x86_64-linux-gnu/bits/string3.h **** # undef strcpy
  36:/usr/include/x86_64-linux-gnu/bits/string3.h **** # undef strncat
  37:/usr/include/x86_64-linux-gnu/bits/string3.h **** # undef strncpy
GAS LISTING /tmp/ccEyAHyj.s 			page 26


  38:/usr/include/x86_64-linux-gnu/bits/string3.h **** # ifdef __USE_GNU
  39:/usr/include/x86_64-linux-gnu/bits/string3.h **** #  undef mempcpy
  40:/usr/include/x86_64-linux-gnu/bits/string3.h **** #  undef stpcpy
  41:/usr/include/x86_64-linux-gnu/bits/string3.h **** # endif
  42:/usr/include/x86_64-linux-gnu/bits/string3.h **** # ifdef __USE_MISC
  43:/usr/include/x86_64-linux-gnu/bits/string3.h **** #  undef bcopy
  44:/usr/include/x86_64-linux-gnu/bits/string3.h **** #  undef bzero
  45:/usr/include/x86_64-linux-gnu/bits/string3.h **** # endif
  46:/usr/include/x86_64-linux-gnu/bits/string3.h **** #endif
  47:/usr/include/x86_64-linux-gnu/bits/string3.h **** 
  48:/usr/include/x86_64-linux-gnu/bits/string3.h **** 
  49:/usr/include/x86_64-linux-gnu/bits/string3.h **** __fortify_function void *
  50:/usr/include/x86_64-linux-gnu/bits/string3.h **** __NTH (memcpy (void *__restrict __dest, const void *__restrict __src,
  51:/usr/include/x86_64-linux-gnu/bits/string3.h **** 	       size_t __len))
  52:/usr/include/x86_64-linux-gnu/bits/string3.h **** {
  53:/usr/include/x86_64-linux-gnu/bits/string3.h ****   return __builtin___memcpy_chk (__dest, __src, __len, __bos0 (__dest));
  54:/usr/include/x86_64-linux-gnu/bits/string3.h **** }
  55:/usr/include/x86_64-linux-gnu/bits/string3.h **** 
  56:/usr/include/x86_64-linux-gnu/bits/string3.h **** __fortify_function void *
  57:/usr/include/x86_64-linux-gnu/bits/string3.h **** __NTH (memmove (void *__dest, const void *__src, size_t __len))
  58:/usr/include/x86_64-linux-gnu/bits/string3.h **** {
  59:/usr/include/x86_64-linux-gnu/bits/string3.h ****   return __builtin___memmove_chk (__dest, __src, __len, __bos0 (__dest));
  60:/usr/include/x86_64-linux-gnu/bits/string3.h **** }
  61:/usr/include/x86_64-linux-gnu/bits/string3.h **** 
  62:/usr/include/x86_64-linux-gnu/bits/string3.h **** #ifdef __USE_GNU
  63:/usr/include/x86_64-linux-gnu/bits/string3.h **** __fortify_function void *
  64:/usr/include/x86_64-linux-gnu/bits/string3.h **** __NTH (mempcpy (void *__restrict __dest, const void *__restrict __src,
  65:/usr/include/x86_64-linux-gnu/bits/string3.h **** 		size_t __len))
  66:/usr/include/x86_64-linux-gnu/bits/string3.h **** {
  67:/usr/include/x86_64-linux-gnu/bits/string3.h ****   return __builtin___mempcpy_chk (__dest, __src, __len, __bos0 (__dest));
  68:/usr/include/x86_64-linux-gnu/bits/string3.h **** }
  69:/usr/include/x86_64-linux-gnu/bits/string3.h **** #endif
  70:/usr/include/x86_64-linux-gnu/bits/string3.h **** 
  71:/usr/include/x86_64-linux-gnu/bits/string3.h **** 
  72:/usr/include/x86_64-linux-gnu/bits/string3.h **** /* The first two tests here help to catch a somewhat common problem
  73:/usr/include/x86_64-linux-gnu/bits/string3.h ****    where the second and third parameter are transposed.  This is
  74:/usr/include/x86_64-linux-gnu/bits/string3.h ****    especially problematic if the intended fill value is zero.  In this
  75:/usr/include/x86_64-linux-gnu/bits/string3.h ****    case no work is done at all.  We detect these problems by referring
  76:/usr/include/x86_64-linux-gnu/bits/string3.h ****    non-existing functions.  */
  77:/usr/include/x86_64-linux-gnu/bits/string3.h **** __fortify_function void *
  78:/usr/include/x86_64-linux-gnu/bits/string3.h **** __NTH (memset (void *__dest, int __ch, size_t __len))
  79:/usr/include/x86_64-linux-gnu/bits/string3.h **** {
  80:/usr/include/x86_64-linux-gnu/bits/string3.h ****   /* GCC-5.0 and newer implements these checks in the compiler, so we don't
  81:/usr/include/x86_64-linux-gnu/bits/string3.h ****      need them here.  */
  82:/usr/include/x86_64-linux-gnu/bits/string3.h **** #if !__GNUC_PREREQ (5,0)
  83:/usr/include/x86_64-linux-gnu/bits/string3.h ****   if (__builtin_constant_p (__len) && __len == 0
  84:/usr/include/x86_64-linux-gnu/bits/string3.h ****       && (!__builtin_constant_p (__ch) || __ch != 0))
  85:/usr/include/x86_64-linux-gnu/bits/string3.h ****     {
  86:/usr/include/x86_64-linux-gnu/bits/string3.h ****       __warn_memset_zero_len ();
  87:/usr/include/x86_64-linux-gnu/bits/string3.h ****       return __dest;
  88:/usr/include/x86_64-linux-gnu/bits/string3.h ****     }
  89:/usr/include/x86_64-linux-gnu/bits/string3.h **** #endif
  90:/usr/include/x86_64-linux-gnu/bits/string3.h ****   return __builtin___memset_chk (__dest, __ch, __len, __bos0 (__dest));
 613              		.loc 3 90 0
 614 0010 66C70600 		movw	$0, (%rsi)
 614      00
 615 0015 C6460200 		movb	$0, 2(%rsi)
GAS LISTING /tmp/ccEyAHyj.s 			page 27


 616              	.LVL42:
 617              	.LBE128:
 618              	.LBE127:
 529:/home/baikal/workspace/C50/Huawei_IoT_Agent_Tiny_SDK_Linux///lwm2m/examples/shared/commandline.c ****     uint8_t tmp[4];
 530:/home/baikal/workspace/C50/Huawei_IoT_Agent_Tiny_SDK_Linux///lwm2m/examples/shared/commandline.c ****     int i;
 531:/home/baikal/workspace/C50/Huawei_IoT_Agent_Tiny_SDK_Linux///lwm2m/examples/shared/commandline.c **** 
 532:/home/baikal/workspace/C50/Huawei_IoT_Agent_Tiny_SDK_Linux///lwm2m/examples/shared/commandline.c ****     memset(output, 0, 3);
 533:/home/baikal/workspace/C50/Huawei_IoT_Agent_Tiny_SDK_Linux///lwm2m/examples/shared/commandline.c **** 
 534:/home/baikal/workspace/C50/Huawei_IoT_Agent_Tiny_SDK_Linux///lwm2m/examples/shared/commandline.c ****     for (i = 0; i < 4; i++)
 619              		.loc 1 534 0
 620 0019 BB000000 		movl	$0, %ebx
 620      00
 621 001e EB14     		jmp	.L55
 622              	.LVL43:
 623              	.L56:
 535:/home/baikal/workspace/C50/Huawei_IoT_Agent_Tiny_SDK_Linux///lwm2m/examples/shared/commandline.c ****     {
 536:/home/baikal/workspace/C50/Huawei_IoT_Agent_Tiny_SDK_Linux///lwm2m/examples/shared/commandline.c ****         tmp[i] = prv_b64Revert(input[i]);
 624              		.loc 1 536 0 discriminator 3
 625 0020 4863EB   		movslq	%ebx, %rbp
 626 0023 410FB67C 		movzbl	0(%r13,%rbp), %edi
 626      2D00
 627 0029 E8000000 		call	prv_b64Revert
 627      00
 628              	.LVL44:
 629 002e 88042C   		movb	%al, (%rsp,%rbp)
 534:/home/baikal/workspace/C50/Huawei_IoT_Agent_Tiny_SDK_Linux///lwm2m/examples/shared/commandline.c ****     {
 630              		.loc 1 534 0 discriminator 3
 631 0031 83C301   		addl	$1, %ebx
 632              	.LVL45:
 633              	.L55:
 534:/home/baikal/workspace/C50/Huawei_IoT_Agent_Tiny_SDK_Linux///lwm2m/examples/shared/commandline.c ****     {
 634              		.loc 1 534 0 is_stmt 0 discriminator 1
 635 0034 83FB03   		cmpl	$3, %ebx
 636 0037 7EE7     		jle	.L56
 537:/home/baikal/workspace/C50/Huawei_IoT_Agent_Tiny_SDK_Linux///lwm2m/examples/shared/commandline.c ****     }
 538:/home/baikal/workspace/C50/Huawei_IoT_Agent_Tiny_SDK_Linux///lwm2m/examples/shared/commandline.c **** 
 539:/home/baikal/workspace/C50/Huawei_IoT_Agent_Tiny_SDK_Linux///lwm2m/examples/shared/commandline.c ****     output[0] = (tmp[0] << 2) | (tmp[1] >> 4);
 637              		.loc 1 539 0 is_stmt 1
 638 0039 0FB61424 		movzbl	(%rsp), %edx
 639 003d C1E202   		sall	$2, %edx
 640 0040 0FB64424 		movzbl	1(%rsp), %eax
 640      01
 641 0045 89C1     		movl	%eax, %ecx
 642 0047 C0E904   		shrb	$4, %cl
 643 004a 09CA     		orl	%ecx, %edx
 644 004c 41881424 		movb	%dl, (%r12)
 540:/home/baikal/workspace/C50/Huawei_IoT_Agent_Tiny_SDK_Linux///lwm2m/examples/shared/commandline.c ****     output[1] = (tmp[1] << 4) | (tmp[2] >> 2);
 645              		.loc 1 540 0
 646 0050 0FB6D0   		movzbl	%al, %edx
 647 0053 C1E204   		sall	$4, %edx
 648 0056 0FB64424 		movzbl	2(%rsp), %eax
 648      02
 649 005b 89C1     		movl	%eax, %ecx
 650 005d C0E902   		shrb	$2, %cl
 651 0060 09CA     		orl	%ecx, %edx
 652 0062 41885424 		movb	%dl, 1(%r12)
 652      01
GAS LISTING /tmp/ccEyAHyj.s 			page 28


 541:/home/baikal/workspace/C50/Huawei_IoT_Agent_Tiny_SDK_Linux///lwm2m/examples/shared/commandline.c ****     output[2] = (tmp[2] << 6) | tmp[3];
 653              		.loc 1 541 0
 654 0067 0FB6C0   		movzbl	%al, %eax
 655 006a C1E006   		sall	$6, %eax
 656 006d 0A442403 		orb	3(%rsp), %al
 657 0071 41884424 		movb	%al, 2(%r12)
 657      02
 542:/home/baikal/workspace/C50/Huawei_IoT_Agent_Tiny_SDK_Linux///lwm2m/examples/shared/commandline.c **** }
 658              		.loc 1 542 0
 659 0076 4883C410 		addq	$16, %rsp
 660              	.LCFI37:
 661              		.cfi_def_cfa_offset 40
 662 007a 5B       		popq	%rbx
 663              	.LCFI38:
 664              		.cfi_def_cfa_offset 32
 665              	.LVL46:
 666 007b 5D       		popq	%rbp
 667              	.LCFI39:
 668              		.cfi_def_cfa_offset 24
 669 007c 415C     		popq	%r12
 670              	.LCFI40:
 671              		.cfi_def_cfa_offset 16
 672              	.LVL47:
 673 007e 415D     		popq	%r13
 674              	.LCFI41:
 675              		.cfi_def_cfa_offset 8
 676              	.LVL48:
 677 0080 C3       		ret
 678              		.cfi_endproc
 679              	.LFE82:
 681              		.section	.rodata.str1.1
 682              	.LC19:
 683 0119 68656C70 		.string	"help"
 683      00
 684              		.section	.rodata.str1.8
 685 005c 00000000 		.align 8
 686              	.LC20:
 687 0060 556E6B6E 		.string	"Unknown command. Type 'help' for help.\r\n"
 687      6F776E20 
 687      636F6D6D 
 687      616E642E 
 687      20547970 
 688              		.section	.text.handle_command,"ax",@progbits
 689              		.globl	handle_command
 691              	handle_command:
 692              	.LFB69:
 124:/home/baikal/workspace/C50/Huawei_IoT_Agent_Tiny_SDK_Linux///lwm2m/examples/shared/commandline.c ****     command_desc_t *cmdP;
 693              		.loc 1 124 0
 694              		.cfi_startproc
 695              	.LVL49:
 696 0000 4157     		pushq	%r15
 697              	.LCFI42:
 698              		.cfi_def_cfa_offset 16
 699              		.cfi_offset 15, -16
 700 0002 4156     		pushq	%r14
 701              	.LCFI43:
 702              		.cfi_def_cfa_offset 24
GAS LISTING /tmp/ccEyAHyj.s 			page 29


 703              		.cfi_offset 14, -24
 704 0004 4155     		pushq	%r13
 705              	.LCFI44:
 706              		.cfi_def_cfa_offset 32
 707              		.cfi_offset 13, -32
 708 0006 4154     		pushq	%r12
 709              	.LCFI45:
 710              		.cfi_def_cfa_offset 40
 711              		.cfi_offset 12, -40
 712 0008 55       		pushq	%rbp
 713              	.LCFI46:
 714              		.cfi_def_cfa_offset 48
 715              		.cfi_offset 6, -48
 716 0009 53       		pushq	%rbx
 717              	.LCFI47:
 718              		.cfi_def_cfa_offset 56
 719              		.cfi_offset 3, -56
 720 000a 4883EC08 		subq	$8, %rsp
 721              	.LCFI48:
 722              		.cfi_def_cfa_offset 64
 723 000e 4989FE   		movq	%rdi, %r14
 724 0011 4989F5   		movq	%rsi, %r13
 725              	.LVL50:
 129:/home/baikal/workspace/C50/Huawei_IoT_Agent_Tiny_SDK_Linux///lwm2m/examples/shared/commandline.c ****     while (buffer[length] != 0 && !isspace(buffer[length] & 0xFF))
 726              		.loc 1 129 0
 727 0014 BB000000 		movl	$0, %ebx
 727      00
 130:/home/baikal/workspace/C50/Huawei_IoT_Agent_Tiny_SDK_Linux///lwm2m/examples/shared/commandline.c ****         length++;
 728              		.loc 1 130 0
 729 0019 EB03     		jmp	.L59
 730              	.LVL51:
 731              	.L61:
 131:/home/baikal/workspace/C50/Huawei_IoT_Agent_Tiny_SDK_Linux///lwm2m/examples/shared/commandline.c **** 
 732              		.loc 1 131 0
 733 001b 83C301   		addl	$1, %ebx
 734              	.LVL52:
 735              	.L59:
 130:/home/baikal/workspace/C50/Huawei_IoT_Agent_Tiny_SDK_Linux///lwm2m/examples/shared/commandline.c ****         length++;
 736              		.loc 1 130 0
 737 001e 4C63E3   		movslq	%ebx, %r12
 738 0021 430FB66C 		movzbl	0(%r13,%r12), %ebp
 738      2500
 739 0027 4084ED   		testb	%bpl, %bpl
 740 002a 7413     		je	.L60
 130:/home/baikal/workspace/C50/Huawei_IoT_Agent_Tiny_SDK_Linux///lwm2m/examples/shared/commandline.c ****         length++;
 741              		.loc 1 130 0 is_stmt 0 discriminator 1
 742 002c E8000000 		call	__ctype_b_loc
 742      00
 743              	.LVL53:
 744 0031 488B00   		movq	(%rax), %rax
 745 0034 400FB6ED 		movzbl	%bpl, %ebp
 746 0038 F6446801 		testb	$32, 1(%rax,%rbp,2)
 746      20
 747 003d 74DC     		je	.L61
 748              	.L60:
 133:/home/baikal/workspace/C50/Huawei_IoT_Agent_Tiny_SDK_Linux///lwm2m/examples/shared/commandline.c ****     if (cmdP != NULL)
 749              		.loc 1 133 0 is_stmt 1
GAS LISTING /tmp/ccEyAHyj.s 			page 30


 750 003f 4C89E2   		movq	%r12, %rdx
 751 0042 4C89EE   		movq	%r13, %rsi
 752 0045 4C89F7   		movq	%r14, %rdi
 753 0048 E8000000 		call	prv_find_command
 753      00
 754              	.LVL54:
 755 004d 4989C7   		movq	%rax, %r15
 756              	.LVL55:
 134:/home/baikal/workspace/C50/Huawei_IoT_Agent_Tiny_SDK_Linux///lwm2m/examples/shared/commandline.c ****     {
 757              		.loc 1 134 0
 758 0050 4885C0   		testq	%rax, %rax
 759 0053 7505     		jne	.L62
 760 0055 EB33     		jmp	.L71
 761              	.LVL56:
 762              	.L65:
 137:/home/baikal/workspace/C50/Huawei_IoT_Agent_Tiny_SDK_Linux///lwm2m/examples/shared/commandline.c ****         cmdP->callback(buffer + length, cmdP->userData);
 763              		.loc 1 137 0
 764 0057 83C301   		addl	$1, %ebx
 765              	.LVL57:
 766              	.L62:
 136:/home/baikal/workspace/C50/Huawei_IoT_Agent_Tiny_SDK_Linux///lwm2m/examples/shared/commandline.c ****             length++;
 767              		.loc 1 136 0
 768 005a 4C63E3   		movslq	%ebx, %r12
 769 005d 4D01EC   		addq	%r13, %r12
 770 0060 410FB62C 		movzbl	(%r12), %ebp
 770      24
 771 0065 4084ED   		testb	%bpl, %bpl
 772 0068 7413     		je	.L64
 136:/home/baikal/workspace/C50/Huawei_IoT_Agent_Tiny_SDK_Linux///lwm2m/examples/shared/commandline.c ****             length++;
 773              		.loc 1 136 0 is_stmt 0 discriminator 1
 774 006a E8000000 		call	__ctype_b_loc
 774      00
 775              	.LVL58:
 776 006f 488B00   		movq	(%rax), %rax
 777 0072 400FB6ED 		movzbl	%bpl, %ebp
 778 0076 F6446801 		testb	$32, 1(%rax,%rbp,2)
 778      20
 779 007b 75DA     		jne	.L65
 780              	.L64:
 138:/home/baikal/workspace/C50/Huawei_IoT_Agent_Tiny_SDK_Linux///lwm2m/examples/shared/commandline.c ****     }
 781              		.loc 1 138 0 is_stmt 1
 782 007d 498B7720 		movq	32(%r15), %rsi
 783 0081 4C89E7   		movq	%r12, %rdi
 784 0084 41FF5718 		call	*24(%r15)
 785              	.LVL59:
 786 0088 EB74     		jmp	.L58
 787              	.LVL60:
 788              	.L71:
 142:/home/baikal/workspace/C50/Huawei_IoT_Agent_Tiny_SDK_Linux///lwm2m/examples/shared/commandline.c ****         {
 789              		.loc 1 142 0 discriminator 4
 790 008a 4983FC05 		cmpq	$5, %r12
 791 008e B9050000 		movl	$5, %ecx
 791      00
 792 0093 490F4ECC 		cmovle	%r12, %rcx
 793 0097 BF000000 		movl	$.LC19, %edi
 793      00
 794 009c 4839C9   		cmpq	%rcx, %rcx
GAS LISTING /tmp/ccEyAHyj.s 			page 31


 795 009f 4C89EE   		movq	%r13, %rsi
 796 00a2 F3A6     		repz cmpsb
 797              	.LVL61:
 798 00a4 0F97C2   		seta	%dl
 799 00a7 0F92C0   		setb	%al
 800              	.LVL62:
 801 00aa 38C2     		cmpb	%al, %dl
 802 00ac 7405     		je	.L67
 803 00ae EB33     		jmp	.L72
 804              	.L70:
 145:/home/baikal/workspace/C50/Huawei_IoT_Agent_Tiny_SDK_Linux///lwm2m/examples/shared/commandline.c ****             prv_displayHelp(commandArray, buffer + length);
 805              		.loc 1 145 0
 806 00b0 83C301   		addl	$1, %ebx
 807              	.LVL63:
 808              	.L67:
 144:/home/baikal/workspace/C50/Huawei_IoT_Agent_Tiny_SDK_Linux///lwm2m/examples/shared/commandline.c ****                 length++;
 809              		.loc 1 144 0
 810 00b3 4C63E3   		movslq	%ebx, %r12
 811 00b6 4D01EC   		addq	%r13, %r12
 812 00b9 410FB62C 		movzbl	(%r12), %ebp
 812      24
 813 00be 4084ED   		testb	%bpl, %bpl
 814 00c1 7413     		je	.L69
 144:/home/baikal/workspace/C50/Huawei_IoT_Agent_Tiny_SDK_Linux///lwm2m/examples/shared/commandline.c ****                 length++;
 815              		.loc 1 144 0 is_stmt 0 discriminator 1
 816 00c3 E8000000 		call	__ctype_b_loc
 816      00
 817              	.LVL64:
 818 00c8 488B00   		movq	(%rax), %rax
 819 00cb 400FB6ED 		movzbl	%bpl, %ebp
 820 00cf F6446801 		testb	$32, 1(%rax,%rbp,2)
 820      20
 821 00d4 75DA     		jne	.L70
 822              	.L69:
 146:/home/baikal/workspace/C50/Huawei_IoT_Agent_Tiny_SDK_Linux///lwm2m/examples/shared/commandline.c ****         }
 823              		.loc 1 146 0 is_stmt 1
 824 00d6 4C89E6   		movq	%r12, %rsi
 825 00d9 4C89F7   		movq	%r14, %rdi
 826 00dc E8000000 		call	prv_displayHelp
 826      00
 827              	.LVL65:
 828 00e1 EB1B     		jmp	.L58
 829              	.L72:
 830              	.LVL66:
 831              	.LBB129:
 832              	.LBB130:
 833              		.loc 2 97 0
 834 00e3 488B0D00 		movq	stdout(%rip), %rcx
 834      000000
 835 00ea BA280000 		movl	$40, %edx
 835      00
 836 00ef BE010000 		movl	$1, %esi
 836      00
 837 00f4 BF000000 		movl	$.LC20, %edi
 837      00
 838 00f9 E8000000 		call	fwrite
 838      00
GAS LISTING /tmp/ccEyAHyj.s 			page 32


 839              	.LVL67:
 840              	.L58:
 841              	.LBE130:
 842              	.LBE129:
 153:/home/baikal/workspace/C50/Huawei_IoT_Agent_Tiny_SDK_Linux///lwm2m/examples/shared/commandline.c **** 
 843              		.loc 1 153 0
 844 00fe 4883C408 		addq	$8, %rsp
 845              	.LCFI49:
 846              		.cfi_def_cfa_offset 56
 847 0102 5B       		popq	%rbx
 848              	.LCFI50:
 849              		.cfi_def_cfa_offset 48
 850              	.LVL68:
 851 0103 5D       		popq	%rbp
 852              	.LCFI51:
 853              		.cfi_def_cfa_offset 40
 854 0104 415C     		popq	%r12
 855              	.LCFI52:
 856              		.cfi_def_cfa_offset 32
 857 0106 415D     		popq	%r13
 858              	.LCFI53:
 859              		.cfi_def_cfa_offset 24
 860 0108 415E     		popq	%r14
 861              	.LCFI54:
 862              		.cfi_def_cfa_offset 16
 863              	.LVL69:
 864 010a 415F     		popq	%r15
 865              	.LCFI55:
 866              		.cfi_def_cfa_offset 8
 867              	.LVL70:
 868 010c C3       		ret
 869              		.cfi_endproc
 870              	.LFE69:
 872              		.section	.text.get_end_of_arg,"ax",@progbits
 873              		.globl	get_end_of_arg
 875              	get_end_of_arg:
 876              	.LFB71:
 165:/home/baikal/workspace/C50/Huawei_IoT_Agent_Tiny_SDK_Linux///lwm2m/examples/shared/commandline.c ****     while (buffer[0] != 0 && !isspace(buffer[0] & 0xFF))
 877              		.loc 1 165 0
 878              		.cfi_startproc
 879              	.LVL71:
 880 0000 55       		pushq	%rbp
 881              	.LCFI56:
 882              		.cfi_def_cfa_offset 16
 883              		.cfi_offset 6, -16
 884 0001 53       		pushq	%rbx
 885              	.LCFI57:
 886              		.cfi_def_cfa_offset 24
 887              		.cfi_offset 3, -24
 888 0002 4883EC08 		subq	$8, %rsp
 889              	.LCFI58:
 890              		.cfi_def_cfa_offset 32
 891 0006 4889FD   		movq	%rdi, %rbp
 166:/home/baikal/workspace/C50/Huawei_IoT_Agent_Tiny_SDK_Linux///lwm2m/examples/shared/commandline.c ****     {
 892              		.loc 1 166 0
 893 0009 EB04     		jmp	.L75
 894              	.LVL72:
GAS LISTING /tmp/ccEyAHyj.s 			page 33


 895              	.L77:
 168:/home/baikal/workspace/C50/Huawei_IoT_Agent_Tiny_SDK_Linux///lwm2m/examples/shared/commandline.c ****     }
 896              		.loc 1 168 0
 897 000b 4883C501 		addq	$1, %rbp
 898              	.LVL73:
 899              	.L75:
 166:/home/baikal/workspace/C50/Huawei_IoT_Agent_Tiny_SDK_Linux///lwm2m/examples/shared/commandline.c ****     {
 900              		.loc 1 166 0
 901 000f 0FB65D00 		movzbl	0(%rbp), %ebx
 902 0013 84DB     		testb	%bl, %bl
 903 0015 7412     		je	.L76
 166:/home/baikal/workspace/C50/Huawei_IoT_Agent_Tiny_SDK_Linux///lwm2m/examples/shared/commandline.c ****     {
 904              		.loc 1 166 0 is_stmt 0 discriminator 1
 905 0017 E8000000 		call	__ctype_b_loc
 905      00
 906              	.LVL74:
 907 001c 488B00   		movq	(%rax), %rax
 908 001f 0FB6DB   		movzbl	%bl, %ebx
 909 0022 F6445801 		testb	$32, 1(%rax,%rbx,2)
 909      20
 910 0027 74E2     		je	.L77
 911              	.L76:
 171:/home/baikal/workspace/C50/Huawei_IoT_Agent_Tiny_SDK_Linux///lwm2m/examples/shared/commandline.c **** 
 912              		.loc 1 171 0 is_stmt 1
 913 0029 4889E8   		movq	%rbp, %rax
 914 002c 4883C408 		addq	$8, %rsp
 915              	.LCFI59:
 916              		.cfi_def_cfa_offset 24
 917 0030 5B       		popq	%rbx
 918              	.LCFI60:
 919              		.cfi_def_cfa_offset 16
 920 0031 5D       		popq	%rbp
 921              	.LCFI61:
 922              		.cfi_def_cfa_offset 8
 923              	.LVL75:
 924 0032 C3       		ret
 925              		.cfi_endproc
 926              	.LFE71:
 928              		.section	.text.get_next_arg,"ax",@progbits
 929              		.globl	get_next_arg
 931              	get_next_arg:
 932              	.LFB72:
 174:/home/baikal/workspace/C50/Huawei_IoT_Agent_Tiny_SDK_Linux///lwm2m/examples/shared/commandline.c ****     // skip arg
 933              		.loc 1 174 0
 934              		.cfi_startproc
 935              	.LVL76:
 936 0000 55       		pushq	%rbp
 937              	.LCFI62:
 938              		.cfi_def_cfa_offset 16
 939              		.cfi_offset 6, -16
 940 0001 53       		pushq	%rbx
 941              	.LCFI63:
 942              		.cfi_def_cfa_offset 24
 943              		.cfi_offset 3, -24
 944 0002 4883EC08 		subq	$8, %rsp
 945              	.LCFI64:
 946              		.cfi_def_cfa_offset 32
GAS LISTING /tmp/ccEyAHyj.s 			page 34


 947 0006 4889F5   		movq	%rsi, %rbp
 176:/home/baikal/workspace/C50/Huawei_IoT_Agent_Tiny_SDK_Linux///lwm2m/examples/shared/commandline.c ****     // skip space
 948              		.loc 1 176 0
 949 0009 E8000000 		call	get_end_of_arg
 949      00
 950              	.LVL77:
 178:/home/baikal/workspace/C50/Huawei_IoT_Agent_Tiny_SDK_Linux///lwm2m/examples/shared/commandline.c ****     if (NULL != end)
 951              		.loc 1 178 0
 952 000e 4889C7   		movq	%rax, %rdi
 953 0011 E8000000 		call	prv_end_of_space
 953      00
 954              	.LVL78:
 955 0016 4889C3   		movq	%rax, %rbx
 956              	.LVL79:
 179:/home/baikal/workspace/C50/Huawei_IoT_Agent_Tiny_SDK_Linux///lwm2m/examples/shared/commandline.c ****     {
 957              		.loc 1 179 0
 958 0019 4885ED   		testq	%rbp, %rbp
 959 001c 740C     		je	.L80
 181:/home/baikal/workspace/C50/Huawei_IoT_Agent_Tiny_SDK_Linux///lwm2m/examples/shared/commandline.c ****     }
 960              		.loc 1 181 0
 961 001e 4889C7   		movq	%rax, %rdi
 962 0021 E8000000 		call	get_end_of_arg
 962      00
 963              	.LVL80:
 964 0026 48894500 		movq	%rax, 0(%rbp)
 965              	.L80:
 185:/home/baikal/workspace/C50/Huawei_IoT_Agent_Tiny_SDK_Linux///lwm2m/examples/shared/commandline.c **** 
 966              		.loc 1 185 0
 967 002a 4889D8   		movq	%rbx, %rax
 968 002d 4883C408 		addq	$8, %rsp
 969              	.LCFI65:
 970              		.cfi_def_cfa_offset 24
 971 0031 5B       		popq	%rbx
 972              	.LCFI66:
 973              		.cfi_def_cfa_offset 16
 974              	.LVL81:
 975 0032 5D       		popq	%rbp
 976              	.LCFI67:
 977              		.cfi_def_cfa_offset 8
 978              	.LVL82:
 979 0033 C3       		ret
 980              		.cfi_endproc
 981              	.LFE72:
 983              		.section	.text.check_end_of_args,"ax",@progbits
 984              		.globl	check_end_of_args
 986              	check_end_of_args:
 987              	.LFB73:
 188:/home/baikal/workspace/C50/Huawei_IoT_Agent_Tiny_SDK_Linux///lwm2m/examples/shared/commandline.c ****     buffer = prv_end_of_space(buffer);
 988              		.loc 1 188 0
 989              		.cfi_startproc
 990              	.LVL83:
 991 0000 4883EC08 		subq	$8, %rsp
 992              	.LCFI68:
 993              		.cfi_def_cfa_offset 16
 189:/home/baikal/workspace/C50/Huawei_IoT_Agent_Tiny_SDK_Linux///lwm2m/examples/shared/commandline.c **** 
 994              		.loc 1 189 0
 995 0004 E8000000 		call	prv_end_of_space
GAS LISTING /tmp/ccEyAHyj.s 			page 35


 995      00
 996              	.LVL84:
 191:/home/baikal/workspace/C50/Huawei_IoT_Agent_Tiny_SDK_Linux///lwm2m/examples/shared/commandline.c **** }
 997              		.loc 1 191 0
 998 0009 803800   		cmpb	$0, (%rax)
 999 000c 0F94C0   		sete	%al
 1000              	.LVL85:
 1001 000f 0FB6C0   		movzbl	%al, %eax
 192:/home/baikal/workspace/C50/Huawei_IoT_Agent_Tiny_SDK_Linux///lwm2m/examples/shared/commandline.c **** 
 1002              		.loc 1 192 0
 1003 0012 4883C408 		addq	$8, %rsp
 1004              	.LCFI69:
 1005              		.cfi_def_cfa_offset 8
 1006 0016 C3       		ret
 1007              		.cfi_endproc
 1008              	.LFE73:
 1010              		.section	.text.output_buffer,"ax",@progbits
 1011              		.globl	output_buffer
 1013              	output_buffer:
 1014              	.LFB75:
 257:/home/baikal/workspace/C50/Huawei_IoT_Agent_Tiny_SDK_Linux///lwm2m/examples/shared/commandline.c **** }
 1015              		.loc 1 257 0
 1016              		.cfi_startproc
 1017              	.LVL86:
 1018 0000 F3C3     		rep ret
 1019              		.cfi_endproc
 1020              	.LFE75:
 1022              		.section	.rodata.str1.1
 1023              	.LC21:
 1024 011e 7B0D0A00 		.string	"{\r\n"
 1025              	.LC22:
 1026 0122 49443A20 		.string	"ID: %d"
 1026      256400
 1027              	.LC23:
 1028 0129 20747970 		.string	" type: "
 1028      653A2000 
 1029              	.LC24:
 1030 0131 4F626A65 		.string	"Object Instance"
 1030      63742049 
 1030      6E737461 
 1030      6E636500 
 1031              	.LC25:
 1032 0141 4D756C74 		.string	"Multiple Instances"
 1032      69706C65 
 1032      20496E73 
 1032      74616E63 
 1032      657300
 1033              	.LC26:
 1034 0154 5265736F 		.string	"Resource Value"
 1034      75726365 
 1034      2056616C 
 1034      756500
 1035              	.LC27:
 1036 0163 756E6B6E 		.string	"unknown (%d)"
 1036      6F776E20 
 1036      28256429 
 1036      00
GAS LISTING /tmp/ccEyAHyj.s 			page 36


 1037              	.LC28:
 1038 0170 7B0A00   		.string	"{\n"
 1039              	.LC29:
 1040 0173 64617461 		.string	"data (%d bytes):\r\n"
 1040      20282564 
 1040      20627974 
 1040      6573293A 
 1040      0D0A00
 1041              	.LC30:
 1042 0186 256C6400 		.string	"%ld"
 1043              	.LC31:
 1044 018a 64617461 		.string	"data as Integer: %ld\r\n"
 1044      20617320 
 1044      496E7465 
 1044      6765723A 
 1044      20256C64 
 1045              	.LC32:
 1046 01a1 256C6700 		.string	"%lg"
 1047              	.LC33:
 1048 01a5 64617461 		.string	"data as Float: %.16g\r\n"
 1048      20617320 
 1048      466C6F61 
 1048      743A2025 
 1048      2E313667 
 1049              	.LC34:
 1050 01bc 7D0D0A00 		.string	"}\r\n"
 1051              		.section	.text.output_tlv,"ax",@progbits
 1052              		.globl	output_tlv
 1054              	output_tlv:
 1055              	.LFB76:
 264:/home/baikal/workspace/C50/Huawei_IoT_Agent_Tiny_SDK_Linux///lwm2m/examples/shared/commandline.c ****     lwm2m_data_type_t type;
 1056              		.loc 1 264 0
 1057              		.cfi_startproc
 1058              	.LVL87:
 264:/home/baikal/workspace/C50/Huawei_IoT_Agent_Tiny_SDK_Linux///lwm2m/examples/shared/commandline.c ****     lwm2m_data_type_t type;
 1059              		.loc 1 264 0
 1060 0000 4157     		pushq	%r15
 1061              	.LCFI70:
 1062              		.cfi_def_cfa_offset 16
 1063              		.cfi_offset 15, -16
 1064 0002 4156     		pushq	%r14
 1065              	.LCFI71:
 1066              		.cfi_def_cfa_offset 24
 1067              		.cfi_offset 14, -24
 1068 0004 4155     		pushq	%r13
 1069              	.LCFI72:
 1070              		.cfi_def_cfa_offset 32
 1071              		.cfi_offset 13, -32
 1072 0006 4154     		pushq	%r12
 1073              	.LCFI73:
 1074              		.cfi_def_cfa_offset 40
 1075              		.cfi_offset 12, -40
 1076 0008 55       		pushq	%rbp
 1077              	.LCFI74:
 1078              		.cfi_def_cfa_offset 48
 1079              		.cfi_offset 6, -48
 1080 0009 53       		pushq	%rbx
GAS LISTING /tmp/ccEyAHyj.s 			page 37


 1081              	.LCFI75:
 1082              		.cfi_def_cfa_offset 56
 1083              		.cfi_offset 3, -56
 1084 000a 4883EC58 		subq	$88, %rsp
 1085              	.LCFI76:
 1086              		.cfi_def_cfa_offset 144
 1087 000e 4889FB   		movq	%rdi, %rbx
 1088 0011 4989F4   		movq	%rsi, %r12
 1089 0014 48895424 		movq	%rdx, 24(%rsp)
 1089      18
 1090 0019 4189CE   		movl	%ecx, %r14d
 1091              	.LVL88:
 269:/home/baikal/workspace/C50/Huawei_IoT_Agent_Tiny_SDK_Linux///lwm2m/examples/shared/commandline.c ****     int result;
 1092              		.loc 1 269 0
 1093 001c 41BF0000 		movl	$0, %r15d
 1093      0000
 272:/home/baikal/workspace/C50/Huawei_IoT_Agent_Tiny_SDK_Linux///lwm2m/examples/shared/commandline.c ****     {
 1094              		.loc 1 272 0
 1095 0022 E96A0200 		jmp	.L86
 1095      00
 1096              	.LVL89:
 1097              	.L96:
 274:/home/baikal/workspace/C50/Huawei_IoT_Agent_Tiny_SDK_Linux///lwm2m/examples/shared/commandline.c ****         fprintf(stream, "{\r\n");
 1098              		.loc 1 274 0
 1099 0027 4489F6   		movl	%r14d, %esi
 1100 002a 4889DF   		movq	%rbx, %rdi
 1101 002d E8000000 		call	print_indent
 1101      00
 1102              	.LVL90:
 1103              	.LBB131:
 1104              	.LBB132:
 1105              		.loc 2 97 0
 1106 0032 4889D9   		movq	%rbx, %rcx
 1107 0035 BA030000 		movl	$3, %edx
 1107      00
 1108 003a BE010000 		movl	$1, %esi
 1108      00
 1109 003f BF000000 		movl	$.LC21, %edi
 1109      00
 1110 0044 E8000000 		call	fwrite
 1110      00
 1111              	.LVL91:
 1112              	.LBE132:
 1113              	.LBE131:
 276:/home/baikal/workspace/C50/Huawei_IoT_Agent_Tiny_SDK_Linux///lwm2m/examples/shared/commandline.c ****         fprintf(stream, "ID: %d", id);
 1114              		.loc 1 276 0
 1115 0049 458D6E01 		leal	1(%r14), %r13d
 1116 004d 4489EE   		movl	%r13d, %esi
 1117 0050 4889DF   		movq	%rbx, %rdi
 1118 0053 E8000000 		call	print_indent
 1118      00
 1119              	.LVL92:
 277:/home/baikal/workspace/C50/Huawei_IoT_Agent_Tiny_SDK_Linux///lwm2m/examples/shared/commandline.c **** 
 1120              		.loc 1 277 0
 1121 0058 0FB74C24 		movzwl	74(%rsp), %ecx
 1121      4A
 1122              	.LVL93:
GAS LISTING /tmp/ccEyAHyj.s 			page 38


 1123              	.LBB133:
 1124              	.LBB134:
 1125              		.loc 2 97 0
 1126 005d BA000000 		movl	$.LC22, %edx
 1126      00
 1127 0062 BE010000 		movl	$1, %esi
 1127      00
 1128 0067 4889DF   		movq	%rbx, %rdi
 1129 006a B8000000 		movl	$0, %eax
 1129      00
 1130 006f E8000000 		call	__fprintf_chk
 1130      00
 1131              	.LVL94:
 1132              	.LBE134:
 1133              	.LBE133:
 1134              	.LBB135:
 1135              	.LBB136:
 1136 0074 4889D9   		movq	%rbx, %rcx
 1137 0077 BA070000 		movl	$7, %edx
 1137      00
 1138 007c BE010000 		movl	$1, %esi
 1138      00
 1139 0081 BF000000 		movl	$.LC23, %edi
 1139      00
 1140 0086 E8000000 		call	fwrite
 1140      00
 1141              	.LVL95:
 1142              	.LBE136:
 1143              	.LBE135:
 280:/home/baikal/workspace/C50/Huawei_IoT_Agent_Tiny_SDK_Linux///lwm2m/examples/shared/commandline.c ****         {
 1144              		.loc 1 280 0
 1145 008b 8B54244C 		movl	76(%rsp), %edx
 1146 008f 83FA03   		cmpl	$3, %edx
 1147 0092 7423     		je	.L88
 1148 0094 83FA05   		cmpl	$5, %edx
 1149 0097 7437     		je	.L89
 1150 0099 83FA02   		cmpl	$2, %edx
 1151 009c 754B     		jne	.L97
 1152              	.LVL96:
 1153              	.LBB137:
 1154              	.LBB138:
 1155              		.loc 2 97 0
 1156 009e 4889D9   		movq	%rbx, %rcx
 1157 00a1 BA0F0000 		movl	$15, %edx
 1157      00
 1158 00a6 BE010000 		movl	$1, %esi
 1158      00
 1159 00ab BF000000 		movl	$.LC24, %edi
 1159      00
 1160 00b0 E8000000 		call	fwrite
 1160      00
 1161              	.LVL97:
 1162 00b5 EB46     		jmp	.L91
 1163              	.LVL98:
 1164              	.L88:
 1165              	.LBE138:
 1166              	.LBE137:
GAS LISTING /tmp/ccEyAHyj.s 			page 39


 1167              	.LBB139:
 1168              	.LBB140:
 1169 00b7 4889D9   		movq	%rbx, %rcx
 1170 00ba BA120000 		movl	$18, %edx
 1170      00
 1171 00bf BE010000 		movl	$1, %esi
 1171      00
 1172 00c4 BF000000 		movl	$.LC25, %edi
 1172      00
 1173 00c9 E8000000 		call	fwrite
 1173      00
 1174              	.LVL99:
 1175 00ce EB2D     		jmp	.L91
 1176              	.LVL100:
 1177              	.L89:
 1178              	.LBE140:
 1179              	.LBE139:
 1180              	.LBB141:
 1181              	.LBB142:
 1182 00d0 4889D9   		movq	%rbx, %rcx
 1183 00d3 BA0E0000 		movl	$14, %edx
 1183      00
 1184 00d8 BE010000 		movl	$1, %esi
 1184      00
 1185 00dd BF000000 		movl	$.LC26, %edi
 1185      00
 1186 00e2 E8000000 		call	fwrite
 1186      00
 1187              	.LVL101:
 1188 00e7 EB14     		jmp	.L91
 1189              	.LVL102:
 1190              	.L97:
 1191              	.LBE142:
 1192              	.LBE141:
 1193              	.LBB143:
 1194              	.LBB144:
  98:/usr/include/x86_64-linux-gnu/bits/stdio2.h **** 			__va_arg_pack ());
  99:/usr/include/x86_64-linux-gnu/bits/stdio2.h **** }
 100:/usr/include/x86_64-linux-gnu/bits/stdio2.h **** 
 101:/usr/include/x86_64-linux-gnu/bits/stdio2.h **** __fortify_function int
 102:/usr/include/x86_64-linux-gnu/bits/stdio2.h **** printf (const char *__restrict __fmt, ...)
 103:/usr/include/x86_64-linux-gnu/bits/stdio2.h **** {
 104:/usr/include/x86_64-linux-gnu/bits/stdio2.h ****   return __printf_chk (__USE_FORTIFY_LEVEL - 1, __fmt, __va_arg_pack ());
 1195              		.loc 2 104 0
 1196 00e9 BE000000 		movl	$.LC27, %esi
 1196      00
 1197 00ee BF010000 		movl	$1, %edi
 1197      00
 1198 00f3 B8000000 		movl	$0, %eax
 1198      00
 1199 00f8 E8000000 		call	__printf_chk
 1199      00
 1200              	.LVL103:
 1201              	.L91:
 1202              	.LBE144:
 1203              	.LBE143:
 1204              	.LBB145:
GAS LISTING /tmp/ccEyAHyj.s 			page 40


 1205              	.LBB146:
  97:/usr/include/x86_64-linux-gnu/bits/stdio2.h **** 			__va_arg_pack ());
 1206              		.loc 2 97 0
 1207 00fd 4889DE   		movq	%rbx, %rsi
 1208 0100 BF0A0000 		movl	$10, %edi
 1208      00
 1209 0105 E8000000 		call	fputc
 1209      00
 1210              	.LVL104:
 1211              	.LBE146:
 1212              	.LBE145:
 297:/home/baikal/workspace/C50/Huawei_IoT_Agent_Tiny_SDK_Linux///lwm2m/examples/shared/commandline.c ****         fprintf(stream, "{\n");
 1213              		.loc 1 297 0
 1214 010a 4489EE   		movl	%r13d, %esi
 1215 010d 4889DF   		movq	%rbx, %rdi
 1216 0110 E8000000 		call	print_indent
 1216      00
 1217              	.LVL105:
 1218              	.LBB147:
 1219              	.LBB148:
  97:/usr/include/x86_64-linux-gnu/bits/stdio2.h **** 			__va_arg_pack ());
 1220              		.loc 2 97 0
 1221 0115 4889D9   		movq	%rbx, %rcx
 1222 0118 BA020000 		movl	$2, %edx
 1222      00
 1223 011d BE010000 		movl	$1, %esi
 1223      00
 1224 0122 BF000000 		movl	$.LC28, %edi
 1224      00
 1225 0127 E8000000 		call	fwrite
 1225      00
 1226              	.LVL106:
 1227              	.LBE148:
 1228              	.LBE147:
 299:/home/baikal/workspace/C50/Huawei_IoT_Agent_Tiny_SDK_Linux///lwm2m/examples/shared/commandline.c ****         {
 1229              		.loc 1 299 0
 1230 012c 8B44244C 		movl	76(%rsp), %eax
 1231 0130 83E802   		subl	$2, %eax
 1232 0133 83F801   		cmpl	$1, %eax
 1233 0136 7720     		ja	.L92
 301:/home/baikal/workspace/C50/Huawei_IoT_Agent_Tiny_SDK_Linux///lwm2m/examples/shared/commandline.c ****         }
 1234              		.loc 1 301 0
 1235 0138 4889EE   		movq	%rbp, %rsi
 1236 013b 48037424 		addq	64(%rsp), %rsi
 1236      40
 1237 0140 4C01E6   		addq	%r12, %rsi
 1238 0143 4489E9   		movl	%r13d, %ecx
 1239 0146 488B5424 		movq	56(%rsp), %rdx
 1239      38
 1240 014b 4889DF   		movq	%rbx, %rdi
 1241 014e E8000000 		call	output_tlv
 1241      00
 1242              	.LVL107:
 1243 0153 E9F00000 		jmp	.L93
 1243      00
 1244              	.L92:
 1245              	.LBB149:
GAS LISTING /tmp/ccEyAHyj.s 			page 41


 309:/home/baikal/workspace/C50/Huawei_IoT_Agent_Tiny_SDK_Linux///lwm2m/examples/shared/commandline.c ****             fprintf(stream, "data (%d bytes):\r\n", dataLen);
 1246              		.loc 1 309 0
 1247 0158 418D4602 		leal	2(%r14), %eax
 1248 015c 89442410 		movl	%eax, 16(%rsp)
 1249 0160 89C6     		movl	%eax, %esi
 1250 0162 4889DF   		movq	%rbx, %rdi
 1251 0165 E8000000 		call	print_indent
 1251      00
 1252              	.LVL108:
 1253              	.LBB150:
 1254              	.LBB151:
  97:/usr/include/x86_64-linux-gnu/bits/stdio2.h **** 			__va_arg_pack ());
 1255              		.loc 2 97 0
 1256 016a 488B4C24 		movq	56(%rsp), %rcx
 1256      38
 1257 016f BA000000 		movl	$.LC29, %edx
 1257      00
 1258 0174 BE010000 		movl	$1, %esi
 1258      00
 1259 0179 4889DF   		movq	%rbx, %rdi
 1260 017c B8000000 		movl	$0, %eax
 1260      00
 1261 0181 E8000000 		call	__fprintf_chk
 1261      00
 1262              	.LVL109:
 1263              	.LBE151:
 1264              	.LBE150:
 311:/home/baikal/workspace/C50/Huawei_IoT_Agent_Tiny_SDK_Linux///lwm2m/examples/shared/commandline.c **** 
 1265              		.loc 1 311 0
 1266 0186 4889EF   		movq	%rbp, %rdi
 1267 0189 48037C24 		addq	64(%rsp), %rdi
 1267      40
 313:/home/baikal/workspace/C50/Huawei_IoT_Agent_Tiny_SDK_Linux///lwm2m/examples/shared/commandline.c ****             buffer[length + dataIndex + dataLen] = 0;
 1268              		.loc 1 313 0
 1269 018e 4889F9   		movq	%rdi, %rcx
 1270 0191 48034C24 		addq	56(%rsp), %rcx
 1270      38
 1271 0196 4889C8   		movq	%rcx, %rax
 1272 0199 4C01E0   		addq	%r12, %rax
 1273 019c 0FB608   		movzbl	(%rax), %ecx
 1274 019f 884C2417 		movb	%cl, 23(%rsp)
 1275              	.LVL110:
 314:/home/baikal/workspace/C50/Huawei_IoT_Agent_Tiny_SDK_Linux///lwm2m/examples/shared/commandline.c ****             if (0 < sscanf((const char *)buffer + length + dataIndex, "%"PRId64, &intValue))
 1276              		.loc 1 314 0
 1277 01a3 C60000   		movb	$0, (%rax)
 315:/home/baikal/workspace/C50/Huawei_IoT_Agent_Tiny_SDK_Linux///lwm2m/examples/shared/commandline.c ****             {
 1278              		.loc 1 315 0
 1279 01a6 4C01E7   		addq	%r12, %rdi
 1280 01a9 488D5424 		leaq	40(%rsp), %rdx
 1280      28
 1281 01ae BE000000 		movl	$.LC30, %esi
 1281      00
 1282 01b3 B8000000 		movl	$0, %eax
 1282      00
 1283 01b8 E8000000 		call	__isoc99_sscanf
 1283      00
 1284              	.LVL111:
GAS LISTING /tmp/ccEyAHyj.s 			page 42


 1285 01bd 85C0     		testl	%eax, %eax
 1286 01bf 7E28     		jle	.L94
 317:/home/baikal/workspace/C50/Huawei_IoT_Agent_Tiny_SDK_Linux///lwm2m/examples/shared/commandline.c ****                 fprintf(stream, "data as Integer: %" PRId64 "\r\n", intValue);
 1287              		.loc 1 317 0
 1288 01c1 8B742410 		movl	16(%rsp), %esi
 1289 01c5 4889DF   		movq	%rbx, %rdi
 1290 01c8 E8000000 		call	print_indent
 1290      00
 1291              	.LVL112:
 1292              	.LBB152:
 1293              	.LBB153:
  97:/usr/include/x86_64-linux-gnu/bits/stdio2.h **** 			__va_arg_pack ());
 1294              		.loc 2 97 0
 1295 01cd 488B4C24 		movq	40(%rsp), %rcx
 1295      28
 1296 01d2 BA000000 		movl	$.LC31, %edx
 1296      00
 1297 01d7 BE010000 		movl	$1, %esi
 1297      00
 1298 01dc 4889DF   		movq	%rbx, %rdi
 1299 01df B8000000 		movl	$0, %eax
 1299      00
 1300 01e4 E8000000 		call	__fprintf_chk
 1300      00
 1301              	.LVL113:
 1302              	.L94:
 1303              	.LBE153:
 1304              	.LBE152:
 320:/home/baikal/workspace/C50/Huawei_IoT_Agent_Tiny_SDK_Linux///lwm2m/examples/shared/commandline.c ****             {
 1305              		.loc 1 320 0
 1306 01e9 4889EF   		movq	%rbp, %rdi
 1307 01ec 48037C24 		addq	64(%rsp), %rdi
 1307      40
 1308 01f1 4C01E7   		addq	%r12, %rdi
 1309 01f4 488D5424 		leaq	48(%rsp), %rdx
 1309      30
 1310 01f9 BE000000 		movl	$.LC32, %esi
 1310      00
 1311 01fe B8000000 		movl	$0, %eax
 1311      00
 1312 0203 E8000000 		call	__isoc99_sscanf
 1312      00
 1313              	.LVL114:
 1314 0208 85C0     		testl	%eax, %eax
 1315 020a 7E29     		jle	.L95
 322:/home/baikal/workspace/C50/Huawei_IoT_Agent_Tiny_SDK_Linux///lwm2m/examples/shared/commandline.c ****                 fprintf(stream, "data as Float: %.16g\r\n", floatValue);
 1316              		.loc 1 322 0
 1317 020c 8B742410 		movl	16(%rsp), %esi
 1318 0210 4889DF   		movq	%rbx, %rdi
 1319 0213 E8000000 		call	print_indent
 1319      00
 1320              	.LVL115:
 1321              	.LBB154:
 1322              	.LBB155:
  97:/usr/include/x86_64-linux-gnu/bits/stdio2.h **** 			__va_arg_pack ());
 1323              		.loc 2 97 0
 1324 0218 F20F1044 		movsd	48(%rsp), %xmm0
GAS LISTING /tmp/ccEyAHyj.s 			page 43


 1324      2430
 1325 021e BA000000 		movl	$.LC33, %edx
 1325      00
 1326 0223 BE010000 		movl	$1, %esi
 1326      00
 1327 0228 4889DF   		movq	%rbx, %rdi
 1328 022b B8010000 		movl	$1, %eax
 1328      00
 1329 0230 E8000000 		call	__fprintf_chk
 1329      00
 1330              	.LVL116:
 1331              	.L95:
 1332              	.LBE155:
 1333              	.LBE154:
 325:/home/baikal/workspace/C50/Huawei_IoT_Agent_Tiny_SDK_Linux///lwm2m/examples/shared/commandline.c ****         }
 1334              		.loc 1 325 0
 1335 0235 48036C24 		addq	64(%rsp), %rbp
 1335      40
 1336 023a 48036C24 		addq	56(%rsp), %rbp
 1336      38
 1337 023f 0FB64424 		movzbl	23(%rsp), %eax
 1337      17
 1338 0244 4188042C 		movb	%al, (%r12,%rbp)
 1339              	.LVL117:
 1340              	.L93:
 1341              	.LBE149:
 327:/home/baikal/workspace/C50/Huawei_IoT_Agent_Tiny_SDK_Linux///lwm2m/examples/shared/commandline.c ****         fprintf(stream, "}\r\n");
 1342              		.loc 1 327 0
 1343 0248 4489EE   		movl	%r13d, %esi
 1344 024b 4889DF   		movq	%rbx, %rdi
 1345 024e E8000000 		call	print_indent
 1345      00
 1346              	.LVL118:
 1347              	.LBB156:
 1348              	.LBB157:
  97:/usr/include/x86_64-linux-gnu/bits/stdio2.h **** 			__va_arg_pack ());
 1349              		.loc 2 97 0
 1350 0253 4889D9   		movq	%rbx, %rcx
 1351 0256 BA030000 		movl	$3, %edx
 1351      00
 1352 025b BE010000 		movl	$1, %esi
 1352      00
 1353 0260 BF000000 		movl	$.LC34, %edi
 1353      00
 1354 0265 E8000000 		call	fwrite
 1354      00
 1355              	.LVL119:
 1356              	.LBE157:
 1357              	.LBE156:
 329:/home/baikal/workspace/C50/Huawei_IoT_Agent_Tiny_SDK_Linux///lwm2m/examples/shared/commandline.c ****         print_indent(stream, indent);
 1358              		.loc 1 329 0
 1359 026a 44037C24 		addl	12(%rsp), %r15d
 1359      0C
 1360              	.LVL120:
 330:/home/baikal/workspace/C50/Huawei_IoT_Agent_Tiny_SDK_Linux///lwm2m/examples/shared/commandline.c ****         fprintf(stream, "}\r\n");
 1361              		.loc 1 330 0
 1362 026f 4489F6   		movl	%r14d, %esi
GAS LISTING /tmp/ccEyAHyj.s 			page 44


 1363 0272 4889DF   		movq	%rbx, %rdi
 1364 0275 E8000000 		call	print_indent
 1364      00
 1365              	.LVL121:
 1366              	.LBB158:
 1367              	.LBB159:
  97:/usr/include/x86_64-linux-gnu/bits/stdio2.h **** 			__va_arg_pack ());
 1368              		.loc 2 97 0
 1369 027a 4889D9   		movq	%rbx, %rcx
 1370 027d BA030000 		movl	$3, %edx
 1370      00
 1371 0282 BE010000 		movl	$1, %esi
 1371      00
 1372 0287 BF000000 		movl	$.LC34, %edi
 1372      00
 1373 028c E8000000 		call	fwrite
 1373      00
 1374              	.LVL122:
 1375              	.L86:
 1376              	.LBE159:
 1377              	.LBE158:
 272:/home/baikal/workspace/C50/Huawei_IoT_Agent_Tiny_SDK_Linux///lwm2m/examples/shared/commandline.c ****     {
 1378              		.loc 1 272 0
 1379 0291 4963EF   		movslq	%r15d, %rbp
 1380 0294 488B7424 		movq	24(%rsp), %rsi
 1380      18
 1381 0299 4829EE   		subq	%rbp, %rsi
 1382 029c 498D3C2C 		leaq	(%r12,%rbp), %rdi
 1383 02a0 4C8D4C24 		leaq	56(%rsp), %r9
 1383      38
 1384 02a5 4C8D4424 		leaq	64(%rsp), %r8
 1384      40
 1385 02aa 488D4C24 		leaq	74(%rsp), %rcx
 1385      4A
 1386 02af 488D5424 		leaq	76(%rsp), %rdx
 1386      4C
 1387 02b4 E8000000 		call	lwm2m_decode_TLV
 1387      00
 1388              	.LVL123:
 1389 02b9 8944240C 		movl	%eax, 12(%rsp)
 1390              	.LVL124:
 1391 02bd 85C0     		testl	%eax, %eax
 1392 02bf 0F8562FD 		jne	.L96
 1392      FFFF
 333:/home/baikal/workspace/C50/Huawei_IoT_Agent_Tiny_SDK_Linux///lwm2m/examples/shared/commandline.c **** 
 1393              		.loc 1 333 0
 1394 02c5 4883C458 		addq	$88, %rsp
 1395              	.LCFI77:
 1396              		.cfi_def_cfa_offset 56
 1397 02c9 5B       		popq	%rbx
 1398              	.LCFI78:
 1399              		.cfi_def_cfa_offset 48
 1400              	.LVL125:
 1401 02ca 5D       		popq	%rbp
 1402              	.LCFI79:
 1403              		.cfi_def_cfa_offset 40
 1404 02cb 415C     		popq	%r12
GAS LISTING /tmp/ccEyAHyj.s 			page 45


 1405              	.LCFI80:
 1406              		.cfi_def_cfa_offset 32
 1407              	.LVL126:
 1408 02cd 415D     		popq	%r13
 1409              	.LCFI81:
 1410              		.cfi_def_cfa_offset 24
 1411 02cf 415E     		popq	%r14
 1412              	.LCFI82:
 1413              		.cfi_def_cfa_offset 16
 1414              	.LVL127:
 1415 02d1 415F     		popq	%r15
 1416              	.LCFI83:
 1417              		.cfi_def_cfa_offset 8
 1418              	.LVL128:
 1419 02d3 C3       		ret
 1420              		.cfi_endproc
 1421              	.LFE76:
 1423              		.section	.rodata.str1.1
 1424              	.LC35:
 1425 01c0 25642062 		.string	"%d bytes received of type "
 1425      79746573 
 1425      20726563 
 1425      65697665 
 1425      64206F66 
 1426              	.LC36:
 1427 01db 74657874 		.string	"text/plain:\r\n"
 1427      2F706C61 
 1427      696E3A0D 
 1427      0A00
 1428              	.LC37:
 1429 01e9 6170706C 		.string	"application/octet-stream:\r\n"
 1429      69636174 
 1429      696F6E2F 
 1429      6F637465 
 1429      742D7374 
 1430              		.section	.rodata.str1.8
 1431 0089 00000000 		.align 8
 1431      000000
 1432              	.LC38:
 1433 0090 6170706C 		.string	"application/vnd.oma.lwm2m+tlv:\r\n"
 1433      69636174 
 1433      696F6E2F 
 1433      766E642E 
 1433      6F6D612E 
 1434 00b1 00000000 		.align 8
 1434      000000
 1435              	.LC39:
 1436 00b8 6170706C 		.string	"application/vnd.oma.lwm2m+json:\r\n"
 1436      69636174 
 1436      696F6E2F 
 1436      766E642E 
 1436      6F6D612E 
 1437              		.section	.rodata.str1.1
 1438              	.LC40:
 1439 0205 6170706C 		.string	"application/link-format:\r\n"
 1439      69636174 
 1439      696F6E2F 
GAS LISTING /tmp/ccEyAHyj.s 			page 46


 1439      6C696E6B 
 1439      2D666F72 
 1440              	.LC41:
 1441 0220 556E6B6E 		.string	"Unknown (%d):\r\n"
 1441      6F776E20 
 1441      28256429 
 1441      3A0D0A00 
 1442              		.section	.text.output_data,"ax",@progbits
 1443              		.globl	output_data
 1445              	output_data:
 1446              	.LFB77:
 340:/home/baikal/workspace/C50/Huawei_IoT_Agent_Tiny_SDK_Linux///lwm2m/examples/shared/commandline.c ****     int i;
 1447              		.loc 1 340 0
 1448              		.cfi_startproc
 1449              	.LVL129:
 1450 0000 4156     		pushq	%r14
 1451              	.LCFI84:
 1452              		.cfi_def_cfa_offset 16
 1453              		.cfi_offset 14, -16
 1454 0002 4155     		pushq	%r13
 1455              	.LCFI85:
 1456              		.cfi_def_cfa_offset 24
 1457              		.cfi_offset 13, -24
 1458 0004 4154     		pushq	%r12
 1459              	.LCFI86:
 1460              		.cfi_def_cfa_offset 32
 1461              		.cfi_offset 12, -32
 1462 0006 55       		pushq	%rbp
 1463              	.LCFI87:
 1464              		.cfi_def_cfa_offset 40
 1465              		.cfi_offset 6, -40
 1466 0007 53       		pushq	%rbx
 1467              	.LCFI88:
 1468              		.cfi_def_cfa_offset 48
 1469              		.cfi_offset 3, -48
 1470 0008 4889FB   		movq	%rdi, %rbx
 1471 000b 89F5     		movl	%esi, %ebp
 1472 000d 4989D5   		movq	%rdx, %r13
 1473 0010 4189CC   		movl	%ecx, %r12d
 1474 0013 4589C6   		movl	%r8d, %r14d
 343:/home/baikal/workspace/C50/Huawei_IoT_Agent_Tiny_SDK_Linux///lwm2m/examples/shared/commandline.c ****     fprintf(stream, "%d bytes received of type ", dataLength);
 1475              		.loc 1 343 0
 1476 0016 4489C6   		movl	%r8d, %esi
 1477              	.LVL130:
 1478 0019 E8000000 		call	print_indent
 1478      00
 1479              	.LVL131:
 1480              	.LBB160:
 1481              	.LBB161:
  97:/usr/include/x86_64-linux-gnu/bits/stdio2.h **** 			__va_arg_pack ());
 1482              		.loc 2 97 0
 1483 001e 4489E1   		movl	%r12d, %ecx
 1484 0021 BA000000 		movl	$.LC35, %edx
 1484      00
 1485 0026 BE010000 		movl	$1, %esi
 1485      00
 1486 002b 4889DF   		movq	%rbx, %rdi
GAS LISTING /tmp/ccEyAHyj.s 			page 47


 1487 002e B8000000 		movl	$0, %eax
 1487      00
 1488 0033 E8000000 		call	__fprintf_chk
 1488      00
 1489              	.LVL132:
 1490              	.LBE161:
 1491              	.LBE160:
 346:/home/baikal/workspace/C50/Huawei_IoT_Agent_Tiny_SDK_Linux///lwm2m/examples/shared/commandline.c ****     {
 1492              		.loc 1 346 0
 1493 0038 83FD2A   		cmpl	$42, %ebp
 1494 003b 7448     		je	.L101
 1495 003d 83FD2A   		cmpl	$42, %ebp
 1496 0040 7712     		ja	.L102
 1497 0042 85ED     		testl	%ebp, %ebp
 1498 0044 7423     		je	.L103
 1499 0046 83FD28   		cmpl	$40, %ebp
 1500 0049 0F84D000 		je	.L104
 1500      0000
 1501 004f E91C0100 		jmp	.L100
 1501      00
 1502              	.L102:
 1503 0054 81FD162D 		cmpl	$11542, %ebp
 1503      0000
 1504 005a 7445     		je	.L105
 1505 005c 81FD172D 		cmpl	$11543, %ebp
 1505      0000
 1506 0062 746A     		je	.L106
 1507 0064 E9070100 		jmp	.L100
 1507      00
 1508              	.L103:
 1509              	.LVL133:
 1510              	.LBB162:
 1511              	.LBB163:
  97:/usr/include/x86_64-linux-gnu/bits/stdio2.h **** 			__va_arg_pack ());
 1512              		.loc 2 97 0
 1513 0069 4889D9   		movq	%rbx, %rcx
 1514 006c BA0D0000 		movl	$13, %edx
 1514      00
 1515 0071 BE010000 		movl	$1, %esi
 1515      00
 1516 0076 BF000000 		movl	$.LC36, %edi
 1516      00
 1517 007b E8000000 		call	fwrite
 1517      00
 1518              	.LVL134:
 1519              	.LBE163:
 1520              	.LBE162:
 351:/home/baikal/workspace/C50/Huawei_IoT_Agent_Tiny_SDK_Linux///lwm2m/examples/shared/commandline.c **** 
 1521              		.loc 1 351 0
 1522 0080 E9040100 		jmp	.L99
 1522      00
 1523              	.L101:
 1524              	.LVL135:
 1525              	.LBB164:
 1526              	.LBB165:
  97:/usr/include/x86_64-linux-gnu/bits/stdio2.h **** 			__va_arg_pack ());
 1527              		.loc 2 97 0
GAS LISTING /tmp/ccEyAHyj.s 			page 48


 1528 0085 4889D9   		movq	%rbx, %rcx
 1529 0088 BA1B0000 		movl	$27, %edx
 1529      00
 1530 008d BE010000 		movl	$1, %esi
 1530      00
 1531 0092 BF000000 		movl	$.LC37, %edi
 1531      00
 1532 0097 E8000000 		call	fwrite
 1532      00
 1533              	.LVL136:
 1534              	.LBE165:
 1535              	.LBE164:
 356:/home/baikal/workspace/C50/Huawei_IoT_Agent_Tiny_SDK_Linux///lwm2m/examples/shared/commandline.c **** 
 1536              		.loc 1 356 0
 1537 009c E9E80000 		jmp	.L99
 1537      00
 1538              	.L105:
 1539              	.LVL137:
 1540              	.LBB166:
 1541              	.LBB167:
  97:/usr/include/x86_64-linux-gnu/bits/stdio2.h **** 			__va_arg_pack ());
 1542              		.loc 2 97 0
 1543 00a1 4889D9   		movq	%rbx, %rcx
 1544 00a4 BA200000 		movl	$32, %edx
 1544      00
 1545 00a9 BE010000 		movl	$1, %esi
 1545      00
 1546 00ae BF000000 		movl	$.LC38, %edi
 1546      00
 1547 00b3 E8000000 		call	fwrite
 1547      00
 1548              	.LVL138:
 1549              	.LBE167:
 1550              	.LBE166:
 360:/home/baikal/workspace/C50/Huawei_IoT_Agent_Tiny_SDK_Linux///lwm2m/examples/shared/commandline.c ****         break;
 1551              		.loc 1 360 0
 1552 00b8 4963D4   		movslq	%r12d, %rdx
 1553 00bb 4489F1   		movl	%r14d, %ecx
 1554 00be 4C89EE   		movq	%r13, %rsi
 1555 00c1 4889DF   		movq	%rbx, %rdi
 1556 00c4 E8000000 		call	output_tlv
 1556      00
 1557              	.LVL139:
 361:/home/baikal/workspace/C50/Huawei_IoT_Agent_Tiny_SDK_Linux///lwm2m/examples/shared/commandline.c **** 
 1558              		.loc 1 361 0
 1559 00c9 E9BB0000 		jmp	.L99
 1559      00
 1560              	.L106:
 1561              	.LVL140:
 1562              	.LBB168:
 1563              	.LBB169:
  97:/usr/include/x86_64-linux-gnu/bits/stdio2.h **** 			__va_arg_pack ());
 1564              		.loc 2 97 0
 1565 00ce 4889D9   		movq	%rbx, %rcx
 1566 00d1 BA210000 		movl	$33, %edx
 1566      00
 1567 00d6 BE010000 		movl	$1, %esi
GAS LISTING /tmp/ccEyAHyj.s 			page 49


 1567      00
 1568 00db BF000000 		movl	$.LC39, %edi
 1568      00
 1569 00e0 E8000000 		call	fwrite
 1569      00
 1570              	.LVL141:
 1571              	.LBE169:
 1572              	.LBE168:
 365:/home/baikal/workspace/C50/Huawei_IoT_Agent_Tiny_SDK_Linux///lwm2m/examples/shared/commandline.c ****         for (i = 0 ; i < dataLength ; i++)
 1573              		.loc 1 365 0
 1574 00e5 4489F6   		movl	%r14d, %esi
 1575 00e8 4889DF   		movq	%rbx, %rdi
 1576 00eb E8000000 		call	print_indent
 1576      00
 1577              	.LVL142:
 366:/home/baikal/workspace/C50/Huawei_IoT_Agent_Tiny_SDK_Linux///lwm2m/examples/shared/commandline.c ****         {
 1578              		.loc 1 366 0
 1579 00f0 BD000000 		movl	$0, %ebp
 1579      00
 1580              	.LVL143:
 1581 00f5 EB14     		jmp	.L108
 1582              	.LVL144:
 1583              	.L109:
 368:/home/baikal/workspace/C50/Huawei_IoT_Agent_Tiny_SDK_Linux///lwm2m/examples/shared/commandline.c ****         }
 1584              		.loc 1 368 0 discriminator 3
 1585 00f7 4863C5   		movslq	%ebp, %rax
 1586 00fa 410FB67C 		movzbl	0(%r13,%rax), %edi
 1586      0500
 1587              	.LVL145:
 1588              	.LBB170:
 1589              	.LBB171:
  97:/usr/include/x86_64-linux-gnu/bits/stdio2.h **** 			__va_arg_pack ());
 1590              		.loc 2 97 0 discriminator 3
 1591 0100 4889DE   		movq	%rbx, %rsi
 1592 0103 E8000000 		call	fputc
 1592      00
 1593              	.LVL146:
 1594              	.LBE171:
 1595              	.LBE170:
 366:/home/baikal/workspace/C50/Huawei_IoT_Agent_Tiny_SDK_Linux///lwm2m/examples/shared/commandline.c ****         {
 1596              		.loc 1 366 0 discriminator 3
 1597 0108 83C501   		addl	$1, %ebp
 1598              	.LVL147:
 1599              	.L108:
 366:/home/baikal/workspace/C50/Huawei_IoT_Agent_Tiny_SDK_Linux///lwm2m/examples/shared/commandline.c ****         {
 1600              		.loc 1 366 0 is_stmt 0 discriminator 1
 1601 010b 4439E5   		cmpl	%r12d, %ebp
 1602 010e 7CE7     		jl	.L109
 1603              	.LVL148:
 1604              	.LBB172:
 1605              	.LBB173:
  97:/usr/include/x86_64-linux-gnu/bits/stdio2.h **** 			__va_arg_pack ());
 1606              		.loc 2 97 0 is_stmt 1
 1607 0110 4889DE   		movq	%rbx, %rsi
 1608 0113 BF0A0000 		movl	$10, %edi
 1608      00
 1609 0118 E8000000 		call	fputc
GAS LISTING /tmp/ccEyAHyj.s 			page 50


 1609      00
 1610              	.LVL149:
 1611 011d EB6A     		jmp	.L99
 1612              	.LVL150:
 1613              	.L104:
 1614              	.LBE173:
 1615              	.LBE172:
 1616              	.LBB174:
 1617              	.LBB175:
 1618 011f 4889D9   		movq	%rbx, %rcx
 1619 0122 BA1A0000 		movl	$26, %edx
 1619      00
 1620 0127 BE010000 		movl	$1, %esi
 1620      00
 1621 012c BF000000 		movl	$.LC40, %edi
 1621      00
 1622 0131 E8000000 		call	fwrite
 1622      00
 1623              	.LVL151:
 1624              	.LBE175:
 1625              	.LBE174:
 375:/home/baikal/workspace/C50/Huawei_IoT_Agent_Tiny_SDK_Linux///lwm2m/examples/shared/commandline.c ****         for (i = 0 ; i < dataLength ; i++)
 1626              		.loc 1 375 0
 1627 0136 4489F6   		movl	%r14d, %esi
 1628 0139 4889DF   		movq	%rbx, %rdi
 1629 013c E8000000 		call	print_indent
 1629      00
 1630              	.LVL152:
 376:/home/baikal/workspace/C50/Huawei_IoT_Agent_Tiny_SDK_Linux///lwm2m/examples/shared/commandline.c ****         {
 1631              		.loc 1 376 0
 1632 0141 BD000000 		movl	$0, %ebp
 1632      00
 1633              	.LVL153:
 1634 0146 EB14     		jmp	.L110
 1635              	.LVL154:
 1636              	.L111:
 378:/home/baikal/workspace/C50/Huawei_IoT_Agent_Tiny_SDK_Linux///lwm2m/examples/shared/commandline.c ****         }
 1637              		.loc 1 378 0 discriminator 3
 1638 0148 4863C5   		movslq	%ebp, %rax
 1639 014b 410FB67C 		movzbl	0(%r13,%rax), %edi
 1639      0500
 1640              	.LVL155:
 1641              	.LBB176:
 1642              	.LBB177:
  97:/usr/include/x86_64-linux-gnu/bits/stdio2.h **** 			__va_arg_pack ());
 1643              		.loc 2 97 0 discriminator 3
 1644 0151 4889DE   		movq	%rbx, %rsi
 1645 0154 E8000000 		call	fputc
 1645      00
 1646              	.LVL156:
 1647              	.LBE177:
 1648              	.LBE176:
 376:/home/baikal/workspace/C50/Huawei_IoT_Agent_Tiny_SDK_Linux///lwm2m/examples/shared/commandline.c ****         {
 1649              		.loc 1 376 0 discriminator 3
 1650 0159 83C501   		addl	$1, %ebp
 1651              	.LVL157:
 1652              	.L110:
GAS LISTING /tmp/ccEyAHyj.s 			page 51


 376:/home/baikal/workspace/C50/Huawei_IoT_Agent_Tiny_SDK_Linux///lwm2m/examples/shared/commandline.c ****         {
 1653              		.loc 1 376 0 is_stmt 0 discriminator 1
 1654 015c 4439E5   		cmpl	%r12d, %ebp
 1655 015f 7CE7     		jl	.L111
 1656              	.LVL158:
 1657              	.LBB178:
 1658              	.LBB179:
  97:/usr/include/x86_64-linux-gnu/bits/stdio2.h **** 			__va_arg_pack ());
 1659              		.loc 2 97 0 is_stmt 1
 1660 0161 4889DE   		movq	%rbx, %rsi
 1661 0164 BF0A0000 		movl	$10, %edi
 1661      00
 1662 0169 E8000000 		call	fputc
 1662      00
 1663              	.LVL159:
 1664 016e EB19     		jmp	.L99
 1665              	.LVL160:
 1666              	.L100:
 1667              	.LBE179:
 1668              	.LBE178:
 1669              	.LBB180:
 1670              	.LBB181:
 1671 0170 89E9     		movl	%ebp, %ecx
 1672 0172 BA000000 		movl	$.LC41, %edx
 1672      00
 1673 0177 BE010000 		movl	$1, %esi
 1673      00
 1674 017c 4889DF   		movq	%rbx, %rdi
 1675 017f B8000000 		movl	$0, %eax
 1675      00
 1676 0184 E8000000 		call	__fprintf_chk
 1676      00
 1677              	.LVL161:
 1678              	.L99:
 1679              	.LBE181:
 1680              	.LBE180:
 388:/home/baikal/workspace/C50/Huawei_IoT_Agent_Tiny_SDK_Linux///lwm2m/examples/shared/commandline.c **** 
 1681              		.loc 1 388 0
 1682 0189 5B       		popq	%rbx
 1683              	.LCFI89:
 1684              		.cfi_def_cfa_offset 40
 1685              	.LVL162:
 1686 018a 5D       		popq	%rbp
 1687              	.LCFI90:
 1688              		.cfi_def_cfa_offset 32
 1689 018b 415C     		popq	%r12
 1690              	.LCFI91:
 1691              		.cfi_def_cfa_offset 24
 1692              	.LVL163:
 1693 018d 415D     		popq	%r13
 1694              	.LCFI92:
 1695              		.cfi_def_cfa_offset 16
 1696              	.LVL164:
 1697 018f 415E     		popq	%r14
 1698              	.LCFI93:
 1699              		.cfi_def_cfa_offset 8
 1700              	.LVL165:
GAS LISTING /tmp/ccEyAHyj.s 			page 52


 1701 0191 C3       		ret
 1702              		.cfi_endproc
 1703              	.LFE77:
 1705              		.section	.rodata.str1.1
 1706              	.LC42:
 1707 0230 74727565 		.string	"true"
 1707      00
 1708              	.LC43:
 1709 0235 66616C73 		.string	"false"
 1709      6500
 1710              	.LC44:
 1711 023b 69643A20 		.string	"id: %d\r\n"
 1711      25640D0A 
 1711      00
 1712              	.LC45:
 1713 0244 74797065 		.string	"type: "
 1713      3A2000
 1714              	.LC46:
 1715 024b 4C574D32 		.string	"LWM2M_TYPE_OBJECT\r\n"
 1715      4D5F5459 
 1715      50455F4F 
 1715      424A4543 
 1715      540D0A00 
 1716              	.LC47:
 1717 025f 4C574D32 		.string	"LWM2M_TYPE_OBJECT_INSTANCE\r\n"
 1717      4D5F5459 
 1717      50455F4F 
 1717      424A4543 
 1717      545F494E 
 1718              		.section	.rodata.str1.8
 1719 00da 00000000 		.align 8
 1719      0000
 1720              	.LC48:
 1721 00e0 4C574D32 		.string	"LWM2M_TYPE_MULTIPLE_RESOURCE\r\n"
 1721      4D5F5459 
 1721      50455F4D 
 1721      554C5449 
 1721      504C455F 
 1722              		.section	.rodata.str1.1
 1723              	.LC49:
 1724 027c 4C574D32 		.string	"LWM2M_TYPE_UNDEFINED\r\n"
 1724      4D5F5459 
 1724      50455F55 
 1724      4E444546 
 1724      494E4544 
 1725              	.LC50:
 1726 0293 4C574D32 		.string	"LWM2M_TYPE_STRING\r\n"
 1726      4D5F5459 
 1726      50455F53 
 1726      5452494E 
 1726      470D0A00 
 1727              	.LC51:
 1728 02a7 22252E2A 		.string	"\"%.*s\"\r\n"
 1728      73220D0A 
 1728      00
 1729              	.LC52:
 1730 02b0 4C574D32 		.string	"LWM2M_TYPE_OPAQUE\r\n"
GAS LISTING /tmp/ccEyAHyj.s 			page 53


 1730      4D5F5459 
 1730      50455F4F 
 1730      50415155 
 1730      450D0A00 
 1731              	.LC53:
 1732 02c4 4C574D32 		.string	"LWM2M_TYPE_INTEGER: "
 1732      4D5F5459 
 1732      50455F49 
 1732      4E544547 
 1732      45523A20 
 1733              	.LC54:
 1734 02d9 0D0A00   		.string	"\r\n"
 1735              	.LC55:
 1736 02dc 4C574D32 		.string	"LWM2M_TYPE_FLOAT: "
 1736      4D5F5459 
 1736      50455F46 
 1736      4C4F4154 
 1736      3A2000
 1737              	.LC56:
 1738 02ef 4C574D32 		.string	"LWM2M_TYPE_BOOLEAN: "
 1738      4D5F5459 
 1738      50455F42 
 1738      4F4F4C45 
 1738      414E3A20 
 1739              	.LC57:
 1740 0304 4C574D32 		.string	"LWM2M_TYPE_OBJECT_LINK\r\n"
 1740      4D5F5459 
 1740      50455F4F 
 1740      424A4543 
 1740      545F4C49 
 1741              	.LC58:
 1742 031d 756E6B6E 		.string	"unknown (%d)\r\n"
 1742      6F776E20 
 1742      28256429 
 1742      0D0A00
 1743              		.section	.text.dump_tlv,"ax",@progbits
 1744              		.globl	dump_tlv
 1746              	dump_tlv:
 1747              	.LFB78:
 394:/home/baikal/workspace/C50/Huawei_IoT_Agent_Tiny_SDK_Linux///lwm2m/examples/shared/commandline.c ****     int i;
 1748              		.loc 1 394 0
 1749              		.cfi_startproc
 1750              	.LVL166:
 1751 0000 4157     		pushq	%r15
 1752              	.LCFI94:
 1753              		.cfi_def_cfa_offset 16
 1754              		.cfi_offset 15, -16
 1755 0002 4156     		pushq	%r14
 1756              	.LCFI95:
 1757              		.cfi_def_cfa_offset 24
 1758              		.cfi_offset 14, -24
 1759 0004 4155     		pushq	%r13
 1760              	.LCFI96:
 1761              		.cfi_def_cfa_offset 32
 1762              		.cfi_offset 13, -32
 1763 0006 4154     		pushq	%r12
 1764              	.LCFI97:
GAS LISTING /tmp/ccEyAHyj.s 			page 54


 1765              		.cfi_def_cfa_offset 40
 1766              		.cfi_offset 12, -40
 1767 0008 55       		pushq	%rbp
 1768              	.LCFI98:
 1769              		.cfi_def_cfa_offset 48
 1770              		.cfi_offset 6, -48
 1771 0009 53       		pushq	%rbx
 1772              	.LCFI99:
 1773              		.cfi_def_cfa_offset 56
 1774              		.cfi_offset 3, -56
 1775 000a 4883EC18 		subq	$24, %rsp
 1776              	.LCFI100:
 1777              		.cfi_def_cfa_offset 80
 1778 000e 4889FB   		movq	%rdi, %rbx
 1779 0011 4189F7   		movl	%esi, %r15d
 1780 0014 48895424 		movq	%rdx, 8(%rsp)
 1780      08
 1781 0019 4189CE   		movl	%ecx, %r14d
 1782              	.LVL167:
 397:/home/baikal/workspace/C50/Huawei_IoT_Agent_Tiny_SDK_Linux///lwm2m/examples/shared/commandline.c ****     {
 1783              		.loc 1 397 0
 1784 001c 41BC0000 		movl	$0, %r12d
 1784      0000
 1785 0022 E9F10200 		jmp	.L114
 1785      00
 1786              	.LVL168:
 1787              	.L129:
 399:/home/baikal/workspace/C50/Huawei_IoT_Agent_Tiny_SDK_Linux///lwm2m/examples/shared/commandline.c ****         fprintf(stream, "{\r\n");
 1788              		.loc 1 399 0
 1789 0027 4489F6   		movl	%r14d, %esi
 1790 002a 4889DF   		movq	%rbx, %rdi
 1791 002d E8000000 		call	print_indent
 1791      00
 1792              	.LVL169:
 1793              	.LBB182:
 1794              	.LBB183:
  97:/usr/include/x86_64-linux-gnu/bits/stdio2.h **** 			__va_arg_pack ());
 1795              		.loc 2 97 0
 1796 0032 4889D9   		movq	%rbx, %rcx
 1797 0035 BA030000 		movl	$3, %edx
 1797      00
 1798 003a BE010000 		movl	$1, %esi
 1798      00
 1799 003f BF000000 		movl	$.LC21, %edi
 1799      00
 1800 0044 E8000000 		call	fwrite
 1800      00
 1801              	.LVL170:
 1802              	.LBE183:
 1803              	.LBE182:
 401:/home/baikal/workspace/C50/Huawei_IoT_Agent_Tiny_SDK_Linux///lwm2m/examples/shared/commandline.c ****         fprintf(stream, "id: %d\r\n", dataP[i].id);
 1804              		.loc 1 401 0
 1805 0049 458D6E01 		leal	1(%r14), %r13d
 1806 004d 4489EE   		movl	%r13d, %esi
 1807 0050 4889DF   		movq	%rbx, %rdi
 1808 0053 E8000000 		call	print_indent
 1808      00
GAS LISTING /tmp/ccEyAHyj.s 			page 55


 1809              	.LVL171:
 402:/home/baikal/workspace/C50/Huawei_IoT_Agent_Tiny_SDK_Linux///lwm2m/examples/shared/commandline.c **** 
 1810              		.loc 1 402 0
 1811 0058 4963C4   		movslq	%r12d, %rax
 1812 005b 488D0440 		leaq	(%rax,%rax,2), %rax
 1813 005f 488D2CC5 		leaq	0(,%rax,8), %rbp
 1813      00000000 
 1814 0067 48036C24 		addq	8(%rsp), %rbp
 1814      08
 1815 006c 0FB74D04 		movzwl	4(%rbp), %ecx
 1816              	.LVL172:
 1817              	.LBB184:
 1818              	.LBB185:
  97:/usr/include/x86_64-linux-gnu/bits/stdio2.h **** 			__va_arg_pack ());
 1819              		.loc 2 97 0
 1820 0070 BA000000 		movl	$.LC44, %edx
 1820      00
 1821 0075 BE010000 		movl	$1, %esi
 1821      00
 1822 007a 4889DF   		movq	%rbx, %rdi
 1823 007d B8000000 		movl	$0, %eax
 1823      00
 1824 0082 E8000000 		call	__fprintf_chk
 1824      00
 1825              	.LVL173:
 1826              	.LBE185:
 1827              	.LBE184:
 404:/home/baikal/workspace/C50/Huawei_IoT_Agent_Tiny_SDK_Linux///lwm2m/examples/shared/commandline.c ****         fprintf(stream, "type: ");
 1828              		.loc 1 404 0
 1829 0087 4489EE   		movl	%r13d, %esi
 1830 008a 4889DF   		movq	%rbx, %rdi
 1831 008d E8000000 		call	print_indent
 1831      00
 1832              	.LVL174:
 1833              	.LBB186:
 1834              	.LBB187:
  97:/usr/include/x86_64-linux-gnu/bits/stdio2.h **** 			__va_arg_pack ());
 1835              		.loc 2 97 0
 1836 0092 4889D9   		movq	%rbx, %rcx
 1837 0095 BA060000 		movl	$6, %edx
 1837      00
 1838 009a BE010000 		movl	$1, %esi
 1838      00
 1839 009f BF000000 		movl	$.LC45, %edi
 1839      00
 1840 00a4 E8000000 		call	fwrite
 1840      00
 1841              	.LVL175:
 1842              	.LBE187:
 1843              	.LBE186:
 406:/home/baikal/workspace/C50/Huawei_IoT_Agent_Tiny_SDK_Linux///lwm2m/examples/shared/commandline.c ****         {
 1844              		.loc 1 406 0
 1845 00a9 8B4D00   		movl	0(%rbp), %ecx
 1846 00ac 83F909   		cmpl	$9, %ecx
 1847 00af 0F872602 		ja	.L115
 1847      0000
 1848 00b5 89C9     		movl	%ecx, %ecx
GAS LISTING /tmp/ccEyAHyj.s 			page 56


 1849 00b7 FF24CD00 		jmp	*.L117(,%rcx,8)
 1849      000000
 1850              		.section	.rodata.dump_tlv,"a",@progbits
 1851              		.align 8
 1852              		.align 4
 1853              	.L117:
 1854 0000 00000000 		.quad	.L116
 1854      00000000 
 1855 0008 00000000 		.quad	.L118
 1855      00000000 
 1856 0010 00000000 		.quad	.L119
 1856      00000000 
 1857 0018 00000000 		.quad	.L120
 1857      00000000 
 1858 0020 00000000 		.quad	.L121
 1858      00000000 
 1859 0028 00000000 		.quad	.L122
 1859      00000000 
 1860 0030 00000000 		.quad	.L123
 1860      00000000 
 1861 0038 00000000 		.quad	.L124
 1861      00000000 
 1862 0040 00000000 		.quad	.L125
 1862      00000000 
 1863 0048 00000000 		.quad	.L126
 1863      00000000 
 1864              		.section	.text.dump_tlv
 1865              	.L118:
 1866              	.LVL176:
 1867              	.LBB188:
 1868              	.LBB189:
  97:/usr/include/x86_64-linux-gnu/bits/stdio2.h **** 			__va_arg_pack ());
 1869              		.loc 2 97 0
 1870 00be 4889D9   		movq	%rbx, %rcx
 1871 00c1 BA130000 		movl	$19, %edx
 1871      00
 1872 00c6 BE010000 		movl	$1, %esi
 1872      00
 1873 00cb BF000000 		movl	$.LC46, %edi
 1873      00
 1874 00d0 E8000000 		call	fwrite
 1874      00
 1875              	.LVL177:
 1876              	.LBE189:
 1877              	.LBE188:
 410:/home/baikal/workspace/C50/Huawei_IoT_Agent_Tiny_SDK_Linux///lwm2m/examples/shared/commandline.c ****             break;
 1878              		.loc 1 410 0
 1879 00d5 488B7508 		movq	8(%rbp), %rsi
 1880 00d9 488B5510 		movq	16(%rbp), %rdx
 1881 00dd 4489E9   		movl	%r13d, %ecx
 1882 00e0 4889DF   		movq	%rbx, %rdi
 1883 00e3 E8000000 		call	dump_tlv
 1883      00
 1884              	.LVL178:
 411:/home/baikal/workspace/C50/Huawei_IoT_Agent_Tiny_SDK_Linux///lwm2m/examples/shared/commandline.c ****         case LWM2M_TYPE_OBJECT_INSTANCE:
 1885              		.loc 1 411 0
 1886 00e8 E9050200 		jmp	.L127
GAS LISTING /tmp/ccEyAHyj.s 			page 57


 1886      00
 1887              	.L119:
 1888              	.LVL179:
 1889              	.LBB190:
 1890              	.LBB191:
  97:/usr/include/x86_64-linux-gnu/bits/stdio2.h **** 			__va_arg_pack ());
 1891              		.loc 2 97 0
 1892 00ed 4889D9   		movq	%rbx, %rcx
 1893 00f0 BA1C0000 		movl	$28, %edx
 1893      00
 1894 00f5 BE010000 		movl	$1, %esi
 1894      00
 1895 00fa BF000000 		movl	$.LC47, %edi
 1895      00
 1896 00ff E8000000 		call	fwrite
 1896      00
 1897              	.LVL180:
 1898              	.LBE191:
 1899              	.LBE190:
 414:/home/baikal/workspace/C50/Huawei_IoT_Agent_Tiny_SDK_Linux///lwm2m/examples/shared/commandline.c ****             break;
 1900              		.loc 1 414 0
 1901 0104 488B7508 		movq	8(%rbp), %rsi
 1902 0108 488B5510 		movq	16(%rbp), %rdx
 1903 010c 4489E9   		movl	%r13d, %ecx
 1904 010f 4889DF   		movq	%rbx, %rdi
 1905 0112 E8000000 		call	dump_tlv
 1905      00
 1906              	.LVL181:
 415:/home/baikal/workspace/C50/Huawei_IoT_Agent_Tiny_SDK_Linux///lwm2m/examples/shared/commandline.c ****         case LWM2M_TYPE_MULTIPLE_RESOURCE:
 1907              		.loc 1 415 0
 1908 0117 E9D60100 		jmp	.L127
 1908      00
 1909              	.L120:
 1910              	.LVL182:
 1911              	.LBB192:
 1912              	.LBB193:
  97:/usr/include/x86_64-linux-gnu/bits/stdio2.h **** 			__va_arg_pack ());
 1913              		.loc 2 97 0
 1914 011c 4889D9   		movq	%rbx, %rcx
 1915 011f BA1E0000 		movl	$30, %edx
 1915      00
 1916 0124 BE010000 		movl	$1, %esi
 1916      00
 1917 0129 BF000000 		movl	$.LC48, %edi
 1917      00
 1918 012e E8000000 		call	fwrite
 1918      00
 1919              	.LVL183:
 1920              	.LBE193:
 1921              	.LBE192:
 418:/home/baikal/workspace/C50/Huawei_IoT_Agent_Tiny_SDK_Linux///lwm2m/examples/shared/commandline.c ****             break;
 1922              		.loc 1 418 0
 1923 0133 488B7508 		movq	8(%rbp), %rsi
 1924 0137 488B5510 		movq	16(%rbp), %rdx
 1925 013b 4489E9   		movl	%r13d, %ecx
 1926 013e 4889DF   		movq	%rbx, %rdi
 1927 0141 E8000000 		call	dump_tlv
GAS LISTING /tmp/ccEyAHyj.s 			page 58


 1927      00
 1928              	.LVL184:
 419:/home/baikal/workspace/C50/Huawei_IoT_Agent_Tiny_SDK_Linux///lwm2m/examples/shared/commandline.c ****         case LWM2M_TYPE_UNDEFINED:
 1929              		.loc 1 419 0
 1930 0146 E9A70100 		jmp	.L127
 1930      00
 1931              	.L116:
 1932              	.LVL185:
 1933              	.LBB194:
 1934              	.LBB195:
  97:/usr/include/x86_64-linux-gnu/bits/stdio2.h **** 			__va_arg_pack ());
 1935              		.loc 2 97 0
 1936 014b 4889D9   		movq	%rbx, %rcx
 1937 014e BA160000 		movl	$22, %edx
 1937      00
 1938 0153 BE010000 		movl	$1, %esi
 1938      00
 1939 0158 BF000000 		movl	$.LC49, %edi
 1939      00
 1940 015d E8000000 		call	fwrite
 1940      00
 1941              	.LVL186:
 1942 0162 E98B0100 		jmp	.L127
 1942      00
 1943              	.LVL187:
 1944              	.L121:
 1945              	.LBE195:
 1946              	.LBE194:
 1947              	.LBB196:
 1948              	.LBB197:
 1949 0167 4889D9   		movq	%rbx, %rcx
 1950 016a BA130000 		movl	$19, %edx
 1950      00
 1951 016f BE010000 		movl	$1, %esi
 1951      00
 1952 0174 BF000000 		movl	$.LC50, %edi
 1952      00
 1953 0179 E8000000 		call	fwrite
 1953      00
 1954              	.LVL188:
 1955              	.LBE197:
 1956              	.LBE196:
 425:/home/baikal/workspace/C50/Huawei_IoT_Agent_Tiny_SDK_Linux///lwm2m/examples/shared/commandline.c ****             fprintf(stream, "\"%.*s\"\r\n", (int)dataP[i].value.asBuffer.length, dataP[i].value.asB
 1957              		.loc 1 425 0
 1958 017e 4489EE   		movl	%r13d, %esi
 1959 0181 4889DF   		movq	%rbx, %rdi
 1960 0184 E8000000 		call	print_indent
 1960      00
 1961              	.LVL189:
 426:/home/baikal/workspace/C50/Huawei_IoT_Agent_Tiny_SDK_Linux///lwm2m/examples/shared/commandline.c ****             break;
 1962              		.loc 1 426 0
 1963 0189 488B4D08 		movq	8(%rbp), %rcx
 1964              	.LVL190:
 1965              	.LBB198:
 1966              	.LBB199:
  97:/usr/include/x86_64-linux-gnu/bits/stdio2.h **** 			__va_arg_pack ());
 1967              		.loc 2 97 0
GAS LISTING /tmp/ccEyAHyj.s 			page 59


 1968 018d 4C8B4510 		movq	16(%rbp), %r8
 1969 0191 BA000000 		movl	$.LC51, %edx
 1969      00
 1970 0196 BE010000 		movl	$1, %esi
 1970      00
 1971 019b 4889DF   		movq	%rbx, %rdi
 1972 019e B8000000 		movl	$0, %eax
 1972      00
 1973 01a3 E8000000 		call	__fprintf_chk
 1973      00
 1974              	.LVL191:
 1975 01a8 E9450100 		jmp	.L127
 1975      00
 1976              	.LVL192:
 1977              	.L122:
 1978              	.LBE199:
 1979              	.LBE198:
 1980              	.LBB200:
 1981              	.LBB201:
 1982 01ad 4889D9   		movq	%rbx, %rcx
 1983 01b0 BA130000 		movl	$19, %edx
 1983      00
 1984 01b5 BE010000 		movl	$1, %esi
 1984      00
 1985 01ba BF000000 		movl	$.LC52, %edi
 1985      00
 1986 01bf E8000000 		call	fwrite
 1986      00
 1987              	.LVL193:
 1988              	.LBE201:
 1989              	.LBE200:
 431:/home/baikal/workspace/C50/Huawei_IoT_Agent_Tiny_SDK_Linux///lwm2m/examples/shared/commandline.c ****         case LWM2M_TYPE_INTEGER:
 1990              		.loc 1 431 0
 1991 01c4 E9290100 		jmp	.L127
 1991      00
 1992              	.L123:
 1993              	.LVL194:
 1994              	.LBB202:
 1995              	.LBB203:
  97:/usr/include/x86_64-linux-gnu/bits/stdio2.h **** 			__va_arg_pack ());
 1996              		.loc 2 97 0
 1997 01c9 4889D9   		movq	%rbx, %rcx
 1998 01cc BA140000 		movl	$20, %edx
 1998      00
 1999 01d1 BE010000 		movl	$1, %esi
 1999      00
 2000 01d6 BF000000 		movl	$.LC53, %edi
 2000      00
 2001 01db E8000000 		call	fwrite
 2001      00
 2002              	.LVL195:
 2003              	.LBE203:
 2004              	.LBE202:
 434:/home/baikal/workspace/C50/Huawei_IoT_Agent_Tiny_SDK_Linux///lwm2m/examples/shared/commandline.c ****             fprintf(stream, "%" PRId64, dataP[i].value.asInteger);
 2005              		.loc 1 434 0
 2006 01e0 4489EE   		movl	%r13d, %esi
 2007 01e3 4889DF   		movq	%rbx, %rdi
GAS LISTING /tmp/ccEyAHyj.s 			page 60


 2008 01e6 E8000000 		call	print_indent
 2008      00
 2009              	.LVL196:
 435:/home/baikal/workspace/C50/Huawei_IoT_Agent_Tiny_SDK_Linux///lwm2m/examples/shared/commandline.c ****             fprintf(stream, "\r\n");
 2010              		.loc 1 435 0
 2011 01eb 488B4D08 		movq	8(%rbp), %rcx
 2012              	.LVL197:
 2013              	.LBB204:
 2014              	.LBB205:
  97:/usr/include/x86_64-linux-gnu/bits/stdio2.h **** 			__va_arg_pack ());
 2015              		.loc 2 97 0
 2016 01ef BA000000 		movl	$.LC30, %edx
 2016      00
 2017 01f4 BE010000 		movl	$1, %esi
 2017      00
 2018 01f9 4889DF   		movq	%rbx, %rdi
 2019 01fc B8000000 		movl	$0, %eax
 2019      00
 2020 0201 E8000000 		call	__fprintf_chk
 2020      00
 2021              	.LVL198:
 2022              	.LBE205:
 2023              	.LBE204:
 2024              	.LBB206:
 2025              	.LBB207:
 2026 0206 4889D9   		movq	%rbx, %rcx
 2027 0209 BA020000 		movl	$2, %edx
 2027      00
 2028 020e BE010000 		movl	$1, %esi
 2028      00
 2029 0213 BF000000 		movl	$.LC54, %edi
 2029      00
 2030 0218 E8000000 		call	fwrite
 2030      00
 2031              	.LVL199:
 2032 021d E9D00000 		jmp	.L127
 2032      00
 2033              	.LVL200:
 2034              	.L124:
 2035              	.LBE207:
 2036              	.LBE206:
 2037              	.LBB208:
 2038              	.LBB209:
 2039 0222 4889D9   		movq	%rbx, %rcx
 2040 0225 BA120000 		movl	$18, %edx
 2040      00
 2041 022a BE010000 		movl	$1, %esi
 2041      00
 2042 022f BF000000 		movl	$.LC55, %edi
 2042      00
 2043 0234 E8000000 		call	fwrite
 2043      00
 2044              	.LVL201:
 2045              	.LBE209:
 2046              	.LBE208:
 440:/home/baikal/workspace/C50/Huawei_IoT_Agent_Tiny_SDK_Linux///lwm2m/examples/shared/commandline.c ****             fprintf(stream, "%" PRId64, dataP[i].value.asInteger);
 2047              		.loc 1 440 0
GAS LISTING /tmp/ccEyAHyj.s 			page 61


 2048 0239 4489EE   		movl	%r13d, %esi
 2049 023c 4889DF   		movq	%rbx, %rdi
 2050 023f E8000000 		call	print_indent
 2050      00
 2051              	.LVL202:
 441:/home/baikal/workspace/C50/Huawei_IoT_Agent_Tiny_SDK_Linux///lwm2m/examples/shared/commandline.c ****             fprintf(stream, "\r\n");
 2052              		.loc 1 441 0
 2053 0244 488B4D08 		movq	8(%rbp), %rcx
 2054              	.LVL203:
 2055              	.LBB210:
 2056              	.LBB211:
  97:/usr/include/x86_64-linux-gnu/bits/stdio2.h **** 			__va_arg_pack ());
 2057              		.loc 2 97 0
 2058 0248 BA000000 		movl	$.LC30, %edx
 2058      00
 2059 024d BE010000 		movl	$1, %esi
 2059      00
 2060 0252 4889DF   		movq	%rbx, %rdi
 2061 0255 B8000000 		movl	$0, %eax
 2061      00
 2062 025a E8000000 		call	__fprintf_chk
 2062      00
 2063              	.LVL204:
 2064              	.LBE211:
 2065              	.LBE210:
 2066              	.LBB212:
 2067              	.LBB213:
 2068 025f 4889D9   		movq	%rbx, %rcx
 2069 0262 BA020000 		movl	$2, %edx
 2069      00
 2070 0267 BE010000 		movl	$1, %esi
 2070      00
 2071 026c BF000000 		movl	$.LC54, %edi
 2071      00
 2072 0271 E8000000 		call	fwrite
 2072      00
 2073              	.LVL205:
 2074 0276 EB7A     		jmp	.L127
 2075              	.LVL206:
 2076              	.L125:
 2077              	.LBE213:
 2078              	.LBE212:
 2079              	.LBB214:
 2080              	.LBB215:
 2081 0278 4889D9   		movq	%rbx, %rcx
 2082 027b BA140000 		movl	$20, %edx
 2082      00
 2083 0280 BE010000 		movl	$1, %esi
 2083      00
 2084 0285 BF000000 		movl	$.LC56, %edi
 2084      00
 2085 028a E8000000 		call	fwrite
 2085      00
 2086              	.LVL207:
 2087              	.LBE215:
 2088              	.LBE214:
 446:/home/baikal/workspace/C50/Huawei_IoT_Agent_Tiny_SDK_Linux///lwm2m/examples/shared/commandline.c ****             fprintf(stream, "\r\n");
GAS LISTING /tmp/ccEyAHyj.s 			page 62


 2089              		.loc 1 446 0
 2090 028f 807D0800 		cmpb	$0, 8(%rbp)
 2091 0293 7407     		je	.L130
 2092 0295 BF000000 		movl	$.LC42, %edi
 2092      00
 2093 029a EB05     		jmp	.L128
 2094              	.L130:
 2095 029c BF000000 		movl	$.LC43, %edi
 2095      00
 2096              	.L128:
 2097              	.LVL208:
 2098              	.LBB216:
 2099              	.LBB217:
  97:/usr/include/x86_64-linux-gnu/bits/stdio2.h **** 			__va_arg_pack ());
 2100              		.loc 2 97 0 discriminator 4
 2101 02a1 4889DE   		movq	%rbx, %rsi
 2102 02a4 E8000000 		call	fputs
 2102      00
 2103              	.LVL209:
 2104              	.LBE217:
 2105              	.LBE216:
 2106              	.LBB218:
 2107              	.LBB219:
 2108 02a9 4889D9   		movq	%rbx, %rcx
 2109 02ac BA020000 		movl	$2, %edx
 2109      00
 2110 02b1 BE010000 		movl	$1, %esi
 2110      00
 2111 02b6 BF000000 		movl	$.LC54, %edi
 2111      00
 2112 02bb E8000000 		call	fwrite
 2112      00
 2113              	.LVL210:
 2114 02c0 EB30     		jmp	.L127
 2115              	.LVL211:
 2116              	.L126:
 2117              	.LBE219:
 2118              	.LBE218:
 2119              	.LBB220:
 2120              	.LBB221:
  97:/usr/include/x86_64-linux-gnu/bits/stdio2.h **** 			__va_arg_pack ());
 2121              		.loc 2 97 0 is_stmt 0
 2122 02c2 4889D9   		movq	%rbx, %rcx
 2123 02c5 BA180000 		movl	$24, %edx
 2123      00
 2124 02ca BE010000 		movl	$1, %esi
 2124      00
 2125 02cf BF000000 		movl	$.LC57, %edi
 2125      00
 2126 02d4 E8000000 		call	fwrite
 2126      00
 2127              	.LVL212:
 2128 02d9 EB17     		jmp	.L127
 2129              	.LVL213:
 2130              	.L115:
 2131              	.LBE221:
 2132              	.LBE220:
GAS LISTING /tmp/ccEyAHyj.s 			page 63


 2133              	.LBB222:
 2134              	.LBB223:
 2135 02db BA000000 		movl	$.LC58, %edx
 2135      00
 2136 02e0 BE010000 		movl	$1, %esi
 2136      00
 2137 02e5 4889DF   		movq	%rbx, %rdi
 2138 02e8 B8000000 		movl	$0, %eax
 2138      00
 2139 02ed E8000000 		call	__fprintf_chk
 2139      00
 2140              	.LVL214:
 2141              	.L127:
 2142              	.LBE223:
 2143              	.LBE222:
 456:/home/baikal/workspace/C50/Huawei_IoT_Agent_Tiny_SDK_Linux///lwm2m/examples/shared/commandline.c ****         fprintf(stream, "}\r\n");
 2144              		.loc 1 456 0 is_stmt 1 discriminator 2
 2145 02f2 4489F6   		movl	%r14d, %esi
 2146 02f5 4889DF   		movq	%rbx, %rdi
 2147 02f8 E8000000 		call	print_indent
 2147      00
 2148              	.LVL215:
 2149              	.LBB224:
 2150              	.LBB225:
  97:/usr/include/x86_64-linux-gnu/bits/stdio2.h **** 			__va_arg_pack ());
 2151              		.loc 2 97 0 discriminator 2
 2152 02fd 4889D9   		movq	%rbx, %rcx
 2153 0300 BA030000 		movl	$3, %edx
 2153      00
 2154 0305 BE010000 		movl	$1, %esi
 2154      00
 2155 030a BF000000 		movl	$.LC34, %edi
 2155      00
 2156 030f E8000000 		call	fwrite
 2156      00
 2157              	.LVL216:
 2158              	.LBE225:
 2159              	.LBE224:
 397:/home/baikal/workspace/C50/Huawei_IoT_Agent_Tiny_SDK_Linux///lwm2m/examples/shared/commandline.c ****     {
 2160              		.loc 1 397 0 discriminator 2
 2161 0314 4183C401 		addl	$1, %r12d
 2162              	.LVL217:
 2163              	.L114:
 397:/home/baikal/workspace/C50/Huawei_IoT_Agent_Tiny_SDK_Linux///lwm2m/examples/shared/commandline.c ****     {
 2164              		.loc 1 397 0 is_stmt 0 discriminator 1
 2165 0318 4539FC   		cmpl	%r15d, %r12d
 2166 031b 0F8C06FD 		jl	.L129
 2166      FFFF
 459:/home/baikal/workspace/C50/Huawei_IoT_Agent_Tiny_SDK_Linux///lwm2m/examples/shared/commandline.c **** 
 2167              		.loc 1 459 0 is_stmt 1
 2168 0321 4883C418 		addq	$24, %rsp
 2169              	.LCFI101:
 2170              		.cfi_def_cfa_offset 56
 2171 0325 5B       		popq	%rbx
 2172              	.LCFI102:
 2173              		.cfi_def_cfa_offset 48
 2174              	.LVL218:
GAS LISTING /tmp/ccEyAHyj.s 			page 64


 2175 0326 5D       		popq	%rbp
 2176              	.LCFI103:
 2177              		.cfi_def_cfa_offset 40
 2178 0327 415C     		popq	%r12
 2179              	.LCFI104:
 2180              		.cfi_def_cfa_offset 32
 2181              	.LVL219:
 2182 0329 415D     		popq	%r13
 2183              	.LCFI105:
 2184              		.cfi_def_cfa_offset 24
 2185 032b 415E     		popq	%r14
 2186              	.LCFI106:
 2187              		.cfi_def_cfa_offset 16
 2188              	.LVL220:
 2189 032d 415F     		popq	%r15
 2190              	.LCFI107:
 2191              		.cfi_def_cfa_offset 8
 2192              	.LVL221:
 2193 032f C3       		ret
 2194              		.cfi_endproc
 2195              	.LFE78:
 2197              		.section	.rodata.str1.1
 2198              	.LC59:
 2199 032c 25642E25 		.string	"%d.%02d (%s)"
 2199      30326420 
 2199      28257329 
 2199      00
 2200              		.section	.text.print_status,"ax",@progbits
 2201              		.globl	print_status
 2203              	print_status:
 2204              	.LFB80:
 488:/home/baikal/workspace/C50/Huawei_IoT_Agent_Tiny_SDK_Linux///lwm2m/examples/shared/commandline.c ****     fprintf(stream, "%d.%02d (%s)", (status & 0xE0) >> 5, status & 0x1F, prv_status_to_string(statu
 2205              		.loc 1 488 0
 2206              		.cfi_startproc
 2207              	.LVL222:
 2208 0000 55       		pushq	%rbp
 2209              	.LCFI108:
 2210              		.cfi_def_cfa_offset 16
 2211              		.cfi_offset 6, -16
 2212 0001 53       		pushq	%rbx
 2213              	.LCFI109:
 2214              		.cfi_def_cfa_offset 24
 2215              		.cfi_offset 3, -24
 2216 0002 4883EC08 		subq	$8, %rsp
 2217              	.LCFI110:
 2218              		.cfi_def_cfa_offset 32
 2219 0006 4889FD   		movq	%rdi, %rbp
 2220 0009 89F3     		movl	%esi, %ebx
 489:/home/baikal/workspace/C50/Huawei_IoT_Agent_Tiny_SDK_Linux///lwm2m/examples/shared/commandline.c **** }
 2221              		.loc 1 489 0
 2222 000b 400FB6FE 		movzbl	%sil, %edi
 2223              	.LVL223:
 2224 000f E8000000 		call	prv_status_to_string
 2224      00
 2225              	.LVL224:
 2226 0014 4989C1   		movq	%rax, %r9
 2227 0017 89D9     		movl	%ebx, %ecx
GAS LISTING /tmp/ccEyAHyj.s 			page 65


 2228 0019 C0E905   		shrb	$5, %cl
 2229 001c 0FB6C9   		movzbl	%cl, %ecx
 2230              	.LVL225:
 2231              	.LBB226:
 2232              	.LBB227:
  97:/usr/include/x86_64-linux-gnu/bits/stdio2.h **** 			__va_arg_pack ());
 2233              		.loc 2 97 0
 2234 001f 83E31F   		andl	$31, %ebx
 2235 0022 4189D8   		movl	%ebx, %r8d
 2236 0025 BA000000 		movl	$.LC59, %edx
 2236      00
 2237 002a BE010000 		movl	$1, %esi
 2237      00
 2238 002f 4889EF   		movq	%rbp, %rdi
 2239 0032 B8000000 		movl	$0, %eax
 2239      00
 2240 0037 E8000000 		call	__fprintf_chk
 2240      00
 2241              	.LVL226:
 2242              	.LBE227:
 2243              	.LBE226:
 490:/home/baikal/workspace/C50/Huawei_IoT_Agent_Tiny_SDK_Linux///lwm2m/examples/shared/commandline.c **** 
 2244              		.loc 1 490 0
 2245 003c 4883C408 		addq	$8, %rsp
 2246              	.LCFI111:
 2247              		.cfi_def_cfa_offset 24
 2248 0040 5B       		popq	%rbx
 2249              	.LCFI112:
 2250              		.cfi_def_cfa_offset 16
 2251 0041 5D       		popq	%rbp
 2252              	.LCFI113:
 2253              		.cfi_def_cfa_offset 8
 2254              	.LVL227:
 2255 0042 C3       		ret
 2256              		.cfi_endproc
 2257              	.LFE80:
 2259              		.section	.text.base64_decode,"ax",@progbits
 2260              		.globl	base64_decode
 2262              	base64_decode:
 2263              	.LFB83:
 543:/home/baikal/workspace/C50/Huawei_IoT_Agent_Tiny_SDK_Linux///lwm2m/examples/shared/commandline.c **** 
 544:/home/baikal/workspace/C50/Huawei_IoT_Agent_Tiny_SDK_Linux///lwm2m/examples/shared/commandline.c **** size_t base64_decode(uint8_t *dataP,
 545:/home/baikal/workspace/C50/Huawei_IoT_Agent_Tiny_SDK_Linux///lwm2m/examples/shared/commandline.c ****                      size_t dataLen,
 546:/home/baikal/workspace/C50/Huawei_IoT_Agent_Tiny_SDK_Linux///lwm2m/examples/shared/commandline.c ****                      uint8_t **bufferP)
 547:/home/baikal/workspace/C50/Huawei_IoT_Agent_Tiny_SDK_Linux///lwm2m/examples/shared/commandline.c **** {
 2264              		.loc 1 547 0
 2265              		.cfi_startproc
 2266              	.LVL228:
 2267 0000 4157     		pushq	%r15
 2268              	.LCFI114:
 2269              		.cfi_def_cfa_offset 16
 2270              		.cfi_offset 15, -16
 2271 0002 4156     		pushq	%r14
 2272              	.LCFI115:
 2273              		.cfi_def_cfa_offset 24
 2274              		.cfi_offset 14, -24
 2275 0004 4155     		pushq	%r13
GAS LISTING /tmp/ccEyAHyj.s 			page 66


 2276              	.LCFI116:
 2277              		.cfi_def_cfa_offset 32
 2278              		.cfi_offset 13, -32
 2279 0006 4154     		pushq	%r12
 2280              	.LCFI117:
 2281              		.cfi_def_cfa_offset 40
 2282              		.cfi_offset 12, -40
 2283 0008 55       		pushq	%rbp
 2284              	.LCFI118:
 2285              		.cfi_def_cfa_offset 48
 2286              		.cfi_offset 6, -48
 2287 0009 53       		pushq	%rbx
 2288              	.LCFI119:
 2289              		.cfi_def_cfa_offset 56
 2290              		.cfi_offset 3, -56
 2291 000a 4883EC18 		subq	$24, %rsp
 2292              	.LCFI120:
 2293              		.cfi_def_cfa_offset 80
 548:/home/baikal/workspace/C50/Huawei_IoT_Agent_Tiny_SDK_Linux///lwm2m/examples/shared/commandline.c ****     size_t data_index;
 549:/home/baikal/workspace/C50/Huawei_IoT_Agent_Tiny_SDK_Linux///lwm2m/examples/shared/commandline.c ****     size_t result_index;
 550:/home/baikal/workspace/C50/Huawei_IoT_Agent_Tiny_SDK_Linux///lwm2m/examples/shared/commandline.c ****     size_t result_len;
 551:/home/baikal/workspace/C50/Huawei_IoT_Agent_Tiny_SDK_Linux///lwm2m/examples/shared/commandline.c **** 
 552:/home/baikal/workspace/C50/Huawei_IoT_Agent_Tiny_SDK_Linux///lwm2m/examples/shared/commandline.c ****     if (dataLen % 4) return 0;
 2294              		.loc 1 552 0
 2295 000e 4889F0   		movq	%rsi, %rax
 2296 0011 83E003   		andl	$3, %eax
 2297 0014 48890424 		movq	%rax, (%rsp)
 2298 0018 0F856001 		jne	.L142
 2298      0000
 2299 001e 4989FD   		movq	%rdi, %r13
 2300 0021 4889F5   		movq	%rsi, %rbp
 2301 0024 4989D7   		movq	%rdx, %r15
 553:/home/baikal/workspace/C50/Huawei_IoT_Agent_Tiny_SDK_Linux///lwm2m/examples/shared/commandline.c **** 
 554:/home/baikal/workspace/C50/Huawei_IoT_Agent_Tiny_SDK_Linux///lwm2m/examples/shared/commandline.c ****     result_len = (dataLen >> 2) * 3;
 2302              		.loc 1 554 0
 2303 0027 4889F0   		movq	%rsi, %rax
 2304 002a 48C1E802 		shrq	$2, %rax
 2305 002e 488D0440 		leaq	(%rax,%rax,2), %rax
 2306 0032 4889C3   		movq	%rax, %rbx
 2307 0035 48894424 		movq	%rax, 8(%rsp)
 2307      08
 2308              	.LVL229:
 555:/home/baikal/workspace/C50/Huawei_IoT_Agent_Tiny_SDK_Linux///lwm2m/examples/shared/commandline.c ****     *bufferP = (uint8_t *)lwm2m_malloc(result_len);
 2309              		.loc 1 555 0
 2310 003a 4889C7   		movq	%rax, %rdi
 2311              	.LVL230:
 2312 003d E8000000 		call	lwm2m_malloc
 2312      00
 2313              	.LVL231:
 2314 0042 498907   		movq	%rax, (%r15)
 556:/home/baikal/workspace/C50/Huawei_IoT_Agent_Tiny_SDK_Linux///lwm2m/examples/shared/commandline.c ****     if (NULL == *bufferP) return 0;
 2315              		.loc 1 556 0
 2316 0045 4885C0   		testq	%rax, %rax
 2317 0048 0F844301 		je	.L135
 2317      0000
 2318              	.LVL232:
 2319              	.LBB228:
GAS LISTING /tmp/ccEyAHyj.s 			page 67


 2320              	.LBB229:
 2321              		.loc 3 90 0
 2322 004e 4889DA   		movq	%rbx, %rdx
 2323 0051 BE000000 		movl	$0, %esi
 2323      00
 2324 0056 4889C7   		movq	%rax, %rdi
 2325 0059 E8000000 		call	memset
 2325      00
 2326              	.LVL233:
 2327 005e EB03     		jmp	.L136
 2328              	.L143:
 2329              	.LBE229:
 2330              	.LBE228:
 557:/home/baikal/workspace/C50/Huawei_IoT_Agent_Tiny_SDK_Linux///lwm2m/examples/shared/commandline.c ****     memset(*bufferP, 0, result_len);
 558:/home/baikal/workspace/C50/Huawei_IoT_Agent_Tiny_SDK_Linux///lwm2m/examples/shared/commandline.c **** 
 559:/home/baikal/workspace/C50/Huawei_IoT_Agent_Tiny_SDK_Linux///lwm2m/examples/shared/commandline.c ****     // remove padding
 560:/home/baikal/workspace/C50/Huawei_IoT_Agent_Tiny_SDK_Linux///lwm2m/examples/shared/commandline.c ****     while (dataP[dataLen - 1] == PRV_B64_PADDING)
 561:/home/baikal/workspace/C50/Huawei_IoT_Agent_Tiny_SDK_Linux///lwm2m/examples/shared/commandline.c ****     {
 562:/home/baikal/workspace/C50/Huawei_IoT_Agent_Tiny_SDK_Linux///lwm2m/examples/shared/commandline.c ****         dataLen--;
 2331              		.loc 1 562 0
 2332 0060 4889C5   		movq	%rax, %rbp
 2333              	.LVL234:
 2334              	.L136:
 560:/home/baikal/workspace/C50/Huawei_IoT_Agent_Tiny_SDK_Linux///lwm2m/examples/shared/commandline.c ****     {
 2335              		.loc 1 560 0
 2336 0063 488D45FF 		leaq	-1(%rbp), %rax
 2337 0067 4D8D7405 		leaq	0(%r13,%rax), %r14
 2337      00
 2338 006c 41803E3D 		cmpb	$61, (%r14)
 2339 0070 74EE     		je	.L143
 2340 0072 41BC0000 		movl	$0, %r12d
 2340      0000
 2341 0078 BB000000 		movl	$0, %ebx
 2341      00
 2342              	.LVL235:
 2343 007d EB18     		jmp	.L137
 2344              	.LVL236:
 2345              	.L138:
 563:/home/baikal/workspace/C50/Huawei_IoT_Agent_Tiny_SDK_Linux///lwm2m/examples/shared/commandline.c ****     }
 564:/home/baikal/workspace/C50/Huawei_IoT_Agent_Tiny_SDK_Linux///lwm2m/examples/shared/commandline.c **** 
 565:/home/baikal/workspace/C50/Huawei_IoT_Agent_Tiny_SDK_Linux///lwm2m/examples/shared/commandline.c ****     data_index = 0;
 566:/home/baikal/workspace/C50/Huawei_IoT_Agent_Tiny_SDK_Linux///lwm2m/examples/shared/commandline.c ****     result_index = 0;
 567:/home/baikal/workspace/C50/Huawei_IoT_Agent_Tiny_SDK_Linux///lwm2m/examples/shared/commandline.c ****     while (data_index < dataLen)
 568:/home/baikal/workspace/C50/Huawei_IoT_Agent_Tiny_SDK_Linux///lwm2m/examples/shared/commandline.c ****     {
 569:/home/baikal/workspace/C50/Huawei_IoT_Agent_Tiny_SDK_Linux///lwm2m/examples/shared/commandline.c ****         prv_decodeBlock(dataP + data_index, *bufferP + result_index);
 2346              		.loc 1 569 0
 2347 007f 4C89E6   		movq	%r12, %rsi
 2348 0082 490337   		addq	(%r15), %rsi
 2349 0085 498D7C1D 		leaq	0(%r13,%rbx), %rdi
 2349      00
 2350 008a E8000000 		call	prv_decodeBlock
 2350      00
 2351              	.LVL237:
 570:/home/baikal/workspace/C50/Huawei_IoT_Agent_Tiny_SDK_Linux///lwm2m/examples/shared/commandline.c ****         data_index += 4;
 2352              		.loc 1 570 0
 2353 008f 4883C304 		addq	$4, %rbx
 2354              	.LVL238:
GAS LISTING /tmp/ccEyAHyj.s 			page 68


 571:/home/baikal/workspace/C50/Huawei_IoT_Agent_Tiny_SDK_Linux///lwm2m/examples/shared/commandline.c ****         result_index += 3;
 2355              		.loc 1 571 0
 2356 0093 4983C403 		addq	$3, %r12
 2357              	.LVL239:
 2358              	.L137:
 567:/home/baikal/workspace/C50/Huawei_IoT_Agent_Tiny_SDK_Linux///lwm2m/examples/shared/commandline.c ****     {
 2359              		.loc 1 567 0
 2360 0097 4839DD   		cmpq	%rbx, %rbp
 2361 009a 77E3     		ja	.L138
 572:/home/baikal/workspace/C50/Huawei_IoT_Agent_Tiny_SDK_Linux///lwm2m/examples/shared/commandline.c ****     }
 573:/home/baikal/workspace/C50/Huawei_IoT_Agent_Tiny_SDK_Linux///lwm2m/examples/shared/commandline.c ****     switch (data_index - dataLen)
 2362              		.loc 1 573 0
 2363 009c 4829EB   		subq	%rbp, %rbx
 2364              	.LVL240:
 2365 009f 4883FB02 		cmpq	$2, %rbx
 2366 00a3 7414     		je	.L140
 2367 00a5 4883FB03 		cmpq	$3, %rbx
 2368 00a9 7458     		je	.L141
 2369 00ab 4885DB   		testq	%rbx, %rbx
 2370 00ae 0F85B900 		jne	.L145
 2370      0000
 2371 00b4 E9CF0000 		jmp	.L144
 2371      00
 2372              	.L140:
 2373              	.LBB230:
 574:/home/baikal/workspace/C50/Huawei_IoT_Agent_Tiny_SDK_Linux///lwm2m/examples/shared/commandline.c ****     {
 575:/home/baikal/workspace/C50/Huawei_IoT_Agent_Tiny_SDK_Linux///lwm2m/examples/shared/commandline.c ****     case 0:
 576:/home/baikal/workspace/C50/Huawei_IoT_Agent_Tiny_SDK_Linux///lwm2m/examples/shared/commandline.c ****         break;
 577:/home/baikal/workspace/C50/Huawei_IoT_Agent_Tiny_SDK_Linux///lwm2m/examples/shared/commandline.c ****     case 2:
 578:/home/baikal/workspace/C50/Huawei_IoT_Agent_Tiny_SDK_Linux///lwm2m/examples/shared/commandline.c ****     {
 579:/home/baikal/workspace/C50/Huawei_IoT_Agent_Tiny_SDK_Linux///lwm2m/examples/shared/commandline.c ****         uint8_t tmp[2];
 580:/home/baikal/workspace/C50/Huawei_IoT_Agent_Tiny_SDK_Linux///lwm2m/examples/shared/commandline.c **** 
 581:/home/baikal/workspace/C50/Huawei_IoT_Agent_Tiny_SDK_Linux///lwm2m/examples/shared/commandline.c ****         tmp[0] = prv_b64Revert(dataP[dataLen - 2]);
 2374              		.loc 1 581 0
 2375 00b9 410FB67C 		movzbl	-2(%r13,%rbp), %edi
 2375      2DFE
 2376 00bf E8000000 		call	prv_b64Revert
 2376      00
 2377              	.LVL241:
 2378 00c4 89C3     		movl	%eax, %ebx
 582:/home/baikal/workspace/C50/Huawei_IoT_Agent_Tiny_SDK_Linux///lwm2m/examples/shared/commandline.c ****         tmp[1] = prv_b64Revert(dataP[dataLen - 1]);
 2379              		.loc 1 582 0
 2380 00c6 410FB63E 		movzbl	(%r14), %edi
 2381 00ca E8000000 		call	prv_b64Revert
 2381      00
 2382              	.LVL242:
 583:/home/baikal/workspace/C50/Huawei_IoT_Agent_Tiny_SDK_Linux///lwm2m/examples/shared/commandline.c **** 
 584:/home/baikal/workspace/C50/Huawei_IoT_Agent_Tiny_SDK_Linux///lwm2m/examples/shared/commandline.c ****         *bufferP[result_index - 3] = (tmp[0] << 2) | (tmp[1] >> 4);
 2383              		.loc 1 584 0
 2384 00cf 49C1E403 		salq	$3, %r12
 2385              	.LVL243:
 2386 00d3 4B8B5427 		movq	-24(%r15,%r12), %rdx
 2386      E8
 2387 00d8 0FB6DB   		movzbl	%bl, %ebx
 2388 00db C1E302   		sall	$2, %ebx
 2389 00de 89C1     		movl	%eax, %ecx
 2390 00e0 C0E904   		shrb	$4, %cl
GAS LISTING /tmp/ccEyAHyj.s 			page 69


 2391 00e3 09CB     		orl	%ecx, %ebx
 2392 00e5 881A     		movb	%bl, (%rdx)
 585:/home/baikal/workspace/C50/Huawei_IoT_Agent_Tiny_SDK_Linux///lwm2m/examples/shared/commandline.c ****         *bufferP[result_index - 2] = (tmp[1] << 4);
 2393              		.loc 1 585 0
 2394 00e7 4B8B5427 		movq	-16(%r15,%r12), %rdx
 2394      F0
 2395 00ec C1E004   		sall	$4, %eax
 2396 00ef 8802     		movb	%al, (%rdx)
 2397              	.LVL244:
 586:/home/baikal/workspace/C50/Huawei_IoT_Agent_Tiny_SDK_Linux///lwm2m/examples/shared/commandline.c ****         result_len -= 2;
 2398              		.loc 1 586 0
 2399 00f1 488B4424 		movq	8(%rsp), %rax
 2399      08
 2400 00f6 4883E802 		subq	$2, %rax
 2401              	.LVL245:
 2402 00fa 48890424 		movq	%rax, (%rsp)
 2403              	.LBE230:
 587:/home/baikal/workspace/C50/Huawei_IoT_Agent_Tiny_SDK_Linux///lwm2m/examples/shared/commandline.c ****     }
 588:/home/baikal/workspace/C50/Huawei_IoT_Agent_Tiny_SDK_Linux///lwm2m/examples/shared/commandline.c ****     break;
 2404              		.loc 1 588 0
 2405 00fe E98E0000 		jmp	.L135
 2405      00
 2406              	.LVL246:
 2407              	.L141:
 2408              	.LBB231:
 589:/home/baikal/workspace/C50/Huawei_IoT_Agent_Tiny_SDK_Linux///lwm2m/examples/shared/commandline.c ****     case 3:
 590:/home/baikal/workspace/C50/Huawei_IoT_Agent_Tiny_SDK_Linux///lwm2m/examples/shared/commandline.c ****     {
 591:/home/baikal/workspace/C50/Huawei_IoT_Agent_Tiny_SDK_Linux///lwm2m/examples/shared/commandline.c ****         uint8_t tmp[3];
 592:/home/baikal/workspace/C50/Huawei_IoT_Agent_Tiny_SDK_Linux///lwm2m/examples/shared/commandline.c **** 
 593:/home/baikal/workspace/C50/Huawei_IoT_Agent_Tiny_SDK_Linux///lwm2m/examples/shared/commandline.c ****         tmp[0] = prv_b64Revert(dataP[dataLen - 3]);
 2409              		.loc 1 593 0
 2410 0103 410FB67C 		movzbl	-3(%r13,%rbp), %edi
 2410      2DFD
 2411 0109 E8000000 		call	prv_b64Revert
 2411      00
 2412              	.LVL247:
 2413 010e 89C3     		movl	%eax, %ebx
 594:/home/baikal/workspace/C50/Huawei_IoT_Agent_Tiny_SDK_Linux///lwm2m/examples/shared/commandline.c ****         tmp[1] = prv_b64Revert(dataP[dataLen - 2]);
 2414              		.loc 1 594 0
 2415 0110 410FB67C 		movzbl	-2(%r13,%rbp), %edi
 2415      2DFE
 2416 0116 E8000000 		call	prv_b64Revert
 2416      00
 2417              	.LVL248:
 2418 011b 89C5     		movl	%eax, %ebp
 2419              	.LVL249:
 595:/home/baikal/workspace/C50/Huawei_IoT_Agent_Tiny_SDK_Linux///lwm2m/examples/shared/commandline.c ****         tmp[2] = prv_b64Revert(dataP[dataLen - 1]);
 2420              		.loc 1 595 0
 2421 011d 410FB63E 		movzbl	(%r14), %edi
 2422 0121 E8000000 		call	prv_b64Revert
 2422      00
 2423              	.LVL250:
 596:/home/baikal/workspace/C50/Huawei_IoT_Agent_Tiny_SDK_Linux///lwm2m/examples/shared/commandline.c **** 
 597:/home/baikal/workspace/C50/Huawei_IoT_Agent_Tiny_SDK_Linux///lwm2m/examples/shared/commandline.c ****         *bufferP[result_index - 3] = (tmp[0] << 2) | (tmp[1] >> 4);
 2424              		.loc 1 597 0
 2425 0126 49C1E403 		salq	$3, %r12
 2426              	.LVL251:
GAS LISTING /tmp/ccEyAHyj.s 			page 70


 2427 012a 4B8B5427 		movq	-24(%r15,%r12), %rdx
 2427      E8
 2428 012f 0FB6DB   		movzbl	%bl, %ebx
 2429 0132 C1E302   		sall	$2, %ebx
 2430 0135 89E9     		movl	%ebp, %ecx
 2431 0137 C0E904   		shrb	$4, %cl
 2432 013a 09CB     		orl	%ecx, %ebx
 2433 013c 881A     		movb	%bl, (%rdx)
 598:/home/baikal/workspace/C50/Huawei_IoT_Agent_Tiny_SDK_Linux///lwm2m/examples/shared/commandline.c ****         *bufferP[result_index - 2] = (tmp[1] << 4) | (tmp[2] >> 2);
 2434              		.loc 1 598 0
 2435 013e 4B8B5427 		movq	-16(%r15,%r12), %rdx
 2435      F0
 2436 0143 400FB6ED 		movzbl	%bpl, %ebp
 2437 0147 C1E504   		sall	$4, %ebp
 2438 014a 89C1     		movl	%eax, %ecx
 2439 014c C0E902   		shrb	$2, %cl
 2440 014f 09CD     		orl	%ecx, %ebp
 2441 0151 40882A   		movb	%bpl, (%rdx)
 599:/home/baikal/workspace/C50/Huawei_IoT_Agent_Tiny_SDK_Linux///lwm2m/examples/shared/commandline.c ****         *bufferP[result_index - 1] = (tmp[2] << 6);
 2442              		.loc 1 599 0
 2443 0154 4B8B5427 		movq	-8(%r15,%r12), %rdx
 2443      F8
 2444 0159 C1E006   		sall	$6, %eax
 2445 015c 8802     		movb	%al, (%rdx)
 2446              	.LVL252:
 600:/home/baikal/workspace/C50/Huawei_IoT_Agent_Tiny_SDK_Linux///lwm2m/examples/shared/commandline.c ****         result_len -= 1;
 2447              		.loc 1 600 0
 2448 015e 488B4424 		movq	8(%rsp), %rax
 2448      08
 2449 0163 4883E801 		subq	$1, %rax
 2450              	.LVL253:
 2451 0167 48890424 		movq	%rax, (%rsp)
 2452              	.LBE231:
 601:/home/baikal/workspace/C50/Huawei_IoT_Agent_Tiny_SDK_Linux///lwm2m/examples/shared/commandline.c ****     }
 602:/home/baikal/workspace/C50/Huawei_IoT_Agent_Tiny_SDK_Linux///lwm2m/examples/shared/commandline.c ****     break;
 2453              		.loc 1 602 0
 2454 016b EB24     		jmp	.L135
 2455              	.LVL254:
 2456              	.L145:
 603:/home/baikal/workspace/C50/Huawei_IoT_Agent_Tiny_SDK_Linux///lwm2m/examples/shared/commandline.c ****     default:
 604:/home/baikal/workspace/C50/Huawei_IoT_Agent_Tiny_SDK_Linux///lwm2m/examples/shared/commandline.c ****         // error
 605:/home/baikal/workspace/C50/Huawei_IoT_Agent_Tiny_SDK_Linux///lwm2m/examples/shared/commandline.c ****         lwm2m_free(*bufferP);
 2457              		.loc 1 605 0
 2458 016d 498B3F   		movq	(%r15), %rdi
 2459 0170 E8000000 		call	lwm2m_free
 2459      00
 2460              	.LVL255:
 606:/home/baikal/workspace/C50/Huawei_IoT_Agent_Tiny_SDK_Linux///lwm2m/examples/shared/commandline.c ****         *bufferP = NULL;
 2461              		.loc 1 606 0
 2462 0175 49C70700 		movq	$0, (%r15)
 2462      000000
 2463              	.LVL256:
 607:/home/baikal/workspace/C50/Huawei_IoT_Agent_Tiny_SDK_Linux///lwm2m/examples/shared/commandline.c ****         result_len = 0;
 608:/home/baikal/workspace/C50/Huawei_IoT_Agent_Tiny_SDK_Linux///lwm2m/examples/shared/commandline.c ****         break;
 2464              		.loc 1 608 0
 2465 017c EB13     		jmp	.L135
 2466              	.LVL257:
GAS LISTING /tmp/ccEyAHyj.s 			page 71


 2467              	.L142:
 552:/home/baikal/workspace/C50/Huawei_IoT_Agent_Tiny_SDK_Linux///lwm2m/examples/shared/commandline.c **** 
 2468              		.loc 1 552 0
 2469 017e 48C70424 		movq	$0, (%rsp)
 2469      00000000 
 2470 0186 EB09     		jmp	.L135
 2471              	.LVL258:
 2472              	.L144:
 554:/home/baikal/workspace/C50/Huawei_IoT_Agent_Tiny_SDK_Linux///lwm2m/examples/shared/commandline.c ****     *bufferP = (uint8_t *)lwm2m_malloc(result_len);
 2473              		.loc 1 554 0
 2474 0188 488B4424 		movq	8(%rsp), %rax
 2474      08
 2475 018d 48890424 		movq	%rax, (%rsp)
 2476              	.LVL259:
 2477              	.L135:
 609:/home/baikal/workspace/C50/Huawei_IoT_Agent_Tiny_SDK_Linux///lwm2m/examples/shared/commandline.c ****     }
 610:/home/baikal/workspace/C50/Huawei_IoT_Agent_Tiny_SDK_Linux///lwm2m/examples/shared/commandline.c **** 
 611:/home/baikal/workspace/C50/Huawei_IoT_Agent_Tiny_SDK_Linux///lwm2m/examples/shared/commandline.c ****     return result_len;
 612:/home/baikal/workspace/C50/Huawei_IoT_Agent_Tiny_SDK_Linux///lwm2m/examples/shared/commandline.c **** }
 2478              		.loc 1 612 0
 2479 0191 488B0424 		movq	(%rsp), %rax
 2480 0195 4883C418 		addq	$24, %rsp
 2481              	.LCFI121:
 2482              		.cfi_def_cfa_offset 56
 2483 0199 5B       		popq	%rbx
 2484              	.LCFI122:
 2485              		.cfi_def_cfa_offset 48
 2486 019a 5D       		popq	%rbp
 2487              	.LCFI123:
 2488              		.cfi_def_cfa_offset 40
 2489 019b 415C     		popq	%r12
 2490              	.LCFI124:
 2491              		.cfi_def_cfa_offset 32
 2492 019d 415D     		popq	%r13
 2493              	.LCFI125:
 2494              		.cfi_def_cfa_offset 24
 2495 019f 415E     		popq	%r14
 2496              	.LCFI126:
 2497              		.cfi_def_cfa_offset 16
 2498 01a1 415F     		popq	%r15
 2499              	.LCFI127:
 2500              		.cfi_def_cfa_offset 8
 2501 01a3 C3       		ret
 2502              		.cfi_endproc
 2503              	.LFE83:
 2505              		.text
 2506              	.Letext0:
 2507              		.file 4 "/usr/lib/gcc/x86_64-linux-gnu/5/include/stddef.h"
 2508              		.file 5 "/usr/include/x86_64-linux-gnu/bits/types.h"
 2509              		.file 6 "/usr/include/x86_64-linux-gnu/sys/types.h"
 2510              		.file 7 "/usr/include/stdio.h"
 2511              		.file 8 "/usr/include/libio.h"
 2512              		.file 9 "/usr/include/stdint.h"
 2513              		.file 10 "/usr/include/ctype.h"
 2514              		.file 11 "/home/baikal/workspace/C50/Huawei_IoT_Agent_Tiny_SDK_Linux//lwm2m/core/liblwm2m.h"
 2515              		.file 12 "/home/baikal/workspace/C50/Huawei_IoT_Agent_Tiny_SDK_Linux///lwm2m/examples/shared/comma
 2516              		.file 13 "/usr/include/string.h"
GAS LISTING /tmp/ccEyAHyj.s 			page 72


 2517              		.file 14 "<built-in>"
GAS LISTING /tmp/ccEyAHyj.s 			page 73

