GAS LISTING /tmp/ccryHWIO.s 			page 1


   1              		.file	"connection.c"
   2              		.text
   3              	.Ltext0:
   4              		.section	.rodata.str1.1,"aMS",@progbits,1
   5              	.LC0:
   6 0000 35363834 		.string	"5684"
   6      00
   7              	.LC1:
   8 0005 35363833 		.string	"5683"
   8      00
   9              		.section	.rodata.str1.8,"aMS",@progbits,1
  10              		.align 8
  11              	.LC2:
  12 0000 5B25735D 		.string	"[%s][%u][%s:%d] now come into connection_create!!!\r\n"
  12      5B25755D 
  12      5B25733A 
  12      25645D20 
  12      6E6F7720 
  13 0035 000000   		.align 8
  14              	.LC3:
  15 0038 5B25735D 		.string	"[%s][%u][%s:%d] uri is NULL!!!\r\n"
  15      5B25755D 
  15      5B25733A 
  15      25645D20 
  15      75726920 
  16              		.section	.rodata.str1.1
  17              	.LC4:
  18 000a 5B25735D 		.string	"[%s][%u][%s:%d] uri is %s\n\r\n"
  18      5B25755D 
  18      5B25733A 
  18      25645D20 
  18      75726920 
  19              	.LC5:
  20 0027 636F6170 		.string	"coaps://"
  20      733A2F2F 
  20      00
  21              	.LC6:
  22 0030 636F6170 		.string	"coap://"
  22      3A2F2F00 
  23              		.section	.rodata.str1.8
  24 0059 00000000 		.align 8
  24      000000
  25              	.LC7:
  26 0060 5B25735D 		.string	"[%s][%u][%s:%d] come here1!!!\r\n"
  26      5B25755D 
  26      5B25733A 
  26      25645D20 
  26      636F6D65 
  27              		.align 8
  28              	.LC8:
  29 0080 5B25735D 		.string	"[%s][%u][%s:%d] come here2!!!\r\n"
  29      5B25755D 
  29      5B25733A 
  29      25645D20 
  29      636F6D65 
  30              		.align 8
  31              	.LC9:
GAS LISTING /tmp/ccryHWIO.s 			page 2


  32 00a0 5B25735D 		.string	"[%s][%u][%s:%d] connP is NULL!!!\r\n"
  32      5B25755D 
  32      5B25733A 
  32      25645D20 
  32      636F6E6E 
  33 00c3 00000000 		.align 8
  33      00
  34              	.LC10:
  35 00c8 5B25735D 		.string	"[%s][%u][%s:%d] connP->ssl is NULL in connection_create\r\n"
  35      5B25755D 
  35      5B25733A 
  35      25645D20 
  35      636F6E6E 
  36              		.section	.text.connection_create,"ax",@progbits
  37              		.globl	connection_create
  39              	connection_create:
  40              	.LFB72:
  41              		.file 1 "/home/baikal/workspace/C50/Huawei_IoT_Agent_Tiny_SDK_Linux//agent_tiny/lwm2m_client/conne
   1:/home/baikal/workspace/C50/Huawei_IoT_Agent_Tiny_SDK_Linux//agent_tiny/lwm2m_client/connection.c **** /*----------------------------------------------------------------------------
   2:/home/baikal/workspace/C50/Huawei_IoT_Agent_Tiny_SDK_Linux//agent_tiny/lwm2m_client/connection.c ****  * Copyright (c) <2016-2018>, <Huawei Technologies Co., Ltd>
   3:/home/baikal/workspace/C50/Huawei_IoT_Agent_Tiny_SDK_Linux//agent_tiny/lwm2m_client/connection.c ****  * All rights reserved.
   4:/home/baikal/workspace/C50/Huawei_IoT_Agent_Tiny_SDK_Linux//agent_tiny/lwm2m_client/connection.c ****  * Redistribution and use in source and binary forms, with or without modification,
   5:/home/baikal/workspace/C50/Huawei_IoT_Agent_Tiny_SDK_Linux//agent_tiny/lwm2m_client/connection.c ****  * are permitted provided that the following conditions are met:
   6:/home/baikal/workspace/C50/Huawei_IoT_Agent_Tiny_SDK_Linux//agent_tiny/lwm2m_client/connection.c ****  * 1. Redistributions of source code must retain the above copyright notice, this list of
   7:/home/baikal/workspace/C50/Huawei_IoT_Agent_Tiny_SDK_Linux//agent_tiny/lwm2m_client/connection.c ****  * conditions and the following disclaimer.
   8:/home/baikal/workspace/C50/Huawei_IoT_Agent_Tiny_SDK_Linux//agent_tiny/lwm2m_client/connection.c ****  * 2. Redistributions in binary form must reproduce the above copyright notice, this list
   9:/home/baikal/workspace/C50/Huawei_IoT_Agent_Tiny_SDK_Linux//agent_tiny/lwm2m_client/connection.c ****  * of conditions and the following disclaimer in the documentation and/or other materials
  10:/home/baikal/workspace/C50/Huawei_IoT_Agent_Tiny_SDK_Linux//agent_tiny/lwm2m_client/connection.c ****  * provided with the distribution.
  11:/home/baikal/workspace/C50/Huawei_IoT_Agent_Tiny_SDK_Linux//agent_tiny/lwm2m_client/connection.c ****  * 3. Neither the name of the copyright holder nor the names of its contributors may be used
  12:/home/baikal/workspace/C50/Huawei_IoT_Agent_Tiny_SDK_Linux//agent_tiny/lwm2m_client/connection.c ****  * to endorse or promote products derived from this software without specific prior written
  13:/home/baikal/workspace/C50/Huawei_IoT_Agent_Tiny_SDK_Linux//agent_tiny/lwm2m_client/connection.c ****  * permission.
  14:/home/baikal/workspace/C50/Huawei_IoT_Agent_Tiny_SDK_Linux//agent_tiny/lwm2m_client/connection.c ****  * THIS SOFTWARE IS PROVIDED BY THE COPYRIGHT HOLDERS AND CONTRIBUTORS
  15:/home/baikal/workspace/C50/Huawei_IoT_Agent_Tiny_SDK_Linux//agent_tiny/lwm2m_client/connection.c ****  * "AS IS" AND ANY EXPRESS OR IMPLIED WARRANTIES, INCLUDING, BUT NOT LIMITED TO,
  16:/home/baikal/workspace/C50/Huawei_IoT_Agent_Tiny_SDK_Linux//agent_tiny/lwm2m_client/connection.c ****  * THE IMPLIED WARRANTIES OF MERCHANTABILITY AND FITNESS FOR A PARTICULAR
  17:/home/baikal/workspace/C50/Huawei_IoT_Agent_Tiny_SDK_Linux//agent_tiny/lwm2m_client/connection.c ****  * PURPOSE ARE DISCLAIMED. IN NO EVENT SHALL THE COPYRIGHT HOLDER OR
  18:/home/baikal/workspace/C50/Huawei_IoT_Agent_Tiny_SDK_Linux//agent_tiny/lwm2m_client/connection.c ****  * CONTRIBUTORS BE LIABLE FOR ANY DIRECT, INDIRECT, INCIDENTAL, SPECIAL,
  19:/home/baikal/workspace/C50/Huawei_IoT_Agent_Tiny_SDK_Linux//agent_tiny/lwm2m_client/connection.c ****  * EXEMPLARY, OR CONSEQUENTIAL DAMAGES (INCLUDING, BUT NOT LIMITED TO,
  20:/home/baikal/workspace/C50/Huawei_IoT_Agent_Tiny_SDK_Linux//agent_tiny/lwm2m_client/connection.c ****  * PROCUREMENT OF SUBSTITUTE GOODS OR SERVICES; LOSS OF USE, DATA, OR PROFITS;
  21:/home/baikal/workspace/C50/Huawei_IoT_Agent_Tiny_SDK_Linux//agent_tiny/lwm2m_client/connection.c ****  * OR BUSINESS INTERRUPTION) HOWEVER CAUSED AND ON ANY THEORY OF LIABILITY,
  22:/home/baikal/workspace/C50/Huawei_IoT_Agent_Tiny_SDK_Linux//agent_tiny/lwm2m_client/connection.c ****  * WHETHER IN CONTRACT, STRICT LIABILITY, OR TORT (INCLUDING NEGLIGENCE OR
  23:/home/baikal/workspace/C50/Huawei_IoT_Agent_Tiny_SDK_Linux//agent_tiny/lwm2m_client/connection.c ****  * OTHERWISE) ARISING IN ANY WAY OUT OF THE USE OF THIS SOFTWARE, EVEN IF
  24:/home/baikal/workspace/C50/Huawei_IoT_Agent_Tiny_SDK_Linux//agent_tiny/lwm2m_client/connection.c ****  * ADVISED OF THE POSSIBILITY OF SUCH DAMAGE.
  25:/home/baikal/workspace/C50/Huawei_IoT_Agent_Tiny_SDK_Linux//agent_tiny/lwm2m_client/connection.c ****  *---------------------------------------------------------------------------*/
  26:/home/baikal/workspace/C50/Huawei_IoT_Agent_Tiny_SDK_Linux//agent_tiny/lwm2m_client/connection.c **** /*----------------------------------------------------------------------------
  27:/home/baikal/workspace/C50/Huawei_IoT_Agent_Tiny_SDK_Linux//agent_tiny/lwm2m_client/connection.c ****  * Notice of Export Control Law
  28:/home/baikal/workspace/C50/Huawei_IoT_Agent_Tiny_SDK_Linux//agent_tiny/lwm2m_client/connection.c ****  * ===============================================
  29:/home/baikal/workspace/C50/Huawei_IoT_Agent_Tiny_SDK_Linux//agent_tiny/lwm2m_client/connection.c ****  * Huawei LiteOS may be subject to applicable export control laws and regulations, which might
  30:/home/baikal/workspace/C50/Huawei_IoT_Agent_Tiny_SDK_Linux//agent_tiny/lwm2m_client/connection.c ****  * include those applicable to Huawei LiteOS of U.S. and the country in which you are located.
  31:/home/baikal/workspace/C50/Huawei_IoT_Agent_Tiny_SDK_Linux//agent_tiny/lwm2m_client/connection.c ****  * Import, export and usage of Huawei LiteOS in any manner by you shall be in compliance with such
  32:/home/baikal/workspace/C50/Huawei_IoT_Agent_Tiny_SDK_Linux//agent_tiny/lwm2m_client/connection.c ****  * applicable export control laws and regulations.
  33:/home/baikal/workspace/C50/Huawei_IoT_Agent_Tiny_SDK_Linux//agent_tiny/lwm2m_client/connection.c ****  *---------------------------------------------------------------------------*/
  34:/home/baikal/workspace/C50/Huawei_IoT_Agent_Tiny_SDK_Linux//agent_tiny/lwm2m_client/connection.c **** 
  35:/home/baikal/workspace/C50/Huawei_IoT_Agent_Tiny_SDK_Linux//agent_tiny/lwm2m_client/connection.c **** /*******************************************************************************
  36:/home/baikal/workspace/C50/Huawei_IoT_Agent_Tiny_SDK_Linux//agent_tiny/lwm2m_client/connection.c ****  *
  37:/home/baikal/workspace/C50/Huawei_IoT_Agent_Tiny_SDK_Linux//agent_tiny/lwm2m_client/connection.c ****  * Copyright (c) 2015 Intel Corporation and others.
  38:/home/baikal/workspace/C50/Huawei_IoT_Agent_Tiny_SDK_Linux//agent_tiny/lwm2m_client/connection.c ****  * All rights reserved. This program and the accompanying materials
  39:/home/baikal/workspace/C50/Huawei_IoT_Agent_Tiny_SDK_Linux//agent_tiny/lwm2m_client/connection.c ****  * are made available under the terms of the Eclipse Public License v1.0
GAS LISTING /tmp/ccryHWIO.s 			page 3


  40:/home/baikal/workspace/C50/Huawei_IoT_Agent_Tiny_SDK_Linux//agent_tiny/lwm2m_client/connection.c ****  * and Eclipse Distribution License v1.0 which accompany this distribution.
  41:/home/baikal/workspace/C50/Huawei_IoT_Agent_Tiny_SDK_Linux//agent_tiny/lwm2m_client/connection.c ****  *
  42:/home/baikal/workspace/C50/Huawei_IoT_Agent_Tiny_SDK_Linux//agent_tiny/lwm2m_client/connection.c ****  * The Eclipse Public License is available at
  43:/home/baikal/workspace/C50/Huawei_IoT_Agent_Tiny_SDK_Linux//agent_tiny/lwm2m_client/connection.c ****  *    http://www.eclipse.org/legal/epl-v10.html
  44:/home/baikal/workspace/C50/Huawei_IoT_Agent_Tiny_SDK_Linux//agent_tiny/lwm2m_client/connection.c ****  * The Eclipse Distribution License is available at
  45:/home/baikal/workspace/C50/Huawei_IoT_Agent_Tiny_SDK_Linux//agent_tiny/lwm2m_client/connection.c ****  *    http://www.eclipse.org/org/documents/edl-v10.php.
  46:/home/baikal/workspace/C50/Huawei_IoT_Agent_Tiny_SDK_Linux//agent_tiny/lwm2m_client/connection.c ****  *
  47:/home/baikal/workspace/C50/Huawei_IoT_Agent_Tiny_SDK_Linux//agent_tiny/lwm2m_client/connection.c ****  * Contributors:
  48:/home/baikal/workspace/C50/Huawei_IoT_Agent_Tiny_SDK_Linux//agent_tiny/lwm2m_client/connection.c ****  *    David Navarro, Intel Corporation - initial API and implementation
  49:/home/baikal/workspace/C50/Huawei_IoT_Agent_Tiny_SDK_Linux//agent_tiny/lwm2m_client/connection.c ****  *    Christian Renz - Please refer to git log
  50:/home/baikal/workspace/C50/Huawei_IoT_Agent_Tiny_SDK_Linux//agent_tiny/lwm2m_client/connection.c ****  *
  51:/home/baikal/workspace/C50/Huawei_IoT_Agent_Tiny_SDK_Linux//agent_tiny/lwm2m_client/connection.c ****  *******************************************************************************/
  52:/home/baikal/workspace/C50/Huawei_IoT_Agent_Tiny_SDK_Linux//agent_tiny/lwm2m_client/connection.c **** #include <ctype.h>
  53:/home/baikal/workspace/C50/Huawei_IoT_Agent_Tiny_SDK_Linux//agent_tiny/lwm2m_client/connection.c **** #include "connection.h"
  54:/home/baikal/workspace/C50/Huawei_IoT_Agent_Tiny_SDK_Linux//agent_tiny/lwm2m_client/connection.c **** #if defined (WITH_DTLS)
  55:/home/baikal/workspace/C50/Huawei_IoT_Agent_Tiny_SDK_Linux//agent_tiny/lwm2m_client/connection.c **** #include "dtls_interface.h"
  56:/home/baikal/workspace/C50/Huawei_IoT_Agent_Tiny_SDK_Linux//agent_tiny/lwm2m_client/connection.c **** #endif
  57:/home/baikal/workspace/C50/Huawei_IoT_Agent_Tiny_SDK_Linux//agent_tiny/lwm2m_client/connection.c **** #include "atiny_socket.h"
  58:/home/baikal/workspace/C50/Huawei_IoT_Agent_Tiny_SDK_Linux//agent_tiny/lwm2m_client/connection.c **** #include "atiny_log.h"
  59:/home/baikal/workspace/C50/Huawei_IoT_Agent_Tiny_SDK_Linux//agent_tiny/lwm2m_client/connection.c **** #include "object_comm.h"
  60:/home/baikal/workspace/C50/Huawei_IoT_Agent_Tiny_SDK_Linux//agent_tiny/lwm2m_client/connection.c **** 
  61:/home/baikal/workspace/C50/Huawei_IoT_Agent_Tiny_SDK_Linux//agent_tiny/lwm2m_client/connection.c **** #define COAP_PORT "5683"
  62:/home/baikal/workspace/C50/Huawei_IoT_Agent_Tiny_SDK_Linux//agent_tiny/lwm2m_client/connection.c **** #define COAPS_PORT "5684"
  63:/home/baikal/workspace/C50/Huawei_IoT_Agent_Tiny_SDK_Linux//agent_tiny/lwm2m_client/connection.c **** 
  64:/home/baikal/workspace/C50/Huawei_IoT_Agent_Tiny_SDK_Linux//agent_tiny/lwm2m_client/connection.c **** static lwm2m_connection_err_notify_t g_connection_err_notify = NULL;
  65:/home/baikal/workspace/C50/Huawei_IoT_Agent_Tiny_SDK_Linux//agent_tiny/lwm2m_client/connection.c **** 
  66:/home/baikal/workspace/C50/Huawei_IoT_Agent_Tiny_SDK_Linux//agent_tiny/lwm2m_client/connection.c **** static inline void inc_connection_stat(connection_t *connection, connection_err_e type)
  67:/home/baikal/workspace/C50/Huawei_IoT_Agent_Tiny_SDK_Linux//agent_tiny/lwm2m_client/connection.c **** {
  68:/home/baikal/workspace/C50/Huawei_IoT_Agent_Tiny_SDK_Linux//agent_tiny/lwm2m_client/connection.c ****     static const uint16_t max_num[CONNECTION_ERR_MAX] = {MAX_SEND_ERR_NUM,
  69:/home/baikal/workspace/C50/Huawei_IoT_Agent_Tiny_SDK_Linux//agent_tiny/lwm2m_client/connection.c ****                                                          MAX_RECV_ERR_NUM
  70:/home/baikal/workspace/C50/Huawei_IoT_Agent_Tiny_SDK_Linux//agent_tiny/lwm2m_client/connection.c ****                                                         };
  71:/home/baikal/workspace/C50/Huawei_IoT_Agent_Tiny_SDK_Linux//agent_tiny/lwm2m_client/connection.c **** 
  72:/home/baikal/workspace/C50/Huawei_IoT_Agent_Tiny_SDK_Linux//agent_tiny/lwm2m_client/connection.c ****     connection->errs[type]++;
  73:/home/baikal/workspace/C50/Huawei_IoT_Agent_Tiny_SDK_Linux//agent_tiny/lwm2m_client/connection.c ****     if(connection->errs[type] >= max_num[type])
  74:/home/baikal/workspace/C50/Huawei_IoT_Agent_Tiny_SDK_Linux//agent_tiny/lwm2m_client/connection.c ****     {
  75:/home/baikal/workspace/C50/Huawei_IoT_Agent_Tiny_SDK_Linux//agent_tiny/lwm2m_client/connection.c ****         connection->errs[type] = 0;
  76:/home/baikal/workspace/C50/Huawei_IoT_Agent_Tiny_SDK_Linux//agent_tiny/lwm2m_client/connection.c ****         if(g_connection_err_notify)
  77:/home/baikal/workspace/C50/Huawei_IoT_Agent_Tiny_SDK_Linux//agent_tiny/lwm2m_client/connection.c ****         {
  78:/home/baikal/workspace/C50/Huawei_IoT_Agent_Tiny_SDK_Linux//agent_tiny/lwm2m_client/connection.c ****             g_connection_err_notify(connection->lwm2mH, type, connection->bootstrap_flag);
  79:/home/baikal/workspace/C50/Huawei_IoT_Agent_Tiny_SDK_Linux//agent_tiny/lwm2m_client/connection.c ****         }
  80:/home/baikal/workspace/C50/Huawei_IoT_Agent_Tiny_SDK_Linux//agent_tiny/lwm2m_client/connection.c ****     }
  81:/home/baikal/workspace/C50/Huawei_IoT_Agent_Tiny_SDK_Linux//agent_tiny/lwm2m_client/connection.c **** }
  82:/home/baikal/workspace/C50/Huawei_IoT_Agent_Tiny_SDK_Linux//agent_tiny/lwm2m_client/connection.c **** 
  83:/home/baikal/workspace/C50/Huawei_IoT_Agent_Tiny_SDK_Linux//agent_tiny/lwm2m_client/connection.c **** connection_t *connection_create(connection_t *connList,
  84:/home/baikal/workspace/C50/Huawei_IoT_Agent_Tiny_SDK_Linux//agent_tiny/lwm2m_client/connection.c ****                                 lwm2m_object_t *securityObj,
  85:/home/baikal/workspace/C50/Huawei_IoT_Agent_Tiny_SDK_Linux//agent_tiny/lwm2m_client/connection.c ****                                 int instanceId,
  86:/home/baikal/workspace/C50/Huawei_IoT_Agent_Tiny_SDK_Linux//agent_tiny/lwm2m_client/connection.c ****                                 lwm2m_context_t *lwm2mH)
  87:/home/baikal/workspace/C50/Huawei_IoT_Agent_Tiny_SDK_Linux//agent_tiny/lwm2m_client/connection.c **** {
  42              		.loc 1 87 0
  43              		.cfi_startproc
  44              	.LVL0:
  45 0000 4157     		pushq	%r15
  46              	.LCFI0:
  47              		.cfi_def_cfa_offset 16
  48              		.cfi_offset 15, -16
  49 0002 4156     		pushq	%r14
  50              	.LCFI1:
GAS LISTING /tmp/ccryHWIO.s 			page 4


  51              		.cfi_def_cfa_offset 24
  52              		.cfi_offset 14, -24
  53 0004 4155     		pushq	%r13
  54              	.LCFI2:
  55              		.cfi_def_cfa_offset 32
  56              		.cfi_offset 13, -32
  57 0006 4154     		pushq	%r12
  58              	.LCFI3:
  59              		.cfi_def_cfa_offset 40
  60              		.cfi_offset 12, -40
  61 0008 55       		pushq	%rbp
  62              	.LCFI4:
  63              		.cfi_def_cfa_offset 48
  64              		.cfi_offset 6, -48
  65 0009 53       		pushq	%rbx
  66              	.LCFI5:
  67              		.cfi_def_cfa_offset 56
  68              		.cfi_offset 3, -56
  69 000a 4883EC18 		subq	$24, %rsp
  70              	.LCFI6:
  71              		.cfi_def_cfa_offset 80
  72 000e 4989FF   		movq	%rdi, %r15
  73 0011 4989F5   		movq	%rsi, %r13
  74 0014 4189D4   		movl	%edx, %r12d
  75 0017 48894C24 		movq	%rcx, 8(%rsp)
  75      08
  76              	.LVL1:
  88:/home/baikal/workspace/C50/Huawei_IoT_Agent_Tiny_SDK_Linux//agent_tiny/lwm2m_client/connection.c ****     connection_t *connP = NULL;
  89:/home/baikal/workspace/C50/Huawei_IoT_Agent_Tiny_SDK_Linux//agent_tiny/lwm2m_client/connection.c ****     char *uri;
  90:/home/baikal/workspace/C50/Huawei_IoT_Agent_Tiny_SDK_Linux//agent_tiny/lwm2m_client/connection.c ****     char *host;
  91:/home/baikal/workspace/C50/Huawei_IoT_Agent_Tiny_SDK_Linux//agent_tiny/lwm2m_client/connection.c ****     char *port;
  92:/home/baikal/workspace/C50/Huawei_IoT_Agent_Tiny_SDK_Linux//agent_tiny/lwm2m_client/connection.c ****     char *defaultport;
  93:/home/baikal/workspace/C50/Huawei_IoT_Agent_Tiny_SDK_Linux//agent_tiny/lwm2m_client/connection.c ****     security_instance_t *targetP;
  94:/home/baikal/workspace/C50/Huawei_IoT_Agent_Tiny_SDK_Linux//agent_tiny/lwm2m_client/connection.c **** #ifdef WITH_DTLS
  95:/home/baikal/workspace/C50/Huawei_IoT_Agent_Tiny_SDK_Linux//agent_tiny/lwm2m_client/connection.c ****     int ret;
  96:/home/baikal/workspace/C50/Huawei_IoT_Agent_Tiny_SDK_Linux//agent_tiny/lwm2m_client/connection.c **** #endif
  97:/home/baikal/workspace/C50/Huawei_IoT_Agent_Tiny_SDK_Linux//agent_tiny/lwm2m_client/connection.c ****     ATINY_LOG(LOG_INFO, "now come into connection_create!!!");
  77              		.loc 1 97 0
  78 001c E8000000 		call	atiny_get_log_level
  78      00
  79              	.LVL2:
  80 0021 83F801   		cmpl	$1, %eax
  81 0024 7731     		ja	.L2
  82              		.loc 1 97 0 is_stmt 0 discriminator 1
  83 0026 E8000000 		call	atiny_gettime_ms
  83      00
  84              	.LVL3:
  85 002b 4889C3   		movq	%rax, %rbx
  86 002e BF010000 		movl	$1, %edi
  86      00
  87 0033 E8000000 		call	atiny_get_log_level_name
  87      00
  88              	.LVL4:
  89 0038 41B86100 		movl	$97, %r8d
  89      0000
  90 003e B9000000 		movl	$__FUNCTION__.5236, %ecx
  90      00
GAS LISTING /tmp/ccryHWIO.s 			page 5


  91 0043 89DA     		movl	%ebx, %edx
  92 0045 4889C6   		movq	%rax, %rsi
  93 0048 BF000000 		movl	$.LC2, %edi
  93      00
  94 004d B8000000 		movl	$0, %eax
  94      00
  95 0052 E8000000 		call	atiny_printf
  95      00
  96              	.LVL5:
  97              	.L2:
  98:/home/baikal/workspace/C50/Huawei_IoT_Agent_Tiny_SDK_Linux//agent_tiny/lwm2m_client/connection.c **** 
  99:/home/baikal/workspace/C50/Huawei_IoT_Agent_Tiny_SDK_Linux//agent_tiny/lwm2m_client/connection.c ****     targetP = (security_instance_t *)LWM2M_LIST_FIND(securityObj->instanceList, instanceId);
  98              		.loc 1 99 0 is_stmt 1
  99 0057 410FB7F4 		movzwl	%r12w, %esi
 100 005b 498B7D10 		movq	16(%r13), %rdi
 101 005f E8000000 		call	lwm2m_list_find
 101      00
 102              	.LVL6:
 100:/home/baikal/workspace/C50/Huawei_IoT_Agent_Tiny_SDK_Linux//agent_tiny/lwm2m_client/connection.c ****     if (NULL == targetP)
 103              		.loc 1 100 0
 104 0064 4885C0   		testq	%rax, %rax
 105 0067 0F84A502 		je	.L15
 105      0000
 101:/home/baikal/workspace/C50/Huawei_IoT_Agent_Tiny_SDK_Linux//agent_tiny/lwm2m_client/connection.c ****     {
 102:/home/baikal/workspace/C50/Huawei_IoT_Agent_Tiny_SDK_Linux//agent_tiny/lwm2m_client/connection.c ****         return NULL;
 103:/home/baikal/workspace/C50/Huawei_IoT_Agent_Tiny_SDK_Linux//agent_tiny/lwm2m_client/connection.c ****     }
 104:/home/baikal/workspace/C50/Huawei_IoT_Agent_Tiny_SDK_Linux//agent_tiny/lwm2m_client/connection.c **** 
 105:/home/baikal/workspace/C50/Huawei_IoT_Agent_Tiny_SDK_Linux//agent_tiny/lwm2m_client/connection.c ****     uri = targetP->uri;
 106              		.loc 1 105 0
 107 006d 488B6810 		movq	16(%rax), %rbp
 108              	.LVL7:
 106:/home/baikal/workspace/C50/Huawei_IoT_Agent_Tiny_SDK_Linux//agent_tiny/lwm2m_client/connection.c ****     if (uri == NULL)
 109              		.loc 1 106 0
 110 0071 4885ED   		testq	%rbp, %rbp
 111 0074 7549     		jne	.L4
 107:/home/baikal/workspace/C50/Huawei_IoT_Agent_Tiny_SDK_Linux//agent_tiny/lwm2m_client/connection.c ****     {
 108:/home/baikal/workspace/C50/Huawei_IoT_Agent_Tiny_SDK_Linux//agent_tiny/lwm2m_client/connection.c ****         ATINY_LOG(LOG_INFO, "uri is NULL!!!");
 112              		.loc 1 108 0
 113 0076 E8000000 		call	atiny_get_log_level
 113      00
 114              	.LVL8:
 115 007b 83F801   		cmpl	$1, %eax
 116 007e 0F879502 		ja	.L16
 116      0000
 117              		.loc 1 108 0 is_stmt 0 discriminator 1
 118 0084 E8000000 		call	atiny_gettime_ms
 118      00
 119              	.LVL9:
 120 0089 4889C3   		movq	%rax, %rbx
 121 008c BF010000 		movl	$1, %edi
 121      00
 122 0091 E8000000 		call	atiny_get_log_level_name
 122      00
 123              	.LVL10:
 124 0096 41B86C00 		movl	$108, %r8d
 124      0000
 125 009c B9000000 		movl	$__FUNCTION__.5236, %ecx
GAS LISTING /tmp/ccryHWIO.s 			page 6


 125      00
 126 00a1 89DA     		movl	%ebx, %edx
 127 00a3 4889C6   		movq	%rax, %rsi
 128 00a6 BF000000 		movl	$.LC3, %edi
 128      00
 129 00ab B8000000 		movl	$0, %eax
 129      00
 130 00b0 E8000000 		call	atiny_printf
 130      00
 131              	.LVL11:
 109:/home/baikal/workspace/C50/Huawei_IoT_Agent_Tiny_SDK_Linux//agent_tiny/lwm2m_client/connection.c ****         return NULL;
 132              		.loc 1 109 0 is_stmt 1 discriminator 1
 133 00b5 B8000000 		movl	$0, %eax
 133      00
 134 00ba E9740200 		jmp	.L3
 134      00
 135              	.LVL12:
 136              	.L4:
 110:/home/baikal/workspace/C50/Huawei_IoT_Agent_Tiny_SDK_Linux//agent_tiny/lwm2m_client/connection.c ****     }
 111:/home/baikal/workspace/C50/Huawei_IoT_Agent_Tiny_SDK_Linux//agent_tiny/lwm2m_client/connection.c **** 
 112:/home/baikal/workspace/C50/Huawei_IoT_Agent_Tiny_SDK_Linux//agent_tiny/lwm2m_client/connection.c ****     ATINY_LOG(LOG_INFO, "uri is %s\n", uri);
 137              		.loc 1 112 0
 138 00bf E8000000 		call	atiny_get_log_level
 138      00
 139              	.LVL13:
 140 00c4 83F801   		cmpl	$1, %eax
 141 00c7 7734     		ja	.L5
 142              		.loc 1 112 0 is_stmt 0 discriminator 1
 143 00c9 E8000000 		call	atiny_gettime_ms
 143      00
 144              	.LVL14:
 145 00ce 4889C3   		movq	%rax, %rbx
 146 00d1 BF010000 		movl	$1, %edi
 146      00
 147 00d6 E8000000 		call	atiny_get_log_level_name
 147      00
 148              	.LVL15:
 149 00db 4989E9   		movq	%rbp, %r9
 150 00de 41B87000 		movl	$112, %r8d
 150      0000
 151 00e4 B9000000 		movl	$__FUNCTION__.5236, %ecx
 151      00
 152 00e9 89DA     		movl	%ebx, %edx
 153 00eb 4889C6   		movq	%rax, %rsi
 154 00ee BF000000 		movl	$.LC4, %edi
 154      00
 155 00f3 B8000000 		movl	$0, %eax
 155      00
 156 00f8 E8000000 		call	atiny_printf
 156      00
 157              	.LVL16:
 158              	.L5:
 113:/home/baikal/workspace/C50/Huawei_IoT_Agent_Tiny_SDK_Linux//agent_tiny/lwm2m_client/connection.c **** 
 114:/home/baikal/workspace/C50/Huawei_IoT_Agent_Tiny_SDK_Linux//agent_tiny/lwm2m_client/connection.c ****     // parse uri in the form "coaps://[host]:[port]"
 115:/home/baikal/workspace/C50/Huawei_IoT_Agent_Tiny_SDK_Linux//agent_tiny/lwm2m_client/connection.c **** 
 116:/home/baikal/workspace/C50/Huawei_IoT_Agent_Tiny_SDK_Linux//agent_tiny/lwm2m_client/connection.c ****     if (0 == strncmp(uri, "coaps://", strlen("coaps://")))
 159              		.loc 1 116 0 is_stmt 1
GAS LISTING /tmp/ccryHWIO.s 			page 7


 160 00fd BF000000 		movl	$.LC5, %edi
 160      00
 161 0102 B9080000 		movl	$8, %ecx
 161      00
 162 0107 4889EE   		movq	%rbp, %rsi
 163 010a F3A6     		repz cmpsb
 164              	.LVL17:
 165 010c 0F97C2   		seta	%dl
 166 010f 0F92C0   		setb	%al
 167 0112 38C2     		cmpb	%al, %dl
 168 0114 750C     		jne	.L6
 117:/home/baikal/workspace/C50/Huawei_IoT_Agent_Tiny_SDK_Linux//agent_tiny/lwm2m_client/connection.c ****     {
 118:/home/baikal/workspace/C50/Huawei_IoT_Agent_Tiny_SDK_Linux//agent_tiny/lwm2m_client/connection.c ****         host = uri + strlen("coaps://");
 169              		.loc 1 118 0
 170 0116 4883C508 		addq	$8, %rbp
 171              	.LVL18:
 119:/home/baikal/workspace/C50/Huawei_IoT_Agent_Tiny_SDK_Linux//agent_tiny/lwm2m_client/connection.c ****         defaultport = COAPS_PORT;
 172              		.loc 1 119 0
 173 011a 41BE0000 		movl	$.LC0, %r14d
 173      0000
 174 0120 EB6E     		jmp	.L7
 175              	.LVL19:
 176              	.L6:
 120:/home/baikal/workspace/C50/Huawei_IoT_Agent_Tiny_SDK_Linux//agent_tiny/lwm2m_client/connection.c ****     }
 121:/home/baikal/workspace/C50/Huawei_IoT_Agent_Tiny_SDK_Linux//agent_tiny/lwm2m_client/connection.c ****     else if (0 == strncmp(uri, "coap://", strlen("coap://")))
 177              		.loc 1 121 0
 178 0122 BF000000 		movl	$.LC6, %edi
 178      00
 179 0127 B9070000 		movl	$7, %ecx
 179      00
 180 012c 4889EE   		movq	%rbp, %rsi
 181 012f F3A6     		repz cmpsb
 182 0131 0F97C2   		seta	%dl
 183 0134 0F92C0   		setb	%al
 184 0137 38C2     		cmpb	%al, %dl
 185 0139 750C     		jne	.L8
 122:/home/baikal/workspace/C50/Huawei_IoT_Agent_Tiny_SDK_Linux//agent_tiny/lwm2m_client/connection.c ****     {
 123:/home/baikal/workspace/C50/Huawei_IoT_Agent_Tiny_SDK_Linux//agent_tiny/lwm2m_client/connection.c ****         host = uri + strlen("coap://");
 186              		.loc 1 123 0
 187 013b 4883C507 		addq	$7, %rbp
 188              	.LVL20:
 124:/home/baikal/workspace/C50/Huawei_IoT_Agent_Tiny_SDK_Linux//agent_tiny/lwm2m_client/connection.c ****         defaultport = COAP_PORT;
 189              		.loc 1 124 0
 190 013f 41BE0000 		movl	$.LC1, %r14d
 190      0000
 191 0145 EB49     		jmp	.L7
 192              	.LVL21:
 193              	.L8:
 125:/home/baikal/workspace/C50/Huawei_IoT_Agent_Tiny_SDK_Linux//agent_tiny/lwm2m_client/connection.c ****     }
 126:/home/baikal/workspace/C50/Huawei_IoT_Agent_Tiny_SDK_Linux//agent_tiny/lwm2m_client/connection.c ****     else
 127:/home/baikal/workspace/C50/Huawei_IoT_Agent_Tiny_SDK_Linux//agent_tiny/lwm2m_client/connection.c ****     {
 128:/home/baikal/workspace/C50/Huawei_IoT_Agent_Tiny_SDK_Linux//agent_tiny/lwm2m_client/connection.c ****         ATINY_LOG(LOG_INFO, "come here1!!!");
 194              		.loc 1 128 0
 195 0147 E8000000 		call	atiny_get_log_level
 195      00
 196              	.LVL22:
 197 014c 83F801   		cmpl	$1, %eax
GAS LISTING /tmp/ccryHWIO.s 			page 8


 198 014f 0F87CB01 		ja	.L17
 198      0000
 199              		.loc 1 128 0 is_stmt 0 discriminator 1
 200 0155 E8000000 		call	atiny_gettime_ms
 200      00
 201              	.LVL23:
 202 015a 4889C3   		movq	%rax, %rbx
 203 015d BF010000 		movl	$1, %edi
 203      00
 204 0162 E8000000 		call	atiny_get_log_level_name
 204      00
 205              	.LVL24:
 206 0167 41B88000 		movl	$128, %r8d
 206      0000
 207 016d B9000000 		movl	$__FUNCTION__.5236, %ecx
 207      00
 208 0172 89DA     		movl	%ebx, %edx
 209 0174 4889C6   		movq	%rax, %rsi
 210 0177 BF000000 		movl	$.LC7, %edi
 210      00
 211 017c B8000000 		movl	$0, %eax
 211      00
 212 0181 E8000000 		call	atiny_printf
 212      00
 213              	.LVL25:
 129:/home/baikal/workspace/C50/Huawei_IoT_Agent_Tiny_SDK_Linux//agent_tiny/lwm2m_client/connection.c ****         return NULL;
 214              		.loc 1 129 0 is_stmt 1 discriminator 1
 215 0186 B8000000 		movl	$0, %eax
 215      00
 216 018b E9A30100 		jmp	.L3
 216      00
 217              	.LVL26:
 218              	.L7:
 130:/home/baikal/workspace/C50/Huawei_IoT_Agent_Tiny_SDK_Linux//agent_tiny/lwm2m_client/connection.c ****     }
 131:/home/baikal/workspace/C50/Huawei_IoT_Agent_Tiny_SDK_Linux//agent_tiny/lwm2m_client/connection.c **** 
 132:/home/baikal/workspace/C50/Huawei_IoT_Agent_Tiny_SDK_Linux//agent_tiny/lwm2m_client/connection.c ****     port = strrchr(host, ':');
 219              		.loc 1 132 0
 220 0190 BE3A0000 		movl	$58, %esi
 220      00
 221 0195 4889EF   		movq	%rbp, %rdi
 222 0198 E8000000 		call	strrchr
 222      00
 223              	.LVL27:
 133:/home/baikal/workspace/C50/Huawei_IoT_Agent_Tiny_SDK_Linux//agent_tiny/lwm2m_client/connection.c ****     if (port == NULL)
 224              		.loc 1 133 0
 225 019d 4885C0   		testq	%rax, %rax
 226 01a0 7466     		je	.L9
 134:/home/baikal/workspace/C50/Huawei_IoT_Agent_Tiny_SDK_Linux//agent_tiny/lwm2m_client/connection.c ****     {
 135:/home/baikal/workspace/C50/Huawei_IoT_Agent_Tiny_SDK_Linux//agent_tiny/lwm2m_client/connection.c ****         port = defaultport;
 136:/home/baikal/workspace/C50/Huawei_IoT_Agent_Tiny_SDK_Linux//agent_tiny/lwm2m_client/connection.c ****     }
 137:/home/baikal/workspace/C50/Huawei_IoT_Agent_Tiny_SDK_Linux//agent_tiny/lwm2m_client/connection.c ****     else
 138:/home/baikal/workspace/C50/Huawei_IoT_Agent_Tiny_SDK_Linux//agent_tiny/lwm2m_client/connection.c ****     {
 139:/home/baikal/workspace/C50/Huawei_IoT_Agent_Tiny_SDK_Linux//agent_tiny/lwm2m_client/connection.c ****         // remove brackets
 140:/home/baikal/workspace/C50/Huawei_IoT_Agent_Tiny_SDK_Linux//agent_tiny/lwm2m_client/connection.c ****         if (host[0] == '[')
 227              		.loc 1 140 0
 228 01a2 807D005B 		cmpb	$91, 0(%rbp)
 229 01a6 7559     		jne	.L10
GAS LISTING /tmp/ccryHWIO.s 			page 9


 141:/home/baikal/workspace/C50/Huawei_IoT_Agent_Tiny_SDK_Linux//agent_tiny/lwm2m_client/connection.c ****         {
 142:/home/baikal/workspace/C50/Huawei_IoT_Agent_Tiny_SDK_Linux//agent_tiny/lwm2m_client/connection.c ****             host++;
 230              		.loc 1 142 0
 231 01a8 4883C501 		addq	$1, %rbp
 232              	.LVL28:
 143:/home/baikal/workspace/C50/Huawei_IoT_Agent_Tiny_SDK_Linux//agent_tiny/lwm2m_client/connection.c **** 
 144:/home/baikal/workspace/C50/Huawei_IoT_Agent_Tiny_SDK_Linux//agent_tiny/lwm2m_client/connection.c ****             if (*(port - 1) == ']')
 233              		.loc 1 144 0
 234 01ac 8078FF5D 		cmpb	$93, -1(%rax)
 235 01b0 7506     		jne	.L11
 145:/home/baikal/workspace/C50/Huawei_IoT_Agent_Tiny_SDK_Linux//agent_tiny/lwm2m_client/connection.c ****             {
 146:/home/baikal/workspace/C50/Huawei_IoT_Agent_Tiny_SDK_Linux//agent_tiny/lwm2m_client/connection.c ****                 *(port - 1) = 0;
 236              		.loc 1 146 0
 237 01b2 C640FF00 		movb	$0, -1(%rax)
 238 01b6 EB49     		jmp	.L10
 239              	.L11:
 147:/home/baikal/workspace/C50/Huawei_IoT_Agent_Tiny_SDK_Linux//agent_tiny/lwm2m_client/connection.c ****             }
 148:/home/baikal/workspace/C50/Huawei_IoT_Agent_Tiny_SDK_Linux//agent_tiny/lwm2m_client/connection.c ****             else
 149:/home/baikal/workspace/C50/Huawei_IoT_Agent_Tiny_SDK_Linux//agent_tiny/lwm2m_client/connection.c ****             {
 150:/home/baikal/workspace/C50/Huawei_IoT_Agent_Tiny_SDK_Linux//agent_tiny/lwm2m_client/connection.c ****                 ATINY_LOG(LOG_INFO, "come here2!!!");
 240              		.loc 1 150 0
 241 01b8 E8000000 		call	atiny_get_log_level
 241      00
 242              	.LVL29:
 243 01bd 83F801   		cmpl	$1, %eax
 244 01c0 0F876101 		ja	.L18
 244      0000
 245              		.loc 1 150 0 is_stmt 0 discriminator 1
 246 01c6 E8000000 		call	atiny_gettime_ms
 246      00
 247              	.LVL30:
 248 01cb 4889C3   		movq	%rax, %rbx
 249 01ce BF010000 		movl	$1, %edi
 249      00
 250 01d3 E8000000 		call	atiny_get_log_level_name
 250      00
 251              	.LVL31:
 252 01d8 41B89600 		movl	$150, %r8d
 252      0000
 253 01de B9000000 		movl	$__FUNCTION__.5236, %ecx
 253      00
 254 01e3 89DA     		movl	%ebx, %edx
 255 01e5 4889C6   		movq	%rax, %rsi
 256 01e8 BF000000 		movl	$.LC8, %edi
 256      00
 257 01ed B8000000 		movl	$0, %eax
 257      00
 258 01f2 E8000000 		call	atiny_printf
 258      00
 259              	.LVL32:
 151:/home/baikal/workspace/C50/Huawei_IoT_Agent_Tiny_SDK_Linux//agent_tiny/lwm2m_client/connection.c ****                 return NULL;
 260              		.loc 1 151 0 is_stmt 1 discriminator 1
 261 01f7 B8000000 		movl	$0, %eax
 261      00
 262 01fc E9320100 		jmp	.L3
 262      00
 263              	.LVL33:
GAS LISTING /tmp/ccryHWIO.s 			page 10


 264              	.L10:
 152:/home/baikal/workspace/C50/Huawei_IoT_Agent_Tiny_SDK_Linux//agent_tiny/lwm2m_client/connection.c ****             }
 153:/home/baikal/workspace/C50/Huawei_IoT_Agent_Tiny_SDK_Linux//agent_tiny/lwm2m_client/connection.c ****         }
 154:/home/baikal/workspace/C50/Huawei_IoT_Agent_Tiny_SDK_Linux//agent_tiny/lwm2m_client/connection.c **** 
 155:/home/baikal/workspace/C50/Huawei_IoT_Agent_Tiny_SDK_Linux//agent_tiny/lwm2m_client/connection.c ****         // split strings
 156:/home/baikal/workspace/C50/Huawei_IoT_Agent_Tiny_SDK_Linux//agent_tiny/lwm2m_client/connection.c ****         *port = 0;
 265              		.loc 1 156 0
 266 0201 C60000   		movb	$0, (%rax)
 157:/home/baikal/workspace/C50/Huawei_IoT_Agent_Tiny_SDK_Linux//agent_tiny/lwm2m_client/connection.c ****         port++;
 267              		.loc 1 157 0
 268 0204 4C8D7001 		leaq	1(%rax), %r14
 269              	.LVL34:
 270              	.L9:
 158:/home/baikal/workspace/C50/Huawei_IoT_Agent_Tiny_SDK_Linux//agent_tiny/lwm2m_client/connection.c ****     }
 159:/home/baikal/workspace/C50/Huawei_IoT_Agent_Tiny_SDK_Linux//agent_tiny/lwm2m_client/connection.c **** 
 160:/home/baikal/workspace/C50/Huawei_IoT_Agent_Tiny_SDK_Linux//agent_tiny/lwm2m_client/connection.c ****     connP = (connection_t *)lwm2m_malloc(sizeof(connection_t));
 271              		.loc 1 160 0
 272 0208 BF300000 		movl	$48, %edi
 272      00
 273 020d E8000000 		call	lwm2m_malloc
 273      00
 274              	.LVL35:
 275 0212 4889C3   		movq	%rax, %rbx
 276              	.LVL36:
 161:/home/baikal/workspace/C50/Huawei_IoT_Agent_Tiny_SDK_Linux//agent_tiny/lwm2m_client/connection.c ****     if (connP == NULL)
 277              		.loc 1 161 0
 278 0215 4885C0   		testq	%rax, %rax
 279 0218 7549     		jne	.L12
 162:/home/baikal/workspace/C50/Huawei_IoT_Agent_Tiny_SDK_Linux//agent_tiny/lwm2m_client/connection.c ****     {
 163:/home/baikal/workspace/C50/Huawei_IoT_Agent_Tiny_SDK_Linux//agent_tiny/lwm2m_client/connection.c ****         ATINY_LOG(LOG_INFO, "connP is NULL!!!");
 280              		.loc 1 163 0
 281 021a E8000000 		call	atiny_get_log_level
 281      00
 282              	.LVL37:
 283 021f 83F801   		cmpl	$1, %eax
 284 0222 0F870601 		ja	.L19
 284      0000
 285              		.loc 1 163 0 is_stmt 0 discriminator 1
 286 0228 E8000000 		call	atiny_gettime_ms
 286      00
 287              	.LVL38:
 288 022d 4889C3   		movq	%rax, %rbx
 289              	.LVL39:
 290 0230 BF010000 		movl	$1, %edi
 290      00
 291 0235 E8000000 		call	atiny_get_log_level_name
 291      00
 292              	.LVL40:
 293 023a 41B8A300 		movl	$163, %r8d
 293      0000
 294 0240 B9000000 		movl	$__FUNCTION__.5236, %ecx
 294      00
 295 0245 89DA     		movl	%ebx, %edx
 296 0247 4889C6   		movq	%rax, %rsi
 297 024a BF000000 		movl	$.LC9, %edi
 297      00
 298 024f B8000000 		movl	$0, %eax
GAS LISTING /tmp/ccryHWIO.s 			page 11


 298      00
 299 0254 E8000000 		call	atiny_printf
 299      00
 300              	.LVL41:
 164:/home/baikal/workspace/C50/Huawei_IoT_Agent_Tiny_SDK_Linux//agent_tiny/lwm2m_client/connection.c ****         return NULL;
 301              		.loc 1 164 0 is_stmt 1 discriminator 1
 302 0259 B8000000 		movl	$0, %eax
 302      00
 303 025e E9D00000 		jmp	.L3
 303      00
 304              	.LVL42:
 305              	.L12:
 306              	.LBB8:
 307              	.LBB9:
 308              		.file 2 "/usr/include/x86_64-linux-gnu/bits/string3.h"
   1:/usr/include/x86_64-linux-gnu/bits/string3.h **** /* Copyright (C) 2004-2016 Free Software Foundation, Inc.
   2:/usr/include/x86_64-linux-gnu/bits/string3.h ****    This file is part of the GNU C Library.
   3:/usr/include/x86_64-linux-gnu/bits/string3.h **** 
   4:/usr/include/x86_64-linux-gnu/bits/string3.h ****    The GNU C Library is free software; you can redistribute it and/or
   5:/usr/include/x86_64-linux-gnu/bits/string3.h ****    modify it under the terms of the GNU Lesser General Public
   6:/usr/include/x86_64-linux-gnu/bits/string3.h ****    License as published by the Free Software Foundation; either
   7:/usr/include/x86_64-linux-gnu/bits/string3.h ****    version 2.1 of the License, or (at your option) any later version.
   8:/usr/include/x86_64-linux-gnu/bits/string3.h **** 
   9:/usr/include/x86_64-linux-gnu/bits/string3.h ****    The GNU C Library is distributed in the hope that it will be useful,
  10:/usr/include/x86_64-linux-gnu/bits/string3.h ****    but WITHOUT ANY WARRANTY; without even the implied warranty of
  11:/usr/include/x86_64-linux-gnu/bits/string3.h ****    MERCHANTABILITY or FITNESS FOR A PARTICULAR PURPOSE.  See the GNU
  12:/usr/include/x86_64-linux-gnu/bits/string3.h ****    Lesser General Public License for more details.
  13:/usr/include/x86_64-linux-gnu/bits/string3.h **** 
  14:/usr/include/x86_64-linux-gnu/bits/string3.h ****    You should have received a copy of the GNU Lesser General Public
  15:/usr/include/x86_64-linux-gnu/bits/string3.h ****    License along with the GNU C Library; if not, see
  16:/usr/include/x86_64-linux-gnu/bits/string3.h ****    <http://www.gnu.org/licenses/>.  */
  17:/usr/include/x86_64-linux-gnu/bits/string3.h **** 
  18:/usr/include/x86_64-linux-gnu/bits/string3.h **** #ifndef _STRING_H
  19:/usr/include/x86_64-linux-gnu/bits/string3.h **** # error "Never use <bits/string3.h> directly; include <string.h> instead."
  20:/usr/include/x86_64-linux-gnu/bits/string3.h **** #endif
  21:/usr/include/x86_64-linux-gnu/bits/string3.h **** 
  22:/usr/include/x86_64-linux-gnu/bits/string3.h **** #if !__GNUC_PREREQ (5,0)
  23:/usr/include/x86_64-linux-gnu/bits/string3.h **** __warndecl (__warn_memset_zero_len,
  24:/usr/include/x86_64-linux-gnu/bits/string3.h **** 	    "memset used with constant zero length parameter; this could be due to transposed parameters")
  25:/usr/include/x86_64-linux-gnu/bits/string3.h **** #endif
  26:/usr/include/x86_64-linux-gnu/bits/string3.h **** 
  27:/usr/include/x86_64-linux-gnu/bits/string3.h **** #ifndef __cplusplus
  28:/usr/include/x86_64-linux-gnu/bits/string3.h **** /* XXX This is temporarily.  We should not redefine any of the symbols
  29:/usr/include/x86_64-linux-gnu/bits/string3.h ****    and instead integrate the error checking into the original
  30:/usr/include/x86_64-linux-gnu/bits/string3.h ****    definitions.  */
  31:/usr/include/x86_64-linux-gnu/bits/string3.h **** # undef memcpy
  32:/usr/include/x86_64-linux-gnu/bits/string3.h **** # undef memmove
  33:/usr/include/x86_64-linux-gnu/bits/string3.h **** # undef memset
  34:/usr/include/x86_64-linux-gnu/bits/string3.h **** # undef strcat
  35:/usr/include/x86_64-linux-gnu/bits/string3.h **** # undef strcpy
  36:/usr/include/x86_64-linux-gnu/bits/string3.h **** # undef strncat
  37:/usr/include/x86_64-linux-gnu/bits/string3.h **** # undef strncpy
  38:/usr/include/x86_64-linux-gnu/bits/string3.h **** # ifdef __USE_GNU
  39:/usr/include/x86_64-linux-gnu/bits/string3.h **** #  undef mempcpy
  40:/usr/include/x86_64-linux-gnu/bits/string3.h **** #  undef stpcpy
  41:/usr/include/x86_64-linux-gnu/bits/string3.h **** # endif
  42:/usr/include/x86_64-linux-gnu/bits/string3.h **** # ifdef __USE_MISC
GAS LISTING /tmp/ccryHWIO.s 			page 12


  43:/usr/include/x86_64-linux-gnu/bits/string3.h **** #  undef bcopy
  44:/usr/include/x86_64-linux-gnu/bits/string3.h **** #  undef bzero
  45:/usr/include/x86_64-linux-gnu/bits/string3.h **** # endif
  46:/usr/include/x86_64-linux-gnu/bits/string3.h **** #endif
  47:/usr/include/x86_64-linux-gnu/bits/string3.h **** 
  48:/usr/include/x86_64-linux-gnu/bits/string3.h **** 
  49:/usr/include/x86_64-linux-gnu/bits/string3.h **** __fortify_function void *
  50:/usr/include/x86_64-linux-gnu/bits/string3.h **** __NTH (memcpy (void *__restrict __dest, const void *__restrict __src,
  51:/usr/include/x86_64-linux-gnu/bits/string3.h **** 	       size_t __len))
  52:/usr/include/x86_64-linux-gnu/bits/string3.h **** {
  53:/usr/include/x86_64-linux-gnu/bits/string3.h ****   return __builtin___memcpy_chk (__dest, __src, __len, __bos0 (__dest));
  54:/usr/include/x86_64-linux-gnu/bits/string3.h **** }
  55:/usr/include/x86_64-linux-gnu/bits/string3.h **** 
  56:/usr/include/x86_64-linux-gnu/bits/string3.h **** __fortify_function void *
  57:/usr/include/x86_64-linux-gnu/bits/string3.h **** __NTH (memmove (void *__dest, const void *__src, size_t __len))
  58:/usr/include/x86_64-linux-gnu/bits/string3.h **** {
  59:/usr/include/x86_64-linux-gnu/bits/string3.h ****   return __builtin___memmove_chk (__dest, __src, __len, __bos0 (__dest));
  60:/usr/include/x86_64-linux-gnu/bits/string3.h **** }
  61:/usr/include/x86_64-linux-gnu/bits/string3.h **** 
  62:/usr/include/x86_64-linux-gnu/bits/string3.h **** #ifdef __USE_GNU
  63:/usr/include/x86_64-linux-gnu/bits/string3.h **** __fortify_function void *
  64:/usr/include/x86_64-linux-gnu/bits/string3.h **** __NTH (mempcpy (void *__restrict __dest, const void *__restrict __src,
  65:/usr/include/x86_64-linux-gnu/bits/string3.h **** 		size_t __len))
  66:/usr/include/x86_64-linux-gnu/bits/string3.h **** {
  67:/usr/include/x86_64-linux-gnu/bits/string3.h ****   return __builtin___mempcpy_chk (__dest, __src, __len, __bos0 (__dest));
  68:/usr/include/x86_64-linux-gnu/bits/string3.h **** }
  69:/usr/include/x86_64-linux-gnu/bits/string3.h **** #endif
  70:/usr/include/x86_64-linux-gnu/bits/string3.h **** 
  71:/usr/include/x86_64-linux-gnu/bits/string3.h **** 
  72:/usr/include/x86_64-linux-gnu/bits/string3.h **** /* The first two tests here help to catch a somewhat common problem
  73:/usr/include/x86_64-linux-gnu/bits/string3.h ****    where the second and third parameter are transposed.  This is
  74:/usr/include/x86_64-linux-gnu/bits/string3.h ****    especially problematic if the intended fill value is zero.  In this
  75:/usr/include/x86_64-linux-gnu/bits/string3.h ****    case no work is done at all.  We detect these problems by referring
  76:/usr/include/x86_64-linux-gnu/bits/string3.h ****    non-existing functions.  */
  77:/usr/include/x86_64-linux-gnu/bits/string3.h **** __fortify_function void *
  78:/usr/include/x86_64-linux-gnu/bits/string3.h **** __NTH (memset (void *__dest, int __ch, size_t __len))
  79:/usr/include/x86_64-linux-gnu/bits/string3.h **** {
  80:/usr/include/x86_64-linux-gnu/bits/string3.h ****   /* GCC-5.0 and newer implements these checks in the compiler, so we don't
  81:/usr/include/x86_64-linux-gnu/bits/string3.h ****      need them here.  */
  82:/usr/include/x86_64-linux-gnu/bits/string3.h **** #if !__GNUC_PREREQ (5,0)
  83:/usr/include/x86_64-linux-gnu/bits/string3.h ****   if (__builtin_constant_p (__len) && __len == 0
  84:/usr/include/x86_64-linux-gnu/bits/string3.h ****       && (!__builtin_constant_p (__ch) || __ch != 0))
  85:/usr/include/x86_64-linux-gnu/bits/string3.h ****     {
  86:/usr/include/x86_64-linux-gnu/bits/string3.h ****       __warn_memset_zero_len ();
  87:/usr/include/x86_64-linux-gnu/bits/string3.h ****       return __dest;
  88:/usr/include/x86_64-linux-gnu/bits/string3.h ****     }
  89:/usr/include/x86_64-linux-gnu/bits/string3.h **** #endif
  90:/usr/include/x86_64-linux-gnu/bits/string3.h ****   return __builtin___memset_chk (__dest, __ch, __len, __bos0 (__dest));
 309              		.loc 2 90 0
 310 0263 48C70000 		movq	$0, (%rax)
 310      000000
 311              	.LVL43:
 312 026a 48C74028 		movq	$0, 40(%rax)
 312      00000000 
 313 0272 488D7808 		leaq	8(%rax), %rdi
 314 0276 4883E7F8 		andq	$-8, %rdi
 315 027a 4889C1   		movq	%rax, %rcx
GAS LISTING /tmp/ccryHWIO.s 			page 13


 316 027d 4829F9   		subq	%rdi, %rcx
 317 0280 83C130   		addl	$48, %ecx
 318 0283 C1E903   		shrl	$3, %ecx
 319 0286 89C9     		movl	%ecx, %ecx
 320 0288 B8000000 		movl	$0, %eax
 320      00
 321              	.LVL44:
 322 028d F348AB   		rep stosq
 323              	.LVL45:
 324              	.LBE9:
 325              	.LBE8:
 165:/home/baikal/workspace/C50/Huawei_IoT_Agent_Tiny_SDK_Linux//agent_tiny/lwm2m_client/connection.c ****     }
 166:/home/baikal/workspace/C50/Huawei_IoT_Agent_Tiny_SDK_Linux//agent_tiny/lwm2m_client/connection.c **** 
 167:/home/baikal/workspace/C50/Huawei_IoT_Agent_Tiny_SDK_Linux//agent_tiny/lwm2m_client/connection.c ****     memset(connP, 0, sizeof(connection_t));
 168:/home/baikal/workspace/C50/Huawei_IoT_Agent_Tiny_SDK_Linux//agent_tiny/lwm2m_client/connection.c **** 
 169:/home/baikal/workspace/C50/Huawei_IoT_Agent_Tiny_SDK_Linux//agent_tiny/lwm2m_client/connection.c **** #ifdef WITH_DTLS
 170:/home/baikal/workspace/C50/Huawei_IoT_Agent_Tiny_SDK_Linux//agent_tiny/lwm2m_client/connection.c **** 
 171:/home/baikal/workspace/C50/Huawei_IoT_Agent_Tiny_SDK_Linux//agent_tiny/lwm2m_client/connection.c ****     if (targetP->securityMode != LWM2M_SECURITY_MODE_NONE)
 172:/home/baikal/workspace/C50/Huawei_IoT_Agent_Tiny_SDK_Linux//agent_tiny/lwm2m_client/connection.c ****     {
 173:/home/baikal/workspace/C50/Huawei_IoT_Agent_Tiny_SDK_Linux//agent_tiny/lwm2m_client/connection.c ****         connP->net_context = (void *)dtls_ssl_new_with_psk(targetP->secretKey, targetP->secretKeyLe
 174:/home/baikal/workspace/C50/Huawei_IoT_Agent_Tiny_SDK_Linux//agent_tiny/lwm2m_client/connection.c ****         if (NULL == connP->net_context)
 175:/home/baikal/workspace/C50/Huawei_IoT_Agent_Tiny_SDK_Linux//agent_tiny/lwm2m_client/connection.c ****         {
 176:/home/baikal/workspace/C50/Huawei_IoT_Agent_Tiny_SDK_Linux//agent_tiny/lwm2m_client/connection.c ****             ATINY_LOG(LOG_INFO, "connP->ssl is NULL in connection_create");
 177:/home/baikal/workspace/C50/Huawei_IoT_Agent_Tiny_SDK_Linux//agent_tiny/lwm2m_client/connection.c ****             lwm2m_free(connP);
 178:/home/baikal/workspace/C50/Huawei_IoT_Agent_Tiny_SDK_Linux//agent_tiny/lwm2m_client/connection.c ****             return NULL;
 179:/home/baikal/workspace/C50/Huawei_IoT_Agent_Tiny_SDK_Linux//agent_tiny/lwm2m_client/connection.c ****         }
 180:/home/baikal/workspace/C50/Huawei_IoT_Agent_Tiny_SDK_Linux//agent_tiny/lwm2m_client/connection.c **** 
 181:/home/baikal/workspace/C50/Huawei_IoT_Agent_Tiny_SDK_Linux//agent_tiny/lwm2m_client/connection.c ****         ret = dtls_shakehand(connP->net_context, host, port);
 182:/home/baikal/workspace/C50/Huawei_IoT_Agent_Tiny_SDK_Linux//agent_tiny/lwm2m_client/connection.c ****         if (ret != 0)
 183:/home/baikal/workspace/C50/Huawei_IoT_Agent_Tiny_SDK_Linux//agent_tiny/lwm2m_client/connection.c ****         {
 184:/home/baikal/workspace/C50/Huawei_IoT_Agent_Tiny_SDK_Linux//agent_tiny/lwm2m_client/connection.c ****             ATINY_LOG(LOG_INFO, "ret is %d in connection_create", ret);
 185:/home/baikal/workspace/C50/Huawei_IoT_Agent_Tiny_SDK_Linux//agent_tiny/lwm2m_client/connection.c ****             dtls_ssl_destroy((mbedtls_ssl_context *)connP->net_context);
 186:/home/baikal/workspace/C50/Huawei_IoT_Agent_Tiny_SDK_Linux//agent_tiny/lwm2m_client/connection.c ****             lwm2m_free(connP);
 187:/home/baikal/workspace/C50/Huawei_IoT_Agent_Tiny_SDK_Linux//agent_tiny/lwm2m_client/connection.c ****             return NULL;
 188:/home/baikal/workspace/C50/Huawei_IoT_Agent_Tiny_SDK_Linux//agent_tiny/lwm2m_client/connection.c ****         }
 189:/home/baikal/workspace/C50/Huawei_IoT_Agent_Tiny_SDK_Linux//agent_tiny/lwm2m_client/connection.c **** 
 190:/home/baikal/workspace/C50/Huawei_IoT_Agent_Tiny_SDK_Linux//agent_tiny/lwm2m_client/connection.c ****         connP->dtls_flag = true;
 191:/home/baikal/workspace/C50/Huawei_IoT_Agent_Tiny_SDK_Linux//agent_tiny/lwm2m_client/connection.c ****     }
 192:/home/baikal/workspace/C50/Huawei_IoT_Agent_Tiny_SDK_Linux//agent_tiny/lwm2m_client/connection.c ****     else
 193:/home/baikal/workspace/C50/Huawei_IoT_Agent_Tiny_SDK_Linux//agent_tiny/lwm2m_client/connection.c **** #endif
 194:/home/baikal/workspace/C50/Huawei_IoT_Agent_Tiny_SDK_Linux//agent_tiny/lwm2m_client/connection.c ****     {
 195:/home/baikal/workspace/C50/Huawei_IoT_Agent_Tiny_SDK_Linux//agent_tiny/lwm2m_client/connection.c ****         // no dtls session
 196:/home/baikal/workspace/C50/Huawei_IoT_Agent_Tiny_SDK_Linux//agent_tiny/lwm2m_client/connection.c ****         connP->net_context = atiny_net_connect(host, port, ATINY_PROTO_UDP);
 326              		.loc 1 196 0
 327 0290 BA010000 		movl	$1, %edx
 327      00
 328 0295 4C89F6   		movq	%r14, %rsi
 329 0298 4889EF   		movq	%rbp, %rdi
 330 029b E8000000 		call	atiny_net_connect
 330      00
 331              	.LVL46:
 332 02a0 48894308 		movq	%rax, 8(%rbx)
 197:/home/baikal/workspace/C50/Huawei_IoT_Agent_Tiny_SDK_Linux//agent_tiny/lwm2m_client/connection.c **** 
 198:/home/baikal/workspace/C50/Huawei_IoT_Agent_Tiny_SDK_Linux//agent_tiny/lwm2m_client/connection.c ****         if (NULL == connP->net_context)
 333              		.loc 1 198 0
 334 02a4 4885C0   		testq	%rax, %rax
 335 02a7 754A     		jne	.L13
GAS LISTING /tmp/ccryHWIO.s 			page 14


 199:/home/baikal/workspace/C50/Huawei_IoT_Agent_Tiny_SDK_Linux//agent_tiny/lwm2m_client/connection.c ****         {
 200:/home/baikal/workspace/C50/Huawei_IoT_Agent_Tiny_SDK_Linux//agent_tiny/lwm2m_client/connection.c ****             ATINY_LOG(LOG_INFO, "connP->ssl is NULL in connection_create");
 336              		.loc 1 200 0
 337 02a9 E8000000 		call	atiny_get_log_level
 337      00
 338              	.LVL47:
 339 02ae 83F801   		cmpl	$1, %eax
 340 02b1 7731     		ja	.L14
 341              		.loc 1 200 0 is_stmt 0 discriminator 1
 342 02b3 E8000000 		call	atiny_gettime_ms
 342      00
 343              	.LVL48:
 344 02b8 4889C5   		movq	%rax, %rbp
 345              	.LVL49:
 346 02bb BF010000 		movl	$1, %edi
 346      00
 347 02c0 E8000000 		call	atiny_get_log_level_name
 347      00
 348              	.LVL50:
 349 02c5 41B8C800 		movl	$200, %r8d
 349      0000
 350 02cb B9000000 		movl	$__FUNCTION__.5236, %ecx
 350      00
 351 02d0 89EA     		movl	%ebp, %edx
 352 02d2 4889C6   		movq	%rax, %rsi
 353 02d5 BF000000 		movl	$.LC10, %edi
 353      00
 354 02da B8000000 		movl	$0, %eax
 354      00
 355 02df E8000000 		call	atiny_printf
 355      00
 356              	.LVL51:
 357              	.L14:
 201:/home/baikal/workspace/C50/Huawei_IoT_Agent_Tiny_SDK_Linux//agent_tiny/lwm2m_client/connection.c ****             lwm2m_free(connP);
 358              		.loc 1 201 0 is_stmt 1
 359 02e4 4889DF   		movq	%rbx, %rdi
 360 02e7 E8000000 		call	lwm2m_free
 360      00
 361              	.LVL52:
 202:/home/baikal/workspace/C50/Huawei_IoT_Agent_Tiny_SDK_Linux//agent_tiny/lwm2m_client/connection.c ****             return NULL;
 362              		.loc 1 202 0
 363 02ec B8000000 		movl	$0, %eax
 363      00
 364 02f1 EB40     		jmp	.L3
 365              	.LVL53:
 366              	.L13:
 203:/home/baikal/workspace/C50/Huawei_IoT_Agent_Tiny_SDK_Linux//agent_tiny/lwm2m_client/connection.c ****         }
 204:/home/baikal/workspace/C50/Huawei_IoT_Agent_Tiny_SDK_Linux//agent_tiny/lwm2m_client/connection.c **** 
 205:/home/baikal/workspace/C50/Huawei_IoT_Agent_Tiny_SDK_Linux//agent_tiny/lwm2m_client/connection.c ****         connP->dtls_flag = false;
 367              		.loc 1 205 0
 368 02f3 66C7431C 		movw	$0, 28(%rbx)
 368      0000
 206:/home/baikal/workspace/C50/Huawei_IoT_Agent_Tiny_SDK_Linux//agent_tiny/lwm2m_client/connection.c ****     }
 207:/home/baikal/workspace/C50/Huawei_IoT_Agent_Tiny_SDK_Linux//agent_tiny/lwm2m_client/connection.c **** 
 208:/home/baikal/workspace/C50/Huawei_IoT_Agent_Tiny_SDK_Linux//agent_tiny/lwm2m_client/connection.c ****     connP->next = connList;
 369              		.loc 1 208 0
 370 02f9 4C893B   		movq	%r15, (%rbx)
GAS LISTING /tmp/ccryHWIO.s 			page 15


 209:/home/baikal/workspace/C50/Huawei_IoT_Agent_Tiny_SDK_Linux//agent_tiny/lwm2m_client/connection.c ****     connP->securityObj = securityObj;
 371              		.loc 1 209 0
 372 02fc 4C896B10 		movq	%r13, 16(%rbx)
 210:/home/baikal/workspace/C50/Huawei_IoT_Agent_Tiny_SDK_Linux//agent_tiny/lwm2m_client/connection.c ****     connP->securityInstId = instanceId;
 373              		.loc 1 210 0
 374 0300 44896318 		movl	%r12d, 24(%rbx)
 211:/home/baikal/workspace/C50/Huawei_IoT_Agent_Tiny_SDK_Linux//agent_tiny/lwm2m_client/connection.c ****     connP->lwm2mH = lwm2mH;
 375              		.loc 1 211 0
 376 0304 488B4424 		movq	8(%rsp), %rax
 376      08
 377 0309 48894320 		movq	%rax, 32(%rbx)
 212:/home/baikal/workspace/C50/Huawei_IoT_Agent_Tiny_SDK_Linux//agent_tiny/lwm2m_client/connection.c **** 
 213:/home/baikal/workspace/C50/Huawei_IoT_Agent_Tiny_SDK_Linux//agent_tiny/lwm2m_client/connection.c ****     return connP;
 378              		.loc 1 213 0
 379 030d 4889D8   		movq	%rbx, %rax
 380 0310 EB21     		jmp	.L3
 381              	.LVL54:
 382              	.L15:
 102:/home/baikal/workspace/C50/Huawei_IoT_Agent_Tiny_SDK_Linux//agent_tiny/lwm2m_client/connection.c ****     }
 383              		.loc 1 102 0
 384 0312 B8000000 		movl	$0, %eax
 384      00
 385              	.LVL55:
 386 0317 EB1A     		jmp	.L3
 387              	.LVL56:
 388              	.L16:
 109:/home/baikal/workspace/C50/Huawei_IoT_Agent_Tiny_SDK_Linux//agent_tiny/lwm2m_client/connection.c ****     }
 389              		.loc 1 109 0
 390 0319 B8000000 		movl	$0, %eax
 390      00
 391 031e EB13     		jmp	.L3
 392              	.LVL57:
 393              	.L17:
 129:/home/baikal/workspace/C50/Huawei_IoT_Agent_Tiny_SDK_Linux//agent_tiny/lwm2m_client/connection.c ****     }
 394              		.loc 1 129 0
 395 0320 B8000000 		movl	$0, %eax
 395      00
 396 0325 EB0C     		jmp	.L3
 397              	.LVL58:
 398              	.L18:
 151:/home/baikal/workspace/C50/Huawei_IoT_Agent_Tiny_SDK_Linux//agent_tiny/lwm2m_client/connection.c ****             }
 399              		.loc 1 151 0
 400 0327 B8000000 		movl	$0, %eax
 400      00
 401 032c EB05     		jmp	.L3
 402              	.LVL59:
 403              	.L19:
 164:/home/baikal/workspace/C50/Huawei_IoT_Agent_Tiny_SDK_Linux//agent_tiny/lwm2m_client/connection.c ****     }
 404              		.loc 1 164 0
 405 032e B8000000 		movl	$0, %eax
 405      00
 406              	.LVL60:
 407              	.L3:
 214:/home/baikal/workspace/C50/Huawei_IoT_Agent_Tiny_SDK_Linux//agent_tiny/lwm2m_client/connection.c **** }
 408              		.loc 1 214 0
 409 0333 4883C418 		addq	$24, %rsp
 410              	.LCFI7:
GAS LISTING /tmp/ccryHWIO.s 			page 16


 411              		.cfi_def_cfa_offset 56
 412 0337 5B       		popq	%rbx
 413              	.LCFI8:
 414              		.cfi_def_cfa_offset 48
 415 0338 5D       		popq	%rbp
 416              	.LCFI9:
 417              		.cfi_def_cfa_offset 40
 418 0339 415C     		popq	%r12
 419              	.LCFI10:
 420              		.cfi_def_cfa_offset 32
 421              	.LVL61:
 422 033b 415D     		popq	%r13
 423              	.LCFI11:
 424              		.cfi_def_cfa_offset 24
 425              	.LVL62:
 426 033d 415E     		popq	%r14
 427              	.LCFI12:
 428              		.cfi_def_cfa_offset 16
 429 033f 415F     		popq	%r15
 430              	.LCFI13:
 431              		.cfi_def_cfa_offset 8
 432              	.LVL63:
 433 0341 C3       		ret
 434              		.cfi_endproc
 435              	.LFE72:
 437              		.section	.text.connection_free,"ax",@progbits
 438              		.globl	connection_free
 440              	connection_free:
 441              	.LFB73:
 215:/home/baikal/workspace/C50/Huawei_IoT_Agent_Tiny_SDK_Linux//agent_tiny/lwm2m_client/connection.c **** 
 216:/home/baikal/workspace/C50/Huawei_IoT_Agent_Tiny_SDK_Linux//agent_tiny/lwm2m_client/connection.c **** void connection_free(connection_t *connP)
 217:/home/baikal/workspace/C50/Huawei_IoT_Agent_Tiny_SDK_Linux//agent_tiny/lwm2m_client/connection.c **** {
 442              		.loc 1 217 0
 443              		.cfi_startproc
 444              	.LVL64:
 218:/home/baikal/workspace/C50/Huawei_IoT_Agent_Tiny_SDK_Linux//agent_tiny/lwm2m_client/connection.c ****     if(connP == NULL)
 445              		.loc 1 218 0
 446 0000 4885FF   		testq	%rdi, %rdi
 447 0003 7411     		je	.L25
 217:/home/baikal/workspace/C50/Huawei_IoT_Agent_Tiny_SDK_Linux//agent_tiny/lwm2m_client/connection.c ****     if(connP == NULL)
 448              		.loc 1 217 0
 449 0005 4883EC08 		subq	$8, %rsp
 450              	.LCFI14:
 451              		.cfi_def_cfa_offset 16
 219:/home/baikal/workspace/C50/Huawei_IoT_Agent_Tiny_SDK_Linux//agent_tiny/lwm2m_client/connection.c ****     {
 220:/home/baikal/workspace/C50/Huawei_IoT_Agent_Tiny_SDK_Linux//agent_tiny/lwm2m_client/connection.c ****         return;
 221:/home/baikal/workspace/C50/Huawei_IoT_Agent_Tiny_SDK_Linux//agent_tiny/lwm2m_client/connection.c ****     }
 222:/home/baikal/workspace/C50/Huawei_IoT_Agent_Tiny_SDK_Linux//agent_tiny/lwm2m_client/connection.c **** #ifdef WITH_DTLS
 223:/home/baikal/workspace/C50/Huawei_IoT_Agent_Tiny_SDK_Linux//agent_tiny/lwm2m_client/connection.c **** 
 224:/home/baikal/workspace/C50/Huawei_IoT_Agent_Tiny_SDK_Linux//agent_tiny/lwm2m_client/connection.c ****     if (connP->dtls_flag == true)
 225:/home/baikal/workspace/C50/Huawei_IoT_Agent_Tiny_SDK_Linux//agent_tiny/lwm2m_client/connection.c ****     {
 226:/home/baikal/workspace/C50/Huawei_IoT_Agent_Tiny_SDK_Linux//agent_tiny/lwm2m_client/connection.c ****         dtls_ssl_destroy(connP->net_context);
 227:/home/baikal/workspace/C50/Huawei_IoT_Agent_Tiny_SDK_Linux//agent_tiny/lwm2m_client/connection.c ****     }
 228:/home/baikal/workspace/C50/Huawei_IoT_Agent_Tiny_SDK_Linux//agent_tiny/lwm2m_client/connection.c ****     else
 229:/home/baikal/workspace/C50/Huawei_IoT_Agent_Tiny_SDK_Linux//agent_tiny/lwm2m_client/connection.c **** #endif
 230:/home/baikal/workspace/C50/Huawei_IoT_Agent_Tiny_SDK_Linux//agent_tiny/lwm2m_client/connection.c ****     {
 231:/home/baikal/workspace/C50/Huawei_IoT_Agent_Tiny_SDK_Linux//agent_tiny/lwm2m_client/connection.c ****         atiny_net_close(connP->net_context);
GAS LISTING /tmp/ccryHWIO.s 			page 17


 452              		.loc 1 231 0
 453 0009 488B7F08 		movq	8(%rdi), %rdi
 454              	.LVL65:
 455 000d E8000000 		call	atiny_net_close
 455      00
 456              	.LVL66:
 232:/home/baikal/workspace/C50/Huawei_IoT_Agent_Tiny_SDK_Linux//agent_tiny/lwm2m_client/connection.c ****     }
 233:/home/baikal/workspace/C50/Huawei_IoT_Agent_Tiny_SDK_Linux//agent_tiny/lwm2m_client/connection.c **** 
 234:/home/baikal/workspace/C50/Huawei_IoT_Agent_Tiny_SDK_Linux//agent_tiny/lwm2m_client/connection.c ****     return;
 235:/home/baikal/workspace/C50/Huawei_IoT_Agent_Tiny_SDK_Linux//agent_tiny/lwm2m_client/connection.c **** }
 457              		.loc 1 235 0
 458 0012 4883C408 		addq	$8, %rsp
 459              	.LCFI15:
 460              		.cfi_def_cfa_offset 8
 461              	.L25:
 462 0016 F3C3     		rep ret
 463              		.cfi_endproc
 464              	.LFE73:
 466              		.section	.rodata.str1.8
 467 0102 00000000 		.align 8
 467      0000
 468              	.LC11:
 469 0108 5B25735D 		.string	"[%s][%u][%s:%d] Now come into Connection creation in lwm2m_connect_server.\n\r\n"
 469      5B25755D 
 469      5B25733A 
 469      25645D20 
 469      4E6F7720 
 470 0156 0000     		.align 8
 471              	.LC12:
 472 0158 5B25735D 		.string	"[%s][%u][%s:%d] Connection creation failed.\n\r\n"
 472      5B25755D 
 472      5B25733A 
 472      25645D20 
 472      436F6E6E 
 473 0187 00       		.align 8
 474              	.LC13:
 475 0188 5B25735D 		.string	"[%s][%u][%s:%d] Connection creation successfully in lwm2m_connect_server.\n\r\n"
 475      5B25755D 
 475      5B25733A 
 475      25645D20 
 475      436F6E6E 
 476              		.section	.text.lwm2m_connect_server,"ax",@progbits
 477              		.globl	lwm2m_connect_server
 479              	lwm2m_connect_server:
 480              	.LFB74:
 236:/home/baikal/workspace/C50/Huawei_IoT_Agent_Tiny_SDK_Linux//agent_tiny/lwm2m_client/connection.c **** 
 237:/home/baikal/workspace/C50/Huawei_IoT_Agent_Tiny_SDK_Linux//agent_tiny/lwm2m_client/connection.c **** void *lwm2m_connect_server(uint16_t secObjInstID, void *userData, bool bootstrap_flag)
 238:/home/baikal/workspace/C50/Huawei_IoT_Agent_Tiny_SDK_Linux//agent_tiny/lwm2m_client/connection.c **** {
 481              		.loc 1 238 0
 482              		.cfi_startproc
 483              	.LVL67:
 484 0000 4156     		pushq	%r14
 485              	.LCFI16:
 486              		.cfi_def_cfa_offset 16
 487              		.cfi_offset 14, -16
 488 0002 4155     		pushq	%r13
 489              	.LCFI17:
GAS LISTING /tmp/ccryHWIO.s 			page 18


 490              		.cfi_def_cfa_offset 24
 491              		.cfi_offset 13, -24
 492 0004 4154     		pushq	%r12
 493              	.LCFI18:
 494              		.cfi_def_cfa_offset 32
 495              		.cfi_offset 12, -32
 496 0006 55       		pushq	%rbp
 497              	.LCFI19:
 498              		.cfi_def_cfa_offset 40
 499              		.cfi_offset 6, -40
 500 0007 53       		pushq	%rbx
 501              	.LCFI20:
 502              		.cfi_def_cfa_offset 48
 503              		.cfi_offset 3, -48
 504 0008 89FB     		movl	%edi, %ebx
 505 000a 4889F5   		movq	%rsi, %rbp
 506 000d 4189D4   		movl	%edx, %r12d
 507              	.LVL68:
 239:/home/baikal/workspace/C50/Huawei_IoT_Agent_Tiny_SDK_Linux//agent_tiny/lwm2m_client/connection.c ****     client_data_t *dataP;
 240:/home/baikal/workspace/C50/Huawei_IoT_Agent_Tiny_SDK_Linux//agent_tiny/lwm2m_client/connection.c ****     lwm2m_list_t *instance;
 241:/home/baikal/workspace/C50/Huawei_IoT_Agent_Tiny_SDK_Linux//agent_tiny/lwm2m_client/connection.c ****     connection_t *newConnP = NULL;
 242:/home/baikal/workspace/C50/Huawei_IoT_Agent_Tiny_SDK_Linux//agent_tiny/lwm2m_client/connection.c ****     lwm2m_object_t   *securityObj;
 243:/home/baikal/workspace/C50/Huawei_IoT_Agent_Tiny_SDK_Linux//agent_tiny/lwm2m_client/connection.c **** 
 244:/home/baikal/workspace/C50/Huawei_IoT_Agent_Tiny_SDK_Linux//agent_tiny/lwm2m_client/connection.c ****     dataP = (client_data_t *)userData;
 245:/home/baikal/workspace/C50/Huawei_IoT_Agent_Tiny_SDK_Linux//agent_tiny/lwm2m_client/connection.c ****     securityObj = dataP->securityObjP;
 508              		.loc 1 245 0
 509 0010 4C8B2E   		movq	(%rsi), %r13
 510              	.LVL69:
 246:/home/baikal/workspace/C50/Huawei_IoT_Agent_Tiny_SDK_Linux//agent_tiny/lwm2m_client/connection.c **** 
 247:/home/baikal/workspace/C50/Huawei_IoT_Agent_Tiny_SDK_Linux//agent_tiny/lwm2m_client/connection.c ****     ATINY_LOG(LOG_INFO, "Now come into Connection creation in lwm2m_connect_server.\n");
 511              		.loc 1 247 0
 512 0013 E8000000 		call	atiny_get_log_level
 512      00
 513              	.LVL70:
 514 0018 83F801   		cmpl	$1, %eax
 515 001b 7732     		ja	.L27
 516              		.loc 1 247 0 is_stmt 0 discriminator 1
 517 001d E8000000 		call	atiny_gettime_ms
 517      00
 518              	.LVL71:
 519 0022 4989C6   		movq	%rax, %r14
 520 0025 BF010000 		movl	$1, %edi
 520      00
 521 002a E8000000 		call	atiny_get_log_level_name
 521      00
 522              	.LVL72:
 523 002f 41B8F700 		movl	$247, %r8d
 523      0000
 524 0035 B9000000 		movl	$__FUNCTION__.5267, %ecx
 524      00
 525 003a 4489F2   		movl	%r14d, %edx
 526 003d 4889C6   		movq	%rax, %rsi
 527 0040 BF000000 		movl	$.LC11, %edi
 527      00
 528 0045 B8000000 		movl	$0, %eax
 528      00
 529 004a E8000000 		call	atiny_printf
GAS LISTING /tmp/ccryHWIO.s 			page 19


 529      00
 530              	.LVL73:
 531              	.L27:
 248:/home/baikal/workspace/C50/Huawei_IoT_Agent_Tiny_SDK_Linux//agent_tiny/lwm2m_client/connection.c **** 
 249:/home/baikal/workspace/C50/Huawei_IoT_Agent_Tiny_SDK_Linux//agent_tiny/lwm2m_client/connection.c ****     instance = LWM2M_LIST_FIND(dataP->securityObjP->instanceList, secObjInstID);
 532              		.loc 1 249 0 is_stmt 1
 533 004f 0FB7F3   		movzwl	%bx, %esi
 534 0052 488B4500 		movq	0(%rbp), %rax
 535 0056 488B7810 		movq	16(%rax), %rdi
 536 005a E8000000 		call	lwm2m_list_find
 536      00
 537              	.LVL74:
 250:/home/baikal/workspace/C50/Huawei_IoT_Agent_Tiny_SDK_Linux//agent_tiny/lwm2m_client/connection.c **** 
 251:/home/baikal/workspace/C50/Huawei_IoT_Agent_Tiny_SDK_Linux//agent_tiny/lwm2m_client/connection.c ****     if (instance == NULL)
 538              		.loc 1 251 0
 539 005f 4885C0   		testq	%rax, %rax
 540 0062 0F84B000 		je	.L31
 540      0000
 252:/home/baikal/workspace/C50/Huawei_IoT_Agent_Tiny_SDK_Linux//agent_tiny/lwm2m_client/connection.c ****     {
 253:/home/baikal/workspace/C50/Huawei_IoT_Agent_Tiny_SDK_Linux//agent_tiny/lwm2m_client/connection.c ****         return NULL;
 254:/home/baikal/workspace/C50/Huawei_IoT_Agent_Tiny_SDK_Linux//agent_tiny/lwm2m_client/connection.c ****     }
 255:/home/baikal/workspace/C50/Huawei_IoT_Agent_Tiny_SDK_Linux//agent_tiny/lwm2m_client/connection.c **** 
 256:/home/baikal/workspace/C50/Huawei_IoT_Agent_Tiny_SDK_Linux//agent_tiny/lwm2m_client/connection.c ****     newConnP = connection_create(dataP->connList, securityObj, instance->id, dataP->lwm2mH);
 541              		.loc 1 256 0
 542 0068 488B4D18 		movq	24(%rbp), %rcx
 543 006c 0FB75008 		movzwl	8(%rax), %edx
 544 0070 488B7D10 		movq	16(%rbp), %rdi
 545 0074 4C89EE   		movq	%r13, %rsi
 546 0077 E8000000 		call	connection_create
 546      00
 547              	.LVL75:
 548 007c 4889C3   		movq	%rax, %rbx
 549              	.LVL76:
 257:/home/baikal/workspace/C50/Huawei_IoT_Agent_Tiny_SDK_Linux//agent_tiny/lwm2m_client/connection.c **** 
 258:/home/baikal/workspace/C50/Huawei_IoT_Agent_Tiny_SDK_Linux//agent_tiny/lwm2m_client/connection.c ****     if (newConnP == NULL)
 550              		.loc 1 258 0
 551 007f 4885C0   		testq	%rax, %rax
 552 0082 7546     		jne	.L29
 259:/home/baikal/workspace/C50/Huawei_IoT_Agent_Tiny_SDK_Linux//agent_tiny/lwm2m_client/connection.c ****     {
 260:/home/baikal/workspace/C50/Huawei_IoT_Agent_Tiny_SDK_Linux//agent_tiny/lwm2m_client/connection.c ****         ATINY_LOG(LOG_INFO, "Connection creation failed.\n");
 553              		.loc 1 260 0
 554 0084 E8000000 		call	atiny_get_log_level
 554      00
 555              	.LVL77:
 556 0089 83F801   		cmpl	$1, %eax
 557 008c 0F878D00 		ja	.L32
 557      0000
 558              		.loc 1 260 0 is_stmt 0 discriminator 1
 559 0092 E8000000 		call	atiny_gettime_ms
 559      00
 560              	.LVL78:
 561 0097 4889C3   		movq	%rax, %rbx
 562              	.LVL79:
 563 009a BF010000 		movl	$1, %edi
 563      00
 564 009f E8000000 		call	atiny_get_log_level_name
 564      00
GAS LISTING /tmp/ccryHWIO.s 			page 20


 565              	.LVL80:
 566 00a4 41B80401 		movl	$260, %r8d
 566      0000
 567 00aa B9000000 		movl	$__FUNCTION__.5267, %ecx
 567      00
 568 00af 89DA     		movl	%ebx, %edx
 569 00b1 4889C6   		movq	%rax, %rsi
 570 00b4 BF000000 		movl	$.LC12, %edi
 570      00
 571 00b9 B8000000 		movl	$0, %eax
 571      00
 572 00be E8000000 		call	atiny_printf
 572      00
 573              	.LVL81:
 261:/home/baikal/workspace/C50/Huawei_IoT_Agent_Tiny_SDK_Linux//agent_tiny/lwm2m_client/connection.c ****         return NULL;
 574              		.loc 1 261 0 is_stmt 1 discriminator 1
 575 00c3 B8000000 		movl	$0, %eax
 575      00
 576 00c8 EB5A     		jmp	.L28
 577              	.LVL82:
 578              	.L29:
 262:/home/baikal/workspace/C50/Huawei_IoT_Agent_Tiny_SDK_Linux//agent_tiny/lwm2m_client/connection.c ****     }
 263:/home/baikal/workspace/C50/Huawei_IoT_Agent_Tiny_SDK_Linux//agent_tiny/lwm2m_client/connection.c ****     newConnP->bootstrap_flag = bootstrap_flag;
 579              		.loc 1 263 0
 580 00ca 450FB6E4 		movzbl	%r12b, %r12d
 581 00ce 66448960 		movw	%r12w, 30(%rax)
 581      1E
 264:/home/baikal/workspace/C50/Huawei_IoT_Agent_Tiny_SDK_Linux//agent_tiny/lwm2m_client/connection.c ****     ATINY_LOG(LOG_INFO, "Connection creation successfully in lwm2m_connect_server.\n");
 582              		.loc 1 264 0
 583 00d3 E8000000 		call	atiny_get_log_level
 583      00
 584              	.LVL83:
 585 00d8 83F801   		cmpl	$1, %eax
 586 00db 7732     		ja	.L30
 587              		.loc 1 264 0 is_stmt 0 discriminator 1
 588 00dd E8000000 		call	atiny_gettime_ms
 588      00
 589              	.LVL84:
 590 00e2 4989C4   		movq	%rax, %r12
 591 00e5 BF010000 		movl	$1, %edi
 591      00
 592 00ea E8000000 		call	atiny_get_log_level_name
 592      00
 593              	.LVL85:
 594 00ef 41B80801 		movl	$264, %r8d
 594      0000
 595 00f5 B9000000 		movl	$__FUNCTION__.5267, %ecx
 595      00
 596 00fa 4489E2   		movl	%r12d, %edx
 597 00fd 4889C6   		movq	%rax, %rsi
 598 0100 BF000000 		movl	$.LC13, %edi
 598      00
 599 0105 B8000000 		movl	$0, %eax
 599      00
 600 010a E8000000 		call	atiny_printf
 600      00
 601              	.LVL86:
GAS LISTING /tmp/ccryHWIO.s 			page 21


 602              	.L30:
 265:/home/baikal/workspace/C50/Huawei_IoT_Agent_Tiny_SDK_Linux//agent_tiny/lwm2m_client/connection.c ****     dataP->connList = newConnP;
 603              		.loc 1 265 0 is_stmt 1
 604 010f 48895D10 		movq	%rbx, 16(%rbp)
 266:/home/baikal/workspace/C50/Huawei_IoT_Agent_Tiny_SDK_Linux//agent_tiny/lwm2m_client/connection.c **** 
 267:/home/baikal/workspace/C50/Huawei_IoT_Agent_Tiny_SDK_Linux//agent_tiny/lwm2m_client/connection.c ****     return (void *)newConnP;
 605              		.loc 1 267 0
 606 0113 4889D8   		movq	%rbx, %rax
 607 0116 EB0C     		jmp	.L28
 608              	.LVL87:
 609              	.L31:
 253:/home/baikal/workspace/C50/Huawei_IoT_Agent_Tiny_SDK_Linux//agent_tiny/lwm2m_client/connection.c ****     }
 610              		.loc 1 253 0
 611 0118 B8000000 		movl	$0, %eax
 611      00
 612              	.LVL88:
 613 011d EB05     		jmp	.L28
 614              	.LVL89:
 615              	.L32:
 261:/home/baikal/workspace/C50/Huawei_IoT_Agent_Tiny_SDK_Linux//agent_tiny/lwm2m_client/connection.c ****     }
 616              		.loc 1 261 0
 617 011f B8000000 		movl	$0, %eax
 617      00
 618              	.LVL90:
 619              	.L28:
 268:/home/baikal/workspace/C50/Huawei_IoT_Agent_Tiny_SDK_Linux//agent_tiny/lwm2m_client/connection.c **** }
 620              		.loc 1 268 0
 621 0124 5B       		popq	%rbx
 622              	.LCFI21:
 623              		.cfi_def_cfa_offset 40
 624 0125 5D       		popq	%rbp
 625              	.LCFI22:
 626              		.cfi_def_cfa_offset 32
 627              	.LVL91:
 628 0126 415C     		popq	%r12
 629              	.LCFI23:
 630              		.cfi_def_cfa_offset 24
 631 0128 415D     		popq	%r13
 632              	.LCFI24:
 633              		.cfi_def_cfa_offset 16
 634              	.LVL92:
 635 012a 415E     		popq	%r14
 636              	.LCFI25:
 637              		.cfi_def_cfa_offset 8
 638 012c C3       		ret
 639              		.cfi_endproc
 640              	.LFE74:
 642              		.section	.text.lwm2m_close_connection,"ax",@progbits
 643              		.globl	lwm2m_close_connection
 645              	lwm2m_close_connection:
 646              	.LFB75:
 269:/home/baikal/workspace/C50/Huawei_IoT_Agent_Tiny_SDK_Linux//agent_tiny/lwm2m_client/connection.c **** 
 270:/home/baikal/workspace/C50/Huawei_IoT_Agent_Tiny_SDK_Linux//agent_tiny/lwm2m_client/connection.c **** void lwm2m_close_connection(void *sessionH, void *userData)
 271:/home/baikal/workspace/C50/Huawei_IoT_Agent_Tiny_SDK_Linux//agent_tiny/lwm2m_client/connection.c **** {
 647              		.loc 1 271 0
 648              		.cfi_startproc
 649              	.LVL93:
GAS LISTING /tmp/ccryHWIO.s 			page 22


 650 0000 53       		pushq	%rbx
 651              	.LCFI26:
 652              		.cfi_def_cfa_offset 16
 653              		.cfi_offset 3, -16
 654 0001 4889FB   		movq	%rdi, %rbx
 655              	.LVL94:
 272:/home/baikal/workspace/C50/Huawei_IoT_Agent_Tiny_SDK_Linux//agent_tiny/lwm2m_client/connection.c ****     client_data_t *app_data;
 273:/home/baikal/workspace/C50/Huawei_IoT_Agent_Tiny_SDK_Linux//agent_tiny/lwm2m_client/connection.c ****     connection_t *targetP;
 274:/home/baikal/workspace/C50/Huawei_IoT_Agent_Tiny_SDK_Linux//agent_tiny/lwm2m_client/connection.c **** 
 275:/home/baikal/workspace/C50/Huawei_IoT_Agent_Tiny_SDK_Linux//agent_tiny/lwm2m_client/connection.c ****     app_data = (client_data_t *)userData;
 276:/home/baikal/workspace/C50/Huawei_IoT_Agent_Tiny_SDK_Linux//agent_tiny/lwm2m_client/connection.c ****     targetP = (connection_t *)sessionH;
 277:/home/baikal/workspace/C50/Huawei_IoT_Agent_Tiny_SDK_Linux//agent_tiny/lwm2m_client/connection.c **** 
 278:/home/baikal/workspace/C50/Huawei_IoT_Agent_Tiny_SDK_Linux//agent_tiny/lwm2m_client/connection.c ****     if (targetP == app_data->connList)
 656              		.loc 1 278 0
 657 0004 488B4610 		movq	16(%rsi), %rax
 658 0008 4839C7   		cmpq	%rax, %rdi
 659 000b 7519     		jne	.L35
 279:/home/baikal/workspace/C50/Huawei_IoT_Agent_Tiny_SDK_Linux//agent_tiny/lwm2m_client/connection.c ****     {
 280:/home/baikal/workspace/C50/Huawei_IoT_Agent_Tiny_SDK_Linux//agent_tiny/lwm2m_client/connection.c ****         app_data->connList = targetP->next;
 660              		.loc 1 280 0
 661 000d 488B07   		movq	(%rdi), %rax
 662 0010 48894610 		movq	%rax, 16(%rsi)
 281:/home/baikal/workspace/C50/Huawei_IoT_Agent_Tiny_SDK_Linux//agent_tiny/lwm2m_client/connection.c ****         connection_free(targetP);
 663              		.loc 1 281 0
 664 0014 E8000000 		call	connection_free
 664      00
 665              	.LVL95:
 282:/home/baikal/workspace/C50/Huawei_IoT_Agent_Tiny_SDK_Linux//agent_tiny/lwm2m_client/connection.c ****         lwm2m_free(targetP);
 666              		.loc 1 282 0
 667 0019 4889DF   		movq	%rbx, %rdi
 668 001c E8000000 		call	lwm2m_free
 668      00
 669              	.LVL96:
 670 0021 EB2B     		jmp	.L34
 671              	.LVL97:
 672              	.L38:
 673              	.LBB10:
 283:/home/baikal/workspace/C50/Huawei_IoT_Agent_Tiny_SDK_Linux//agent_tiny/lwm2m_client/connection.c ****     }
 284:/home/baikal/workspace/C50/Huawei_IoT_Agent_Tiny_SDK_Linux//agent_tiny/lwm2m_client/connection.c ****     else
 285:/home/baikal/workspace/C50/Huawei_IoT_Agent_Tiny_SDK_Linux//agent_tiny/lwm2m_client/connection.c ****     {
 286:/home/baikal/workspace/C50/Huawei_IoT_Agent_Tiny_SDK_Linux//agent_tiny/lwm2m_client/connection.c ****         connection_t *parentP;
 287:/home/baikal/workspace/C50/Huawei_IoT_Agent_Tiny_SDK_Linux//agent_tiny/lwm2m_client/connection.c **** 
 288:/home/baikal/workspace/C50/Huawei_IoT_Agent_Tiny_SDK_Linux//agent_tiny/lwm2m_client/connection.c ****         parentP = app_data->connList;
 289:/home/baikal/workspace/C50/Huawei_IoT_Agent_Tiny_SDK_Linux//agent_tiny/lwm2m_client/connection.c **** 
 290:/home/baikal/workspace/C50/Huawei_IoT_Agent_Tiny_SDK_Linux//agent_tiny/lwm2m_client/connection.c ****         while (parentP != NULL && parentP->next != targetP)
 291:/home/baikal/workspace/C50/Huawei_IoT_Agent_Tiny_SDK_Linux//agent_tiny/lwm2m_client/connection.c ****         {
 292:/home/baikal/workspace/C50/Huawei_IoT_Agent_Tiny_SDK_Linux//agent_tiny/lwm2m_client/connection.c ****             parentP = parentP->next;
 674              		.loc 1 292 0
 675 0023 4889D0   		movq	%rdx, %rax
 676              	.LVL98:
 677              	.L35:
 290:/home/baikal/workspace/C50/Huawei_IoT_Agent_Tiny_SDK_Linux//agent_tiny/lwm2m_client/connection.c ****         {
 678              		.loc 1 290 0
 679 0026 4885C0   		testq	%rax, %rax
 680 0029 7408     		je	.L37
 290:/home/baikal/workspace/C50/Huawei_IoT_Agent_Tiny_SDK_Linux//agent_tiny/lwm2m_client/connection.c ****         {
 681              		.loc 1 290 0 is_stmt 0 discriminator 1
GAS LISTING /tmp/ccryHWIO.s 			page 23


 682 002b 488B10   		movq	(%rax), %rdx
 683 002e 4839D3   		cmpq	%rdx, %rbx
 684 0031 75F0     		jne	.L38
 685              	.L37:
 293:/home/baikal/workspace/C50/Huawei_IoT_Agent_Tiny_SDK_Linux//agent_tiny/lwm2m_client/connection.c ****         }
 294:/home/baikal/workspace/C50/Huawei_IoT_Agent_Tiny_SDK_Linux//agent_tiny/lwm2m_client/connection.c **** 
 295:/home/baikal/workspace/C50/Huawei_IoT_Agent_Tiny_SDK_Linux//agent_tiny/lwm2m_client/connection.c ****         if (parentP != NULL)
 686              		.loc 1 295 0 is_stmt 1
 687 0033 4885C0   		testq	%rax, %rax
 688 0036 7416     		je	.L34
 296:/home/baikal/workspace/C50/Huawei_IoT_Agent_Tiny_SDK_Linux//agent_tiny/lwm2m_client/connection.c ****         {
 297:/home/baikal/workspace/C50/Huawei_IoT_Agent_Tiny_SDK_Linux//agent_tiny/lwm2m_client/connection.c ****             parentP->next = targetP->next;
 689              		.loc 1 297 0
 690 0038 488B13   		movq	(%rbx), %rdx
 691 003b 488910   		movq	%rdx, (%rax)
 298:/home/baikal/workspace/C50/Huawei_IoT_Agent_Tiny_SDK_Linux//agent_tiny/lwm2m_client/connection.c ****             connection_free(targetP);
 692              		.loc 1 298 0
 693 003e 4889DF   		movq	%rbx, %rdi
 694 0041 E8000000 		call	connection_free
 694      00
 695              	.LVL99:
 299:/home/baikal/workspace/C50/Huawei_IoT_Agent_Tiny_SDK_Linux//agent_tiny/lwm2m_client/connection.c ****             lwm2m_free(targetP);
 696              		.loc 1 299 0
 697 0046 4889DF   		movq	%rbx, %rdi
 698 0049 E8000000 		call	lwm2m_free
 698      00
 699              	.LVL100:
 700              	.L34:
 701              	.LBE10:
 300:/home/baikal/workspace/C50/Huawei_IoT_Agent_Tiny_SDK_Linux//agent_tiny/lwm2m_client/connection.c ****         }
 301:/home/baikal/workspace/C50/Huawei_IoT_Agent_Tiny_SDK_Linux//agent_tiny/lwm2m_client/connection.c ****     }
 302:/home/baikal/workspace/C50/Huawei_IoT_Agent_Tiny_SDK_Linux//agent_tiny/lwm2m_client/connection.c **** 
 303:/home/baikal/workspace/C50/Huawei_IoT_Agent_Tiny_SDK_Linux//agent_tiny/lwm2m_client/connection.c ****     return;
 304:/home/baikal/workspace/C50/Huawei_IoT_Agent_Tiny_SDK_Linux//agent_tiny/lwm2m_client/connection.c **** }
 702              		.loc 1 304 0
 703 004e 5B       		popq	%rbx
 704              	.LCFI27:
 705              		.cfi_def_cfa_offset 8
 706              	.LVL101:
 707 004f C3       		ret
 708              		.cfi_endproc
 709              	.LFE75:
 711              		.section	.text.lwm2m_buffer_recv,"ax",@progbits
 712              		.globl	lwm2m_buffer_recv
 714              	lwm2m_buffer_recv:
 715              	.LFB76:
 305:/home/baikal/workspace/C50/Huawei_IoT_Agent_Tiny_SDK_Linux//agent_tiny/lwm2m_client/connection.c **** 
 306:/home/baikal/workspace/C50/Huawei_IoT_Agent_Tiny_SDK_Linux//agent_tiny/lwm2m_client/connection.c **** 
 307:/home/baikal/workspace/C50/Huawei_IoT_Agent_Tiny_SDK_Linux//agent_tiny/lwm2m_client/connection.c **** int lwm2m_buffer_recv(void *sessionH, uint8_t *buffer, size_t length, uint32_t timeout)
 308:/home/baikal/workspace/C50/Huawei_IoT_Agent_Tiny_SDK_Linux//agent_tiny/lwm2m_client/connection.c **** {
 716              		.loc 1 308 0
 717              		.cfi_startproc
 718              	.LVL102:
 719 0000 55       		pushq	%rbp
 720              	.LCFI28:
 721              		.cfi_def_cfa_offset 16
 722              		.cfi_offset 6, -16
GAS LISTING /tmp/ccryHWIO.s 			page 24


 723 0001 53       		pushq	%rbx
 724              	.LCFI29:
 725              		.cfi_def_cfa_offset 24
 726              		.cfi_offset 3, -24
 727 0002 4883EC08 		subq	$8, %rsp
 728              	.LCFI30:
 729              		.cfi_def_cfa_offset 32
 730 0006 4889FB   		movq	%rdi, %rbx
 731              	.LVL103:
 309:/home/baikal/workspace/C50/Huawei_IoT_Agent_Tiny_SDK_Linux//agent_tiny/lwm2m_client/connection.c ****     connection_t *connP = (connection_t *) sessionH;
 310:/home/baikal/workspace/C50/Huawei_IoT_Agent_Tiny_SDK_Linux//agent_tiny/lwm2m_client/connection.c ****     int ret = -1;
 311:/home/baikal/workspace/C50/Huawei_IoT_Agent_Tiny_SDK_Linux//agent_tiny/lwm2m_client/connection.c ****     const int TIME_OUT = -2;
 312:/home/baikal/workspace/C50/Huawei_IoT_Agent_Tiny_SDK_Linux//agent_tiny/lwm2m_client/connection.c **** 
 313:/home/baikal/workspace/C50/Huawei_IoT_Agent_Tiny_SDK_Linux//agent_tiny/lwm2m_client/connection.c ****     timeout *= 1000;
 732              		.loc 1 313 0
 733 0009 69C9E803 		imull	$1000, %ecx, %ecx
 733      0000
 734              	.LVL104:
 314:/home/baikal/workspace/C50/Huawei_IoT_Agent_Tiny_SDK_Linux//agent_tiny/lwm2m_client/connection.c **** #ifdef WITH_DTLS
 315:/home/baikal/workspace/C50/Huawei_IoT_Agent_Tiny_SDK_Linux//agent_tiny/lwm2m_client/connection.c **** 
 316:/home/baikal/workspace/C50/Huawei_IoT_Agent_Tiny_SDK_Linux//agent_tiny/lwm2m_client/connection.c ****     if (connP->dtls_flag == true)
 317:/home/baikal/workspace/C50/Huawei_IoT_Agent_Tiny_SDK_Linux//agent_tiny/lwm2m_client/connection.c ****     {
 318:/home/baikal/workspace/C50/Huawei_IoT_Agent_Tiny_SDK_Linux//agent_tiny/lwm2m_client/connection.c ****         // security
 319:/home/baikal/workspace/C50/Huawei_IoT_Agent_Tiny_SDK_Linux//agent_tiny/lwm2m_client/connection.c ****         ret = dtls_read(connP->net_context, buffer, length, timeout);
 320:/home/baikal/workspace/C50/Huawei_IoT_Agent_Tiny_SDK_Linux//agent_tiny/lwm2m_client/connection.c ****     }
 321:/home/baikal/workspace/C50/Huawei_IoT_Agent_Tiny_SDK_Linux//agent_tiny/lwm2m_client/connection.c ****     else
 322:/home/baikal/workspace/C50/Huawei_IoT_Agent_Tiny_SDK_Linux//agent_tiny/lwm2m_client/connection.c **** #endif
 323:/home/baikal/workspace/C50/Huawei_IoT_Agent_Tiny_SDK_Linux//agent_tiny/lwm2m_client/connection.c ****     {
 324:/home/baikal/workspace/C50/Huawei_IoT_Agent_Tiny_SDK_Linux//agent_tiny/lwm2m_client/connection.c ****         ret = atiny_net_recv_timeout(connP->net_context, buffer, length, timeout);
 735              		.loc 1 324 0
 736 000f 488B7F08 		movq	8(%rdi), %rdi
 737              	.LVL105:
 738 0013 E8000000 		call	atiny_net_recv_timeout
 738      00
 739              	.LVL106:
 740 0018 89C5     		movl	%eax, %ebp
 741              	.LVL107:
 325:/home/baikal/workspace/C50/Huawei_IoT_Agent_Tiny_SDK_Linux//agent_tiny/lwm2m_client/connection.c ****     }
 326:/home/baikal/workspace/C50/Huawei_IoT_Agent_Tiny_SDK_Linux//agent_tiny/lwm2m_client/connection.c **** 
 327:/home/baikal/workspace/C50/Huawei_IoT_Agent_Tiny_SDK_Linux//agent_tiny/lwm2m_client/connection.c ****     if((ret < 0) && (ret != TIME_OUT))
 742              		.loc 1 327 0
 743 001a C1E81F   		shrl	$31, %eax
 744              	.LVL108:
 745 001d 83FDFE   		cmpl	$-2, %ebp
 746 0020 0F95C2   		setne	%dl
 747 0023 84C2     		testb	%al, %dl
 748 0025 743B     		je	.L41
 749              	.LVL109:
 750              	.LBB11:
 751              	.LBB12:
  72:/home/baikal/workspace/C50/Huawei_IoT_Agent_Tiny_SDK_Linux//agent_tiny/lwm2m_client/connection.c ****     if(connection->errs[type] >= max_num[type])
 752              		.loc 1 72 0
 753 0027 0FB7432A 		movzwl	42(%rbx), %eax
 754 002b 83C001   		addl	$1, %eax
 755 002e 6689432A 		movw	%ax, 42(%rbx)
  73:/home/baikal/workspace/C50/Huawei_IoT_Agent_Tiny_SDK_Linux//agent_tiny/lwm2m_client/connection.c ****     {
 756              		.loc 1 73 0
GAS LISTING /tmp/ccryHWIO.s 			page 25


 757 0032 6683F809 		cmpw	$9, %ax
 758 0036 7630     		jbe	.L42
  75:/home/baikal/workspace/C50/Huawei_IoT_Agent_Tiny_SDK_Linux//agent_tiny/lwm2m_client/connection.c ****         if(g_connection_err_notify)
 759              		.loc 1 75 0
 760 0038 66C7432A 		movw	$0, 42(%rbx)
 760      0000
  76:/home/baikal/workspace/C50/Huawei_IoT_Agent_Tiny_SDK_Linux//agent_tiny/lwm2m_client/connection.c ****         {
 761              		.loc 1 76 0
 762 003e 488B0500 		movq	g_connection_err_notify(%rip), %rax
 762      000000
 763 0045 4885C0   		testq	%rax, %rax
 764 0048 741E     		je	.L42
  78:/home/baikal/workspace/C50/Huawei_IoT_Agent_Tiny_SDK_Linux//agent_tiny/lwm2m_client/connection.c ****         }
 765              		.loc 1 78 0
 766 004a 66837B1E 		cmpw	$0, 30(%rbx)
 766      00
 767 004f 0F95C2   		setne	%dl
 768 0052 0FB6D2   		movzbl	%dl, %edx
 769 0055 488B7B20 		movq	32(%rbx), %rdi
 770 0059 BE010000 		movl	$1, %esi
 770      00
 771 005e FFD0     		call	*%rax
 772              	.LVL110:
 773 0060 EB06     		jmp	.L42
 774              	.LVL111:
 775              	.L41:
 776              	.LBE12:
 777              	.LBE11:
 328:/home/baikal/workspace/C50/Huawei_IoT_Agent_Tiny_SDK_Linux//agent_tiny/lwm2m_client/connection.c ****     {
 329:/home/baikal/workspace/C50/Huawei_IoT_Agent_Tiny_SDK_Linux//agent_tiny/lwm2m_client/connection.c ****         inc_connection_stat(connP, CONNECTION_RECV_ERR);
 330:/home/baikal/workspace/C50/Huawei_IoT_Agent_Tiny_SDK_Linux//agent_tiny/lwm2m_client/connection.c ****     }
 331:/home/baikal/workspace/C50/Huawei_IoT_Agent_Tiny_SDK_Linux//agent_tiny/lwm2m_client/connection.c ****     else
 332:/home/baikal/workspace/C50/Huawei_IoT_Agent_Tiny_SDK_Linux//agent_tiny/lwm2m_client/connection.c ****     {
 333:/home/baikal/workspace/C50/Huawei_IoT_Agent_Tiny_SDK_Linux//agent_tiny/lwm2m_client/connection.c ****         connP->errs[CONNECTION_RECV_ERR] = 0;
 778              		.loc 1 333 0
 779 0062 66C7432A 		movw	$0, 42(%rbx)
 779      0000
 780              	.L42:
 334:/home/baikal/workspace/C50/Huawei_IoT_Agent_Tiny_SDK_Linux//agent_tiny/lwm2m_client/connection.c ****     }
 335:/home/baikal/workspace/C50/Huawei_IoT_Agent_Tiny_SDK_Linux//agent_tiny/lwm2m_client/connection.c ****     return ret;
 336:/home/baikal/workspace/C50/Huawei_IoT_Agent_Tiny_SDK_Linux//agent_tiny/lwm2m_client/connection.c **** }
 781              		.loc 1 336 0
 782 0068 89E8     		movl	%ebp, %eax
 783 006a 4883C408 		addq	$8, %rsp
 784              	.LCFI31:
 785              		.cfi_def_cfa_offset 24
 786 006e 5B       		popq	%rbx
 787              	.LCFI32:
 788              		.cfi_def_cfa_offset 16
 789              	.LVL112:
 790 006f 5D       		popq	%rbp
 791              	.LCFI33:
 792              		.cfi_def_cfa_offset 8
 793              	.LVL113:
 794 0070 C3       		ret
 795              		.cfi_endproc
 796              	.LFE76:
GAS LISTING /tmp/ccryHWIO.s 			page 26


 798              		.section	.rodata.str1.8
 799 01d5 000000   		.align 8
 800              	.LC14:
 801 01d8 5B25735D 		.string	"[%s][%u][%s:%d] #> failed sending %lu bytes, missing connection\r\n\r\n"
 801      5B25755D 
 801      5B25733A 
 801      25645D20 
 801      233E2066 
 802 021c 00000000 		.align 8
 803              	.LC15:
 804 0220 5B25735D 		.string	"[%s][%u][%s:%d] call connection_send in lwm2m_buffer_send, length is %d\n\r\n"
 804      5B25755D 
 804      5B25733A 
 804      25645D20 
 804      63616C6C 
 805              		.section	.text.lwm2m_buffer_send,"ax",@progbits
 806              		.globl	lwm2m_buffer_send
 808              	lwm2m_buffer_send:
 809              	.LFB77:
 337:/home/baikal/workspace/C50/Huawei_IoT_Agent_Tiny_SDK_Linux//agent_tiny/lwm2m_client/connection.c **** 
 338:/home/baikal/workspace/C50/Huawei_IoT_Agent_Tiny_SDK_Linux//agent_tiny/lwm2m_client/connection.c **** uint8_t lwm2m_buffer_send(void *sessionH,
 339:/home/baikal/workspace/C50/Huawei_IoT_Agent_Tiny_SDK_Linux//agent_tiny/lwm2m_client/connection.c ****                           uint8_t *buffer,
 340:/home/baikal/workspace/C50/Huawei_IoT_Agent_Tiny_SDK_Linux//agent_tiny/lwm2m_client/connection.c ****                           size_t length,
 341:/home/baikal/workspace/C50/Huawei_IoT_Agent_Tiny_SDK_Linux//agent_tiny/lwm2m_client/connection.c ****                           void *userdata)
 342:/home/baikal/workspace/C50/Huawei_IoT_Agent_Tiny_SDK_Linux//agent_tiny/lwm2m_client/connection.c **** {
 810              		.loc 1 342 0
 811              		.cfi_startproc
 812              	.LVL114:
 813 0000 4155     		pushq	%r13
 814              	.LCFI34:
 815              		.cfi_def_cfa_offset 16
 816              		.cfi_offset 13, -16
 817 0002 4154     		pushq	%r12
 818              	.LCFI35:
 819              		.cfi_def_cfa_offset 24
 820              		.cfi_offset 12, -24
 821 0004 55       		pushq	%rbp
 822              	.LCFI36:
 823              		.cfi_def_cfa_offset 32
 824              		.cfi_offset 6, -32
 825 0005 53       		pushq	%rbx
 826              	.LCFI37:
 827              		.cfi_def_cfa_offset 40
 828              		.cfi_offset 3, -40
 829 0006 4883EC08 		subq	$8, %rsp
 830              	.LCFI38:
 831              		.cfi_def_cfa_offset 48
 832 000a 4889D5   		movq	%rdx, %rbp
 833              	.LVL115:
 343:/home/baikal/workspace/C50/Huawei_IoT_Agent_Tiny_SDK_Linux//agent_tiny/lwm2m_client/connection.c ****     connection_t *connP = (connection_t *) sessionH;
 344:/home/baikal/workspace/C50/Huawei_IoT_Agent_Tiny_SDK_Linux//agent_tiny/lwm2m_client/connection.c ****     int ret;
 345:/home/baikal/workspace/C50/Huawei_IoT_Agent_Tiny_SDK_Linux//agent_tiny/lwm2m_client/connection.c **** 
 346:/home/baikal/workspace/C50/Huawei_IoT_Agent_Tiny_SDK_Linux//agent_tiny/lwm2m_client/connection.c ****     if (connP == NULL)
 834              		.loc 1 346 0
 835 000d 4885FF   		testq	%rdi, %rdi
 836 0010 754C     		jne	.L45
 347:/home/baikal/workspace/C50/Huawei_IoT_Agent_Tiny_SDK_Linux//agent_tiny/lwm2m_client/connection.c ****     {
GAS LISTING /tmp/ccryHWIO.s 			page 27


 348:/home/baikal/workspace/C50/Huawei_IoT_Agent_Tiny_SDK_Linux//agent_tiny/lwm2m_client/connection.c ****         ATINY_LOG(LOG_INFO, "#> failed sending %lu bytes, missing connection\r\n", (unsigned long)l
 837              		.loc 1 348 0
 838 0012 E8000000 		call	atiny_get_log_level
 838      00
 839              	.LVL116:
 840 0017 83F801   		cmpl	$1, %eax
 841 001a 0F87E300 		ja	.L49
 841      0000
 842              		.loc 1 348 0 is_stmt 0 discriminator 1
 843 0020 E8000000 		call	atiny_gettime_ms
 843      00
 844              	.LVL117:
 845 0025 4889C3   		movq	%rax, %rbx
 846 0028 BF010000 		movl	$1, %edi
 846      00
 847 002d E8000000 		call	atiny_get_log_level_name
 847      00
 848              	.LVL118:
 849 0032 4989E9   		movq	%rbp, %r9
 850 0035 41B85C01 		movl	$348, %r8d
 850      0000
 851 003b B9000000 		movl	$__FUNCTION__.5295, %ecx
 851      00
 852 0040 89DA     		movl	%ebx, %edx
 853 0042 4889C6   		movq	%rax, %rsi
 854 0045 BF000000 		movl	$.LC14, %edi
 854      00
 855 004a B8000000 		movl	$0, %eax
 855      00
 856 004f E8000000 		call	atiny_printf
 856      00
 857              	.LVL119:
 349:/home/baikal/workspace/C50/Huawei_IoT_Agent_Tiny_SDK_Linux//agent_tiny/lwm2m_client/connection.c ****         return COAP_500_INTERNAL_SERVER_ERROR ;
 858              		.loc 1 349 0 is_stmt 1 discriminator 1
 859 0054 B8A0FFFF 		movl	$-96, %eax
 859      FF
 860 0059 E9B80000 		jmp	.L46
 860      00
 861              	.LVL120:
 862              	.L45:
 863 005e 4889FB   		movq	%rdi, %rbx
 864 0061 4989F4   		movq	%rsi, %r12
 350:/home/baikal/workspace/C50/Huawei_IoT_Agent_Tiny_SDK_Linux//agent_tiny/lwm2m_client/connection.c ****     }
 351:/home/baikal/workspace/C50/Huawei_IoT_Agent_Tiny_SDK_Linux//agent_tiny/lwm2m_client/connection.c **** 
 352:/home/baikal/workspace/C50/Huawei_IoT_Agent_Tiny_SDK_Linux//agent_tiny/lwm2m_client/connection.c ****     ATINY_LOG(LOG_INFO, "call connection_send in lwm2m_buffer_send, length is %d\n", length);
 865              		.loc 1 352 0
 866 0064 E8000000 		call	atiny_get_log_level
 866      00
 867              	.LVL121:
 868 0069 83F801   		cmpl	$1, %eax
 869 006c 7735     		ja	.L47
 870              		.loc 1 352 0 is_stmt 0 discriminator 1
 871 006e E8000000 		call	atiny_gettime_ms
 871      00
 872              	.LVL122:
 873 0073 4989C5   		movq	%rax, %r13
 874 0076 BF010000 		movl	$1, %edi
GAS LISTING /tmp/ccryHWIO.s 			page 28


 874      00
 875 007b E8000000 		call	atiny_get_log_level_name
 875      00
 876              	.LVL123:
 877 0080 4989E9   		movq	%rbp, %r9
 878 0083 41B86001 		movl	$352, %r8d
 878      0000
 879 0089 B9000000 		movl	$__FUNCTION__.5295, %ecx
 879      00
 880 008e 4489EA   		movl	%r13d, %edx
 881 0091 4889C6   		movq	%rax, %rsi
 882 0094 BF000000 		movl	$.LC15, %edi
 882      00
 883 0099 B8000000 		movl	$0, %eax
 883      00
 884 009e E8000000 		call	atiny_printf
 884      00
 885              	.LVL124:
 886              	.L47:
 353:/home/baikal/workspace/C50/Huawei_IoT_Agent_Tiny_SDK_Linux//agent_tiny/lwm2m_client/connection.c **** 
 354:/home/baikal/workspace/C50/Huawei_IoT_Agent_Tiny_SDK_Linux//agent_tiny/lwm2m_client/connection.c **** #ifdef WITH_DTLS
 355:/home/baikal/workspace/C50/Huawei_IoT_Agent_Tiny_SDK_Linux//agent_tiny/lwm2m_client/connection.c **** 
 356:/home/baikal/workspace/C50/Huawei_IoT_Agent_Tiny_SDK_Linux//agent_tiny/lwm2m_client/connection.c ****     if (connP->dtls_flag == true)
 357:/home/baikal/workspace/C50/Huawei_IoT_Agent_Tiny_SDK_Linux//agent_tiny/lwm2m_client/connection.c ****     {
 358:/home/baikal/workspace/C50/Huawei_IoT_Agent_Tiny_SDK_Linux//agent_tiny/lwm2m_client/connection.c ****         // security
 359:/home/baikal/workspace/C50/Huawei_IoT_Agent_Tiny_SDK_Linux//agent_tiny/lwm2m_client/connection.c ****         ret = dtls_write(connP->net_context, buffer, length);
 360:/home/baikal/workspace/C50/Huawei_IoT_Agent_Tiny_SDK_Linux//agent_tiny/lwm2m_client/connection.c ****     }
 361:/home/baikal/workspace/C50/Huawei_IoT_Agent_Tiny_SDK_Linux//agent_tiny/lwm2m_client/connection.c ****     else
 362:/home/baikal/workspace/C50/Huawei_IoT_Agent_Tiny_SDK_Linux//agent_tiny/lwm2m_client/connection.c **** #endif
 363:/home/baikal/workspace/C50/Huawei_IoT_Agent_Tiny_SDK_Linux//agent_tiny/lwm2m_client/connection.c ****     {
 364:/home/baikal/workspace/C50/Huawei_IoT_Agent_Tiny_SDK_Linux//agent_tiny/lwm2m_client/connection.c ****         ret = atiny_net_send(connP->net_context, buffer, length);
 887              		.loc 1 364 0 is_stmt 1
 888 00a3 488B7B08 		movq	8(%rbx), %rdi
 889 00a7 4889EA   		movq	%rbp, %rdx
 890 00aa 4C89E6   		movq	%r12, %rsi
 891 00ad E8000000 		call	atiny_net_send
 891      00
 892              	.LVL125:
 365:/home/baikal/workspace/C50/Huawei_IoT_Agent_Tiny_SDK_Linux//agent_tiny/lwm2m_client/connection.c ****     }
 366:/home/baikal/workspace/C50/Huawei_IoT_Agent_Tiny_SDK_Linux//agent_tiny/lwm2m_client/connection.c **** 
 367:/home/baikal/workspace/C50/Huawei_IoT_Agent_Tiny_SDK_Linux//agent_tiny/lwm2m_client/connection.c ****     if(ret >= 0)
 893              		.loc 1 367 0
 894 00b2 85C0     		testl	%eax, %eax
 895 00b4 780D     		js	.L48
 368:/home/baikal/workspace/C50/Huawei_IoT_Agent_Tiny_SDK_Linux//agent_tiny/lwm2m_client/connection.c ****     {
 369:/home/baikal/workspace/C50/Huawei_IoT_Agent_Tiny_SDK_Linux//agent_tiny/lwm2m_client/connection.c ****         connP->errs[CONNECTION_SEND_ERR] = 0;
 896              		.loc 1 369 0
 897 00b6 66C74328 		movw	$0, 40(%rbx)
 897      0000
 370:/home/baikal/workspace/C50/Huawei_IoT_Agent_Tiny_SDK_Linux//agent_tiny/lwm2m_client/connection.c ****         return COAP_NO_ERROR;
 898              		.loc 1 370 0
 899 00bc B8000000 		movl	$0, %eax
 899      00
 900              	.LVL126:
 901 00c1 EB53     		jmp	.L46
 902              	.LVL127:
 903              	.L48:
GAS LISTING /tmp/ccryHWIO.s 			page 29


 904              	.LBB13:
 905              	.LBB14:
  72:/home/baikal/workspace/C50/Huawei_IoT_Agent_Tiny_SDK_Linux//agent_tiny/lwm2m_client/connection.c ****     if(connection->errs[type] >= max_num[type])
 906              		.loc 1 72 0
 907 00c3 0FB74328 		movzwl	40(%rbx), %eax
 908              	.LVL128:
 909 00c7 83C001   		addl	$1, %eax
 910 00ca 66894328 		movw	%ax, 40(%rbx)
  73:/home/baikal/workspace/C50/Huawei_IoT_Agent_Tiny_SDK_Linux//agent_tiny/lwm2m_client/connection.c ****     {
 911              		.loc 1 73 0
 912 00ce 6683F809 		cmpw	$9, %ax
 913 00d2 7636     		jbe	.L50
  75:/home/baikal/workspace/C50/Huawei_IoT_Agent_Tiny_SDK_Linux//agent_tiny/lwm2m_client/connection.c ****         if(g_connection_err_notify)
 914              		.loc 1 75 0
 915 00d4 66C74328 		movw	$0, 40(%rbx)
 915      0000
  76:/home/baikal/workspace/C50/Huawei_IoT_Agent_Tiny_SDK_Linux//agent_tiny/lwm2m_client/connection.c ****         {
 916              		.loc 1 76 0
 917 00da 488B0500 		movq	g_connection_err_notify(%rip), %rax
 917      000000
 918 00e1 4885C0   		testq	%rax, %rax
 919 00e4 742B     		je	.L51
  78:/home/baikal/workspace/C50/Huawei_IoT_Agent_Tiny_SDK_Linux//agent_tiny/lwm2m_client/connection.c ****         }
 920              		.loc 1 78 0
 921 00e6 66837B1E 		cmpw	$0, 30(%rbx)
 921      00
 922 00eb 0F95C2   		setne	%dl
 923 00ee 0FB6D2   		movzbl	%dl, %edx
 924 00f1 488B7B20 		movq	32(%rbx), %rdi
 925 00f5 BE000000 		movl	$0, %esi
 925      00
 926 00fa FFD0     		call	*%rax
 927              	.LVL129:
 928              	.LBE14:
 929              	.LBE13:
 371:/home/baikal/workspace/C50/Huawei_IoT_Agent_Tiny_SDK_Linux//agent_tiny/lwm2m_client/connection.c ****     }
 372:/home/baikal/workspace/C50/Huawei_IoT_Agent_Tiny_SDK_Linux//agent_tiny/lwm2m_client/connection.c ****     else
 373:/home/baikal/workspace/C50/Huawei_IoT_Agent_Tiny_SDK_Linux//agent_tiny/lwm2m_client/connection.c ****     {
 374:/home/baikal/workspace/C50/Huawei_IoT_Agent_Tiny_SDK_Linux//agent_tiny/lwm2m_client/connection.c ****         inc_connection_stat(connP, CONNECTION_SEND_ERR);
 375:/home/baikal/workspace/C50/Huawei_IoT_Agent_Tiny_SDK_Linux//agent_tiny/lwm2m_client/connection.c ****         return COAP_500_INTERNAL_SERVER_ERROR;
 930              		.loc 1 375 0
 931 00fc B8A0FFFF 		movl	$-96, %eax
 931      FF
 932 0101 EB13     		jmp	.L46
 933              	.LVL130:
 934              	.L49:
 349:/home/baikal/workspace/C50/Huawei_IoT_Agent_Tiny_SDK_Linux//agent_tiny/lwm2m_client/connection.c ****     }
 935              		.loc 1 349 0
 936 0103 B8A0FFFF 		movl	$-96, %eax
 936      FF
 937 0108 EB0C     		jmp	.L46
 938              	.LVL131:
 939              	.L50:
 940              		.loc 1 375 0
 941 010a B8A0FFFF 		movl	$-96, %eax
 941      FF
 942 010f EB05     		jmp	.L46
GAS LISTING /tmp/ccryHWIO.s 			page 30


 943              	.L51:
 944 0111 B8A0FFFF 		movl	$-96, %eax
 944      FF
 945              	.LVL132:
 946              	.L46:
 376:/home/baikal/workspace/C50/Huawei_IoT_Agent_Tiny_SDK_Linux//agent_tiny/lwm2m_client/connection.c ****     }
 377:/home/baikal/workspace/C50/Huawei_IoT_Agent_Tiny_SDK_Linux//agent_tiny/lwm2m_client/connection.c **** }
 947              		.loc 1 377 0
 948 0116 4883C408 		addq	$8, %rsp
 949              	.LCFI39:
 950              		.cfi_def_cfa_offset 40
 951 011a 5B       		popq	%rbx
 952              	.LCFI40:
 953              		.cfi_def_cfa_offset 32
 954 011b 5D       		popq	%rbp
 955              	.LCFI41:
 956              		.cfi_def_cfa_offset 24
 957              	.LVL133:
 958 011c 415C     		popq	%r12
 959              	.LCFI42:
 960              		.cfi_def_cfa_offset 16
 961 011e 415D     		popq	%r13
 962              	.LCFI43:
 963              		.cfi_def_cfa_offset 8
 964 0120 C3       		ret
 965              		.cfi_endproc
 966              	.LFE77:
 968              		.section	.text.lwm2m_session_is_equal,"ax",@progbits
 969              		.globl	lwm2m_session_is_equal
 971              	lwm2m_session_is_equal:
 972              	.LFB78:
 378:/home/baikal/workspace/C50/Huawei_IoT_Agent_Tiny_SDK_Linux//agent_tiny/lwm2m_client/connection.c **** 
 379:/home/baikal/workspace/C50/Huawei_IoT_Agent_Tiny_SDK_Linux//agent_tiny/lwm2m_client/connection.c **** bool lwm2m_session_is_equal(void *session1, void *session2, void *userData)
 380:/home/baikal/workspace/C50/Huawei_IoT_Agent_Tiny_SDK_Linux//agent_tiny/lwm2m_client/connection.c **** {
 973              		.loc 1 380 0
 974              		.cfi_startproc
 975              	.LVL134:
 381:/home/baikal/workspace/C50/Huawei_IoT_Agent_Tiny_SDK_Linux//agent_tiny/lwm2m_client/connection.c ****     return (session1 == session2);
 976              		.loc 1 381 0
 977 0000 4839F7   		cmpq	%rsi, %rdi
 978 0003 0F94C0   		sete	%al
 382:/home/baikal/workspace/C50/Huawei_IoT_Agent_Tiny_SDK_Linux//agent_tiny/lwm2m_client/connection.c **** }
 979              		.loc 1 382 0
 980 0006 C3       		ret
 981              		.cfi_endproc
 982              	.LFE78:
 984              		.section	.text.lwm2m_register_connection_err_notify,"ax",@progbits
 985              		.globl	lwm2m_register_connection_err_notify
 987              	lwm2m_register_connection_err_notify:
 988              	.LFB79:
 383:/home/baikal/workspace/C50/Huawei_IoT_Agent_Tiny_SDK_Linux//agent_tiny/lwm2m_client/connection.c **** 
 384:/home/baikal/workspace/C50/Huawei_IoT_Agent_Tiny_SDK_Linux//agent_tiny/lwm2m_client/connection.c **** void lwm2m_register_connection_err_notify(lwm2m_connection_err_notify_t nofiy)
 385:/home/baikal/workspace/C50/Huawei_IoT_Agent_Tiny_SDK_Linux//agent_tiny/lwm2m_client/connection.c **** {
 989              		.loc 1 385 0
 990              		.cfi_startproc
 991              	.LVL135:
 386:/home/baikal/workspace/C50/Huawei_IoT_Agent_Tiny_SDK_Linux//agent_tiny/lwm2m_client/connection.c ****     g_connection_err_notify = nofiy;
GAS LISTING /tmp/ccryHWIO.s 			page 31


 992              		.loc 1 386 0
 993 0000 48893D00 		movq	%rdi, g_connection_err_notify(%rip)
 993      000000
 994 0007 C3       		ret
 995              		.cfi_endproc
 996              	.LFE79:
 998              		.section	.rodata.__FUNCTION__.5295,"a",@progbits
 999              		.align 16
 1002              	__FUNCTION__.5295:
 1003 0000 6C776D32 		.string	"lwm2m_buffer_send"
 1003      6D5F6275 
 1003      66666572 
 1003      5F73656E 
 1003      6400
 1004              		.section	.rodata.__FUNCTION__.5267,"a",@progbits
 1005              		.align 16
 1008              	__FUNCTION__.5267:
 1009 0000 6C776D32 		.string	"lwm2m_connect_server"
 1009      6D5F636F 
 1009      6E6E6563 
 1009      745F7365 
 1009      72766572 
 1010              		.section	.rodata.__FUNCTION__.5236,"a",@progbits
 1011              		.align 16
 1014              	__FUNCTION__.5236:
 1015 0000 636F6E6E 		.string	"connection_create"
 1015      65637469 
 1015      6F6E5F63 
 1015      72656174 
 1015      6500
 1016              		.section	.bss.g_connection_err_notify,"aw",@nobits
 1017              		.align 8
 1020              	g_connection_err_notify:
 1021 0000 00000000 		.zero	8
 1021      00000000 
 1022              		.text
 1023              	.Letext0:
 1024              		.file 3 "/usr/include/x86_64-linux-gnu/bits/types.h"
 1025              		.file 4 "/usr/include/stdint.h"
 1026              		.file 5 "/usr/lib/gcc/x86_64-linux-gnu/5/include/stddef.h"
 1027              		.file 6 "/usr/include/time.h"
 1028              		.file 7 "/home/baikal/workspace/C50/Huawei_IoT_Agent_Tiny_SDK_Linux//lwm2m/core/er-coap-13/er-coap
 1029              		.file 8 "/usr/include/libio.h"
 1030              		.file 9 "/home/baikal/workspace/C50/Huawei_IoT_Agent_Tiny_SDK_Linux//lwm2m/core/liblwm2m.h"
 1031              		.file 10 "/home/baikal/workspace/C50/Huawei_IoT_Agent_Tiny_SDK_Linux//agent_tiny/lwm2m_client/conn
 1032              		.file 11 "/home/baikal/workspace/C50/Huawei_IoT_Agent_Tiny_SDK_Linux//agent_tiny/lwm2m_client/atin
 1033              		.file 12 "/home/baikal/workspace/C50/Huawei_IoT_Agent_Tiny_SDK_Linux//agent_tiny/lwm2m_client/obje
 1034              		.file 13 "/usr/include/stdio.h"
 1035              		.file 14 "/home/baikal/workspace/C50/Huawei_IoT_Agent_Tiny_SDK_Linux//agent_tiny/osadapter/atiny_a
 1036              		.file 15 "/usr/include/string.h"
 1037              		.file 16 "/home/baikal/workspace/C50/Huawei_IoT_Agent_Tiny_SDK_Linux//agent_tiny/osadapter/atiny_s
GAS LISTING /tmp/ccryHWIO.s 			page 32

