GAS LISTING /tmp/ccf9kSf2.s 			page 1


   1              		.file	"data.c"
   2              		.text
   3              	.Ltext0:
   4              		.section	.text.prv_setBuffer,"ax",@progbits
   6              	prv_setBuffer:
   7              	.LFB65:
   8              		.file 1 "/home/baikal/workspace/C50/Huawei_IoT_Agent_Tiny_SDK_Linux//lwm2m/core/data.c"
   1:/home/baikal/workspace/C50/Huawei_IoT_Agent_Tiny_SDK_Linux//lwm2m/core/data.c **** /*----------------------------------------------------------------------------
   2:/home/baikal/workspace/C50/Huawei_IoT_Agent_Tiny_SDK_Linux//lwm2m/core/data.c ****  * Copyright (c) <2016-2018>, <Huawei Technologies Co., Ltd>
   3:/home/baikal/workspace/C50/Huawei_IoT_Agent_Tiny_SDK_Linux//lwm2m/core/data.c ****  * All rights reserved.
   4:/home/baikal/workspace/C50/Huawei_IoT_Agent_Tiny_SDK_Linux//lwm2m/core/data.c ****  * Redistribution and use in source and binary forms, with or without modification,
   5:/home/baikal/workspace/C50/Huawei_IoT_Agent_Tiny_SDK_Linux//lwm2m/core/data.c ****  * are permitted provided that the following conditions are met:
   6:/home/baikal/workspace/C50/Huawei_IoT_Agent_Tiny_SDK_Linux//lwm2m/core/data.c ****  * 1. Redistributions of source code must retain the above copyright notice, this list of
   7:/home/baikal/workspace/C50/Huawei_IoT_Agent_Tiny_SDK_Linux//lwm2m/core/data.c ****  * conditions and the following disclaimer.
   8:/home/baikal/workspace/C50/Huawei_IoT_Agent_Tiny_SDK_Linux//lwm2m/core/data.c ****  * 2. Redistributions in binary form must reproduce the above copyright notice, this list
   9:/home/baikal/workspace/C50/Huawei_IoT_Agent_Tiny_SDK_Linux//lwm2m/core/data.c ****  * of conditions and the following disclaimer in the documentation and/or other materials
  10:/home/baikal/workspace/C50/Huawei_IoT_Agent_Tiny_SDK_Linux//lwm2m/core/data.c ****  * provided with the distribution.
  11:/home/baikal/workspace/C50/Huawei_IoT_Agent_Tiny_SDK_Linux//lwm2m/core/data.c ****  * 3. Neither the name of the copyright holder nor the names of its contributors may be used
  12:/home/baikal/workspace/C50/Huawei_IoT_Agent_Tiny_SDK_Linux//lwm2m/core/data.c ****  * to endorse or promote products derived from this software without specific prior written
  13:/home/baikal/workspace/C50/Huawei_IoT_Agent_Tiny_SDK_Linux//lwm2m/core/data.c ****  * permission.
  14:/home/baikal/workspace/C50/Huawei_IoT_Agent_Tiny_SDK_Linux//lwm2m/core/data.c ****  * THIS SOFTWARE IS PROVIDED BY THE COPYRIGHT HOLDERS AND CONTRIBUTORS
  15:/home/baikal/workspace/C50/Huawei_IoT_Agent_Tiny_SDK_Linux//lwm2m/core/data.c ****  * "AS IS" AND ANY EXPRESS OR IMPLIED WARRANTIES, INCLUDING, BUT NOT LIMITED TO,
  16:/home/baikal/workspace/C50/Huawei_IoT_Agent_Tiny_SDK_Linux//lwm2m/core/data.c ****  * THE IMPLIED WARRANTIES OF MERCHANTABILITY AND FITNESS FOR A PARTICULAR
  17:/home/baikal/workspace/C50/Huawei_IoT_Agent_Tiny_SDK_Linux//lwm2m/core/data.c ****  * PURPOSE ARE DISCLAIMED. IN NO EVENT SHALL THE COPYRIGHT HOLDER OR
  18:/home/baikal/workspace/C50/Huawei_IoT_Agent_Tiny_SDK_Linux//lwm2m/core/data.c ****  * CONTRIBUTORS BE LIABLE FOR ANY DIRECT, INDIRECT, INCIDENTAL, SPECIAL,
  19:/home/baikal/workspace/C50/Huawei_IoT_Agent_Tiny_SDK_Linux//lwm2m/core/data.c ****  * EXEMPLARY, OR CONSEQUENTIAL DAMAGES (INCLUDING, BUT NOT LIMITED TO,
  20:/home/baikal/workspace/C50/Huawei_IoT_Agent_Tiny_SDK_Linux//lwm2m/core/data.c ****  * PROCUREMENT OF SUBSTITUTE GOODS OR SERVICES; LOSS OF USE, DATA, OR PROFITS;
  21:/home/baikal/workspace/C50/Huawei_IoT_Agent_Tiny_SDK_Linux//lwm2m/core/data.c ****  * OR BUSINESS INTERRUPTION) HOWEVER CAUSED AND ON ANY THEORY OF LIABILITY,
  22:/home/baikal/workspace/C50/Huawei_IoT_Agent_Tiny_SDK_Linux//lwm2m/core/data.c ****  * WHETHER IN CONTRACT, STRICT LIABILITY, OR TORT (INCLUDING NEGLIGENCE OR
  23:/home/baikal/workspace/C50/Huawei_IoT_Agent_Tiny_SDK_Linux//lwm2m/core/data.c ****  * OTHERWISE) ARISING IN ANY WAY OUT OF THE USE OF THIS SOFTWARE, EVEN IF
  24:/home/baikal/workspace/C50/Huawei_IoT_Agent_Tiny_SDK_Linux//lwm2m/core/data.c ****  * ADVISED OF THE POSSIBILITY OF SUCH DAMAGE.
  25:/home/baikal/workspace/C50/Huawei_IoT_Agent_Tiny_SDK_Linux//lwm2m/core/data.c ****  *---------------------------------------------------------------------------*/
  26:/home/baikal/workspace/C50/Huawei_IoT_Agent_Tiny_SDK_Linux//lwm2m/core/data.c **** /*----------------------------------------------------------------------------
  27:/home/baikal/workspace/C50/Huawei_IoT_Agent_Tiny_SDK_Linux//lwm2m/core/data.c ****  * Notice of Export Control Law
  28:/home/baikal/workspace/C50/Huawei_IoT_Agent_Tiny_SDK_Linux//lwm2m/core/data.c ****  * ===============================================
  29:/home/baikal/workspace/C50/Huawei_IoT_Agent_Tiny_SDK_Linux//lwm2m/core/data.c ****  * Huawei LiteOS may be subject to applicable export control laws and regulations, which might
  30:/home/baikal/workspace/C50/Huawei_IoT_Agent_Tiny_SDK_Linux//lwm2m/core/data.c ****  * include those applicable to Huawei LiteOS of U.S. and the country in which you are located.
  31:/home/baikal/workspace/C50/Huawei_IoT_Agent_Tiny_SDK_Linux//lwm2m/core/data.c ****  * Import, export and usage of Huawei LiteOS in any manner by you shall be in compliance with such
  32:/home/baikal/workspace/C50/Huawei_IoT_Agent_Tiny_SDK_Linux//lwm2m/core/data.c ****  * applicable export control laws and regulations.
  33:/home/baikal/workspace/C50/Huawei_IoT_Agent_Tiny_SDK_Linux//lwm2m/core/data.c ****  *---------------------------------------------------------------------------*/
  34:/home/baikal/workspace/C50/Huawei_IoT_Agent_Tiny_SDK_Linux//lwm2m/core/data.c **** 
  35:/home/baikal/workspace/C50/Huawei_IoT_Agent_Tiny_SDK_Linux//lwm2m/core/data.c **** /*******************************************************************************
  36:/home/baikal/workspace/C50/Huawei_IoT_Agent_Tiny_SDK_Linux//lwm2m/core/data.c **** *
  37:/home/baikal/workspace/C50/Huawei_IoT_Agent_Tiny_SDK_Linux//lwm2m/core/data.c **** * Copyright (c) 2013, 2014 Intel Corporation and others.
  38:/home/baikal/workspace/C50/Huawei_IoT_Agent_Tiny_SDK_Linux//lwm2m/core/data.c **** * All rights reserved. This program and the accompanying materials
  39:/home/baikal/workspace/C50/Huawei_IoT_Agent_Tiny_SDK_Linux//lwm2m/core/data.c **** * are made available under the terms of the Eclipse Public License v1.0
  40:/home/baikal/workspace/C50/Huawei_IoT_Agent_Tiny_SDK_Linux//lwm2m/core/data.c **** * and Eclipse Distribution License v1.0 which accompany this distribution.
  41:/home/baikal/workspace/C50/Huawei_IoT_Agent_Tiny_SDK_Linux//lwm2m/core/data.c **** *
  42:/home/baikal/workspace/C50/Huawei_IoT_Agent_Tiny_SDK_Linux//lwm2m/core/data.c **** * The Eclipse Public License is available at
  43:/home/baikal/workspace/C50/Huawei_IoT_Agent_Tiny_SDK_Linux//lwm2m/core/data.c **** *    http://www.eclipse.org/legal/epl-v10.html
  44:/home/baikal/workspace/C50/Huawei_IoT_Agent_Tiny_SDK_Linux//lwm2m/core/data.c **** * The Eclipse Distribution License is available at
  45:/home/baikal/workspace/C50/Huawei_IoT_Agent_Tiny_SDK_Linux//lwm2m/core/data.c **** *    http://www.eclipse.org/org/documents/edl-v10.php.
  46:/home/baikal/workspace/C50/Huawei_IoT_Agent_Tiny_SDK_Linux//lwm2m/core/data.c **** *
  47:/home/baikal/workspace/C50/Huawei_IoT_Agent_Tiny_SDK_Linux//lwm2m/core/data.c **** * Contributors:
  48:/home/baikal/workspace/C50/Huawei_IoT_Agent_Tiny_SDK_Linux//lwm2m/core/data.c **** *    David Navarro, Intel Corporation - initial API and implementation
  49:/home/baikal/workspace/C50/Huawei_IoT_Agent_Tiny_SDK_Linux//lwm2m/core/data.c **** *    Fabien Fleutot - Please refer to git log
  50:/home/baikal/workspace/C50/Huawei_IoT_Agent_Tiny_SDK_Linux//lwm2m/core/data.c **** *    Bosch Software Innovations GmbH - Please refer to git log
GAS LISTING /tmp/ccf9kSf2.s 			page 2


  51:/home/baikal/workspace/C50/Huawei_IoT_Agent_Tiny_SDK_Linux//lwm2m/core/data.c **** *
  52:/home/baikal/workspace/C50/Huawei_IoT_Agent_Tiny_SDK_Linux//lwm2m/core/data.c **** *******************************************************************************/
  53:/home/baikal/workspace/C50/Huawei_IoT_Agent_Tiny_SDK_Linux//lwm2m/core/data.c **** 
  54:/home/baikal/workspace/C50/Huawei_IoT_Agent_Tiny_SDK_Linux//lwm2m/core/data.c **** #include "internals.h"
  55:/home/baikal/workspace/C50/Huawei_IoT_Agent_Tiny_SDK_Linux//lwm2m/core/data.c **** #include <float.h>
  56:/home/baikal/workspace/C50/Huawei_IoT_Agent_Tiny_SDK_Linux//lwm2m/core/data.c **** 
  57:/home/baikal/workspace/C50/Huawei_IoT_Agent_Tiny_SDK_Linux//lwm2m/core/data.c **** #define _PRV_STR_LENGTH 32
  58:/home/baikal/workspace/C50/Huawei_IoT_Agent_Tiny_SDK_Linux//lwm2m/core/data.c **** 
  59:/home/baikal/workspace/C50/Huawei_IoT_Agent_Tiny_SDK_Linux//lwm2m/core/data.c **** 
  60:/home/baikal/workspace/C50/Huawei_IoT_Agent_Tiny_SDK_Linux//lwm2m/core/data.c **** void lwm2m_data_decode_opaque(const lwm2m_data_t *dataP,
  61:/home/baikal/workspace/C50/Huawei_IoT_Agent_Tiny_SDK_Linux//lwm2m/core/data.c ****                               int8_t *valueP)
  62:/home/baikal/workspace/C50/Huawei_IoT_Agent_Tiny_SDK_Linux//lwm2m/core/data.c **** {
  63:/home/baikal/workspace/C50/Huawei_IoT_Agent_Tiny_SDK_Linux//lwm2m/core/data.c ****     memcpy(valueP, dataP->value.asBuffer.buffer, dataP->value.asBuffer.length);
  64:/home/baikal/workspace/C50/Huawei_IoT_Agent_Tiny_SDK_Linux//lwm2m/core/data.c **** }
  65:/home/baikal/workspace/C50/Huawei_IoT_Agent_Tiny_SDK_Linux//lwm2m/core/data.c **** 
  66:/home/baikal/workspace/C50/Huawei_IoT_Agent_Tiny_SDK_Linux//lwm2m/core/data.c **** // dataP array length is assumed to be 1.
  67:/home/baikal/workspace/C50/Huawei_IoT_Agent_Tiny_SDK_Linux//lwm2m/core/data.c **** static int prv_textSerialize(lwm2m_data_t *dataP,
  68:/home/baikal/workspace/C50/Huawei_IoT_Agent_Tiny_SDK_Linux//lwm2m/core/data.c ****                              uint8_t **bufferP)
  69:/home/baikal/workspace/C50/Huawei_IoT_Agent_Tiny_SDK_Linux//lwm2m/core/data.c **** {
  70:/home/baikal/workspace/C50/Huawei_IoT_Agent_Tiny_SDK_Linux//lwm2m/core/data.c ****     size_t res;
  71:/home/baikal/workspace/C50/Huawei_IoT_Agent_Tiny_SDK_Linux//lwm2m/core/data.c **** 
  72:/home/baikal/workspace/C50/Huawei_IoT_Agent_Tiny_SDK_Linux//lwm2m/core/data.c ****     switch (dataP->type)
  73:/home/baikal/workspace/C50/Huawei_IoT_Agent_Tiny_SDK_Linux//lwm2m/core/data.c ****     {
  74:/home/baikal/workspace/C50/Huawei_IoT_Agent_Tiny_SDK_Linux//lwm2m/core/data.c ****     case LWM2M_TYPE_STRING:
  75:/home/baikal/workspace/C50/Huawei_IoT_Agent_Tiny_SDK_Linux//lwm2m/core/data.c ****         *bufferP = (uint8_t *)lwm2m_malloc(dataP->value.asBuffer.length);
  76:/home/baikal/workspace/C50/Huawei_IoT_Agent_Tiny_SDK_Linux//lwm2m/core/data.c ****         if (*bufferP == NULL) return 0;
  77:/home/baikal/workspace/C50/Huawei_IoT_Agent_Tiny_SDK_Linux//lwm2m/core/data.c ****         memcpy(*bufferP, dataP->value.asBuffer.buffer, dataP->value.asBuffer.length);
  78:/home/baikal/workspace/C50/Huawei_IoT_Agent_Tiny_SDK_Linux//lwm2m/core/data.c ****         return (int)dataP->value.asBuffer.length;
  79:/home/baikal/workspace/C50/Huawei_IoT_Agent_Tiny_SDK_Linux//lwm2m/core/data.c **** 
  80:/home/baikal/workspace/C50/Huawei_IoT_Agent_Tiny_SDK_Linux//lwm2m/core/data.c ****     case LWM2M_TYPE_INTEGER:
  81:/home/baikal/workspace/C50/Huawei_IoT_Agent_Tiny_SDK_Linux//lwm2m/core/data.c ****     {
  82:/home/baikal/workspace/C50/Huawei_IoT_Agent_Tiny_SDK_Linux//lwm2m/core/data.c ****         uint8_t intString[_PRV_STR_LENGTH];
  83:/home/baikal/workspace/C50/Huawei_IoT_Agent_Tiny_SDK_Linux//lwm2m/core/data.c **** 
  84:/home/baikal/workspace/C50/Huawei_IoT_Agent_Tiny_SDK_Linux//lwm2m/core/data.c ****         res = utils_intToText(dataP->value.asInteger, intString, _PRV_STR_LENGTH);
  85:/home/baikal/workspace/C50/Huawei_IoT_Agent_Tiny_SDK_Linux//lwm2m/core/data.c ****         if (res == 0) return -1;
  86:/home/baikal/workspace/C50/Huawei_IoT_Agent_Tiny_SDK_Linux//lwm2m/core/data.c **** 
  87:/home/baikal/workspace/C50/Huawei_IoT_Agent_Tiny_SDK_Linux//lwm2m/core/data.c ****         *bufferP = (uint8_t *)lwm2m_malloc(res);
  88:/home/baikal/workspace/C50/Huawei_IoT_Agent_Tiny_SDK_Linux//lwm2m/core/data.c ****         if (NULL == *bufferP) return -1;
  89:/home/baikal/workspace/C50/Huawei_IoT_Agent_Tiny_SDK_Linux//lwm2m/core/data.c **** 
  90:/home/baikal/workspace/C50/Huawei_IoT_Agent_Tiny_SDK_Linux//lwm2m/core/data.c ****         memcpy(*bufferP, intString, res);
  91:/home/baikal/workspace/C50/Huawei_IoT_Agent_Tiny_SDK_Linux//lwm2m/core/data.c **** 
  92:/home/baikal/workspace/C50/Huawei_IoT_Agent_Tiny_SDK_Linux//lwm2m/core/data.c ****         return (int)res;
  93:/home/baikal/workspace/C50/Huawei_IoT_Agent_Tiny_SDK_Linux//lwm2m/core/data.c ****     }
  94:/home/baikal/workspace/C50/Huawei_IoT_Agent_Tiny_SDK_Linux//lwm2m/core/data.c **** 
  95:/home/baikal/workspace/C50/Huawei_IoT_Agent_Tiny_SDK_Linux//lwm2m/core/data.c ****     case LWM2M_TYPE_FLOAT:
  96:/home/baikal/workspace/C50/Huawei_IoT_Agent_Tiny_SDK_Linux//lwm2m/core/data.c ****     {
  97:/home/baikal/workspace/C50/Huawei_IoT_Agent_Tiny_SDK_Linux//lwm2m/core/data.c ****         uint8_t floatString[_PRV_STR_LENGTH * 2];
  98:/home/baikal/workspace/C50/Huawei_IoT_Agent_Tiny_SDK_Linux//lwm2m/core/data.c **** 
  99:/home/baikal/workspace/C50/Huawei_IoT_Agent_Tiny_SDK_Linux//lwm2m/core/data.c ****         res = utils_floatToText(dataP->value.asFloat, floatString, _PRV_STR_LENGTH * 2);
 100:/home/baikal/workspace/C50/Huawei_IoT_Agent_Tiny_SDK_Linux//lwm2m/core/data.c ****         if (res == 0) return -1;
 101:/home/baikal/workspace/C50/Huawei_IoT_Agent_Tiny_SDK_Linux//lwm2m/core/data.c **** 
 102:/home/baikal/workspace/C50/Huawei_IoT_Agent_Tiny_SDK_Linux//lwm2m/core/data.c ****         *bufferP = (uint8_t *)lwm2m_malloc(res);
 103:/home/baikal/workspace/C50/Huawei_IoT_Agent_Tiny_SDK_Linux//lwm2m/core/data.c ****         if (NULL == *bufferP) return -1;
 104:/home/baikal/workspace/C50/Huawei_IoT_Agent_Tiny_SDK_Linux//lwm2m/core/data.c **** 
 105:/home/baikal/workspace/C50/Huawei_IoT_Agent_Tiny_SDK_Linux//lwm2m/core/data.c ****         memcpy(*bufferP, floatString, res);
 106:/home/baikal/workspace/C50/Huawei_IoT_Agent_Tiny_SDK_Linux//lwm2m/core/data.c **** 
 107:/home/baikal/workspace/C50/Huawei_IoT_Agent_Tiny_SDK_Linux//lwm2m/core/data.c ****         return (int)res;
GAS LISTING /tmp/ccf9kSf2.s 			page 3


 108:/home/baikal/workspace/C50/Huawei_IoT_Agent_Tiny_SDK_Linux//lwm2m/core/data.c ****     }
 109:/home/baikal/workspace/C50/Huawei_IoT_Agent_Tiny_SDK_Linux//lwm2m/core/data.c **** 
 110:/home/baikal/workspace/C50/Huawei_IoT_Agent_Tiny_SDK_Linux//lwm2m/core/data.c ****     case LWM2M_TYPE_BOOLEAN:
 111:/home/baikal/workspace/C50/Huawei_IoT_Agent_Tiny_SDK_Linux//lwm2m/core/data.c ****         *bufferP = (uint8_t *)lwm2m_malloc(1);
 112:/home/baikal/workspace/C50/Huawei_IoT_Agent_Tiny_SDK_Linux//lwm2m/core/data.c ****         if (NULL == *bufferP) return -1;
 113:/home/baikal/workspace/C50/Huawei_IoT_Agent_Tiny_SDK_Linux//lwm2m/core/data.c **** 
 114:/home/baikal/workspace/C50/Huawei_IoT_Agent_Tiny_SDK_Linux//lwm2m/core/data.c ****         *bufferP[0] = dataP->value.asBoolean ? '1' : '0';
 115:/home/baikal/workspace/C50/Huawei_IoT_Agent_Tiny_SDK_Linux//lwm2m/core/data.c **** 
 116:/home/baikal/workspace/C50/Huawei_IoT_Agent_Tiny_SDK_Linux//lwm2m/core/data.c ****         return 1;
 117:/home/baikal/workspace/C50/Huawei_IoT_Agent_Tiny_SDK_Linux//lwm2m/core/data.c **** 
 118:/home/baikal/workspace/C50/Huawei_IoT_Agent_Tiny_SDK_Linux//lwm2m/core/data.c ****     case LWM2M_TYPE_OBJECT_LINK:
 119:/home/baikal/workspace/C50/Huawei_IoT_Agent_Tiny_SDK_Linux//lwm2m/core/data.c ****     {
 120:/home/baikal/workspace/C50/Huawei_IoT_Agent_Tiny_SDK_Linux//lwm2m/core/data.c ****         char stringBuffer[11];
 121:/home/baikal/workspace/C50/Huawei_IoT_Agent_Tiny_SDK_Linux//lwm2m/core/data.c ****         size_t length;
 122:/home/baikal/workspace/C50/Huawei_IoT_Agent_Tiny_SDK_Linux//lwm2m/core/data.c **** 
 123:/home/baikal/workspace/C50/Huawei_IoT_Agent_Tiny_SDK_Linux//lwm2m/core/data.c ****         length = utils_intToText(dataP->value.asObjLink.objectId, (uint8_t *)stringBuffer, 5);
 124:/home/baikal/workspace/C50/Huawei_IoT_Agent_Tiny_SDK_Linux//lwm2m/core/data.c ****         if (length == 0) return -1;
 125:/home/baikal/workspace/C50/Huawei_IoT_Agent_Tiny_SDK_Linux//lwm2m/core/data.c **** 
 126:/home/baikal/workspace/C50/Huawei_IoT_Agent_Tiny_SDK_Linux//lwm2m/core/data.c ****         stringBuffer[5] = ':';
 127:/home/baikal/workspace/C50/Huawei_IoT_Agent_Tiny_SDK_Linux//lwm2m/core/data.c ****         res = length + 1;
 128:/home/baikal/workspace/C50/Huawei_IoT_Agent_Tiny_SDK_Linux//lwm2m/core/data.c **** 
 129:/home/baikal/workspace/C50/Huawei_IoT_Agent_Tiny_SDK_Linux//lwm2m/core/data.c ****         length = utils_intToText(dataP->value.asObjLink.objectInstanceId, (uint8_t *)stringBuffer +
 130:/home/baikal/workspace/C50/Huawei_IoT_Agent_Tiny_SDK_Linux//lwm2m/core/data.c ****         if (length == 0) return -1;
 131:/home/baikal/workspace/C50/Huawei_IoT_Agent_Tiny_SDK_Linux//lwm2m/core/data.c **** 
 132:/home/baikal/workspace/C50/Huawei_IoT_Agent_Tiny_SDK_Linux//lwm2m/core/data.c ****         res += length;
 133:/home/baikal/workspace/C50/Huawei_IoT_Agent_Tiny_SDK_Linux//lwm2m/core/data.c **** 
 134:/home/baikal/workspace/C50/Huawei_IoT_Agent_Tiny_SDK_Linux//lwm2m/core/data.c ****         *bufferP = (uint8_t *)lwm2m_malloc(res);
 135:/home/baikal/workspace/C50/Huawei_IoT_Agent_Tiny_SDK_Linux//lwm2m/core/data.c ****         if (*bufferP == NULL) return -1;
 136:/home/baikal/workspace/C50/Huawei_IoT_Agent_Tiny_SDK_Linux//lwm2m/core/data.c **** 
 137:/home/baikal/workspace/C50/Huawei_IoT_Agent_Tiny_SDK_Linux//lwm2m/core/data.c ****         memcpy(*bufferP, stringBuffer, res);
 138:/home/baikal/workspace/C50/Huawei_IoT_Agent_Tiny_SDK_Linux//lwm2m/core/data.c **** 
 139:/home/baikal/workspace/C50/Huawei_IoT_Agent_Tiny_SDK_Linux//lwm2m/core/data.c ****         return res;
 140:/home/baikal/workspace/C50/Huawei_IoT_Agent_Tiny_SDK_Linux//lwm2m/core/data.c ****     }
 141:/home/baikal/workspace/C50/Huawei_IoT_Agent_Tiny_SDK_Linux//lwm2m/core/data.c **** 
 142:/home/baikal/workspace/C50/Huawei_IoT_Agent_Tiny_SDK_Linux//lwm2m/core/data.c ****     case LWM2M_TYPE_OPAQUE:
 143:/home/baikal/workspace/C50/Huawei_IoT_Agent_Tiny_SDK_Linux//lwm2m/core/data.c ****     {
 144:/home/baikal/workspace/C50/Huawei_IoT_Agent_Tiny_SDK_Linux//lwm2m/core/data.c ****         size_t length;
 145:/home/baikal/workspace/C50/Huawei_IoT_Agent_Tiny_SDK_Linux//lwm2m/core/data.c **** 
 146:/home/baikal/workspace/C50/Huawei_IoT_Agent_Tiny_SDK_Linux//lwm2m/core/data.c ****         length = utils_base64GetSize(dataP->value.asBuffer.length);
 147:/home/baikal/workspace/C50/Huawei_IoT_Agent_Tiny_SDK_Linux//lwm2m/core/data.c ****         *bufferP = (uint8_t *)lwm2m_malloc(length);
 148:/home/baikal/workspace/C50/Huawei_IoT_Agent_Tiny_SDK_Linux//lwm2m/core/data.c ****         if (*bufferP == NULL) return 0;
 149:/home/baikal/workspace/C50/Huawei_IoT_Agent_Tiny_SDK_Linux//lwm2m/core/data.c ****         length = utils_base64Encode(dataP->value.asBuffer.buffer, dataP->value.asBuffer.length, *bu
 150:/home/baikal/workspace/C50/Huawei_IoT_Agent_Tiny_SDK_Linux//lwm2m/core/data.c ****         if (length == 0)
 151:/home/baikal/workspace/C50/Huawei_IoT_Agent_Tiny_SDK_Linux//lwm2m/core/data.c ****         {
 152:/home/baikal/workspace/C50/Huawei_IoT_Agent_Tiny_SDK_Linux//lwm2m/core/data.c ****             lwm2m_free(*bufferP);
 153:/home/baikal/workspace/C50/Huawei_IoT_Agent_Tiny_SDK_Linux//lwm2m/core/data.c ****             *bufferP = NULL;
 154:/home/baikal/workspace/C50/Huawei_IoT_Agent_Tiny_SDK_Linux//lwm2m/core/data.c ****             return 0;
 155:/home/baikal/workspace/C50/Huawei_IoT_Agent_Tiny_SDK_Linux//lwm2m/core/data.c ****         }
 156:/home/baikal/workspace/C50/Huawei_IoT_Agent_Tiny_SDK_Linux//lwm2m/core/data.c ****         return (int)length;
 157:/home/baikal/workspace/C50/Huawei_IoT_Agent_Tiny_SDK_Linux//lwm2m/core/data.c ****     }
 158:/home/baikal/workspace/C50/Huawei_IoT_Agent_Tiny_SDK_Linux//lwm2m/core/data.c **** 
 159:/home/baikal/workspace/C50/Huawei_IoT_Agent_Tiny_SDK_Linux//lwm2m/core/data.c ****     case LWM2M_TYPE_UNDEFINED:
 160:/home/baikal/workspace/C50/Huawei_IoT_Agent_Tiny_SDK_Linux//lwm2m/core/data.c ****     default:
 161:/home/baikal/workspace/C50/Huawei_IoT_Agent_Tiny_SDK_Linux//lwm2m/core/data.c ****         return -1;
 162:/home/baikal/workspace/C50/Huawei_IoT_Agent_Tiny_SDK_Linux//lwm2m/core/data.c ****     }
 163:/home/baikal/workspace/C50/Huawei_IoT_Agent_Tiny_SDK_Linux//lwm2m/core/data.c **** }
 164:/home/baikal/workspace/C50/Huawei_IoT_Agent_Tiny_SDK_Linux//lwm2m/core/data.c **** 
GAS LISTING /tmp/ccf9kSf2.s 			page 4


 165:/home/baikal/workspace/C50/Huawei_IoT_Agent_Tiny_SDK_Linux//lwm2m/core/data.c **** static int prv_setBuffer(lwm2m_data_t *dataP,
 166:/home/baikal/workspace/C50/Huawei_IoT_Agent_Tiny_SDK_Linux//lwm2m/core/data.c ****                          uint8_t *buffer,
 167:/home/baikal/workspace/C50/Huawei_IoT_Agent_Tiny_SDK_Linux//lwm2m/core/data.c ****                          size_t bufferLen)
 168:/home/baikal/workspace/C50/Huawei_IoT_Agent_Tiny_SDK_Linux//lwm2m/core/data.c **** {
   9              		.loc 1 168 0
  10              		.cfi_startproc
  11              	.LVL0:
  12 0000 4154     		pushq	%r12
  13              	.LCFI0:
  14              		.cfi_def_cfa_offset 16
  15              		.cfi_offset 12, -16
  16 0002 55       		pushq	%rbp
  17              	.LCFI1:
  18              		.cfi_def_cfa_offset 24
  19              		.cfi_offset 6, -24
  20 0003 53       		pushq	%rbx
  21              	.LCFI2:
  22              		.cfi_def_cfa_offset 32
  23              		.cfi_offset 3, -32
  24 0004 4889FD   		movq	%rdi, %rbp
  25 0007 4989F4   		movq	%rsi, %r12
  26 000a 4889D3   		movq	%rdx, %rbx
 169:/home/baikal/workspace/C50/Huawei_IoT_Agent_Tiny_SDK_Linux//lwm2m/core/data.c ****     dataP->value.asBuffer.buffer = (uint8_t *)lwm2m_malloc(bufferLen);
  27              		.loc 1 169 0
  28 000d 4889D7   		movq	%rdx, %rdi
  29              	.LVL1:
  30 0010 E8000000 		call	lwm2m_malloc
  30      00
  31              	.LVL2:
  32 0015 48894510 		movq	%rax, 16(%rbp)
 170:/home/baikal/workspace/C50/Huawei_IoT_Agent_Tiny_SDK_Linux//lwm2m/core/data.c ****     if (dataP->value.asBuffer.buffer == NULL)
  33              		.loc 1 170 0
  34 0019 4885C0   		testq	%rax, %rax
  35 001c 7419     		je	.L3
 171:/home/baikal/workspace/C50/Huawei_IoT_Agent_Tiny_SDK_Linux//lwm2m/core/data.c ****     {
 172:/home/baikal/workspace/C50/Huawei_IoT_Agent_Tiny_SDK_Linux//lwm2m/core/data.c ****         return 0;
 173:/home/baikal/workspace/C50/Huawei_IoT_Agent_Tiny_SDK_Linux//lwm2m/core/data.c ****     }
 174:/home/baikal/workspace/C50/Huawei_IoT_Agent_Tiny_SDK_Linux//lwm2m/core/data.c ****     dataP->value.asBuffer.length = bufferLen;
  36              		.loc 1 174 0
  37 001e 48895D08 		movq	%rbx, 8(%rbp)
  38              	.LVL3:
  39              	.LBB28:
  40              	.LBB29:
  41              		.file 2 "/usr/include/x86_64-linux-gnu/bits/string3.h"
   1:/usr/include/x86_64-linux-gnu/bits/string3.h **** /* Copyright (C) 2004-2016 Free Software Foundation, Inc.
   2:/usr/include/x86_64-linux-gnu/bits/string3.h ****    This file is part of the GNU C Library.
   3:/usr/include/x86_64-linux-gnu/bits/string3.h **** 
   4:/usr/include/x86_64-linux-gnu/bits/string3.h ****    The GNU C Library is free software; you can redistribute it and/or
   5:/usr/include/x86_64-linux-gnu/bits/string3.h ****    modify it under the terms of the GNU Lesser General Public
   6:/usr/include/x86_64-linux-gnu/bits/string3.h ****    License as published by the Free Software Foundation; either
   7:/usr/include/x86_64-linux-gnu/bits/string3.h ****    version 2.1 of the License, or (at your option) any later version.
   8:/usr/include/x86_64-linux-gnu/bits/string3.h **** 
   9:/usr/include/x86_64-linux-gnu/bits/string3.h ****    The GNU C Library is distributed in the hope that it will be useful,
  10:/usr/include/x86_64-linux-gnu/bits/string3.h ****    but WITHOUT ANY WARRANTY; without even the implied warranty of
  11:/usr/include/x86_64-linux-gnu/bits/string3.h ****    MERCHANTABILITY or FITNESS FOR A PARTICULAR PURPOSE.  See the GNU
  12:/usr/include/x86_64-linux-gnu/bits/string3.h ****    Lesser General Public License for more details.
  13:/usr/include/x86_64-linux-gnu/bits/string3.h **** 
GAS LISTING /tmp/ccf9kSf2.s 			page 5


  14:/usr/include/x86_64-linux-gnu/bits/string3.h ****    You should have received a copy of the GNU Lesser General Public
  15:/usr/include/x86_64-linux-gnu/bits/string3.h ****    License along with the GNU C Library; if not, see
  16:/usr/include/x86_64-linux-gnu/bits/string3.h ****    <http://www.gnu.org/licenses/>.  */
  17:/usr/include/x86_64-linux-gnu/bits/string3.h **** 
  18:/usr/include/x86_64-linux-gnu/bits/string3.h **** #ifndef _STRING_H
  19:/usr/include/x86_64-linux-gnu/bits/string3.h **** # error "Never use <bits/string3.h> directly; include <string.h> instead."
  20:/usr/include/x86_64-linux-gnu/bits/string3.h **** #endif
  21:/usr/include/x86_64-linux-gnu/bits/string3.h **** 
  22:/usr/include/x86_64-linux-gnu/bits/string3.h **** #if !__GNUC_PREREQ (5,0)
  23:/usr/include/x86_64-linux-gnu/bits/string3.h **** __warndecl (__warn_memset_zero_len,
  24:/usr/include/x86_64-linux-gnu/bits/string3.h **** 	    "memset used with constant zero length parameter; this could be due to transposed parameters")
  25:/usr/include/x86_64-linux-gnu/bits/string3.h **** #endif
  26:/usr/include/x86_64-linux-gnu/bits/string3.h **** 
  27:/usr/include/x86_64-linux-gnu/bits/string3.h **** #ifndef __cplusplus
  28:/usr/include/x86_64-linux-gnu/bits/string3.h **** /* XXX This is temporarily.  We should not redefine any of the symbols
  29:/usr/include/x86_64-linux-gnu/bits/string3.h ****    and instead integrate the error checking into the original
  30:/usr/include/x86_64-linux-gnu/bits/string3.h ****    definitions.  */
  31:/usr/include/x86_64-linux-gnu/bits/string3.h **** # undef memcpy
  32:/usr/include/x86_64-linux-gnu/bits/string3.h **** # undef memmove
  33:/usr/include/x86_64-linux-gnu/bits/string3.h **** # undef memset
  34:/usr/include/x86_64-linux-gnu/bits/string3.h **** # undef strcat
  35:/usr/include/x86_64-linux-gnu/bits/string3.h **** # undef strcpy
  36:/usr/include/x86_64-linux-gnu/bits/string3.h **** # undef strncat
  37:/usr/include/x86_64-linux-gnu/bits/string3.h **** # undef strncpy
  38:/usr/include/x86_64-linux-gnu/bits/string3.h **** # ifdef __USE_GNU
  39:/usr/include/x86_64-linux-gnu/bits/string3.h **** #  undef mempcpy
  40:/usr/include/x86_64-linux-gnu/bits/string3.h **** #  undef stpcpy
  41:/usr/include/x86_64-linux-gnu/bits/string3.h **** # endif
  42:/usr/include/x86_64-linux-gnu/bits/string3.h **** # ifdef __USE_MISC
  43:/usr/include/x86_64-linux-gnu/bits/string3.h **** #  undef bcopy
  44:/usr/include/x86_64-linux-gnu/bits/string3.h **** #  undef bzero
  45:/usr/include/x86_64-linux-gnu/bits/string3.h **** # endif
  46:/usr/include/x86_64-linux-gnu/bits/string3.h **** #endif
  47:/usr/include/x86_64-linux-gnu/bits/string3.h **** 
  48:/usr/include/x86_64-linux-gnu/bits/string3.h **** 
  49:/usr/include/x86_64-linux-gnu/bits/string3.h **** __fortify_function void *
  50:/usr/include/x86_64-linux-gnu/bits/string3.h **** __NTH (memcpy (void *__restrict __dest, const void *__restrict __src,
  51:/usr/include/x86_64-linux-gnu/bits/string3.h **** 	       size_t __len))
  52:/usr/include/x86_64-linux-gnu/bits/string3.h **** {
  53:/usr/include/x86_64-linux-gnu/bits/string3.h ****   return __builtin___memcpy_chk (__dest, __src, __len, __bos0 (__dest));
  42              		.loc 2 53 0
  43 0022 4889DA   		movq	%rbx, %rdx
  44 0025 4C89E6   		movq	%r12, %rsi
  45 0028 4889C7   		movq	%rax, %rdi
  46 002b E8000000 		call	memcpy
  46      00
  47              	.LVL4:
  48              	.LBE29:
  49              	.LBE28:
 175:/home/baikal/workspace/C50/Huawei_IoT_Agent_Tiny_SDK_Linux//lwm2m/core/data.c ****     memcpy(dataP->value.asBuffer.buffer, buffer, bufferLen);
 176:/home/baikal/workspace/C50/Huawei_IoT_Agent_Tiny_SDK_Linux//lwm2m/core/data.c **** 
 177:/home/baikal/workspace/C50/Huawei_IoT_Agent_Tiny_SDK_Linux//lwm2m/core/data.c ****     return 1;
  50              		.loc 1 177 0
  51 0030 B8010000 		movl	$1, %eax
  51      00
  52 0035 EB05     		jmp	.L2
  53              	.L3:
GAS LISTING /tmp/ccf9kSf2.s 			page 6


 172:/home/baikal/workspace/C50/Huawei_IoT_Agent_Tiny_SDK_Linux//lwm2m/core/data.c ****     }
  54              		.loc 1 172 0
  55 0037 B8000000 		movl	$0, %eax
  55      00
  56              	.L2:
 178:/home/baikal/workspace/C50/Huawei_IoT_Agent_Tiny_SDK_Linux//lwm2m/core/data.c **** }
  57              		.loc 1 178 0
  58 003c 5B       		popq	%rbx
  59              	.LCFI3:
  60              		.cfi_def_cfa_offset 24
  61              	.LVL5:
  62 003d 5D       		popq	%rbp
  63              	.LCFI4:
  64              		.cfi_def_cfa_offset 16
  65              	.LVL6:
  66 003e 415C     		popq	%r12
  67              	.LCFI5:
  68              		.cfi_def_cfa_offset 8
  69              	.LVL7:
  70 0040 C3       		ret
  71              		.cfi_endproc
  72              	.LFE65:
  74              		.section	.text.prv_textSerialize,"ax",@progbits
  76              	prv_textSerialize:
  77              	.LFB64:
  69:/home/baikal/workspace/C50/Huawei_IoT_Agent_Tiny_SDK_Linux//lwm2m/core/data.c ****     size_t res;
  78              		.loc 1 69 0
  79              		.cfi_startproc
  80              	.LVL8:
  72:/home/baikal/workspace/C50/Huawei_IoT_Agent_Tiny_SDK_Linux//lwm2m/core/data.c ****     {
  81              		.loc 1 72 0
  82 0000 8B07     		movl	(%rdi), %eax
  83 0002 83E804   		subl	$4, %eax
  84 0005 83F805   		cmpl	$5, %eax
  85 0008 0F87D801 		ja	.L19
  85      0000
  69:/home/baikal/workspace/C50/Huawei_IoT_Agent_Tiny_SDK_Linux//lwm2m/core/data.c ****     size_t res;
  86              		.loc 1 69 0
  87 000e 4154     		pushq	%r12
  88              	.LCFI6:
  89              		.cfi_def_cfa_offset 16
  90              		.cfi_offset 12, -16
  91 0010 55       		pushq	%rbp
  92              	.LCFI7:
  93              		.cfi_def_cfa_offset 24
  94              		.cfi_offset 6, -24
  95 0011 53       		pushq	%rbx
  96              	.LCFI8:
  97              		.cfi_def_cfa_offset 32
  98              		.cfi_offset 3, -32
  99 0012 4883EC40 		subq	$64, %rsp
 100              	.LCFI9:
 101              		.cfi_def_cfa_offset 96
 102 0016 4889F3   		movq	%rsi, %rbx
 103 0019 4889FD   		movq	%rdi, %rbp
  72:/home/baikal/workspace/C50/Huawei_IoT_Agent_Tiny_SDK_Linux//lwm2m/core/data.c ****     {
 104              		.loc 1 72 0
GAS LISTING /tmp/ccf9kSf2.s 			page 7


 105 001c 89C0     		movl	%eax, %eax
 106 001e FF24C500 		jmp	*.L8(,%rax,8)
 106      000000
 107              		.section	.rodata.prv_textSerialize,"a",@progbits
 108              		.align 8
 109              		.align 4
 110              	.L8:
 111 0000 00000000 		.quad	.L7
 111      00000000 
 112 0008 00000000 		.quad	.L9
 112      00000000 
 113 0010 00000000 		.quad	.L10
 113      00000000 
 114 0018 00000000 		.quad	.L11
 114      00000000 
 115 0020 00000000 		.quad	.L12
 115      00000000 
 116 0028 00000000 		.quad	.L13
 116      00000000 
 117              		.section	.text.prv_textSerialize
 118              	.L7:
  75:/home/baikal/workspace/C50/Huawei_IoT_Agent_Tiny_SDK_Linux//lwm2m/core/data.c ****         if (*bufferP == NULL) return 0;
 119              		.loc 1 75 0
 120 0025 488B7F08 		movq	8(%rdi), %rdi
 121              	.LVL9:
 122 0029 E8000000 		call	lwm2m_malloc
 122      00
 123              	.LVL10:
 124 002e 488903   		movq	%rax, (%rbx)
  76:/home/baikal/workspace/C50/Huawei_IoT_Agent_Tiny_SDK_Linux//lwm2m/core/data.c ****         memcpy(*bufferP, dataP->value.asBuffer.buffer, dataP->value.asBuffer.length);
 125              		.loc 1 76 0
 126 0031 4885C0   		testq	%rax, %rax
 127 0034 0F84B201 		je	.L20
 127      0000
  77:/home/baikal/workspace/C50/Huawei_IoT_Agent_Tiny_SDK_Linux//lwm2m/core/data.c ****         return (int)dataP->value.asBuffer.length;
 128              		.loc 1 77 0
 129 003a 488B5508 		movq	8(%rbp), %rdx
 130 003e 488B7510 		movq	16(%rbp), %rsi
 131              	.LVL11:
 132              	.LBB30:
 133              	.LBB31:
 134              		.loc 2 53 0
 135 0042 4889C7   		movq	%rax, %rdi
 136 0045 E8000000 		call	memcpy
 136      00
 137              	.LVL12:
 138              	.LBE31:
 139              	.LBE30:
  78:/home/baikal/workspace/C50/Huawei_IoT_Agent_Tiny_SDK_Linux//lwm2m/core/data.c **** 
 140              		.loc 1 78 0
 141 004a 8B4508   		movl	8(%rbp), %eax
 142 004d E9AD0100 		jmp	.L6
 142      00
 143              	.LVL13:
 144              	.L10:
 145              	.LBB32:
  84:/home/baikal/workspace/C50/Huawei_IoT_Agent_Tiny_SDK_Linux//lwm2m/core/data.c ****         if (res == 0) return -1;
GAS LISTING /tmp/ccf9kSf2.s 			page 8


 146              		.loc 1 84 0
 147 0052 488B7F08 		movq	8(%rdi), %rdi
 148              	.LVL14:
 149 0056 BA200000 		movl	$32, %edx
 149      00
 150 005b 4889E6   		movq	%rsp, %rsi
 151 005e E8000000 		call	utils_intToText
 151      00
 152              	.LVL15:
 153 0063 4889C5   		movq	%rax, %rbp
 154              	.LVL16:
  85:/home/baikal/workspace/C50/Huawei_IoT_Agent_Tiny_SDK_Linux//lwm2m/core/data.c **** 
 155              		.loc 1 85 0
 156 0066 4885C0   		testq	%rax, %rax
 157 0069 7425     		je	.L21
  87:/home/baikal/workspace/C50/Huawei_IoT_Agent_Tiny_SDK_Linux//lwm2m/core/data.c ****         if (NULL == *bufferP) return -1;
 158              		.loc 1 87 0
 159 006b 4889C7   		movq	%rax, %rdi
 160 006e E8000000 		call	lwm2m_malloc
 160      00
 161              	.LVL17:
 162 0073 488903   		movq	%rax, (%rbx)
  88:/home/baikal/workspace/C50/Huawei_IoT_Agent_Tiny_SDK_Linux//lwm2m/core/data.c **** 
 163              		.loc 1 88 0
 164 0076 4885C0   		testq	%rax, %rax
 165 0079 741F     		je	.L22
 166              	.LVL18:
 167              	.LBB33:
 168              	.LBB34:
 169              		.loc 2 53 0
 170 007b 4889EA   		movq	%rbp, %rdx
 171 007e 4889E6   		movq	%rsp, %rsi
 172 0081 4889C7   		movq	%rax, %rdi
 173 0084 E8000000 		call	memcpy
 173      00
 174              	.LVL19:
 175              	.LBE34:
 176              	.LBE33:
  92:/home/baikal/workspace/C50/Huawei_IoT_Agent_Tiny_SDK_Linux//lwm2m/core/data.c ****     }
 177              		.loc 1 92 0
 178 0089 89E8     		movl	%ebp, %eax
 179 008b E96F0100 		jmp	.L6
 179      00
 180              	.LVL20:
 181              	.L21:
  85:/home/baikal/workspace/C50/Huawei_IoT_Agent_Tiny_SDK_Linux//lwm2m/core/data.c **** 
 182              		.loc 1 85 0
 183 0090 B8FFFFFF 		movl	$-1, %eax
 183      FF
 184              	.LVL21:
 185 0095 E9650100 		jmp	.L6
 185      00
 186              	.L22:
  88:/home/baikal/workspace/C50/Huawei_IoT_Agent_Tiny_SDK_Linux//lwm2m/core/data.c **** 
 187              		.loc 1 88 0
 188 009a B8FFFFFF 		movl	$-1, %eax
 188      FF
GAS LISTING /tmp/ccf9kSf2.s 			page 9


 189 009f E95B0100 		jmp	.L6
 189      00
 190              	.LVL22:
 191              	.L11:
 192              	.LBE32:
 193              	.LBB35:
  99:/home/baikal/workspace/C50/Huawei_IoT_Agent_Tiny_SDK_Linux//lwm2m/core/data.c ****         if (res == 0) return -1;
 194              		.loc 1 99 0
 195 00a4 F20F1047 		movsd	8(%rdi), %xmm0
 195      08
 196 00a9 BE400000 		movl	$64, %esi
 196      00
 197 00ae 4889E7   		movq	%rsp, %rdi
 198              	.LVL23:
 199 00b1 E8000000 		call	utils_floatToText
 199      00
 200              	.LVL24:
 201 00b6 4889C5   		movq	%rax, %rbp
 202              	.LVL25:
 100:/home/baikal/workspace/C50/Huawei_IoT_Agent_Tiny_SDK_Linux//lwm2m/core/data.c **** 
 203              		.loc 1 100 0
 204 00b9 4885C0   		testq	%rax, %rax
 205 00bc 7425     		je	.L23
 102:/home/baikal/workspace/C50/Huawei_IoT_Agent_Tiny_SDK_Linux//lwm2m/core/data.c ****         if (NULL == *bufferP) return -1;
 206              		.loc 1 102 0
 207 00be 4889C7   		movq	%rax, %rdi
 208 00c1 E8000000 		call	lwm2m_malloc
 208      00
 209              	.LVL26:
 210 00c6 488903   		movq	%rax, (%rbx)
 103:/home/baikal/workspace/C50/Huawei_IoT_Agent_Tiny_SDK_Linux//lwm2m/core/data.c **** 
 211              		.loc 1 103 0
 212 00c9 4885C0   		testq	%rax, %rax
 213 00cc 741F     		je	.L24
 214              	.LVL27:
 215              	.LBB36:
 216              	.LBB37:
 217              		.loc 2 53 0
 218 00ce 4889EA   		movq	%rbp, %rdx
 219 00d1 4889E6   		movq	%rsp, %rsi
 220 00d4 4889C7   		movq	%rax, %rdi
 221 00d7 E8000000 		call	memcpy
 221      00
 222              	.LVL28:
 223              	.LBE37:
 224              	.LBE36:
 107:/home/baikal/workspace/C50/Huawei_IoT_Agent_Tiny_SDK_Linux//lwm2m/core/data.c ****     }
 225              		.loc 1 107 0
 226 00dc 89E8     		movl	%ebp, %eax
 227 00de E91C0100 		jmp	.L6
 227      00
 228              	.LVL29:
 229              	.L23:
 100:/home/baikal/workspace/C50/Huawei_IoT_Agent_Tiny_SDK_Linux//lwm2m/core/data.c **** 
 230              		.loc 1 100 0
 231 00e3 B8FFFFFF 		movl	$-1, %eax
 231      FF
GAS LISTING /tmp/ccf9kSf2.s 			page 10


 232              	.LVL30:
 233 00e8 E9120100 		jmp	.L6
 233      00
 234              	.L24:
 103:/home/baikal/workspace/C50/Huawei_IoT_Agent_Tiny_SDK_Linux//lwm2m/core/data.c **** 
 235              		.loc 1 103 0
 236 00ed B8FFFFFF 		movl	$-1, %eax
 236      FF
 237 00f2 E9080100 		jmp	.L6
 237      00
 238              	.LVL31:
 239              	.L12:
 240              	.LBE35:
 111:/home/baikal/workspace/C50/Huawei_IoT_Agent_Tiny_SDK_Linux//lwm2m/core/data.c ****         if (NULL == *bufferP) return -1;
 241              		.loc 1 111 0
 242 00f7 BF010000 		movl	$1, %edi
 242      00
 243              	.LVL32:
 244 00fc E8000000 		call	lwm2m_malloc
 244      00
 245              	.LVL33:
 246 0101 488903   		movq	%rax, (%rbx)
 112:/home/baikal/workspace/C50/Huawei_IoT_Agent_Tiny_SDK_Linux//lwm2m/core/data.c **** 
 247              		.loc 1 112 0
 248 0104 4885C0   		testq	%rax, %rax
 249 0107 0F84E600 		je	.L25
 249      0000
 114:/home/baikal/workspace/C50/Huawei_IoT_Agent_Tiny_SDK_Linux//lwm2m/core/data.c **** 
 250              		.loc 1 114 0
 251 010d 807D0800 		cmpb	$0, 8(%rbp)
 252 0111 7407     		je	.L26
 253 0113 BA310000 		movl	$49, %edx
 253      00
 254 0118 EB05     		jmp	.L16
 255              	.L26:
 256 011a BA300000 		movl	$48, %edx
 256      00
 257              	.L16:
 114:/home/baikal/workspace/C50/Huawei_IoT_Agent_Tiny_SDK_Linux//lwm2m/core/data.c **** 
 258              		.loc 1 114 0 is_stmt 0 discriminator 4
 259 011f 8810     		movb	%dl, (%rax)
 116:/home/baikal/workspace/C50/Huawei_IoT_Agent_Tiny_SDK_Linux//lwm2m/core/data.c **** 
 260              		.loc 1 116 0 is_stmt 1 discriminator 4
 261 0121 B8010000 		movl	$1, %eax
 261      00
 262 0126 E9D40000 		jmp	.L6
 262      00
 263              	.LVL34:
 264              	.L13:
 265              	.LBB38:
 123:/home/baikal/workspace/C50/Huawei_IoT_Agent_Tiny_SDK_Linux//lwm2m/core/data.c ****         if (length == 0) return -1;
 266              		.loc 1 123 0
 267 012b 0FB77F08 		movzwl	8(%rdi), %edi
 268              	.LVL35:
 269 012f BA050000 		movl	$5, %edx
 269      00
 270 0134 4889E6   		movq	%rsp, %rsi
GAS LISTING /tmp/ccf9kSf2.s 			page 11


 271 0137 E8000000 		call	utils_intToText
 271      00
 272              	.LVL36:
 124:/home/baikal/workspace/C50/Huawei_IoT_Agent_Tiny_SDK_Linux//lwm2m/core/data.c **** 
 273              		.loc 1 124 0
 274 013c 4885C0   		testq	%rax, %rax
 275 013f 7446     		je	.L27
 126:/home/baikal/workspace/C50/Huawei_IoT_Agent_Tiny_SDK_Linux//lwm2m/core/data.c ****         res = length + 1;
 276              		.loc 1 126 0
 277 0141 C6442405 		movb	$58, 5(%rsp)
 277      3A
 127:/home/baikal/workspace/C50/Huawei_IoT_Agent_Tiny_SDK_Linux//lwm2m/core/data.c **** 
 278              		.loc 1 127 0
 279 0146 4C8D6001 		leaq	1(%rax), %r12
 280              	.LVL37:
 129:/home/baikal/workspace/C50/Huawei_IoT_Agent_Tiny_SDK_Linux//lwm2m/core/data.c ****         if (length == 0) return -1;
 281              		.loc 1 129 0
 282 014a 4A8D3424 		leaq	(%rsp,%r12), %rsi
 283 014e 0FB77D0A 		movzwl	10(%rbp), %edi
 284 0152 BA050000 		movl	$5, %edx
 284      00
 285 0157 E8000000 		call	utils_intToText
 285      00
 286              	.LVL38:
 130:/home/baikal/workspace/C50/Huawei_IoT_Agent_Tiny_SDK_Linux//lwm2m/core/data.c **** 
 287              		.loc 1 130 0
 288 015c 4885C0   		testq	%rax, %rax
 289 015f 742D     		je	.L28
 132:/home/baikal/workspace/C50/Huawei_IoT_Agent_Tiny_SDK_Linux//lwm2m/core/data.c **** 
 290              		.loc 1 132 0
 291 0161 498D2C04 		leaq	(%r12,%rax), %rbp
 292              	.LVL39:
 134:/home/baikal/workspace/C50/Huawei_IoT_Agent_Tiny_SDK_Linux//lwm2m/core/data.c ****         if (*bufferP == NULL) return -1;
 293              		.loc 1 134 0
 294 0165 4889EF   		movq	%rbp, %rdi
 295 0168 E8000000 		call	lwm2m_malloc
 295      00
 296              	.LVL40:
 297 016d 488903   		movq	%rax, (%rbx)
 135:/home/baikal/workspace/C50/Huawei_IoT_Agent_Tiny_SDK_Linux//lwm2m/core/data.c **** 
 298              		.loc 1 135 0
 299 0170 4885C0   		testq	%rax, %rax
 300 0173 7420     		je	.L29
 301              	.LVL41:
 302              	.LBB39:
 303              	.LBB40:
 304              		.loc 2 53 0
 305 0175 4889EA   		movq	%rbp, %rdx
 306 0178 4889E6   		movq	%rsp, %rsi
 307 017b 4889C7   		movq	%rax, %rdi
 308 017e E8000000 		call	memcpy
 308      00
 309              	.LVL42:
 310              	.LBE40:
 311              	.LBE39:
 139:/home/baikal/workspace/C50/Huawei_IoT_Agent_Tiny_SDK_Linux//lwm2m/core/data.c ****     }
 312              		.loc 1 139 0
GAS LISTING /tmp/ccf9kSf2.s 			page 12


 313 0183 89E8     		movl	%ebp, %eax
 314 0185 EB78     		jmp	.L6
 315              	.LVL43:
 316              	.L27:
 124:/home/baikal/workspace/C50/Huawei_IoT_Agent_Tiny_SDK_Linux//lwm2m/core/data.c **** 
 317              		.loc 1 124 0
 318 0187 B8FFFFFF 		movl	$-1, %eax
 318      FF
 319              	.LVL44:
 320 018c EB71     		jmp	.L6
 321              	.LVL45:
 322              	.L28:
 130:/home/baikal/workspace/C50/Huawei_IoT_Agent_Tiny_SDK_Linux//lwm2m/core/data.c **** 
 323              		.loc 1 130 0
 324 018e B8FFFFFF 		movl	$-1, %eax
 324      FF
 325              	.LVL46:
 326 0193 EB6A     		jmp	.L6
 327              	.LVL47:
 328              	.L29:
 135:/home/baikal/workspace/C50/Huawei_IoT_Agent_Tiny_SDK_Linux//lwm2m/core/data.c **** 
 329              		.loc 1 135 0
 330 0195 B8FFFFFF 		movl	$-1, %eax
 330      FF
 331 019a EB63     		jmp	.L6
 332              	.LVL48:
 333              	.L9:
 334              	.LBE38:
 335              	.LBB41:
 146:/home/baikal/workspace/C50/Huawei_IoT_Agent_Tiny_SDK_Linux//lwm2m/core/data.c ****         *bufferP = (uint8_t *)lwm2m_malloc(length);
 336              		.loc 1 146 0
 337 019c 488B7F08 		movq	8(%rdi), %rdi
 338              	.LVL49:
 339 01a0 E8000000 		call	utils_base64GetSize
 339      00
 340              	.LVL50:
 341 01a5 4989C4   		movq	%rax, %r12
 342              	.LVL51:
 147:/home/baikal/workspace/C50/Huawei_IoT_Agent_Tiny_SDK_Linux//lwm2m/core/data.c ****         if (*bufferP == NULL) return 0;
 343              		.loc 1 147 0
 344 01a8 4889C7   		movq	%rax, %rdi
 345 01ab E8000000 		call	lwm2m_malloc
 345      00
 346              	.LVL52:
 347 01b0 488903   		movq	%rax, (%rbx)
 148:/home/baikal/workspace/C50/Huawei_IoT_Agent_Tiny_SDK_Linux//lwm2m/core/data.c ****         length = utils_base64Encode(dataP->value.asBuffer.buffer, dataP->value.asBuffer.length, *bu
 348              		.loc 1 148 0
 349 01b3 4885C0   		testq	%rax, %rax
 350 01b6 7442     		je	.L30
 149:/home/baikal/workspace/C50/Huawei_IoT_Agent_Tiny_SDK_Linux//lwm2m/core/data.c ****         if (length == 0)
 351              		.loc 1 149 0
 352 01b8 488B7508 		movq	8(%rbp), %rsi
 353 01bc 488B7D10 		movq	16(%rbp), %rdi
 354 01c0 4C89E1   		movq	%r12, %rcx
 355 01c3 4889C2   		movq	%rax, %rdx
 356 01c6 E8000000 		call	utils_base64Encode
 356      00
GAS LISTING /tmp/ccf9kSf2.s 			page 13


 357              	.LVL53:
 150:/home/baikal/workspace/C50/Huawei_IoT_Agent_Tiny_SDK_Linux//lwm2m/core/data.c ****         {
 358              		.loc 1 150 0
 359 01cb 4885C0   		testq	%rax, %rax
 360 01ce 752F     		jne	.L6
 152:/home/baikal/workspace/C50/Huawei_IoT_Agent_Tiny_SDK_Linux//lwm2m/core/data.c ****             *bufferP = NULL;
 361              		.loc 1 152 0
 362 01d0 488B3B   		movq	(%rbx), %rdi
 363 01d3 E8000000 		call	lwm2m_free
 363      00
 364              	.LVL54:
 153:/home/baikal/workspace/C50/Huawei_IoT_Agent_Tiny_SDK_Linux//lwm2m/core/data.c ****             return 0;
 365              		.loc 1 153 0
 366 01d8 48C70300 		movq	$0, (%rbx)
 366      000000
 154:/home/baikal/workspace/C50/Huawei_IoT_Agent_Tiny_SDK_Linux//lwm2m/core/data.c ****         }
 367              		.loc 1 154 0
 368 01df B8000000 		movl	$0, %eax
 368      00
 369 01e4 EB19     		jmp	.L6
 370              	.LVL55:
 371              	.L19:
 372              	.LCFI10:
 373              		.cfi_def_cfa_offset 8
 374              		.cfi_restore 3
 375              		.cfi_restore 6
 376              		.cfi_restore 12
 377              	.LBE41:
 161:/home/baikal/workspace/C50/Huawei_IoT_Agent_Tiny_SDK_Linux//lwm2m/core/data.c ****     }
 378              		.loc 1 161 0
 379 01e6 B8FFFFFF 		movl	$-1, %eax
 379      FF
 163:/home/baikal/workspace/C50/Huawei_IoT_Agent_Tiny_SDK_Linux//lwm2m/core/data.c **** 
 380              		.loc 1 163 0
 381 01eb C3       		ret
 382              	.LVL56:
 383              	.L20:
 384              	.LCFI11:
 385              		.cfi_def_cfa_offset 96
 386              		.cfi_offset 3, -32
 387              		.cfi_offset 6, -24
 388              		.cfi_offset 12, -16
  76:/home/baikal/workspace/C50/Huawei_IoT_Agent_Tiny_SDK_Linux//lwm2m/core/data.c ****         memcpy(*bufferP, dataP->value.asBuffer.buffer, dataP->value.asBuffer.length);
 389              		.loc 1 76 0
 390 01ec B8000000 		movl	$0, %eax
 390      00
 391 01f1 EB0C     		jmp	.L6
 392              	.L25:
 112:/home/baikal/workspace/C50/Huawei_IoT_Agent_Tiny_SDK_Linux//lwm2m/core/data.c **** 
 393              		.loc 1 112 0
 394 01f3 B8FFFFFF 		movl	$-1, %eax
 394      FF
 395 01f8 EB05     		jmp	.L6
 396              	.LVL57:
 397              	.L30:
 398              	.LBB42:
 148:/home/baikal/workspace/C50/Huawei_IoT_Agent_Tiny_SDK_Linux//lwm2m/core/data.c ****         length = utils_base64Encode(dataP->value.asBuffer.buffer, dataP->value.asBuffer.length, *bu
GAS LISTING /tmp/ccf9kSf2.s 			page 14


 399              		.loc 1 148 0
 400 01fa B8000000 		movl	$0, %eax
 400      00
 401              	.LVL58:
 402              	.L6:
 403              	.LBE42:
 163:/home/baikal/workspace/C50/Huawei_IoT_Agent_Tiny_SDK_Linux//lwm2m/core/data.c **** 
 404              		.loc 1 163 0 discriminator 1
 405 01ff 4883C440 		addq	$64, %rsp
 406              	.LCFI12:
 407              		.cfi_def_cfa_offset 32
 408 0203 5B       		popq	%rbx
 409              	.LCFI13:
 410              		.cfi_restore 3
 411              		.cfi_def_cfa_offset 24
 412              	.LVL59:
 413 0204 5D       		popq	%rbp
 414              	.LCFI14:
 415              		.cfi_restore 6
 416              		.cfi_def_cfa_offset 16
 417 0205 415C     		popq	%r12
 418              	.LCFI15:
 419              		.cfi_restore 12
 420              		.cfi_def_cfa_offset 8
 421 0207 C3       		ret
 422              		.cfi_endproc
 423              	.LFE64:
 425              		.section	.text.lwm2m_data_decode_opaque,"ax",@progbits
 426              		.globl	lwm2m_data_decode_opaque
 428              	lwm2m_data_decode_opaque:
 429              	.LFB63:
  62:/home/baikal/workspace/C50/Huawei_IoT_Agent_Tiny_SDK_Linux//lwm2m/core/data.c ****     memcpy(valueP, dataP->value.asBuffer.buffer, dataP->value.asBuffer.length);
 430              		.loc 1 62 0
 431              		.cfi_startproc
 432              	.LVL60:
 433 0000 4883EC08 		subq	$8, %rsp
 434              	.LCFI16:
 435              		.cfi_def_cfa_offset 16
 436 0004 4889F0   		movq	%rsi, %rax
  63:/home/baikal/workspace/C50/Huawei_IoT_Agent_Tiny_SDK_Linux//lwm2m/core/data.c **** }
 437              		.loc 1 63 0
 438 0007 488B5708 		movq	8(%rdi), %rdx
 439 000b 488B7710 		movq	16(%rdi), %rsi
 440              	.LVL61:
 441              	.LBB43:
 442              	.LBB44:
 443              		.loc 2 53 0
 444 000f 4889C7   		movq	%rax, %rdi
 445              	.LVL62:
 446 0012 E8000000 		call	memcpy
 446      00
 447              	.LVL63:
 448              	.LBE44:
 449              	.LBE43:
  64:/home/baikal/workspace/C50/Huawei_IoT_Agent_Tiny_SDK_Linux//lwm2m/core/data.c **** 
 450              		.loc 1 64 0
 451 0017 4883C408 		addq	$8, %rsp
GAS LISTING /tmp/ccf9kSf2.s 			page 15


 452              	.LCFI17:
 453              		.cfi_def_cfa_offset 8
 454 001b C3       		ret
 455              		.cfi_endproc
 456              	.LFE63:
 458              		.section	.text.lwm2m_data_new,"ax",@progbits
 459              		.globl	lwm2m_data_new
 461              	lwm2m_data_new:
 462              	.LFB66:
 179:/home/baikal/workspace/C50/Huawei_IoT_Agent_Tiny_SDK_Linux//lwm2m/core/data.c **** 
 180:/home/baikal/workspace/C50/Huawei_IoT_Agent_Tiny_SDK_Linux//lwm2m/core/data.c **** lwm2m_data_t *lwm2m_data_new(int size)
 181:/home/baikal/workspace/C50/Huawei_IoT_Agent_Tiny_SDK_Linux//lwm2m/core/data.c **** {
 463              		.loc 1 181 0
 464              		.cfi_startproc
 465              	.LVL64:
 182:/home/baikal/workspace/C50/Huawei_IoT_Agent_Tiny_SDK_Linux//lwm2m/core/data.c ****     lwm2m_data_t *dataP;
 183:/home/baikal/workspace/C50/Huawei_IoT_Agent_Tiny_SDK_Linux//lwm2m/core/data.c **** 
 184:/home/baikal/workspace/C50/Huawei_IoT_Agent_Tiny_SDK_Linux//lwm2m/core/data.c ****     LOG_ARG("size: %d", size);
 185:/home/baikal/workspace/C50/Huawei_IoT_Agent_Tiny_SDK_Linux//lwm2m/core/data.c ****     if (size <= 0) return NULL;
 466              		.loc 1 185 0
 467 0000 85FF     		testl	%edi, %edi
 468 0002 7E3A     		jle	.L36
 181:/home/baikal/workspace/C50/Huawei_IoT_Agent_Tiny_SDK_Linux//lwm2m/core/data.c ****     lwm2m_data_t *dataP;
 469              		.loc 1 181 0
 470 0004 55       		pushq	%rbp
 471              	.LCFI18:
 472              		.cfi_def_cfa_offset 16
 473              		.cfi_offset 6, -16
 474 0005 53       		pushq	%rbx
 475              	.LCFI19:
 476              		.cfi_def_cfa_offset 24
 477              		.cfi_offset 3, -24
 478 0006 4883EC08 		subq	$8, %rsp
 479              	.LCFI20:
 480              		.cfi_def_cfa_offset 32
 186:/home/baikal/workspace/C50/Huawei_IoT_Agent_Tiny_SDK_Linux//lwm2m/core/data.c **** 
 187:/home/baikal/workspace/C50/Huawei_IoT_Agent_Tiny_SDK_Linux//lwm2m/core/data.c ****     dataP = (lwm2m_data_t *)lwm2m_malloc(size * sizeof(lwm2m_data_t));
 481              		.loc 1 187 0
 482 000a 4863FF   		movslq	%edi, %rdi
 483 000d 488D047F 		leaq	(%rdi,%rdi,2), %rax
 484 0011 488D2CC5 		leaq	0(,%rax,8), %rbp
 484      00000000 
 485 0019 4889EF   		movq	%rbp, %rdi
 486              	.LVL65:
 487 001c E8000000 		call	lwm2m_malloc
 487      00
 488              	.LVL66:
 489 0021 4889C3   		movq	%rax, %rbx
 490              	.LVL67:
 188:/home/baikal/workspace/C50/Huawei_IoT_Agent_Tiny_SDK_Linux//lwm2m/core/data.c **** 
 189:/home/baikal/workspace/C50/Huawei_IoT_Agent_Tiny_SDK_Linux//lwm2m/core/data.c ****     if (dataP != NULL)
 491              		.loc 1 189 0
 492 0024 4885C0   		testq	%rax, %rax
 493 0027 741B     		je	.L37
 494              	.LVL68:
 495              	.LBB45:
 496              	.LBB46:
GAS LISTING /tmp/ccf9kSf2.s 			page 16


  54:/usr/include/x86_64-linux-gnu/bits/string3.h **** }
  55:/usr/include/x86_64-linux-gnu/bits/string3.h **** 
  56:/usr/include/x86_64-linux-gnu/bits/string3.h **** __fortify_function void *
  57:/usr/include/x86_64-linux-gnu/bits/string3.h **** __NTH (memmove (void *__dest, const void *__src, size_t __len))
  58:/usr/include/x86_64-linux-gnu/bits/string3.h **** {
  59:/usr/include/x86_64-linux-gnu/bits/string3.h ****   return __builtin___memmove_chk (__dest, __src, __len, __bos0 (__dest));
  60:/usr/include/x86_64-linux-gnu/bits/string3.h **** }
  61:/usr/include/x86_64-linux-gnu/bits/string3.h **** 
  62:/usr/include/x86_64-linux-gnu/bits/string3.h **** #ifdef __USE_GNU
  63:/usr/include/x86_64-linux-gnu/bits/string3.h **** __fortify_function void *
  64:/usr/include/x86_64-linux-gnu/bits/string3.h **** __NTH (mempcpy (void *__restrict __dest, const void *__restrict __src,
  65:/usr/include/x86_64-linux-gnu/bits/string3.h **** 		size_t __len))
  66:/usr/include/x86_64-linux-gnu/bits/string3.h **** {
  67:/usr/include/x86_64-linux-gnu/bits/string3.h ****   return __builtin___mempcpy_chk (__dest, __src, __len, __bos0 (__dest));
  68:/usr/include/x86_64-linux-gnu/bits/string3.h **** }
  69:/usr/include/x86_64-linux-gnu/bits/string3.h **** #endif
  70:/usr/include/x86_64-linux-gnu/bits/string3.h **** 
  71:/usr/include/x86_64-linux-gnu/bits/string3.h **** 
  72:/usr/include/x86_64-linux-gnu/bits/string3.h **** /* The first two tests here help to catch a somewhat common problem
  73:/usr/include/x86_64-linux-gnu/bits/string3.h ****    where the second and third parameter are transposed.  This is
  74:/usr/include/x86_64-linux-gnu/bits/string3.h ****    especially problematic if the intended fill value is zero.  In this
  75:/usr/include/x86_64-linux-gnu/bits/string3.h ****    case no work is done at all.  We detect these problems by referring
  76:/usr/include/x86_64-linux-gnu/bits/string3.h ****    non-existing functions.  */
  77:/usr/include/x86_64-linux-gnu/bits/string3.h **** __fortify_function void *
  78:/usr/include/x86_64-linux-gnu/bits/string3.h **** __NTH (memset (void *__dest, int __ch, size_t __len))
  79:/usr/include/x86_64-linux-gnu/bits/string3.h **** {
  80:/usr/include/x86_64-linux-gnu/bits/string3.h ****   /* GCC-5.0 and newer implements these checks in the compiler, so we don't
  81:/usr/include/x86_64-linux-gnu/bits/string3.h ****      need them here.  */
  82:/usr/include/x86_64-linux-gnu/bits/string3.h **** #if !__GNUC_PREREQ (5,0)
  83:/usr/include/x86_64-linux-gnu/bits/string3.h ****   if (__builtin_constant_p (__len) && __len == 0
  84:/usr/include/x86_64-linux-gnu/bits/string3.h ****       && (!__builtin_constant_p (__ch) || __ch != 0))
  85:/usr/include/x86_64-linux-gnu/bits/string3.h ****     {
  86:/usr/include/x86_64-linux-gnu/bits/string3.h ****       __warn_memset_zero_len ();
  87:/usr/include/x86_64-linux-gnu/bits/string3.h ****       return __dest;
  88:/usr/include/x86_64-linux-gnu/bits/string3.h ****     }
  89:/usr/include/x86_64-linux-gnu/bits/string3.h **** #endif
  90:/usr/include/x86_64-linux-gnu/bits/string3.h ****   return __builtin___memset_chk (__dest, __ch, __len, __bos0 (__dest));
 497              		.loc 2 90 0
 498 0029 4889EA   		movq	%rbp, %rdx
 499 002c BE000000 		movl	$0, %esi
 499      00
 500 0031 4889C7   		movq	%rax, %rdi
 501 0034 E8000000 		call	memset
 501      00
 502              	.LVL69:
 503              	.LBE46:
 504              	.LBE45:
 190:/home/baikal/workspace/C50/Huawei_IoT_Agent_Tiny_SDK_Linux//lwm2m/core/data.c ****     {
 191:/home/baikal/workspace/C50/Huawei_IoT_Agent_Tiny_SDK_Linux//lwm2m/core/data.c ****         memset(dataP, 0, size * sizeof(lwm2m_data_t));
 192:/home/baikal/workspace/C50/Huawei_IoT_Agent_Tiny_SDK_Linux//lwm2m/core/data.c ****     }
 193:/home/baikal/workspace/C50/Huawei_IoT_Agent_Tiny_SDK_Linux//lwm2m/core/data.c **** 
 194:/home/baikal/workspace/C50/Huawei_IoT_Agent_Tiny_SDK_Linux//lwm2m/core/data.c ****     return dataP;
 505              		.loc 1 194 0
 506 0039 4889D8   		movq	%rbx, %rax
 507 003c EB06     		jmp	.L35
 508              	.LVL70:
 509              	.L36:
GAS LISTING /tmp/ccf9kSf2.s 			page 17


 510              	.LCFI21:
 511              		.cfi_def_cfa_offset 8
 512              		.cfi_restore 3
 513              		.cfi_restore 6
 185:/home/baikal/workspace/C50/Huawei_IoT_Agent_Tiny_SDK_Linux//lwm2m/core/data.c **** 
 514              		.loc 1 185 0
 515 003e B8000000 		movl	$0, %eax
 515      00
 195:/home/baikal/workspace/C50/Huawei_IoT_Agent_Tiny_SDK_Linux//lwm2m/core/data.c **** }
 516              		.loc 1 195 0
 517 0043 C3       		ret
 518              	.LVL71:
 519              	.L37:
 520              	.LCFI22:
 521              		.cfi_def_cfa_offset 32
 522              		.cfi_offset 3, -24
 523              		.cfi_offset 6, -16
 524              	.L35:
 525 0044 4883C408 		addq	$8, %rsp
 526              	.LCFI23:
 527              		.cfi_def_cfa_offset 24
 528 0048 5B       		popq	%rbx
 529              	.LCFI24:
 530              		.cfi_restore 3
 531              		.cfi_def_cfa_offset 16
 532 0049 5D       		popq	%rbp
 533              	.LCFI25:
 534              		.cfi_restore 6
 535              		.cfi_def_cfa_offset 8
 536 004a C3       		ret
 537              		.cfi_endproc
 538              	.LFE66:
 540              		.section	.text.lwm2m_data_free,"ax",@progbits
 541              		.globl	lwm2m_data_free
 543              	lwm2m_data_free:
 544              	.LFB67:
 196:/home/baikal/workspace/C50/Huawei_IoT_Agent_Tiny_SDK_Linux//lwm2m/core/data.c **** 
 197:/home/baikal/workspace/C50/Huawei_IoT_Agent_Tiny_SDK_Linux//lwm2m/core/data.c **** void lwm2m_data_free(int size,
 198:/home/baikal/workspace/C50/Huawei_IoT_Agent_Tiny_SDK_Linux//lwm2m/core/data.c ****                      lwm2m_data_t *dataP)
 199:/home/baikal/workspace/C50/Huawei_IoT_Agent_Tiny_SDK_Linux//lwm2m/core/data.c **** {
 545              		.loc 1 199 0
 546              		.cfi_startproc
 547              	.LVL72:
 200:/home/baikal/workspace/C50/Huawei_IoT_Agent_Tiny_SDK_Linux//lwm2m/core/data.c ****     int i;
 201:/home/baikal/workspace/C50/Huawei_IoT_Agent_Tiny_SDK_Linux//lwm2m/core/data.c **** 
 202:/home/baikal/workspace/C50/Huawei_IoT_Agent_Tiny_SDK_Linux//lwm2m/core/data.c ****     LOG_ARG("size: %d", size);
 203:/home/baikal/workspace/C50/Huawei_IoT_Agent_Tiny_SDK_Linux//lwm2m/core/data.c ****     if (size == 0 || dataP == NULL) return;
 548              		.loc 1 203 0
 549 0000 85FF     		testl	%edi, %edi
 550 0002 0F94C2   		sete	%dl
 551 0005 4885F6   		testq	%rsi, %rsi
 552 0008 0F94C0   		sete	%al
 553 000b 08C2     		orb	%al, %dl
 554 000d 7567     		jne	.L49
 199:/home/baikal/workspace/C50/Huawei_IoT_Agent_Tiny_SDK_Linux//lwm2m/core/data.c ****     int i;
 555              		.loc 1 199 0
 556 000f 4154     		pushq	%r12
GAS LISTING /tmp/ccf9kSf2.s 			page 18


 557              	.LCFI26:
 558              		.cfi_def_cfa_offset 16
 559              		.cfi_offset 12, -16
 560 0011 55       		pushq	%rbp
 561              	.LCFI27:
 562              		.cfi_def_cfa_offset 24
 563              		.cfi_offset 6, -24
 564 0012 53       		pushq	%rbx
 565              	.LCFI28:
 566              		.cfi_def_cfa_offset 32
 567              		.cfi_offset 3, -32
 568 0013 4889F5   		movq	%rsi, %rbp
 569 0016 4189FC   		movl	%edi, %r12d
 570 0019 BB000000 		movl	$0, %ebx
 570      00
 571 001e EB45     		jmp	.L41
 572              	.LVL73:
 573              	.L45:
 204:/home/baikal/workspace/C50/Huawei_IoT_Agent_Tiny_SDK_Linux//lwm2m/core/data.c **** 
 205:/home/baikal/workspace/C50/Huawei_IoT_Agent_Tiny_SDK_Linux//lwm2m/core/data.c ****     for (i = 0; i < size; i++)
 206:/home/baikal/workspace/C50/Huawei_IoT_Agent_Tiny_SDK_Linux//lwm2m/core/data.c ****     {
 207:/home/baikal/workspace/C50/Huawei_IoT_Agent_Tiny_SDK_Linux//lwm2m/core/data.c ****         switch (dataP[i].type)
 574              		.loc 1 207 0
 575 0020 4863C3   		movslq	%ebx, %rax
 576 0023 488D1440 		leaq	(%rax,%rax,2), %rdx
 577 0027 488D04D5 		leaq	0(,%rdx,8), %rax
 577      00000000 
 578 002f 4801E8   		addq	%rbp, %rax
 579 0032 8B10     		movl	(%rax), %edx
 580 0034 83FA01   		cmpl	$1, %edx
 581 0037 7229     		jb	.L42
 582 0039 83FA03   		cmpl	$3, %edx
 583 003c 7607     		jbe	.L43
 584 003e 83FA05   		cmpl	$5, %edx
 585 0041 7611     		jbe	.L46
 586 0043 EB1D     		jmp	.L42
 587              	.L43:
 208:/home/baikal/workspace/C50/Huawei_IoT_Agent_Tiny_SDK_Linux//lwm2m/core/data.c ****         {
 209:/home/baikal/workspace/C50/Huawei_IoT_Agent_Tiny_SDK_Linux//lwm2m/core/data.c ****         case LWM2M_TYPE_MULTIPLE_RESOURCE:
 210:/home/baikal/workspace/C50/Huawei_IoT_Agent_Tiny_SDK_Linux//lwm2m/core/data.c ****         case LWM2M_TYPE_OBJECT_INSTANCE:
 211:/home/baikal/workspace/C50/Huawei_IoT_Agent_Tiny_SDK_Linux//lwm2m/core/data.c ****         case LWM2M_TYPE_OBJECT:
 212:/home/baikal/workspace/C50/Huawei_IoT_Agent_Tiny_SDK_Linux//lwm2m/core/data.c ****             lwm2m_data_free(dataP[i].value.asChildren.count, dataP[i].value.asChildren.array);
 588              		.loc 1 212 0
 589 0045 488B7808 		movq	8(%rax), %rdi
 590 0049 488B7010 		movq	16(%rax), %rsi
 591 004d E8000000 		call	lwm2m_data_free
 591      00
 592              	.LVL74:
 213:/home/baikal/workspace/C50/Huawei_IoT_Agent_Tiny_SDK_Linux//lwm2m/core/data.c ****             break;
 593              		.loc 1 213 0
 594 0052 EB0E     		jmp	.L42
 595              	.L46:
 214:/home/baikal/workspace/C50/Huawei_IoT_Agent_Tiny_SDK_Linux//lwm2m/core/data.c **** 
 215:/home/baikal/workspace/C50/Huawei_IoT_Agent_Tiny_SDK_Linux//lwm2m/core/data.c ****         case LWM2M_TYPE_STRING:
 216:/home/baikal/workspace/C50/Huawei_IoT_Agent_Tiny_SDK_Linux//lwm2m/core/data.c ****         case LWM2M_TYPE_OPAQUE:
 217:/home/baikal/workspace/C50/Huawei_IoT_Agent_Tiny_SDK_Linux//lwm2m/core/data.c ****             if (dataP[i].value.asBuffer.buffer != NULL)
 596              		.loc 1 217 0
GAS LISTING /tmp/ccf9kSf2.s 			page 19


 597 0054 488B7810 		movq	16(%rax), %rdi
 598 0058 4885FF   		testq	%rdi, %rdi
 599 005b 7405     		je	.L42
 218:/home/baikal/workspace/C50/Huawei_IoT_Agent_Tiny_SDK_Linux//lwm2m/core/data.c ****             {
 219:/home/baikal/workspace/C50/Huawei_IoT_Agent_Tiny_SDK_Linux//lwm2m/core/data.c ****                 lwm2m_free(dataP[i].value.asBuffer.buffer);
 600              		.loc 1 219 0
 601 005d E8000000 		call	lwm2m_free
 601      00
 602              	.LVL75:
 603              	.L42:
 205:/home/baikal/workspace/C50/Huawei_IoT_Agent_Tiny_SDK_Linux//lwm2m/core/data.c ****     {
 604              		.loc 1 205 0 discriminator 2
 605 0062 83C301   		addl	$1, %ebx
 606              	.LVL76:
 607              	.L41:
 205:/home/baikal/workspace/C50/Huawei_IoT_Agent_Tiny_SDK_Linux//lwm2m/core/data.c ****     {
 608              		.loc 1 205 0 is_stmt 0 discriminator 1
 609 0065 4439E3   		cmpl	%r12d, %ebx
 610 0068 7CB6     		jl	.L45
 220:/home/baikal/workspace/C50/Huawei_IoT_Agent_Tiny_SDK_Linux//lwm2m/core/data.c ****             }
 221:/home/baikal/workspace/C50/Huawei_IoT_Agent_Tiny_SDK_Linux//lwm2m/core/data.c **** 
 222:/home/baikal/workspace/C50/Huawei_IoT_Agent_Tiny_SDK_Linux//lwm2m/core/data.c ****         default:
 223:/home/baikal/workspace/C50/Huawei_IoT_Agent_Tiny_SDK_Linux//lwm2m/core/data.c ****             // do nothing
 224:/home/baikal/workspace/C50/Huawei_IoT_Agent_Tiny_SDK_Linux//lwm2m/core/data.c ****             break;
 225:/home/baikal/workspace/C50/Huawei_IoT_Agent_Tiny_SDK_Linux//lwm2m/core/data.c ****         }
 226:/home/baikal/workspace/C50/Huawei_IoT_Agent_Tiny_SDK_Linux//lwm2m/core/data.c ****     }
 227:/home/baikal/workspace/C50/Huawei_IoT_Agent_Tiny_SDK_Linux//lwm2m/core/data.c ****     lwm2m_free(dataP);
 611              		.loc 1 227 0 is_stmt 1
 612 006a 4889EF   		movq	%rbp, %rdi
 613 006d E8000000 		call	lwm2m_free
 613      00
 614              	.LVL77:
 228:/home/baikal/workspace/C50/Huawei_IoT_Agent_Tiny_SDK_Linux//lwm2m/core/data.c **** }
 615              		.loc 1 228 0
 616 0072 5B       		popq	%rbx
 617              	.LCFI29:
 618              		.cfi_restore 3
 619              		.cfi_def_cfa_offset 24
 620              	.LVL78:
 621 0073 5D       		popq	%rbp
 622              	.LCFI30:
 623              		.cfi_restore 6
 624              		.cfi_def_cfa_offset 16
 625              	.LVL79:
 626 0074 415C     		popq	%r12
 627              	.LCFI31:
 628              		.cfi_restore 12
 629              		.cfi_def_cfa_offset 8
 630              	.LVL80:
 631              	.L49:
 632 0076 F3C3     		rep ret
 633              		.cfi_endproc
 634              	.LFE67:
 636              		.section	.text.lwm2m_data_encode_string,"ax",@progbits
 637              		.globl	lwm2m_data_encode_string
 639              	lwm2m_data_encode_string:
 640              	.LFB68:
GAS LISTING /tmp/ccf9kSf2.s 			page 20


 229:/home/baikal/workspace/C50/Huawei_IoT_Agent_Tiny_SDK_Linux//lwm2m/core/data.c **** 
 230:/home/baikal/workspace/C50/Huawei_IoT_Agent_Tiny_SDK_Linux//lwm2m/core/data.c **** void lwm2m_data_encode_string(const char *string,
 231:/home/baikal/workspace/C50/Huawei_IoT_Agent_Tiny_SDK_Linux//lwm2m/core/data.c ****                               lwm2m_data_t *dataP)
 232:/home/baikal/workspace/C50/Huawei_IoT_Agent_Tiny_SDK_Linux//lwm2m/core/data.c **** {
 641              		.loc 1 232 0
 642              		.cfi_startproc
 643              	.LVL81:
 644 0000 53       		pushq	%rbx
 645              	.LCFI32:
 646              		.cfi_def_cfa_offset 16
 647              		.cfi_offset 3, -16
 648 0001 4889F3   		movq	%rsi, %rbx
 233:/home/baikal/workspace/C50/Huawei_IoT_Agent_Tiny_SDK_Linux//lwm2m/core/data.c ****     size_t len;
 234:/home/baikal/workspace/C50/Huawei_IoT_Agent_Tiny_SDK_Linux//lwm2m/core/data.c ****     int res;
 235:/home/baikal/workspace/C50/Huawei_IoT_Agent_Tiny_SDK_Linux//lwm2m/core/data.c **** 
 236:/home/baikal/workspace/C50/Huawei_IoT_Agent_Tiny_SDK_Linux//lwm2m/core/data.c ****     LOG_ARG("\"%s\"", string);
 237:/home/baikal/workspace/C50/Huawei_IoT_Agent_Tiny_SDK_Linux//lwm2m/core/data.c ****     if (string == NULL)
 649              		.loc 1 237 0
 650 0004 4885FF   		testq	%rdi, %rdi
 651 0007 7413     		je	.L58
 652 0009 BA000000 		movl	$0, %edx
 652      00
 653 000e EB04     		jmp	.L52
 654              	.LVL82:
 655              	.L53:
 238:/home/baikal/workspace/C50/Huawei_IoT_Agent_Tiny_SDK_Linux//lwm2m/core/data.c ****     {
 239:/home/baikal/workspace/C50/Huawei_IoT_Agent_Tiny_SDK_Linux//lwm2m/core/data.c ****         len = 0;
 240:/home/baikal/workspace/C50/Huawei_IoT_Agent_Tiny_SDK_Linux//lwm2m/core/data.c ****     }
 241:/home/baikal/workspace/C50/Huawei_IoT_Agent_Tiny_SDK_Linux//lwm2m/core/data.c ****     else
 242:/home/baikal/workspace/C50/Huawei_IoT_Agent_Tiny_SDK_Linux//lwm2m/core/data.c ****     {
 243:/home/baikal/workspace/C50/Huawei_IoT_Agent_Tiny_SDK_Linux//lwm2m/core/data.c ****         for (len = 0; string[len] != 0; len++);
 656              		.loc 1 243 0 discriminator 3
 657 0010 4883C201 		addq	$1, %rdx
 658              	.LVL83:
 659              	.L52:
 660              		.loc 1 243 0 is_stmt 0 discriminator 1
 661 0014 803C1700 		cmpb	$0, (%rdi,%rdx)
 662 0018 75F6     		jne	.L53
 663 001a EB05     		jmp	.L51
 664              	.LVL84:
 665              	.L58:
 239:/home/baikal/workspace/C50/Huawei_IoT_Agent_Tiny_SDK_Linux//lwm2m/core/data.c ****     }
 666              		.loc 1 239 0 is_stmt 1
 667 001c BA000000 		movl	$0, %edx
 667      00
 668              	.L51:
 669              	.LVL85:
 244:/home/baikal/workspace/C50/Huawei_IoT_Agent_Tiny_SDK_Linux//lwm2m/core/data.c ****     }
 245:/home/baikal/workspace/C50/Huawei_IoT_Agent_Tiny_SDK_Linux//lwm2m/core/data.c **** 
 246:/home/baikal/workspace/C50/Huawei_IoT_Agent_Tiny_SDK_Linux//lwm2m/core/data.c ****     if (len == 0)
 670              		.loc 1 246 0
 671 0021 4885D2   		testq	%rdx, %rdx
 672 0024 7517     		jne	.L54
 247:/home/baikal/workspace/C50/Huawei_IoT_Agent_Tiny_SDK_Linux//lwm2m/core/data.c ****     {
 248:/home/baikal/workspace/C50/Huawei_IoT_Agent_Tiny_SDK_Linux//lwm2m/core/data.c ****         dataP->value.asBuffer.length = 0;
 673              		.loc 1 248 0
 674 0026 48C74308 		movq	$0, 8(%rbx)
GAS LISTING /tmp/ccf9kSf2.s 			page 21


 674      00000000 
 249:/home/baikal/workspace/C50/Huawei_IoT_Agent_Tiny_SDK_Linux//lwm2m/core/data.c ****         dataP->value.asBuffer.buffer = NULL;
 675              		.loc 1 249 0
 676 002e 48C74310 		movq	$0, 16(%rbx)
 676      00000000 
 677              	.LVL86:
 250:/home/baikal/workspace/C50/Huawei_IoT_Agent_Tiny_SDK_Linux//lwm2m/core/data.c ****         res = 1;
 678              		.loc 1 250 0
 679 0036 B8010000 		movl	$1, %eax
 679      00
 680 003b EB0B     		jmp	.L55
 681              	.LVL87:
 682              	.L54:
 251:/home/baikal/workspace/C50/Huawei_IoT_Agent_Tiny_SDK_Linux//lwm2m/core/data.c ****     }
 252:/home/baikal/workspace/C50/Huawei_IoT_Agent_Tiny_SDK_Linux//lwm2m/core/data.c ****     else
 253:/home/baikal/workspace/C50/Huawei_IoT_Agent_Tiny_SDK_Linux//lwm2m/core/data.c ****     {
 254:/home/baikal/workspace/C50/Huawei_IoT_Agent_Tiny_SDK_Linux//lwm2m/core/data.c ****         res = prv_setBuffer(dataP, (uint8_t *)string, len);
 683              		.loc 1 254 0
 684 003d 4889FE   		movq	%rdi, %rsi
 685 0040 4889DF   		movq	%rbx, %rdi
 686              	.LVL88:
 687 0043 E8000000 		call	prv_setBuffer
 687      00
 688              	.LVL89:
 689              	.L55:
 255:/home/baikal/workspace/C50/Huawei_IoT_Agent_Tiny_SDK_Linux//lwm2m/core/data.c ****     }
 256:/home/baikal/workspace/C50/Huawei_IoT_Agent_Tiny_SDK_Linux//lwm2m/core/data.c **** 
 257:/home/baikal/workspace/C50/Huawei_IoT_Agent_Tiny_SDK_Linux//lwm2m/core/data.c ****     if (res == 1)
 690              		.loc 1 257 0
 691 0048 83F801   		cmpl	$1, %eax
 692 004b 7508     		jne	.L56
 258:/home/baikal/workspace/C50/Huawei_IoT_Agent_Tiny_SDK_Linux//lwm2m/core/data.c ****     {
 259:/home/baikal/workspace/C50/Huawei_IoT_Agent_Tiny_SDK_Linux//lwm2m/core/data.c ****         dataP->type = LWM2M_TYPE_STRING;
 693              		.loc 1 259 0
 694 004d C7030400 		movl	$4, (%rbx)
 694      0000
 695 0053 EB06     		jmp	.L50
 696              	.L56:
 260:/home/baikal/workspace/C50/Huawei_IoT_Agent_Tiny_SDK_Linux//lwm2m/core/data.c ****     }
 261:/home/baikal/workspace/C50/Huawei_IoT_Agent_Tiny_SDK_Linux//lwm2m/core/data.c ****     else
 262:/home/baikal/workspace/C50/Huawei_IoT_Agent_Tiny_SDK_Linux//lwm2m/core/data.c ****     {
 263:/home/baikal/workspace/C50/Huawei_IoT_Agent_Tiny_SDK_Linux//lwm2m/core/data.c ****         dataP->type = LWM2M_TYPE_UNDEFINED;
 697              		.loc 1 263 0
 698 0055 C7030000 		movl	$0, (%rbx)
 698      0000
 699              	.L50:
 264:/home/baikal/workspace/C50/Huawei_IoT_Agent_Tiny_SDK_Linux//lwm2m/core/data.c ****     }
 265:/home/baikal/workspace/C50/Huawei_IoT_Agent_Tiny_SDK_Linux//lwm2m/core/data.c **** }
 700              		.loc 1 265 0
 701 005b 5B       		popq	%rbx
 702              	.LCFI33:
 703              		.cfi_def_cfa_offset 8
 704              	.LVL90:
 705 005c C3       		ret
 706              		.cfi_endproc
 707              	.LFE68:
 709              		.section	.text.lwm2m_data_encode_opaque,"ax",@progbits
GAS LISTING /tmp/ccf9kSf2.s 			page 22


 710              		.globl	lwm2m_data_encode_opaque
 712              	lwm2m_data_encode_opaque:
 713              	.LFB69:
 266:/home/baikal/workspace/C50/Huawei_IoT_Agent_Tiny_SDK_Linux//lwm2m/core/data.c **** 
 267:/home/baikal/workspace/C50/Huawei_IoT_Agent_Tiny_SDK_Linux//lwm2m/core/data.c **** void lwm2m_data_encode_opaque(uint8_t *buffer,
 268:/home/baikal/workspace/C50/Huawei_IoT_Agent_Tiny_SDK_Linux//lwm2m/core/data.c ****                               size_t length,
 269:/home/baikal/workspace/C50/Huawei_IoT_Agent_Tiny_SDK_Linux//lwm2m/core/data.c ****                               lwm2m_data_t *dataP)
 270:/home/baikal/workspace/C50/Huawei_IoT_Agent_Tiny_SDK_Linux//lwm2m/core/data.c **** {
 714              		.loc 1 270 0
 715              		.cfi_startproc
 716              	.LVL91:
 717 0000 53       		pushq	%rbx
 718              	.LCFI34:
 719              		.cfi_def_cfa_offset 16
 720              		.cfi_offset 3, -16
 721 0001 4889D3   		movq	%rdx, %rbx
 271:/home/baikal/workspace/C50/Huawei_IoT_Agent_Tiny_SDK_Linux//lwm2m/core/data.c ****     int res;
 272:/home/baikal/workspace/C50/Huawei_IoT_Agent_Tiny_SDK_Linux//lwm2m/core/data.c **** 
 273:/home/baikal/workspace/C50/Huawei_IoT_Agent_Tiny_SDK_Linux//lwm2m/core/data.c ****     LOG_ARG("length: %d", length);
 274:/home/baikal/workspace/C50/Huawei_IoT_Agent_Tiny_SDK_Linux//lwm2m/core/data.c ****     if (length == 0)
 722              		.loc 1 274 0
 723 0004 4885F6   		testq	%rsi, %rsi
 724 0007 7517     		jne	.L61
 275:/home/baikal/workspace/C50/Huawei_IoT_Agent_Tiny_SDK_Linux//lwm2m/core/data.c ****     {
 276:/home/baikal/workspace/C50/Huawei_IoT_Agent_Tiny_SDK_Linux//lwm2m/core/data.c ****         dataP->value.asBuffer.length = 0;
 725              		.loc 1 276 0
 726 0009 48C74208 		movq	$0, 8(%rdx)
 726      00000000 
 277:/home/baikal/workspace/C50/Huawei_IoT_Agent_Tiny_SDK_Linux//lwm2m/core/data.c ****         dataP->value.asBuffer.buffer = NULL;
 727              		.loc 1 277 0
 728 0011 48C74210 		movq	$0, 16(%rdx)
 728      00000000 
 729              	.LVL92:
 278:/home/baikal/workspace/C50/Huawei_IoT_Agent_Tiny_SDK_Linux//lwm2m/core/data.c ****         res = 1;
 730              		.loc 1 278 0
 731 0019 B8010000 		movl	$1, %eax
 731      00
 732 001e EB0E     		jmp	.L62
 733              	.LVL93:
 734              	.L61:
 279:/home/baikal/workspace/C50/Huawei_IoT_Agent_Tiny_SDK_Linux//lwm2m/core/data.c ****     }
 280:/home/baikal/workspace/C50/Huawei_IoT_Agent_Tiny_SDK_Linux//lwm2m/core/data.c ****     else
 281:/home/baikal/workspace/C50/Huawei_IoT_Agent_Tiny_SDK_Linux//lwm2m/core/data.c ****     {
 282:/home/baikal/workspace/C50/Huawei_IoT_Agent_Tiny_SDK_Linux//lwm2m/core/data.c ****         res = prv_setBuffer(dataP, buffer, length);
 735              		.loc 1 282 0
 736 0020 4889F2   		movq	%rsi, %rdx
 737              	.LVL94:
 738 0023 4889FE   		movq	%rdi, %rsi
 739              	.LVL95:
 740 0026 4889DF   		movq	%rbx, %rdi
 741              	.LVL96:
 742 0029 E8000000 		call	prv_setBuffer
 742      00
 743              	.LVL97:
 744              	.L62:
 283:/home/baikal/workspace/C50/Huawei_IoT_Agent_Tiny_SDK_Linux//lwm2m/core/data.c ****     }
 284:/home/baikal/workspace/C50/Huawei_IoT_Agent_Tiny_SDK_Linux//lwm2m/core/data.c **** 
GAS LISTING /tmp/ccf9kSf2.s 			page 23


 285:/home/baikal/workspace/C50/Huawei_IoT_Agent_Tiny_SDK_Linux//lwm2m/core/data.c ****     if (res == 1)
 745              		.loc 1 285 0
 746 002e 83F801   		cmpl	$1, %eax
 747 0031 7508     		jne	.L63
 286:/home/baikal/workspace/C50/Huawei_IoT_Agent_Tiny_SDK_Linux//lwm2m/core/data.c ****     {
 287:/home/baikal/workspace/C50/Huawei_IoT_Agent_Tiny_SDK_Linux//lwm2m/core/data.c ****         dataP->type = LWM2M_TYPE_OPAQUE;
 748              		.loc 1 287 0
 749 0033 C7030500 		movl	$5, (%rbx)
 749      0000
 750 0039 EB06     		jmp	.L60
 751              	.L63:
 288:/home/baikal/workspace/C50/Huawei_IoT_Agent_Tiny_SDK_Linux//lwm2m/core/data.c ****     }
 289:/home/baikal/workspace/C50/Huawei_IoT_Agent_Tiny_SDK_Linux//lwm2m/core/data.c ****     else
 290:/home/baikal/workspace/C50/Huawei_IoT_Agent_Tiny_SDK_Linux//lwm2m/core/data.c ****     {
 291:/home/baikal/workspace/C50/Huawei_IoT_Agent_Tiny_SDK_Linux//lwm2m/core/data.c ****         dataP->type = LWM2M_TYPE_UNDEFINED;
 752              		.loc 1 291 0
 753 003b C7030000 		movl	$0, (%rbx)
 753      0000
 754              	.L60:
 292:/home/baikal/workspace/C50/Huawei_IoT_Agent_Tiny_SDK_Linux//lwm2m/core/data.c ****     }
 293:/home/baikal/workspace/C50/Huawei_IoT_Agent_Tiny_SDK_Linux//lwm2m/core/data.c **** }
 755              		.loc 1 293 0
 756 0041 5B       		popq	%rbx
 757              	.LCFI35:
 758              		.cfi_def_cfa_offset 8
 759              	.LVL98:
 760 0042 C3       		ret
 761              		.cfi_endproc
 762              	.LFE69:
 764              		.section	.text.lwm2m_data_encode_nstring,"ax",@progbits
 765              		.globl	lwm2m_data_encode_nstring
 767              	lwm2m_data_encode_nstring:
 768              	.LFB70:
 294:/home/baikal/workspace/C50/Huawei_IoT_Agent_Tiny_SDK_Linux//lwm2m/core/data.c **** 
 295:/home/baikal/workspace/C50/Huawei_IoT_Agent_Tiny_SDK_Linux//lwm2m/core/data.c **** void lwm2m_data_encode_nstring(const char *string,
 296:/home/baikal/workspace/C50/Huawei_IoT_Agent_Tiny_SDK_Linux//lwm2m/core/data.c ****                                size_t length,
 297:/home/baikal/workspace/C50/Huawei_IoT_Agent_Tiny_SDK_Linux//lwm2m/core/data.c ****                                lwm2m_data_t *dataP)
 298:/home/baikal/workspace/C50/Huawei_IoT_Agent_Tiny_SDK_Linux//lwm2m/core/data.c **** {
 769              		.loc 1 298 0
 770              		.cfi_startproc
 771              	.LVL99:
 772 0000 53       		pushq	%rbx
 773              	.LCFI36:
 774              		.cfi_def_cfa_offset 16
 775              		.cfi_offset 3, -16
 776 0001 4889D3   		movq	%rdx, %rbx
 299:/home/baikal/workspace/C50/Huawei_IoT_Agent_Tiny_SDK_Linux//lwm2m/core/data.c ****     LOG_ARG("length: %d, string: \"%s\"", length, string);
 300:/home/baikal/workspace/C50/Huawei_IoT_Agent_Tiny_SDK_Linux//lwm2m/core/data.c ****     lwm2m_data_encode_opaque((uint8_t *)string, length, dataP);
 777              		.loc 1 300 0
 778 0004 E8000000 		call	lwm2m_data_encode_opaque
 778      00
 779              	.LVL100:
 301:/home/baikal/workspace/C50/Huawei_IoT_Agent_Tiny_SDK_Linux//lwm2m/core/data.c **** 
 302:/home/baikal/workspace/C50/Huawei_IoT_Agent_Tiny_SDK_Linux//lwm2m/core/data.c ****     if (dataP->type == LWM2M_TYPE_OPAQUE)
 780              		.loc 1 302 0
 781 0009 833B05   		cmpl	$5, (%rbx)
 782 000c 7506     		jne	.L66
GAS LISTING /tmp/ccf9kSf2.s 			page 24


 303:/home/baikal/workspace/C50/Huawei_IoT_Agent_Tiny_SDK_Linux//lwm2m/core/data.c ****     {
 304:/home/baikal/workspace/C50/Huawei_IoT_Agent_Tiny_SDK_Linux//lwm2m/core/data.c ****         dataP->type = LWM2M_TYPE_STRING;
 783              		.loc 1 304 0
 784 000e C7030400 		movl	$4, (%rbx)
 784      0000
 785              	.L66:
 305:/home/baikal/workspace/C50/Huawei_IoT_Agent_Tiny_SDK_Linux//lwm2m/core/data.c ****     }
 306:/home/baikal/workspace/C50/Huawei_IoT_Agent_Tiny_SDK_Linux//lwm2m/core/data.c **** }
 786              		.loc 1 306 0
 787 0014 5B       		popq	%rbx
 788              	.LCFI37:
 789              		.cfi_def_cfa_offset 8
 790              	.LVL101:
 791 0015 C3       		ret
 792              		.cfi_endproc
 793              	.LFE70:
 795              		.section	.text.lwm2m_data_encode_int,"ax",@progbits
 796              		.globl	lwm2m_data_encode_int
 798              	lwm2m_data_encode_int:
 799              	.LFB71:
 307:/home/baikal/workspace/C50/Huawei_IoT_Agent_Tiny_SDK_Linux//lwm2m/core/data.c **** 
 308:/home/baikal/workspace/C50/Huawei_IoT_Agent_Tiny_SDK_Linux//lwm2m/core/data.c **** void lwm2m_data_encode_int(int64_t value,
 309:/home/baikal/workspace/C50/Huawei_IoT_Agent_Tiny_SDK_Linux//lwm2m/core/data.c ****                            lwm2m_data_t *dataP)
 310:/home/baikal/workspace/C50/Huawei_IoT_Agent_Tiny_SDK_Linux//lwm2m/core/data.c **** {
 800              		.loc 1 310 0
 801              		.cfi_startproc
 802              	.LVL102:
 311:/home/baikal/workspace/C50/Huawei_IoT_Agent_Tiny_SDK_Linux//lwm2m/core/data.c ****     LOG_ARG("value: %" PRId64 "", value);
 312:/home/baikal/workspace/C50/Huawei_IoT_Agent_Tiny_SDK_Linux//lwm2m/core/data.c ****     dataP->type = LWM2M_TYPE_INTEGER;
 803              		.loc 1 312 0
 804 0000 C7060600 		movl	$6, (%rsi)
 804      0000
 313:/home/baikal/workspace/C50/Huawei_IoT_Agent_Tiny_SDK_Linux//lwm2m/core/data.c ****     dataP->value.asInteger = value;
 805              		.loc 1 313 0
 806 0006 48897E08 		movq	%rdi, 8(%rsi)
 807 000a C3       		ret
 808              		.cfi_endproc
 809              	.LFE71:
 811              		.section	.text.lwm2m_data_decode_int,"ax",@progbits
 812              		.globl	lwm2m_data_decode_int
 814              	lwm2m_data_decode_int:
 815              	.LFB72:
 314:/home/baikal/workspace/C50/Huawei_IoT_Agent_Tiny_SDK_Linux//lwm2m/core/data.c **** }
 315:/home/baikal/workspace/C50/Huawei_IoT_Agent_Tiny_SDK_Linux//lwm2m/core/data.c **** 
 316:/home/baikal/workspace/C50/Huawei_IoT_Agent_Tiny_SDK_Linux//lwm2m/core/data.c **** int lwm2m_data_decode_int(const lwm2m_data_t *dataP,
 317:/home/baikal/workspace/C50/Huawei_IoT_Agent_Tiny_SDK_Linux//lwm2m/core/data.c ****                           int64_t *valueP)
 318:/home/baikal/workspace/C50/Huawei_IoT_Agent_Tiny_SDK_Linux//lwm2m/core/data.c **** {
 816              		.loc 1 318 0
 817              		.cfi_startproc
 818              	.LVL103:
 819 0000 53       		pushq	%rbx
 820              	.LCFI38:
 821              		.cfi_def_cfa_offset 16
 822              		.cfi_offset 3, -16
 823 0001 4883EC10 		subq	$16, %rsp
 824              	.LCFI39:
 825              		.cfi_def_cfa_offset 32
GAS LISTING /tmp/ccf9kSf2.s 			page 25


 826 0005 4889F3   		movq	%rsi, %rbx
 319:/home/baikal/workspace/C50/Huawei_IoT_Agent_Tiny_SDK_Linux//lwm2m/core/data.c ****     int result;
 320:/home/baikal/workspace/C50/Huawei_IoT_Agent_Tiny_SDK_Linux//lwm2m/core/data.c **** 
 321:/home/baikal/workspace/C50/Huawei_IoT_Agent_Tiny_SDK_Linux//lwm2m/core/data.c ****     LOG("Entering");
 322:/home/baikal/workspace/C50/Huawei_IoT_Agent_Tiny_SDK_Linux//lwm2m/core/data.c ****     switch (dataP->type)
 827              		.loc 1 322 0
 828 0008 8B07     		movl	(%rdi), %eax
 829 000a 83F805   		cmpl	$5, %eax
 830 000d 7436     		je	.L72
 831 000f 83F806   		cmpl	$6, %eax
 832 0012 740B     		je	.L73
 833 0014 83F804   		cmpl	$4, %eax
 834 0017 0F85AE00 		jne	.L82
 834      0000
 835 001d EB11     		jmp	.L74
 836              	.L73:
 323:/home/baikal/workspace/C50/Huawei_IoT_Agent_Tiny_SDK_Linux//lwm2m/core/data.c ****     {
 324:/home/baikal/workspace/C50/Huawei_IoT_Agent_Tiny_SDK_Linux//lwm2m/core/data.c ****     case LWM2M_TYPE_INTEGER:
 325:/home/baikal/workspace/C50/Huawei_IoT_Agent_Tiny_SDK_Linux//lwm2m/core/data.c ****         *valueP = dataP->value.asInteger;
 837              		.loc 1 325 0
 838 001f 488B4708 		movq	8(%rdi), %rax
 839 0023 488906   		movq	%rax, (%rsi)
 840              	.LVL104:
 326:/home/baikal/workspace/C50/Huawei_IoT_Agent_Tiny_SDK_Linux//lwm2m/core/data.c ****         result = 1;
 841              		.loc 1 326 0
 842 0026 B8010000 		movl	$1, %eax
 842      00
 327:/home/baikal/workspace/C50/Huawei_IoT_Agent_Tiny_SDK_Linux//lwm2m/core/data.c ****         break;
 843              		.loc 1 327 0
 844 002b E9A70000 		jmp	.L71
 844      00
 845              	.LVL105:
 846              	.L74:
 328:/home/baikal/workspace/C50/Huawei_IoT_Agent_Tiny_SDK_Linux//lwm2m/core/data.c **** 
 329:/home/baikal/workspace/C50/Huawei_IoT_Agent_Tiny_SDK_Linux//lwm2m/core/data.c ****     case LWM2M_TYPE_STRING:
 330:/home/baikal/workspace/C50/Huawei_IoT_Agent_Tiny_SDK_Linux//lwm2m/core/data.c ****         result = utils_textToInt(dataP->value.asBuffer.buffer, dataP->value.asBuffer.length, valueP
 847              		.loc 1 330 0
 848 0030 488B7708 		movq	8(%rdi), %rsi
 849 0034 488B7F10 		movq	16(%rdi), %rdi
 850              	.LVL106:
 851 0038 4889DA   		movq	%rbx, %rdx
 852 003b E8000000 		call	utils_textToInt
 852      00
 853              	.LVL107:
 331:/home/baikal/workspace/C50/Huawei_IoT_Agent_Tiny_SDK_Linux//lwm2m/core/data.c ****         break;
 854              		.loc 1 331 0
 855 0040 E9920000 		jmp	.L71
 855      00
 856              	.LVL108:
 857              	.L72:
 332:/home/baikal/workspace/C50/Huawei_IoT_Agent_Tiny_SDK_Linux//lwm2m/core/data.c **** 
 333:/home/baikal/workspace/C50/Huawei_IoT_Agent_Tiny_SDK_Linux//lwm2m/core/data.c ****     case LWM2M_TYPE_OPAQUE:
 334:/home/baikal/workspace/C50/Huawei_IoT_Agent_Tiny_SDK_Linux//lwm2m/core/data.c ****         switch (dataP->value.asBuffer.length)
 858              		.loc 1 334 0
 859 0045 488B5708 		movq	8(%rdi), %rdx
 860 0049 4883FA02 		cmpq	$2, %rdx
 861 004d 742E     		je	.L75
GAS LISTING /tmp/ccf9kSf2.s 			page 26


 862 004f 4883FA02 		cmpq	$2, %rdx
 863 0053 7708     		ja	.L76
 864 0055 4883FA01 		cmpq	$1, %rdx
 865 0059 7410     		je	.L77
 866 005b EB75     		jmp	.L81
 867              	.L76:
 868 005d 4883FA04 		cmpq	$4, %rdx
 869 0061 7438     		je	.L78
 870 0063 4883FA08 		cmpq	$8, %rdx
 871 0067 744F     		je	.L79
 872 0069 EB67     		jmp	.L81
 873              	.L77:
 335:/home/baikal/workspace/C50/Huawei_IoT_Agent_Tiny_SDK_Linux//lwm2m/core/data.c ****         {
 336:/home/baikal/workspace/C50/Huawei_IoT_Agent_Tiny_SDK_Linux//lwm2m/core/data.c ****         case 1:
 337:/home/baikal/workspace/C50/Huawei_IoT_Agent_Tiny_SDK_Linux//lwm2m/core/data.c ****             *valueP = (int8_t)dataP->value.asBuffer.buffer[0];
 874              		.loc 1 337 0
 875 006b 488B4710 		movq	16(%rdi), %rax
 876 006f 480FBE00 		movsbq	(%rax), %rax
 877 0073 488906   		movq	%rax, (%rsi)
 878              	.LVL109:
 338:/home/baikal/workspace/C50/Huawei_IoT_Agent_Tiny_SDK_Linux//lwm2m/core/data.c ****             result = 1;
 879              		.loc 1 338 0
 880 0076 B8010000 		movl	$1, %eax
 880      00
 339:/home/baikal/workspace/C50/Huawei_IoT_Agent_Tiny_SDK_Linux//lwm2m/core/data.c ****             break;
 881              		.loc 1 339 0
 882 007b EB5A     		jmp	.L71
 883              	.LVL110:
 884              	.L75:
 885              	.LBB47:
 340:/home/baikal/workspace/C50/Huawei_IoT_Agent_Tiny_SDK_Linux//lwm2m/core/data.c **** 
 341:/home/baikal/workspace/C50/Huawei_IoT_Agent_Tiny_SDK_Linux//lwm2m/core/data.c ****         case 2:
 342:/home/baikal/workspace/C50/Huawei_IoT_Agent_Tiny_SDK_Linux//lwm2m/core/data.c ****         {
 343:/home/baikal/workspace/C50/Huawei_IoT_Agent_Tiny_SDK_Linux//lwm2m/core/data.c ****             int16_t value;
 344:/home/baikal/workspace/C50/Huawei_IoT_Agent_Tiny_SDK_Linux//lwm2m/core/data.c **** 
 345:/home/baikal/workspace/C50/Huawei_IoT_Agent_Tiny_SDK_Linux//lwm2m/core/data.c ****             utils_copyValue(&value, dataP->value.asBuffer.buffer, dataP->value.asBuffer.length);
 886              		.loc 1 345 0
 887 007d 488B7710 		movq	16(%rdi), %rsi
 888 0081 488D7C24 		leaq	12(%rsp), %rdi
 888      0C
 889              	.LVL111:
 890 0086 E8000000 		call	utils_copyValue
 890      00
 891              	.LVL112:
 346:/home/baikal/workspace/C50/Huawei_IoT_Agent_Tiny_SDK_Linux//lwm2m/core/data.c **** 
 347:/home/baikal/workspace/C50/Huawei_IoT_Agent_Tiny_SDK_Linux//lwm2m/core/data.c ****             *valueP = value;
 892              		.loc 1 347 0
 893 008b 480FBF44 		movswq	12(%rsp), %rax
 893      240C
 894 0091 488903   		movq	%rax, (%rbx)
 895              	.LVL113:
 348:/home/baikal/workspace/C50/Huawei_IoT_Agent_Tiny_SDK_Linux//lwm2m/core/data.c ****             result = 1;
 896              		.loc 1 348 0
 897 0094 B8010000 		movl	$1, %eax
 897      00
 898 0099 EB3C     		jmp	.L71
 899              	.LVL114:
GAS LISTING /tmp/ccf9kSf2.s 			page 27


 900              	.L78:
 901              	.LBE47:
 902              	.LBB48:
 349:/home/baikal/workspace/C50/Huawei_IoT_Agent_Tiny_SDK_Linux//lwm2m/core/data.c ****             break;
 350:/home/baikal/workspace/C50/Huawei_IoT_Agent_Tiny_SDK_Linux//lwm2m/core/data.c ****         }
 351:/home/baikal/workspace/C50/Huawei_IoT_Agent_Tiny_SDK_Linux//lwm2m/core/data.c **** 
 352:/home/baikal/workspace/C50/Huawei_IoT_Agent_Tiny_SDK_Linux//lwm2m/core/data.c ****         case 4:
 353:/home/baikal/workspace/C50/Huawei_IoT_Agent_Tiny_SDK_Linux//lwm2m/core/data.c ****         {
 354:/home/baikal/workspace/C50/Huawei_IoT_Agent_Tiny_SDK_Linux//lwm2m/core/data.c ****             int32_t value;
 355:/home/baikal/workspace/C50/Huawei_IoT_Agent_Tiny_SDK_Linux//lwm2m/core/data.c **** 
 356:/home/baikal/workspace/C50/Huawei_IoT_Agent_Tiny_SDK_Linux//lwm2m/core/data.c ****             utils_copyValue(&value, dataP->value.asBuffer.buffer, dataP->value.asBuffer.length);
 903              		.loc 1 356 0
 904 009b 488B7710 		movq	16(%rdi), %rsi
 905 009f 488D7C24 		leaq	12(%rsp), %rdi
 905      0C
 906              	.LVL115:
 907 00a4 E8000000 		call	utils_copyValue
 907      00
 908              	.LVL116:
 357:/home/baikal/workspace/C50/Huawei_IoT_Agent_Tiny_SDK_Linux//lwm2m/core/data.c **** 
 358:/home/baikal/workspace/C50/Huawei_IoT_Agent_Tiny_SDK_Linux//lwm2m/core/data.c ****             *valueP = value;
 909              		.loc 1 358 0
 910 00a9 48634424 		movslq	12(%rsp), %rax
 910      0C
 911 00ae 488903   		movq	%rax, (%rbx)
 912              	.LVL117:
 359:/home/baikal/workspace/C50/Huawei_IoT_Agent_Tiny_SDK_Linux//lwm2m/core/data.c ****             result = 1;
 913              		.loc 1 359 0
 914 00b1 B8010000 		movl	$1, %eax
 914      00
 915 00b6 EB1F     		jmp	.L71
 916              	.LVL118:
 917              	.L79:
 918              	.LBE48:
 360:/home/baikal/workspace/C50/Huawei_IoT_Agent_Tiny_SDK_Linux//lwm2m/core/data.c ****             break;
 361:/home/baikal/workspace/C50/Huawei_IoT_Agent_Tiny_SDK_Linux//lwm2m/core/data.c ****         }
 362:/home/baikal/workspace/C50/Huawei_IoT_Agent_Tiny_SDK_Linux//lwm2m/core/data.c **** 
 363:/home/baikal/workspace/C50/Huawei_IoT_Agent_Tiny_SDK_Linux//lwm2m/core/data.c ****         case 8:
 364:/home/baikal/workspace/C50/Huawei_IoT_Agent_Tiny_SDK_Linux//lwm2m/core/data.c ****             utils_copyValue(valueP, dataP->value.asBuffer.buffer, dataP->value.asBuffer.length);
 919              		.loc 1 364 0
 920 00b8 488B7710 		movq	16(%rdi), %rsi
 921 00bc 4889DF   		movq	%rbx, %rdi
 922              	.LVL119:
 923 00bf E8000000 		call	utils_copyValue
 923      00
 924              	.LVL120:
 365:/home/baikal/workspace/C50/Huawei_IoT_Agent_Tiny_SDK_Linux//lwm2m/core/data.c ****             result = 1;
 925              		.loc 1 365 0
 926 00c4 B8010000 		movl	$1, %eax
 926      00
 366:/home/baikal/workspace/C50/Huawei_IoT_Agent_Tiny_SDK_Linux//lwm2m/core/data.c ****             break;
 927              		.loc 1 366 0
 928 00c9 EB0C     		jmp	.L71
 929              	.LVL121:
 930              	.L82:
 367:/home/baikal/workspace/C50/Huawei_IoT_Agent_Tiny_SDK_Linux//lwm2m/core/data.c **** 
 368:/home/baikal/workspace/C50/Huawei_IoT_Agent_Tiny_SDK_Linux//lwm2m/core/data.c ****         default:
GAS LISTING /tmp/ccf9kSf2.s 			page 28


 369:/home/baikal/workspace/C50/Huawei_IoT_Agent_Tiny_SDK_Linux//lwm2m/core/data.c ****             result = 0;
 370:/home/baikal/workspace/C50/Huawei_IoT_Agent_Tiny_SDK_Linux//lwm2m/core/data.c ****         }
 371:/home/baikal/workspace/C50/Huawei_IoT_Agent_Tiny_SDK_Linux//lwm2m/core/data.c ****         break;
 372:/home/baikal/workspace/C50/Huawei_IoT_Agent_Tiny_SDK_Linux//lwm2m/core/data.c **** 
 373:/home/baikal/workspace/C50/Huawei_IoT_Agent_Tiny_SDK_Linux//lwm2m/core/data.c ****     default:
 374:/home/baikal/workspace/C50/Huawei_IoT_Agent_Tiny_SDK_Linux//lwm2m/core/data.c ****         return 0;
 931              		.loc 1 374 0
 932 00cb B8000000 		movl	$0, %eax
 932      00
 933 00d0 EB05     		jmp	.L71
 934              	.L81:
 369:/home/baikal/workspace/C50/Huawei_IoT_Agent_Tiny_SDK_Linux//lwm2m/core/data.c ****         }
 935              		.loc 1 369 0
 936 00d2 B8000000 		movl	$0, %eax
 936      00
 937              	.LVL122:
 938              	.L71:
 375:/home/baikal/workspace/C50/Huawei_IoT_Agent_Tiny_SDK_Linux//lwm2m/core/data.c ****     }
 376:/home/baikal/workspace/C50/Huawei_IoT_Agent_Tiny_SDK_Linux//lwm2m/core/data.c ****     LOG_ARG("result: %d, value: %" PRId64, result, *valueP);
 377:/home/baikal/workspace/C50/Huawei_IoT_Agent_Tiny_SDK_Linux//lwm2m/core/data.c **** 
 378:/home/baikal/workspace/C50/Huawei_IoT_Agent_Tiny_SDK_Linux//lwm2m/core/data.c ****     return result;
 379:/home/baikal/workspace/C50/Huawei_IoT_Agent_Tiny_SDK_Linux//lwm2m/core/data.c **** }
 939              		.loc 1 379 0
 940 00d7 4883C410 		addq	$16, %rsp
 941              	.LCFI40:
 942              		.cfi_def_cfa_offset 16
 943 00db 5B       		popq	%rbx
 944              	.LCFI41:
 945              		.cfi_def_cfa_offset 8
 946              	.LVL123:
 947 00dc C3       		ret
 948              		.cfi_endproc
 949              	.LFE72:
 951              		.section	.text.lwm2m_data_encode_float,"ax",@progbits
 952              		.globl	lwm2m_data_encode_float
 954              	lwm2m_data_encode_float:
 955              	.LFB73:
 380:/home/baikal/workspace/C50/Huawei_IoT_Agent_Tiny_SDK_Linux//lwm2m/core/data.c **** 
 381:/home/baikal/workspace/C50/Huawei_IoT_Agent_Tiny_SDK_Linux//lwm2m/core/data.c **** void lwm2m_data_encode_float(double value,
 382:/home/baikal/workspace/C50/Huawei_IoT_Agent_Tiny_SDK_Linux//lwm2m/core/data.c ****                              lwm2m_data_t *dataP)
 383:/home/baikal/workspace/C50/Huawei_IoT_Agent_Tiny_SDK_Linux//lwm2m/core/data.c **** {
 956              		.loc 1 383 0
 957              		.cfi_startproc
 958              	.LVL124:
 384:/home/baikal/workspace/C50/Huawei_IoT_Agent_Tiny_SDK_Linux//lwm2m/core/data.c ****     LOG_ARG("value: %f", value);
 385:/home/baikal/workspace/C50/Huawei_IoT_Agent_Tiny_SDK_Linux//lwm2m/core/data.c ****     dataP->type = LWM2M_TYPE_FLOAT;
 959              		.loc 1 385 0
 960 0000 C7070700 		movl	$7, (%rdi)
 960      0000
 386:/home/baikal/workspace/C50/Huawei_IoT_Agent_Tiny_SDK_Linux//lwm2m/core/data.c ****     dataP->value.asFloat = value;
 961              		.loc 1 386 0
 962 0006 F20F1147 		movsd	%xmm0, 8(%rdi)
 962      08
 963 000b C3       		ret
 964              		.cfi_endproc
 965              	.LFE73:
 967              		.section	.text.lwm2m_data_decode_float,"ax",@progbits
GAS LISTING /tmp/ccf9kSf2.s 			page 29


 968              		.globl	lwm2m_data_decode_float
 970              	lwm2m_data_decode_float:
 971              	.LFB74:
 387:/home/baikal/workspace/C50/Huawei_IoT_Agent_Tiny_SDK_Linux//lwm2m/core/data.c **** }
 388:/home/baikal/workspace/C50/Huawei_IoT_Agent_Tiny_SDK_Linux//lwm2m/core/data.c **** 
 389:/home/baikal/workspace/C50/Huawei_IoT_Agent_Tiny_SDK_Linux//lwm2m/core/data.c **** int lwm2m_data_decode_float(const lwm2m_data_t *dataP,
 390:/home/baikal/workspace/C50/Huawei_IoT_Agent_Tiny_SDK_Linux//lwm2m/core/data.c ****                             double *valueP)
 391:/home/baikal/workspace/C50/Huawei_IoT_Agent_Tiny_SDK_Linux//lwm2m/core/data.c **** {
 972              		.loc 1 391 0
 973              		.cfi_startproc
 974              	.LVL125:
 975 0000 53       		pushq	%rbx
 976              	.LCFI42:
 977              		.cfi_def_cfa_offset 16
 978              		.cfi_offset 3, -16
 979 0001 4883EC10 		subq	$16, %rsp
 980              	.LCFI43:
 981              		.cfi_def_cfa_offset 32
 982 0005 4889F3   		movq	%rsi, %rbx
 392:/home/baikal/workspace/C50/Huawei_IoT_Agent_Tiny_SDK_Linux//lwm2m/core/data.c ****     int result;
 393:/home/baikal/workspace/C50/Huawei_IoT_Agent_Tiny_SDK_Linux//lwm2m/core/data.c **** 
 394:/home/baikal/workspace/C50/Huawei_IoT_Agent_Tiny_SDK_Linux//lwm2m/core/data.c ****     LOG("Entering");
 395:/home/baikal/workspace/C50/Huawei_IoT_Agent_Tiny_SDK_Linux//lwm2m/core/data.c ****     switch (dataP->type)
 983              		.loc 1 395 0
 984 0008 8B07     		movl	(%rdi), %eax
 985 000a 83F805   		cmpl	$5, %eax
 986 000d 7450     		je	.L87
 987 000f 83F805   		cmpl	$5, %eax
 988 0012 770A     		ja	.L88
 989 0014 83F804   		cmpl	$4, %eax
 990 0017 7434     		je	.L89
 991 0019 E9850000 		jmp	.L94
 991      00
 992              	.L88:
 993 001e 83F806   		cmpl	$6, %eax
 994 0021 7415     		je	.L90
 995 0023 83F807   		cmpl	$7, %eax
 996 0026 757B     		jne	.L94
 396:/home/baikal/workspace/C50/Huawei_IoT_Agent_Tiny_SDK_Linux//lwm2m/core/data.c ****     {
 397:/home/baikal/workspace/C50/Huawei_IoT_Agent_Tiny_SDK_Linux//lwm2m/core/data.c ****     case LWM2M_TYPE_FLOAT:
 398:/home/baikal/workspace/C50/Huawei_IoT_Agent_Tiny_SDK_Linux//lwm2m/core/data.c ****         *valueP = dataP->value.asFloat;
 997              		.loc 1 398 0
 998 0028 F20F1047 		movsd	8(%rdi), %xmm0
 998      08
 999 002d F20F1106 		movsd	%xmm0, (%rsi)
 1000              	.LVL126:
 399:/home/baikal/workspace/C50/Huawei_IoT_Agent_Tiny_SDK_Linux//lwm2m/core/data.c ****         result = 1;
 1001              		.loc 1 399 0
 1002 0031 B8010000 		movl	$1, %eax
 1002      00
 400:/home/baikal/workspace/C50/Huawei_IoT_Agent_Tiny_SDK_Linux//lwm2m/core/data.c ****         break;
 1003              		.loc 1 400 0
 1004 0036 EB77     		jmp	.L86
 1005              	.LVL127:
 1006              	.L90:
 401:/home/baikal/workspace/C50/Huawei_IoT_Agent_Tiny_SDK_Linux//lwm2m/core/data.c **** 
 402:/home/baikal/workspace/C50/Huawei_IoT_Agent_Tiny_SDK_Linux//lwm2m/core/data.c ****     case LWM2M_TYPE_INTEGER:
GAS LISTING /tmp/ccf9kSf2.s 			page 30


 403:/home/baikal/workspace/C50/Huawei_IoT_Agent_Tiny_SDK_Linux//lwm2m/core/data.c ****         *valueP = (double)dataP->value.asInteger;
 1007              		.loc 1 403 0
 1008 0038 660FEFC0 		pxor	%xmm0, %xmm0
 1009 003c F2480F2A 		cvtsi2sdq	8(%rdi), %xmm0
 1009      4708
 1010 0042 F20F1106 		movsd	%xmm0, (%rsi)
 1011              	.LVL128:
 404:/home/baikal/workspace/C50/Huawei_IoT_Agent_Tiny_SDK_Linux//lwm2m/core/data.c ****         result = 1;
 1012              		.loc 1 404 0
 1013 0046 B8010000 		movl	$1, %eax
 1013      00
 405:/home/baikal/workspace/C50/Huawei_IoT_Agent_Tiny_SDK_Linux//lwm2m/core/data.c ****         break;
 1014              		.loc 1 405 0
 1015 004b EB62     		jmp	.L86
 1016              	.LVL129:
 1017              	.L89:
 406:/home/baikal/workspace/C50/Huawei_IoT_Agent_Tiny_SDK_Linux//lwm2m/core/data.c **** 
 407:/home/baikal/workspace/C50/Huawei_IoT_Agent_Tiny_SDK_Linux//lwm2m/core/data.c ****     case LWM2M_TYPE_STRING:
 408:/home/baikal/workspace/C50/Huawei_IoT_Agent_Tiny_SDK_Linux//lwm2m/core/data.c ****         result = utils_textToFloat(dataP->value.asBuffer.buffer, dataP->value.asBuffer.length, valu
 1018              		.loc 1 408 0
 1019 004d 488B7708 		movq	8(%rdi), %rsi
 1020 0051 488B7F10 		movq	16(%rdi), %rdi
 1021              	.LVL130:
 1022 0055 4889DA   		movq	%rbx, %rdx
 1023 0058 E8000000 		call	utils_textToFloat
 1023      00
 1024              	.LVL131:
 409:/home/baikal/workspace/C50/Huawei_IoT_Agent_Tiny_SDK_Linux//lwm2m/core/data.c ****         break;
 1025              		.loc 1 409 0
 1026 005d EB50     		jmp	.L86
 1027              	.LVL132:
 1028              	.L87:
 410:/home/baikal/workspace/C50/Huawei_IoT_Agent_Tiny_SDK_Linux//lwm2m/core/data.c **** 
 411:/home/baikal/workspace/C50/Huawei_IoT_Agent_Tiny_SDK_Linux//lwm2m/core/data.c ****     case LWM2M_TYPE_OPAQUE:
 412:/home/baikal/workspace/C50/Huawei_IoT_Agent_Tiny_SDK_Linux//lwm2m/core/data.c ****         switch (dataP->value.asBuffer.length)
 1029              		.loc 1 412 0
 1030 005f 488B5708 		movq	8(%rdi), %rdx
 1031 0063 4883FA04 		cmpq	$4, %rdx
 1032 0067 7408     		je	.L92
 1033 0069 4883FA08 		cmpq	$8, %rdx
 1034 006d 7421     		je	.L93
 1035 006f EB39     		jmp	.L96
 1036              	.L92:
 1037              	.LBB49:
 413:/home/baikal/workspace/C50/Huawei_IoT_Agent_Tiny_SDK_Linux//lwm2m/core/data.c ****         {
 414:/home/baikal/workspace/C50/Huawei_IoT_Agent_Tiny_SDK_Linux//lwm2m/core/data.c ****         case 4:
 415:/home/baikal/workspace/C50/Huawei_IoT_Agent_Tiny_SDK_Linux//lwm2m/core/data.c ****         {
 416:/home/baikal/workspace/C50/Huawei_IoT_Agent_Tiny_SDK_Linux//lwm2m/core/data.c ****             float temp;
 417:/home/baikal/workspace/C50/Huawei_IoT_Agent_Tiny_SDK_Linux//lwm2m/core/data.c **** 
 418:/home/baikal/workspace/C50/Huawei_IoT_Agent_Tiny_SDK_Linux//lwm2m/core/data.c ****             utils_copyValue(&temp, dataP->value.asBuffer.buffer, dataP->value.asBuffer.length);
 1038              		.loc 1 418 0
 1039 0071 488B7710 		movq	16(%rdi), %rsi
 1040 0075 488D7C24 		leaq	12(%rsp), %rdi
 1040      0C
 1041              	.LVL133:
 1042 007a E8000000 		call	utils_copyValue
 1042      00
GAS LISTING /tmp/ccf9kSf2.s 			page 31


 1043              	.LVL134:
 419:/home/baikal/workspace/C50/Huawei_IoT_Agent_Tiny_SDK_Linux//lwm2m/core/data.c **** 
 420:/home/baikal/workspace/C50/Huawei_IoT_Agent_Tiny_SDK_Linux//lwm2m/core/data.c ****             *valueP = temp;
 1044              		.loc 1 420 0
 1045 007f F30F5A4C 		cvtss2sd	12(%rsp), %xmm1
 1045      240C
 1046 0085 F20F110B 		movsd	%xmm1, (%rbx)
 1047              	.LVL135:
 421:/home/baikal/workspace/C50/Huawei_IoT_Agent_Tiny_SDK_Linux//lwm2m/core/data.c ****             result = 1;
 1048              		.loc 1 421 0
 1049 0089 B8010000 		movl	$1, %eax
 1049      00
 1050              	.LBE49:
 422:/home/baikal/workspace/C50/Huawei_IoT_Agent_Tiny_SDK_Linux//lwm2m/core/data.c ****         }
 423:/home/baikal/workspace/C50/Huawei_IoT_Agent_Tiny_SDK_Linux//lwm2m/core/data.c ****         break;
 1051              		.loc 1 423 0
 1052 008e EB1F     		jmp	.L86
 1053              	.LVL136:
 1054              	.L93:
 424:/home/baikal/workspace/C50/Huawei_IoT_Agent_Tiny_SDK_Linux//lwm2m/core/data.c **** 
 425:/home/baikal/workspace/C50/Huawei_IoT_Agent_Tiny_SDK_Linux//lwm2m/core/data.c ****         case 8:
 426:/home/baikal/workspace/C50/Huawei_IoT_Agent_Tiny_SDK_Linux//lwm2m/core/data.c ****             utils_copyValue(valueP, dataP->value.asBuffer.buffer, dataP->value.asBuffer.length);
 1055              		.loc 1 426 0
 1056 0090 488B7710 		movq	16(%rdi), %rsi
 1057 0094 4889DF   		movq	%rbx, %rdi
 1058              	.LVL137:
 1059 0097 E8000000 		call	utils_copyValue
 1059      00
 1060              	.LVL138:
 427:/home/baikal/workspace/C50/Huawei_IoT_Agent_Tiny_SDK_Linux//lwm2m/core/data.c ****             result = 1;
 1061              		.loc 1 427 0
 1062 009c B8010000 		movl	$1, %eax
 1062      00
 428:/home/baikal/workspace/C50/Huawei_IoT_Agent_Tiny_SDK_Linux//lwm2m/core/data.c ****             break;
 1063              		.loc 1 428 0
 1064 00a1 EB0C     		jmp	.L86
 1065              	.LVL139:
 1066              	.L94:
 429:/home/baikal/workspace/C50/Huawei_IoT_Agent_Tiny_SDK_Linux//lwm2m/core/data.c **** 
 430:/home/baikal/workspace/C50/Huawei_IoT_Agent_Tiny_SDK_Linux//lwm2m/core/data.c ****         default:
 431:/home/baikal/workspace/C50/Huawei_IoT_Agent_Tiny_SDK_Linux//lwm2m/core/data.c ****             result = 0;
 432:/home/baikal/workspace/C50/Huawei_IoT_Agent_Tiny_SDK_Linux//lwm2m/core/data.c ****         }
 433:/home/baikal/workspace/C50/Huawei_IoT_Agent_Tiny_SDK_Linux//lwm2m/core/data.c ****         break;
 434:/home/baikal/workspace/C50/Huawei_IoT_Agent_Tiny_SDK_Linux//lwm2m/core/data.c **** 
 435:/home/baikal/workspace/C50/Huawei_IoT_Agent_Tiny_SDK_Linux//lwm2m/core/data.c ****     default:
 436:/home/baikal/workspace/C50/Huawei_IoT_Agent_Tiny_SDK_Linux//lwm2m/core/data.c ****         result = 0;
 1067              		.loc 1 436 0
 1068 00a3 B8000000 		movl	$0, %eax
 1068      00
 1069 00a8 EB05     		jmp	.L86
 1070              	.L96:
 431:/home/baikal/workspace/C50/Huawei_IoT_Agent_Tiny_SDK_Linux//lwm2m/core/data.c ****         }
 1071              		.loc 1 431 0
 1072 00aa B8000000 		movl	$0, %eax
 1072      00
 1073              	.LVL140:
 1074              	.L86:
GAS LISTING /tmp/ccf9kSf2.s 			page 32


 437:/home/baikal/workspace/C50/Huawei_IoT_Agent_Tiny_SDK_Linux//lwm2m/core/data.c ****     }
 438:/home/baikal/workspace/C50/Huawei_IoT_Agent_Tiny_SDK_Linux//lwm2m/core/data.c **** 
 439:/home/baikal/workspace/C50/Huawei_IoT_Agent_Tiny_SDK_Linux//lwm2m/core/data.c ****     LOG_ARG("result: %d, value: %f", result, *valueP);
 440:/home/baikal/workspace/C50/Huawei_IoT_Agent_Tiny_SDK_Linux//lwm2m/core/data.c **** 
 441:/home/baikal/workspace/C50/Huawei_IoT_Agent_Tiny_SDK_Linux//lwm2m/core/data.c ****     return result;
 442:/home/baikal/workspace/C50/Huawei_IoT_Agent_Tiny_SDK_Linux//lwm2m/core/data.c **** }
 1075              		.loc 1 442 0
 1076 00af 4883C410 		addq	$16, %rsp
 1077              	.LCFI44:
 1078              		.cfi_def_cfa_offset 16
 1079 00b3 5B       		popq	%rbx
 1080              	.LCFI45:
 1081              		.cfi_def_cfa_offset 8
 1082              	.LVL141:
 1083 00b4 C3       		ret
 1084              		.cfi_endproc
 1085              	.LFE74:
 1087              		.section	.text.lwm2m_data_encode_bool,"ax",@progbits
 1088              		.globl	lwm2m_data_encode_bool
 1090              	lwm2m_data_encode_bool:
 1091              	.LFB75:
 443:/home/baikal/workspace/C50/Huawei_IoT_Agent_Tiny_SDK_Linux//lwm2m/core/data.c **** 
 444:/home/baikal/workspace/C50/Huawei_IoT_Agent_Tiny_SDK_Linux//lwm2m/core/data.c **** void lwm2m_data_encode_bool(bool value,
 445:/home/baikal/workspace/C50/Huawei_IoT_Agent_Tiny_SDK_Linux//lwm2m/core/data.c ****                             lwm2m_data_t *dataP)
 446:/home/baikal/workspace/C50/Huawei_IoT_Agent_Tiny_SDK_Linux//lwm2m/core/data.c **** {
 1092              		.loc 1 446 0
 1093              		.cfi_startproc
 1094              	.LVL142:
 447:/home/baikal/workspace/C50/Huawei_IoT_Agent_Tiny_SDK_Linux//lwm2m/core/data.c ****     LOG_ARG("value: %s", value ? "true" : "false");
 448:/home/baikal/workspace/C50/Huawei_IoT_Agent_Tiny_SDK_Linux//lwm2m/core/data.c ****     dataP->type = LWM2M_TYPE_BOOLEAN;
 1095              		.loc 1 448 0
 1096 0000 C7060800 		movl	$8, (%rsi)
 1096      0000
 449:/home/baikal/workspace/C50/Huawei_IoT_Agent_Tiny_SDK_Linux//lwm2m/core/data.c ****     dataP->value.asBoolean = value;
 1097              		.loc 1 449 0
 1098 0006 40887E08 		movb	%dil, 8(%rsi)
 1099 000a C3       		ret
 1100              		.cfi_endproc
 1101              	.LFE75:
 1103              		.section	.text.lwm2m_data_decode_bool,"ax",@progbits
 1104              		.globl	lwm2m_data_decode_bool
 1106              	lwm2m_data_decode_bool:
 1107              	.LFB76:
 450:/home/baikal/workspace/C50/Huawei_IoT_Agent_Tiny_SDK_Linux//lwm2m/core/data.c **** }
 451:/home/baikal/workspace/C50/Huawei_IoT_Agent_Tiny_SDK_Linux//lwm2m/core/data.c **** 
 452:/home/baikal/workspace/C50/Huawei_IoT_Agent_Tiny_SDK_Linux//lwm2m/core/data.c **** int lwm2m_data_decode_bool(const lwm2m_data_t *dataP,
 453:/home/baikal/workspace/C50/Huawei_IoT_Agent_Tiny_SDK_Linux//lwm2m/core/data.c ****                            bool *valueP)
 454:/home/baikal/workspace/C50/Huawei_IoT_Agent_Tiny_SDK_Linux//lwm2m/core/data.c **** {
 1108              		.loc 1 454 0
 1109              		.cfi_startproc
 1110              	.LVL143:
 455:/home/baikal/workspace/C50/Huawei_IoT_Agent_Tiny_SDK_Linux//lwm2m/core/data.c ****     int result;
 456:/home/baikal/workspace/C50/Huawei_IoT_Agent_Tiny_SDK_Linux//lwm2m/core/data.c **** 
 457:/home/baikal/workspace/C50/Huawei_IoT_Agent_Tiny_SDK_Linux//lwm2m/core/data.c ****     LOG("Entering");
 458:/home/baikal/workspace/C50/Huawei_IoT_Agent_Tiny_SDK_Linux//lwm2m/core/data.c ****     switch (dataP->type)
 1111              		.loc 1 458 0
 1112 0000 8B07     		movl	(%rdi), %eax
GAS LISTING /tmp/ccf9kSf2.s 			page 33


 1113 0002 83F805   		cmpl	$5, %eax
 1114 0005 7442     		je	.L101
 1115 0007 83F808   		cmpl	$8, %eax
 1116 000a 7407     		je	.L102
 1117 000c 83F804   		cmpl	$4, %eax
 1118 000f 7562     		jne	.L113
 1119 0011 EB0C     		jmp	.L103
 1120              	.L102:
 459:/home/baikal/workspace/C50/Huawei_IoT_Agent_Tiny_SDK_Linux//lwm2m/core/data.c ****     {
 460:/home/baikal/workspace/C50/Huawei_IoT_Agent_Tiny_SDK_Linux//lwm2m/core/data.c ****     case LWM2M_TYPE_BOOLEAN:
 461:/home/baikal/workspace/C50/Huawei_IoT_Agent_Tiny_SDK_Linux//lwm2m/core/data.c ****         *valueP = dataP->value.asBoolean;
 1121              		.loc 1 461 0
 1122 0013 0FB64708 		movzbl	8(%rdi), %eax
 1123 0017 8806     		movb	%al, (%rsi)
 1124              	.LVL144:
 462:/home/baikal/workspace/C50/Huawei_IoT_Agent_Tiny_SDK_Linux//lwm2m/core/data.c ****         result = 1;
 1125              		.loc 1 462 0
 1126 0019 B8010000 		movl	$1, %eax
 1126      00
 463:/home/baikal/workspace/C50/Huawei_IoT_Agent_Tiny_SDK_Linux//lwm2m/core/data.c ****         break;
 1127              		.loc 1 463 0
 1128 001e C3       		ret
 1129              	.LVL145:
 1130              	.L103:
 464:/home/baikal/workspace/C50/Huawei_IoT_Agent_Tiny_SDK_Linux//lwm2m/core/data.c **** 
 465:/home/baikal/workspace/C50/Huawei_IoT_Agent_Tiny_SDK_Linux//lwm2m/core/data.c ****     case LWM2M_TYPE_STRING:
 466:/home/baikal/workspace/C50/Huawei_IoT_Agent_Tiny_SDK_Linux//lwm2m/core/data.c ****         if (dataP->value.asBuffer.length != 1) return 0;
 1131              		.loc 1 466 0
 1132 001f 48837F08 		cmpq	$1, 8(%rdi)
 1132      01
 1133 0024 7553     		jne	.L109
 467:/home/baikal/workspace/C50/Huawei_IoT_Agent_Tiny_SDK_Linux//lwm2m/core/data.c **** 
 468:/home/baikal/workspace/C50/Huawei_IoT_Agent_Tiny_SDK_Linux//lwm2m/core/data.c ****         switch (dataP->value.asBuffer.buffer[0])
 1134              		.loc 1 468 0
 1135 0026 488B4710 		movq	16(%rdi), %rax
 1136 002a 0FB600   		movzbl	(%rax), %eax
 1137 002d 3C30     		cmpb	$48, %al
 1138 002f 7406     		je	.L104
 1139 0031 3C31     		cmpb	$49, %al
 1140 0033 740B     		je	.L105
 1141 0035 EB48     		jmp	.L114
 1142              	.L104:
 469:/home/baikal/workspace/C50/Huawei_IoT_Agent_Tiny_SDK_Linux//lwm2m/core/data.c ****         {
 470:/home/baikal/workspace/C50/Huawei_IoT_Agent_Tiny_SDK_Linux//lwm2m/core/data.c ****         case '0':
 471:/home/baikal/workspace/C50/Huawei_IoT_Agent_Tiny_SDK_Linux//lwm2m/core/data.c ****             *valueP = false;
 1143              		.loc 1 471 0
 1144 0037 C60600   		movb	$0, (%rsi)
 1145              	.LVL146:
 472:/home/baikal/workspace/C50/Huawei_IoT_Agent_Tiny_SDK_Linux//lwm2m/core/data.c ****             result = 1;
 1146              		.loc 1 472 0
 1147 003a B8010000 		movl	$1, %eax
 1147      00
 473:/home/baikal/workspace/C50/Huawei_IoT_Agent_Tiny_SDK_Linux//lwm2m/core/data.c ****             break;
 1148              		.loc 1 473 0
 1149 003f C3       		ret
 1150              	.LVL147:
 1151              	.L105:
GAS LISTING /tmp/ccf9kSf2.s 			page 34


 474:/home/baikal/workspace/C50/Huawei_IoT_Agent_Tiny_SDK_Linux//lwm2m/core/data.c ****         case '1':
 475:/home/baikal/workspace/C50/Huawei_IoT_Agent_Tiny_SDK_Linux//lwm2m/core/data.c ****             *valueP = true;
 1152              		.loc 1 475 0
 1153 0040 C60601   		movb	$1, (%rsi)
 1154              	.LVL148:
 476:/home/baikal/workspace/C50/Huawei_IoT_Agent_Tiny_SDK_Linux//lwm2m/core/data.c ****             result = 1;
 1155              		.loc 1 476 0
 1156 0043 B8010000 		movl	$1, %eax
 1156      00
 477:/home/baikal/workspace/C50/Huawei_IoT_Agent_Tiny_SDK_Linux//lwm2m/core/data.c ****             break;
 1157              		.loc 1 477 0
 1158 0048 C3       		ret
 1159              	.LVL149:
 1160              	.L101:
 478:/home/baikal/workspace/C50/Huawei_IoT_Agent_Tiny_SDK_Linux//lwm2m/core/data.c ****         default:
 479:/home/baikal/workspace/C50/Huawei_IoT_Agent_Tiny_SDK_Linux//lwm2m/core/data.c ****             result = 0;
 480:/home/baikal/workspace/C50/Huawei_IoT_Agent_Tiny_SDK_Linux//lwm2m/core/data.c ****             break;
 481:/home/baikal/workspace/C50/Huawei_IoT_Agent_Tiny_SDK_Linux//lwm2m/core/data.c ****         }
 482:/home/baikal/workspace/C50/Huawei_IoT_Agent_Tiny_SDK_Linux//lwm2m/core/data.c ****         break;
 483:/home/baikal/workspace/C50/Huawei_IoT_Agent_Tiny_SDK_Linux//lwm2m/core/data.c **** 
 484:/home/baikal/workspace/C50/Huawei_IoT_Agent_Tiny_SDK_Linux//lwm2m/core/data.c ****     case LWM2M_TYPE_OPAQUE:
 485:/home/baikal/workspace/C50/Huawei_IoT_Agent_Tiny_SDK_Linux//lwm2m/core/data.c ****         if (dataP->value.asBuffer.length != 1) return 0;
 1161              		.loc 1 485 0
 1162 0049 48837F08 		cmpq	$1, 8(%rdi)
 1162      01
 1163 004e 7535     		jne	.L111
 486:/home/baikal/workspace/C50/Huawei_IoT_Agent_Tiny_SDK_Linux//lwm2m/core/data.c **** 
 487:/home/baikal/workspace/C50/Huawei_IoT_Agent_Tiny_SDK_Linux//lwm2m/core/data.c ****         switch (dataP->value.asBuffer.buffer[0])
 1164              		.loc 1 487 0
 1165 0050 488B4710 		movq	16(%rdi), %rax
 1166 0054 0FB600   		movzbl	(%rax), %eax
 1167 0057 84C0     		testb	%al, %al
 1168 0059 7406     		je	.L106
 1169 005b 3C01     		cmpb	$1, %al
 1170 005d 740B     		je	.L107
 1171 005f EB2A     		jmp	.L115
 1172              	.L106:
 488:/home/baikal/workspace/C50/Huawei_IoT_Agent_Tiny_SDK_Linux//lwm2m/core/data.c ****         {
 489:/home/baikal/workspace/C50/Huawei_IoT_Agent_Tiny_SDK_Linux//lwm2m/core/data.c ****         case 0:
 490:/home/baikal/workspace/C50/Huawei_IoT_Agent_Tiny_SDK_Linux//lwm2m/core/data.c ****             *valueP = false;
 1173              		.loc 1 490 0
 1174 0061 C60600   		movb	$0, (%rsi)
 1175              	.LVL150:
 491:/home/baikal/workspace/C50/Huawei_IoT_Agent_Tiny_SDK_Linux//lwm2m/core/data.c ****             result = 1;
 1176              		.loc 1 491 0
 1177 0064 B8010000 		movl	$1, %eax
 1177      00
 492:/home/baikal/workspace/C50/Huawei_IoT_Agent_Tiny_SDK_Linux//lwm2m/core/data.c ****             break;
 1178              		.loc 1 492 0
 1179 0069 C3       		ret
 1180              	.LVL151:
 1181              	.L107:
 493:/home/baikal/workspace/C50/Huawei_IoT_Agent_Tiny_SDK_Linux//lwm2m/core/data.c ****         case 1:
 494:/home/baikal/workspace/C50/Huawei_IoT_Agent_Tiny_SDK_Linux//lwm2m/core/data.c ****             *valueP = true;
 1182              		.loc 1 494 0
 1183 006a C60601   		movb	$1, (%rsi)
 1184              	.LVL152:
GAS LISTING /tmp/ccf9kSf2.s 			page 35


 495:/home/baikal/workspace/C50/Huawei_IoT_Agent_Tiny_SDK_Linux//lwm2m/core/data.c ****             result = 1;
 1185              		.loc 1 495 0
 1186 006d B8010000 		movl	$1, %eax
 1186      00
 496:/home/baikal/workspace/C50/Huawei_IoT_Agent_Tiny_SDK_Linux//lwm2m/core/data.c ****             break;
 1187              		.loc 1 496 0
 1188 0072 C3       		ret
 1189              	.LVL153:
 1190              	.L113:
 497:/home/baikal/workspace/C50/Huawei_IoT_Agent_Tiny_SDK_Linux//lwm2m/core/data.c ****         default:
 498:/home/baikal/workspace/C50/Huawei_IoT_Agent_Tiny_SDK_Linux//lwm2m/core/data.c ****             result = 0;
 499:/home/baikal/workspace/C50/Huawei_IoT_Agent_Tiny_SDK_Linux//lwm2m/core/data.c ****             break;
 500:/home/baikal/workspace/C50/Huawei_IoT_Agent_Tiny_SDK_Linux//lwm2m/core/data.c ****         }
 501:/home/baikal/workspace/C50/Huawei_IoT_Agent_Tiny_SDK_Linux//lwm2m/core/data.c ****         break;
 502:/home/baikal/workspace/C50/Huawei_IoT_Agent_Tiny_SDK_Linux//lwm2m/core/data.c **** 
 503:/home/baikal/workspace/C50/Huawei_IoT_Agent_Tiny_SDK_Linux//lwm2m/core/data.c ****     default:
 504:/home/baikal/workspace/C50/Huawei_IoT_Agent_Tiny_SDK_Linux//lwm2m/core/data.c ****         result = 0;
 1191              		.loc 1 504 0
 1192 0073 B8000000 		movl	$0, %eax
 1192      00
 1193 0078 C3       		ret
 1194              	.L109:
 466:/home/baikal/workspace/C50/Huawei_IoT_Agent_Tiny_SDK_Linux//lwm2m/core/data.c **** 
 1195              		.loc 1 466 0
 1196 0079 B8000000 		movl	$0, %eax
 1196      00
 1197 007e C3       		ret
 1198              	.L114:
 479:/home/baikal/workspace/C50/Huawei_IoT_Agent_Tiny_SDK_Linux//lwm2m/core/data.c ****             break;
 1199              		.loc 1 479 0
 1200 007f B8000000 		movl	$0, %eax
 1200      00
 1201 0084 C3       		ret
 1202              	.L111:
 485:/home/baikal/workspace/C50/Huawei_IoT_Agent_Tiny_SDK_Linux//lwm2m/core/data.c **** 
 1203              		.loc 1 485 0
 1204 0085 B8000000 		movl	$0, %eax
 1204      00
 1205 008a C3       		ret
 1206              	.L115:
 498:/home/baikal/workspace/C50/Huawei_IoT_Agent_Tiny_SDK_Linux//lwm2m/core/data.c ****             break;
 1207              		.loc 1 498 0
 1208 008b B8000000 		movl	$0, %eax
 1208      00
 505:/home/baikal/workspace/C50/Huawei_IoT_Agent_Tiny_SDK_Linux//lwm2m/core/data.c ****         break;
 506:/home/baikal/workspace/C50/Huawei_IoT_Agent_Tiny_SDK_Linux//lwm2m/core/data.c ****     }
 507:/home/baikal/workspace/C50/Huawei_IoT_Agent_Tiny_SDK_Linux//lwm2m/core/data.c **** 
 508:/home/baikal/workspace/C50/Huawei_IoT_Agent_Tiny_SDK_Linux//lwm2m/core/data.c ****     LOG_ARG("result: %d, value: %s", result, *valueP ? "true" : "false");
 509:/home/baikal/workspace/C50/Huawei_IoT_Agent_Tiny_SDK_Linux//lwm2m/core/data.c **** 
 510:/home/baikal/workspace/C50/Huawei_IoT_Agent_Tiny_SDK_Linux//lwm2m/core/data.c ****     return result;
 511:/home/baikal/workspace/C50/Huawei_IoT_Agent_Tiny_SDK_Linux//lwm2m/core/data.c **** }
 1209              		.loc 1 511 0
 1210 0090 C3       		ret
 1211              		.cfi_endproc
 1212              	.LFE76:
 1214              		.section	.text.lwm2m_data_encode_objlink,"ax",@progbits
 1215              		.globl	lwm2m_data_encode_objlink
GAS LISTING /tmp/ccf9kSf2.s 			page 36


 1217              	lwm2m_data_encode_objlink:
 1218              	.LFB77:
 512:/home/baikal/workspace/C50/Huawei_IoT_Agent_Tiny_SDK_Linux//lwm2m/core/data.c **** 
 513:/home/baikal/workspace/C50/Huawei_IoT_Agent_Tiny_SDK_Linux//lwm2m/core/data.c **** void lwm2m_data_encode_objlink(uint16_t objectId,
 514:/home/baikal/workspace/C50/Huawei_IoT_Agent_Tiny_SDK_Linux//lwm2m/core/data.c ****                                uint16_t objectInstanceId,
 515:/home/baikal/workspace/C50/Huawei_IoT_Agent_Tiny_SDK_Linux//lwm2m/core/data.c ****                                lwm2m_data_t *dataP)
 516:/home/baikal/workspace/C50/Huawei_IoT_Agent_Tiny_SDK_Linux//lwm2m/core/data.c **** {
 1219              		.loc 1 516 0
 1220              		.cfi_startproc
 1221              	.LVL154:
 517:/home/baikal/workspace/C50/Huawei_IoT_Agent_Tiny_SDK_Linux//lwm2m/core/data.c ****     LOG_ARG("value: %d/%d", objectId, objectInstanceId);
 518:/home/baikal/workspace/C50/Huawei_IoT_Agent_Tiny_SDK_Linux//lwm2m/core/data.c ****     dataP->type = LWM2M_TYPE_OBJECT_LINK;
 1222              		.loc 1 518 0
 1223 0000 C7020900 		movl	$9, (%rdx)
 1223      0000
 519:/home/baikal/workspace/C50/Huawei_IoT_Agent_Tiny_SDK_Linux//lwm2m/core/data.c ****     dataP->value.asObjLink.objectId = objectId;
 1224              		.loc 1 519 0
 1225 0006 66897A08 		movw	%di, 8(%rdx)
 520:/home/baikal/workspace/C50/Huawei_IoT_Agent_Tiny_SDK_Linux//lwm2m/core/data.c ****     dataP->value.asObjLink.objectInstanceId = objectInstanceId;
 1226              		.loc 1 520 0
 1227 000a 6689720A 		movw	%si, 10(%rdx)
 1228 000e C3       		ret
 1229              		.cfi_endproc
 1230              	.LFE77:
 1232              		.section	.text.lwm2m_data_include,"ax",@progbits
 1233              		.globl	lwm2m_data_include
 1235              	lwm2m_data_include:
 1236              	.LFB78:
 521:/home/baikal/workspace/C50/Huawei_IoT_Agent_Tiny_SDK_Linux//lwm2m/core/data.c **** }
 522:/home/baikal/workspace/C50/Huawei_IoT_Agent_Tiny_SDK_Linux//lwm2m/core/data.c **** 
 523:/home/baikal/workspace/C50/Huawei_IoT_Agent_Tiny_SDK_Linux//lwm2m/core/data.c **** void lwm2m_data_include(lwm2m_data_t *subDataP,
 524:/home/baikal/workspace/C50/Huawei_IoT_Agent_Tiny_SDK_Linux//lwm2m/core/data.c ****                         size_t count,
 525:/home/baikal/workspace/C50/Huawei_IoT_Agent_Tiny_SDK_Linux//lwm2m/core/data.c ****                         lwm2m_data_t *dataP)
 526:/home/baikal/workspace/C50/Huawei_IoT_Agent_Tiny_SDK_Linux//lwm2m/core/data.c **** {
 1237              		.loc 1 526 0
 1238              		.cfi_startproc
 1239              	.LVL155:
 527:/home/baikal/workspace/C50/Huawei_IoT_Agent_Tiny_SDK_Linux//lwm2m/core/data.c ****     LOG_ARG("count: %d", count);
 528:/home/baikal/workspace/C50/Huawei_IoT_Agent_Tiny_SDK_Linux//lwm2m/core/data.c ****     if (subDataP == NULL || count == 0) return;
 1240              		.loc 1 528 0
 1241 0000 4885FF   		testq	%rdi, %rdi
 1242 0003 0F94C1   		sete	%cl
 1243 0006 4885F6   		testq	%rsi, %rsi
 1244 0009 0F94C0   		sete	%al
 1245 000c 08C1     		orb	%al, %cl
 1246 000e 7527     		jne	.L117
 529:/home/baikal/workspace/C50/Huawei_IoT_Agent_Tiny_SDK_Linux//lwm2m/core/data.c **** 
 530:/home/baikal/workspace/C50/Huawei_IoT_Agent_Tiny_SDK_Linux//lwm2m/core/data.c ****     switch (subDataP[0].type)
 1247              		.loc 1 530 0
 1248 0010 8B07     		movl	(%rdi), %eax
 1249 0012 83F802   		cmpl	$2, %eax
 1250 0015 7412     		je	.L119
 1251 0017 83F802   		cmpl	$2, %eax
 1252 001a 721B     		jb	.L117
 1253 001c 83F809   		cmpl	$9, %eax
 1254 001f 7716     		ja	.L117
 531:/home/baikal/workspace/C50/Huawei_IoT_Agent_Tiny_SDK_Linux//lwm2m/core/data.c ****     {
GAS LISTING /tmp/ccf9kSf2.s 			page 37


 532:/home/baikal/workspace/C50/Huawei_IoT_Agent_Tiny_SDK_Linux//lwm2m/core/data.c ****     case LWM2M_TYPE_STRING:
 533:/home/baikal/workspace/C50/Huawei_IoT_Agent_Tiny_SDK_Linux//lwm2m/core/data.c ****     case LWM2M_TYPE_OPAQUE:
 534:/home/baikal/workspace/C50/Huawei_IoT_Agent_Tiny_SDK_Linux//lwm2m/core/data.c ****     case LWM2M_TYPE_INTEGER:
 535:/home/baikal/workspace/C50/Huawei_IoT_Agent_Tiny_SDK_Linux//lwm2m/core/data.c ****     case LWM2M_TYPE_FLOAT:
 536:/home/baikal/workspace/C50/Huawei_IoT_Agent_Tiny_SDK_Linux//lwm2m/core/data.c ****     case LWM2M_TYPE_BOOLEAN:
 537:/home/baikal/workspace/C50/Huawei_IoT_Agent_Tiny_SDK_Linux//lwm2m/core/data.c ****     case LWM2M_TYPE_OBJECT_LINK:
 538:/home/baikal/workspace/C50/Huawei_IoT_Agent_Tiny_SDK_Linux//lwm2m/core/data.c ****     case LWM2M_TYPE_MULTIPLE_RESOURCE:
 539:/home/baikal/workspace/C50/Huawei_IoT_Agent_Tiny_SDK_Linux//lwm2m/core/data.c ****         dataP->type = LWM2M_TYPE_OBJECT_INSTANCE;
 1255              		.loc 1 539 0
 1256 0021 C7020200 		movl	$2, (%rdx)
 1256      0000
 540:/home/baikal/workspace/C50/Huawei_IoT_Agent_Tiny_SDK_Linux//lwm2m/core/data.c ****         break;
 1257              		.loc 1 540 0
 1258 0027 EB06     		jmp	.L121
 1259              	.L119:
 541:/home/baikal/workspace/C50/Huawei_IoT_Agent_Tiny_SDK_Linux//lwm2m/core/data.c ****     case LWM2M_TYPE_OBJECT_INSTANCE:
 542:/home/baikal/workspace/C50/Huawei_IoT_Agent_Tiny_SDK_Linux//lwm2m/core/data.c ****         dataP->type = LWM2M_TYPE_OBJECT;
 1260              		.loc 1 542 0
 1261 0029 C7020100 		movl	$1, (%rdx)
 1261      0000
 1262              	.L121:
 543:/home/baikal/workspace/C50/Huawei_IoT_Agent_Tiny_SDK_Linux//lwm2m/core/data.c ****         break;
 544:/home/baikal/workspace/C50/Huawei_IoT_Agent_Tiny_SDK_Linux//lwm2m/core/data.c ****     default:
 545:/home/baikal/workspace/C50/Huawei_IoT_Agent_Tiny_SDK_Linux//lwm2m/core/data.c ****         return;
 546:/home/baikal/workspace/C50/Huawei_IoT_Agent_Tiny_SDK_Linux//lwm2m/core/data.c ****     }
 547:/home/baikal/workspace/C50/Huawei_IoT_Agent_Tiny_SDK_Linux//lwm2m/core/data.c ****     dataP->value.asChildren.count = count;
 1263              		.loc 1 547 0
 1264 002f 48897208 		movq	%rsi, 8(%rdx)
 548:/home/baikal/workspace/C50/Huawei_IoT_Agent_Tiny_SDK_Linux//lwm2m/core/data.c ****     dataP->value.asChildren.array = subDataP;
 1265              		.loc 1 548 0
 1266 0033 48897A10 		movq	%rdi, 16(%rdx)
 1267              	.L117:
 1268 0037 F3C3     		rep ret
 1269              		.cfi_endproc
 1270              	.LFE78:
 1272              		.section	.text.lwm2m_data_encode_instances,"ax",@progbits
 1273              		.globl	lwm2m_data_encode_instances
 1275              	lwm2m_data_encode_instances:
 1276              	.LFB79:
 549:/home/baikal/workspace/C50/Huawei_IoT_Agent_Tiny_SDK_Linux//lwm2m/core/data.c **** }
 550:/home/baikal/workspace/C50/Huawei_IoT_Agent_Tiny_SDK_Linux//lwm2m/core/data.c **** 
 551:/home/baikal/workspace/C50/Huawei_IoT_Agent_Tiny_SDK_Linux//lwm2m/core/data.c **** void lwm2m_data_encode_instances(lwm2m_data_t *subDataP,
 552:/home/baikal/workspace/C50/Huawei_IoT_Agent_Tiny_SDK_Linux//lwm2m/core/data.c ****                                  size_t count,
 553:/home/baikal/workspace/C50/Huawei_IoT_Agent_Tiny_SDK_Linux//lwm2m/core/data.c ****                                  lwm2m_data_t *dataP)
 554:/home/baikal/workspace/C50/Huawei_IoT_Agent_Tiny_SDK_Linux//lwm2m/core/data.c **** {
 1277              		.loc 1 554 0
 1278              		.cfi_startproc
 1279              	.LVL156:
 1280 0000 53       		pushq	%rbx
 1281              	.LCFI46:
 1282              		.cfi_def_cfa_offset 16
 1283              		.cfi_offset 3, -16
 1284 0001 4889D3   		movq	%rdx, %rbx
 555:/home/baikal/workspace/C50/Huawei_IoT_Agent_Tiny_SDK_Linux//lwm2m/core/data.c ****     LOG_ARG("count: %d", count);
 556:/home/baikal/workspace/C50/Huawei_IoT_Agent_Tiny_SDK_Linux//lwm2m/core/data.c ****     lwm2m_data_include(subDataP, count, dataP);
 1285              		.loc 1 556 0
 1286 0004 E8000000 		call	lwm2m_data_include
GAS LISTING /tmp/ccf9kSf2.s 			page 38


 1286      00
 1287              	.LVL157:
 557:/home/baikal/workspace/C50/Huawei_IoT_Agent_Tiny_SDK_Linux//lwm2m/core/data.c ****     dataP->type = LWM2M_TYPE_MULTIPLE_RESOURCE;
 1288              		.loc 1 557 0
 1289 0009 C7030300 		movl	$3, (%rbx)
 1289      0000
 558:/home/baikal/workspace/C50/Huawei_IoT_Agent_Tiny_SDK_Linux//lwm2m/core/data.c **** }
 1290              		.loc 1 558 0
 1291 000f 5B       		popq	%rbx
 1292              	.LCFI47:
 1293              		.cfi_def_cfa_offset 8
 1294              	.LVL158:
 1295 0010 C3       		ret
 1296              		.cfi_endproc
 1297              	.LFE79:
 1299              		.section	.text.lwm2m_data_parse,"ax",@progbits
 1300              		.globl	lwm2m_data_parse
 1302              	lwm2m_data_parse:
 1303              	.LFB80:
 559:/home/baikal/workspace/C50/Huawei_IoT_Agent_Tiny_SDK_Linux//lwm2m/core/data.c **** 
 560:/home/baikal/workspace/C50/Huawei_IoT_Agent_Tiny_SDK_Linux//lwm2m/core/data.c **** int lwm2m_data_parse(lwm2m_uri_t *uriP,
 561:/home/baikal/workspace/C50/Huawei_IoT_Agent_Tiny_SDK_Linux//lwm2m/core/data.c ****                      uint8_t *buffer,
 562:/home/baikal/workspace/C50/Huawei_IoT_Agent_Tiny_SDK_Linux//lwm2m/core/data.c ****                      size_t bufferLen,
 563:/home/baikal/workspace/C50/Huawei_IoT_Agent_Tiny_SDK_Linux//lwm2m/core/data.c ****                      lwm2m_media_type_t format,
 564:/home/baikal/workspace/C50/Huawei_IoT_Agent_Tiny_SDK_Linux//lwm2m/core/data.c ****                      lwm2m_data_t **dataP)
 565:/home/baikal/workspace/C50/Huawei_IoT_Agent_Tiny_SDK_Linux//lwm2m/core/data.c **** {
 1304              		.loc 1 565 0
 1305              		.cfi_startproc
 1306              	.LVL159:
 1307 0000 4155     		pushq	%r13
 1308              	.LCFI48:
 1309              		.cfi_def_cfa_offset 16
 1310              		.cfi_offset 13, -16
 1311 0002 4154     		pushq	%r12
 1312              	.LCFI49:
 1313              		.cfi_def_cfa_offset 24
 1314              		.cfi_offset 12, -24
 1315 0004 55       		pushq	%rbp
 1316              	.LCFI50:
 1317              		.cfi_def_cfa_offset 32
 1318              		.cfi_offset 6, -32
 1319 0005 53       		pushq	%rbx
 1320              	.LCFI51:
 1321              		.cfi_def_cfa_offset 40
 1322              		.cfi_offset 3, -40
 1323 0006 4883EC08 		subq	$8, %rsp
 1324              	.LCFI52:
 1325              		.cfi_def_cfa_offset 48
 1326 000a 4889FB   		movq	%rdi, %rbx
 1327 000d 4989F4   		movq	%rsi, %r12
 1328 0010 4989D5   		movq	%rdx, %r13
 1329 0013 4C89C5   		movq	%r8, %rbp
 566:/home/baikal/workspace/C50/Huawei_IoT_Agent_Tiny_SDK_Linux//lwm2m/core/data.c ****     int res;
 567:/home/baikal/workspace/C50/Huawei_IoT_Agent_Tiny_SDK_Linux//lwm2m/core/data.c **** 
 568:/home/baikal/workspace/C50/Huawei_IoT_Agent_Tiny_SDK_Linux//lwm2m/core/data.c ****     LOG_ARG("format: %s, bufferLen: %d", STR_MEDIA_TYPE(format), bufferLen);
 569:/home/baikal/workspace/C50/Huawei_IoT_Agent_Tiny_SDK_Linux//lwm2m/core/data.c ****     LOG_URI(uriP);
 570:/home/baikal/workspace/C50/Huawei_IoT_Agent_Tiny_SDK_Linux//lwm2m/core/data.c ****     switch (format)
GAS LISTING /tmp/ccf9kSf2.s 			page 39


 1330              		.loc 1 570 0
 1331 0016 83F92A   		cmpl	$42, %ecx
 1332 0019 747C     		je	.L126
 1333 001b 81F9162D 		cmpl	$11542, %ecx
 1333      0000
 1334 0021 0F84C900 		je	.L127
 1334      0000
 1335 0027 85C9     		testl	%ecx, %ecx
 1336 0029 0F85D100 		jne	.L136
 1336      0000
 571:/home/baikal/workspace/C50/Huawei_IoT_Agent_Tiny_SDK_Linux//lwm2m/core/data.c ****     {
 572:/home/baikal/workspace/C50/Huawei_IoT_Agent_Tiny_SDK_Linux//lwm2m/core/data.c ****     case LWM2M_CONTENT_TEXT:
 573:/home/baikal/workspace/C50/Huawei_IoT_Agent_Tiny_SDK_Linux//lwm2m/core/data.c ****         if (!LWM2M_URI_IS_SET_RESOURCE(uriP)) return 0;
 1337              		.loc 1 573 0
 1338 002f F60701   		testb	$1, (%rdi)
 1339 0032 0F84CF00 		je	.L130
 1339      0000
 574:/home/baikal/workspace/C50/Huawei_IoT_Agent_Tiny_SDK_Linux//lwm2m/core/data.c ****         *dataP = lwm2m_data_new(1);
 1340              		.loc 1 574 0
 1341 0038 BF010000 		movl	$1, %edi
 1341      00
 1342              	.LVL160:
 1343 003d E8000000 		call	lwm2m_data_new
 1343      00
 1344              	.LVL161:
 1345 0042 48894500 		movq	%rax, 0(%rbp)
 575:/home/baikal/workspace/C50/Huawei_IoT_Agent_Tiny_SDK_Linux//lwm2m/core/data.c ****         if (*dataP == NULL) return 0;
 1346              		.loc 1 575 0
 1347 0046 4885C0   		testq	%rax, %rax
 1348 0049 0F84BF00 		je	.L131
 1348      0000
 576:/home/baikal/workspace/C50/Huawei_IoT_Agent_Tiny_SDK_Linux//lwm2m/core/data.c ****         (*dataP)->id = uriP->resourceId;
 1349              		.loc 1 576 0
 1350 004f 0FB75306 		movzwl	6(%rbx), %edx
 1351 0053 66895004 		movw	%dx, 4(%rax)
 577:/home/baikal/workspace/C50/Huawei_IoT_Agent_Tiny_SDK_Linux//lwm2m/core/data.c ****         (*dataP)->type = LWM2M_TYPE_STRING;
 1352              		.loc 1 577 0
 1353 0057 488B4500 		movq	0(%rbp), %rax
 1354 005b C7000400 		movl	$4, (%rax)
 1354      0000
 578:/home/baikal/workspace/C50/Huawei_IoT_Agent_Tiny_SDK_Linux//lwm2m/core/data.c ****         res = prv_setBuffer(*dataP, buffer, bufferLen);
 1355              		.loc 1 578 0
 1356 0061 488B7D00 		movq	0(%rbp), %rdi
 1357 0065 4C89EA   		movq	%r13, %rdx
 1358 0068 4C89E6   		movq	%r12, %rsi
 1359 006b E8000000 		call	prv_setBuffer
 1359      00
 1360              	.LVL162:
 1361 0070 89C3     		movl	%eax, %ebx
 1362              	.LVL163:
 579:/home/baikal/workspace/C50/Huawei_IoT_Agent_Tiny_SDK_Linux//lwm2m/core/data.c ****         if (res == 0)
 1363              		.loc 1 579 0
 1364 0072 85C0     		testl	%eax, %eax
 1365 0074 0F859B00 		jne	.L132
 1365      0000
 580:/home/baikal/workspace/C50/Huawei_IoT_Agent_Tiny_SDK_Linux//lwm2m/core/data.c ****         {
 581:/home/baikal/workspace/C50/Huawei_IoT_Agent_Tiny_SDK_Linux//lwm2m/core/data.c ****             lwm2m_data_free(1, *dataP);
GAS LISTING /tmp/ccf9kSf2.s 			page 40


 1366              		.loc 1 581 0
 1367 007a 488B7500 		movq	0(%rbp), %rsi
 1368 007e BF010000 		movl	$1, %edi
 1368      00
 1369 0083 E8000000 		call	lwm2m_data_free
 1369      00
 1370              	.LVL164:
 582:/home/baikal/workspace/C50/Huawei_IoT_Agent_Tiny_SDK_Linux//lwm2m/core/data.c ****             *dataP = NULL;
 1371              		.loc 1 582 0
 1372 0088 48C74500 		movq	$0, 0(%rbp)
 1372      00000000 
 583:/home/baikal/workspace/C50/Huawei_IoT_Agent_Tiny_SDK_Linux//lwm2m/core/data.c ****         }
 584:/home/baikal/workspace/C50/Huawei_IoT_Agent_Tiny_SDK_Linux//lwm2m/core/data.c ****         return res;
 1373              		.loc 1 584 0
 1374 0090 89D8     		movl	%ebx, %eax
 1375 0092 E98E0000 		jmp	.L125
 1375      00
 1376              	.LVL165:
 1377              	.L126:
 585:/home/baikal/workspace/C50/Huawei_IoT_Agent_Tiny_SDK_Linux//lwm2m/core/data.c **** 
 586:/home/baikal/workspace/C50/Huawei_IoT_Agent_Tiny_SDK_Linux//lwm2m/core/data.c ****     case LWM2M_CONTENT_OPAQUE:
 587:/home/baikal/workspace/C50/Huawei_IoT_Agent_Tiny_SDK_Linux//lwm2m/core/data.c ****         if (!LWM2M_URI_IS_SET_RESOURCE(uriP)) return 0;
 1378              		.loc 1 587 0
 1379 0097 F60701   		testb	$1, (%rdi)
 1380 009a 747B     		je	.L133
 588:/home/baikal/workspace/C50/Huawei_IoT_Agent_Tiny_SDK_Linux//lwm2m/core/data.c ****         *dataP = lwm2m_data_new(1);
 1381              		.loc 1 588 0
 1382 009c BF010000 		movl	$1, %edi
 1382      00
 1383 00a1 E8000000 		call	lwm2m_data_new
 1383      00
 1384              	.LVL166:
 1385 00a6 48894500 		movq	%rax, 0(%rbp)
 589:/home/baikal/workspace/C50/Huawei_IoT_Agent_Tiny_SDK_Linux//lwm2m/core/data.c ****         if (*dataP == NULL) return 0;
 1386              		.loc 1 589 0
 1387 00aa 4885C0   		testq	%rax, %rax
 1388 00ad 746F     		je	.L134
 590:/home/baikal/workspace/C50/Huawei_IoT_Agent_Tiny_SDK_Linux//lwm2m/core/data.c ****         (*dataP)->id = uriP->resourceId;
 1389              		.loc 1 590 0
 1390 00af 0FB75306 		movzwl	6(%rbx), %edx
 1391 00b3 66895004 		movw	%dx, 4(%rax)
 591:/home/baikal/workspace/C50/Huawei_IoT_Agent_Tiny_SDK_Linux//lwm2m/core/data.c ****         (*dataP)->type = LWM2M_TYPE_OPAQUE;
 1392              		.loc 1 591 0
 1393 00b7 488B4500 		movq	0(%rbp), %rax
 1394 00bb C7000500 		movl	$5, (%rax)
 1394      0000
 592:/home/baikal/workspace/C50/Huawei_IoT_Agent_Tiny_SDK_Linux//lwm2m/core/data.c ****         res = prv_setBuffer(*dataP, buffer, bufferLen);
 1395              		.loc 1 592 0
 1396 00c1 488B7D00 		movq	0(%rbp), %rdi
 1397 00c5 4C89EA   		movq	%r13, %rdx
 1398 00c8 4C89E6   		movq	%r12, %rsi
 1399 00cb E8000000 		call	prv_setBuffer
 1399      00
 1400              	.LVL167:
 1401 00d0 89C3     		movl	%eax, %ebx
 1402              	.LVL168:
 593:/home/baikal/workspace/C50/Huawei_IoT_Agent_Tiny_SDK_Linux//lwm2m/core/data.c ****         if (res == 0)
GAS LISTING /tmp/ccf9kSf2.s 			page 41


 1403              		.loc 1 593 0
 1404 00d2 85C0     		testl	%eax, %eax
 1405 00d4 754F     		jne	.L135
 594:/home/baikal/workspace/C50/Huawei_IoT_Agent_Tiny_SDK_Linux//lwm2m/core/data.c ****         {
 595:/home/baikal/workspace/C50/Huawei_IoT_Agent_Tiny_SDK_Linux//lwm2m/core/data.c ****             lwm2m_data_free(1, *dataP);
 1406              		.loc 1 595 0
 1407 00d6 488B7500 		movq	0(%rbp), %rsi
 1408 00da BF010000 		movl	$1, %edi
 1408      00
 1409 00df E8000000 		call	lwm2m_data_free
 1409      00
 1410              	.LVL169:
 596:/home/baikal/workspace/C50/Huawei_IoT_Agent_Tiny_SDK_Linux//lwm2m/core/data.c ****             *dataP = NULL;
 1411              		.loc 1 596 0
 1412 00e4 48C74500 		movq	$0, 0(%rbp)
 1412      00000000 
 597:/home/baikal/workspace/C50/Huawei_IoT_Agent_Tiny_SDK_Linux//lwm2m/core/data.c ****         }
 598:/home/baikal/workspace/C50/Huawei_IoT_Agent_Tiny_SDK_Linux//lwm2m/core/data.c ****         return res;
 1413              		.loc 1 598 0
 1414 00ec 89D8     		movl	%ebx, %eax
 1415 00ee EB35     		jmp	.L125
 1416              	.LVL170:
 1417              	.L127:
 599:/home/baikal/workspace/C50/Huawei_IoT_Agent_Tiny_SDK_Linux//lwm2m/core/data.c **** 
 600:/home/baikal/workspace/C50/Huawei_IoT_Agent_Tiny_SDK_Linux//lwm2m/core/data.c **** #ifdef LWM2M_OLD_CONTENT_FORMAT_SUPPORT
 601:/home/baikal/workspace/C50/Huawei_IoT_Agent_Tiny_SDK_Linux//lwm2m/core/data.c ****     case LWM2M_CONTENT_TLV_OLD:
 602:/home/baikal/workspace/C50/Huawei_IoT_Agent_Tiny_SDK_Linux//lwm2m/core/data.c **** #endif
 603:/home/baikal/workspace/C50/Huawei_IoT_Agent_Tiny_SDK_Linux//lwm2m/core/data.c ****     case LWM2M_CONTENT_TLV:
 604:/home/baikal/workspace/C50/Huawei_IoT_Agent_Tiny_SDK_Linux//lwm2m/core/data.c ****         return tlv_parse(buffer, bufferLen, dataP);
 1418              		.loc 1 604 0
 1419 00f0 4C89C2   		movq	%r8, %rdx
 1420              	.LVL171:
 1421 00f3 4C89EE   		movq	%r13, %rsi
 1422              	.LVL172:
 1423 00f6 4C89E7   		movq	%r12, %rdi
 1424 00f9 E8000000 		call	tlv_parse
 1424      00
 1425              	.LVL173:
 1426 00fe EB25     		jmp	.L125
 1427              	.LVL174:
 1428              	.L136:
 605:/home/baikal/workspace/C50/Huawei_IoT_Agent_Tiny_SDK_Linux//lwm2m/core/data.c **** 
 606:/home/baikal/workspace/C50/Huawei_IoT_Agent_Tiny_SDK_Linux//lwm2m/core/data.c **** #ifdef LWM2M_SUPPORT_JSON
 607:/home/baikal/workspace/C50/Huawei_IoT_Agent_Tiny_SDK_Linux//lwm2m/core/data.c **** #ifdef LWM2M_OLD_CONTENT_FORMAT_SUPPORT
 608:/home/baikal/workspace/C50/Huawei_IoT_Agent_Tiny_SDK_Linux//lwm2m/core/data.c ****     case LWM2M_CONTENT_JSON_OLD:
 609:/home/baikal/workspace/C50/Huawei_IoT_Agent_Tiny_SDK_Linux//lwm2m/core/data.c **** #endif
 610:/home/baikal/workspace/C50/Huawei_IoT_Agent_Tiny_SDK_Linux//lwm2m/core/data.c ****     case LWM2M_CONTENT_JSON:
 611:/home/baikal/workspace/C50/Huawei_IoT_Agent_Tiny_SDK_Linux//lwm2m/core/data.c ****         return json_parse(uriP, buffer, bufferLen, dataP);
 612:/home/baikal/workspace/C50/Huawei_IoT_Agent_Tiny_SDK_Linux//lwm2m/core/data.c **** #endif
 613:/home/baikal/workspace/C50/Huawei_IoT_Agent_Tiny_SDK_Linux//lwm2m/core/data.c **** 
 614:/home/baikal/workspace/C50/Huawei_IoT_Agent_Tiny_SDK_Linux//lwm2m/core/data.c ****     default:
 615:/home/baikal/workspace/C50/Huawei_IoT_Agent_Tiny_SDK_Linux//lwm2m/core/data.c ****         return 0;
 1429              		.loc 1 615 0
 1430 0100 B8000000 		movl	$0, %eax
 1430      00
 1431 0105 EB1E     		jmp	.L125
 1432              	.L130:
GAS LISTING /tmp/ccf9kSf2.s 			page 42


 573:/home/baikal/workspace/C50/Huawei_IoT_Agent_Tiny_SDK_Linux//lwm2m/core/data.c ****         *dataP = lwm2m_data_new(1);
 1433              		.loc 1 573 0
 1434 0107 B8000000 		movl	$0, %eax
 1434      00
 1435 010c EB17     		jmp	.L125
 1436              	.LVL175:
 1437              	.L131:
 575:/home/baikal/workspace/C50/Huawei_IoT_Agent_Tiny_SDK_Linux//lwm2m/core/data.c ****         (*dataP)->id = uriP->resourceId;
 1438              		.loc 1 575 0
 1439 010e B8000000 		movl	$0, %eax
 1439      00
 1440 0113 EB10     		jmp	.L125
 1441              	.LVL176:
 1442              	.L132:
 1443 0115 EB0E     		jmp	.L125
 1444              	.LVL177:
 1445              	.L133:
 587:/home/baikal/workspace/C50/Huawei_IoT_Agent_Tiny_SDK_Linux//lwm2m/core/data.c ****         *dataP = lwm2m_data_new(1);
 1446              		.loc 1 587 0
 1447 0117 B8000000 		movl	$0, %eax
 1447      00
 1448 011c EB07     		jmp	.L125
 1449              	.LVL178:
 1450              	.L134:
 589:/home/baikal/workspace/C50/Huawei_IoT_Agent_Tiny_SDK_Linux//lwm2m/core/data.c ****         (*dataP)->id = uriP->resourceId;
 1451              		.loc 1 589 0
 1452 011e B8000000 		movl	$0, %eax
 1452      00
 1453 0123 EB00     		jmp	.L125
 1454              	.LVL179:
 1455              	.L135:
 1456              	.L125:
 616:/home/baikal/workspace/C50/Huawei_IoT_Agent_Tiny_SDK_Linux//lwm2m/core/data.c ****     }
 617:/home/baikal/workspace/C50/Huawei_IoT_Agent_Tiny_SDK_Linux//lwm2m/core/data.c **** }
 1457              		.loc 1 617 0
 1458 0125 4883C408 		addq	$8, %rsp
 1459              	.LCFI53:
 1460              		.cfi_def_cfa_offset 40
 1461 0129 5B       		popq	%rbx
 1462              	.LCFI54:
 1463              		.cfi_def_cfa_offset 32
 1464 012a 5D       		popq	%rbp
 1465              	.LCFI55:
 1466              		.cfi_def_cfa_offset 24
 1467              	.LVL180:
 1468 012b 415C     		popq	%r12
 1469              	.LCFI56:
 1470              		.cfi_def_cfa_offset 16
 1471              	.LVL181:
 1472 012d 415D     		popq	%r13
 1473              	.LCFI57:
 1474              		.cfi_def_cfa_offset 8
 1475              	.LVL182:
 1476 012f C3       		ret
 1477              		.cfi_endproc
 1478              	.LFE80:
 1480              		.section	.text.lwm2m_data_serialize,"ax",@progbits
GAS LISTING /tmp/ccf9kSf2.s 			page 43


 1481              		.globl	lwm2m_data_serialize
 1483              	lwm2m_data_serialize:
 1484              	.LFB81:
 618:/home/baikal/workspace/C50/Huawei_IoT_Agent_Tiny_SDK_Linux//lwm2m/core/data.c **** 
 619:/home/baikal/workspace/C50/Huawei_IoT_Agent_Tiny_SDK_Linux//lwm2m/core/data.c **** int lwm2m_data_serialize(lwm2m_uri_t *uriP,
 620:/home/baikal/workspace/C50/Huawei_IoT_Agent_Tiny_SDK_Linux//lwm2m/core/data.c ****                          int size,
 621:/home/baikal/workspace/C50/Huawei_IoT_Agent_Tiny_SDK_Linux//lwm2m/core/data.c ****                          lwm2m_data_t *dataP,
 622:/home/baikal/workspace/C50/Huawei_IoT_Agent_Tiny_SDK_Linux//lwm2m/core/data.c ****                          lwm2m_media_type_t *formatP,
 623:/home/baikal/workspace/C50/Huawei_IoT_Agent_Tiny_SDK_Linux//lwm2m/core/data.c ****                          uint8_t **bufferP)
 624:/home/baikal/workspace/C50/Huawei_IoT_Agent_Tiny_SDK_Linux//lwm2m/core/data.c **** {
 1485              		.loc 1 624 0
 1486              		.cfi_startproc
 1487              	.LVL183:
 1488 0000 55       		pushq	%rbp
 1489              	.LCFI58:
 1490              		.cfi_def_cfa_offset 16
 1491              		.cfi_offset 6, -16
 1492 0001 53       		pushq	%rbx
 1493              	.LCFI59:
 1494              		.cfi_def_cfa_offset 24
 1495              		.cfi_offset 3, -24
 1496 0002 4883EC08 		subq	$8, %rsp
 1497              	.LCFI60:
 1498              		.cfi_def_cfa_offset 32
 625:/home/baikal/workspace/C50/Huawei_IoT_Agent_Tiny_SDK_Linux//lwm2m/core/data.c ****     LOG_URI(uriP);
 626:/home/baikal/workspace/C50/Huawei_IoT_Agent_Tiny_SDK_Linux//lwm2m/core/data.c ****     LOG_ARG("size: %d, formatP: %s", size, STR_MEDIA_TYPE(*formatP));
 627:/home/baikal/workspace/C50/Huawei_IoT_Agent_Tiny_SDK_Linux//lwm2m/core/data.c **** 
 628:/home/baikal/workspace/C50/Huawei_IoT_Agent_Tiny_SDK_Linux//lwm2m/core/data.c ****     // Check format
 629:/home/baikal/workspace/C50/Huawei_IoT_Agent_Tiny_SDK_Linux//lwm2m/core/data.c ****     if (*formatP == LWM2M_CONTENT_TEXT
 1499              		.loc 1 629 0
 1500 0006 8B01     		movl	(%rcx), %eax
 630:/home/baikal/workspace/C50/Huawei_IoT_Agent_Tiny_SDK_Linux//lwm2m/core/data.c ****             || *formatP == LWM2M_CONTENT_OPAQUE)
 1501              		.loc 1 630 0
 1502 0008 85C0     		testl	%eax, %eax
 1503 000a 410F94C1 		sete	%r9b
 1504 000e 83F82A   		cmpl	$42, %eax
 1505 0011 0F94C0   		sete	%al
 629:/home/baikal/workspace/C50/Huawei_IoT_Agent_Tiny_SDK_Linux//lwm2m/core/data.c ****             || *formatP == LWM2M_CONTENT_OPAQUE)
 1506              		.loc 1 629 0
 1507 0014 4108C1   		orb	%al, %r9b
 1508 0017 7426     		je	.L139
 631:/home/baikal/workspace/C50/Huawei_IoT_Agent_Tiny_SDK_Linux//lwm2m/core/data.c ****     {
 632:/home/baikal/workspace/C50/Huawei_IoT_Agent_Tiny_SDK_Linux//lwm2m/core/data.c ****         if (size != 1
 1509              		.loc 1 632 0
 1510 0019 83FE01   		cmpl	$1, %esi
 1511 001c 751B     		jne	.L140
 633:/home/baikal/workspace/C50/Huawei_IoT_Agent_Tiny_SDK_Linux//lwm2m/core/data.c ****                 || (uriP != NULL && !LWM2M_URI_IS_SET_RESOURCE(uriP))
 1512              		.loc 1 633 0
 1513 001e 4885FF   		testq	%rdi, %rdi
 1514 0021 7405     		je	.L141
 1515              		.loc 1 633 0 is_stmt 0 discriminator 1
 1516 0023 F60701   		testb	$1, (%rdi)
 1517 0026 7411     		je	.L140
 1518              	.L141:
 634:/home/baikal/workspace/C50/Huawei_IoT_Agent_Tiny_SDK_Linux//lwm2m/core/data.c ****                 || dataP->type == LWM2M_TYPE_OBJECT
 1519              		.loc 1 634 0 is_stmt 1
 1520 0028 8B02     		movl	(%rdx), %eax
GAS LISTING /tmp/ccf9kSf2.s 			page 44


 1521 002a 83F801   		cmpl	$1, %eax
 1522 002d 740A     		je	.L140
 635:/home/baikal/workspace/C50/Huawei_IoT_Agent_Tiny_SDK_Linux//lwm2m/core/data.c ****                 || dataP->type == LWM2M_TYPE_OBJECT_INSTANCE
 1523              		.loc 1 635 0
 1524 002f 83F802   		cmpl	$2, %eax
 1525 0032 7405     		je	.L140
 636:/home/baikal/workspace/C50/Huawei_IoT_Agent_Tiny_SDK_Linux//lwm2m/core/data.c ****                 || dataP->type == LWM2M_TYPE_MULTIPLE_RESOURCE)
 1526              		.loc 1 636 0
 1527 0034 83F803   		cmpl	$3, %eax
 1528 0037 7506     		jne	.L139
 1529              	.L140:
 637:/home/baikal/workspace/C50/Huawei_IoT_Agent_Tiny_SDK_Linux//lwm2m/core/data.c ****         {
 638:/home/baikal/workspace/C50/Huawei_IoT_Agent_Tiny_SDK_Linux//lwm2m/core/data.c **** #ifdef LWM2M_SUPPORT_JSON
 639:/home/baikal/workspace/C50/Huawei_IoT_Agent_Tiny_SDK_Linux//lwm2m/core/data.c ****             *formatP = LWM2M_CONTENT_JSON;
 640:/home/baikal/workspace/C50/Huawei_IoT_Agent_Tiny_SDK_Linux//lwm2m/core/data.c **** #else
 641:/home/baikal/workspace/C50/Huawei_IoT_Agent_Tiny_SDK_Linux//lwm2m/core/data.c ****             *formatP = LWM2M_CONTENT_TLV;
 1530              		.loc 1 641 0
 1531 0039 C701162D 		movl	$11542, (%rcx)
 1531      0000
 1532              	.L139:
 642:/home/baikal/workspace/C50/Huawei_IoT_Agent_Tiny_SDK_Linux//lwm2m/core/data.c **** #endif
 643:/home/baikal/workspace/C50/Huawei_IoT_Agent_Tiny_SDK_Linux//lwm2m/core/data.c ****         }
 644:/home/baikal/workspace/C50/Huawei_IoT_Agent_Tiny_SDK_Linux//lwm2m/core/data.c ****     }
 645:/home/baikal/workspace/C50/Huawei_IoT_Agent_Tiny_SDK_Linux//lwm2m/core/data.c **** 
 646:/home/baikal/workspace/C50/Huawei_IoT_Agent_Tiny_SDK_Linux//lwm2m/core/data.c ****     if (*formatP == LWM2M_CONTENT_OPAQUE
 1533              		.loc 1 646 0
 1534 003f 83392A   		cmpl	$42, (%rcx)
 1535 0042 7509     		jne	.L142
 647:/home/baikal/workspace/C50/Huawei_IoT_Agent_Tiny_SDK_Linux//lwm2m/core/data.c ****             && dataP->type != LWM2M_TYPE_OPAQUE)
 1536              		.loc 1 647 0
 1537 0044 833A05   		cmpl	$5, (%rdx)
 1538 0047 0F85E600 		jne	.L151
 1538      0000
 1539              	.L142:
 648:/home/baikal/workspace/C50/Huawei_IoT_Agent_Tiny_SDK_Linux//lwm2m/core/data.c ****     {
 649:/home/baikal/workspace/C50/Huawei_IoT_Agent_Tiny_SDK_Linux//lwm2m/core/data.c ****         LOG("Opaque format is reserved to opaque resources.");
 650:/home/baikal/workspace/C50/Huawei_IoT_Agent_Tiny_SDK_Linux//lwm2m/core/data.c ****         return -1;
 651:/home/baikal/workspace/C50/Huawei_IoT_Agent_Tiny_SDK_Linux//lwm2m/core/data.c ****     }
 652:/home/baikal/workspace/C50/Huawei_IoT_Agent_Tiny_SDK_Linux//lwm2m/core/data.c **** 
 653:/home/baikal/workspace/C50/Huawei_IoT_Agent_Tiny_SDK_Linux//lwm2m/core/data.c ****     if (dm_isUriOpaqueHandle(uriP))
 1540              		.loc 1 653 0
 1541 004d 66837F02 		cmpw	$19, 2(%rdi)
 1541      13
 1542 0052 7506     		jne	.L144
 654:/home/baikal/workspace/C50/Huawei_IoT_Agent_Tiny_SDK_Linux//lwm2m/core/data.c ****     {
 655:/home/baikal/workspace/C50/Huawei_IoT_Agent_Tiny_SDK_Linux//lwm2m/core/data.c ****         *formatP = LWM2M_CONTENT_OPAQUE;
 1543              		.loc 1 655 0
 1544 0054 C7012A00 		movl	$42, (%rcx)
 1544      0000
 1545              	.L144:
 1546 005a 4C89C5   		movq	%r8, %rbp
 1547 005d 4889D3   		movq	%rdx, %rbx
 656:/home/baikal/workspace/C50/Huawei_IoT_Agent_Tiny_SDK_Linux//lwm2m/core/data.c ****     }
 657:/home/baikal/workspace/C50/Huawei_IoT_Agent_Tiny_SDK_Linux//lwm2m/core/data.c **** 
 658:/home/baikal/workspace/C50/Huawei_IoT_Agent_Tiny_SDK_Linux//lwm2m/core/data.c ****     LOG_ARG("Final format: %s", STR_MEDIA_TYPE(*formatP));
 659:/home/baikal/workspace/C50/Huawei_IoT_Agent_Tiny_SDK_Linux//lwm2m/core/data.c **** 
 660:/home/baikal/workspace/C50/Huawei_IoT_Agent_Tiny_SDK_Linux//lwm2m/core/data.c ****     switch (*formatP)
GAS LISTING /tmp/ccf9kSf2.s 			page 45


 1548              		.loc 1 660 0
 1549 0060 8B01     		movl	(%rcx), %eax
 1550 0062 83F82A   		cmpl	$42, %eax
 1551 0065 743A     		je	.L145
 1552              	.LVL184:
 1553 0067 83F82A   		cmpl	$42, %eax
 1554 006a 7712     		ja	.L146
 1555 006c 85C0     		testl	%eax, %eax
 1556 006e 7421     		je	.L147
 1557 0070 83F828   		cmpl	$40, %eax
 1558 0073 0F849E00 		je	.L148
 1558      0000
 1559 0079 E9BC0000 		jmp	.L152
 1559      00
 1560              	.L146:
 1561 007e 3D060600 		cmpl	$1542, %eax
 1561      00
 1562 0083 7447     		je	.L149
 1563 0085 3D162D00 		cmpl	$11542, %eax
 1563      00
 1564 008a 7440     		je	.L149
 1565 008c E9A90000 		jmp	.L152
 1565      00
 1566              	.L147:
 661:/home/baikal/workspace/C50/Huawei_IoT_Agent_Tiny_SDK_Linux//lwm2m/core/data.c ****     {
 662:/home/baikal/workspace/C50/Huawei_IoT_Agent_Tiny_SDK_Linux//lwm2m/core/data.c ****     case LWM2M_CONTENT_TEXT:
 663:/home/baikal/workspace/C50/Huawei_IoT_Agent_Tiny_SDK_Linux//lwm2m/core/data.c ****         return prv_textSerialize(dataP, bufferP);
 1567              		.loc 1 663 0
 1568 0091 4C89C6   		movq	%r8, %rsi
 1569              	.LVL185:
 1570 0094 4889D7   		movq	%rdx, %rdi
 1571              	.LVL186:
 1572 0097 E8000000 		call	prv_textSerialize
 1572      00
 1573              	.LVL187:
 1574 009c E9A50000 		jmp	.L143
 1574      00
 1575              	.LVL188:
 1576              	.L145:
 664:/home/baikal/workspace/C50/Huawei_IoT_Agent_Tiny_SDK_Linux//lwm2m/core/data.c **** 
 665:/home/baikal/workspace/C50/Huawei_IoT_Agent_Tiny_SDK_Linux//lwm2m/core/data.c ****     case LWM2M_CONTENT_OPAQUE:
 666:/home/baikal/workspace/C50/Huawei_IoT_Agent_Tiny_SDK_Linux//lwm2m/core/data.c ****         *bufferP = (uint8_t *)lwm2m_malloc(dataP->value.asBuffer.length);
 1577              		.loc 1 666 0
 1578 00a1 488B7A08 		movq	8(%rdx), %rdi
 1579              	.LVL189:
 1580 00a5 E8000000 		call	lwm2m_malloc
 1580      00
 1581              	.LVL190:
 1582 00aa 48894500 		movq	%rax, 0(%rbp)
 667:/home/baikal/workspace/C50/Huawei_IoT_Agent_Tiny_SDK_Linux//lwm2m/core/data.c ****         if (*bufferP == NULL) return -1;
 1583              		.loc 1 667 0
 1584 00ae 4885C0   		testq	%rax, %rax
 1585 00b1 0F848A00 		je	.L153
 1585      0000
 668:/home/baikal/workspace/C50/Huawei_IoT_Agent_Tiny_SDK_Linux//lwm2m/core/data.c ****         memcpy(*bufferP, dataP->value.asBuffer.buffer, dataP->value.asBuffer.length);
 1586              		.loc 1 668 0
 1587 00b7 488B5308 		movq	8(%rbx), %rdx
GAS LISTING /tmp/ccf9kSf2.s 			page 46


 1588 00bb 488B7310 		movq	16(%rbx), %rsi
 1589              	.LVL191:
 1590              	.LBB50:
 1591              	.LBB51:
  53:/usr/include/x86_64-linux-gnu/bits/string3.h **** }
 1592              		.loc 2 53 0
 1593 00bf 4889C7   		movq	%rax, %rdi
 1594 00c2 E8000000 		call	memcpy
 1594      00
 1595              	.LVL192:
 1596              	.LBE51:
 1597              	.LBE50:
 669:/home/baikal/workspace/C50/Huawei_IoT_Agent_Tiny_SDK_Linux//lwm2m/core/data.c ****         return (int)dataP->value.asBuffer.length;
 1598              		.loc 1 669 0
 1599 00c7 8B4308   		movl	8(%rbx), %eax
 1600 00ca EB7A     		jmp	.L143
 1601              	.LVL193:
 1602              	.L149:
 1603              	.LBB52:
 670:/home/baikal/workspace/C50/Huawei_IoT_Agent_Tiny_SDK_Linux//lwm2m/core/data.c **** 
 671:/home/baikal/workspace/C50/Huawei_IoT_Agent_Tiny_SDK_Linux//lwm2m/core/data.c ****     case LWM2M_CONTENT_TLV:
 672:/home/baikal/workspace/C50/Huawei_IoT_Agent_Tiny_SDK_Linux//lwm2m/core/data.c ****     case LWM2M_CONTENT_TLV_OLD:
 673:/home/baikal/workspace/C50/Huawei_IoT_Agent_Tiny_SDK_Linux//lwm2m/core/data.c ****     {
 674:/home/baikal/workspace/C50/Huawei_IoT_Agent_Tiny_SDK_Linux//lwm2m/core/data.c ****         bool isResourceInstance;
 675:/home/baikal/workspace/C50/Huawei_IoT_Agent_Tiny_SDK_Linux//lwm2m/core/data.c **** 
 676:/home/baikal/workspace/C50/Huawei_IoT_Agent_Tiny_SDK_Linux//lwm2m/core/data.c ****         if (uriP != NULL && LWM2M_URI_IS_SET_RESOURCE(uriP)
 1604              		.loc 1 676 0
 1605 00cc 4885FF   		testq	%rdi, %rdi
 1606 00cf 741B     		je	.L154
 1607              		.loc 1 676 0 is_stmt 0 discriminator 1
 1608 00d1 F60701   		testb	$1, (%rdi)
 1609 00d4 741D     		je	.L155
 677:/home/baikal/workspace/C50/Huawei_IoT_Agent_Tiny_SDK_Linux//lwm2m/core/data.c ****                 && (size != 1 || dataP->id != uriP->resourceId))
 1610              		.loc 1 677 0 is_stmt 1
 1611 00d6 83FE01   		cmpl	$1, %esi
 1612 00d9 751F     		jne	.L156
 1613              		.loc 1 677 0 is_stmt 0 discriminator 1
 1614 00db 0FB74706 		movzwl	6(%rdi), %eax
 1615 00df 66394304 		cmpw	%ax, 4(%rbx)
 1616 00e3 751C     		jne	.L157
 678:/home/baikal/workspace/C50/Huawei_IoT_Agent_Tiny_SDK_Linux//lwm2m/core/data.c ****         {
 679:/home/baikal/workspace/C50/Huawei_IoT_Agent_Tiny_SDK_Linux//lwm2m/core/data.c ****             isResourceInstance = true;
 680:/home/baikal/workspace/C50/Huawei_IoT_Agent_Tiny_SDK_Linux//lwm2m/core/data.c ****         }
 681:/home/baikal/workspace/C50/Huawei_IoT_Agent_Tiny_SDK_Linux//lwm2m/core/data.c ****         else
 682:/home/baikal/workspace/C50/Huawei_IoT_Agent_Tiny_SDK_Linux//lwm2m/core/data.c ****         {
 683:/home/baikal/workspace/C50/Huawei_IoT_Agent_Tiny_SDK_Linux//lwm2m/core/data.c ****             isResourceInstance = false;
 1617              		.loc 1 683 0 is_stmt 1
 1618 00e5 BF000000 		movl	$0, %edi
 1618      00
 1619              	.LVL194:
 1620 00ea EB1A     		jmp	.L150
 1621              	.LVL195:
 1622              	.L154:
 1623 00ec BF000000 		movl	$0, %edi
 1623      00
 1624              	.LVL196:
 1625 00f1 EB13     		jmp	.L150
GAS LISTING /tmp/ccf9kSf2.s 			page 47


 1626              	.LVL197:
 1627              	.L155:
 1628 00f3 BF000000 		movl	$0, %edi
 1628      00
 1629              	.LVL198:
 1630 00f8 EB0C     		jmp	.L150
 1631              	.LVL199:
 1632              	.L156:
 679:/home/baikal/workspace/C50/Huawei_IoT_Agent_Tiny_SDK_Linux//lwm2m/core/data.c ****         }
 1633              		.loc 1 679 0
 1634 00fa BF010000 		movl	$1, %edi
 1634      00
 1635              	.LVL200:
 1636 00ff EB05     		jmp	.L150
 1637              	.LVL201:
 1638              	.L157:
 1639 0101 BF010000 		movl	$1, %edi
 1639      00
 1640              	.LVL202:
 1641              	.L150:
 684:/home/baikal/workspace/C50/Huawei_IoT_Agent_Tiny_SDK_Linux//lwm2m/core/data.c ****         }
 685:/home/baikal/workspace/C50/Huawei_IoT_Agent_Tiny_SDK_Linux//lwm2m/core/data.c ****         return tlv_serialize(isResourceInstance, size, dataP, bufferP);
 1642              		.loc 1 685 0
 1643 0106 400FB6FF 		movzbl	%dil, %edi
 1644 010a 4889E9   		movq	%rbp, %rcx
 1645              	.LVL203:
 1646 010d 4889DA   		movq	%rbx, %rdx
 1647              	.LVL204:
 1648 0110 E8000000 		call	tlv_serialize
 1648      00
 1649              	.LVL205:
 1650 0115 EB2F     		jmp	.L143
 1651              	.LVL206:
 1652              	.L148:
 1653              	.LBE52:
 686:/home/baikal/workspace/C50/Huawei_IoT_Agent_Tiny_SDK_Linux//lwm2m/core/data.c ****     }
 687:/home/baikal/workspace/C50/Huawei_IoT_Agent_Tiny_SDK_Linux//lwm2m/core/data.c **** 
 688:/home/baikal/workspace/C50/Huawei_IoT_Agent_Tiny_SDK_Linux//lwm2m/core/data.c **** #ifdef LWM2M_CLIENT_MODE
 689:/home/baikal/workspace/C50/Huawei_IoT_Agent_Tiny_SDK_Linux//lwm2m/core/data.c ****     case LWM2M_CONTENT_LINK:
 690:/home/baikal/workspace/C50/Huawei_IoT_Agent_Tiny_SDK_Linux//lwm2m/core/data.c ****         return discover_serialize(NULL, uriP, NULL, size, dataP, bufferP);
 1654              		.loc 1 690 0
 1655 0117 4D89C1   		movq	%r8, %r9
 1656 011a 4989D0   		movq	%rdx, %r8
 1657 011d 89F1     		movl	%esi, %ecx
 1658              	.LVL207:
 1659 011f BA000000 		movl	$0, %edx
 1659      00
 1660              	.LVL208:
 1661 0124 4889FE   		movq	%rdi, %rsi
 1662              	.LVL209:
 1663 0127 BF000000 		movl	$0, %edi
 1663      00
 1664              	.LVL210:
 1665 012c E8000000 		call	discover_serialize
 1665      00
 1666              	.LVL211:
 1667 0131 EB13     		jmp	.L143
GAS LISTING /tmp/ccf9kSf2.s 			page 48


 1668              	.LVL212:
 1669              	.L151:
 650:/home/baikal/workspace/C50/Huawei_IoT_Agent_Tiny_SDK_Linux//lwm2m/core/data.c ****     }
 1670              		.loc 1 650 0
 1671 0133 B8FFFFFF 		movl	$-1, %eax
 1671      FF
 1672 0138 EB0C     		jmp	.L143
 1673              	.LVL213:
 1674              	.L152:
 691:/home/baikal/workspace/C50/Huawei_IoT_Agent_Tiny_SDK_Linux//lwm2m/core/data.c **** #endif
 692:/home/baikal/workspace/C50/Huawei_IoT_Agent_Tiny_SDK_Linux//lwm2m/core/data.c **** #ifdef LWM2M_SUPPORT_JSON
 693:/home/baikal/workspace/C50/Huawei_IoT_Agent_Tiny_SDK_Linux//lwm2m/core/data.c ****     case LWM2M_CONTENT_JSON:
 694:/home/baikal/workspace/C50/Huawei_IoT_Agent_Tiny_SDK_Linux//lwm2m/core/data.c ****     case LWM2M_CONTENT_JSON_OLD:
 695:/home/baikal/workspace/C50/Huawei_IoT_Agent_Tiny_SDK_Linux//lwm2m/core/data.c ****         return json_serialize(uriP, size, dataP, bufferP);
 696:/home/baikal/workspace/C50/Huawei_IoT_Agent_Tiny_SDK_Linux//lwm2m/core/data.c **** #endif
 697:/home/baikal/workspace/C50/Huawei_IoT_Agent_Tiny_SDK_Linux//lwm2m/core/data.c **** 
 698:/home/baikal/workspace/C50/Huawei_IoT_Agent_Tiny_SDK_Linux//lwm2m/core/data.c ****     default:
 699:/home/baikal/workspace/C50/Huawei_IoT_Agent_Tiny_SDK_Linux//lwm2m/core/data.c ****         return -1;
 1675              		.loc 1 699 0
 1676 013a B8FFFFFF 		movl	$-1, %eax
 1676      FF
 1677 013f EB05     		jmp	.L143
 1678              	.LVL214:
 1679              	.L153:
 667:/home/baikal/workspace/C50/Huawei_IoT_Agent_Tiny_SDK_Linux//lwm2m/core/data.c ****         memcpy(*bufferP, dataP->value.asBuffer.buffer, dataP->value.asBuffer.length);
 1680              		.loc 1 667 0
 1681 0141 B8FFFFFF 		movl	$-1, %eax
 1681      FF
 1682              	.LVL215:
 1683              	.L143:
 700:/home/baikal/workspace/C50/Huawei_IoT_Agent_Tiny_SDK_Linux//lwm2m/core/data.c ****     }
 701:/home/baikal/workspace/C50/Huawei_IoT_Agent_Tiny_SDK_Linux//lwm2m/core/data.c **** }
 1684              		.loc 1 701 0
 1685 0146 4883C408 		addq	$8, %rsp
 1686              	.LCFI61:
 1687              		.cfi_def_cfa_offset 24
 1688 014a 5B       		popq	%rbx
 1689              	.LCFI62:
 1690              		.cfi_def_cfa_offset 16
 1691 014b 5D       		popq	%rbp
 1692              	.LCFI63:
 1693              		.cfi_def_cfa_offset 8
 1694 014c C3       		ret
 1695              		.cfi_endproc
 1696              	.LFE81:
 1698              		.text
 1699              	.Letext0:
 1700              		.file 3 "/usr/include/stdint.h"
 1701              		.file 4 "/usr/lib/gcc/x86_64-linux-gnu/5/include/stddef.h"
 1702              		.file 5 "/usr/include/x86_64-linux-gnu/bits/types.h"
 1703              		.file 6 "/usr/include/libio.h"
 1704              		.file 7 "/home/baikal/workspace/C50/Huawei_IoT_Agent_Tiny_SDK_Linux//lwm2m/core/liblwm2m.h"
 1705              		.file 8 "/home/baikal/workspace/C50/Huawei_IoT_Agent_Tiny_SDK_Linux//lwm2m/core/internals.h"
 1706              		.file 9 "/usr/include/stdio.h"
GAS LISTING /tmp/ccf9kSf2.s 			page 49

