GAS LISTING /tmp/ccPMqhYv.s 			page 1


   1              		.file	"discover.c"
   2              		.text
   3              	.Ltext0:
   4              		.section	.text.prv_findAttributes,"ax",@progbits
   6              	prv_findAttributes:
   7              	.LFB63:
   8              		.file 1 "/home/baikal/workspace/C50/Huawei_IoT_Agent_Tiny_SDK_Linux//lwm2m/core/discover.c"
   1:/home/baikal/workspace/C50/Huawei_IoT_Agent_Tiny_SDK_Linux//lwm2m/core/discover.c **** /*******************************************************************************
   2:/home/baikal/workspace/C50/Huawei_IoT_Agent_Tiny_SDK_Linux//lwm2m/core/discover.c **** *
   3:/home/baikal/workspace/C50/Huawei_IoT_Agent_Tiny_SDK_Linux//lwm2m/core/discover.c **** * Copyright (c) 2015 Intel Corporation and others.
   4:/home/baikal/workspace/C50/Huawei_IoT_Agent_Tiny_SDK_Linux//lwm2m/core/discover.c **** * All rights reserved. This program and the accompanying materials
   5:/home/baikal/workspace/C50/Huawei_IoT_Agent_Tiny_SDK_Linux//lwm2m/core/discover.c **** * are made available under the terms of the Eclipse Public License v1.0
   6:/home/baikal/workspace/C50/Huawei_IoT_Agent_Tiny_SDK_Linux//lwm2m/core/discover.c **** * and Eclipse Distribution License v1.0 which accompany this distribution.
   7:/home/baikal/workspace/C50/Huawei_IoT_Agent_Tiny_SDK_Linux//lwm2m/core/discover.c **** *
   8:/home/baikal/workspace/C50/Huawei_IoT_Agent_Tiny_SDK_Linux//lwm2m/core/discover.c **** * The Eclipse Public License is available at
   9:/home/baikal/workspace/C50/Huawei_IoT_Agent_Tiny_SDK_Linux//lwm2m/core/discover.c **** *    http://www.eclipse.org/legal/epl-v10.html
  10:/home/baikal/workspace/C50/Huawei_IoT_Agent_Tiny_SDK_Linux//lwm2m/core/discover.c **** * The Eclipse Distribution License is available at
  11:/home/baikal/workspace/C50/Huawei_IoT_Agent_Tiny_SDK_Linux//lwm2m/core/discover.c **** *    http://www.eclipse.org/org/documents/edl-v10.php.
  12:/home/baikal/workspace/C50/Huawei_IoT_Agent_Tiny_SDK_Linux//lwm2m/core/discover.c **** *
  13:/home/baikal/workspace/C50/Huawei_IoT_Agent_Tiny_SDK_Linux//lwm2m/core/discover.c **** * Contributors:
  14:/home/baikal/workspace/C50/Huawei_IoT_Agent_Tiny_SDK_Linux//lwm2m/core/discover.c **** *    David Navarro, Intel Corporation - initial API and implementation
  15:/home/baikal/workspace/C50/Huawei_IoT_Agent_Tiny_SDK_Linux//lwm2m/core/discover.c **** *
  16:/home/baikal/workspace/C50/Huawei_IoT_Agent_Tiny_SDK_Linux//lwm2m/core/discover.c **** *******************************************************************************/
  17:/home/baikal/workspace/C50/Huawei_IoT_Agent_Tiny_SDK_Linux//lwm2m/core/discover.c **** 
  18:/home/baikal/workspace/C50/Huawei_IoT_Agent_Tiny_SDK_Linux//lwm2m/core/discover.c **** 
  19:/home/baikal/workspace/C50/Huawei_IoT_Agent_Tiny_SDK_Linux//lwm2m/core/discover.c **** #include "internals.h"
  20:/home/baikal/workspace/C50/Huawei_IoT_Agent_Tiny_SDK_Linux//lwm2m/core/discover.c **** 
  21:/home/baikal/workspace/C50/Huawei_IoT_Agent_Tiny_SDK_Linux//lwm2m/core/discover.c **** #define PRV_LINK_BUFFER_SIZE  1024
  22:/home/baikal/workspace/C50/Huawei_IoT_Agent_Tiny_SDK_Linux//lwm2m/core/discover.c **** 
  23:/home/baikal/workspace/C50/Huawei_IoT_Agent_Tiny_SDK_Linux//lwm2m/core/discover.c **** 
  24:/home/baikal/workspace/C50/Huawei_IoT_Agent_Tiny_SDK_Linux//lwm2m/core/discover.c **** #define PRV_CONCAT_STR(buf, len, index, str, str_len)    \
  25:/home/baikal/workspace/C50/Huawei_IoT_Agent_Tiny_SDK_Linux//lwm2m/core/discover.c ****     {                                                    \
  26:/home/baikal/workspace/C50/Huawei_IoT_Agent_Tiny_SDK_Linux//lwm2m/core/discover.c ****         if ((len)-(index) < (str_len)) return -1;        \
  27:/home/baikal/workspace/C50/Huawei_IoT_Agent_Tiny_SDK_Linux//lwm2m/core/discover.c ****         memcpy((buf)+(index), (str), (str_len));         \
  28:/home/baikal/workspace/C50/Huawei_IoT_Agent_Tiny_SDK_Linux//lwm2m/core/discover.c ****         (index) += (str_len);                            \
  29:/home/baikal/workspace/C50/Huawei_IoT_Agent_Tiny_SDK_Linux//lwm2m/core/discover.c ****     }
  30:/home/baikal/workspace/C50/Huawei_IoT_Agent_Tiny_SDK_Linux//lwm2m/core/discover.c **** 
  31:/home/baikal/workspace/C50/Huawei_IoT_Agent_Tiny_SDK_Linux//lwm2m/core/discover.c **** 
  32:/home/baikal/workspace/C50/Huawei_IoT_Agent_Tiny_SDK_Linux//lwm2m/core/discover.c **** #ifdef LWM2M_CLIENT_MODE
  33:/home/baikal/workspace/C50/Huawei_IoT_Agent_Tiny_SDK_Linux//lwm2m/core/discover.c **** 
  34:/home/baikal/workspace/C50/Huawei_IoT_Agent_Tiny_SDK_Linux//lwm2m/core/discover.c **** static lwm2m_attributes_t *prv_findAttributes(lwm2m_context_t *contextP,
  35:/home/baikal/workspace/C50/Huawei_IoT_Agent_Tiny_SDK_Linux//lwm2m/core/discover.c ****         lwm2m_uri_t *uriP,
  36:/home/baikal/workspace/C50/Huawei_IoT_Agent_Tiny_SDK_Linux//lwm2m/core/discover.c ****         lwm2m_server_t *serverP)
  37:/home/baikal/workspace/C50/Huawei_IoT_Agent_Tiny_SDK_Linux//lwm2m/core/discover.c **** {
   9              		.loc 1 37 0
  10              		.cfi_startproc
  11              	.LVL0:
  38:/home/baikal/workspace/C50/Huawei_IoT_Agent_Tiny_SDK_Linux//lwm2m/core/discover.c ****     lwm2m_observed_t *observedP;
  39:/home/baikal/workspace/C50/Huawei_IoT_Agent_Tiny_SDK_Linux//lwm2m/core/discover.c ****     lwm2m_watcher_t *watcherP;
  40:/home/baikal/workspace/C50/Huawei_IoT_Agent_Tiny_SDK_Linux//lwm2m/core/discover.c ****     lwm2m_attributes_t *paramP;
  41:/home/baikal/workspace/C50/Huawei_IoT_Agent_Tiny_SDK_Linux//lwm2m/core/discover.c **** 
  42:/home/baikal/workspace/C50/Huawei_IoT_Agent_Tiny_SDK_Linux//lwm2m/core/discover.c ****     paramP = NULL;
  43:/home/baikal/workspace/C50/Huawei_IoT_Agent_Tiny_SDK_Linux//lwm2m/core/discover.c **** 
  44:/home/baikal/workspace/C50/Huawei_IoT_Agent_Tiny_SDK_Linux//lwm2m/core/discover.c ****     if (contextP == NULL) return NULL;
  12              		.loc 1 44 0
  13 0000 4885FF   		testq	%rdi, %rdi
  14 0003 7437     		je	.L6
GAS LISTING /tmp/ccPMqhYv.s 			page 2


  45:/home/baikal/workspace/C50/Huawei_IoT_Agent_Tiny_SDK_Linux//lwm2m/core/discover.c ****     if (serverP == NULL) return NULL;
  15              		.loc 1 45 0
  16 0005 4885D2   		testq	%rdx, %rdx
  17 0008 7438     		je	.L7
  37:/home/baikal/workspace/C50/Huawei_IoT_Agent_Tiny_SDK_Linux//lwm2m/core/discover.c ****     lwm2m_observed_t *observedP;
  18              		.loc 1 37 0
  19 000a 53       		pushq	%rbx
  20              	.LCFI0:
  21              		.cfi_def_cfa_offset 16
  22              		.cfi_offset 3, -16
  23 000b 4889D3   		movq	%rdx, %rbx
  46:/home/baikal/workspace/C50/Huawei_IoT_Agent_Tiny_SDK_Linux//lwm2m/core/discover.c **** 
  47:/home/baikal/workspace/C50/Huawei_IoT_Agent_Tiny_SDK_Linux//lwm2m/core/discover.c ****     observedP = observe_findByUri(contextP, uriP);
  24              		.loc 1 47 0
  25 000e E8000000 		call	observe_findByUri
  25      00
  26              	.LVL1:
  48:/home/baikal/workspace/C50/Huawei_IoT_Agent_Tiny_SDK_Linux//lwm2m/core/discover.c ****     if (observedP == NULL || observedP->watcherList == NULL) return NULL;
  27              		.loc 1 48 0
  28 0013 4885C0   		testq	%rax, %rax
  29 0016 7430     		je	.L8
  30              		.loc 1 48 0 is_stmt 0 discriminator 2
  31 0018 488B4810 		movq	16(%rax), %rcx
  32 001c 4885C9   		testq	%rcx, %rcx
  33 001f 742E     		je	.L9
  34 0021 B8000000 		movl	$0, %eax
  34      00
  35              	.LVL2:
  36 0026 EB0D     		jmp	.L3
  37              	.LVL3:
  38              	.L5:
  49:/home/baikal/workspace/C50/Huawei_IoT_Agent_Tiny_SDK_Linux//lwm2m/core/discover.c **** 
  50:/home/baikal/workspace/C50/Huawei_IoT_Agent_Tiny_SDK_Linux//lwm2m/core/discover.c ****     for (watcherP = observedP->watcherList; watcherP != NULL; watcherP = watcherP->next)
  51:/home/baikal/workspace/C50/Huawei_IoT_Agent_Tiny_SDK_Linux//lwm2m/core/discover.c ****     {
  52:/home/baikal/workspace/C50/Huawei_IoT_Agent_Tiny_SDK_Linux//lwm2m/core/discover.c ****         if (watcherP->server == serverP)
  39              		.loc 1 52 0 is_stmt 1
  40 0028 483B5910 		cmpq	16(%rcx), %rbx
  41 002c 7504     		jne	.L4
  53:/home/baikal/workspace/C50/Huawei_IoT_Agent_Tiny_SDK_Linux//lwm2m/core/discover.c ****         {
  54:/home/baikal/workspace/C50/Huawei_IoT_Agent_Tiny_SDK_Linux//lwm2m/core/discover.c ****             paramP = watcherP->parameters;
  42              		.loc 1 54 0
  43 002e 488B4118 		movq	24(%rcx), %rax
  44              	.LVL4:
  45              	.L4:
  50:/home/baikal/workspace/C50/Huawei_IoT_Agent_Tiny_SDK_Linux//lwm2m/core/discover.c ****     {
  46              		.loc 1 50 0 discriminator 2
  47 0032 488B09   		movq	(%rcx), %rcx
  48              	.LVL5:
  49              	.L3:
  50:/home/baikal/workspace/C50/Huawei_IoT_Agent_Tiny_SDK_Linux//lwm2m/core/discover.c ****     {
  50              		.loc 1 50 0 is_stmt 0 discriminator 1
  51 0035 4885C9   		testq	%rcx, %rcx
  52 0038 75EE     		jne	.L5
  53 003a EB18     		jmp	.L2
  54              	.LVL6:
  55              	.L6:
  56              	.LCFI1:
GAS LISTING /tmp/ccPMqhYv.s 			page 3


  57              		.cfi_def_cfa_offset 8
  58              		.cfi_restore 3
  44:/home/baikal/workspace/C50/Huawei_IoT_Agent_Tiny_SDK_Linux//lwm2m/core/discover.c ****     if (serverP == NULL) return NULL;
  59              		.loc 1 44 0 is_stmt 1
  60 003c B8000000 		movl	$0, %eax
  60      00
  61 0041 C3       		ret
  62              	.L7:
  45:/home/baikal/workspace/C50/Huawei_IoT_Agent_Tiny_SDK_Linux//lwm2m/core/discover.c **** 
  63              		.loc 1 45 0
  64 0042 B8000000 		movl	$0, %eax
  64      00
  55:/home/baikal/workspace/C50/Huawei_IoT_Agent_Tiny_SDK_Linux//lwm2m/core/discover.c ****         }
  56:/home/baikal/workspace/C50/Huawei_IoT_Agent_Tiny_SDK_Linux//lwm2m/core/discover.c ****     }
  57:/home/baikal/workspace/C50/Huawei_IoT_Agent_Tiny_SDK_Linux//lwm2m/core/discover.c **** 
  58:/home/baikal/workspace/C50/Huawei_IoT_Agent_Tiny_SDK_Linux//lwm2m/core/discover.c ****     return paramP;
  59:/home/baikal/workspace/C50/Huawei_IoT_Agent_Tiny_SDK_Linux//lwm2m/core/discover.c **** }
  65              		.loc 1 59 0
  66 0047 C3       		ret
  67              	.LVL7:
  68              	.L8:
  69              	.LCFI2:
  70              		.cfi_def_cfa_offset 16
  71              		.cfi_offset 3, -16
  48:/home/baikal/workspace/C50/Huawei_IoT_Agent_Tiny_SDK_Linux//lwm2m/core/discover.c **** 
  72              		.loc 1 48 0
  73 0048 B8000000 		movl	$0, %eax
  73      00
  74              	.LVL8:
  75 004d EB05     		jmp	.L2
  76              	.LVL9:
  77              	.L9:
  78 004f B8000000 		movl	$0, %eax
  78      00
  79              	.LVL10:
  80              	.L2:
  81              		.loc 1 59 0
  82 0054 5B       		popq	%rbx
  83              	.LCFI3:
  84              		.cfi_restore 3
  85              		.cfi_def_cfa_offset 8
  86              	.LVL11:
  87 0055 C3       		ret
  88              		.cfi_endproc
  89              	.LFE63:
  91              		.section	.text.prv_serializeAttributes,"ax",@progbits
  93              	prv_serializeAttributes:
  94              	.LFB64:
  60:/home/baikal/workspace/C50/Huawei_IoT_Agent_Tiny_SDK_Linux//lwm2m/core/discover.c **** 
  61:/home/baikal/workspace/C50/Huawei_IoT_Agent_Tiny_SDK_Linux//lwm2m/core/discover.c **** static int prv_serializeAttributes(lwm2m_context_t *contextP,
  62:/home/baikal/workspace/C50/Huawei_IoT_Agent_Tiny_SDK_Linux//lwm2m/core/discover.c ****                                    lwm2m_uri_t *uriP,
  63:/home/baikal/workspace/C50/Huawei_IoT_Agent_Tiny_SDK_Linux//lwm2m/core/discover.c ****                                    lwm2m_server_t *serverP,
  64:/home/baikal/workspace/C50/Huawei_IoT_Agent_Tiny_SDK_Linux//lwm2m/core/discover.c ****                                    lwm2m_attributes_t *objectParamP,
  65:/home/baikal/workspace/C50/Huawei_IoT_Agent_Tiny_SDK_Linux//lwm2m/core/discover.c ****                                    uint8_t *buffer,
  66:/home/baikal/workspace/C50/Huawei_IoT_Agent_Tiny_SDK_Linux//lwm2m/core/discover.c ****                                    size_t uriLen,
  67:/home/baikal/workspace/C50/Huawei_IoT_Agent_Tiny_SDK_Linux//lwm2m/core/discover.c ****                                    size_t bufferLen)
  68:/home/baikal/workspace/C50/Huawei_IoT_Agent_Tiny_SDK_Linux//lwm2m/core/discover.c **** {
GAS LISTING /tmp/ccPMqhYv.s 			page 4


  95              		.loc 1 68 0
  96              		.cfi_startproc
  97              	.LVL12:
  98 0000 4157     		pushq	%r15
  99              	.LCFI4:
 100              		.cfi_def_cfa_offset 16
 101              		.cfi_offset 15, -16
 102 0002 4156     		pushq	%r14
 103              	.LCFI5:
 104              		.cfi_def_cfa_offset 24
 105              		.cfi_offset 14, -24
 106 0004 4155     		pushq	%r13
 107              	.LCFI6:
 108              		.cfi_def_cfa_offset 32
 109              		.cfi_offset 13, -32
 110 0006 4154     		pushq	%r12
 111              	.LCFI7:
 112              		.cfi_def_cfa_offset 40
 113              		.cfi_offset 12, -40
 114 0008 55       		pushq	%rbp
 115              	.LCFI8:
 116              		.cfi_def_cfa_offset 48
 117              		.cfi_offset 6, -48
 118 0009 53       		pushq	%rbx
 119              	.LCFI9:
 120              		.cfi_def_cfa_offset 56
 121              		.cfi_offset 3, -56
 122 000a 4883EC08 		subq	$8, %rsp
 123              	.LCFI10:
 124              		.cfi_def_cfa_offset 64
 125 000e 4989CE   		movq	%rcx, %r14
 126 0011 4D89C4   		movq	%r8, %r12
 127 0014 4D89CD   		movq	%r9, %r13
 128 0017 488B6C24 		movq	64(%rsp), %rbp
 128      40
 129              	.LVL13:
  69:/home/baikal/workspace/C50/Huawei_IoT_Agent_Tiny_SDK_Linux//lwm2m/core/discover.c ****     int head;
  70:/home/baikal/workspace/C50/Huawei_IoT_Agent_Tiny_SDK_Linux//lwm2m/core/discover.c ****     int res;
  71:/home/baikal/workspace/C50/Huawei_IoT_Agent_Tiny_SDK_Linux//lwm2m/core/discover.c ****     lwm2m_attributes_t *paramP;
  72:/home/baikal/workspace/C50/Huawei_IoT_Agent_Tiny_SDK_Linux//lwm2m/core/discover.c **** 
  73:/home/baikal/workspace/C50/Huawei_IoT_Agent_Tiny_SDK_Linux//lwm2m/core/discover.c ****     head = 0;
  74:/home/baikal/workspace/C50/Huawei_IoT_Agent_Tiny_SDK_Linux//lwm2m/core/discover.c **** 
  75:/home/baikal/workspace/C50/Huawei_IoT_Agent_Tiny_SDK_Linux//lwm2m/core/discover.c ****     paramP = prv_findAttributes(contextP, uriP, serverP);
 130              		.loc 1 75 0
 131 001c E8000000 		call	prv_findAttributes
 131      00
 132              	.LVL14:
 133 0021 4889C3   		movq	%rax, %rbx
 134              	.LVL15:
  76:/home/baikal/workspace/C50/Huawei_IoT_Agent_Tiny_SDK_Linux//lwm2m/core/discover.c ****     if (paramP == NULL) paramP = objectParamP;
 135              		.loc 1 76 0
 136 0024 4885C0   		testq	%rax, %rax
 137 0027 7503     		jne	.L13
 138 0029 4C89F3   		movq	%r14, %rbx
 139              	.L13:
 140              	.LVL16:
  77:/home/baikal/workspace/C50/Huawei_IoT_Agent_Tiny_SDK_Linux//lwm2m/core/discover.c **** 
GAS LISTING /tmp/ccPMqhYv.s 			page 5


  78:/home/baikal/workspace/C50/Huawei_IoT_Agent_Tiny_SDK_Linux//lwm2m/core/discover.c ****     if (paramP != NULL)
 141              		.loc 1 78 0
 142 002c 4885DB   		testq	%rbx, %rbx
 143 002f 0F84A802 		je	.L24
 143      0000
  79:/home/baikal/workspace/C50/Huawei_IoT_Agent_Tiny_SDK_Linux//lwm2m/core/discover.c ****     {
  80:/home/baikal/workspace/C50/Huawei_IoT_Agent_Tiny_SDK_Linux//lwm2m/core/discover.c ****         head = uriLen;
 144              		.loc 1 80 0
 145 0035 4489E8   		movl	%r13d, %eax
 146              	.LVL17:
  81:/home/baikal/workspace/C50/Huawei_IoT_Agent_Tiny_SDK_Linux//lwm2m/core/discover.c **** 
  82:/home/baikal/workspace/C50/Huawei_IoT_Agent_Tiny_SDK_Linux//lwm2m/core/discover.c ****         if (paramP->toSet & LWM2M_ATTR_FLAG_MIN_PERIOD)
 147              		.loc 1 82 0
 148 0038 F60301   		testb	$1, (%rbx)
 149 003b 7459     		je	.L15
  83:/home/baikal/workspace/C50/Huawei_IoT_Agent_Tiny_SDK_Linux//lwm2m/core/discover.c ****         {
  84:/home/baikal/workspace/C50/Huawei_IoT_Agent_Tiny_SDK_Linux//lwm2m/core/discover.c ****             PRV_CONCAT_STR(buffer, bufferLen, head, LINK_ATTR_SEPARATOR, LINK_ATTR_SEPARATOR_SIZE);
 150              		.loc 1 84 0
 151 003d 4963C5   		movslq	%r13d, %rax
 152              	.LVL18:
 153 0040 4839E8   		cmpq	%rbp, %rax
 154 0043 0F84AC02 		je	.L25
 154      0000
 155              	.LVL19:
 156              	.LBB82:
 157              	.LBB83:
 158              		.file 2 "/usr/include/x86_64-linux-gnu/bits/string3.h"
   1:/usr/include/x86_64-linux-gnu/bits/string3.h **** /* Copyright (C) 2004-2016 Free Software Foundation, Inc.
   2:/usr/include/x86_64-linux-gnu/bits/string3.h ****    This file is part of the GNU C Library.
   3:/usr/include/x86_64-linux-gnu/bits/string3.h **** 
   4:/usr/include/x86_64-linux-gnu/bits/string3.h ****    The GNU C Library is free software; you can redistribute it and/or
   5:/usr/include/x86_64-linux-gnu/bits/string3.h ****    modify it under the terms of the GNU Lesser General Public
   6:/usr/include/x86_64-linux-gnu/bits/string3.h ****    License as published by the Free Software Foundation; either
   7:/usr/include/x86_64-linux-gnu/bits/string3.h ****    version 2.1 of the License, or (at your option) any later version.
   8:/usr/include/x86_64-linux-gnu/bits/string3.h **** 
   9:/usr/include/x86_64-linux-gnu/bits/string3.h ****    The GNU C Library is distributed in the hope that it will be useful,
  10:/usr/include/x86_64-linux-gnu/bits/string3.h ****    but WITHOUT ANY WARRANTY; without even the implied warranty of
  11:/usr/include/x86_64-linux-gnu/bits/string3.h ****    MERCHANTABILITY or FITNESS FOR A PARTICULAR PURPOSE.  See the GNU
  12:/usr/include/x86_64-linux-gnu/bits/string3.h ****    Lesser General Public License for more details.
  13:/usr/include/x86_64-linux-gnu/bits/string3.h **** 
  14:/usr/include/x86_64-linux-gnu/bits/string3.h ****    You should have received a copy of the GNU Lesser General Public
  15:/usr/include/x86_64-linux-gnu/bits/string3.h ****    License along with the GNU C Library; if not, see
  16:/usr/include/x86_64-linux-gnu/bits/string3.h ****    <http://www.gnu.org/licenses/>.  */
  17:/usr/include/x86_64-linux-gnu/bits/string3.h **** 
  18:/usr/include/x86_64-linux-gnu/bits/string3.h **** #ifndef _STRING_H
  19:/usr/include/x86_64-linux-gnu/bits/string3.h **** # error "Never use <bits/string3.h> directly; include <string.h> instead."
  20:/usr/include/x86_64-linux-gnu/bits/string3.h **** #endif
  21:/usr/include/x86_64-linux-gnu/bits/string3.h **** 
  22:/usr/include/x86_64-linux-gnu/bits/string3.h **** #if !__GNUC_PREREQ (5,0)
  23:/usr/include/x86_64-linux-gnu/bits/string3.h **** __warndecl (__warn_memset_zero_len,
  24:/usr/include/x86_64-linux-gnu/bits/string3.h **** 	    "memset used with constant zero length parameter; this could be due to transposed parameters")
  25:/usr/include/x86_64-linux-gnu/bits/string3.h **** #endif
  26:/usr/include/x86_64-linux-gnu/bits/string3.h **** 
  27:/usr/include/x86_64-linux-gnu/bits/string3.h **** #ifndef __cplusplus
  28:/usr/include/x86_64-linux-gnu/bits/string3.h **** /* XXX This is temporarily.  We should not redefine any of the symbols
  29:/usr/include/x86_64-linux-gnu/bits/string3.h ****    and instead integrate the error checking into the original
  30:/usr/include/x86_64-linux-gnu/bits/string3.h ****    definitions.  */
GAS LISTING /tmp/ccPMqhYv.s 			page 6


  31:/usr/include/x86_64-linux-gnu/bits/string3.h **** # undef memcpy
  32:/usr/include/x86_64-linux-gnu/bits/string3.h **** # undef memmove
  33:/usr/include/x86_64-linux-gnu/bits/string3.h **** # undef memset
  34:/usr/include/x86_64-linux-gnu/bits/string3.h **** # undef strcat
  35:/usr/include/x86_64-linux-gnu/bits/string3.h **** # undef strcpy
  36:/usr/include/x86_64-linux-gnu/bits/string3.h **** # undef strncat
  37:/usr/include/x86_64-linux-gnu/bits/string3.h **** # undef strncpy
  38:/usr/include/x86_64-linux-gnu/bits/string3.h **** # ifdef __USE_GNU
  39:/usr/include/x86_64-linux-gnu/bits/string3.h **** #  undef mempcpy
  40:/usr/include/x86_64-linux-gnu/bits/string3.h **** #  undef stpcpy
  41:/usr/include/x86_64-linux-gnu/bits/string3.h **** # endif
  42:/usr/include/x86_64-linux-gnu/bits/string3.h **** # ifdef __USE_MISC
  43:/usr/include/x86_64-linux-gnu/bits/string3.h **** #  undef bcopy
  44:/usr/include/x86_64-linux-gnu/bits/string3.h **** #  undef bzero
  45:/usr/include/x86_64-linux-gnu/bits/string3.h **** # endif
  46:/usr/include/x86_64-linux-gnu/bits/string3.h **** #endif
  47:/usr/include/x86_64-linux-gnu/bits/string3.h **** 
  48:/usr/include/x86_64-linux-gnu/bits/string3.h **** 
  49:/usr/include/x86_64-linux-gnu/bits/string3.h **** __fortify_function void *
  50:/usr/include/x86_64-linux-gnu/bits/string3.h **** __NTH (memcpy (void *__restrict __dest, const void *__restrict __src,
  51:/usr/include/x86_64-linux-gnu/bits/string3.h **** 	       size_t __len))
  52:/usr/include/x86_64-linux-gnu/bits/string3.h **** {
  53:/usr/include/x86_64-linux-gnu/bits/string3.h ****   return __builtin___memcpy_chk (__dest, __src, __len, __bos0 (__dest));
 159              		.loc 2 53 0 discriminator 2
 160 0049 41C60404 		movb	$59, (%r12,%rax)
 160      3B
 161              	.LVL20:
 162              	.LBE83:
 163              	.LBE82:
 164              		.loc 1 84 0 discriminator 2
 165 004e 418D4501 		leal	1(%r13), %eax
 166              	.LVL21:
  85:/home/baikal/workspace/C50/Huawei_IoT_Agent_Tiny_SDK_Linux//lwm2m/core/discover.c ****             PRV_CONCAT_STR(buffer, bufferLen, head, ATTR_MIN_PERIOD_STR, ATTR_MIN_PERIOD_LEN);
 167              		.loc 1 85 0 discriminator 2
 168 0052 4898     		cltq
 169 0054 4889EA   		movq	%rbp, %rdx
 170 0057 4829C2   		subq	%rax, %rdx
 171 005a 4883FA04 		cmpq	$4, %rdx
 172 005e 0F869B02 		jbe	.L26
 172      0000
 173 0064 4C01E0   		addq	%r12, %rax
 174              	.LVL22:
 175              	.LBB84:
 176              	.LBB85:
 177              		.loc 2 53 0 discriminator 2
 178 0067 C700706D 		movl	$1852403056, (%rax)
 178      696E
 179 006d C640043D 		movb	$61, 4(%rax)
 180              	.LVL23:
 181              	.LBE85:
 182              	.LBE84:
 183              		.loc 1 85 0 discriminator 2
 184 0071 458D7D06 		leal	6(%r13), %r15d
 185              	.LVL24:
  86:/home/baikal/workspace/C50/Huawei_IoT_Agent_Tiny_SDK_Linux//lwm2m/core/discover.c **** 
  87:/home/baikal/workspace/C50/Huawei_IoT_Agent_Tiny_SDK_Linux//lwm2m/core/discover.c ****             res = utils_intToText(paramP->minPeriod, buffer + head, bufferLen - head);
 186              		.loc 1 87 0 discriminator 2
GAS LISTING /tmp/ccPMqhYv.s 			page 7


 187 0075 4963F7   		movslq	%r15d, %rsi
 188 0078 4889EA   		movq	%rbp, %rdx
 189 007b 4829F2   		subq	%rsi, %rdx
 190 007e 4C01E6   		addq	%r12, %rsi
 191 0081 8B7B04   		movl	4(%rbx), %edi
 192 0084 E8000000 		call	utils_intToText
 192      00
 193              	.LVL25:
  88:/home/baikal/workspace/C50/Huawei_IoT_Agent_Tiny_SDK_Linux//lwm2m/core/discover.c ****             if (res <= 0) return -1;
 194              		.loc 1 88 0 discriminator 2
 195 0089 85C0     		testl	%eax, %eax
 196 008b 0F8E7802 		jle	.L27
 196      0000
  89:/home/baikal/workspace/C50/Huawei_IoT_Agent_Tiny_SDK_Linux//lwm2m/core/discover.c ****             head += res;
 197              		.loc 1 89 0
 198 0091 4401F8   		addl	%r15d, %eax
 199              	.LVL26:
 200 0094 EB5E     		jmp	.L17
 201              	.L15:
  90:/home/baikal/workspace/C50/Huawei_IoT_Agent_Tiny_SDK_Linux//lwm2m/core/discover.c ****         }
  91:/home/baikal/workspace/C50/Huawei_IoT_Agent_Tiny_SDK_Linux//lwm2m/core/discover.c ****         else if (objectParamP->toSet & LWM2M_ATTR_FLAG_MIN_PERIOD)
 202              		.loc 1 91 0
 203 0096 41F60601 		testb	$1, (%r14)
 204 009a 7458     		je	.L17
  92:/home/baikal/workspace/C50/Huawei_IoT_Agent_Tiny_SDK_Linux//lwm2m/core/discover.c ****         {
  93:/home/baikal/workspace/C50/Huawei_IoT_Agent_Tiny_SDK_Linux//lwm2m/core/discover.c ****             PRV_CONCAT_STR(buffer, bufferLen, head, LINK_ATTR_SEPARATOR, LINK_ATTR_SEPARATOR_SIZE);
 205              		.loc 1 93 0
 206 009c 4963C5   		movslq	%r13d, %rax
 207              	.LVL27:
 208 009f 4839C5   		cmpq	%rax, %rbp
 209 00a2 0F846B02 		je	.L28
 209      0000
 210              	.LVL28:
 211              	.LBB86:
 212              	.LBB87:
 213              		.loc 2 53 0 discriminator 2
 214 00a8 41C60404 		movb	$59, (%r12,%rax)
 214      3B
 215              	.LVL29:
 216              	.LBE87:
 217              	.LBE86:
 218              		.loc 1 93 0 discriminator 2
 219 00ad 418D4501 		leal	1(%r13), %eax
 220              	.LVL30:
  94:/home/baikal/workspace/C50/Huawei_IoT_Agent_Tiny_SDK_Linux//lwm2m/core/discover.c ****             PRV_CONCAT_STR(buffer, bufferLen, head, ATTR_MIN_PERIOD_STR, ATTR_MIN_PERIOD_LEN);
 221              		.loc 1 94 0 discriminator 2
 222 00b1 4898     		cltq
 223 00b3 4889EA   		movq	%rbp, %rdx
 224 00b6 4829C2   		subq	%rax, %rdx
 225 00b9 4883FA04 		cmpq	$4, %rdx
 226 00bd 0F865702 		jbe	.L29
 226      0000
 227 00c3 4C01E0   		addq	%r12, %rax
 228              	.LVL31:
 229              	.LBB88:
 230              	.LBB89:
 231              		.loc 2 53 0 discriminator 2
GAS LISTING /tmp/ccPMqhYv.s 			page 8


 232 00c6 C700706D 		movl	$1852403056, (%rax)
 232      696E
 233 00cc C640043D 		movb	$61, 4(%rax)
 234              	.LVL32:
 235              	.LBE89:
 236              	.LBE88:
 237              		.loc 1 94 0 discriminator 2
 238 00d0 458D7D06 		leal	6(%r13), %r15d
 239              	.LVL33:
  95:/home/baikal/workspace/C50/Huawei_IoT_Agent_Tiny_SDK_Linux//lwm2m/core/discover.c **** 
  96:/home/baikal/workspace/C50/Huawei_IoT_Agent_Tiny_SDK_Linux//lwm2m/core/discover.c ****             res = utils_intToText(objectParamP->minPeriod, buffer + head, bufferLen - head);
 240              		.loc 1 96 0 discriminator 2
 241 00d4 4963F7   		movslq	%r15d, %rsi
 242 00d7 4889EA   		movq	%rbp, %rdx
 243 00da 4829F2   		subq	%rsi, %rdx
 244 00dd 4C01E6   		addq	%r12, %rsi
 245 00e0 418B7E04 		movl	4(%r14), %edi
 246 00e4 E8000000 		call	utils_intToText
 246      00
 247              	.LVL34:
  97:/home/baikal/workspace/C50/Huawei_IoT_Agent_Tiny_SDK_Linux//lwm2m/core/discover.c ****             if (res <= 0) return -1;
 248              		.loc 1 97 0 discriminator 2
 249 00e9 85C0     		testl	%eax, %eax
 250 00eb 0F8E3002 		jle	.L30
 250      0000
  98:/home/baikal/workspace/C50/Huawei_IoT_Agent_Tiny_SDK_Linux//lwm2m/core/discover.c ****             head += res;
 251              		.loc 1 98 0
 252 00f1 4401F8   		addl	%r15d, %eax
 253              	.LVL35:
 254              	.L17:
  99:/home/baikal/workspace/C50/Huawei_IoT_Agent_Tiny_SDK_Linux//lwm2m/core/discover.c ****         }
 100:/home/baikal/workspace/C50/Huawei_IoT_Agent_Tiny_SDK_Linux//lwm2m/core/discover.c **** 
 101:/home/baikal/workspace/C50/Huawei_IoT_Agent_Tiny_SDK_Linux//lwm2m/core/discover.c ****         if (paramP->toSet & LWM2M_ATTR_FLAG_MAX_PERIOD)
 255              		.loc 1 101 0
 256 00f4 F60302   		testb	$2, (%rbx)
 257 00f7 7459     		je	.L18
 102:/home/baikal/workspace/C50/Huawei_IoT_Agent_Tiny_SDK_Linux//lwm2m/core/discover.c ****         {
 103:/home/baikal/workspace/C50/Huawei_IoT_Agent_Tiny_SDK_Linux//lwm2m/core/discover.c ****             PRV_CONCAT_STR(buffer, bufferLen, head, LINK_ATTR_SEPARATOR, LINK_ATTR_SEPARATOR_SIZE);
 258              		.loc 1 103 0
 259 00f9 4863D0   		movslq	%eax, %rdx
 260 00fc 4839D5   		cmpq	%rdx, %rbp
 261 00ff 0F842302 		je	.L31
 261      0000
 262              	.LVL36:
 263              	.LBB90:
 264              	.LBB91:
 265              		.loc 2 53 0 discriminator 2
 266 0105 41C60414 		movb	$59, (%r12,%rdx)
 266      3B
 267              	.LVL37:
 268              	.LBE91:
 269              	.LBE90:
 270              		.loc 1 103 0 discriminator 2
 271 010a 8D5001   		leal	1(%rax), %edx
 272              	.LVL38:
 104:/home/baikal/workspace/C50/Huawei_IoT_Agent_Tiny_SDK_Linux//lwm2m/core/discover.c ****             PRV_CONCAT_STR(buffer, bufferLen, head, ATTR_MAX_PERIOD_STR, ATTR_MAX_PERIOD_LEN);
 273              		.loc 1 104 0 discriminator 2
GAS LISTING /tmp/ccPMqhYv.s 			page 9


 274 010d 4863D2   		movslq	%edx, %rdx
 275 0110 4889E9   		movq	%rbp, %rcx
 276 0113 4829D1   		subq	%rdx, %rcx
 277 0116 4883F904 		cmpq	$4, %rcx
 278 011a 0F860F02 		jbe	.L32
 278      0000
 279 0120 4C01E2   		addq	%r12, %rdx
 280              	.LVL39:
 281              	.LBB92:
 282              	.LBB93:
 283              		.loc 2 53 0 discriminator 2
 284 0123 C702706D 		movl	$2019650928, (%rdx)
 284      6178
 285 0129 C642043D 		movb	$61, 4(%rdx)
 286              	.LVL40:
 287              	.LBE93:
 288              	.LBE92:
 289              		.loc 1 104 0 discriminator 2
 290 012d 448D7006 		leal	6(%rax), %r14d
 291              	.LVL41:
 105:/home/baikal/workspace/C50/Huawei_IoT_Agent_Tiny_SDK_Linux//lwm2m/core/discover.c **** 
 106:/home/baikal/workspace/C50/Huawei_IoT_Agent_Tiny_SDK_Linux//lwm2m/core/discover.c ****             res = utils_intToText(paramP->maxPeriod, buffer + head, bufferLen - head);
 292              		.loc 1 106 0 discriminator 2
 293 0131 4963F6   		movslq	%r14d, %rsi
 294 0134 4889EA   		movq	%rbp, %rdx
 295 0137 4829F2   		subq	%rsi, %rdx
 296 013a 4C01E6   		addq	%r12, %rsi
 297 013d 8B7B08   		movl	8(%rbx), %edi
 298 0140 E8000000 		call	utils_intToText
 298      00
 299              	.LVL42:
 107:/home/baikal/workspace/C50/Huawei_IoT_Agent_Tiny_SDK_Linux//lwm2m/core/discover.c ****             if (res <= 0) return -1;
 300              		.loc 1 107 0 discriminator 2
 301 0145 85C0     		testl	%eax, %eax
 302 0147 0F8EE901 		jle	.L33
 302      0000
 108:/home/baikal/workspace/C50/Huawei_IoT_Agent_Tiny_SDK_Linux//lwm2m/core/discover.c ****             head += res;
 303              		.loc 1 108 0
 304 014d 4401F0   		addl	%r14d, %eax
 305              	.LVL43:
 306 0150 EB5E     		jmp	.L19
 307              	.LVL44:
 308              	.L18:
 109:/home/baikal/workspace/C50/Huawei_IoT_Agent_Tiny_SDK_Linux//lwm2m/core/discover.c ****         }
 110:/home/baikal/workspace/C50/Huawei_IoT_Agent_Tiny_SDK_Linux//lwm2m/core/discover.c ****         else if (objectParamP->toSet & LWM2M_ATTR_FLAG_MAX_PERIOD)
 309              		.loc 1 110 0
 310 0152 41F60602 		testb	$2, (%r14)
 311 0156 7458     		je	.L19
 111:/home/baikal/workspace/C50/Huawei_IoT_Agent_Tiny_SDK_Linux//lwm2m/core/discover.c ****         {
 112:/home/baikal/workspace/C50/Huawei_IoT_Agent_Tiny_SDK_Linux//lwm2m/core/discover.c ****             PRV_CONCAT_STR(buffer, bufferLen, head, LINK_ATTR_SEPARATOR, LINK_ATTR_SEPARATOR_SIZE);
 312              		.loc 1 112 0
 313 0158 4863D0   		movslq	%eax, %rdx
 314 015b 4839D5   		cmpq	%rdx, %rbp
 315 015e 0F84D901 		je	.L34
 315      0000
 316              	.LVL45:
 317              	.LBB94:
GAS LISTING /tmp/ccPMqhYv.s 			page 10


 318              	.LBB95:
 319              		.loc 2 53 0 discriminator 2
 320 0164 41C60414 		movb	$59, (%r12,%rdx)
 320      3B
 321              	.LVL46:
 322              	.LBE95:
 323              	.LBE94:
 324              		.loc 1 112 0 discriminator 2
 325 0169 8D5001   		leal	1(%rax), %edx
 326              	.LVL47:
 113:/home/baikal/workspace/C50/Huawei_IoT_Agent_Tiny_SDK_Linux//lwm2m/core/discover.c ****             PRV_CONCAT_STR(buffer, bufferLen, head, ATTR_MAX_PERIOD_STR, ATTR_MAX_PERIOD_LEN);
 327              		.loc 1 113 0 discriminator 2
 328 016c 4863D2   		movslq	%edx, %rdx
 329 016f 4889E9   		movq	%rbp, %rcx
 330 0172 4829D1   		subq	%rdx, %rcx
 331 0175 4883F904 		cmpq	$4, %rcx
 332 0179 0F86C501 		jbe	.L35
 332      0000
 333 017f 4C01E2   		addq	%r12, %rdx
 334              	.LVL48:
 335              	.LBB96:
 336              	.LBB97:
 337              		.loc 2 53 0 discriminator 2
 338 0182 C702706D 		movl	$2019650928, (%rdx)
 338      6178
 339 0188 C642043D 		movb	$61, 4(%rdx)
 340              	.LVL49:
 341              	.LBE97:
 342              	.LBE96:
 343              		.loc 1 113 0 discriminator 2
 344 018c 448D7806 		leal	6(%rax), %r15d
 345              	.LVL50:
 114:/home/baikal/workspace/C50/Huawei_IoT_Agent_Tiny_SDK_Linux//lwm2m/core/discover.c **** 
 115:/home/baikal/workspace/C50/Huawei_IoT_Agent_Tiny_SDK_Linux//lwm2m/core/discover.c ****             res = utils_intToText(objectParamP->maxPeriod, buffer + head, bufferLen - head);
 346              		.loc 1 115 0 discriminator 2
 347 0190 4963F7   		movslq	%r15d, %rsi
 348 0193 4889EA   		movq	%rbp, %rdx
 349 0196 4829F2   		subq	%rsi, %rdx
 350 0199 4C01E6   		addq	%r12, %rsi
 351 019c 418B7E08 		movl	8(%r14), %edi
 352 01a0 E8000000 		call	utils_intToText
 352      00
 353              	.LVL51:
 116:/home/baikal/workspace/C50/Huawei_IoT_Agent_Tiny_SDK_Linux//lwm2m/core/discover.c ****             if (res <= 0) return -1;
 354              		.loc 1 116 0 discriminator 2
 355 01a5 85C0     		testl	%eax, %eax
 356 01a7 0F8E9E01 		jle	.L36
 356      0000
 117:/home/baikal/workspace/C50/Huawei_IoT_Agent_Tiny_SDK_Linux//lwm2m/core/discover.c ****             head += res;
 357              		.loc 1 117 0
 358 01ad 4401F8   		addl	%r15d, %eax
 359              	.LVL52:
 360              	.L19:
 118:/home/baikal/workspace/C50/Huawei_IoT_Agent_Tiny_SDK_Linux//lwm2m/core/discover.c ****         }
 119:/home/baikal/workspace/C50/Huawei_IoT_Agent_Tiny_SDK_Linux//lwm2m/core/discover.c **** 
 120:/home/baikal/workspace/C50/Huawei_IoT_Agent_Tiny_SDK_Linux//lwm2m/core/discover.c ****         if (paramP->toSet & LWM2M_ATTR_FLAG_GREATER_THAN)
 361              		.loc 1 120 0
GAS LISTING /tmp/ccPMqhYv.s 			page 11


 362 01b0 F60304   		testb	$4, (%rbx)
 363 01b3 7458     		je	.L20
 121:/home/baikal/workspace/C50/Huawei_IoT_Agent_Tiny_SDK_Linux//lwm2m/core/discover.c ****         {
 122:/home/baikal/workspace/C50/Huawei_IoT_Agent_Tiny_SDK_Linux//lwm2m/core/discover.c ****             PRV_CONCAT_STR(buffer, bufferLen, head, LINK_ATTR_SEPARATOR, LINK_ATTR_SEPARATOR_SIZE);
 364              		.loc 1 122 0
 365 01b5 4863D0   		movslq	%eax, %rdx
 366 01b8 4839D5   		cmpq	%rdx, %rbp
 367 01bb 0F849101 		je	.L37
 367      0000
 368              	.LVL53:
 369              	.LBB98:
 370              	.LBB99:
 371              		.loc 2 53 0 discriminator 2
 372 01c1 41C60414 		movb	$59, (%r12,%rdx)
 372      3B
 373              	.LVL54:
 374              	.LBE99:
 375              	.LBE98:
 376              		.loc 1 122 0 discriminator 2
 377 01c6 8D5001   		leal	1(%rax), %edx
 378              	.LVL55:
 123:/home/baikal/workspace/C50/Huawei_IoT_Agent_Tiny_SDK_Linux//lwm2m/core/discover.c ****             PRV_CONCAT_STR(buffer, bufferLen, head, ATTR_GREATER_THAN_STR, ATTR_GREATER_THAN_LEN);
 379              		.loc 1 123 0 discriminator 2
 380 01c9 4863D2   		movslq	%edx, %rdx
 381 01cc 4889E9   		movq	%rbp, %rcx
 382 01cf 4829D1   		subq	%rdx, %rcx
 383 01d2 4883F902 		cmpq	$2, %rcx
 384 01d6 0F867D01 		jbe	.L38
 384      0000
 385 01dc 4C01E2   		addq	%r12, %rdx
 386              	.LVL56:
 387              	.LBB100:
 388              	.LBB101:
 389              		.loc 2 53 0 discriminator 2
 390 01df 66C70267 		movw	$29799, (%rdx)
 390      74
 391 01e4 C642023D 		movb	$61, 2(%rdx)
 392              	.LVL57:
 393              	.LBE101:
 394              	.LBE100:
 395              		.loc 1 123 0 discriminator 2
 396 01e8 448D7004 		leal	4(%rax), %r14d
 397              	.LVL58:
 124:/home/baikal/workspace/C50/Huawei_IoT_Agent_Tiny_SDK_Linux//lwm2m/core/discover.c **** 
 125:/home/baikal/workspace/C50/Huawei_IoT_Agent_Tiny_SDK_Linux//lwm2m/core/discover.c ****             res = utils_floatToText(paramP->greaterThan, buffer + head, bufferLen - head);
 398              		.loc 1 125 0 discriminator 2
 399 01ec 4963FE   		movslq	%r14d, %rdi
 400 01ef 4889EE   		movq	%rbp, %rsi
 401 01f2 4829FE   		subq	%rdi, %rsi
 402 01f5 4C01E7   		addq	%r12, %rdi
 403 01f8 F20F1043 		movsd	16(%rbx), %xmm0
 403      10
 404 01fd E8000000 		call	utils_floatToText
 404      00
 405              	.LVL59:
 126:/home/baikal/workspace/C50/Huawei_IoT_Agent_Tiny_SDK_Linux//lwm2m/core/discover.c ****             if (res <= 0) return -1;
 406              		.loc 1 126 0 discriminator 2
GAS LISTING /tmp/ccPMqhYv.s 			page 12


 407 0202 85C0     		testl	%eax, %eax
 408 0204 0F8E5601 		jle	.L39
 408      0000
 127:/home/baikal/workspace/C50/Huawei_IoT_Agent_Tiny_SDK_Linux//lwm2m/core/discover.c ****             head += res;
 409              		.loc 1 127 0
 410 020a 4401F0   		addl	%r14d, %eax
 411              	.LVL60:
 412              	.L20:
 128:/home/baikal/workspace/C50/Huawei_IoT_Agent_Tiny_SDK_Linux//lwm2m/core/discover.c ****         }
 129:/home/baikal/workspace/C50/Huawei_IoT_Agent_Tiny_SDK_Linux//lwm2m/core/discover.c ****         if (paramP->toSet & LWM2M_ATTR_FLAG_LESS_THAN)
 413              		.loc 1 129 0
 414 020d F60308   		testb	$8, (%rbx)
 415 0210 7458     		je	.L21
 130:/home/baikal/workspace/C50/Huawei_IoT_Agent_Tiny_SDK_Linux//lwm2m/core/discover.c ****         {
 131:/home/baikal/workspace/C50/Huawei_IoT_Agent_Tiny_SDK_Linux//lwm2m/core/discover.c ****             PRV_CONCAT_STR(buffer, bufferLen, head, LINK_ATTR_SEPARATOR, LINK_ATTR_SEPARATOR_SIZE);
 416              		.loc 1 131 0
 417 0212 4863D0   		movslq	%eax, %rdx
 418 0215 4839D5   		cmpq	%rdx, %rbp
 419 0218 0F844901 		je	.L40
 419      0000
 420              	.LVL61:
 421              	.LBB102:
 422              	.LBB103:
 423              		.loc 2 53 0 discriminator 2
 424 021e 41C60414 		movb	$59, (%r12,%rdx)
 424      3B
 425              	.LVL62:
 426              	.LBE103:
 427              	.LBE102:
 428              		.loc 1 131 0 discriminator 2
 429 0223 8D5001   		leal	1(%rax), %edx
 430              	.LVL63:
 132:/home/baikal/workspace/C50/Huawei_IoT_Agent_Tiny_SDK_Linux//lwm2m/core/discover.c ****             PRV_CONCAT_STR(buffer, bufferLen, head, ATTR_LESS_THAN_STR, ATTR_LESS_THAN_LEN);
 431              		.loc 1 132 0 discriminator 2
 432 0226 4863D2   		movslq	%edx, %rdx
 433 0229 4889E9   		movq	%rbp, %rcx
 434 022c 4829D1   		subq	%rdx, %rcx
 435 022f 4883F902 		cmpq	$2, %rcx
 436 0233 0F863501 		jbe	.L41
 436      0000
 437 0239 4C01E2   		addq	%r12, %rdx
 438              	.LVL64:
 439              	.LBB104:
 440              	.LBB105:
 441              		.loc 2 53 0 discriminator 2
 442 023c 66C7026C 		movw	$29804, (%rdx)
 442      74
 443 0241 C642023D 		movb	$61, 2(%rdx)
 444              	.LVL65:
 445              	.LBE105:
 446              	.LBE104:
 447              		.loc 1 132 0 discriminator 2
 448 0245 448D7004 		leal	4(%rax), %r14d
 449              	.LVL66:
 133:/home/baikal/workspace/C50/Huawei_IoT_Agent_Tiny_SDK_Linux//lwm2m/core/discover.c **** 
 134:/home/baikal/workspace/C50/Huawei_IoT_Agent_Tiny_SDK_Linux//lwm2m/core/discover.c ****             res = utils_floatToText(paramP->lessThan, buffer + head, bufferLen - head);
 450              		.loc 1 134 0 discriminator 2
GAS LISTING /tmp/ccPMqhYv.s 			page 13


 451 0249 4963FE   		movslq	%r14d, %rdi
 452 024c 4889EE   		movq	%rbp, %rsi
 453 024f 4829FE   		subq	%rdi, %rsi
 454 0252 4C01E7   		addq	%r12, %rdi
 455 0255 F20F1043 		movsd	24(%rbx), %xmm0
 455      18
 456 025a E8000000 		call	utils_floatToText
 456      00
 457              	.LVL67:
 135:/home/baikal/workspace/C50/Huawei_IoT_Agent_Tiny_SDK_Linux//lwm2m/core/discover.c ****             if (res <= 0) return -1;
 458              		.loc 1 135 0 discriminator 2
 459 025f 85C0     		testl	%eax, %eax
 460 0261 0F8E0E01 		jle	.L42
 460      0000
 136:/home/baikal/workspace/C50/Huawei_IoT_Agent_Tiny_SDK_Linux//lwm2m/core/discover.c ****             head += res;
 461              		.loc 1 136 0
 462 0267 4401F0   		addl	%r14d, %eax
 463              	.LVL68:
 464              	.L21:
 137:/home/baikal/workspace/C50/Huawei_IoT_Agent_Tiny_SDK_Linux//lwm2m/core/discover.c ****         }
 138:/home/baikal/workspace/C50/Huawei_IoT_Agent_Tiny_SDK_Linux//lwm2m/core/discover.c ****         if (paramP->toSet & LWM2M_ATTR_FLAG_STEP)
 465              		.loc 1 138 0
 466 026a F60310   		testb	$16, (%rbx)
 467 026d 7458     		je	.L22
 139:/home/baikal/workspace/C50/Huawei_IoT_Agent_Tiny_SDK_Linux//lwm2m/core/discover.c ****         {
 140:/home/baikal/workspace/C50/Huawei_IoT_Agent_Tiny_SDK_Linux//lwm2m/core/discover.c ****             PRV_CONCAT_STR(buffer, bufferLen, head, LINK_ATTR_SEPARATOR, LINK_ATTR_SEPARATOR_SIZE);
 468              		.loc 1 140 0
 469 026f 4863D0   		movslq	%eax, %rdx
 470 0272 4839D5   		cmpq	%rdx, %rbp
 471 0275 0F840101 		je	.L43
 471      0000
 472              	.LVL69:
 473              	.LBB106:
 474              	.LBB107:
 475              		.loc 2 53 0 discriminator 2
 476 027b 41C60414 		movb	$59, (%r12,%rdx)
 476      3B
 477              	.LVL70:
 478              	.LBE107:
 479              	.LBE106:
 480              		.loc 1 140 0 discriminator 2
 481 0280 8D5001   		leal	1(%rax), %edx
 482              	.LVL71:
 141:/home/baikal/workspace/C50/Huawei_IoT_Agent_Tiny_SDK_Linux//lwm2m/core/discover.c ****             PRV_CONCAT_STR(buffer, bufferLen, head, ATTR_STEP_STR, ATTR_STEP_LEN);
 483              		.loc 1 141 0 discriminator 2
 484 0283 4863D2   		movslq	%edx, %rdx
 485 0286 4889E9   		movq	%rbp, %rcx
 486 0289 4829D1   		subq	%rdx, %rcx
 487 028c 4883F902 		cmpq	$2, %rcx
 488 0290 0F86ED00 		jbe	.L44
 488      0000
 489 0296 4C01E2   		addq	%r12, %rdx
 490              	.LVL72:
 491              	.LBB108:
 492              	.LBB109:
 493              		.loc 2 53 0 discriminator 2
 494 0299 66C70273 		movw	$29811, (%rdx)
GAS LISTING /tmp/ccPMqhYv.s 			page 14


 494      74
 495 029e C642023D 		movb	$61, 2(%rdx)
 496              	.LVL73:
 497              	.LBE109:
 498              	.LBE108:
 499              		.loc 1 141 0 discriminator 2
 500 02a2 448D7004 		leal	4(%rax), %r14d
 501              	.LVL74:
 142:/home/baikal/workspace/C50/Huawei_IoT_Agent_Tiny_SDK_Linux//lwm2m/core/discover.c **** 
 143:/home/baikal/workspace/C50/Huawei_IoT_Agent_Tiny_SDK_Linux//lwm2m/core/discover.c ****             res = utils_floatToText(paramP->step, buffer + head, bufferLen - head);
 502              		.loc 1 143 0 discriminator 2
 503 02a6 4963FE   		movslq	%r14d, %rdi
 504 02a9 4889EE   		movq	%rbp, %rsi
 505 02ac 4829FE   		subq	%rdi, %rsi
 506 02af 4C01E7   		addq	%r12, %rdi
 507 02b2 F20F1043 		movsd	32(%rbx), %xmm0
 507      20
 508 02b7 E8000000 		call	utils_floatToText
 508      00
 509              	.LVL75:
 144:/home/baikal/workspace/C50/Huawei_IoT_Agent_Tiny_SDK_Linux//lwm2m/core/discover.c ****             if (res <= 0) return -1;
 510              		.loc 1 144 0 discriminator 2
 511 02bc 85C0     		testl	%eax, %eax
 512 02be 0F8EC600 		jle	.L45
 512      0000
 145:/home/baikal/workspace/C50/Huawei_IoT_Agent_Tiny_SDK_Linux//lwm2m/core/discover.c ****             head += res;
 513              		.loc 1 145 0
 514 02c4 4401F0   		addl	%r14d, %eax
 515              	.LVL76:
 516              	.L22:
 146:/home/baikal/workspace/C50/Huawei_IoT_Agent_Tiny_SDK_Linux//lwm2m/core/discover.c ****         }
 147:/home/baikal/workspace/C50/Huawei_IoT_Agent_Tiny_SDK_Linux//lwm2m/core/discover.c ****         PRV_CONCAT_STR(buffer, bufferLen, head, LINK_ITEM_ATTR_END, LINK_ITEM_ATTR_END_SIZE);
 517              		.loc 1 147 0
 518 02c7 4863D0   		movslq	%eax, %rdx
 519 02ca 4839D5   		cmpq	%rdx, %rbp
 520 02cd 0F84BE00 		je	.L46
 520      0000
 521              	.LVL77:
 522              	.LBB110:
 523              	.LBB111:
 524              		.loc 2 53 0 discriminator 2
 525 02d3 41C60414 		movb	$44, (%r12,%rdx)
 525      2C
 526              	.LVL78:
 527              	.LBE111:
 528              	.LBE110:
 529              		.loc 1 147 0 discriminator 2
 530 02d8 83C001   		addl	$1, %eax
 531              	.LVL79:
 532 02db EB05     		jmp	.L14
 533              	.LVL80:
 534              	.L24:
  73:/home/baikal/workspace/C50/Huawei_IoT_Agent_Tiny_SDK_Linux//lwm2m/core/discover.c **** 
 535              		.loc 1 73 0
 536 02dd B8000000 		movl	$0, %eax
 536      00
 537              	.LVL81:
GAS LISTING /tmp/ccPMqhYv.s 			page 15


 538              	.L14:
 148:/home/baikal/workspace/C50/Huawei_IoT_Agent_Tiny_SDK_Linux//lwm2m/core/discover.c ****     }
 149:/home/baikal/workspace/C50/Huawei_IoT_Agent_Tiny_SDK_Linux//lwm2m/core/discover.c **** 
 150:/home/baikal/workspace/C50/Huawei_IoT_Agent_Tiny_SDK_Linux//lwm2m/core/discover.c ****     if (head > 0) head -= uriLen + 1;
 539              		.loc 1 150 0
 540 02e2 85C0     		testl	%eax, %eax
 541 02e4 0F8EAC00 		jle	.L16
 541      0000
 542              		.loc 1 150 0 is_stmt 0 discriminator 1
 543 02ea 4429E8   		subl	%r13d, %eax
 544              	.LVL82:
 545 02ed 83E801   		subl	$1, %eax
 546              	.LVL83:
 547 02f0 E9A10000 		jmp	.L16
 547      00
 548              	.LVL84:
 549              	.L25:
  84:/home/baikal/workspace/C50/Huawei_IoT_Agent_Tiny_SDK_Linux//lwm2m/core/discover.c ****             PRV_CONCAT_STR(buffer, bufferLen, head, ATTR_MIN_PERIOD_STR, ATTR_MIN_PERIOD_LEN);
 550              		.loc 1 84 0 is_stmt 1
 551 02f5 B8FFFFFF 		movl	$-1, %eax
 551      FF
 552 02fa E9970000 		jmp	.L16
 552      00
 553              	.LVL85:
 554              	.L26:
  85:/home/baikal/workspace/C50/Huawei_IoT_Agent_Tiny_SDK_Linux//lwm2m/core/discover.c **** 
 555              		.loc 1 85 0
 556 02ff B8FFFFFF 		movl	$-1, %eax
 556      FF
 557              	.LVL86:
 558 0304 E98D0000 		jmp	.L16
 558      00
 559              	.LVL87:
 560              	.L27:
  88:/home/baikal/workspace/C50/Huawei_IoT_Agent_Tiny_SDK_Linux//lwm2m/core/discover.c ****             head += res;
 561              		.loc 1 88 0
 562 0309 B8FFFFFF 		movl	$-1, %eax
 562      FF
 563              	.LVL88:
 564 030e E9830000 		jmp	.L16
 564      00
 565              	.LVL89:
 566              	.L28:
  93:/home/baikal/workspace/C50/Huawei_IoT_Agent_Tiny_SDK_Linux//lwm2m/core/discover.c ****             PRV_CONCAT_STR(buffer, bufferLen, head, ATTR_MIN_PERIOD_STR, ATTR_MIN_PERIOD_LEN);
 567              		.loc 1 93 0
 568 0313 B8FFFFFF 		movl	$-1, %eax
 568      FF
 569 0318 EB7C     		jmp	.L16
 570              	.LVL90:
 571              	.L29:
  94:/home/baikal/workspace/C50/Huawei_IoT_Agent_Tiny_SDK_Linux//lwm2m/core/discover.c **** 
 572              		.loc 1 94 0
 573 031a B8FFFFFF 		movl	$-1, %eax
 573      FF
 574              	.LVL91:
 575 031f EB75     		jmp	.L16
 576              	.LVL92:
GAS LISTING /tmp/ccPMqhYv.s 			page 16


 577              	.L30:
  97:/home/baikal/workspace/C50/Huawei_IoT_Agent_Tiny_SDK_Linux//lwm2m/core/discover.c ****             head += res;
 578              		.loc 1 97 0
 579 0321 B8FFFFFF 		movl	$-1, %eax
 579      FF
 580              	.LVL93:
 581 0326 EB6E     		jmp	.L16
 582              	.LVL94:
 583              	.L31:
 103:/home/baikal/workspace/C50/Huawei_IoT_Agent_Tiny_SDK_Linux//lwm2m/core/discover.c ****             PRV_CONCAT_STR(buffer, bufferLen, head, ATTR_MAX_PERIOD_STR, ATTR_MAX_PERIOD_LEN);
 584              		.loc 1 103 0
 585 0328 B8FFFFFF 		movl	$-1, %eax
 585      FF
 586              	.LVL95:
 587 032d EB67     		jmp	.L16
 588              	.L32:
 104:/home/baikal/workspace/C50/Huawei_IoT_Agent_Tiny_SDK_Linux//lwm2m/core/discover.c **** 
 589              		.loc 1 104 0
 590 032f B8FFFFFF 		movl	$-1, %eax
 590      FF
 591 0334 EB60     		jmp	.L16
 592              	.LVL96:
 593              	.L33:
 107:/home/baikal/workspace/C50/Huawei_IoT_Agent_Tiny_SDK_Linux//lwm2m/core/discover.c ****             head += res;
 594              		.loc 1 107 0
 595 0336 B8FFFFFF 		movl	$-1, %eax
 595      FF
 596              	.LVL97:
 597 033b EB59     		jmp	.L16
 598              	.LVL98:
 599              	.L34:
 112:/home/baikal/workspace/C50/Huawei_IoT_Agent_Tiny_SDK_Linux//lwm2m/core/discover.c ****             PRV_CONCAT_STR(buffer, bufferLen, head, ATTR_MAX_PERIOD_STR, ATTR_MAX_PERIOD_LEN);
 600              		.loc 1 112 0
 601 033d B8FFFFFF 		movl	$-1, %eax
 601      FF
 602              	.LVL99:
 603 0342 EB52     		jmp	.L16
 604              	.L35:
 113:/home/baikal/workspace/C50/Huawei_IoT_Agent_Tiny_SDK_Linux//lwm2m/core/discover.c **** 
 605              		.loc 1 113 0
 606 0344 B8FFFFFF 		movl	$-1, %eax
 606      FF
 607 0349 EB4B     		jmp	.L16
 608              	.LVL100:
 609              	.L36:
 116:/home/baikal/workspace/C50/Huawei_IoT_Agent_Tiny_SDK_Linux//lwm2m/core/discover.c ****             head += res;
 610              		.loc 1 116 0
 611 034b B8FFFFFF 		movl	$-1, %eax
 611      FF
 612              	.LVL101:
 613 0350 EB44     		jmp	.L16
 614              	.LVL102:
 615              	.L37:
 122:/home/baikal/workspace/C50/Huawei_IoT_Agent_Tiny_SDK_Linux//lwm2m/core/discover.c ****             PRV_CONCAT_STR(buffer, bufferLen, head, ATTR_GREATER_THAN_STR, ATTR_GREATER_THAN_LEN);
 616              		.loc 1 122 0
 617 0352 B8FFFFFF 		movl	$-1, %eax
 617      FF
GAS LISTING /tmp/ccPMqhYv.s 			page 17


 618              	.LVL103:
 619 0357 EB3D     		jmp	.L16
 620              	.L38:
 123:/home/baikal/workspace/C50/Huawei_IoT_Agent_Tiny_SDK_Linux//lwm2m/core/discover.c **** 
 621              		.loc 1 123 0
 622 0359 B8FFFFFF 		movl	$-1, %eax
 622      FF
 623 035e EB36     		jmp	.L16
 624              	.LVL104:
 625              	.L39:
 126:/home/baikal/workspace/C50/Huawei_IoT_Agent_Tiny_SDK_Linux//lwm2m/core/discover.c ****             head += res;
 626              		.loc 1 126 0
 627 0360 B8FFFFFF 		movl	$-1, %eax
 627      FF
 628              	.LVL105:
 629 0365 EB2F     		jmp	.L16
 630              	.LVL106:
 631              	.L40:
 131:/home/baikal/workspace/C50/Huawei_IoT_Agent_Tiny_SDK_Linux//lwm2m/core/discover.c ****             PRV_CONCAT_STR(buffer, bufferLen, head, ATTR_LESS_THAN_STR, ATTR_LESS_THAN_LEN);
 632              		.loc 1 131 0
 633 0367 B8FFFFFF 		movl	$-1, %eax
 633      FF
 634              	.LVL107:
 635 036c EB28     		jmp	.L16
 636              	.L41:
 132:/home/baikal/workspace/C50/Huawei_IoT_Agent_Tiny_SDK_Linux//lwm2m/core/discover.c **** 
 637              		.loc 1 132 0
 638 036e B8FFFFFF 		movl	$-1, %eax
 638      FF
 639 0373 EB21     		jmp	.L16
 640              	.LVL108:
 641              	.L42:
 135:/home/baikal/workspace/C50/Huawei_IoT_Agent_Tiny_SDK_Linux//lwm2m/core/discover.c ****             head += res;
 642              		.loc 1 135 0
 643 0375 B8FFFFFF 		movl	$-1, %eax
 643      FF
 644              	.LVL109:
 645 037a EB1A     		jmp	.L16
 646              	.LVL110:
 647              	.L43:
 140:/home/baikal/workspace/C50/Huawei_IoT_Agent_Tiny_SDK_Linux//lwm2m/core/discover.c ****             PRV_CONCAT_STR(buffer, bufferLen, head, ATTR_STEP_STR, ATTR_STEP_LEN);
 648              		.loc 1 140 0
 649 037c B8FFFFFF 		movl	$-1, %eax
 649      FF
 650              	.LVL111:
 651 0381 EB13     		jmp	.L16
 652              	.L44:
 141:/home/baikal/workspace/C50/Huawei_IoT_Agent_Tiny_SDK_Linux//lwm2m/core/discover.c **** 
 653              		.loc 1 141 0
 654 0383 B8FFFFFF 		movl	$-1, %eax
 654      FF
 655 0388 EB0C     		jmp	.L16
 656              	.LVL112:
 657              	.L45:
 144:/home/baikal/workspace/C50/Huawei_IoT_Agent_Tiny_SDK_Linux//lwm2m/core/discover.c ****             head += res;
 658              		.loc 1 144 0
 659 038a B8FFFFFF 		movl	$-1, %eax
GAS LISTING /tmp/ccPMqhYv.s 			page 18


 659      FF
 660              	.LVL113:
 661 038f EB05     		jmp	.L16
 662              	.LVL114:
 663              	.L46:
 147:/home/baikal/workspace/C50/Huawei_IoT_Agent_Tiny_SDK_Linux//lwm2m/core/discover.c ****     }
 664              		.loc 1 147 0
 665 0391 B8FFFFFF 		movl	$-1, %eax
 665      FF
 666              	.LVL115:
 667              	.L16:
 151:/home/baikal/workspace/C50/Huawei_IoT_Agent_Tiny_SDK_Linux//lwm2m/core/discover.c **** 
 152:/home/baikal/workspace/C50/Huawei_IoT_Agent_Tiny_SDK_Linux//lwm2m/core/discover.c ****     return head;
 153:/home/baikal/workspace/C50/Huawei_IoT_Agent_Tiny_SDK_Linux//lwm2m/core/discover.c **** }
 668              		.loc 1 153 0
 669 0396 4883C408 		addq	$8, %rsp
 670              	.LCFI11:
 671              		.cfi_def_cfa_offset 56
 672 039a 5B       		popq	%rbx
 673              	.LCFI12:
 674              		.cfi_def_cfa_offset 48
 675              	.LVL116:
 676 039b 5D       		popq	%rbp
 677              	.LCFI13:
 678              		.cfi_def_cfa_offset 40
 679 039c 415C     		popq	%r12
 680              	.LCFI14:
 681              		.cfi_def_cfa_offset 32
 682              	.LVL117:
 683 039e 415D     		popq	%r13
 684              	.LCFI15:
 685              		.cfi_def_cfa_offset 24
 686              	.LVL118:
 687 03a0 415E     		popq	%r14
 688              	.LCFI16:
 689              		.cfi_def_cfa_offset 16
 690 03a2 415F     		popq	%r15
 691              	.LCFI17:
 692              		.cfi_def_cfa_offset 8
 693 03a4 C3       		ret
 694              		.cfi_endproc
 695              	.LFE64:
 697              		.section	.text.prv_serializeLinkData,"ax",@progbits
 699              	prv_serializeLinkData:
 700              	.LFB65:
 154:/home/baikal/workspace/C50/Huawei_IoT_Agent_Tiny_SDK_Linux//lwm2m/core/discover.c **** 
 155:/home/baikal/workspace/C50/Huawei_IoT_Agent_Tiny_SDK_Linux//lwm2m/core/discover.c **** static int prv_serializeLinkData(lwm2m_context_t *contextP,
 156:/home/baikal/workspace/C50/Huawei_IoT_Agent_Tiny_SDK_Linux//lwm2m/core/discover.c ****                                  lwm2m_data_t *tlvP,
 157:/home/baikal/workspace/C50/Huawei_IoT_Agent_Tiny_SDK_Linux//lwm2m/core/discover.c ****                                  lwm2m_server_t *serverP,
 158:/home/baikal/workspace/C50/Huawei_IoT_Agent_Tiny_SDK_Linux//lwm2m/core/discover.c ****                                  lwm2m_attributes_t *objectParamP,
 159:/home/baikal/workspace/C50/Huawei_IoT_Agent_Tiny_SDK_Linux//lwm2m/core/discover.c ****                                  lwm2m_uri_t *parentUriP,
 160:/home/baikal/workspace/C50/Huawei_IoT_Agent_Tiny_SDK_Linux//lwm2m/core/discover.c ****                                  uint8_t *parentUriStr,
 161:/home/baikal/workspace/C50/Huawei_IoT_Agent_Tiny_SDK_Linux//lwm2m/core/discover.c ****                                  size_t parentUriLen,
 162:/home/baikal/workspace/C50/Huawei_IoT_Agent_Tiny_SDK_Linux//lwm2m/core/discover.c ****                                  uint8_t *buffer,
 163:/home/baikal/workspace/C50/Huawei_IoT_Agent_Tiny_SDK_Linux//lwm2m/core/discover.c ****                                  size_t bufferLen)
 164:/home/baikal/workspace/C50/Huawei_IoT_Agent_Tiny_SDK_Linux//lwm2m/core/discover.c **** {
 701              		.loc 1 164 0
GAS LISTING /tmp/ccPMqhYv.s 			page 19


 702              		.cfi_startproc
 703              	.LVL119:
 704 0000 4157     		pushq	%r15
 705              	.LCFI18:
 706              		.cfi_def_cfa_offset 16
 707              		.cfi_offset 15, -16
 708 0002 4156     		pushq	%r14
 709              	.LCFI19:
 710              		.cfi_def_cfa_offset 24
 711              		.cfi_offset 14, -24
 712 0004 4155     		pushq	%r13
 713              	.LCFI20:
 714              		.cfi_def_cfa_offset 32
 715              		.cfi_offset 13, -32
 716 0006 4154     		pushq	%r12
 717              	.LCFI21:
 718              		.cfi_def_cfa_offset 40
 719              		.cfi_offset 12, -40
 720 0008 55       		pushq	%rbp
 721              	.LCFI22:
 722              		.cfi_def_cfa_offset 48
 723              		.cfi_offset 6, -48
 724 0009 53       		pushq	%rbx
 725              	.LCFI23:
 726              		.cfi_def_cfa_offset 56
 727              		.cfi_offset 3, -56
 728 000a 4883EC58 		subq	$88, %rsp
 729              	.LCFI24:
 730              		.cfi_def_cfa_offset 144
 731 000e 48897C24 		movq	%rdi, 16(%rsp)
 731      10
 732 0013 4989F4   		movq	%rsi, %r12
 733 0016 48895424 		movq	%rdx, 8(%rsp)
 733      08
 734 001b 48894C24 		movq	%rcx, 24(%rsp)
 734      18
 735 0020 4C89C3   		movq	%r8, %rbx
 736 0023 4C8BBC24 		movq	144(%rsp), %r15
 736      90000000 
 737 002b 4C8BB424 		movq	152(%rsp), %r14
 737      98000000 
 738 0033 4C8BAC24 		movq	160(%rsp), %r13
 738      A0000000 
 739              	.LVL120:
 165:/home/baikal/workspace/C50/Huawei_IoT_Agent_Tiny_SDK_Linux//lwm2m/core/discover.c ****     int head;
 166:/home/baikal/workspace/C50/Huawei_IoT_Agent_Tiny_SDK_Linux//lwm2m/core/discover.c ****     int res;
 167:/home/baikal/workspace/C50/Huawei_IoT_Agent_Tiny_SDK_Linux//lwm2m/core/discover.c ****     lwm2m_uri_t uri;
 168:/home/baikal/workspace/C50/Huawei_IoT_Agent_Tiny_SDK_Linux//lwm2m/core/discover.c **** 
 169:/home/baikal/workspace/C50/Huawei_IoT_Agent_Tiny_SDK_Linux//lwm2m/core/discover.c ****     head = 0;
 170:/home/baikal/workspace/C50/Huawei_IoT_Agent_Tiny_SDK_Linux//lwm2m/core/discover.c **** 
 171:/home/baikal/workspace/C50/Huawei_IoT_Agent_Tiny_SDK_Linux//lwm2m/core/discover.c ****     switch (tlvP->type)
 740              		.loc 1 171 0
 741 003b 8B06     		movl	(%rsi), %eax
 742 003d 83F802   		cmpl	$2, %eax
 743 0040 0F846D01 		je	.L51
 743      0000
 744 0046 83F802   		cmpl	$2, %eax
GAS LISTING /tmp/ccPMqhYv.s 			page 20


 745 0049 7709     		ja	.L52
 746 004b 85C0     		testl	%eax, %eax
 747 004d 740E     		je	.L53
 748 004f E9D50200 		jmp	.L62
 748      00
 749              	.L52:
 750 0054 83F809   		cmpl	$9, %eax
 751 0057 0F87CC02 		ja	.L62
 751      0000
 752              	.L53:
 172:/home/baikal/workspace/C50/Huawei_IoT_Agent_Tiny_SDK_Linux//lwm2m/core/discover.c ****     {
 173:/home/baikal/workspace/C50/Huawei_IoT_Agent_Tiny_SDK_Linux//lwm2m/core/discover.c ****     case LWM2M_TYPE_UNDEFINED:
 174:/home/baikal/workspace/C50/Huawei_IoT_Agent_Tiny_SDK_Linux//lwm2m/core/discover.c ****     case LWM2M_TYPE_STRING:
 175:/home/baikal/workspace/C50/Huawei_IoT_Agent_Tiny_SDK_Linux//lwm2m/core/discover.c ****     case LWM2M_TYPE_OPAQUE:
 176:/home/baikal/workspace/C50/Huawei_IoT_Agent_Tiny_SDK_Linux//lwm2m/core/discover.c ****     case LWM2M_TYPE_INTEGER:
 177:/home/baikal/workspace/C50/Huawei_IoT_Agent_Tiny_SDK_Linux//lwm2m/core/discover.c ****     case LWM2M_TYPE_FLOAT:
 178:/home/baikal/workspace/C50/Huawei_IoT_Agent_Tiny_SDK_Linux//lwm2m/core/discover.c ****     case LWM2M_TYPE_BOOLEAN:
 179:/home/baikal/workspace/C50/Huawei_IoT_Agent_Tiny_SDK_Linux//lwm2m/core/discover.c ****     case LWM2M_TYPE_OBJECT_LINK:
 180:/home/baikal/workspace/C50/Huawei_IoT_Agent_Tiny_SDK_Linux//lwm2m/core/discover.c ****     case LWM2M_TYPE_MULTIPLE_RESOURCE:
 181:/home/baikal/workspace/C50/Huawei_IoT_Agent_Tiny_SDK_Linux//lwm2m/core/discover.c ****         if (bufferLen < LINK_ITEM_START_SIZE) return -1;
 753              		.loc 1 181 0
 754 005d 4D85ED   		testq	%r13, %r13
 755 0060 0F84CA02 		je	.L63
 755      0000
 756              	.LVL121:
 757              	.LBB112:
 758              	.LBB113:
 759              		.loc 2 53 0
 760 0066 41C6063C 		movb	$60, (%r14)
 761              	.LVL122:
 762              	.LBE113:
 763              	.LBE112:
 182:/home/baikal/workspace/C50/Huawei_IoT_Agent_Tiny_SDK_Linux//lwm2m/core/discover.c ****         memcpy(buffer + head, LINK_ITEM_START, LINK_ITEM_START_SIZE);
 183:/home/baikal/workspace/C50/Huawei_IoT_Agent_Tiny_SDK_Linux//lwm2m/core/discover.c ****         head = LINK_ITEM_START_SIZE;
 184:/home/baikal/workspace/C50/Huawei_IoT_Agent_Tiny_SDK_Linux//lwm2m/core/discover.c **** 
 185:/home/baikal/workspace/C50/Huawei_IoT_Agent_Tiny_SDK_Linux//lwm2m/core/discover.c ****         if (parentUriLen > 0)
 764              		.loc 1 185 0
 765 006a 4D85FF   		testq	%r15, %r15
 766 006d 7422     		je	.L64
 186:/home/baikal/workspace/C50/Huawei_IoT_Agent_Tiny_SDK_Linux//lwm2m/core/discover.c ****         {
 187:/home/baikal/workspace/C50/Huawei_IoT_Agent_Tiny_SDK_Linux//lwm2m/core/discover.c ****             if (bufferLen - head < parentUriLen) return -1;
 767              		.loc 1 187 0
 768 006f 498D45FF 		leaq	-1(%r13), %rax
 769 0073 4939C7   		cmpq	%rax, %r15
 770 0076 0F87BB02 		ja	.L65
 770      0000
 188:/home/baikal/workspace/C50/Huawei_IoT_Agent_Tiny_SDK_Linux//lwm2m/core/discover.c ****             memcpy(buffer + head, parentUriStr, parentUriLen);
 771              		.loc 1 188 0
 772 007c 498D7E01 		leaq	1(%r14), %rdi
 773              	.LVL123:
 774              	.LBB114:
 775              	.LBB115:
 776              		.loc 2 53 0
 777 0080 4C89FA   		movq	%r15, %rdx
 778              	.LVL124:
 779 0083 4C89CE   		movq	%r9, %rsi
 780              	.LVL125:
GAS LISTING /tmp/ccPMqhYv.s 			page 21


 781 0086 E8000000 		call	memcpy
 781      00
 782              	.LVL126:
 783              	.LBE115:
 784              	.LBE114:
 189:/home/baikal/workspace/C50/Huawei_IoT_Agent_Tiny_SDK_Linux//lwm2m/core/discover.c ****             head += parentUriLen;
 785              		.loc 1 189 0
 786 008b 4183C701 		addl	$1, %r15d
 787              	.LVL127:
 788 008f EB06     		jmp	.L54
 789              	.LVL128:
 790              	.L64:
 183:/home/baikal/workspace/C50/Huawei_IoT_Agent_Tiny_SDK_Linux//lwm2m/core/discover.c **** 
 791              		.loc 1 183 0
 792 0091 41BF0100 		movl	$1, %r15d
 792      0000
 793              	.LVL129:
 794              	.L54:
 190:/home/baikal/workspace/C50/Huawei_IoT_Agent_Tiny_SDK_Linux//lwm2m/core/discover.c ****         }
 191:/home/baikal/workspace/C50/Huawei_IoT_Agent_Tiny_SDK_Linux//lwm2m/core/discover.c **** 
 192:/home/baikal/workspace/C50/Huawei_IoT_Agent_Tiny_SDK_Linux//lwm2m/core/discover.c ****         if (bufferLen - head < LINK_URI_SEPARATOR_SIZE) return -1;
 795              		.loc 1 192 0
 796 0097 4963C7   		movslq	%r15d, %rax
 797 009a 4939C5   		cmpq	%rax, %r13
 798 009d 0F849B02 		je	.L66
 798      0000
 799              	.LVL130:
 800              	.LBB116:
 801              	.LBB117:
 802              		.loc 2 53 0
 803 00a3 41C60406 		movb	$47, (%r14,%rax)
 803      2F
 804              	.LVL131:
 805              	.LBE117:
 806              	.LBE116:
 193:/home/baikal/workspace/C50/Huawei_IoT_Agent_Tiny_SDK_Linux//lwm2m/core/discover.c ****         memcpy(buffer + head, LINK_URI_SEPARATOR, LINK_URI_SEPARATOR_SIZE);
 194:/home/baikal/workspace/C50/Huawei_IoT_Agent_Tiny_SDK_Linux//lwm2m/core/discover.c ****         head += LINK_URI_SEPARATOR_SIZE;
 807              		.loc 1 194 0
 808 00a8 4183C701 		addl	$1, %r15d
 809              	.LVL132:
 195:/home/baikal/workspace/C50/Huawei_IoT_Agent_Tiny_SDK_Linux//lwm2m/core/discover.c **** 
 196:/home/baikal/workspace/C50/Huawei_IoT_Agent_Tiny_SDK_Linux//lwm2m/core/discover.c ****         res = utils_intToText(tlvP->id, buffer + head, bufferLen - head);
 810              		.loc 1 196 0
 811 00ac 4963F7   		movslq	%r15d, %rsi
 812 00af 4C89EA   		movq	%r13, %rdx
 813 00b2 4829F2   		subq	%rsi, %rdx
 814 00b5 4C01F6   		addq	%r14, %rsi
 815 00b8 410FB77C 		movzwl	4(%r12), %edi
 815      2404
 816 00be E8000000 		call	utils_intToText
 816      00
 817              	.LVL133:
 197:/home/baikal/workspace/C50/Huawei_IoT_Agent_Tiny_SDK_Linux//lwm2m/core/discover.c ****         if (res <= 0) return -1;
 818              		.loc 1 197 0
 819 00c3 85C0     		testl	%eax, %eax
 820 00c5 0F8E7A02 		jle	.L67
 820      0000
GAS LISTING /tmp/ccPMqhYv.s 			page 22


 198:/home/baikal/workspace/C50/Huawei_IoT_Agent_Tiny_SDK_Linux//lwm2m/core/discover.c ****         head += res;
 821              		.loc 1 198 0
 822 00cb 418D2C07 		leal	(%r15,%rax), %ebp
 823              	.LVL134:
 199:/home/baikal/workspace/C50/Huawei_IoT_Agent_Tiny_SDK_Linux//lwm2m/core/discover.c **** 
 200:/home/baikal/workspace/C50/Huawei_IoT_Agent_Tiny_SDK_Linux//lwm2m/core/discover.c ****         if (tlvP->type == LWM2M_TYPE_MULTIPLE_RESOURCE)
 824              		.loc 1 200 0
 825 00cf 41833C24 		cmpl	$3, (%r12)
 825      03
 826 00d4 755B     		jne	.L55
 201:/home/baikal/workspace/C50/Huawei_IoT_Agent_Tiny_SDK_Linux//lwm2m/core/discover.c ****         {
 202:/home/baikal/workspace/C50/Huawei_IoT_Agent_Tiny_SDK_Linux//lwm2m/core/discover.c ****             if (bufferLen - head < LINK_ITEM_DIM_START_SIZE) return -1;
 827              		.loc 1 202 0
 828 00d6 4863C5   		movslq	%ebp, %rax
 829              	.LVL135:
 830 00d9 4C89EA   		movq	%r13, %rdx
 831 00dc 4829C2   		subq	%rax, %rdx
 832 00df 4883FA05 		cmpq	$5, %rdx
 833 00e3 0F866302 		jbe	.L68
 833      0000
 203:/home/baikal/workspace/C50/Huawei_IoT_Agent_Tiny_SDK_Linux//lwm2m/core/discover.c ****             memcpy(buffer + head, LINK_ITEM_DIM_START, LINK_ITEM_DIM_START_SIZE);
 834              		.loc 1 203 0
 835 00e9 4C01F0   		addq	%r14, %rax
 836              	.LVL136:
 837              	.LBB118:
 838              	.LBB119:
 839              		.loc 2 53 0
 840 00ec C7003E3B 		movl	$1768176446, (%rax)
 840      6469
 841 00f2 66C74004 		movw	$15725, 4(%rax)
 841      6D3D
 842              	.LVL137:
 843              	.LBE119:
 844              	.LBE118:
 204:/home/baikal/workspace/C50/Huawei_IoT_Agent_Tiny_SDK_Linux//lwm2m/core/discover.c ****             head += LINK_ITEM_DIM_START_SIZE;
 845              		.loc 1 204 0
 846 00f8 83C506   		addl	$6, %ebp
 847              	.LVL138:
 205:/home/baikal/workspace/C50/Huawei_IoT_Agent_Tiny_SDK_Linux//lwm2m/core/discover.c **** 
 206:/home/baikal/workspace/C50/Huawei_IoT_Agent_Tiny_SDK_Linux//lwm2m/core/discover.c ****             res = utils_intToText(tlvP->value.asChildren.count, buffer + head, bufferLen - head);
 848              		.loc 1 206 0
 849 00fb 4863F5   		movslq	%ebp, %rsi
 850 00fe 498B7C24 		movq	8(%r12), %rdi
 850      08
 851 0103 4C89EA   		movq	%r13, %rdx
 852 0106 4829F2   		subq	%rsi, %rdx
 853 0109 4C01F6   		addq	%r14, %rsi
 854 010c E8000000 		call	utils_intToText
 854      00
 855              	.LVL139:
 207:/home/baikal/workspace/C50/Huawei_IoT_Agent_Tiny_SDK_Linux//lwm2m/core/discover.c ****             if (res <= 0) return -1;
 856              		.loc 1 207 0
 857 0111 85C0     		testl	%eax, %eax
 858 0113 0F8E3A02 		jle	.L69
 858      0000
 208:/home/baikal/workspace/C50/Huawei_IoT_Agent_Tiny_SDK_Linux//lwm2m/core/discover.c ****             head += res;
 859              		.loc 1 208 0
GAS LISTING /tmp/ccPMqhYv.s 			page 23


 860 0119 01C5     		addl	%eax, %ebp
 861              	.LVL140:
 209:/home/baikal/workspace/C50/Huawei_IoT_Agent_Tiny_SDK_Linux//lwm2m/core/discover.c **** 
 210:/home/baikal/workspace/C50/Huawei_IoT_Agent_Tiny_SDK_Linux//lwm2m/core/discover.c ****             if (bufferLen - head < LINK_ITEM_ATTR_END_SIZE) return -1;
 862              		.loc 1 210 0
 863 011b 4863C5   		movslq	%ebp, %rax
 864              	.LVL141:
 865 011e 4939C5   		cmpq	%rax, %r13
 866 0121 0F843302 		je	.L70
 866      0000
 867              	.LVL142:
 868              	.LBB120:
 869              	.LBB121:
 870              		.loc 2 53 0
 871 0127 41C60406 		movb	$44, (%r14,%rax)
 871      2C
 872              	.LVL143:
 873              	.LBE121:
 874              	.LBE120:
 211:/home/baikal/workspace/C50/Huawei_IoT_Agent_Tiny_SDK_Linux//lwm2m/core/discover.c ****             memcpy(buffer + head, LINK_ITEM_ATTR_END, LINK_ITEM_ATTR_END_SIZE);
 212:/home/baikal/workspace/C50/Huawei_IoT_Agent_Tiny_SDK_Linux//lwm2m/core/discover.c ****             head += LINK_ITEM_ATTR_END_SIZE;
 875              		.loc 1 212 0
 876 012c 83C501   		addl	$1, %ebp
 877              	.LVL144:
 878 012f EB1D     		jmp	.L56
 879              	.LVL145:
 880              	.L55:
 213:/home/baikal/workspace/C50/Huawei_IoT_Agent_Tiny_SDK_Linux//lwm2m/core/discover.c ****         }
 214:/home/baikal/workspace/C50/Huawei_IoT_Agent_Tiny_SDK_Linux//lwm2m/core/discover.c ****         else
 215:/home/baikal/workspace/C50/Huawei_IoT_Agent_Tiny_SDK_Linux//lwm2m/core/discover.c ****         {
 216:/home/baikal/workspace/C50/Huawei_IoT_Agent_Tiny_SDK_Linux//lwm2m/core/discover.c ****             if (bufferLen - head < LINK_ITEM_END_SIZE) return -1;
 881              		.loc 1 216 0
 882 0131 4863C5   		movslq	%ebp, %rax
 883              	.LVL146:
 884 0134 4C89EA   		movq	%r13, %rdx
 885 0137 4829C2   		subq	%rax, %rdx
 886 013a 4883FA01 		cmpq	$1, %rdx
 887 013e 0F861D02 		jbe	.L71
 887      0000
 888              	.LVL147:
 889              	.LBB122:
 890              	.LBB123:
 891              		.loc 2 53 0
 892 0144 6641C704 		movw	$11326, (%r14,%rax)
 892      063E2C
 893              	.LVL148:
 894              	.LBE123:
 895              	.LBE122:
 217:/home/baikal/workspace/C50/Huawei_IoT_Agent_Tiny_SDK_Linux//lwm2m/core/discover.c ****             memcpy(buffer + head, LINK_ITEM_END, LINK_ITEM_END_SIZE);
 218:/home/baikal/workspace/C50/Huawei_IoT_Agent_Tiny_SDK_Linux//lwm2m/core/discover.c ****             head += LINK_ITEM_END_SIZE;
 896              		.loc 1 218 0
 897 014b 83C502   		addl	$2, %ebp
 898              	.LVL149:
 899              	.L56:
 219:/home/baikal/workspace/C50/Huawei_IoT_Agent_Tiny_SDK_Linux//lwm2m/core/discover.c ****         }
 220:/home/baikal/workspace/C50/Huawei_IoT_Agent_Tiny_SDK_Linux//lwm2m/core/discover.c **** 
 221:/home/baikal/workspace/C50/Huawei_IoT_Agent_Tiny_SDK_Linux//lwm2m/core/discover.c ****         if (serverP != NULL)
GAS LISTING /tmp/ccPMqhYv.s 			page 24


 900              		.loc 1 221 0
 901 014e 488B5424 		movq	8(%rsp), %rdx
 901      08
 902 0153 4885D2   		testq	%rdx, %rdx
 903 0156 0F840C02 		je	.L72
 903      0000
 904              	.LVL150:
 905 015c 488B03   		movq	(%rbx), %rax
 906 015f 48894424 		movq	%rax, 64(%rsp)
 906      40
 907              	.LVL151:
 222:/home/baikal/workspace/C50/Huawei_IoT_Agent_Tiny_SDK_Linux//lwm2m/core/discover.c ****         {
 223:/home/baikal/workspace/C50/Huawei_IoT_Agent_Tiny_SDK_Linux//lwm2m/core/discover.c ****             memcpy(&uri, parentUriP, sizeof(lwm2m_uri_t));
 224:/home/baikal/workspace/C50/Huawei_IoT_Agent_Tiny_SDK_Linux//lwm2m/core/discover.c ****             uri.resourceId = tlvP->id;
 908              		.loc 1 224 0
 909 0164 410FB744 		movzwl	4(%r12), %eax
 909      2404
 910 016a 66894424 		movw	%ax, 70(%rsp)
 910      46
 225:/home/baikal/workspace/C50/Huawei_IoT_Agent_Tiny_SDK_Linux//lwm2m/core/discover.c ****             uri.flag |= LWM2M_URI_FLAG_RESOURCE_ID;
 911              		.loc 1 225 0
 912 016f 804C2440 		orb	$1, 64(%rsp)
 912      01
 226:/home/baikal/workspace/C50/Huawei_IoT_Agent_Tiny_SDK_Linux//lwm2m/core/discover.c ****             res = prv_serializeAttributes(contextP, &uri, serverP, objectParamP, buffer, head - 1, 
 913              		.loc 1 226 0
 914 0174 448D4DFF 		leal	-1(%rbp), %r9d
 915 0178 4883EC08 		subq	$8, %rsp
 916              	.LCFI25:
 917              		.cfi_def_cfa_offset 152
 918 017c 4155     		pushq	%r13
 919              	.LCFI26:
 920              		.cfi_def_cfa_offset 160
 921 017e 4D63C9   		movslq	%r9d, %r9
 922 0181 4D89F0   		movq	%r14, %r8
 923 0184 488B4C24 		movq	40(%rsp), %rcx
 923      28
 924 0189 488D7424 		leaq	80(%rsp), %rsi
 924      50
 925 018e 488B7C24 		movq	32(%rsp), %rdi
 925      20
 926 0193 E8000000 		call	prv_serializeAttributes
 926      00
 927              	.LVL152:
 227:/home/baikal/workspace/C50/Huawei_IoT_Agent_Tiny_SDK_Linux//lwm2m/core/discover.c ****             if (res < 0) return -1;    // careful, 0 is valid
 928              		.loc 1 227 0
 929 0198 4883C410 		addq	$16, %rsp
 930              	.LCFI27:
 931              		.cfi_def_cfa_offset 144
 932 019c 85C0     		testl	%eax, %eax
 933 019e 0F88C801 		js	.L73
 933      0000
 228:/home/baikal/workspace/C50/Huawei_IoT_Agent_Tiny_SDK_Linux//lwm2m/core/discover.c ****             if (res > 0) head += res;
 934              		.loc 1 228 0
 935 01a4 85C0     		testl	%eax, %eax
 936 01a6 0F8EC701 		jle	.L74
 936      0000
 937              	.LVL153:
GAS LISTING /tmp/ccPMqhYv.s 			page 25


 938              		.loc 1 228 0 is_stmt 0 discriminator 1
 939 01ac 01E8     		addl	%ebp, %eax
 940              	.LVL154:
 941 01ae E9C20100 		jmp	.L50
 941      00
 942              	.LVL155:
 943              	.L51:
 944              	.LBB124:
 229:/home/baikal/workspace/C50/Huawei_IoT_Agent_Tiny_SDK_Linux//lwm2m/core/discover.c ****         }
 230:/home/baikal/workspace/C50/Huawei_IoT_Agent_Tiny_SDK_Linux//lwm2m/core/discover.c ****         break;
 231:/home/baikal/workspace/C50/Huawei_IoT_Agent_Tiny_SDK_Linux//lwm2m/core/discover.c **** 
 232:/home/baikal/workspace/C50/Huawei_IoT_Agent_Tiny_SDK_Linux//lwm2m/core/discover.c ****     case LWM2M_TYPE_OBJECT_INSTANCE:
 233:/home/baikal/workspace/C50/Huawei_IoT_Agent_Tiny_SDK_Linux//lwm2m/core/discover.c ****     {
 234:/home/baikal/workspace/C50/Huawei_IoT_Agent_Tiny_SDK_Linux//lwm2m/core/discover.c ****         uint8_t uriStr[URI_MAX_STRING_LEN];
 235:/home/baikal/workspace/C50/Huawei_IoT_Agent_Tiny_SDK_Linux//lwm2m/core/discover.c ****         size_t uriLen;
 236:/home/baikal/workspace/C50/Huawei_IoT_Agent_Tiny_SDK_Linux//lwm2m/core/discover.c ****         size_t index;
 237:/home/baikal/workspace/C50/Huawei_IoT_Agent_Tiny_SDK_Linux//lwm2m/core/discover.c **** 
 238:/home/baikal/workspace/C50/Huawei_IoT_Agent_Tiny_SDK_Linux//lwm2m/core/discover.c ****         if (parentUriLen > 0)
 945              		.loc 1 238 0 is_stmt 1
 946 01b3 4D85FF   		testq	%r15, %r15
 947 01b6 741F     		je	.L57
 239:/home/baikal/workspace/C50/Huawei_IoT_Agent_Tiny_SDK_Linux//lwm2m/core/discover.c ****         {
 240:/home/baikal/workspace/C50/Huawei_IoT_Agent_Tiny_SDK_Linux//lwm2m/core/discover.c ****             if (URI_MAX_STRING_LEN < parentUriLen) return -1;
 948              		.loc 1 240 0
 949 01b8 4983FF12 		cmpq	$18, %r15
 950 01bc 0F876001 		ja	.L58
 950      0000
 951              	.LVL156:
 952              	.LBB125:
 953              	.LBB126:
 954              		.loc 2 53 0
 955 01c2 B9120000 		movl	$18, %ecx
 955      00
 956              	.LVL157:
 957 01c7 4C89FA   		movq	%r15, %rdx
 958              	.LVL158:
 959 01ca 4C89CE   		movq	%r9, %rsi
 960              	.LVL159:
 961 01cd 488D7C24 		leaq	32(%rsp), %rdi
 961      20
 962              	.LVL160:
 963 01d2 E8000000 		call	__memcpy_chk
 963      00
 964              	.LVL161:
 965              	.L57:
 966              	.LBE126:
 967              	.LBE125:
 241:/home/baikal/workspace/C50/Huawei_IoT_Agent_Tiny_SDK_Linux//lwm2m/core/discover.c ****             memcpy(uriStr, parentUriStr, parentUriLen);
 242:/home/baikal/workspace/C50/Huawei_IoT_Agent_Tiny_SDK_Linux//lwm2m/core/discover.c ****             uriLen = parentUriLen;
 243:/home/baikal/workspace/C50/Huawei_IoT_Agent_Tiny_SDK_Linux//lwm2m/core/discover.c ****         }
 244:/home/baikal/workspace/C50/Huawei_IoT_Agent_Tiny_SDK_Linux//lwm2m/core/discover.c ****         else
 245:/home/baikal/workspace/C50/Huawei_IoT_Agent_Tiny_SDK_Linux//lwm2m/core/discover.c ****         {
 246:/home/baikal/workspace/C50/Huawei_IoT_Agent_Tiny_SDK_Linux//lwm2m/core/discover.c ****             uriLen = 0;
 247:/home/baikal/workspace/C50/Huawei_IoT_Agent_Tiny_SDK_Linux//lwm2m/core/discover.c ****         }
 248:/home/baikal/workspace/C50/Huawei_IoT_Agent_Tiny_SDK_Linux//lwm2m/core/discover.c **** 
 249:/home/baikal/workspace/C50/Huawei_IoT_Agent_Tiny_SDK_Linux//lwm2m/core/discover.c ****         if (URI_MAX_STRING_LEN - uriLen < LINK_URI_SEPARATOR_SIZE) return -1;
 968              		.loc 1 249 0
GAS LISTING /tmp/ccPMqhYv.s 			page 26


 969 01d7 4983FF12 		cmpq	$18, %r15
 970 01db 0F844101 		je	.L58
 970      0000
 971              	.LVL162:
 972              	.LBB127:
 973              	.LBB128:
 974              		.loc 2 53 0
 975 01e1 42C6443C 		movb	$47, 32(%rsp,%r15)
 975      202F
 976              	.LVL163:
 977              	.LBE128:
 978              	.LBE127:
 250:/home/baikal/workspace/C50/Huawei_IoT_Agent_Tiny_SDK_Linux//lwm2m/core/discover.c ****         memcpy(uriStr + uriLen, LINK_URI_SEPARATOR, LINK_URI_SEPARATOR_SIZE);
 251:/home/baikal/workspace/C50/Huawei_IoT_Agent_Tiny_SDK_Linux//lwm2m/core/discover.c ****         uriLen += LINK_URI_SEPARATOR_SIZE;
 979              		.loc 1 251 0
 980 01e7 4983C701 		addq	$1, %r15
 981              	.LVL164:
 252:/home/baikal/workspace/C50/Huawei_IoT_Agent_Tiny_SDK_Linux//lwm2m/core/discover.c **** 
 253:/home/baikal/workspace/C50/Huawei_IoT_Agent_Tiny_SDK_Linux//lwm2m/core/discover.c ****         res = utils_intToText(tlvP->id, uriStr + uriLen, URI_MAX_STRING_LEN - uriLen);
 982              		.loc 1 253 0
 983 01eb BA120000 		movl	$18, %edx
 983      00
 984 01f0 4C29FA   		subq	%r15, %rdx
 985 01f3 488D4424 		leaq	32(%rsp), %rax
 985      20
 986 01f8 4A8D3438 		leaq	(%rax,%r15), %rsi
 987 01fc 410FB77C 		movzwl	4(%r12), %edi
 987      2404
 988 0202 E8000000 		call	utils_intToText
 988      00
 989              	.LVL165:
 254:/home/baikal/workspace/C50/Huawei_IoT_Agent_Tiny_SDK_Linux//lwm2m/core/discover.c ****         if (res <= 0) return -1;
 990              		.loc 1 254 0
 991 0207 85C0     		testl	%eax, %eax
 992 0209 0F8E1301 		jle	.L58
 992      0000
 255:/home/baikal/workspace/C50/Huawei_IoT_Agent_Tiny_SDK_Linux//lwm2m/core/discover.c ****         uriLen += res;
 993              		.loc 1 255 0
 994 020f 4898     		cltq
 995 0211 4901C7   		addq	%rax, %r15
 996              	.LVL166:
 997 0214 488B03   		movq	(%rbx), %rax
 998              	.LVL167:
 999 0217 48894424 		movq	%rax, 64(%rsp)
 999      40
 1000              	.LVL168:
 256:/home/baikal/workspace/C50/Huawei_IoT_Agent_Tiny_SDK_Linux//lwm2m/core/discover.c **** 
 257:/home/baikal/workspace/C50/Huawei_IoT_Agent_Tiny_SDK_Linux//lwm2m/core/discover.c ****         memcpy(&uri, parentUriP, sizeof(lwm2m_uri_t));
 258:/home/baikal/workspace/C50/Huawei_IoT_Agent_Tiny_SDK_Linux//lwm2m/core/discover.c ****         uri.instanceId = tlvP->id;
 1001              		.loc 1 258 0
 1002 021c 410FB744 		movzwl	4(%r12), %eax
 1002      2404
 1003 0222 66894424 		movw	%ax, 68(%rsp)
 1003      44
 259:/home/baikal/workspace/C50/Huawei_IoT_Agent_Tiny_SDK_Linux//lwm2m/core/discover.c ****         uri.flag |= LWM2M_URI_FLAG_INSTANCE_ID;
 1004              		.loc 1 259 0
 1005 0227 804C2440 		orb	$2, 64(%rsp)
GAS LISTING /tmp/ccPMqhYv.s 			page 27


 1005      02
 260:/home/baikal/workspace/C50/Huawei_IoT_Agent_Tiny_SDK_Linux//lwm2m/core/discover.c **** 
 261:/home/baikal/workspace/C50/Huawei_IoT_Agent_Tiny_SDK_Linux//lwm2m/core/discover.c ****         head = 0;
 262:/home/baikal/workspace/C50/Huawei_IoT_Agent_Tiny_SDK_Linux//lwm2m/core/discover.c ****         PRV_CONCAT_STR(buffer, bufferLen, head, LINK_ITEM_START, LINK_ITEM_START_SIZE);
 1006              		.loc 1 262 0
 1007 022c 4D85ED   		testq	%r13, %r13
 1008 022f 0F84ED00 		je	.L58
 1008      0000
 1009              	.LVL169:
 1010              	.LBB129:
 1011              	.LBB130:
 1012              		.loc 2 53 0 discriminator 2
 1013 0235 41C6063C 		movb	$60, (%r14)
 1014              	.LVL170:
 1015              	.LBE130:
 1016              	.LBE129:
 263:/home/baikal/workspace/C50/Huawei_IoT_Agent_Tiny_SDK_Linux//lwm2m/core/discover.c ****         PRV_CONCAT_STR(buffer, bufferLen, head, uriStr, uriLen);
 1017              		.loc 1 263 0 discriminator 2
 1018 0239 498D45FF 		leaq	-1(%r13), %rax
 1019 023d 4939C7   		cmpq	%rax, %r15
 1020 0240 0F87DC00 		ja	.L58
 1020      0000
 1021 0246 498D7E01 		leaq	1(%r14), %rdi
 1022              	.LVL171:
 1023              	.LBB131:
 1024              	.LBB132:
 1025              		.loc 2 53 0 discriminator 2
 1026 024a 4C89FA   		movq	%r15, %rdx
 1027 024d 488D7424 		leaq	32(%rsp), %rsi
 1027      20
 1028              	.LVL172:
 1029 0252 E8000000 		call	memcpy
 1029      00
 1030              	.LVL173:
 1031              	.LBE132:
 1032              	.LBE131:
 1033              		.loc 1 263 0 discriminator 2
 1034 0257 458D4F01 		leal	1(%r15), %r9d
 1035              	.LVL174:
 264:/home/baikal/workspace/C50/Huawei_IoT_Agent_Tiny_SDK_Linux//lwm2m/core/discover.c ****         PRV_CONCAT_STR(buffer, bufferLen, head, LINK_ITEM_END, LINK_ITEM_END_SIZE);
 1036              		.loc 1 264 0 discriminator 2
 1037 025b 4963C1   		movslq	%r9d, %rax
 1038 025e 4C89EA   		movq	%r13, %rdx
 1039 0261 4829C2   		subq	%rax, %rdx
 1040 0264 4883FA01 		cmpq	$1, %rdx
 1041 0268 0F86B400 		jbe	.L58
 1041      0000
 1042              	.LVL175:
 1043              	.LBB133:
 1044              	.LBB134:
 1045              		.loc 2 53 0 discriminator 2
 1046 026e 6641C704 		movw	$11326, (%r14,%rax)
 1046      063E2C
 1047              	.LVL176:
 1048              	.LBE134:
 1049              	.LBE133:
 1050              		.loc 1 264 0 discriminator 2
GAS LISTING /tmp/ccPMqhYv.s 			page 28


 1051 0275 418D6902 		leal	2(%r9), %ebp
 1052              	.LVL177:
 265:/home/baikal/workspace/C50/Huawei_IoT_Agent_Tiny_SDK_Linux//lwm2m/core/discover.c ****         if (serverP != NULL)
 1053              		.loc 1 265 0 discriminator 2
 1054 0279 488B4424 		movq	8(%rsp), %rax
 1054      08
 1055 027e 4885C0   		testq	%rax, %rax
 1056 0281 743C     		je	.L59
 266:/home/baikal/workspace/C50/Huawei_IoT_Agent_Tiny_SDK_Linux//lwm2m/core/discover.c ****         {
 267:/home/baikal/workspace/C50/Huawei_IoT_Agent_Tiny_SDK_Linux//lwm2m/core/discover.c ****             res = prv_serializeAttributes(contextP, &uri, serverP, NULL, buffer, head - 1, bufferLe
 1057              		.loc 1 267 0
 1058 0283 4183C101 		addl	$1, %r9d
 1059 0287 4883EC08 		subq	$8, %rsp
 1060              	.LCFI28:
 1061              		.cfi_def_cfa_offset 152
 1062 028b 4155     		pushq	%r13
 1063              	.LCFI29:
 1064              		.cfi_def_cfa_offset 160
 1065 028d 4D63C9   		movslq	%r9d, %r9
 1066 0290 4D89F0   		movq	%r14, %r8
 1067 0293 B9000000 		movl	$0, %ecx
 1067      00
 1068 0298 4889C2   		movq	%rax, %rdx
 1069 029b 488D7424 		leaq	80(%rsp), %rsi
 1069      50
 1070 02a0 488B7C24 		movq	32(%rsp), %rdi
 1070      20
 1071 02a5 E8000000 		call	prv_serializeAttributes
 1071      00
 1072              	.LVL178:
 268:/home/baikal/workspace/C50/Huawei_IoT_Agent_Tiny_SDK_Linux//lwm2m/core/discover.c ****             if (res < 0) return -1;    // careful, 0 is valid
 1073              		.loc 1 268 0
 1074 02aa 4883C410 		addq	$16, %rsp
 1075              	.LCFI30:
 1076              		.cfi_def_cfa_offset 144
 1077 02ae 85C0     		testl	%eax, %eax
 1078 02b0 7870     		js	.L58
 269:/home/baikal/workspace/C50/Huawei_IoT_Agent_Tiny_SDK_Linux//lwm2m/core/discover.c ****             if (res == 0) head = 0;    // rewind
 1079              		.loc 1 269 0
 1080 02b2 85C0     		testl	%eax, %eax
 1081 02b4 7404     		je	.L75
 270:/home/baikal/workspace/C50/Huawei_IoT_Agent_Tiny_SDK_Linux//lwm2m/core/discover.c ****             else head += res;
 1082              		.loc 1 270 0
 1083 02b6 01C5     		addl	%eax, %ebp
 1084              	.LVL179:
 1085 02b8 EB05     		jmp	.L59
 1086              	.L75:
 269:/home/baikal/workspace/C50/Huawei_IoT_Agent_Tiny_SDK_Linux//lwm2m/core/discover.c ****             if (res == 0) head = 0;    // rewind
 1087              		.loc 1 269 0
 1088 02ba BD000000 		movl	$0, %ebp
 1088      00
 1089              	.LVL180:
 1090              	.L59:
 269:/home/baikal/workspace/C50/Huawei_IoT_Agent_Tiny_SDK_Linux//lwm2m/core/discover.c ****             if (res == 0) head = 0;    // rewind
 1091              		.loc 1 269 0 is_stmt 0 discriminator 1
 1092 02bf BB000000 		movl	$0, %ebx
 1092      00
GAS LISTING /tmp/ccPMqhYv.s 			page 29


 1093              	.LVL181:
 1094 02c4 EB51     		jmp	.L60
 1095              	.LVL182:
 1096              	.L61:
 271:/home/baikal/workspace/C50/Huawei_IoT_Agent_Tiny_SDK_Linux//lwm2m/core/discover.c ****         }
 272:/home/baikal/workspace/C50/Huawei_IoT_Agent_Tiny_SDK_Linux//lwm2m/core/discover.c ****         for (index = 0; index < tlvP->value.asChildren.count; index++)
 273:/home/baikal/workspace/C50/Huawei_IoT_Agent_Tiny_SDK_Linux//lwm2m/core/discover.c ****         {
 274:/home/baikal/workspace/C50/Huawei_IoT_Agent_Tiny_SDK_Linux//lwm2m/core/discover.c ****             res = prv_serializeLinkData(contextP, tlvP->value.asChildren.array + index, serverP, ob
 1097              		.loc 1 274 0 is_stmt 1
 1098 02c6 4863C5   		movslq	%ebp, %rax
 1099 02c9 4C89E9   		movq	%r13, %rcx
 1100 02cc 4829C1   		subq	%rax, %rcx
 1101 02cf 4C01F0   		addq	%r14, %rax
 1102 02d2 488D145B 		leaq	(%rbx,%rbx,2), %rdx
 1103 02d6 488D34D5 		leaq	0(,%rdx,8), %rsi
 1103      00000000 
 1104 02de 49037424 		addq	16(%r12), %rsi
 1104      10
 1105 02e3 4883EC08 		subq	$8, %rsp
 1106              	.LCFI31:
 1107              		.cfi_def_cfa_offset 152
 1108 02e7 51       		pushq	%rcx
 1109              	.LCFI32:
 1110              		.cfi_def_cfa_offset 160
 1111 02e8 50       		pushq	%rax
 1112              	.LCFI33:
 1113              		.cfi_def_cfa_offset 168
 1114 02e9 4157     		pushq	%r15
 1115              	.LCFI34:
 1116              		.cfi_def_cfa_offset 176
 1117 02eb 4C8D4C24 		leaq	64(%rsp), %r9
 1117      40
 1118 02f0 4C8D4424 		leaq	96(%rsp), %r8
 1118      60
 1119 02f5 488B4C24 		movq	56(%rsp), %rcx
 1119      38
 1120 02fa 488B5424 		movq	40(%rsp), %rdx
 1120      28
 1121 02ff 488B7C24 		movq	48(%rsp), %rdi
 1121      30
 1122 0304 E8F7FCFF 		call	prv_serializeLinkData
 1122      FF
 1123              	.LVL183:
 275:/home/baikal/workspace/C50/Huawei_IoT_Agent_Tiny_SDK_Linux//lwm2m/core/discover.c ****             if (res < 0) return -1;
 1124              		.loc 1 275 0
 1125 0309 4883C420 		addq	$32, %rsp
 1126              	.LCFI35:
 1127              		.cfi_def_cfa_offset 144
 1128 030d 85C0     		testl	%eax, %eax
 1129 030f 7811     		js	.L58
 276:/home/baikal/workspace/C50/Huawei_IoT_Agent_Tiny_SDK_Linux//lwm2m/core/discover.c ****             head += res;
 1130              		.loc 1 276 0 discriminator 2
 1131 0311 01C5     		addl	%eax, %ebp
 1132              	.LVL184:
 272:/home/baikal/workspace/C50/Huawei_IoT_Agent_Tiny_SDK_Linux//lwm2m/core/discover.c ****         {
 1133              		.loc 1 272 0 discriminator 2
 1134 0313 4883C301 		addq	$1, %rbx
GAS LISTING /tmp/ccPMqhYv.s 			page 30


 1135              	.LVL185:
 1136              	.L60:
 272:/home/baikal/workspace/C50/Huawei_IoT_Agent_Tiny_SDK_Linux//lwm2m/core/discover.c ****         {
 1137              		.loc 1 272 0 is_stmt 0 discriminator 1
 1138 0317 493B5C24 		cmpq	8(%r12), %rbx
 1138      08
 1139 031c 72A8     		jb	.L61
 1140              	.LBE124:
 277:/home/baikal/workspace/C50/Huawei_IoT_Agent_Tiny_SDK_Linux//lwm2m/core/discover.c ****         }
 278:/home/baikal/workspace/C50/Huawei_IoT_Agent_Tiny_SDK_Linux//lwm2m/core/discover.c ****     }
 279:/home/baikal/workspace/C50/Huawei_IoT_Agent_Tiny_SDK_Linux//lwm2m/core/discover.c ****     break;
 1141              		.loc 1 279 0 is_stmt 1
 1142 031e 89E8     		movl	%ebp, %eax
 1143 0320 EB53     		jmp	.L50
 1144              	.LVL186:
 1145              	.L58:
 1146              	.LBB135:
 240:/home/baikal/workspace/C50/Huawei_IoT_Agent_Tiny_SDK_Linux//lwm2m/core/discover.c ****             memcpy(uriStr, parentUriStr, parentUriLen);
 1147              		.loc 1 240 0 discriminator 2
 1148 0322 B8FFFFFF 		movl	$-1, %eax
 1148      FF
 1149 0327 EB4C     		jmp	.L50
 1150              	.LVL187:
 1151              	.L62:
 1152              	.LBE135:
 280:/home/baikal/workspace/C50/Huawei_IoT_Agent_Tiny_SDK_Linux//lwm2m/core/discover.c **** 
 281:/home/baikal/workspace/C50/Huawei_IoT_Agent_Tiny_SDK_Linux//lwm2m/core/discover.c ****     case LWM2M_TYPE_OBJECT:
 282:/home/baikal/workspace/C50/Huawei_IoT_Agent_Tiny_SDK_Linux//lwm2m/core/discover.c ****     default:
 283:/home/baikal/workspace/C50/Huawei_IoT_Agent_Tiny_SDK_Linux//lwm2m/core/discover.c ****         return -1;
 1153              		.loc 1 283 0
 1154 0329 B8FFFFFF 		movl	$-1, %eax
 1154      FF
 1155 032e EB45     		jmp	.L50
 1156              	.L63:
 181:/home/baikal/workspace/C50/Huawei_IoT_Agent_Tiny_SDK_Linux//lwm2m/core/discover.c ****         memcpy(buffer + head, LINK_ITEM_START, LINK_ITEM_START_SIZE);
 1157              		.loc 1 181 0
 1158 0330 B8FFFFFF 		movl	$-1, %eax
 1158      FF
 1159 0335 EB3E     		jmp	.L50
 1160              	.LVL188:
 1161              	.L65:
 187:/home/baikal/workspace/C50/Huawei_IoT_Agent_Tiny_SDK_Linux//lwm2m/core/discover.c ****             memcpy(buffer + head, parentUriStr, parentUriLen);
 1162              		.loc 1 187 0
 1163 0337 B8FFFFFF 		movl	$-1, %eax
 1163      FF
 1164 033c EB37     		jmp	.L50
 1165              	.LVL189:
 1166              	.L66:
 192:/home/baikal/workspace/C50/Huawei_IoT_Agent_Tiny_SDK_Linux//lwm2m/core/discover.c ****         memcpy(buffer + head, LINK_URI_SEPARATOR, LINK_URI_SEPARATOR_SIZE);
 1167              		.loc 1 192 0
 1168 033e B8FFFFFF 		movl	$-1, %eax
 1168      FF
 1169 0343 EB30     		jmp	.L50
 1170              	.LVL190:
 1171              	.L67:
 197:/home/baikal/workspace/C50/Huawei_IoT_Agent_Tiny_SDK_Linux//lwm2m/core/discover.c ****         head += res;
 1172              		.loc 1 197 0
GAS LISTING /tmp/ccPMqhYv.s 			page 31


 1173 0345 B8FFFFFF 		movl	$-1, %eax
 1173      FF
 1174              	.LVL191:
 1175 034a EB29     		jmp	.L50
 1176              	.LVL192:
 1177              	.L68:
 202:/home/baikal/workspace/C50/Huawei_IoT_Agent_Tiny_SDK_Linux//lwm2m/core/discover.c ****             memcpy(buffer + head, LINK_ITEM_DIM_START, LINK_ITEM_DIM_START_SIZE);
 1178              		.loc 1 202 0
 1179 034c B8FFFFFF 		movl	$-1, %eax
 1179      FF
 1180 0351 EB22     		jmp	.L50
 1181              	.LVL193:
 1182              	.L69:
 207:/home/baikal/workspace/C50/Huawei_IoT_Agent_Tiny_SDK_Linux//lwm2m/core/discover.c ****             head += res;
 1183              		.loc 1 207 0
 1184 0353 B8FFFFFF 		movl	$-1, %eax
 1184      FF
 1185              	.LVL194:
 1186 0358 EB1B     		jmp	.L50
 1187              	.L70:
 210:/home/baikal/workspace/C50/Huawei_IoT_Agent_Tiny_SDK_Linux//lwm2m/core/discover.c ****             memcpy(buffer + head, LINK_ITEM_ATTR_END, LINK_ITEM_ATTR_END_SIZE);
 1188              		.loc 1 210 0
 1189 035a B8FFFFFF 		movl	$-1, %eax
 1189      FF
 1190 035f EB14     		jmp	.L50
 1191              	.L71:
 216:/home/baikal/workspace/C50/Huawei_IoT_Agent_Tiny_SDK_Linux//lwm2m/core/discover.c ****             memcpy(buffer + head, LINK_ITEM_END, LINK_ITEM_END_SIZE);
 1192              		.loc 1 216 0
 1193 0361 B8FFFFFF 		movl	$-1, %eax
 1193      FF
 1194 0366 EB0D     		jmp	.L50
 1195              	.L72:
 1196 0368 89E8     		movl	%ebp, %eax
 1197 036a EB09     		jmp	.L50
 1198              	.LVL195:
 1199              	.L73:
 227:/home/baikal/workspace/C50/Huawei_IoT_Agent_Tiny_SDK_Linux//lwm2m/core/discover.c ****             if (res > 0) head += res;
 1200              		.loc 1 227 0
 1201 036c B8FFFFFF 		movl	$-1, %eax
 1201      FF
 1202              	.LVL196:
 1203 0371 EB02     		jmp	.L50
 1204              	.LVL197:
 1205              	.L74:
 1206 0373 89E8     		movl	%ebp, %eax
 1207              	.LVL198:
 1208              	.L50:
 284:/home/baikal/workspace/C50/Huawei_IoT_Agent_Tiny_SDK_Linux//lwm2m/core/discover.c ****     }
 285:/home/baikal/workspace/C50/Huawei_IoT_Agent_Tiny_SDK_Linux//lwm2m/core/discover.c **** 
 286:/home/baikal/workspace/C50/Huawei_IoT_Agent_Tiny_SDK_Linux//lwm2m/core/discover.c ****     return head;
 287:/home/baikal/workspace/C50/Huawei_IoT_Agent_Tiny_SDK_Linux//lwm2m/core/discover.c **** }
 1209              		.loc 1 287 0
 1210 0375 4883C458 		addq	$88, %rsp
 1211              	.LCFI36:
 1212              		.cfi_def_cfa_offset 56
 1213 0379 5B       		popq	%rbx
 1214              	.LCFI37:
GAS LISTING /tmp/ccPMqhYv.s 			page 32


 1215              		.cfi_def_cfa_offset 48
 1216 037a 5D       		popq	%rbp
 1217              	.LCFI38:
 1218              		.cfi_def_cfa_offset 40
 1219 037b 415C     		popq	%r12
 1220              	.LCFI39:
 1221              		.cfi_def_cfa_offset 32
 1222              	.LVL199:
 1223 037d 415D     		popq	%r13
 1224              	.LCFI40:
 1225              		.cfi_def_cfa_offset 24
 1226 037f 415E     		popq	%r14
 1227              	.LCFI41:
 1228              		.cfi_def_cfa_offset 16
 1229 0381 415F     		popq	%r15
 1230              	.LCFI42:
 1231              		.cfi_def_cfa_offset 8
 1232 0383 C3       		ret
 1233              		.cfi_endproc
 1234              	.LFE65:
 1236              		.section	.text.discover_serialize,"ax",@progbits
 1237              		.globl	discover_serialize
 1239              	discover_serialize:
 1240              	.LFB66:
 288:/home/baikal/workspace/C50/Huawei_IoT_Agent_Tiny_SDK_Linux//lwm2m/core/discover.c **** 
 289:/home/baikal/workspace/C50/Huawei_IoT_Agent_Tiny_SDK_Linux//lwm2m/core/discover.c **** int discover_serialize(lwm2m_context_t *contextP,
 290:/home/baikal/workspace/C50/Huawei_IoT_Agent_Tiny_SDK_Linux//lwm2m/core/discover.c ****                        lwm2m_uri_t *uriP,
 291:/home/baikal/workspace/C50/Huawei_IoT_Agent_Tiny_SDK_Linux//lwm2m/core/discover.c ****                        lwm2m_server_t *serverP,
 292:/home/baikal/workspace/C50/Huawei_IoT_Agent_Tiny_SDK_Linux//lwm2m/core/discover.c ****                        int size,
 293:/home/baikal/workspace/C50/Huawei_IoT_Agent_Tiny_SDK_Linux//lwm2m/core/discover.c ****                        lwm2m_data_t *dataP,
 294:/home/baikal/workspace/C50/Huawei_IoT_Agent_Tiny_SDK_Linux//lwm2m/core/discover.c ****                        uint8_t **bufferP)
 295:/home/baikal/workspace/C50/Huawei_IoT_Agent_Tiny_SDK_Linux//lwm2m/core/discover.c **** {
 1241              		.loc 1 295 0
 1242              		.cfi_startproc
 1243              	.LVL200:
 1244 0000 4157     		pushq	%r15
 1245              	.LCFI43:
 1246              		.cfi_def_cfa_offset 16
 1247              		.cfi_offset 15, -16
 1248 0002 4156     		pushq	%r14
 1249              	.LCFI44:
 1250              		.cfi_def_cfa_offset 24
 1251              		.cfi_offset 14, -24
 1252 0004 4155     		pushq	%r13
 1253              	.LCFI45:
 1254              		.cfi_def_cfa_offset 32
 1255              		.cfi_offset 13, -32
 1256 0006 4154     		pushq	%r12
 1257              	.LCFI46:
 1258              		.cfi_def_cfa_offset 40
 1259              		.cfi_offset 12, -40
 1260 0008 55       		pushq	%rbp
 1261              	.LCFI47:
 1262              		.cfi_def_cfa_offset 48
 1263              		.cfi_offset 6, -48
 1264 0009 53       		pushq	%rbx
 1265              	.LCFI48:
GAS LISTING /tmp/ccPMqhYv.s 			page 33


 1266              		.cfi_def_cfa_offset 56
 1267              		.cfi_offset 3, -56
 1268 000a 4881EC98 		subq	$1176, %rsp
 1268      040000
 1269              	.LCFI49:
 1270              		.cfi_def_cfa_offset 1232
 1271 0011 4989FF   		movq	%rdi, %r15
 1272 0014 4989F4   		movq	%rsi, %r12
 1273 0017 4989D5   		movq	%rdx, %r13
 1274 001a 894C2410 		movl	%ecx, 16(%rsp)
 1275 001e 4C894424 		movq	%r8, 8(%rsp)
 1275      08
 1276 0023 4C894C24 		movq	%r9, 24(%rsp)
 1276      18
 1277              	.LVL201:
 1278              	.LBB136:
 1279              	.LBB137:
  54:/usr/include/x86_64-linux-gnu/bits/string3.h **** }
  55:/usr/include/x86_64-linux-gnu/bits/string3.h **** 
  56:/usr/include/x86_64-linux-gnu/bits/string3.h **** __fortify_function void *
  57:/usr/include/x86_64-linux-gnu/bits/string3.h **** __NTH (memmove (void *__dest, const void *__src, size_t __len))
  58:/usr/include/x86_64-linux-gnu/bits/string3.h **** {
  59:/usr/include/x86_64-linux-gnu/bits/string3.h ****   return __builtin___memmove_chk (__dest, __src, __len, __bos0 (__dest));
  60:/usr/include/x86_64-linux-gnu/bits/string3.h **** }
  61:/usr/include/x86_64-linux-gnu/bits/string3.h **** 
  62:/usr/include/x86_64-linux-gnu/bits/string3.h **** #ifdef __USE_GNU
  63:/usr/include/x86_64-linux-gnu/bits/string3.h **** __fortify_function void *
  64:/usr/include/x86_64-linux-gnu/bits/string3.h **** __NTH (mempcpy (void *__restrict __dest, const void *__restrict __src,
  65:/usr/include/x86_64-linux-gnu/bits/string3.h **** 		size_t __len))
  66:/usr/include/x86_64-linux-gnu/bits/string3.h **** {
  67:/usr/include/x86_64-linux-gnu/bits/string3.h ****   return __builtin___mempcpy_chk (__dest, __src, __len, __bos0 (__dest));
  68:/usr/include/x86_64-linux-gnu/bits/string3.h **** }
  69:/usr/include/x86_64-linux-gnu/bits/string3.h **** #endif
  70:/usr/include/x86_64-linux-gnu/bits/string3.h **** 
  71:/usr/include/x86_64-linux-gnu/bits/string3.h **** 
  72:/usr/include/x86_64-linux-gnu/bits/string3.h **** /* The first two tests here help to catch a somewhat common problem
  73:/usr/include/x86_64-linux-gnu/bits/string3.h ****    where the second and third parameter are transposed.  This is
  74:/usr/include/x86_64-linux-gnu/bits/string3.h ****    especially problematic if the intended fill value is zero.  In this
  75:/usr/include/x86_64-linux-gnu/bits/string3.h ****    case no work is done at all.  We detect these problems by referring
  76:/usr/include/x86_64-linux-gnu/bits/string3.h ****    non-existing functions.  */
  77:/usr/include/x86_64-linux-gnu/bits/string3.h **** __fortify_function void *
  78:/usr/include/x86_64-linux-gnu/bits/string3.h **** __NTH (memset (void *__dest, int __ch, size_t __len))
  79:/usr/include/x86_64-linux-gnu/bits/string3.h **** {
  80:/usr/include/x86_64-linux-gnu/bits/string3.h ****   /* GCC-5.0 and newer implements these checks in the compiler, so we don't
  81:/usr/include/x86_64-linux-gnu/bits/string3.h ****      need them here.  */
  82:/usr/include/x86_64-linux-gnu/bits/string3.h **** #if !__GNUC_PREREQ (5,0)
  83:/usr/include/x86_64-linux-gnu/bits/string3.h ****   if (__builtin_constant_p (__len) && __len == 0
  84:/usr/include/x86_64-linux-gnu/bits/string3.h ****       && (!__builtin_constant_p (__ch) || __ch != 0))
  85:/usr/include/x86_64-linux-gnu/bits/string3.h ****     {
  86:/usr/include/x86_64-linux-gnu/bits/string3.h ****       __warn_memset_zero_len ();
  87:/usr/include/x86_64-linux-gnu/bits/string3.h ****       return __dest;
  88:/usr/include/x86_64-linux-gnu/bits/string3.h ****     }
  89:/usr/include/x86_64-linux-gnu/bits/string3.h **** #endif
  90:/usr/include/x86_64-linux-gnu/bits/string3.h ****   return __builtin___memset_chk (__dest, __ch, __len, __bos0 (__dest));
 1280              		.loc 2 90 0
 1281 0028 48C74424 		movq	$0, 96(%rsp)
 1281      60000000 
GAS LISTING /tmp/ccPMqhYv.s 			page 34


 1281      00
 1282              	.LVL202:
 1283              	.LBE137:
 1284              	.LBE136:
 296:/home/baikal/workspace/C50/Huawei_IoT_Agent_Tiny_SDK_Linux//lwm2m/core/discover.c ****     uint8_t bufferLink[PRV_LINK_BUFFER_SIZE];
 297:/home/baikal/workspace/C50/Huawei_IoT_Agent_Tiny_SDK_Linux//lwm2m/core/discover.c ****     uint8_t baseUriStr[URI_MAX_STRING_LEN];
 298:/home/baikal/workspace/C50/Huawei_IoT_Agent_Tiny_SDK_Linux//lwm2m/core/discover.c ****     int baseUriLen;
 299:/home/baikal/workspace/C50/Huawei_IoT_Agent_Tiny_SDK_Linux//lwm2m/core/discover.c ****     int index;
 300:/home/baikal/workspace/C50/Huawei_IoT_Agent_Tiny_SDK_Linux//lwm2m/core/discover.c ****     size_t head;
 301:/home/baikal/workspace/C50/Huawei_IoT_Agent_Tiny_SDK_Linux//lwm2m/core/discover.c ****     int res;
 302:/home/baikal/workspace/C50/Huawei_IoT_Agent_Tiny_SDK_Linux//lwm2m/core/discover.c ****     lwm2m_uri_t parentUri;
 303:/home/baikal/workspace/C50/Huawei_IoT_Agent_Tiny_SDK_Linux//lwm2m/core/discover.c ****     lwm2m_attributes_t *paramP;
 304:/home/baikal/workspace/C50/Huawei_IoT_Agent_Tiny_SDK_Linux//lwm2m/core/discover.c ****     lwm2m_attributes_t mergedParam;
 305:/home/baikal/workspace/C50/Huawei_IoT_Agent_Tiny_SDK_Linux//lwm2m/core/discover.c **** 
 306:/home/baikal/workspace/C50/Huawei_IoT_Agent_Tiny_SDK_Linux//lwm2m/core/discover.c ****     LOG_ARG("size: %d", size);
 307:/home/baikal/workspace/C50/Huawei_IoT_Agent_Tiny_SDK_Linux//lwm2m/core/discover.c ****     LOG_URI(uriP);
 308:/home/baikal/workspace/C50/Huawei_IoT_Agent_Tiny_SDK_Linux//lwm2m/core/discover.c **** 
 309:/home/baikal/workspace/C50/Huawei_IoT_Agent_Tiny_SDK_Linux//lwm2m/core/discover.c ****     head = 0;
 310:/home/baikal/workspace/C50/Huawei_IoT_Agent_Tiny_SDK_Linux//lwm2m/core/discover.c ****     memset(&parentUri, 0, sizeof(lwm2m_uri_t));
 311:/home/baikal/workspace/C50/Huawei_IoT_Agent_Tiny_SDK_Linux//lwm2m/core/discover.c ****     parentUri.objectId = uriP->objectId;
 1285              		.loc 1 311 0
 1286 0031 0FB74602 		movzwl	2(%rsi), %eax
 1287 0035 66894424 		movw	%ax, 98(%rsp)
 1287      62
 312:/home/baikal/workspace/C50/Huawei_IoT_Agent_Tiny_SDK_Linux//lwm2m/core/discover.c ****     parentUri.flag = LWM2M_URI_FLAG_OBJECT_ID;
 1288              		.loc 1 312 0
 1289 003a C6442460 		movb	$4, 96(%rsp)
 1289      04
 313:/home/baikal/workspace/C50/Huawei_IoT_Agent_Tiny_SDK_Linux//lwm2m/core/discover.c **** 
 314:/home/baikal/workspace/C50/Huawei_IoT_Agent_Tiny_SDK_Linux//lwm2m/core/discover.c ****     if (LWM2M_URI_IS_SET_RESOURCE(uriP))
 1290              		.loc 1 314 0
 1291 003f 0FB606   		movzbl	(%rsi), %eax
 1292 0042 A801     		testb	$1, %al
 1293 0044 0F84E800 		je	.L78
 1293      0000
 1294              	.LVL203:
 1295              	.LBB138:
 1296              	.LBB139:
 1297              	.LBB140:
 1298              		.loc 2 90 0
 1299 004a 48C74424 		movq	$0, 96(%rsp)
 1299      60000000 
 1299      00
 1300              	.LVL204:
 1301              	.LBE140:
 1302              	.LBE139:
 315:/home/baikal/workspace/C50/Huawei_IoT_Agent_Tiny_SDK_Linux//lwm2m/core/discover.c ****     {
 316:/home/baikal/workspace/C50/Huawei_IoT_Agent_Tiny_SDK_Linux//lwm2m/core/discover.c ****         lwm2m_uri_t tempUri;
 317:/home/baikal/workspace/C50/Huawei_IoT_Agent_Tiny_SDK_Linux//lwm2m/core/discover.c ****         lwm2m_attributes_t *objParamP;
 318:/home/baikal/workspace/C50/Huawei_IoT_Agent_Tiny_SDK_Linux//lwm2m/core/discover.c ****         lwm2m_attributes_t *instParamP;
 319:/home/baikal/workspace/C50/Huawei_IoT_Agent_Tiny_SDK_Linux//lwm2m/core/discover.c **** 
 320:/home/baikal/workspace/C50/Huawei_IoT_Agent_Tiny_SDK_Linux//lwm2m/core/discover.c ****         memset(&parentUri, 0, sizeof(lwm2m_uri_t));
 321:/home/baikal/workspace/C50/Huawei_IoT_Agent_Tiny_SDK_Linux//lwm2m/core/discover.c ****         tempUri.objectId = uriP->objectId;
 1303              		.loc 1 321 0
 1304 0053 0FB74602 		movzwl	2(%rsi), %eax
 1305 0057 66894424 		movw	%ax, 34(%rsp)
 1305      22
GAS LISTING /tmp/ccPMqhYv.s 			page 35


 322:/home/baikal/workspace/C50/Huawei_IoT_Agent_Tiny_SDK_Linux//lwm2m/core/discover.c ****         tempUri.flag = LWM2M_URI_FLAG_OBJECT_ID;
 1306              		.loc 1 322 0
 1307 005c C6442420 		movb	$4, 32(%rsp)
 1307      04
 323:/home/baikal/workspace/C50/Huawei_IoT_Agent_Tiny_SDK_Linux//lwm2m/core/discover.c **** 
 324:/home/baikal/workspace/C50/Huawei_IoT_Agent_Tiny_SDK_Linux//lwm2m/core/discover.c ****         // get object level attributes
 325:/home/baikal/workspace/C50/Huawei_IoT_Agent_Tiny_SDK_Linux//lwm2m/core/discover.c ****         objParamP = prv_findAttributes(contextP, &tempUri, serverP);
 1308              		.loc 1 325 0
 1309 0061 488D7424 		leaq	32(%rsp), %rsi
 1309      20
 1310              	.LVL205:
 1311 0066 E8000000 		call	prv_findAttributes
 1311      00
 1312              	.LVL206:
 1313 006b 4989C6   		movq	%rax, %r14
 1314              	.LVL207:
 326:/home/baikal/workspace/C50/Huawei_IoT_Agent_Tiny_SDK_Linux//lwm2m/core/discover.c **** 
 327:/home/baikal/workspace/C50/Huawei_IoT_Agent_Tiny_SDK_Linux//lwm2m/core/discover.c ****         // get object instance level attributes
 328:/home/baikal/workspace/C50/Huawei_IoT_Agent_Tiny_SDK_Linux//lwm2m/core/discover.c ****         tempUri.instanceId = uriP->instanceId;
 1315              		.loc 1 328 0
 1316 006e 410FB744 		movzwl	4(%r12), %eax
 1316      2404
 1317              	.LVL208:
 1318 0074 66894424 		movw	%ax, 36(%rsp)
 1318      24
 329:/home/baikal/workspace/C50/Huawei_IoT_Agent_Tiny_SDK_Linux//lwm2m/core/discover.c ****         tempUri.flag = LWM2M_URI_FLAG_INSTANCE_ID;
 1319              		.loc 1 329 0
 1320 0079 C6442420 		movb	$2, 32(%rsp)
 1320      02
 330:/home/baikal/workspace/C50/Huawei_IoT_Agent_Tiny_SDK_Linux//lwm2m/core/discover.c ****         instParamP = prv_findAttributes(contextP, &tempUri, serverP);
 1321              		.loc 1 330 0
 1322 007e 4C89EA   		movq	%r13, %rdx
 1323 0081 488D7424 		leaq	32(%rsp), %rsi
 1323      20
 1324 0086 4C89FF   		movq	%r15, %rdi
 1325 0089 E8000000 		call	prv_findAttributes
 1325      00
 1326              	.LVL209:
 331:/home/baikal/workspace/C50/Huawei_IoT_Agent_Tiny_SDK_Linux//lwm2m/core/discover.c **** 
 332:/home/baikal/workspace/C50/Huawei_IoT_Agent_Tiny_SDK_Linux//lwm2m/core/discover.c ****         if (objParamP != NULL)
 1327              		.loc 1 332 0
 1328 008e 4D85F6   		testq	%r14, %r14
 1329 0091 0F848200 		je	.L90
 1329      0000
 333:/home/baikal/workspace/C50/Huawei_IoT_Agent_Tiny_SDK_Linux//lwm2m/core/discover.c ****         {
 334:/home/baikal/workspace/C50/Huawei_IoT_Agent_Tiny_SDK_Linux//lwm2m/core/discover.c ****             if (instParamP != NULL)
 1330              		.loc 1 334 0
 1331 0097 4885C0   		testq	%rax, %rax
 1332 009a 0F848300 		je	.L79
 1332      0000
 1333              	.LVL210:
 1334              	.LBB141:
 1335              	.LBB142:
 1336              		.loc 2 90 0
 1337 00a0 48C74424 		movq	$0, 48(%rsp)
 1337      30000000 
 1337      00
GAS LISTING /tmp/ccPMqhYv.s 			page 36


 1338 00a9 48C74424 		movq	$0, 56(%rsp)
 1338      38000000 
 1338      00
 1339 00b2 48C74424 		movq	$0, 64(%rsp)
 1339      40000000 
 1339      00
 1340 00bb 48C74424 		movq	$0, 72(%rsp)
 1340      48000000 
 1340      00
 1341 00c4 48C74424 		movq	$0, 80(%rsp)
 1341      50000000 
 1341      00
 1342              	.LVL211:
 1343              	.LBE142:
 1344              	.LBE141:
 335:/home/baikal/workspace/C50/Huawei_IoT_Agent_Tiny_SDK_Linux//lwm2m/core/discover.c ****             {
 336:/home/baikal/workspace/C50/Huawei_IoT_Agent_Tiny_SDK_Linux//lwm2m/core/discover.c ****                 memset(&mergedParam, 0, sizeof(lwm2m_attributes_t));
 337:/home/baikal/workspace/C50/Huawei_IoT_Agent_Tiny_SDK_Linux//lwm2m/core/discover.c ****                 mergedParam.toSet = objParamP->toSet | instParamP->toSet;
 1345              		.loc 1 337 0
 1346 00cd 0FB610   		movzbl	(%rax), %edx
 1347 00d0 410A16   		orb	(%r14), %dl
 1348 00d3 88542430 		movb	%dl, 48(%rsp)
 338:/home/baikal/workspace/C50/Huawei_IoT_Agent_Tiny_SDK_Linux//lwm2m/core/discover.c ****                 if (mergedParam.toSet & LWM2M_ATTR_FLAG_MIN_PERIOD)
 1349              		.loc 1 338 0
 1350 00d7 F6C201   		testb	$1, %dl
 1351 00da 7416     		je	.L80
 339:/home/baikal/workspace/C50/Huawei_IoT_Agent_Tiny_SDK_Linux//lwm2m/core/discover.c ****                 {
 340:/home/baikal/workspace/C50/Huawei_IoT_Agent_Tiny_SDK_Linux//lwm2m/core/discover.c ****                     if (instParamP->toSet & LWM2M_ATTR_FLAG_MIN_PERIOD)
 1352              		.loc 1 340 0
 1353 00dc F60001   		testb	$1, (%rax)
 1354 00df 7409     		je	.L81
 341:/home/baikal/workspace/C50/Huawei_IoT_Agent_Tiny_SDK_Linux//lwm2m/core/discover.c ****                     {
 342:/home/baikal/workspace/C50/Huawei_IoT_Agent_Tiny_SDK_Linux//lwm2m/core/discover.c ****                         mergedParam.minPeriod = instParamP->minPeriod;
 1355              		.loc 1 342 0
 1356 00e1 8B4804   		movl	4(%rax), %ecx
 1357 00e4 894C2434 		movl	%ecx, 52(%rsp)
 1358 00e8 EB08     		jmp	.L80
 1359              	.L81:
 343:/home/baikal/workspace/C50/Huawei_IoT_Agent_Tiny_SDK_Linux//lwm2m/core/discover.c ****                     }
 344:/home/baikal/workspace/C50/Huawei_IoT_Agent_Tiny_SDK_Linux//lwm2m/core/discover.c ****                     else
 345:/home/baikal/workspace/C50/Huawei_IoT_Agent_Tiny_SDK_Linux//lwm2m/core/discover.c ****                     {
 346:/home/baikal/workspace/C50/Huawei_IoT_Agent_Tiny_SDK_Linux//lwm2m/core/discover.c ****                         mergedParam.minPeriod = objParamP->minPeriod;
 1360              		.loc 1 346 0
 1361 00ea 418B4E04 		movl	4(%r14), %ecx
 1362 00ee 894C2434 		movl	%ecx, 52(%rsp)
 1363              	.L80:
 347:/home/baikal/workspace/C50/Huawei_IoT_Agent_Tiny_SDK_Linux//lwm2m/core/discover.c ****                     }
 348:/home/baikal/workspace/C50/Huawei_IoT_Agent_Tiny_SDK_Linux//lwm2m/core/discover.c ****                 }
 349:/home/baikal/workspace/C50/Huawei_IoT_Agent_Tiny_SDK_Linux//lwm2m/core/discover.c ****                 if (mergedParam.toSet & LWM2M_ATTR_FLAG_MAX_PERIOD)
 1364              		.loc 1 349 0
 1365 00f2 F6C202   		testb	$2, %dl
 1366 00f5 7427     		je	.L91
 350:/home/baikal/workspace/C50/Huawei_IoT_Agent_Tiny_SDK_Linux//lwm2m/core/discover.c ****                 {
 351:/home/baikal/workspace/C50/Huawei_IoT_Agent_Tiny_SDK_Linux//lwm2m/core/discover.c ****                     if (instParamP->toSet & LWM2M_ATTR_FLAG_MAX_PERIOD)
 1367              		.loc 1 351 0
 1368 00f7 F60002   		testb	$2, (%rax)
 1369 00fa 740E     		je	.L82
GAS LISTING /tmp/ccPMqhYv.s 			page 37


 352:/home/baikal/workspace/C50/Huawei_IoT_Agent_Tiny_SDK_Linux//lwm2m/core/discover.c ****                     {
 353:/home/baikal/workspace/C50/Huawei_IoT_Agent_Tiny_SDK_Linux//lwm2m/core/discover.c ****                         mergedParam.maxPeriod = instParamP->maxPeriod;
 1370              		.loc 1 353 0
 1371 00fc 8B4008   		movl	8(%rax), %eax
 1372              	.LVL212:
 1373 00ff 89442438 		movl	%eax, 56(%rsp)
 354:/home/baikal/workspace/C50/Huawei_IoT_Agent_Tiny_SDK_Linux//lwm2m/core/discover.c ****                     }
 355:/home/baikal/workspace/C50/Huawei_IoT_Agent_Tiny_SDK_Linux//lwm2m/core/discover.c ****                     else
 356:/home/baikal/workspace/C50/Huawei_IoT_Agent_Tiny_SDK_Linux//lwm2m/core/discover.c ****                     {
 357:/home/baikal/workspace/C50/Huawei_IoT_Agent_Tiny_SDK_Linux//lwm2m/core/discover.c ****                         mergedParam.maxPeriod = objParamP->maxPeriod;
 358:/home/baikal/workspace/C50/Huawei_IoT_Agent_Tiny_SDK_Linux//lwm2m/core/discover.c ****                     }
 359:/home/baikal/workspace/C50/Huawei_IoT_Agent_Tiny_SDK_Linux//lwm2m/core/discover.c ****                 }
 360:/home/baikal/workspace/C50/Huawei_IoT_Agent_Tiny_SDK_Linux//lwm2m/core/discover.c ****                 paramP = &mergedParam;
 1374              		.loc 1 360 0
 1375 0103 4C8D7424 		leaq	48(%rsp), %r14
 1375      30
 1376              	.LVL213:
 1377 0108 EB19     		jmp	.L79
 1378              	.LVL214:
 1379              	.L82:
 357:/home/baikal/workspace/C50/Huawei_IoT_Agent_Tiny_SDK_Linux//lwm2m/core/discover.c ****                     }
 1380              		.loc 1 357 0
 1381 010a 418B4608 		movl	8(%r14), %eax
 1382              	.LVL215:
 1383 010e 89442438 		movl	%eax, 56(%rsp)
 1384              		.loc 1 360 0
 1385 0112 4C8D7424 		leaq	48(%rsp), %r14
 1385      30
 1386              	.LVL216:
 1387 0117 EB0A     		jmp	.L79
 1388              	.LVL217:
 1389              	.L90:
 361:/home/baikal/workspace/C50/Huawei_IoT_Agent_Tiny_SDK_Linux//lwm2m/core/discover.c ****             }
 362:/home/baikal/workspace/C50/Huawei_IoT_Agent_Tiny_SDK_Linux//lwm2m/core/discover.c ****             else
 363:/home/baikal/workspace/C50/Huawei_IoT_Agent_Tiny_SDK_Linux//lwm2m/core/discover.c ****             {
 364:/home/baikal/workspace/C50/Huawei_IoT_Agent_Tiny_SDK_Linux//lwm2m/core/discover.c ****                 paramP = objParamP;
 365:/home/baikal/workspace/C50/Huawei_IoT_Agent_Tiny_SDK_Linux//lwm2m/core/discover.c ****             }
 366:/home/baikal/workspace/C50/Huawei_IoT_Agent_Tiny_SDK_Linux//lwm2m/core/discover.c ****         }
 367:/home/baikal/workspace/C50/Huawei_IoT_Agent_Tiny_SDK_Linux//lwm2m/core/discover.c ****         else
 368:/home/baikal/workspace/C50/Huawei_IoT_Agent_Tiny_SDK_Linux//lwm2m/core/discover.c ****         {
 369:/home/baikal/workspace/C50/Huawei_IoT_Agent_Tiny_SDK_Linux//lwm2m/core/discover.c ****             paramP = instParamP;
 1390              		.loc 1 369 0
 1391 0119 4989C6   		movq	%rax, %r14
 1392              	.LVL218:
 1393 011c EB05     		jmp	.L79
 1394              	.LVL219:
 1395              	.L91:
 360:/home/baikal/workspace/C50/Huawei_IoT_Agent_Tiny_SDK_Linux//lwm2m/core/discover.c ****             }
 1396              		.loc 1 360 0
 1397 011e 4C8D7424 		leaq	48(%rsp), %r14
 1397      30
 1398              	.LVL220:
 1399              	.L79:
 370:/home/baikal/workspace/C50/Huawei_IoT_Agent_Tiny_SDK_Linux//lwm2m/core/discover.c ****         }
 371:/home/baikal/workspace/C50/Huawei_IoT_Agent_Tiny_SDK_Linux//lwm2m/core/discover.c ****         uriP->flag &= ~LWM2M_URI_FLAG_RESOURCE_ID;
 1400              		.loc 1 371 0 discriminator 1
 1401 0123 41802424 		andb	$-2, (%r12)
GAS LISTING /tmp/ccPMqhYv.s 			page 38


 1401      FE
 1402              	.LBE138:
 309:/home/baikal/workspace/C50/Huawei_IoT_Agent_Tiny_SDK_Linux//lwm2m/core/discover.c ****     memset(&parentUri, 0, sizeof(lwm2m_uri_t));
 1403              		.loc 1 309 0 discriminator 1
 1404 0128 BB000000 		movl	$0, %ebx
 1404      00
 1405 012d E9A50100 		jmp	.L83
 1405      00
 1406              	.LVL221:
 1407              	.L78:
 372:/home/baikal/workspace/C50/Huawei_IoT_Agent_Tiny_SDK_Linux//lwm2m/core/discover.c ****     }
 373:/home/baikal/workspace/C50/Huawei_IoT_Agent_Tiny_SDK_Linux//lwm2m/core/discover.c ****     else
 374:/home/baikal/workspace/C50/Huawei_IoT_Agent_Tiny_SDK_Linux//lwm2m/core/discover.c ****     {
 375:/home/baikal/workspace/C50/Huawei_IoT_Agent_Tiny_SDK_Linux//lwm2m/core/discover.c ****         paramP = NULL;
 376:/home/baikal/workspace/C50/Huawei_IoT_Agent_Tiny_SDK_Linux//lwm2m/core/discover.c **** 
 377:/home/baikal/workspace/C50/Huawei_IoT_Agent_Tiny_SDK_Linux//lwm2m/core/discover.c ****         if (LWM2M_URI_IS_SET_INSTANCE(uriP))
 1408              		.loc 1 377 0
 1409 0132 A802     		testb	$2, %al
 1410 0134 0F84FB00 		je	.L84
 1410      0000
 1411              	.LVL222:
 1412 013a C6842490 		movb	$60, 144(%rsp)
 1412      0000003C 
 1413              	.LVL223:
 1414              	.LBB143:
 1415              	.LBB144:
  53:/usr/include/x86_64-linux-gnu/bits/string3.h **** }
 1416              		.loc 2 53 0 discriminator 2
 1417 0142 C6842491 		movb	$47, 145(%rsp)
 1417      0000002F 
 1418              	.LVL224:
 1419              	.LBE144:
 1420              	.LBE143:
 378:/home/baikal/workspace/C50/Huawei_IoT_Agent_Tiny_SDK_Linux//lwm2m/core/discover.c ****         {
 379:/home/baikal/workspace/C50/Huawei_IoT_Agent_Tiny_SDK_Linux//lwm2m/core/discover.c ****             PRV_CONCAT_STR(bufferLink, PRV_LINK_BUFFER_SIZE, head, LINK_ITEM_START, LINK_ITEM_START
 380:/home/baikal/workspace/C50/Huawei_IoT_Agent_Tiny_SDK_Linux//lwm2m/core/discover.c ****             PRV_CONCAT_STR(bufferLink, PRV_LINK_BUFFER_SIZE, head, LINK_URI_SEPARATOR, LINK_URI_SEP
 381:/home/baikal/workspace/C50/Huawei_IoT_Agent_Tiny_SDK_Linux//lwm2m/core/discover.c ****             res = utils_intToText(uriP->objectId, bufferLink + head, PRV_LINK_BUFFER_SIZE - head);
 1421              		.loc 1 381 0 discriminator 2
 1422 014a 0FB77E02 		movzwl	2(%rsi), %edi
 1423              	.LVL225:
 1424 014e BAFE0300 		movl	$1022, %edx
 1424      00
 1425              	.LVL226:
 1426 0153 488DB424 		leaq	146(%rsp), %rsi
 1426      92000000 
 1427              	.LVL227:
 1428 015b E8000000 		call	utils_intToText
 1428      00
 1429              	.LVL228:
 382:/home/baikal/workspace/C50/Huawei_IoT_Agent_Tiny_SDK_Linux//lwm2m/core/discover.c ****             if (res <= 0) return -1;
 1430              		.loc 1 382 0 discriminator 2
 1431 0160 85C0     		testl	%eax, %eax
 1432 0162 0F8E4302 		jle	.L92
 1432      0000
 383:/home/baikal/workspace/C50/Huawei_IoT_Agent_Tiny_SDK_Linux//lwm2m/core/discover.c ****             head += res;
 1433              		.loc 1 383 0
 1434 0168 4898     		cltq
GAS LISTING /tmp/ccPMqhYv.s 			page 39


 1435 016a 488D5002 		leaq	2(%rax), %rdx
 1436              	.LVL229:
 384:/home/baikal/workspace/C50/Huawei_IoT_Agent_Tiny_SDK_Linux//lwm2m/core/discover.c ****             PRV_CONCAT_STR(bufferLink, PRV_LINK_BUFFER_SIZE, head, LINK_URI_SEPARATOR, LINK_URI_SEP
 1437              		.loc 1 384 0
 1438 016e 4881FA00 		cmpq	$1024, %rdx
 1438      040000
 1439 0175 0F843702 		je	.L93
 1439      0000
 1440              	.LVL230:
 1441              	.LBB145:
 1442              	.LBB146:
  53:/usr/include/x86_64-linux-gnu/bits/string3.h **** }
 1443              		.loc 2 53 0 discriminator 2
 1444 017b C6840492 		movb	$47, 146(%rsp,%rax)
 1444      0000002F 
 1445              	.LVL231:
 1446              	.LBE146:
 1447              	.LBE145:
 1448              		.loc 1 384 0 discriminator 2
 1449 0183 488D5803 		leaq	3(%rax), %rbx
 1450              	.LVL232:
 385:/home/baikal/workspace/C50/Huawei_IoT_Agent_Tiny_SDK_Linux//lwm2m/core/discover.c ****             res = utils_intToText(uriP->instanceId, bufferLink + head, PRV_LINK_BUFFER_SIZE - head)
 1451              		.loc 1 385 0 discriminator 2
 1452 0187 BA000400 		movl	$1024, %edx
 1452      00
 1453 018c 4829DA   		subq	%rbx, %rdx
 1454 018f 488D8424 		leaq	144(%rsp), %rax
 1454      90000000 
 1455              	.LVL233:
 1456 0197 488D3418 		leaq	(%rax,%rbx), %rsi
 1457 019b 410FB77C 		movzwl	4(%r12), %edi
 1457      2404
 1458 01a1 E8000000 		call	utils_intToText
 1458      00
 1459              	.LVL234:
 386:/home/baikal/workspace/C50/Huawei_IoT_Agent_Tiny_SDK_Linux//lwm2m/core/discover.c ****             if (res <= 0) return -1;
 1460              		.loc 1 386 0 discriminator 2
 1461 01a6 85C0     		testl	%eax, %eax
 1462 01a8 0F8E0B02 		jle	.L94
 1462      0000
 387:/home/baikal/workspace/C50/Huawei_IoT_Agent_Tiny_SDK_Linux//lwm2m/core/discover.c ****             head += res;
 1463              		.loc 1 387 0
 1464 01ae 4898     		cltq
 1465 01b0 4801C3   		addq	%rax, %rbx
 1466              	.LVL235:
 388:/home/baikal/workspace/C50/Huawei_IoT_Agent_Tiny_SDK_Linux//lwm2m/core/discover.c ****             PRV_CONCAT_STR(bufferLink, PRV_LINK_BUFFER_SIZE, head, LINK_ITEM_END, LINK_ITEM_END_SIZ
 1467              		.loc 1 388 0
 1468 01b3 B8000400 		movl	$1024, %eax
 1468      00
 1469              	.LVL236:
 1470 01b8 4829D8   		subq	%rbx, %rax
 1471 01bb 4883F801 		cmpq	$1, %rax
 1472 01bf 0F86FB01 		jbe	.L95
 1472      0000
 1473              	.LVL237:
 1474              	.LBB147:
 1475              	.LBB148:
GAS LISTING /tmp/ccPMqhYv.s 			page 40


  53:/usr/include/x86_64-linux-gnu/bits/string3.h **** }
 1476              		.loc 2 53 0 discriminator 2
 1477 01c5 66C7841C 		movw	$11326, 144(%rsp,%rbx)
 1477      90000000 
 1477      3E2C
 1478              	.LVL238:
 1479              	.LBE148:
 1480              	.LBE147:
 1481              		.loc 1 388 0 discriminator 2
 1482 01cf 488D6B02 		leaq	2(%rbx), %rbp
 1483              	.LVL239:
 389:/home/baikal/workspace/C50/Huawei_IoT_Agent_Tiny_SDK_Linux//lwm2m/core/discover.c ****             parentUri.instanceId = uriP->instanceId;
 1484              		.loc 1 389 0 discriminator 2
 1485 01d3 410FB744 		movzwl	4(%r12), %eax
 1485      2404
 1486 01d9 66894424 		movw	%ax, 100(%rsp)
 1486      64
 390:/home/baikal/workspace/C50/Huawei_IoT_Agent_Tiny_SDK_Linux//lwm2m/core/discover.c ****             parentUri.flag = LWM2M_URI_FLAG_INSTANCE_ID;
 1487              		.loc 1 390 0 discriminator 2
 1488 01de C6442460 		movb	$2, 96(%rsp)
 1488      02
 391:/home/baikal/workspace/C50/Huawei_IoT_Agent_Tiny_SDK_Linux//lwm2m/core/discover.c ****             if (serverP != NULL)
 1489              		.loc 1 391 0 discriminator 2
 1490 01e3 4D85ED   		testq	%r13, %r13
 1491 01e6 7437     		je	.L96
 392:/home/baikal/workspace/C50/Huawei_IoT_Agent_Tiny_SDK_Linux//lwm2m/core/discover.c ****             {
 393:/home/baikal/workspace/C50/Huawei_IoT_Agent_Tiny_SDK_Linux//lwm2m/core/discover.c ****                 res = prv_serializeAttributes(contextP, &parentUri, serverP, NULL, bufferLink, head
 1492              		.loc 1 393 0
 1493 01e8 4883EC08 		subq	$8, %rsp
 1494              	.LCFI50:
 1495              		.cfi_def_cfa_offset 1240
 1496 01ec 68000400 		pushq	$1024
 1496      00
 1497              	.LCFI51:
 1498              		.cfi_def_cfa_offset 1248
 1499 01f1 4C8D4B01 		leaq	1(%rbx), %r9
 1500 01f5 4C8D8424 		leaq	160(%rsp), %r8
 1500      A0000000 
 1501 01fd B9000000 		movl	$0, %ecx
 1501      00
 1502 0202 4C89EA   		movq	%r13, %rdx
 1503 0205 488D7424 		leaq	112(%rsp), %rsi
 1503      70
 1504 020a 4C89FF   		movq	%r15, %rdi
 1505 020d E8000000 		call	prv_serializeAttributes
 1505      00
 1506              	.LVL240:
 394:/home/baikal/workspace/C50/Huawei_IoT_Agent_Tiny_SDK_Linux//lwm2m/core/discover.c ****                 if (res < 0) return -1;    // careful, 0 is valid
 1507              		.loc 1 394 0
 1508 0212 4883C410 		addq	$16, %rsp
 1509              	.LCFI52:
 1510              		.cfi_def_cfa_offset 1232
 1511 0216 85C0     		testl	%eax, %eax
 1512 0218 790A     		jns	.L86
 1513 021a E9A80100 		jmp	.L97
 1513      00
 1514              	.LVL241:
GAS LISTING /tmp/ccPMqhYv.s 			page 41


 1515              	.L96:
 395:/home/baikal/workspace/C50/Huawei_IoT_Agent_Tiny_SDK_Linux//lwm2m/core/discover.c ****             }
 396:/home/baikal/workspace/C50/Huawei_IoT_Agent_Tiny_SDK_Linux//lwm2m/core/discover.c ****             else
 397:/home/baikal/workspace/C50/Huawei_IoT_Agent_Tiny_SDK_Linux//lwm2m/core/discover.c ****             {
 398:/home/baikal/workspace/C50/Huawei_IoT_Agent_Tiny_SDK_Linux//lwm2m/core/discover.c ****                 res = 0;
 1516              		.loc 1 398 0
 1517 021f B8000000 		movl	$0, %eax
 1517      00
 1518              	.L86:
 1519              	.LVL242:
 399:/home/baikal/workspace/C50/Huawei_IoT_Agent_Tiny_SDK_Linux//lwm2m/core/discover.c ****             }
 400:/home/baikal/workspace/C50/Huawei_IoT_Agent_Tiny_SDK_Linux//lwm2m/core/discover.c ****             head += res;
 1520              		.loc 1 400 0
 1521 0224 4898     		cltq
 1522 0226 488D1C28 		leaq	(%rax,%rbp), %rbx
 1523              	.LVL243:
 375:/home/baikal/workspace/C50/Huawei_IoT_Agent_Tiny_SDK_Linux//lwm2m/core/discover.c **** 
 1524              		.loc 1 375 0
 1525 022a 41BE0000 		movl	$0, %r14d
 1525      0000
 1526 0230 E9A20000 		jmp	.L83
 1526      00
 1527              	.LVL244:
 1528              	.L84:
 1529 0235 C6842490 		movb	$60, 144(%rsp)
 1529      0000003C 
 1530              	.LVL245:
 1531              	.LBB149:
 1532              	.LBB150:
  53:/usr/include/x86_64-linux-gnu/bits/string3.h **** }
 1533              		.loc 2 53 0 discriminator 2
 1534 023d C6842491 		movb	$47, 145(%rsp)
 1534      0000002F 
 1535              	.LVL246:
 1536              	.LBE150:
 1537              	.LBE149:
 401:/home/baikal/workspace/C50/Huawei_IoT_Agent_Tiny_SDK_Linux//lwm2m/core/discover.c ****         }
 402:/home/baikal/workspace/C50/Huawei_IoT_Agent_Tiny_SDK_Linux//lwm2m/core/discover.c ****         else
 403:/home/baikal/workspace/C50/Huawei_IoT_Agent_Tiny_SDK_Linux//lwm2m/core/discover.c ****         {
 404:/home/baikal/workspace/C50/Huawei_IoT_Agent_Tiny_SDK_Linux//lwm2m/core/discover.c ****             PRV_CONCAT_STR(bufferLink, PRV_LINK_BUFFER_SIZE, head, LINK_ITEM_START, LINK_ITEM_START
 405:/home/baikal/workspace/C50/Huawei_IoT_Agent_Tiny_SDK_Linux//lwm2m/core/discover.c ****             PRV_CONCAT_STR(bufferLink, PRV_LINK_BUFFER_SIZE, head, LINK_URI_SEPARATOR, LINK_URI_SEP
 406:/home/baikal/workspace/C50/Huawei_IoT_Agent_Tiny_SDK_Linux//lwm2m/core/discover.c ****             res = utils_intToText(uriP->objectId, bufferLink + head, PRV_LINK_BUFFER_SIZE - head);
 1538              		.loc 1 406 0 discriminator 2
 1539 0245 0FB77E02 		movzwl	2(%rsi), %edi
 1540              	.LVL247:
 1541 0249 BAFE0300 		movl	$1022, %edx
 1541      00
 1542              	.LVL248:
 1543 024e 488DB424 		leaq	146(%rsp), %rsi
 1543      92000000 
 1544              	.LVL249:
 1545 0256 E8000000 		call	utils_intToText
 1545      00
 1546              	.LVL250:
 407:/home/baikal/workspace/C50/Huawei_IoT_Agent_Tiny_SDK_Linux//lwm2m/core/discover.c ****             if (res <= 0) return -1;
 1547              		.loc 1 407 0 discriminator 2
 1548 025b 85C0     		testl	%eax, %eax
GAS LISTING /tmp/ccPMqhYv.s 			page 42


 1549 025d 0F8E6B01 		jle	.L98
 1549      0000
 408:/home/baikal/workspace/C50/Huawei_IoT_Agent_Tiny_SDK_Linux//lwm2m/core/discover.c ****             head += res;
 1550              		.loc 1 408 0
 1551 0263 4898     		cltq
 1552 0265 488D4802 		leaq	2(%rax), %rcx
 1553              	.LVL251:
 409:/home/baikal/workspace/C50/Huawei_IoT_Agent_Tiny_SDK_Linux//lwm2m/core/discover.c ****             PRV_CONCAT_STR(bufferLink, PRV_LINK_BUFFER_SIZE, head, LINK_ITEM_END, LINK_ITEM_END_SIZ
 1554              		.loc 1 409 0
 1555 0269 BA000400 		movl	$1024, %edx
 1555      00
 1556 026e 4829CA   		subq	%rcx, %rdx
 1557 0271 4883FA01 		cmpq	$1, %rdx
 1558 0275 0F865A01 		jbe	.L99
 1558      0000
 1559              	.LVL252:
 1560              	.LBB151:
 1561              	.LBB152:
  53:/usr/include/x86_64-linux-gnu/bits/string3.h **** }
 1562              		.loc 2 53 0 discriminator 2
 1563 027b 66C78404 		movw	$11326, 146(%rsp,%rax)
 1563      92000000 
 1563      3E2C
 1564              	.LVL253:
 1565              	.LBE152:
 1566              	.LBE151:
 1567              		.loc 1 409 0 discriminator 2
 1568 0285 488D5804 		leaq	4(%rax), %rbx
 1569              	.LVL254:
 410:/home/baikal/workspace/C50/Huawei_IoT_Agent_Tiny_SDK_Linux//lwm2m/core/discover.c **** 
 411:/home/baikal/workspace/C50/Huawei_IoT_Agent_Tiny_SDK_Linux//lwm2m/core/discover.c ****             if (serverP != NULL)
 1570              		.loc 1 411 0 discriminator 2
 1571 0289 4D85ED   		testq	%r13, %r13
 1572 028c 7443     		je	.L100
 412:/home/baikal/workspace/C50/Huawei_IoT_Agent_Tiny_SDK_Linux//lwm2m/core/discover.c ****             {
 413:/home/baikal/workspace/C50/Huawei_IoT_Agent_Tiny_SDK_Linux//lwm2m/core/discover.c ****                 res = prv_serializeAttributes(contextP, &parentUri, serverP, NULL, bufferLink, head
 1573              		.loc 1 413 0
 1574 028e 4883EC08 		subq	$8, %rsp
 1575              	.LCFI53:
 1576              		.cfi_def_cfa_offset 1240
 1577 0292 68000400 		pushq	$1024
 1577      00
 1578              	.LCFI54:
 1579              		.cfi_def_cfa_offset 1248
 1580 0297 4C8D4803 		leaq	3(%rax), %r9
 1581 029b 4C8D8424 		leaq	160(%rsp), %r8
 1581      A0000000 
 1582 02a3 B9000000 		movl	$0, %ecx
 1582      00
 1583 02a8 4C89EA   		movq	%r13, %rdx
 1584 02ab 488D7424 		leaq	112(%rsp), %rsi
 1584      70
 1585 02b0 4C89FF   		movq	%r15, %rdi
 1586 02b3 E8000000 		call	prv_serializeAttributes
 1586      00
 1587              	.LVL255:
 414:/home/baikal/workspace/C50/Huawei_IoT_Agent_Tiny_SDK_Linux//lwm2m/core/discover.c ****                 if (res < 0) return -1;    // careful, 0 is valid
GAS LISTING /tmp/ccPMqhYv.s 			page 43


 1588              		.loc 1 414 0
 1589 02b8 4883C410 		addq	$16, %rsp
 1590              	.LCFI55:
 1591              		.cfi_def_cfa_offset 1232
 1592 02bc 85C0     		testl	%eax, %eax
 1593 02be 0F881801 		js	.L101
 1593      0000
 415:/home/baikal/workspace/C50/Huawei_IoT_Agent_Tiny_SDK_Linux//lwm2m/core/discover.c ****                 head += res;
 1594              		.loc 1 415 0
 1595 02c4 4898     		cltq
 1596 02c6 4801C3   		addq	%rax, %rbx
 1597              	.LVL256:
 375:/home/baikal/workspace/C50/Huawei_IoT_Agent_Tiny_SDK_Linux//lwm2m/core/discover.c **** 
 1598              		.loc 1 375 0
 1599 02c9 41BE0000 		movl	$0, %r14d
 1599      0000
 1600 02cf EB06     		jmp	.L83
 1601              	.L100:
 1602 02d1 41BE0000 		movl	$0, %r14d
 1602      0000
 1603              	.LVL257:
 1604              	.L83:
 416:/home/baikal/workspace/C50/Huawei_IoT_Agent_Tiny_SDK_Linux//lwm2m/core/discover.c ****             }
 417:/home/baikal/workspace/C50/Huawei_IoT_Agent_Tiny_SDK_Linux//lwm2m/core/discover.c ****         }
 418:/home/baikal/workspace/C50/Huawei_IoT_Agent_Tiny_SDK_Linux//lwm2m/core/discover.c ****     }
 419:/home/baikal/workspace/C50/Huawei_IoT_Agent_Tiny_SDK_Linux//lwm2m/core/discover.c **** 
 420:/home/baikal/workspace/C50/Huawei_IoT_Agent_Tiny_SDK_Linux//lwm2m/core/discover.c ****     baseUriLen = uri_toString(uriP, baseUriStr, URI_MAX_STRING_LEN, NULL);
 1605              		.loc 1 420 0
 1606 02d7 B9000000 		movl	$0, %ecx
 1606      00
 1607 02dc BA120000 		movl	$18, %edx
 1607      00
 1608 02e1 488D7424 		leaq	112(%rsp), %rsi
 1608      70
 1609 02e6 4C89E7   		movq	%r12, %rdi
 1610 02e9 E8000000 		call	uri_toString
 1610      00
 1611              	.LVL258:
 421:/home/baikal/workspace/C50/Huawei_IoT_Agent_Tiny_SDK_Linux//lwm2m/core/discover.c ****     if (baseUriLen < 0) return -1;
 1612              		.loc 1 421 0
 1613 02ee 85C0     		testl	%eax, %eax
 1614 02f0 0F88ED00 		js	.L102
 1614      0000
 422:/home/baikal/workspace/C50/Huawei_IoT_Agent_Tiny_SDK_Linux//lwm2m/core/discover.c ****     baseUriLen -= 1;
 1615              		.loc 1 422 0
 1616 02f6 83E801   		subl	$1, %eax
 1617              	.LVL259:
 1618 02f9 89442414 		movl	%eax, 20(%rsp)
 1619              	.LVL260:
 423:/home/baikal/workspace/C50/Huawei_IoT_Agent_Tiny_SDK_Linux//lwm2m/core/discover.c **** 
 424:/home/baikal/workspace/C50/Huawei_IoT_Agent_Tiny_SDK_Linux//lwm2m/core/discover.c ****     for (index = 0; index < size && head < PRV_LINK_BUFFER_SIZE; index++)
 1620              		.loc 1 424 0
 1621 02fd BD000000 		movl	$0, %ebp
 1621      00
 1622 0302 EB5D     		jmp	.L87
 1623              	.LVL261:
 1624              	.L88:
GAS LISTING /tmp/ccPMqhYv.s 			page 44


 425:/home/baikal/workspace/C50/Huawei_IoT_Agent_Tiny_SDK_Linux//lwm2m/core/discover.c ****     {
 426:/home/baikal/workspace/C50/Huawei_IoT_Agent_Tiny_SDK_Linux//lwm2m/core/discover.c ****         res = prv_serializeLinkData(contextP, dataP + index, serverP, paramP, uriP, baseUriStr, bas
 1625              		.loc 1 426 0
 1626 0304 B9000400 		movl	$1024, %ecx
 1626      00
 1627 0309 4829D9   		subq	%rbx, %rcx
 1628 030c 488D941C 		leaq	144(%rsp,%rbx), %rdx
 1628      90000000 
 1629 0314 48634424 		movslq	20(%rsp), %rax
 1629      14
 1630 0319 4863F5   		movslq	%ebp, %rsi
 1631 031c 488D3C76 		leaq	(%rsi,%rsi,2), %rdi
 1632 0320 488D34FD 		leaq	0(,%rdi,8), %rsi
 1632      00000000 
 1633 0328 48037424 		addq	8(%rsp), %rsi
 1633      08
 1634 032d 4883EC08 		subq	$8, %rsp
 1635              	.LCFI56:
 1636              		.cfi_def_cfa_offset 1240
 1637 0331 51       		pushq	%rcx
 1638              	.LCFI57:
 1639              		.cfi_def_cfa_offset 1248
 1640 0332 52       		pushq	%rdx
 1641              	.LCFI58:
 1642              		.cfi_def_cfa_offset 1256
 1643 0333 50       		pushq	%rax
 1644              	.LCFI59:
 1645              		.cfi_def_cfa_offset 1264
 1646 0334 4C8D8C24 		leaq	144(%rsp), %r9
 1646      90000000 
 1647 033c 4D89E0   		movq	%r12, %r8
 1648 033f 4C89F1   		movq	%r14, %rcx
 1649 0342 4C89EA   		movq	%r13, %rdx
 1650 0345 4C89FF   		movq	%r15, %rdi
 1651 0348 E8000000 		call	prv_serializeLinkData
 1651      00
 1652              	.LVL262:
 427:/home/baikal/workspace/C50/Huawei_IoT_Agent_Tiny_SDK_Linux//lwm2m/core/discover.c ****         if (res < 0) return -1;
 1653              		.loc 1 427 0
 1654 034d 4883C420 		addq	$32, %rsp
 1655              	.LCFI60:
 1656              		.cfi_def_cfa_offset 1232
 1657 0351 85C0     		testl	%eax, %eax
 1658 0353 0F889100 		js	.L103
 1658      0000
 428:/home/baikal/workspace/C50/Huawei_IoT_Agent_Tiny_SDK_Linux//lwm2m/core/discover.c ****         head += res;
 1659              		.loc 1 428 0 discriminator 2
 1660 0359 4898     		cltq
 1661 035b 4801C3   		addq	%rax, %rbx
 1662              	.LVL263:
 424:/home/baikal/workspace/C50/Huawei_IoT_Agent_Tiny_SDK_Linux//lwm2m/core/discover.c ****     {
 1663              		.loc 1 424 0 discriminator 2
 1664 035e 83C501   		addl	$1, %ebp
 1665              	.LVL264:
 1666              	.L87:
 424:/home/baikal/workspace/C50/Huawei_IoT_Agent_Tiny_SDK_Linux//lwm2m/core/discover.c ****     {
 1667              		.loc 1 424 0 is_stmt 0 discriminator 1
GAS LISTING /tmp/ccPMqhYv.s 			page 45


 1668 0361 3B6C2410 		cmpl	16(%rsp), %ebp
 1669 0365 0F9CC2   		setl	%dl
 1670 0368 4881FBFF 		cmpq	$1023, %rbx
 1670      030000
 1671 036f 0F96C0   		setbe	%al
 1672 0372 84C2     		testb	%al, %dl
 1673 0374 758E     		jne	.L88
 429:/home/baikal/workspace/C50/Huawei_IoT_Agent_Tiny_SDK_Linux//lwm2m/core/discover.c ****     }
 430:/home/baikal/workspace/C50/Huawei_IoT_Agent_Tiny_SDK_Linux//lwm2m/core/discover.c **** 
 431:/home/baikal/workspace/C50/Huawei_IoT_Agent_Tiny_SDK_Linux//lwm2m/core/discover.c ****     if (head > 0)
 1674              		.loc 1 431 0 is_stmt 1
 1675 0376 4885DB   		testq	%rbx, %rbx
 1676 0379 742C     		je	.L89
 432:/home/baikal/workspace/C50/Huawei_IoT_Agent_Tiny_SDK_Linux//lwm2m/core/discover.c ****     {
 433:/home/baikal/workspace/C50/Huawei_IoT_Agent_Tiny_SDK_Linux//lwm2m/core/discover.c ****         head -= 1;
 1677              		.loc 1 433 0
 1678 037b 4883EB01 		subq	$1, %rbx
 1679              	.LVL265:
 434:/home/baikal/workspace/C50/Huawei_IoT_Agent_Tiny_SDK_Linux//lwm2m/core/discover.c **** 
 435:/home/baikal/workspace/C50/Huawei_IoT_Agent_Tiny_SDK_Linux//lwm2m/core/discover.c ****         *bufferP = (uint8_t *)lwm2m_malloc(head);
 1680              		.loc 1 435 0
 1681 037f 4889DF   		movq	%rbx, %rdi
 1682 0382 E8000000 		call	lwm2m_malloc
 1682      00
 1683              	.LVL266:
 1684 0387 488B4C24 		movq	24(%rsp), %rcx
 1684      18
 1685 038c 488901   		movq	%rax, (%rcx)
 436:/home/baikal/workspace/C50/Huawei_IoT_Agent_Tiny_SDK_Linux//lwm2m/core/discover.c ****         if (*bufferP == NULL) return 0;
 1686              		.loc 1 436 0
 1687 038f 4885C0   		testq	%rax, %rax
 1688 0392 745D     		je	.L104
 1689              	.LVL267:
 1690              	.LBB153:
 1691              	.LBB154:
  53:/usr/include/x86_64-linux-gnu/bits/string3.h **** }
 1692              		.loc 2 53 0
 1693 0394 4889DA   		movq	%rbx, %rdx
 1694 0397 488DB424 		leaq	144(%rsp), %rsi
 1694      90000000 
 1695              	.LVL268:
 1696 039f 4889C7   		movq	%rax, %rdi
 1697 03a2 E8000000 		call	memcpy
 1697      00
 1698              	.LVL269:
 1699              	.L89:
 1700              	.LBE154:
 1701              	.LBE153:
 437:/home/baikal/workspace/C50/Huawei_IoT_Agent_Tiny_SDK_Linux//lwm2m/core/discover.c ****         memcpy(*bufferP, bufferLink, head);
 438:/home/baikal/workspace/C50/Huawei_IoT_Agent_Tiny_SDK_Linux//lwm2m/core/discover.c ****     }
 439:/home/baikal/workspace/C50/Huawei_IoT_Agent_Tiny_SDK_Linux//lwm2m/core/discover.c **** 
 440:/home/baikal/workspace/C50/Huawei_IoT_Agent_Tiny_SDK_Linux//lwm2m/core/discover.c ****     return (int)head;
 1702              		.loc 1 440 0
 1703 03a7 89D8     		movl	%ebx, %eax
 1704 03a9 EB4B     		jmp	.L85
 1705              	.LVL270:
 1706              	.L92:
GAS LISTING /tmp/ccPMqhYv.s 			page 46


 382:/home/baikal/workspace/C50/Huawei_IoT_Agent_Tiny_SDK_Linux//lwm2m/core/discover.c ****             head += res;
 1707              		.loc 1 382 0
 1708 03ab B8FFFFFF 		movl	$-1, %eax
 1708      FF
 1709              	.LVL271:
 1710 03b0 EB44     		jmp	.L85
 1711              	.LVL272:
 1712              	.L93:
 384:/home/baikal/workspace/C50/Huawei_IoT_Agent_Tiny_SDK_Linux//lwm2m/core/discover.c ****             res = utils_intToText(uriP->instanceId, bufferLink + head, PRV_LINK_BUFFER_SIZE - head)
 1713              		.loc 1 384 0
 1714 03b2 B8FFFFFF 		movl	$-1, %eax
 1714      FF
 1715              	.LVL273:
 1716 03b7 EB3D     		jmp	.L85
 1717              	.LVL274:
 1718              	.L94:
 386:/home/baikal/workspace/C50/Huawei_IoT_Agent_Tiny_SDK_Linux//lwm2m/core/discover.c ****             head += res;
 1719              		.loc 1 386 0
 1720 03b9 B8FFFFFF 		movl	$-1, %eax
 1720      FF
 1721              	.LVL275:
 1722 03be EB36     		jmp	.L85
 1723              	.L95:
 388:/home/baikal/workspace/C50/Huawei_IoT_Agent_Tiny_SDK_Linux//lwm2m/core/discover.c ****             parentUri.instanceId = uriP->instanceId;
 1724              		.loc 1 388 0
 1725 03c0 B8FFFFFF 		movl	$-1, %eax
 1725      FF
 1726 03c5 EB2F     		jmp	.L85
 1727              	.LVL276:
 1728              	.L97:
 394:/home/baikal/workspace/C50/Huawei_IoT_Agent_Tiny_SDK_Linux//lwm2m/core/discover.c ****             }
 1729              		.loc 1 394 0
 1730 03c7 B8FFFFFF 		movl	$-1, %eax
 1730      FF
 1731              	.LVL277:
 1732 03cc EB28     		jmp	.L85
 1733              	.LVL278:
 1734              	.L98:
 407:/home/baikal/workspace/C50/Huawei_IoT_Agent_Tiny_SDK_Linux//lwm2m/core/discover.c ****             head += res;
 1735              		.loc 1 407 0
 1736 03ce B8FFFFFF 		movl	$-1, %eax
 1736      FF
 1737              	.LVL279:
 1738 03d3 EB21     		jmp	.L85
 1739              	.LVL280:
 1740              	.L99:
 409:/home/baikal/workspace/C50/Huawei_IoT_Agent_Tiny_SDK_Linux//lwm2m/core/discover.c **** 
 1741              		.loc 1 409 0
 1742 03d5 B8FFFFFF 		movl	$-1, %eax
 1742      FF
 1743              	.LVL281:
 1744 03da EB1A     		jmp	.L85
 1745              	.LVL282:
 1746              	.L101:
 414:/home/baikal/workspace/C50/Huawei_IoT_Agent_Tiny_SDK_Linux//lwm2m/core/discover.c ****                 head += res;
 1747              		.loc 1 414 0
 1748 03dc B8FFFFFF 		movl	$-1, %eax
GAS LISTING /tmp/ccPMqhYv.s 			page 47


 1748      FF
 1749              	.LVL283:
 1750 03e1 EB13     		jmp	.L85
 1751              	.LVL284:
 1752              	.L102:
 421:/home/baikal/workspace/C50/Huawei_IoT_Agent_Tiny_SDK_Linux//lwm2m/core/discover.c ****     baseUriLen -= 1;
 1753              		.loc 1 421 0
 1754 03e3 B8FFFFFF 		movl	$-1, %eax
 1754      FF
 1755              	.LVL285:
 1756 03e8 EB0C     		jmp	.L85
 1757              	.LVL286:
 1758              	.L103:
 427:/home/baikal/workspace/C50/Huawei_IoT_Agent_Tiny_SDK_Linux//lwm2m/core/discover.c ****         head += res;
 1759              		.loc 1 427 0
 1760 03ea B8FFFFFF 		movl	$-1, %eax
 1760      FF
 1761              	.LVL287:
 1762 03ef EB05     		jmp	.L85
 1763              	.L104:
 436:/home/baikal/workspace/C50/Huawei_IoT_Agent_Tiny_SDK_Linux//lwm2m/core/discover.c ****         memcpy(*bufferP, bufferLink, head);
 1764              		.loc 1 436 0
 1765 03f1 B8000000 		movl	$0, %eax
 1765      00
 1766              	.LVL288:
 1767              	.L85:
 441:/home/baikal/workspace/C50/Huawei_IoT_Agent_Tiny_SDK_Linux//lwm2m/core/discover.c **** }
 1768              		.loc 1 441 0
 1769 03f6 4881C498 		addq	$1176, %rsp
 1769      040000
 1770              	.LCFI61:
 1771              		.cfi_def_cfa_offset 56
 1772 03fd 5B       		popq	%rbx
 1773              	.LCFI62:
 1774              		.cfi_def_cfa_offset 48
 1775 03fe 5D       		popq	%rbp
 1776              	.LCFI63:
 1777              		.cfi_def_cfa_offset 40
 1778 03ff 415C     		popq	%r12
 1779              	.LCFI64:
 1780              		.cfi_def_cfa_offset 32
 1781              	.LVL289:
 1782 0401 415D     		popq	%r13
 1783              	.LCFI65:
 1784              		.cfi_def_cfa_offset 24
 1785              	.LVL290:
 1786 0403 415E     		popq	%r14
 1787              	.LCFI66:
 1788              		.cfi_def_cfa_offset 16
 1789 0405 415F     		popq	%r15
 1790              	.LCFI67:
 1791              		.cfi_def_cfa_offset 8
 1792              	.LVL291:
 1793 0407 C3       		ret
 1794              		.cfi_endproc
 1795              	.LFE66:
 1797              		.text
GAS LISTING /tmp/ccPMqhYv.s 			page 48


 1798              	.Letext0:
 1799              		.file 3 "/usr/include/stdint.h"
 1800              		.file 4 "/usr/lib/gcc/x86_64-linux-gnu/5/include/stddef.h"
 1801              		.file 5 "/usr/include/x86_64-linux-gnu/bits/types.h"
 1802              		.file 6 "/usr/include/time.h"
 1803              		.file 7 "/home/baikal/workspace/C50/Huawei_IoT_Agent_Tiny_SDK_Linux//lwm2m/core/er-coap-13/er-coap
 1804              		.file 8 "/usr/include/libio.h"
 1805              		.file 9 "/home/baikal/workspace/C50/Huawei_IoT_Agent_Tiny_SDK_Linux//lwm2m/core/liblwm2m.h"
 1806              		.file 10 "/usr/include/stdio.h"
 1807              		.file 11 "/home/baikal/workspace/C50/Huawei_IoT_Agent_Tiny_SDK_Linux//lwm2m/core/internals.h"
 1808              		.file 12 "<built-in>"
GAS LISTING /tmp/ccPMqhYv.s 			page 49

