GAS LISTING /tmp/ccSAldBr.s 			page 1


   1              		.file	"er-coap-13.c"
   2              		.text
   3              	.Ltext0:
   4              		.section	.text.coap_log_2,"ax",@progbits
   6              	coap_log_2:
   7              	.LFB63:
   8              		.file 1 "/home/baikal/workspace/C50/Huawei_IoT_Agent_Tiny_SDK_Linux//lwm2m/core/er-coap-13/er-coap
   1:/home/baikal/workspace/C50/Huawei_IoT_Agent_Tiny_SDK_Linux//lwm2m/core/er-coap-13/er-coap-13.c **** /*----------------------------------------------------------------------------
   2:/home/baikal/workspace/C50/Huawei_IoT_Agent_Tiny_SDK_Linux//lwm2m/core/er-coap-13/er-coap-13.c ****  * Copyright (c) <2016-2018>, <Huawei Technologies Co., Ltd>
   3:/home/baikal/workspace/C50/Huawei_IoT_Agent_Tiny_SDK_Linux//lwm2m/core/er-coap-13/er-coap-13.c ****  * All rights reserved.
   4:/home/baikal/workspace/C50/Huawei_IoT_Agent_Tiny_SDK_Linux//lwm2m/core/er-coap-13/er-coap-13.c ****  * Redistribution and use in source and binary forms, with or without modification,
   5:/home/baikal/workspace/C50/Huawei_IoT_Agent_Tiny_SDK_Linux//lwm2m/core/er-coap-13/er-coap-13.c ****  * are permitted provided that the following conditions are met:
   6:/home/baikal/workspace/C50/Huawei_IoT_Agent_Tiny_SDK_Linux//lwm2m/core/er-coap-13/er-coap-13.c ****  * 1. Redistributions of source code must retain the above copyright notice, this list of
   7:/home/baikal/workspace/C50/Huawei_IoT_Agent_Tiny_SDK_Linux//lwm2m/core/er-coap-13/er-coap-13.c ****  * conditions and the following disclaimer.
   8:/home/baikal/workspace/C50/Huawei_IoT_Agent_Tiny_SDK_Linux//lwm2m/core/er-coap-13/er-coap-13.c ****  * 2. Redistributions in binary form must reproduce the above copyright notice, this list
   9:/home/baikal/workspace/C50/Huawei_IoT_Agent_Tiny_SDK_Linux//lwm2m/core/er-coap-13/er-coap-13.c ****  * of conditions and the following disclaimer in the documentation and/or other materials
  10:/home/baikal/workspace/C50/Huawei_IoT_Agent_Tiny_SDK_Linux//lwm2m/core/er-coap-13/er-coap-13.c ****  * provided with the distribution.
  11:/home/baikal/workspace/C50/Huawei_IoT_Agent_Tiny_SDK_Linux//lwm2m/core/er-coap-13/er-coap-13.c ****  * 3. Neither the name of the copyright holder nor the names of its contributors may be used
  12:/home/baikal/workspace/C50/Huawei_IoT_Agent_Tiny_SDK_Linux//lwm2m/core/er-coap-13/er-coap-13.c ****  * to endorse or promote products derived from this software without specific prior written
  13:/home/baikal/workspace/C50/Huawei_IoT_Agent_Tiny_SDK_Linux//lwm2m/core/er-coap-13/er-coap-13.c ****  * permission.
  14:/home/baikal/workspace/C50/Huawei_IoT_Agent_Tiny_SDK_Linux//lwm2m/core/er-coap-13/er-coap-13.c ****  * THIS SOFTWARE IS PROVIDED BY THE COPYRIGHT HOLDERS AND CONTRIBUTORS
  15:/home/baikal/workspace/C50/Huawei_IoT_Agent_Tiny_SDK_Linux//lwm2m/core/er-coap-13/er-coap-13.c ****  * "AS IS" AND ANY EXPRESS OR IMPLIED WARRANTIES, INCLUDING, BUT NOT LIMITED TO,
  16:/home/baikal/workspace/C50/Huawei_IoT_Agent_Tiny_SDK_Linux//lwm2m/core/er-coap-13/er-coap-13.c ****  * THE IMPLIED WARRANTIES OF MERCHANTABILITY AND FITNESS FOR A PARTICULAR
  17:/home/baikal/workspace/C50/Huawei_IoT_Agent_Tiny_SDK_Linux//lwm2m/core/er-coap-13/er-coap-13.c ****  * PURPOSE ARE DISCLAIMED. IN NO EVENT SHALL THE COPYRIGHT HOLDER OR
  18:/home/baikal/workspace/C50/Huawei_IoT_Agent_Tiny_SDK_Linux//lwm2m/core/er-coap-13/er-coap-13.c ****  * CONTRIBUTORS BE LIABLE FOR ANY DIRECT, INDIRECT, INCIDENTAL, SPECIAL,
  19:/home/baikal/workspace/C50/Huawei_IoT_Agent_Tiny_SDK_Linux//lwm2m/core/er-coap-13/er-coap-13.c ****  * EXEMPLARY, OR CONSEQUENTIAL DAMAGES (INCLUDING, BUT NOT LIMITED TO,
  20:/home/baikal/workspace/C50/Huawei_IoT_Agent_Tiny_SDK_Linux//lwm2m/core/er-coap-13/er-coap-13.c ****  * PROCUREMENT OF SUBSTITUTE GOODS OR SERVICES; LOSS OF USE, DATA, OR PROFITS;
  21:/home/baikal/workspace/C50/Huawei_IoT_Agent_Tiny_SDK_Linux//lwm2m/core/er-coap-13/er-coap-13.c ****  * OR BUSINESS INTERRUPTION) HOWEVER CAUSED AND ON ANY THEORY OF LIABILITY,
  22:/home/baikal/workspace/C50/Huawei_IoT_Agent_Tiny_SDK_Linux//lwm2m/core/er-coap-13/er-coap-13.c ****  * WHETHER IN CONTRACT, STRICT LIABILITY, OR TORT (INCLUDING NEGLIGENCE OR
  23:/home/baikal/workspace/C50/Huawei_IoT_Agent_Tiny_SDK_Linux//lwm2m/core/er-coap-13/er-coap-13.c ****  * OTHERWISE) ARISING IN ANY WAY OUT OF THE USE OF THIS SOFTWARE, EVEN IF
  24:/home/baikal/workspace/C50/Huawei_IoT_Agent_Tiny_SDK_Linux//lwm2m/core/er-coap-13/er-coap-13.c ****  * ADVISED OF THE POSSIBILITY OF SUCH DAMAGE.
  25:/home/baikal/workspace/C50/Huawei_IoT_Agent_Tiny_SDK_Linux//lwm2m/core/er-coap-13/er-coap-13.c ****  *---------------------------------------------------------------------------*/
  26:/home/baikal/workspace/C50/Huawei_IoT_Agent_Tiny_SDK_Linux//lwm2m/core/er-coap-13/er-coap-13.c **** /*----------------------------------------------------------------------------
  27:/home/baikal/workspace/C50/Huawei_IoT_Agent_Tiny_SDK_Linux//lwm2m/core/er-coap-13/er-coap-13.c ****  * Notice of Export Control Law
  28:/home/baikal/workspace/C50/Huawei_IoT_Agent_Tiny_SDK_Linux//lwm2m/core/er-coap-13/er-coap-13.c ****  * ===============================================
  29:/home/baikal/workspace/C50/Huawei_IoT_Agent_Tiny_SDK_Linux//lwm2m/core/er-coap-13/er-coap-13.c ****  * Huawei LiteOS may be subject to applicable export control laws and regulations, which might
  30:/home/baikal/workspace/C50/Huawei_IoT_Agent_Tiny_SDK_Linux//lwm2m/core/er-coap-13/er-coap-13.c ****  * include those applicable to Huawei LiteOS of U.S. and the country in which you are located.
  31:/home/baikal/workspace/C50/Huawei_IoT_Agent_Tiny_SDK_Linux//lwm2m/core/er-coap-13/er-coap-13.c ****  * Import, export and usage of Huawei LiteOS in any manner by you shall be in compliance with such
  32:/home/baikal/workspace/C50/Huawei_IoT_Agent_Tiny_SDK_Linux//lwm2m/core/er-coap-13/er-coap-13.c ****  * applicable export control laws and regulations.
  33:/home/baikal/workspace/C50/Huawei_IoT_Agent_Tiny_SDK_Linux//lwm2m/core/er-coap-13/er-coap-13.c ****  *---------------------------------------------------------------------------*/
  34:/home/baikal/workspace/C50/Huawei_IoT_Agent_Tiny_SDK_Linux//lwm2m/core/er-coap-13/er-coap-13.c **** 
  35:/home/baikal/workspace/C50/Huawei_IoT_Agent_Tiny_SDK_Linux//lwm2m/core/er-coap-13/er-coap-13.c **** /*
  36:/home/baikal/workspace/C50/Huawei_IoT_Agent_Tiny_SDK_Linux//lwm2m/core/er-coap-13/er-coap-13.c ****  * Copyright (c) 2013, Institute for Pervasive Computing, ETH Zurich
  37:/home/baikal/workspace/C50/Huawei_IoT_Agent_Tiny_SDK_Linux//lwm2m/core/er-coap-13/er-coap-13.c ****  * All rights reserved.
  38:/home/baikal/workspace/C50/Huawei_IoT_Agent_Tiny_SDK_Linux//lwm2m/core/er-coap-13/er-coap-13.c ****  *
  39:/home/baikal/workspace/C50/Huawei_IoT_Agent_Tiny_SDK_Linux//lwm2m/core/er-coap-13/er-coap-13.c ****  * Redistribution and use in source and binary forms, with or without
  40:/home/baikal/workspace/C50/Huawei_IoT_Agent_Tiny_SDK_Linux//lwm2m/core/er-coap-13/er-coap-13.c ****  * modification, are permitted provided that the following conditions
  41:/home/baikal/workspace/C50/Huawei_IoT_Agent_Tiny_SDK_Linux//lwm2m/core/er-coap-13/er-coap-13.c ****  * are met:
  42:/home/baikal/workspace/C50/Huawei_IoT_Agent_Tiny_SDK_Linux//lwm2m/core/er-coap-13/er-coap-13.c ****  * 1. Redistributions of source code must retain the above copyright
  43:/home/baikal/workspace/C50/Huawei_IoT_Agent_Tiny_SDK_Linux//lwm2m/core/er-coap-13/er-coap-13.c ****  *    notice, this list of conditions and the following disclaimer.
  44:/home/baikal/workspace/C50/Huawei_IoT_Agent_Tiny_SDK_Linux//lwm2m/core/er-coap-13/er-coap-13.c ****  * 2. Redistributions in binary form must reproduce the above copyright
  45:/home/baikal/workspace/C50/Huawei_IoT_Agent_Tiny_SDK_Linux//lwm2m/core/er-coap-13/er-coap-13.c ****  *    notice, this list of conditions and the following disclaimer in the
  46:/home/baikal/workspace/C50/Huawei_IoT_Agent_Tiny_SDK_Linux//lwm2m/core/er-coap-13/er-coap-13.c ****  *    documentation and/or other materials provided with the distribution.
  47:/home/baikal/workspace/C50/Huawei_IoT_Agent_Tiny_SDK_Linux//lwm2m/core/er-coap-13/er-coap-13.c ****  * 3. Neither the name of the Institute nor the names of its contributors
  48:/home/baikal/workspace/C50/Huawei_IoT_Agent_Tiny_SDK_Linux//lwm2m/core/er-coap-13/er-coap-13.c ****  *    may be used to endorse or promote products derived from this software
  49:/home/baikal/workspace/C50/Huawei_IoT_Agent_Tiny_SDK_Linux//lwm2m/core/er-coap-13/er-coap-13.c ****  *    without specific prior written permission.
  50:/home/baikal/workspace/C50/Huawei_IoT_Agent_Tiny_SDK_Linux//lwm2m/core/er-coap-13/er-coap-13.c ****  *
GAS LISTING /tmp/ccSAldBr.s 			page 2


  51:/home/baikal/workspace/C50/Huawei_IoT_Agent_Tiny_SDK_Linux//lwm2m/core/er-coap-13/er-coap-13.c ****  * THIS SOFTWARE IS PROVIDED BY THE INSTITUTE AND CONTRIBUTORS ``AS IS'' AND
  52:/home/baikal/workspace/C50/Huawei_IoT_Agent_Tiny_SDK_Linux//lwm2m/core/er-coap-13/er-coap-13.c ****  * ANY EXPRESS OR IMPLIED WARRANTIES, INCLUDING, BUT NOT LIMITED TO, THE
  53:/home/baikal/workspace/C50/Huawei_IoT_Agent_Tiny_SDK_Linux//lwm2m/core/er-coap-13/er-coap-13.c ****  * IMPLIED WARRANTIES OF MERCHANTABILITY AND FITNESS FOR A PARTICULAR PURPOSE
  54:/home/baikal/workspace/C50/Huawei_IoT_Agent_Tiny_SDK_Linux//lwm2m/core/er-coap-13/er-coap-13.c ****  * ARE DISCLAIMED.  IN NO EVENT SHALL THE INSTITUTE OR CONTRIBUTORS BE LIABLE
  55:/home/baikal/workspace/C50/Huawei_IoT_Agent_Tiny_SDK_Linux//lwm2m/core/er-coap-13/er-coap-13.c ****  * FOR ANY DIRECT, INDIRECT, INCIDENTAL, SPECIAL, EXEMPLARY, OR CONSEQUENTIAL
  56:/home/baikal/workspace/C50/Huawei_IoT_Agent_Tiny_SDK_Linux//lwm2m/core/er-coap-13/er-coap-13.c ****  * DAMAGES (INCLUDING, BUT NOT LIMITED TO, PROCUREMENT OF SUBSTITUTE GOODS
  57:/home/baikal/workspace/C50/Huawei_IoT_Agent_Tiny_SDK_Linux//lwm2m/core/er-coap-13/er-coap-13.c ****  * OR SERVICES; LOSS OF USE, DATA, OR PROFITS; OR BUSINESS INTERRUPTION)
  58:/home/baikal/workspace/C50/Huawei_IoT_Agent_Tiny_SDK_Linux//lwm2m/core/er-coap-13/er-coap-13.c ****  * HOWEVER CAUSED AND ON ANY THEORY OF LIABILITY, WHETHER IN CONTRACT, STRICT
  59:/home/baikal/workspace/C50/Huawei_IoT_Agent_Tiny_SDK_Linux//lwm2m/core/er-coap-13/er-coap-13.c ****  * LIABILITY, OR TORT (INCLUDING NEGLIGENCE OR OTHERWISE) ARISING IN ANY WAY
  60:/home/baikal/workspace/C50/Huawei_IoT_Agent_Tiny_SDK_Linux//lwm2m/core/er-coap-13/er-coap-13.c ****  * OUT OF THE USE OF THIS SOFTWARE, EVEN IF ADVISED OF THE POSSIBILITY OF
  61:/home/baikal/workspace/C50/Huawei_IoT_Agent_Tiny_SDK_Linux//lwm2m/core/er-coap-13/er-coap-13.c ****  * SUCH DAMAGE.
  62:/home/baikal/workspace/C50/Huawei_IoT_Agent_Tiny_SDK_Linux//lwm2m/core/er-coap-13/er-coap-13.c ****  *
  63:/home/baikal/workspace/C50/Huawei_IoT_Agent_Tiny_SDK_Linux//lwm2m/core/er-coap-13/er-coap-13.c ****  * This file is part of the Contiki operating system.
  64:/home/baikal/workspace/C50/Huawei_IoT_Agent_Tiny_SDK_Linux//lwm2m/core/er-coap-13/er-coap-13.c ****  */
  65:/home/baikal/workspace/C50/Huawei_IoT_Agent_Tiny_SDK_Linux//lwm2m/core/er-coap-13/er-coap-13.c **** 
  66:/home/baikal/workspace/C50/Huawei_IoT_Agent_Tiny_SDK_Linux//lwm2m/core/er-coap-13/er-coap-13.c **** /**
  67:/home/baikal/workspace/C50/Huawei_IoT_Agent_Tiny_SDK_Linux//lwm2m/core/er-coap-13/er-coap-13.c ****  * \file
  68:/home/baikal/workspace/C50/Huawei_IoT_Agent_Tiny_SDK_Linux//lwm2m/core/er-coap-13/er-coap-13.c ****  *      An implementation of the Constrained Application Protocol (draft 12)
  69:/home/baikal/workspace/C50/Huawei_IoT_Agent_Tiny_SDK_Linux//lwm2m/core/er-coap-13/er-coap-13.c ****  * \author
  70:/home/baikal/workspace/C50/Huawei_IoT_Agent_Tiny_SDK_Linux//lwm2m/core/er-coap-13/er-coap-13.c ****  *      Matthias Kovatsch <kovatsch@inf.ethz.ch>
  71:/home/baikal/workspace/C50/Huawei_IoT_Agent_Tiny_SDK_Linux//lwm2m/core/er-coap-13/er-coap-13.c ****  * \contributors
  72:/home/baikal/workspace/C50/Huawei_IoT_Agent_Tiny_SDK_Linux//lwm2m/core/er-coap-13/er-coap-13.c ****  *    David Navarro, Intel Corporation - Adapt to usage in liblwm2m
  73:/home/baikal/workspace/C50/Huawei_IoT_Agent_Tiny_SDK_Linux//lwm2m/core/er-coap-13/er-coap-13.c ****  */
  74:/home/baikal/workspace/C50/Huawei_IoT_Agent_Tiny_SDK_Linux//lwm2m/core/er-coap-13/er-coap-13.c **** 
  75:/home/baikal/workspace/C50/Huawei_IoT_Agent_Tiny_SDK_Linux//lwm2m/core/er-coap-13/er-coap-13.c **** 
  76:/home/baikal/workspace/C50/Huawei_IoT_Agent_Tiny_SDK_Linux//lwm2m/core/er-coap-13/er-coap-13.c **** #include <stdlib.h>
  77:/home/baikal/workspace/C50/Huawei_IoT_Agent_Tiny_SDK_Linux//lwm2m/core/er-coap-13/er-coap-13.c **** 
  78:/home/baikal/workspace/C50/Huawei_IoT_Agent_Tiny_SDK_Linux//lwm2m/core/er-coap-13/er-coap-13.c **** #include <string.h>
  79:/home/baikal/workspace/C50/Huawei_IoT_Agent_Tiny_SDK_Linux//lwm2m/core/er-coap-13/er-coap-13.c **** #include <stdio.h>
  80:/home/baikal/workspace/C50/Huawei_IoT_Agent_Tiny_SDK_Linux//lwm2m/core/er-coap-13/er-coap-13.c **** 
  81:/home/baikal/workspace/C50/Huawei_IoT_Agent_Tiny_SDK_Linux//lwm2m/core/er-coap-13/er-coap-13.c **** #include "er-coap-13.h"
  82:/home/baikal/workspace/C50/Huawei_IoT_Agent_Tiny_SDK_Linux//lwm2m/core/er-coap-13/er-coap-13.c **** #include "internals.h"
  83:/home/baikal/workspace/C50/Huawei_IoT_Agent_Tiny_SDK_Linux//lwm2m/core/er-coap-13/er-coap-13.c **** #include "liblwm2m.h" /* for lwm2m_malloc() and lwm2m_free() */
  84:/home/baikal/workspace/C50/Huawei_IoT_Agent_Tiny_SDK_Linux//lwm2m/core/er-coap-13/er-coap-13.c **** 
  85:/home/baikal/workspace/C50/Huawei_IoT_Agent_Tiny_SDK_Linux//lwm2m/core/er-coap-13/er-coap-13.c **** #define DEBUG 0
  86:/home/baikal/workspace/C50/Huawei_IoT_Agent_Tiny_SDK_Linux//lwm2m/core/er-coap-13/er-coap-13.c **** #if DEBUG
  87:/home/baikal/workspace/C50/Huawei_IoT_Agent_Tiny_SDK_Linux//lwm2m/core/er-coap-13/er-coap-13.c **** #include <stdio.h>
  88:/home/baikal/workspace/C50/Huawei_IoT_Agent_Tiny_SDK_Linux//lwm2m/core/er-coap-13/er-coap-13.c **** #define PRINTF(...) printf(__VA_ARGS__)
  89:/home/baikal/workspace/C50/Huawei_IoT_Agent_Tiny_SDK_Linux//lwm2m/core/er-coap-13/er-coap-13.c **** #define PRINT6ADDR(addr) PRINTF("[%02x%02x:%02x%02x:%02x%02x:%02x%02x:%02x%02x:%02x%02x:%02x%02x:%0
  90:/home/baikal/workspace/C50/Huawei_IoT_Agent_Tiny_SDK_Linux//lwm2m/core/er-coap-13/er-coap-13.c **** #define PRINTLLADDR(lladdr) PRINTF("[%02x:%02x:%02x:%02x:%02x:%02x]",(lladdr)->addr[0], (lladdr)->a
  91:/home/baikal/workspace/C50/Huawei_IoT_Agent_Tiny_SDK_Linux//lwm2m/core/er-coap-13/er-coap-13.c **** #else
  92:/home/baikal/workspace/C50/Huawei_IoT_Agent_Tiny_SDK_Linux//lwm2m/core/er-coap-13/er-coap-13.c **** #define PRINTF(...)
  93:/home/baikal/workspace/C50/Huawei_IoT_Agent_Tiny_SDK_Linux//lwm2m/core/er-coap-13/er-coap-13.c **** #define PRINT6ADDR(addr)
  94:/home/baikal/workspace/C50/Huawei_IoT_Agent_Tiny_SDK_Linux//lwm2m/core/er-coap-13/er-coap-13.c **** #define PRINTLLADDR(addr)
  95:/home/baikal/workspace/C50/Huawei_IoT_Agent_Tiny_SDK_Linux//lwm2m/core/er-coap-13/er-coap-13.c **** #endif
  96:/home/baikal/workspace/C50/Huawei_IoT_Agent_Tiny_SDK_Linux//lwm2m/core/er-coap-13/er-coap-13.c **** 
  97:/home/baikal/workspace/C50/Huawei_IoT_Agent_Tiny_SDK_Linux//lwm2m/core/er-coap-13/er-coap-13.c **** /*-----------------------------------------------------------------------------------*/
  98:/home/baikal/workspace/C50/Huawei_IoT_Agent_Tiny_SDK_Linux//lwm2m/core/er-coap-13/er-coap-13.c **** /*- Variables -----------------------------------------------------------------------*/
  99:/home/baikal/workspace/C50/Huawei_IoT_Agent_Tiny_SDK_Linux//lwm2m/core/er-coap-13/er-coap-13.c **** /*-----------------------------------------------------------------------------------*/
 100:/home/baikal/workspace/C50/Huawei_IoT_Agent_Tiny_SDK_Linux//lwm2m/core/er-coap-13/er-coap-13.c **** static uint16_t current_mid = 0;
 101:/home/baikal/workspace/C50/Huawei_IoT_Agent_Tiny_SDK_Linux//lwm2m/core/er-coap-13/er-coap-13.c **** 
 102:/home/baikal/workspace/C50/Huawei_IoT_Agent_Tiny_SDK_Linux//lwm2m/core/er-coap-13/er-coap-13.c **** coap_status_t coap_error_code = NO_ERROR;
 103:/home/baikal/workspace/C50/Huawei_IoT_Agent_Tiny_SDK_Linux//lwm2m/core/er-coap-13/er-coap-13.c **** const char *coap_error_message = "";
 104:/home/baikal/workspace/C50/Huawei_IoT_Agent_Tiny_SDK_Linux//lwm2m/core/er-coap-13/er-coap-13.c **** /*-----------------------------------------------------------------------------------*/
 105:/home/baikal/workspace/C50/Huawei_IoT_Agent_Tiny_SDK_Linux//lwm2m/core/er-coap-13/er-coap-13.c **** /*- LOCAL HELP FUNCTIONS ------------------------------------------------------------*/
 106:/home/baikal/workspace/C50/Huawei_IoT_Agent_Tiny_SDK_Linux//lwm2m/core/er-coap-13/er-coap-13.c **** /*-----------------------------------------------------------------------------------*/
 107:/home/baikal/workspace/C50/Huawei_IoT_Agent_Tiny_SDK_Linux//lwm2m/core/er-coap-13/er-coap-13.c **** static
GAS LISTING /tmp/ccSAldBr.s 			page 3


 108:/home/baikal/workspace/C50/Huawei_IoT_Agent_Tiny_SDK_Linux//lwm2m/core/er-coap-13/er-coap-13.c **** uint16_t
 109:/home/baikal/workspace/C50/Huawei_IoT_Agent_Tiny_SDK_Linux//lwm2m/core/er-coap-13/er-coap-13.c **** coap_log_2(uint16_t value)
 110:/home/baikal/workspace/C50/Huawei_IoT_Agent_Tiny_SDK_Linux//lwm2m/core/er-coap-13/er-coap-13.c **** {
   9              		.loc 1 110 0
  10              		.cfi_startproc
  11              	.LVL0:
 111:/home/baikal/workspace/C50/Huawei_IoT_Agent_Tiny_SDK_Linux//lwm2m/core/er-coap-13/er-coap-13.c ****     uint16_t result = 0;
  12              		.loc 1 111 0
  13 0000 BA000000 		movl	$0, %edx
  13      00
  14 0005 EB02     		jmp	.L2
  15              	.LVL1:
  16              	.L4:
 112:/home/baikal/workspace/C50/Huawei_IoT_Agent_Tiny_SDK_Linux//lwm2m/core/er-coap-13/er-coap-13.c ****     do
 113:/home/baikal/workspace/C50/Huawei_IoT_Agent_Tiny_SDK_Linux//lwm2m/core/er-coap-13/er-coap-13.c ****     {
 114:/home/baikal/workspace/C50/Huawei_IoT_Agent_Tiny_SDK_Linux//lwm2m/core/er-coap-13/er-coap-13.c ****         value = value >> 1;
 115:/home/baikal/workspace/C50/Huawei_IoT_Agent_Tiny_SDK_Linux//lwm2m/core/er-coap-13/er-coap-13.c ****         result++;
  17              		.loc 1 115 0
  18 0007 89C2     		movl	%eax, %edx
  19              	.LVL2:
  20              	.L2:
  21              		.loc 1 115 0 is_stmt 0 discriminator 1
  22 0009 8D4201   		leal	1(%rdx), %eax
  23              	.LVL3:
 116:/home/baikal/workspace/C50/Huawei_IoT_Agent_Tiny_SDK_Linux//lwm2m/core/er-coap-13/er-coap-13.c ****     }
 117:/home/baikal/workspace/C50/Huawei_IoT_Agent_Tiny_SDK_Linux//lwm2m/core/er-coap-13/er-coap-13.c ****     while (value);
  24              		.loc 1 117 0 is_stmt 1 discriminator 1
  25 000c 66D1EF   		shrw	%di
  26              	.LVL4:
  27 000f 75F6     		jne	.L4
 118:/home/baikal/workspace/C50/Huawei_IoT_Agent_Tiny_SDK_Linux//lwm2m/core/er-coap-13/er-coap-13.c **** 
 119:/home/baikal/workspace/C50/Huawei_IoT_Agent_Tiny_SDK_Linux//lwm2m/core/er-coap-13/er-coap-13.c ****     return result ? result - 1 : result;
  28              		.loc 1 119 0
  29 0011 6685C0   		testw	%ax, %ax
  30 0014 7402     		je	.L3
  31 0016 89D0     		movl	%edx, %eax
  32              	.LVL5:
  33              	.L3:
 120:/home/baikal/workspace/C50/Huawei_IoT_Agent_Tiny_SDK_Linux//lwm2m/core/er-coap-13/er-coap-13.c **** }
  34              		.loc 1 120 0 discriminator 4
  35 0018 F3C3     		rep ret
  36              		.cfi_endproc
  37              	.LFE63:
  39              		.section	.text.coap_parse_int_option,"ax",@progbits
  41              	coap_parse_int_option:
  42              	.LFB64:
 121:/home/baikal/workspace/C50/Huawei_IoT_Agent_Tiny_SDK_Linux//lwm2m/core/er-coap-13/er-coap-13.c **** /*-----------------------------------------------------------------------------------*/
 122:/home/baikal/workspace/C50/Huawei_IoT_Agent_Tiny_SDK_Linux//lwm2m/core/er-coap-13/er-coap-13.c **** static
 123:/home/baikal/workspace/C50/Huawei_IoT_Agent_Tiny_SDK_Linux//lwm2m/core/er-coap-13/er-coap-13.c **** uint32_t
 124:/home/baikal/workspace/C50/Huawei_IoT_Agent_Tiny_SDK_Linux//lwm2m/core/er-coap-13/er-coap-13.c **** coap_parse_int_option(uint8_t *bytes, size_t length)
 125:/home/baikal/workspace/C50/Huawei_IoT_Agent_Tiny_SDK_Linux//lwm2m/core/er-coap-13/er-coap-13.c **** {
  43              		.loc 1 125 0
  44              		.cfi_startproc
  45              	.LVL6:
 126:/home/baikal/workspace/C50/Huawei_IoT_Agent_Tiny_SDK_Linux//lwm2m/core/er-coap-13/er-coap-13.c ****     uint32_t var = 0;
 127:/home/baikal/workspace/C50/Huawei_IoT_Agent_Tiny_SDK_Linux//lwm2m/core/er-coap-13/er-coap-13.c ****     size_t i = 0;
  46              		.loc 1 127 0
GAS LISTING /tmp/ccSAldBr.s 			page 4


  47 0000 BA000000 		movl	$0, %edx
  47      00
 126:/home/baikal/workspace/C50/Huawei_IoT_Agent_Tiny_SDK_Linux//lwm2m/core/er-coap-13/er-coap-13.c ****     uint32_t var = 0;
  48              		.loc 1 126 0
  49 0005 B8000000 		movl	$0, %eax
  49      00
 128:/home/baikal/workspace/C50/Huawei_IoT_Agent_Tiny_SDK_Linux//lwm2m/core/er-coap-13/er-coap-13.c ****     while (i < length)
  50              		.loc 1 128 0
  51 000a EB0D     		jmp	.L6
  52              	.LVL7:
  53              	.L7:
 129:/home/baikal/workspace/C50/Huawei_IoT_Agent_Tiny_SDK_Linux//lwm2m/core/er-coap-13/er-coap-13.c ****     {
 130:/home/baikal/workspace/C50/Huawei_IoT_Agent_Tiny_SDK_Linux//lwm2m/core/er-coap-13/er-coap-13.c ****         var <<= 8;
  54              		.loc 1 130 0
  55 000c C1E008   		sall	$8, %eax
  56              	.LVL8:
 131:/home/baikal/workspace/C50/Huawei_IoT_Agent_Tiny_SDK_Linux//lwm2m/core/er-coap-13/er-coap-13.c ****         var |= bytes[i++];
  57              		.loc 1 131 0
  58 000f 0FB60C17 		movzbl	(%rdi,%rdx), %ecx
  59 0013 09C8     		orl	%ecx, %eax
  60              	.LVL9:
  61 0015 488D5201 		leaq	1(%rdx), %rdx
  62              	.LVL10:
  63              	.L6:
 128:/home/baikal/workspace/C50/Huawei_IoT_Agent_Tiny_SDK_Linux//lwm2m/core/er-coap-13/er-coap-13.c ****     while (i < length)
  64              		.loc 1 128 0
  65 0019 4839F2   		cmpq	%rsi, %rdx
  66 001c 72EE     		jb	.L7
 132:/home/baikal/workspace/C50/Huawei_IoT_Agent_Tiny_SDK_Linux//lwm2m/core/er-coap-13/er-coap-13.c ****     }
 133:/home/baikal/workspace/C50/Huawei_IoT_Agent_Tiny_SDK_Linux//lwm2m/core/er-coap-13/er-coap-13.c ****     return var;
 134:/home/baikal/workspace/C50/Huawei_IoT_Agent_Tiny_SDK_Linux//lwm2m/core/er-coap-13/er-coap-13.c **** }
  67              		.loc 1 134 0
  68 001e F3C3     		rep ret
  69              		.cfi_endproc
  70              	.LFE64:
  72              		.section	.text.coap_option_nibble,"ax",@progbits
  74              	coap_option_nibble:
  75              	.LFB65:
 135:/home/baikal/workspace/C50/Huawei_IoT_Agent_Tiny_SDK_Linux//lwm2m/core/er-coap-13/er-coap-13.c **** /*-----------------------------------------------------------------------------------*/
 136:/home/baikal/workspace/C50/Huawei_IoT_Agent_Tiny_SDK_Linux//lwm2m/core/er-coap-13/er-coap-13.c **** static
 137:/home/baikal/workspace/C50/Huawei_IoT_Agent_Tiny_SDK_Linux//lwm2m/core/er-coap-13/er-coap-13.c **** uint8_t
 138:/home/baikal/workspace/C50/Huawei_IoT_Agent_Tiny_SDK_Linux//lwm2m/core/er-coap-13/er-coap-13.c **** coap_option_nibble(unsigned int value)
 139:/home/baikal/workspace/C50/Huawei_IoT_Agent_Tiny_SDK_Linux//lwm2m/core/er-coap-13/er-coap-13.c **** {
  76              		.loc 1 139 0
  77              		.cfi_startproc
  78              	.LVL11:
 140:/home/baikal/workspace/C50/Huawei_IoT_Agent_Tiny_SDK_Linux//lwm2m/core/er-coap-13/er-coap-13.c ****     if (value < 13)
  79              		.loc 1 140 0
  80 0000 83FF0C   		cmpl	$12, %edi
  81 0003 7703     		ja	.L9
 141:/home/baikal/workspace/C50/Huawei_IoT_Agent_Tiny_SDK_Linux//lwm2m/core/er-coap-13/er-coap-13.c ****     {
 142:/home/baikal/workspace/C50/Huawei_IoT_Agent_Tiny_SDK_Linux//lwm2m/core/er-coap-13/er-coap-13.c ****         return value;
  82              		.loc 1 142 0
  83 0005 89F8     		movl	%edi, %eax
  84 0007 C3       		ret
  85              	.L9:
 143:/home/baikal/workspace/C50/Huawei_IoT_Agent_Tiny_SDK_Linux//lwm2m/core/er-coap-13/er-coap-13.c ****     }
GAS LISTING /tmp/ccSAldBr.s 			page 5


 144:/home/baikal/workspace/C50/Huawei_IoT_Agent_Tiny_SDK_Linux//lwm2m/core/er-coap-13/er-coap-13.c ****     else if (value <= 0xFF + 13)
  86              		.loc 1 144 0
  87 0008 81FF0C01 		cmpl	$268, %edi
  87      0000
  88 000e 7706     		ja	.L11
 145:/home/baikal/workspace/C50/Huawei_IoT_Agent_Tiny_SDK_Linux//lwm2m/core/er-coap-13/er-coap-13.c ****     {
 146:/home/baikal/workspace/C50/Huawei_IoT_Agent_Tiny_SDK_Linux//lwm2m/core/er-coap-13/er-coap-13.c ****         return 13;
  89              		.loc 1 146 0
  90 0010 B80D0000 		movl	$13, %eax
  90      00
  91 0015 C3       		ret
  92              	.L11:
 147:/home/baikal/workspace/C50/Huawei_IoT_Agent_Tiny_SDK_Linux//lwm2m/core/er-coap-13/er-coap-13.c ****     }
 148:/home/baikal/workspace/C50/Huawei_IoT_Agent_Tiny_SDK_Linux//lwm2m/core/er-coap-13/er-coap-13.c ****     else
 149:/home/baikal/workspace/C50/Huawei_IoT_Agent_Tiny_SDK_Linux//lwm2m/core/er-coap-13/er-coap-13.c ****     {
 150:/home/baikal/workspace/C50/Huawei_IoT_Agent_Tiny_SDK_Linux//lwm2m/core/er-coap-13/er-coap-13.c ****         return 14;
  93              		.loc 1 150 0
  94 0016 B80E0000 		movl	$14, %eax
  94      00
 151:/home/baikal/workspace/C50/Huawei_IoT_Agent_Tiny_SDK_Linux//lwm2m/core/er-coap-13/er-coap-13.c ****     }
 152:/home/baikal/workspace/C50/Huawei_IoT_Agent_Tiny_SDK_Linux//lwm2m/core/er-coap-13/er-coap-13.c **** }
  95              		.loc 1 152 0
  96 001b C3       		ret
  97              		.cfi_endproc
  98              	.LFE65:
 100              		.section	.text.coap_set_option_header,"ax",@progbits
 102              	coap_set_option_header:
 103              	.LFB66:
 153:/home/baikal/workspace/C50/Huawei_IoT_Agent_Tiny_SDK_Linux//lwm2m/core/er-coap-13/er-coap-13.c **** /*-----------------------------------------------------------------------------------*/
 154:/home/baikal/workspace/C50/Huawei_IoT_Agent_Tiny_SDK_Linux//lwm2m/core/er-coap-13/er-coap-13.c **** static
 155:/home/baikal/workspace/C50/Huawei_IoT_Agent_Tiny_SDK_Linux//lwm2m/core/er-coap-13/er-coap-13.c **** size_t
 156:/home/baikal/workspace/C50/Huawei_IoT_Agent_Tiny_SDK_Linux//lwm2m/core/er-coap-13/er-coap-13.c **** coap_set_option_header(unsigned int delta, size_t length, uint8_t *buffer)
 157:/home/baikal/workspace/C50/Huawei_IoT_Agent_Tiny_SDK_Linux//lwm2m/core/er-coap-13/er-coap-13.c **** {
 104              		.loc 1 157 0
 105              		.cfi_startproc
 106              	.LVL12:
 107 0000 4154     		pushq	%r12
 108              	.LCFI0:
 109              		.cfi_def_cfa_offset 16
 110              		.cfi_offset 12, -16
 111 0002 55       		pushq	%rbp
 112              	.LCFI1:
 113              		.cfi_def_cfa_offset 24
 114              		.cfi_offset 6, -24
 115 0003 53       		pushq	%rbx
 116              	.LCFI2:
 117              		.cfi_def_cfa_offset 32
 118              		.cfi_offset 3, -32
 119 0004 4883EC10 		subq	$16, %rsp
 120              	.LCFI3:
 121              		.cfi_def_cfa_offset 48
 122 0008 897C240C 		movl	%edi, 12(%rsp)
 123 000c 4989F4   		movq	%rsi, %r12
 124 000f 48893424 		movq	%rsi, (%rsp)
 125 0013 4889D3   		movq	%rdx, %rbx
 126              	.LVL13:
 158:/home/baikal/workspace/C50/Huawei_IoT_Agent_Tiny_SDK_Linux//lwm2m/core/er-coap-13/er-coap-13.c ****     size_t written = 0;
GAS LISTING /tmp/ccSAldBr.s 			page 6


 159:/home/baikal/workspace/C50/Huawei_IoT_Agent_Tiny_SDK_Linux//lwm2m/core/er-coap-13/er-coap-13.c ****     unsigned int *x = &delta;
 160:/home/baikal/workspace/C50/Huawei_IoT_Agent_Tiny_SDK_Linux//lwm2m/core/er-coap-13/er-coap-13.c **** 
 161:/home/baikal/workspace/C50/Huawei_IoT_Agent_Tiny_SDK_Linux//lwm2m/core/er-coap-13/er-coap-13.c ****     buffer[0] = coap_option_nibble(delta) << 4 | coap_option_nibble(length);
 127              		.loc 1 161 0
 128 0016 E8000000 		call	coap_option_nibble
 128      00
 129              	.LVL14:
 130 001b 0FB6E8   		movzbl	%al, %ebp
 131 001e C1E504   		sall	$4, %ebp
 132 0021 4C89E7   		movq	%r12, %rdi
 133 0024 E8000000 		call	coap_option_nibble
 133      00
 134              	.LVL15:
 135 0029 09C5     		orl	%eax, %ebp
 136 002b 40882B   		movb	%bpl, (%rbx)
 159:/home/baikal/workspace/C50/Huawei_IoT_Agent_Tiny_SDK_Linux//lwm2m/core/er-coap-13/er-coap-13.c **** 
 137              		.loc 1 159 0
 138 002e 488D4C24 		leaq	12(%rsp), %rcx
 138      0C
 139              	.LVL16:
 158:/home/baikal/workspace/C50/Huawei_IoT_Agent_Tiny_SDK_Linux//lwm2m/core/er-coap-13/er-coap-13.c ****     size_t written = 0;
 140              		.loc 1 158 0
 141 0033 B8000000 		movl	$0, %eax
 141      00
 142 0038 EB03     		jmp	.L15
 143              	.LVL17:
 144              	.L16:
 162:/home/baikal/workspace/C50/Huawei_IoT_Agent_Tiny_SDK_Linux//lwm2m/core/er-coap-13/er-coap-13.c **** 
 163:/home/baikal/workspace/C50/Huawei_IoT_Agent_Tiny_SDK_Linux//lwm2m/core/er-coap-13/er-coap-13.c ****     /* avoids code duplication without function overhead */
 164:/home/baikal/workspace/C50/Huawei_IoT_Agent_Tiny_SDK_Linux//lwm2m/core/er-coap-13/er-coap-13.c ****     do
 165:/home/baikal/workspace/C50/Huawei_IoT_Agent_Tiny_SDK_Linux//lwm2m/core/er-coap-13/er-coap-13.c ****     {
 166:/home/baikal/workspace/C50/Huawei_IoT_Agent_Tiny_SDK_Linux//lwm2m/core/er-coap-13/er-coap-13.c ****         if (*x > 268)
 167:/home/baikal/workspace/C50/Huawei_IoT_Agent_Tiny_SDK_Linux//lwm2m/core/er-coap-13/er-coap-13.c ****         {
 168:/home/baikal/workspace/C50/Huawei_IoT_Agent_Tiny_SDK_Linux//lwm2m/core/er-coap-13/er-coap-13.c ****             buffer[++written] = (*x - 269) >> 8;
 169:/home/baikal/workspace/C50/Huawei_IoT_Agent_Tiny_SDK_Linux//lwm2m/core/er-coap-13/er-coap-13.c ****             buffer[++written] = (*x - 269);
 170:/home/baikal/workspace/C50/Huawei_IoT_Agent_Tiny_SDK_Linux//lwm2m/core/er-coap-13/er-coap-13.c ****         }
 171:/home/baikal/workspace/C50/Huawei_IoT_Agent_Tiny_SDK_Linux//lwm2m/core/er-coap-13/er-coap-13.c ****         else if (*x > 12)
 172:/home/baikal/workspace/C50/Huawei_IoT_Agent_Tiny_SDK_Linux//lwm2m/core/er-coap-13/er-coap-13.c ****         {
 173:/home/baikal/workspace/C50/Huawei_IoT_Agent_Tiny_SDK_Linux//lwm2m/core/er-coap-13/er-coap-13.c ****             buffer[++written] = (*x - 13);
 174:/home/baikal/workspace/C50/Huawei_IoT_Agent_Tiny_SDK_Linux//lwm2m/core/er-coap-13/er-coap-13.c ****         }
 175:/home/baikal/workspace/C50/Huawei_IoT_Agent_Tiny_SDK_Linux//lwm2m/core/er-coap-13/er-coap-13.c ****     }
 176:/home/baikal/workspace/C50/Huawei_IoT_Agent_Tiny_SDK_Linux//lwm2m/core/er-coap-13/er-coap-13.c ****     while (x != (unsigned int *)&length && NULL != (x = (unsigned int *)&length));
 145              		.loc 1 176 0
 146 003a 4889D1   		movq	%rdx, %rcx
 147              	.LVL18:
 148              	.L15:
 166:/home/baikal/workspace/C50/Huawei_IoT_Agent_Tiny_SDK_Linux//lwm2m/core/er-coap-13/er-coap-13.c ****         {
 149              		.loc 1 166 0
 150 003d 8B11     		movl	(%rcx), %edx
 151 003f 81FA0C01 		cmpl	$268, %edx
 151      0000
 152 0045 761C     		jbe	.L13
 153              	.LVL19:
 168:/home/baikal/workspace/C50/Huawei_IoT_Agent_Tiny_SDK_Linux//lwm2m/core/er-coap-13/er-coap-13.c ****             buffer[++written] = (*x - 269);
 154              		.loc 1 168 0
 155 0047 81EA0D01 		subl	$269, %edx
 155      0000
GAS LISTING /tmp/ccSAldBr.s 			page 7


 156 004d C1EA08   		shrl	$8, %edx
 157 0050 88540301 		movb	%dl, 1(%rbx,%rax)
 169:/home/baikal/workspace/C50/Huawei_IoT_Agent_Tiny_SDK_Linux//lwm2m/core/er-coap-13/er-coap-13.c ****         }
 158              		.loc 1 169 0
 159 0054 4883C002 		addq	$2, %rax
 160              	.LVL20:
 161 0058 0FB631   		movzbl	(%rcx), %esi
 162 005b 8D56F3   		leal	-13(%rsi), %edx
 163 005e 881403   		movb	%dl, (%rbx,%rax)
 164 0061 EB0F     		jmp	.L14
 165              	.L13:
 171:/home/baikal/workspace/C50/Huawei_IoT_Agent_Tiny_SDK_Linux//lwm2m/core/er-coap-13/er-coap-13.c ****         {
 166              		.loc 1 171 0
 167 0063 83FA0C   		cmpl	$12, %edx
 168 0066 760A     		jbe	.L14
 173:/home/baikal/workspace/C50/Huawei_IoT_Agent_Tiny_SDK_Linux//lwm2m/core/er-coap-13/er-coap-13.c ****         }
 169              		.loc 1 173 0
 170 0068 4883C001 		addq	$1, %rax
 171              	.LVL21:
 172 006c 83EA0D   		subl	$13, %edx
 173 006f 881403   		movb	%dl, (%rbx,%rax)
 174              	.L14:
 175              		.loc 1 176 0
 176 0072 4889E2   		movq	%rsp, %rdx
 177 0075 4839E1   		cmpq	%rsp, %rcx
 178 0078 75C0     		jne	.L16
 179              	.LVL22:
 177:/home/baikal/workspace/C50/Huawei_IoT_Agent_Tiny_SDK_Linux//lwm2m/core/er-coap-13/er-coap-13.c **** 
 178:/home/baikal/workspace/C50/Huawei_IoT_Agent_Tiny_SDK_Linux//lwm2m/core/er-coap-13/er-coap-13.c ****     PRINTF("WRITTEN %u B opt header\n", written);
 179:/home/baikal/workspace/C50/Huawei_IoT_Agent_Tiny_SDK_Linux//lwm2m/core/er-coap-13/er-coap-13.c **** 
 180:/home/baikal/workspace/C50/Huawei_IoT_Agent_Tiny_SDK_Linux//lwm2m/core/er-coap-13/er-coap-13.c ****     return ++written;
 180              		.loc 1 180 0
 181 007a 4883C001 		addq	$1, %rax
 182              	.LVL23:
 181:/home/baikal/workspace/C50/Huawei_IoT_Agent_Tiny_SDK_Linux//lwm2m/core/er-coap-13/er-coap-13.c **** }
 183              		.loc 1 181 0
 184 007e 4883C410 		addq	$16, %rsp
 185              	.LCFI4:
 186              		.cfi_def_cfa_offset 32
 187              	.LVL24:
 188 0082 5B       		popq	%rbx
 189              	.LCFI5:
 190              		.cfi_def_cfa_offset 24
 191              	.LVL25:
 192 0083 5D       		popq	%rbp
 193              	.LCFI6:
 194              		.cfi_def_cfa_offset 16
 195 0084 415C     		popq	%r12
 196              	.LCFI7:
 197              		.cfi_def_cfa_offset 8
 198 0086 C3       		ret
 199              		.cfi_endproc
 200              	.LFE66:
 202              		.section	.text.coap_serialize_int_option,"ax",@progbits
 204              	coap_serialize_int_option:
 205              	.LFB67:
 182:/home/baikal/workspace/C50/Huawei_IoT_Agent_Tiny_SDK_Linux//lwm2m/core/er-coap-13/er-coap-13.c **** /*-----------------------------------------------------------------------------------*/
GAS LISTING /tmp/ccSAldBr.s 			page 8


 183:/home/baikal/workspace/C50/Huawei_IoT_Agent_Tiny_SDK_Linux//lwm2m/core/er-coap-13/er-coap-13.c **** static
 184:/home/baikal/workspace/C50/Huawei_IoT_Agent_Tiny_SDK_Linux//lwm2m/core/er-coap-13/er-coap-13.c **** size_t
 185:/home/baikal/workspace/C50/Huawei_IoT_Agent_Tiny_SDK_Linux//lwm2m/core/er-coap-13/er-coap-13.c **** coap_serialize_int_option(unsigned int number, unsigned int current_number, uint8_t *buffer, uint32
 186:/home/baikal/workspace/C50/Huawei_IoT_Agent_Tiny_SDK_Linux//lwm2m/core/er-coap-13/er-coap-13.c **** {
 206              		.loc 1 186 0
 207              		.cfi_startproc
 208              	.LVL26:
 209 0000 4156     		pushq	%r14
 210              	.LCFI8:
 211              		.cfi_def_cfa_offset 16
 212              		.cfi_offset 14, -16
 213 0002 4155     		pushq	%r13
 214              	.LCFI9:
 215              		.cfi_def_cfa_offset 24
 216              		.cfi_offset 13, -24
 217 0004 4154     		pushq	%r12
 218              	.LCFI10:
 219              		.cfi_def_cfa_offset 32
 220              		.cfi_offset 12, -32
 221 0006 55       		pushq	%rbp
 222              	.LCFI11:
 223              		.cfi_def_cfa_offset 40
 224              		.cfi_offset 6, -40
 225 0007 53       		pushq	%rbx
 226              	.LCFI12:
 227              		.cfi_def_cfa_offset 48
 228              		.cfi_offset 3, -48
 229 0008 4889D5   		movq	%rdx, %rbp
 230 000b 89CB     		movl	%ecx, %ebx
 231              	.LVL27:
 187:/home/baikal/workspace/C50/Huawei_IoT_Agent_Tiny_SDK_Linux//lwm2m/core/er-coap-13/er-coap-13.c ****     size_t i = 0;
 188:/home/baikal/workspace/C50/Huawei_IoT_Agent_Tiny_SDK_Linux//lwm2m/core/er-coap-13/er-coap-13.c **** 
 189:/home/baikal/workspace/C50/Huawei_IoT_Agent_Tiny_SDK_Linux//lwm2m/core/er-coap-13/er-coap-13.c ****     if (0xFF000000 & value) ++i;
 232              		.loc 1 189 0
 233 000d 4189CE   		movl	%ecx, %r14d
 234 0010 4181E600 		andl	$-16777216, %r14d
 234      0000FF
 235 0017 7507     		jne	.L27
 187:/home/baikal/workspace/C50/Huawei_IoT_Agent_Tiny_SDK_Linux//lwm2m/core/er-coap-13/er-coap-13.c ****     size_t i = 0;
 236              		.loc 1 187 0
 237 0019 B8000000 		movl	$0, %eax
 237      00
 238 001e EB05     		jmp	.L19
 239              	.L27:
 240              		.loc 1 189 0
 241 0020 B8010000 		movl	$1, %eax
 241      00
 242              	.L19:
 243              	.LVL28:
 190:/home/baikal/workspace/C50/Huawei_IoT_Agent_Tiny_SDK_Linux//lwm2m/core/er-coap-13/er-coap-13.c ****     if (0xFFFF0000 & value) ++i;
 244              		.loc 1 190 0
 245 0025 4189DD   		movl	%ebx, %r13d
 246 0028 4181E500 		andl	$-65536, %r13d
 246      00FFFF
 247 002f 7404     		je	.L20
 248              		.loc 1 190 0 is_stmt 0 discriminator 1
 249 0031 4883C001 		addq	$1, %rax
GAS LISTING /tmp/ccSAldBr.s 			page 9


 250              	.LVL29:
 251              	.L20:
 191:/home/baikal/workspace/C50/Huawei_IoT_Agent_Tiny_SDK_Linux//lwm2m/core/er-coap-13/er-coap-13.c ****     if (0xFFFFFF00 & value) ++i;
 252              		.loc 1 191 0 is_stmt 1
 253 0035 4189DC   		movl	%ebx, %r12d
 254 0038 4181E400 		andl	$-256, %r12d
 254      FFFFFF
 255 003f 7404     		je	.L21
 256              		.loc 1 191 0 is_stmt 0 discriminator 1
 257 0041 4883C001 		addq	$1, %rax
 258              	.LVL30:
 259              	.L21:
 192:/home/baikal/workspace/C50/Huawei_IoT_Agent_Tiny_SDK_Linux//lwm2m/core/er-coap-13/er-coap-13.c ****     if (0xFFFFFFFF & value) ++i;
 260              		.loc 1 192 0 is_stmt 1
 261 0045 85DB     		testl	%ebx, %ebx
 262 0047 7404     		je	.L22
 263              		.loc 1 192 0 is_stmt 0 discriminator 1
 264 0049 4883C001 		addq	$1, %rax
 265              	.LVL31:
 266              	.L22:
 193:/home/baikal/workspace/C50/Huawei_IoT_Agent_Tiny_SDK_Linux//lwm2m/core/er-coap-13/er-coap-13.c **** 
 194:/home/baikal/workspace/C50/Huawei_IoT_Agent_Tiny_SDK_Linux//lwm2m/core/er-coap-13/er-coap-13.c ****     PRINTF("OPTION %u (delta %u, len %u)\n", number, number - current_number, i);
 195:/home/baikal/workspace/C50/Huawei_IoT_Agent_Tiny_SDK_Linux//lwm2m/core/er-coap-13/er-coap-13.c **** 
 196:/home/baikal/workspace/C50/Huawei_IoT_Agent_Tiny_SDK_Linux//lwm2m/core/er-coap-13/er-coap-13.c ****     i = coap_set_option_header(number - current_number, i, buffer);
 267              		.loc 1 196 0 is_stmt 1
 268 004d 29F7     		subl	%esi, %edi
 269              	.LVL32:
 270 004f 4889EA   		movq	%rbp, %rdx
 271              	.LVL33:
 272 0052 4889C6   		movq	%rax, %rsi
 273              	.LVL34:
 274 0055 E8000000 		call	coap_set_option_header
 274      00
 275              	.LVL35:
 197:/home/baikal/workspace/C50/Huawei_IoT_Agent_Tiny_SDK_Linux//lwm2m/core/er-coap-13/er-coap-13.c **** 
 198:/home/baikal/workspace/C50/Huawei_IoT_Agent_Tiny_SDK_Linux//lwm2m/core/er-coap-13/er-coap-13.c ****     if (0xFF000000 & value) buffer[i++] = (uint8_t) (value >> 24);
 276              		.loc 1 198 0
 277 005a 4585F6   		testl	%r14d, %r14d
 278 005d 740D     		je	.L23
 279              	.LVL36:
 280              		.loc 1 198 0 is_stmt 0 discriminator 1
 281 005f 89DA     		movl	%ebx, %edx
 282 0061 C1EA18   		shrl	$24, %edx
 283 0064 88540500 		movb	%dl, 0(%rbp,%rax)
 284 0068 488D4001 		leaq	1(%rax), %rax
 285              	.LVL37:
 286              	.L23:
 199:/home/baikal/workspace/C50/Huawei_IoT_Agent_Tiny_SDK_Linux//lwm2m/core/er-coap-13/er-coap-13.c ****     if (0xFFFF0000 & value) buffer[i++] = (uint8_t) (value >> 16);
 287              		.loc 1 199 0 is_stmt 1
 288 006c 4585ED   		testl	%r13d, %r13d
 289 006f 740D     		je	.L24
 290              	.LVL38:
 291              		.loc 1 199 0 is_stmt 0 discriminator 1
 292 0071 89DA     		movl	%ebx, %edx
 293 0073 C1EA10   		shrl	$16, %edx
 294 0076 88540500 		movb	%dl, 0(%rbp,%rax)
 295 007a 488D4001 		leaq	1(%rax), %rax
GAS LISTING /tmp/ccSAldBr.s 			page 10


 296              	.LVL39:
 297              	.L24:
 200:/home/baikal/workspace/C50/Huawei_IoT_Agent_Tiny_SDK_Linux//lwm2m/core/er-coap-13/er-coap-13.c ****     if (0xFFFFFF00 & value) buffer[i++] = (uint8_t) (value >> 8);
 298              		.loc 1 200 0 is_stmt 1
 299 007e 4585E4   		testl	%r12d, %r12d
 300 0081 740D     		je	.L25
 301              	.LVL40:
 302              		.loc 1 200 0 is_stmt 0 discriminator 1
 303 0083 89DA     		movl	%ebx, %edx
 304 0085 C1EA08   		shrl	$8, %edx
 305 0088 88540500 		movb	%dl, 0(%rbp,%rax)
 306 008c 488D4001 		leaq	1(%rax), %rax
 307              	.LVL41:
 308              	.L25:
 201:/home/baikal/workspace/C50/Huawei_IoT_Agent_Tiny_SDK_Linux//lwm2m/core/er-coap-13/er-coap-13.c ****     if (0xFFFFFFFF & value) buffer[i++] = (uint8_t) (value);
 309              		.loc 1 201 0 is_stmt 1
 310 0090 85DB     		testl	%ebx, %ebx
 311 0092 7408     		je	.L26
 312              	.LVL42:
 313              		.loc 1 201 0 is_stmt 0 discriminator 1
 314 0094 885C0500 		movb	%bl, 0(%rbp,%rax)
 315 0098 488D4001 		leaq	1(%rax), %rax
 316              	.LVL43:
 317              	.L26:
 202:/home/baikal/workspace/C50/Huawei_IoT_Agent_Tiny_SDK_Linux//lwm2m/core/er-coap-13/er-coap-13.c **** 
 203:/home/baikal/workspace/C50/Huawei_IoT_Agent_Tiny_SDK_Linux//lwm2m/core/er-coap-13/er-coap-13.c ****     return i;
 204:/home/baikal/workspace/C50/Huawei_IoT_Agent_Tiny_SDK_Linux//lwm2m/core/er-coap-13/er-coap-13.c **** }
 318              		.loc 1 204 0 is_stmt 1
 319 009c 5B       		popq	%rbx
 320              	.LCFI13:
 321              		.cfi_def_cfa_offset 40
 322              	.LVL44:
 323 009d 5D       		popq	%rbp
 324              	.LCFI14:
 325              		.cfi_def_cfa_offset 32
 326              	.LVL45:
 327 009e 415C     		popq	%r12
 328              	.LCFI15:
 329              		.cfi_def_cfa_offset 24
 330 00a0 415D     		popq	%r13
 331              	.LCFI16:
 332              		.cfi_def_cfa_offset 16
 333 00a2 415E     		popq	%r14
 334              	.LCFI17:
 335              		.cfi_def_cfa_offset 8
 336 00a4 C3       		ret
 337              		.cfi_endproc
 338              	.LFE67:
 340              		.section	.text.coap_serialize_array_option,"ax",@progbits
 342              	coap_serialize_array_option:
 343              	.LFB68:
 205:/home/baikal/workspace/C50/Huawei_IoT_Agent_Tiny_SDK_Linux//lwm2m/core/er-coap-13/er-coap-13.c **** /*-----------------------------------------------------------------------------------*/
 206:/home/baikal/workspace/C50/Huawei_IoT_Agent_Tiny_SDK_Linux//lwm2m/core/er-coap-13/er-coap-13.c **** static
 207:/home/baikal/workspace/C50/Huawei_IoT_Agent_Tiny_SDK_Linux//lwm2m/core/er-coap-13/er-coap-13.c **** size_t
 208:/home/baikal/workspace/C50/Huawei_IoT_Agent_Tiny_SDK_Linux//lwm2m/core/er-coap-13/er-coap-13.c **** coap_serialize_array_option(unsigned int number, unsigned int current_number, uint8_t *buffer, uint
 209:/home/baikal/workspace/C50/Huawei_IoT_Agent_Tiny_SDK_Linux//lwm2m/core/er-coap-13/er-coap-13.c **** {
 344              		.loc 1 209 0
GAS LISTING /tmp/ccSAldBr.s 			page 11


 345              		.cfi_startproc
 346              	.LVL46:
 347 0000 4157     		pushq	%r15
 348              	.LCFI18:
 349              		.cfi_def_cfa_offset 16
 350              		.cfi_offset 15, -16
 351 0002 4156     		pushq	%r14
 352              	.LCFI19:
 353              		.cfi_def_cfa_offset 24
 354              		.cfi_offset 14, -24
 355 0004 4155     		pushq	%r13
 356              	.LCFI20:
 357              		.cfi_def_cfa_offset 32
 358              		.cfi_offset 13, -32
 359 0006 4154     		pushq	%r12
 360              	.LCFI21:
 361              		.cfi_def_cfa_offset 40
 362              		.cfi_offset 12, -40
 363 0008 55       		pushq	%rbp
 364              	.LCFI22:
 365              		.cfi_def_cfa_offset 48
 366              		.cfi_offset 6, -48
 367 0009 53       		pushq	%rbx
 368              	.LCFI23:
 369              		.cfi_def_cfa_offset 56
 370              		.cfi_offset 3, -56
 371 000a 4883EC18 		subq	$24, %rsp
 372              	.LCFI24:
 373              		.cfi_def_cfa_offset 80
 374 000e 897C2404 		movl	%edi, 4(%rsp)
 375 0012 48895424 		movq	%rdx, 8(%rsp)
 375      08
 376 0017 4989CE   		movq	%rcx, %r14
 377 001a 4D89C5   		movq	%r8, %r13
 378 001d 44884C24 		movb	%r9b, 3(%rsp)
 378      03
 379              	.LVL47:
 210:/home/baikal/workspace/C50/Huawei_IoT_Agent_Tiny_SDK_Linux//lwm2m/core/er-coap-13/er-coap-13.c ****     size_t i = 0;
 211:/home/baikal/workspace/C50/Huawei_IoT_Agent_Tiny_SDK_Linux//lwm2m/core/er-coap-13/er-coap-13.c **** 
 212:/home/baikal/workspace/C50/Huawei_IoT_Agent_Tiny_SDK_Linux//lwm2m/core/er-coap-13/er-coap-13.c ****     if (split_char != '\0')
 380              		.loc 1 212 0
 381 0022 4584C9   		testb	%r9b, %r9b
 382 0025 755E     		jne	.L36
 383 0027 EB71     		jmp	.L37
 384              	.LVL48:
 385              	.L34:
 386              	.LBB38:
 213:/home/baikal/workspace/C50/Huawei_IoT_Agent_Tiny_SDK_Linux//lwm2m/core/er-coap-13/er-coap-13.c ****     {
 214:/home/baikal/workspace/C50/Huawei_IoT_Agent_Tiny_SDK_Linux//lwm2m/core/er-coap-13/er-coap-13.c ****         size_t j;
 215:/home/baikal/workspace/C50/Huawei_IoT_Agent_Tiny_SDK_Linux//lwm2m/core/er-coap-13/er-coap-13.c ****         uint8_t *part_start = array;
 216:/home/baikal/workspace/C50/Huawei_IoT_Agent_Tiny_SDK_Linux//lwm2m/core/er-coap-13/er-coap-13.c ****         uint8_t *part_end = NULL;
 217:/home/baikal/workspace/C50/Huawei_IoT_Agent_Tiny_SDK_Linux//lwm2m/core/er-coap-13/er-coap-13.c ****         size_t temp_length;
 218:/home/baikal/workspace/C50/Huawei_IoT_Agent_Tiny_SDK_Linux//lwm2m/core/er-coap-13/er-coap-13.c **** 
 219:/home/baikal/workspace/C50/Huawei_IoT_Agent_Tiny_SDK_Linux//lwm2m/core/er-coap-13/er-coap-13.c ****         for (j = 0; j <= length; ++j)
 220:/home/baikal/workspace/C50/Huawei_IoT_Agent_Tiny_SDK_Linux//lwm2m/core/er-coap-13/er-coap-13.c ****         {
 221:/home/baikal/workspace/C50/Huawei_IoT_Agent_Tiny_SDK_Linux//lwm2m/core/er-coap-13/er-coap-13.c ****             if (array[j] == split_char || j == length)
 387              		.loc 1 221 0
GAS LISTING /tmp/ccSAldBr.s 			page 12


 388 0029 498D2C1E 		leaq	(%r14,%rbx), %rbp
 389 002d 0FB65500 		movzbl	0(%rbp), %edx
 390 0031 0FBE4424 		movsbl	3(%rsp), %eax
 390      03
 391 0036 39C2     		cmpl	%eax, %edx
 392 0038 7405     		je	.L32
 393              		.loc 1 221 0 is_stmt 0 discriminator 1
 394 003a 4C39EB   		cmpq	%r13, %rbx
 395 003d 7540     		jne	.L33
 396              	.L32:
 397              	.LVL49:
 222:/home/baikal/workspace/C50/Huawei_IoT_Agent_Tiny_SDK_Linux//lwm2m/core/er-coap-13/er-coap-13.c ****             {
 223:/home/baikal/workspace/C50/Huawei_IoT_Agent_Tiny_SDK_Linux//lwm2m/core/er-coap-13/er-coap-13.c ****                 part_end = array + j;
 224:/home/baikal/workspace/C50/Huawei_IoT_Agent_Tiny_SDK_Linux//lwm2m/core/er-coap-13/er-coap-13.c ****                 temp_length = part_end - part_start;
 398              		.loc 1 224 0 is_stmt 1
 399 003f 4C29FD   		subq	%r15, %rbp
 400              	.LVL50:
 225:/home/baikal/workspace/C50/Huawei_IoT_Agent_Tiny_SDK_Linux//lwm2m/core/er-coap-13/er-coap-13.c **** 
 226:/home/baikal/workspace/C50/Huawei_IoT_Agent_Tiny_SDK_Linux//lwm2m/core/er-coap-13/er-coap-13.c ****                 i += coap_set_option_header(number - current_number, temp_length, &buffer[i]);
 401              		.loc 1 226 0
 402 0042 488B4424 		movq	8(%rsp), %rax
 402      08
 403 0047 4A8D1420 		leaq	(%rax,%r12), %rdx
 404 004b 8B7C2404 		movl	4(%rsp), %edi
 405 004f 29F7     		subl	%esi, %edi
 406 0051 4889EE   		movq	%rbp, %rsi
 407              	.LVL51:
 408 0054 E8000000 		call	coap_set_option_header
 408      00
 409              	.LVL52:
 410 0059 4901C4   		addq	%rax, %r12
 411              	.LVL53:
 227:/home/baikal/workspace/C50/Huawei_IoT_Agent_Tiny_SDK_Linux//lwm2m/core/er-coap-13/er-coap-13.c ****                 memcpy(&buffer[i], part_start, temp_length);
 412              		.loc 1 227 0
 413 005c 488B4424 		movq	8(%rsp), %rax
 413      08
 414 0061 4A8D3C20 		leaq	(%rax,%r12), %rdi
 415              	.LVL54:
 416              	.LBB39:
 417              	.LBB40:
 418              		.file 2 "/usr/include/x86_64-linux-gnu/bits/string3.h"
   1:/usr/include/x86_64-linux-gnu/bits/string3.h **** /* Copyright (C) 2004-2016 Free Software Foundation, Inc.
   2:/usr/include/x86_64-linux-gnu/bits/string3.h ****    This file is part of the GNU C Library.
   3:/usr/include/x86_64-linux-gnu/bits/string3.h **** 
   4:/usr/include/x86_64-linux-gnu/bits/string3.h ****    The GNU C Library is free software; you can redistribute it and/or
   5:/usr/include/x86_64-linux-gnu/bits/string3.h ****    modify it under the terms of the GNU Lesser General Public
   6:/usr/include/x86_64-linux-gnu/bits/string3.h ****    License as published by the Free Software Foundation; either
   7:/usr/include/x86_64-linux-gnu/bits/string3.h ****    version 2.1 of the License, or (at your option) any later version.
   8:/usr/include/x86_64-linux-gnu/bits/string3.h **** 
   9:/usr/include/x86_64-linux-gnu/bits/string3.h ****    The GNU C Library is distributed in the hope that it will be useful,
  10:/usr/include/x86_64-linux-gnu/bits/string3.h ****    but WITHOUT ANY WARRANTY; without even the implied warranty of
  11:/usr/include/x86_64-linux-gnu/bits/string3.h ****    MERCHANTABILITY or FITNESS FOR A PARTICULAR PURPOSE.  See the GNU
  12:/usr/include/x86_64-linux-gnu/bits/string3.h ****    Lesser General Public License for more details.
  13:/usr/include/x86_64-linux-gnu/bits/string3.h **** 
  14:/usr/include/x86_64-linux-gnu/bits/string3.h ****    You should have received a copy of the GNU Lesser General Public
  15:/usr/include/x86_64-linux-gnu/bits/string3.h ****    License along with the GNU C Library; if not, see
  16:/usr/include/x86_64-linux-gnu/bits/string3.h ****    <http://www.gnu.org/licenses/>.  */
GAS LISTING /tmp/ccSAldBr.s 			page 13


  17:/usr/include/x86_64-linux-gnu/bits/string3.h **** 
  18:/usr/include/x86_64-linux-gnu/bits/string3.h **** #ifndef _STRING_H
  19:/usr/include/x86_64-linux-gnu/bits/string3.h **** # error "Never use <bits/string3.h> directly; include <string.h> instead."
  20:/usr/include/x86_64-linux-gnu/bits/string3.h **** #endif
  21:/usr/include/x86_64-linux-gnu/bits/string3.h **** 
  22:/usr/include/x86_64-linux-gnu/bits/string3.h **** #if !__GNUC_PREREQ (5,0)
  23:/usr/include/x86_64-linux-gnu/bits/string3.h **** __warndecl (__warn_memset_zero_len,
  24:/usr/include/x86_64-linux-gnu/bits/string3.h **** 	    "memset used with constant zero length parameter; this could be due to transposed parameters")
  25:/usr/include/x86_64-linux-gnu/bits/string3.h **** #endif
  26:/usr/include/x86_64-linux-gnu/bits/string3.h **** 
  27:/usr/include/x86_64-linux-gnu/bits/string3.h **** #ifndef __cplusplus
  28:/usr/include/x86_64-linux-gnu/bits/string3.h **** /* XXX This is temporarily.  We should not redefine any of the symbols
  29:/usr/include/x86_64-linux-gnu/bits/string3.h ****    and instead integrate the error checking into the original
  30:/usr/include/x86_64-linux-gnu/bits/string3.h ****    definitions.  */
  31:/usr/include/x86_64-linux-gnu/bits/string3.h **** # undef memcpy
  32:/usr/include/x86_64-linux-gnu/bits/string3.h **** # undef memmove
  33:/usr/include/x86_64-linux-gnu/bits/string3.h **** # undef memset
  34:/usr/include/x86_64-linux-gnu/bits/string3.h **** # undef strcat
  35:/usr/include/x86_64-linux-gnu/bits/string3.h **** # undef strcpy
  36:/usr/include/x86_64-linux-gnu/bits/string3.h **** # undef strncat
  37:/usr/include/x86_64-linux-gnu/bits/string3.h **** # undef strncpy
  38:/usr/include/x86_64-linux-gnu/bits/string3.h **** # ifdef __USE_GNU
  39:/usr/include/x86_64-linux-gnu/bits/string3.h **** #  undef mempcpy
  40:/usr/include/x86_64-linux-gnu/bits/string3.h **** #  undef stpcpy
  41:/usr/include/x86_64-linux-gnu/bits/string3.h **** # endif
  42:/usr/include/x86_64-linux-gnu/bits/string3.h **** # ifdef __USE_MISC
  43:/usr/include/x86_64-linux-gnu/bits/string3.h **** #  undef bcopy
  44:/usr/include/x86_64-linux-gnu/bits/string3.h **** #  undef bzero
  45:/usr/include/x86_64-linux-gnu/bits/string3.h **** # endif
  46:/usr/include/x86_64-linux-gnu/bits/string3.h **** #endif
  47:/usr/include/x86_64-linux-gnu/bits/string3.h **** 
  48:/usr/include/x86_64-linux-gnu/bits/string3.h **** 
  49:/usr/include/x86_64-linux-gnu/bits/string3.h **** __fortify_function void *
  50:/usr/include/x86_64-linux-gnu/bits/string3.h **** __NTH (memcpy (void *__restrict __dest, const void *__restrict __src,
  51:/usr/include/x86_64-linux-gnu/bits/string3.h **** 	       size_t __len))
  52:/usr/include/x86_64-linux-gnu/bits/string3.h **** {
  53:/usr/include/x86_64-linux-gnu/bits/string3.h ****   return __builtin___memcpy_chk (__dest, __src, __len, __bos0 (__dest));
 419              		.loc 2 53 0
 420 0065 4889EA   		movq	%rbp, %rdx
 421 0068 4C89FE   		movq	%r15, %rsi
 422 006b E8000000 		call	memcpy
 422      00
 423              	.LVL55:
 424              	.LBE40:
 425              	.LBE39:
 228:/home/baikal/workspace/C50/Huawei_IoT_Agent_Tiny_SDK_Linux//lwm2m/core/er-coap-13/er-coap-13.c ****                 i += temp_length;
 426              		.loc 1 228 0
 427 0070 4901EC   		addq	%rbp, %r12
 428              	.LVL56:
 229:/home/baikal/workspace/C50/Huawei_IoT_Agent_Tiny_SDK_Linux//lwm2m/core/er-coap-13/er-coap-13.c **** 
 230:/home/baikal/workspace/C50/Huawei_IoT_Agent_Tiny_SDK_Linux//lwm2m/core/er-coap-13/er-coap-13.c ****                 PRINTF("OPTION type %u, delta %u, len %u, part [%.*s]\n", number, number - current_
 231:/home/baikal/workspace/C50/Huawei_IoT_Agent_Tiny_SDK_Linux//lwm2m/core/er-coap-13/er-coap-13.c **** 
 232:/home/baikal/workspace/C50/Huawei_IoT_Agent_Tiny_SDK_Linux//lwm2m/core/er-coap-13/er-coap-13.c ****                 ++j; /* skip the splitter */
 429              		.loc 1 232 0
 430 0073 4883C301 		addq	$1, %rbx
 431              	.LVL57:
 233:/home/baikal/workspace/C50/Huawei_IoT_Agent_Tiny_SDK_Linux//lwm2m/core/er-coap-13/er-coap-13.c ****                 current_number = number;
GAS LISTING /tmp/ccSAldBr.s 			page 14


 234:/home/baikal/workspace/C50/Huawei_IoT_Agent_Tiny_SDK_Linux//lwm2m/core/er-coap-13/er-coap-13.c ****                 part_start = array + j;
 432              		.loc 1 234 0
 433 0077 4D8D3C1E 		leaq	(%r14,%rbx), %r15
 434              	.LVL58:
 233:/home/baikal/workspace/C50/Huawei_IoT_Agent_Tiny_SDK_Linux//lwm2m/core/er-coap-13/er-coap-13.c ****                 current_number = number;
 435              		.loc 1 233 0
 436 007b 8B742404 		movl	4(%rsp), %esi
 437              	.LVL59:
 438              	.L33:
 219:/home/baikal/workspace/C50/Huawei_IoT_Agent_Tiny_SDK_Linux//lwm2m/core/er-coap-13/er-coap-13.c ****         {
 439              		.loc 1 219 0 discriminator 2
 440 007f 4883C301 		addq	$1, %rbx
 441              	.LVL60:
 442 0083 EB0E     		jmp	.L30
 443              	.LVL61:
 444              	.L36:
 445              	.LBE38:
 446 0085 4989CF   		movq	%rcx, %r15
 447 0088 BB000000 		movl	$0, %ebx
 447      00
 448 008d 41BC0000 		movl	$0, %r12d
 448      0000
 449              	.LVL62:
 450              	.L30:
 451              	.LBB41:
 219:/home/baikal/workspace/C50/Huawei_IoT_Agent_Tiny_SDK_Linux//lwm2m/core/er-coap-13/er-coap-13.c ****         {
 452              		.loc 1 219 0 is_stmt 0 discriminator 1
 453 0093 4C39EB   		cmpq	%r13, %rbx
 454 0096 7691     		jbe	.L34
 455 0098 EB2D     		jmp	.L35
 456              	.LVL63:
 457              	.L37:
 458              	.LBE41:
 235:/home/baikal/workspace/C50/Huawei_IoT_Agent_Tiny_SDK_Linux//lwm2m/core/er-coap-13/er-coap-13.c ****             }
 236:/home/baikal/workspace/C50/Huawei_IoT_Agent_Tiny_SDK_Linux//lwm2m/core/er-coap-13/er-coap-13.c ****         } /* for */
 237:/home/baikal/workspace/C50/Huawei_IoT_Agent_Tiny_SDK_Linux//lwm2m/core/er-coap-13/er-coap-13.c ****     }
 238:/home/baikal/workspace/C50/Huawei_IoT_Agent_Tiny_SDK_Linux//lwm2m/core/er-coap-13/er-coap-13.c ****     else
 239:/home/baikal/workspace/C50/Huawei_IoT_Agent_Tiny_SDK_Linux//lwm2m/core/er-coap-13/er-coap-13.c ****     {
 240:/home/baikal/workspace/C50/Huawei_IoT_Agent_Tiny_SDK_Linux//lwm2m/core/er-coap-13/er-coap-13.c ****         i += coap_set_option_header(number - current_number, length, &buffer[i]);
 459              		.loc 1 240 0 is_stmt 1
 460 009a 8B7C2404 		movl	4(%rsp), %edi
 461              	.LVL64:
 462 009e 29F7     		subl	%esi, %edi
 463 00a0 488B5C24 		movq	8(%rsp), %rbx
 463      08
 464 00a5 4889DA   		movq	%rbx, %rdx
 465              	.LVL65:
 466 00a8 4C89C6   		movq	%r8, %rsi
 467              	.LVL66:
 468 00ab E8000000 		call	coap_set_option_header
 468      00
 469              	.LVL67:
 470 00b0 4989C4   		movq	%rax, %r12
 471              	.LVL68:
 241:/home/baikal/workspace/C50/Huawei_IoT_Agent_Tiny_SDK_Linux//lwm2m/core/er-coap-13/er-coap-13.c ****         memcpy(&buffer[i], array, length);
 472              		.loc 1 241 0
 473 00b3 4889DF   		movq	%rbx, %rdi
GAS LISTING /tmp/ccSAldBr.s 			page 15


 474 00b6 4801C7   		addq	%rax, %rdi
 475              	.LVL69:
 476              	.LBB42:
 477              	.LBB43:
 478              		.loc 2 53 0
 479 00b9 4C89EA   		movq	%r13, %rdx
 480 00bc 4C89F6   		movq	%r14, %rsi
 481 00bf E8000000 		call	memcpy
 481      00
 482              	.LVL70:
 483              	.LBE43:
 484              	.LBE42:
 242:/home/baikal/workspace/C50/Huawei_IoT_Agent_Tiny_SDK_Linux//lwm2m/core/er-coap-13/er-coap-13.c ****         i += length;
 485              		.loc 1 242 0
 486 00c4 4D01EC   		addq	%r13, %r12
 487              	.LVL71:
 488              	.L35:
 243:/home/baikal/workspace/C50/Huawei_IoT_Agent_Tiny_SDK_Linux//lwm2m/core/er-coap-13/er-coap-13.c **** 
 244:/home/baikal/workspace/C50/Huawei_IoT_Agent_Tiny_SDK_Linux//lwm2m/core/er-coap-13/er-coap-13.c ****         PRINTF("OPTION type %u, delta %u, len %u\n", number, number - current_number, length);
 245:/home/baikal/workspace/C50/Huawei_IoT_Agent_Tiny_SDK_Linux//lwm2m/core/er-coap-13/er-coap-13.c ****     }
 246:/home/baikal/workspace/C50/Huawei_IoT_Agent_Tiny_SDK_Linux//lwm2m/core/er-coap-13/er-coap-13.c **** 
 247:/home/baikal/workspace/C50/Huawei_IoT_Agent_Tiny_SDK_Linux//lwm2m/core/er-coap-13/er-coap-13.c ****     return i;
 248:/home/baikal/workspace/C50/Huawei_IoT_Agent_Tiny_SDK_Linux//lwm2m/core/er-coap-13/er-coap-13.c **** }
 489              		.loc 1 248 0
 490 00c7 4C89E0   		movq	%r12, %rax
 491 00ca 4883C418 		addq	$24, %rsp
 492              	.LCFI25:
 493              		.cfi_def_cfa_offset 56
 494 00ce 5B       		popq	%rbx
 495              	.LCFI26:
 496              		.cfi_def_cfa_offset 48
 497 00cf 5D       		popq	%rbp
 498              	.LCFI27:
 499              		.cfi_def_cfa_offset 40
 500 00d0 415C     		popq	%r12
 501              	.LCFI28:
 502              		.cfi_def_cfa_offset 32
 503              	.LVL72:
 504 00d2 415D     		popq	%r13
 505              	.LCFI29:
 506              		.cfi_def_cfa_offset 24
 507              	.LVL73:
 508 00d4 415E     		popq	%r14
 509              	.LCFI30:
 510              		.cfi_def_cfa_offset 16
 511              	.LVL74:
 512 00d6 415F     		popq	%r15
 513              	.LCFI31:
 514              		.cfi_def_cfa_offset 8
 515 00d8 C3       		ret
 516              		.cfi_endproc
 517              	.LFE68:
 519              		.section	.text.coap_serialize_multi_option,"ax",@progbits
 521              	coap_serialize_multi_option:
 522              	.LFB69:
 249:/home/baikal/workspace/C50/Huawei_IoT_Agent_Tiny_SDK_Linux//lwm2m/core/er-coap-13/er-coap-13.c **** /*-----------------------------------------------------------------------------------*/
 250:/home/baikal/workspace/C50/Huawei_IoT_Agent_Tiny_SDK_Linux//lwm2m/core/er-coap-13/er-coap-13.c **** static
GAS LISTING /tmp/ccSAldBr.s 			page 16


 251:/home/baikal/workspace/C50/Huawei_IoT_Agent_Tiny_SDK_Linux//lwm2m/core/er-coap-13/er-coap-13.c **** size_t
 252:/home/baikal/workspace/C50/Huawei_IoT_Agent_Tiny_SDK_Linux//lwm2m/core/er-coap-13/er-coap-13.c **** coap_serialize_multi_option(unsigned int number, unsigned int current_number, uint8_t *buffer, mult
 253:/home/baikal/workspace/C50/Huawei_IoT_Agent_Tiny_SDK_Linux//lwm2m/core/er-coap-13/er-coap-13.c **** {
 523              		.loc 1 253 0
 524              		.cfi_startproc
 525              	.LVL75:
 526 0000 4155     		pushq	%r13
 527              	.LCFI32:
 528              		.cfi_def_cfa_offset 16
 529              		.cfi_offset 13, -16
 530 0002 4154     		pushq	%r12
 531              	.LCFI33:
 532              		.cfi_def_cfa_offset 24
 533              		.cfi_offset 12, -24
 534 0004 55       		pushq	%rbp
 535              	.LCFI34:
 536              		.cfi_def_cfa_offset 32
 537              		.cfi_offset 6, -32
 538 0005 53       		pushq	%rbx
 539              	.LCFI35:
 540              		.cfi_def_cfa_offset 40
 541              		.cfi_offset 3, -40
 542 0006 4883EC08 		subq	$8, %rsp
 543              	.LCFI36:
 544              		.cfi_def_cfa_offset 48
 545 000a 4189FD   		movl	%edi, %r13d
 546 000d 89F0     		movl	%esi, %eax
 547 000f 4989D4   		movq	%rdx, %r12
 548 0012 4889CB   		movq	%rcx, %rbx
 549              	.LVL76:
 254:/home/baikal/workspace/C50/Huawei_IoT_Agent_Tiny_SDK_Linux//lwm2m/core/er-coap-13/er-coap-13.c ****     size_t i = 0;
 550              		.loc 1 254 0
 551 0015 BD000000 		movl	$0, %ebp
 551      00
 255:/home/baikal/workspace/C50/Huawei_IoT_Agent_Tiny_SDK_Linux//lwm2m/core/er-coap-13/er-coap-13.c ****     multi_option_t *j;
 256:/home/baikal/workspace/C50/Huawei_IoT_Agent_Tiny_SDK_Linux//lwm2m/core/er-coap-13/er-coap-13.c **** 
 257:/home/baikal/workspace/C50/Huawei_IoT_Agent_Tiny_SDK_Linux//lwm2m/core/er-coap-13/er-coap-13.c ****     for (j = array; j != NULL; j = j->next)
 552              		.loc 1 257 0
 553 001a EB33     		jmp	.L40
 554              	.LVL77:
 555              	.L41:
 258:/home/baikal/workspace/C50/Huawei_IoT_Agent_Tiny_SDK_Linux//lwm2m/core/er-coap-13/er-coap-13.c ****     {
 259:/home/baikal/workspace/C50/Huawei_IoT_Agent_Tiny_SDK_Linux//lwm2m/core/er-coap-13/er-coap-13.c ****         i += coap_set_option_header(number - current_number, j->len, &buffer[i]);
 556              		.loc 1 259 0 discriminator 3
 557 001c 498D142C 		leaq	(%r12,%rbp), %rdx
 558 0020 0FB67309 		movzbl	9(%rbx), %esi
 559 0024 4489EF   		movl	%r13d, %edi
 560 0027 29C7     		subl	%eax, %edi
 561 0029 E8000000 		call	coap_set_option_header
 561      00
 562              	.LVL78:
 563 002e 4801C5   		addq	%rax, %rbp
 564              	.LVL79:
 260:/home/baikal/workspace/C50/Huawei_IoT_Agent_Tiny_SDK_Linux//lwm2m/core/er-coap-13/er-coap-13.c ****         current_number = number;
 261:/home/baikal/workspace/C50/Huawei_IoT_Agent_Tiny_SDK_Linux//lwm2m/core/er-coap-13/er-coap-13.c ****         memcpy(&buffer[i], j->data, j->len);
 565              		.loc 1 261 0 discriminator 3
 566 0031 0FB65309 		movzbl	9(%rbx), %edx
GAS LISTING /tmp/ccSAldBr.s 			page 17


 567 0035 488B7310 		movq	16(%rbx), %rsi
 568 0039 498D3C2C 		leaq	(%r12,%rbp), %rdi
 569              	.LVL80:
 570              	.LBB44:
 571              	.LBB45:
 572              		.loc 2 53 0 discriminator 3
 573 003d E8000000 		call	memcpy
 573      00
 574              	.LVL81:
 575              	.LBE45:
 576              	.LBE44:
 262:/home/baikal/workspace/C50/Huawei_IoT_Agent_Tiny_SDK_Linux//lwm2m/core/er-coap-13/er-coap-13.c ****         i += j->len;
 577              		.loc 1 262 0 discriminator 3
 578 0042 0FB65309 		movzbl	9(%rbx), %edx
 579 0046 4801D5   		addq	%rdx, %rbp
 580              	.LVL82:
 257:/home/baikal/workspace/C50/Huawei_IoT_Agent_Tiny_SDK_Linux//lwm2m/core/er-coap-13/er-coap-13.c ****     {
 581              		.loc 1 257 0 discriminator 3
 582 0049 488B1B   		movq	(%rbx), %rbx
 583              	.LVL83:
 260:/home/baikal/workspace/C50/Huawei_IoT_Agent_Tiny_SDK_Linux//lwm2m/core/er-coap-13/er-coap-13.c ****         current_number = number;
 584              		.loc 1 260 0 discriminator 3
 585 004c 4489E8   		movl	%r13d, %eax
 586              	.LVL84:
 587              	.L40:
 257:/home/baikal/workspace/C50/Huawei_IoT_Agent_Tiny_SDK_Linux//lwm2m/core/er-coap-13/er-coap-13.c ****     {
 588              		.loc 1 257 0 discriminator 1
 589 004f 4885DB   		testq	%rbx, %rbx
 590 0052 75C8     		jne	.L41
 263:/home/baikal/workspace/C50/Huawei_IoT_Agent_Tiny_SDK_Linux//lwm2m/core/er-coap-13/er-coap-13.c ****     } /* for */
 264:/home/baikal/workspace/C50/Huawei_IoT_Agent_Tiny_SDK_Linux//lwm2m/core/er-coap-13/er-coap-13.c **** 
 265:/home/baikal/workspace/C50/Huawei_IoT_Agent_Tiny_SDK_Linux//lwm2m/core/er-coap-13/er-coap-13.c ****     return i;
 266:/home/baikal/workspace/C50/Huawei_IoT_Agent_Tiny_SDK_Linux//lwm2m/core/er-coap-13/er-coap-13.c **** }
 591              		.loc 1 266 0
 592 0054 4889E8   		movq	%rbp, %rax
 593              	.LVL85:
 594 0057 4883C408 		addq	$8, %rsp
 595              	.LCFI37:
 596              		.cfi_def_cfa_offset 40
 597 005b 5B       		popq	%rbx
 598              	.LCFI38:
 599              		.cfi_def_cfa_offset 32
 600              	.LVL86:
 601 005c 5D       		popq	%rbp
 602              	.LCFI39:
 603              		.cfi_def_cfa_offset 24
 604              	.LVL87:
 605 005d 415C     		popq	%r12
 606              	.LCFI40:
 607              		.cfi_def_cfa_offset 16
 608              	.LVL88:
 609 005f 415D     		popq	%r13
 610              	.LCFI41:
 611              		.cfi_def_cfa_offset 8
 612              	.LVL89:
 613 0061 C3       		ret
 614              		.cfi_endproc
GAS LISTING /tmp/ccSAldBr.s 			page 18


 615              	.LFE69:
 617              		.section	.text.coap_merge_multi_option,"ax",@progbits
 619              	coap_merge_multi_option:
 620              	.LFB70:
 267:/home/baikal/workspace/C50/Huawei_IoT_Agent_Tiny_SDK_Linux//lwm2m/core/er-coap-13/er-coap-13.c **** /*-----------------------------------------------------------------------------------*/
 268:/home/baikal/workspace/C50/Huawei_IoT_Agent_Tiny_SDK_Linux//lwm2m/core/er-coap-13/er-coap-13.c **** static
 269:/home/baikal/workspace/C50/Huawei_IoT_Agent_Tiny_SDK_Linux//lwm2m/core/er-coap-13/er-coap-13.c **** void
 270:/home/baikal/workspace/C50/Huawei_IoT_Agent_Tiny_SDK_Linux//lwm2m/core/er-coap-13/er-coap-13.c **** coap_merge_multi_option(uint8_t **dst, size_t *dst_len, uint8_t *option, size_t option_len, char se
 271:/home/baikal/workspace/C50/Huawei_IoT_Agent_Tiny_SDK_Linux//lwm2m/core/er-coap-13/er-coap-13.c **** {
 621              		.loc 1 271 0
 622              		.cfi_startproc
 623              	.LVL90:
 272:/home/baikal/workspace/C50/Huawei_IoT_Agent_Tiny_SDK_Linux//lwm2m/core/er-coap-13/er-coap-13.c ****     /* Merge multiple options. */
 273:/home/baikal/workspace/C50/Huawei_IoT_Agent_Tiny_SDK_Linux//lwm2m/core/er-coap-13/er-coap-13.c ****     if (*dst_len > 0)
 624              		.loc 1 273 0
 625 0000 488B06   		movq	(%rsi), %rax
 626 0003 4885C0   		testq	%rax, %rax
 627 0006 7435     		je	.L44
 271:/home/baikal/workspace/C50/Huawei_IoT_Agent_Tiny_SDK_Linux//lwm2m/core/er-coap-13/er-coap-13.c ****     /* Merge multiple options. */
 628              		.loc 1 271 0
 629 0008 55       		pushq	%rbp
 630              	.LCFI42:
 631              		.cfi_def_cfa_offset 16
 632              		.cfi_offset 6, -16
 633 0009 53       		pushq	%rbx
 634              	.LCFI43:
 635              		.cfi_def_cfa_offset 24
 636              		.cfi_offset 3, -24
 637 000a 4883EC08 		subq	$8, %rsp
 638              	.LCFI44:
 639              		.cfi_def_cfa_offset 32
 640 000e 4889CD   		movq	%rcx, %rbp
 641 0011 4889D1   		movq	%rdx, %rcx
 642              	.LVL91:
 643 0014 4889F3   		movq	%rsi, %rbx
 274:/home/baikal/workspace/C50/Huawei_IoT_Agent_Tiny_SDK_Linux//lwm2m/core/er-coap-13/er-coap-13.c ****     {
 275:/home/baikal/workspace/C50/Huawei_IoT_Agent_Tiny_SDK_Linux//lwm2m/core/er-coap-13/er-coap-13.c ****         /* dst already contains an option: concatenate */
 276:/home/baikal/workspace/C50/Huawei_IoT_Agent_Tiny_SDK_Linux//lwm2m/core/er-coap-13/er-coap-13.c ****         (*dst)[*dst_len] = separator;
 644              		.loc 1 276 0
 645 0017 480307   		addq	(%rdi), %rax
 646 001a 448800   		movb	%r8b, (%rax)
 277:/home/baikal/workspace/C50/Huawei_IoT_Agent_Tiny_SDK_Linux//lwm2m/core/er-coap-13/er-coap-13.c ****         *dst_len += 1;
 647              		.loc 1 277 0
 648 001d 488B06   		movq	(%rsi), %rax
 649 0020 4883C001 		addq	$1, %rax
 650 0024 488906   		movq	%rax, (%rsi)
 278:/home/baikal/workspace/C50/Huawei_IoT_Agent_Tiny_SDK_Linux//lwm2m/core/er-coap-13/er-coap-13.c **** 
 279:/home/baikal/workspace/C50/Huawei_IoT_Agent_Tiny_SDK_Linux//lwm2m/core/er-coap-13/er-coap-13.c ****         /* memmove handles 2-byte option headers */
 280:/home/baikal/workspace/C50/Huawei_IoT_Agent_Tiny_SDK_Linux//lwm2m/core/er-coap-13/er-coap-13.c ****         memmove((*dst) + (*dst_len), option, option_len);
 651              		.loc 1 280 0
 652 0027 480307   		addq	(%rdi), %rax
 653 002a 4889C7   		movq	%rax, %rdi
 654              	.LVL92:
 655              	.LBB46:
 656              	.LBB47:
  54:/usr/include/x86_64-linux-gnu/bits/string3.h **** }
  55:/usr/include/x86_64-linux-gnu/bits/string3.h **** 
GAS LISTING /tmp/ccSAldBr.s 			page 19


  56:/usr/include/x86_64-linux-gnu/bits/string3.h **** __fortify_function void *
  57:/usr/include/x86_64-linux-gnu/bits/string3.h **** __NTH (memmove (void *__dest, const void *__src, size_t __len))
  58:/usr/include/x86_64-linux-gnu/bits/string3.h **** {
  59:/usr/include/x86_64-linux-gnu/bits/string3.h ****   return __builtin___memmove_chk (__dest, __src, __len, __bos0 (__dest));
 657              		.loc 2 59 0
 658 002d 4889EA   		movq	%rbp, %rdx
 659              	.LVL93:
 660 0030 4889CE   		movq	%rcx, %rsi
 661              	.LVL94:
 662 0033 E8000000 		call	memmove
 662      00
 663              	.LVL95:
 664              	.LBE47:
 665              	.LBE46:
 281:/home/baikal/workspace/C50/Huawei_IoT_Agent_Tiny_SDK_Linux//lwm2m/core/er-coap-13/er-coap-13.c **** 
 282:/home/baikal/workspace/C50/Huawei_IoT_Agent_Tiny_SDK_Linux//lwm2m/core/er-coap-13/er-coap-13.c ****         *dst_len += option_len;
 666              		.loc 1 282 0
 667 0038 48012B   		addq	%rbp, (%rbx)
 668 003b EB07     		jmp	.L43
 669              	.LVL96:
 670              	.L44:
 671              	.LCFI45:
 672              		.cfi_def_cfa_offset 8
 673              		.cfi_restore 3
 674              		.cfi_restore 6
 283:/home/baikal/workspace/C50/Huawei_IoT_Agent_Tiny_SDK_Linux//lwm2m/core/er-coap-13/er-coap-13.c ****     }
 284:/home/baikal/workspace/C50/Huawei_IoT_Agent_Tiny_SDK_Linux//lwm2m/core/er-coap-13/er-coap-13.c ****     else
 285:/home/baikal/workspace/C50/Huawei_IoT_Agent_Tiny_SDK_Linux//lwm2m/core/er-coap-13/er-coap-13.c ****     {
 286:/home/baikal/workspace/C50/Huawei_IoT_Agent_Tiny_SDK_Linux//lwm2m/core/er-coap-13/er-coap-13.c ****         /* dst is empty: set to option */
 287:/home/baikal/workspace/C50/Huawei_IoT_Agent_Tiny_SDK_Linux//lwm2m/core/er-coap-13/er-coap-13.c ****         *dst = option;
 675              		.loc 1 287 0
 676 003d 488917   		movq	%rdx, (%rdi)
 288:/home/baikal/workspace/C50/Huawei_IoT_Agent_Tiny_SDK_Linux//lwm2m/core/er-coap-13/er-coap-13.c ****         *dst_len = option_len;
 677              		.loc 1 288 0
 678 0040 48890E   		movq	%rcx, (%rsi)
 289:/home/baikal/workspace/C50/Huawei_IoT_Agent_Tiny_SDK_Linux//lwm2m/core/er-coap-13/er-coap-13.c ****     }
 290:/home/baikal/workspace/C50/Huawei_IoT_Agent_Tiny_SDK_Linux//lwm2m/core/er-coap-13/er-coap-13.c **** }
 679              		.loc 1 290 0
 680 0043 C3       		ret
 681              	.LVL97:
 682              	.L43:
 683              	.LCFI46:
 684              		.cfi_def_cfa_offset 32
 685              		.cfi_offset 3, -24
 686              		.cfi_offset 6, -16
 687 0044 4883C408 		addq	$8, %rsp
 688              	.LCFI47:
 689              		.cfi_def_cfa_offset 24
 690 0048 5B       		popq	%rbx
 691              	.LCFI48:
 692              		.cfi_restore 3
 693              		.cfi_def_cfa_offset 16
 694              	.LVL98:
 695 0049 5D       		popq	%rbp
 696              	.LCFI49:
 697              		.cfi_restore 6
 698              		.cfi_def_cfa_offset 8
GAS LISTING /tmp/ccSAldBr.s 			page 20


 699              	.LVL99:
 700 004a C3       		ret
 701              		.cfi_endproc
 702              	.LFE70:
 704              		.section	.text.coap_get_variable,"ax",@progbits
 706              	coap_get_variable:
 707              	.LFB74:
 291:/home/baikal/workspace/C50/Huawei_IoT_Agent_Tiny_SDK_Linux//lwm2m/core/er-coap-13/er-coap-13.c **** 
 292:/home/baikal/workspace/C50/Huawei_IoT_Agent_Tiny_SDK_Linux//lwm2m/core/er-coap-13/er-coap-13.c **** void
 293:/home/baikal/workspace/C50/Huawei_IoT_Agent_Tiny_SDK_Linux//lwm2m/core/er-coap-13/er-coap-13.c **** coap_add_multi_option(multi_option_t **dst, uint8_t *option, size_t option_len, uint8_t is_static)
 294:/home/baikal/workspace/C50/Huawei_IoT_Agent_Tiny_SDK_Linux//lwm2m/core/er-coap-13/er-coap-13.c **** {
 295:/home/baikal/workspace/C50/Huawei_IoT_Agent_Tiny_SDK_Linux//lwm2m/core/er-coap-13/er-coap-13.c ****     multi_option_t *opt = (multi_option_t *)lwm2m_malloc(sizeof(multi_option_t));
 296:/home/baikal/workspace/C50/Huawei_IoT_Agent_Tiny_SDK_Linux//lwm2m/core/er-coap-13/er-coap-13.c **** 
 297:/home/baikal/workspace/C50/Huawei_IoT_Agent_Tiny_SDK_Linux//lwm2m/core/er-coap-13/er-coap-13.c ****     if (opt)
 298:/home/baikal/workspace/C50/Huawei_IoT_Agent_Tiny_SDK_Linux//lwm2m/core/er-coap-13/er-coap-13.c ****     {
 299:/home/baikal/workspace/C50/Huawei_IoT_Agent_Tiny_SDK_Linux//lwm2m/core/er-coap-13/er-coap-13.c ****         opt->next = NULL;
 300:/home/baikal/workspace/C50/Huawei_IoT_Agent_Tiny_SDK_Linux//lwm2m/core/er-coap-13/er-coap-13.c ****         opt->len = (uint8_t)option_len;
 301:/home/baikal/workspace/C50/Huawei_IoT_Agent_Tiny_SDK_Linux//lwm2m/core/er-coap-13/er-coap-13.c ****         if (is_static)
 302:/home/baikal/workspace/C50/Huawei_IoT_Agent_Tiny_SDK_Linux//lwm2m/core/er-coap-13/er-coap-13.c ****         {
 303:/home/baikal/workspace/C50/Huawei_IoT_Agent_Tiny_SDK_Linux//lwm2m/core/er-coap-13/er-coap-13.c ****             opt->data = option;
 304:/home/baikal/workspace/C50/Huawei_IoT_Agent_Tiny_SDK_Linux//lwm2m/core/er-coap-13/er-coap-13.c ****             opt->is_static = 1;
 305:/home/baikal/workspace/C50/Huawei_IoT_Agent_Tiny_SDK_Linux//lwm2m/core/er-coap-13/er-coap-13.c ****         }
 306:/home/baikal/workspace/C50/Huawei_IoT_Agent_Tiny_SDK_Linux//lwm2m/core/er-coap-13/er-coap-13.c ****         else
 307:/home/baikal/workspace/C50/Huawei_IoT_Agent_Tiny_SDK_Linux//lwm2m/core/er-coap-13/er-coap-13.c ****         {
 308:/home/baikal/workspace/C50/Huawei_IoT_Agent_Tiny_SDK_Linux//lwm2m/core/er-coap-13/er-coap-13.c ****             opt->is_static = 0;
 309:/home/baikal/workspace/C50/Huawei_IoT_Agent_Tiny_SDK_Linux//lwm2m/core/er-coap-13/er-coap-13.c ****             opt->data = (uint8_t *)lwm2m_malloc(option_len);
 310:/home/baikal/workspace/C50/Huawei_IoT_Agent_Tiny_SDK_Linux//lwm2m/core/er-coap-13/er-coap-13.c ****             if (opt->data == NULL)
 311:/home/baikal/workspace/C50/Huawei_IoT_Agent_Tiny_SDK_Linux//lwm2m/core/er-coap-13/er-coap-13.c ****             {
 312:/home/baikal/workspace/C50/Huawei_IoT_Agent_Tiny_SDK_Linux//lwm2m/core/er-coap-13/er-coap-13.c ****                 lwm2m_free(opt);
 313:/home/baikal/workspace/C50/Huawei_IoT_Agent_Tiny_SDK_Linux//lwm2m/core/er-coap-13/er-coap-13.c ****                 return;
 314:/home/baikal/workspace/C50/Huawei_IoT_Agent_Tiny_SDK_Linux//lwm2m/core/er-coap-13/er-coap-13.c ****             }
 315:/home/baikal/workspace/C50/Huawei_IoT_Agent_Tiny_SDK_Linux//lwm2m/core/er-coap-13/er-coap-13.c ****             memcpy(opt->data, option, option_len);
 316:/home/baikal/workspace/C50/Huawei_IoT_Agent_Tiny_SDK_Linux//lwm2m/core/er-coap-13/er-coap-13.c ****         }
 317:/home/baikal/workspace/C50/Huawei_IoT_Agent_Tiny_SDK_Linux//lwm2m/core/er-coap-13/er-coap-13.c **** 
 318:/home/baikal/workspace/C50/Huawei_IoT_Agent_Tiny_SDK_Linux//lwm2m/core/er-coap-13/er-coap-13.c ****         if (*dst)
 319:/home/baikal/workspace/C50/Huawei_IoT_Agent_Tiny_SDK_Linux//lwm2m/core/er-coap-13/er-coap-13.c ****         {
 320:/home/baikal/workspace/C50/Huawei_IoT_Agent_Tiny_SDK_Linux//lwm2m/core/er-coap-13/er-coap-13.c ****             multi_option_t *i = *dst;
 321:/home/baikal/workspace/C50/Huawei_IoT_Agent_Tiny_SDK_Linux//lwm2m/core/er-coap-13/er-coap-13.c ****             while (i->next)
 322:/home/baikal/workspace/C50/Huawei_IoT_Agent_Tiny_SDK_Linux//lwm2m/core/er-coap-13/er-coap-13.c ****             {
 323:/home/baikal/workspace/C50/Huawei_IoT_Agent_Tiny_SDK_Linux//lwm2m/core/er-coap-13/er-coap-13.c ****                 i = i->next;
 324:/home/baikal/workspace/C50/Huawei_IoT_Agent_Tiny_SDK_Linux//lwm2m/core/er-coap-13/er-coap-13.c ****             }
 325:/home/baikal/workspace/C50/Huawei_IoT_Agent_Tiny_SDK_Linux//lwm2m/core/er-coap-13/er-coap-13.c ****             i->next = opt;
 326:/home/baikal/workspace/C50/Huawei_IoT_Agent_Tiny_SDK_Linux//lwm2m/core/er-coap-13/er-coap-13.c ****         }
 327:/home/baikal/workspace/C50/Huawei_IoT_Agent_Tiny_SDK_Linux//lwm2m/core/er-coap-13/er-coap-13.c ****         else
 328:/home/baikal/workspace/C50/Huawei_IoT_Agent_Tiny_SDK_Linux//lwm2m/core/er-coap-13/er-coap-13.c ****         {
 329:/home/baikal/workspace/C50/Huawei_IoT_Agent_Tiny_SDK_Linux//lwm2m/core/er-coap-13/er-coap-13.c ****             *dst = opt;
 330:/home/baikal/workspace/C50/Huawei_IoT_Agent_Tiny_SDK_Linux//lwm2m/core/er-coap-13/er-coap-13.c ****         }
 331:/home/baikal/workspace/C50/Huawei_IoT_Agent_Tiny_SDK_Linux//lwm2m/core/er-coap-13/er-coap-13.c ****     }
 332:/home/baikal/workspace/C50/Huawei_IoT_Agent_Tiny_SDK_Linux//lwm2m/core/er-coap-13/er-coap-13.c **** }
 333:/home/baikal/workspace/C50/Huawei_IoT_Agent_Tiny_SDK_Linux//lwm2m/core/er-coap-13/er-coap-13.c **** 
 334:/home/baikal/workspace/C50/Huawei_IoT_Agent_Tiny_SDK_Linux//lwm2m/core/er-coap-13/er-coap-13.c **** void
 335:/home/baikal/workspace/C50/Huawei_IoT_Agent_Tiny_SDK_Linux//lwm2m/core/er-coap-13/er-coap-13.c **** free_multi_option(multi_option_t *dst)
 336:/home/baikal/workspace/C50/Huawei_IoT_Agent_Tiny_SDK_Linux//lwm2m/core/er-coap-13/er-coap-13.c **** {
 337:/home/baikal/workspace/C50/Huawei_IoT_Agent_Tiny_SDK_Linux//lwm2m/core/er-coap-13/er-coap-13.c ****     if (dst)
 338:/home/baikal/workspace/C50/Huawei_IoT_Agent_Tiny_SDK_Linux//lwm2m/core/er-coap-13/er-coap-13.c ****     {
 339:/home/baikal/workspace/C50/Huawei_IoT_Agent_Tiny_SDK_Linux//lwm2m/core/er-coap-13/er-coap-13.c ****         multi_option_t *n = dst->next;
 340:/home/baikal/workspace/C50/Huawei_IoT_Agent_Tiny_SDK_Linux//lwm2m/core/er-coap-13/er-coap-13.c ****         dst->next = NULL;
GAS LISTING /tmp/ccSAldBr.s 			page 21


 341:/home/baikal/workspace/C50/Huawei_IoT_Agent_Tiny_SDK_Linux//lwm2m/core/er-coap-13/er-coap-13.c ****         if (dst->is_static == 0)
 342:/home/baikal/workspace/C50/Huawei_IoT_Agent_Tiny_SDK_Linux//lwm2m/core/er-coap-13/er-coap-13.c ****         {
 343:/home/baikal/workspace/C50/Huawei_IoT_Agent_Tiny_SDK_Linux//lwm2m/core/er-coap-13/er-coap-13.c ****             lwm2m_free(dst->data);
 344:/home/baikal/workspace/C50/Huawei_IoT_Agent_Tiny_SDK_Linux//lwm2m/core/er-coap-13/er-coap-13.c ****         }
 345:/home/baikal/workspace/C50/Huawei_IoT_Agent_Tiny_SDK_Linux//lwm2m/core/er-coap-13/er-coap-13.c ****         lwm2m_free(dst);
 346:/home/baikal/workspace/C50/Huawei_IoT_Agent_Tiny_SDK_Linux//lwm2m/core/er-coap-13/er-coap-13.c ****         free_multi_option(n);
 347:/home/baikal/workspace/C50/Huawei_IoT_Agent_Tiny_SDK_Linux//lwm2m/core/er-coap-13/er-coap-13.c ****     }
 348:/home/baikal/workspace/C50/Huawei_IoT_Agent_Tiny_SDK_Linux//lwm2m/core/er-coap-13/er-coap-13.c **** }
 349:/home/baikal/workspace/C50/Huawei_IoT_Agent_Tiny_SDK_Linux//lwm2m/core/er-coap-13/er-coap-13.c **** 
 350:/home/baikal/workspace/C50/Huawei_IoT_Agent_Tiny_SDK_Linux//lwm2m/core/er-coap-13/er-coap-13.c **** char *coap_get_multi_option_as_string(multi_option_t *option)
 351:/home/baikal/workspace/C50/Huawei_IoT_Agent_Tiny_SDK_Linux//lwm2m/core/er-coap-13/er-coap-13.c **** {
 352:/home/baikal/workspace/C50/Huawei_IoT_Agent_Tiny_SDK_Linux//lwm2m/core/er-coap-13/er-coap-13.c ****     size_t len = 0;
 353:/home/baikal/workspace/C50/Huawei_IoT_Agent_Tiny_SDK_Linux//lwm2m/core/er-coap-13/er-coap-13.c ****     multi_option_t *opt;
 354:/home/baikal/workspace/C50/Huawei_IoT_Agent_Tiny_SDK_Linux//lwm2m/core/er-coap-13/er-coap-13.c ****     char *output;
 355:/home/baikal/workspace/C50/Huawei_IoT_Agent_Tiny_SDK_Linux//lwm2m/core/er-coap-13/er-coap-13.c **** 
 356:/home/baikal/workspace/C50/Huawei_IoT_Agent_Tiny_SDK_Linux//lwm2m/core/er-coap-13/er-coap-13.c ****     for (opt = option; opt != NULL; opt = opt->next)
 357:/home/baikal/workspace/C50/Huawei_IoT_Agent_Tiny_SDK_Linux//lwm2m/core/er-coap-13/er-coap-13.c ****     {
 358:/home/baikal/workspace/C50/Huawei_IoT_Agent_Tiny_SDK_Linux//lwm2m/core/er-coap-13/er-coap-13.c ****         len += opt->len + 1;     // for separator
 359:/home/baikal/workspace/C50/Huawei_IoT_Agent_Tiny_SDK_Linux//lwm2m/core/er-coap-13/er-coap-13.c ****     }
 360:/home/baikal/workspace/C50/Huawei_IoT_Agent_Tiny_SDK_Linux//lwm2m/core/er-coap-13/er-coap-13.c **** 
 361:/home/baikal/workspace/C50/Huawei_IoT_Agent_Tiny_SDK_Linux//lwm2m/core/er-coap-13/er-coap-13.c ****     output = lwm2m_malloc(len + 1); // for String terminator
 362:/home/baikal/workspace/C50/Huawei_IoT_Agent_Tiny_SDK_Linux//lwm2m/core/er-coap-13/er-coap-13.c ****     if (output != NULL)
 363:/home/baikal/workspace/C50/Huawei_IoT_Agent_Tiny_SDK_Linux//lwm2m/core/er-coap-13/er-coap-13.c ****     {
 364:/home/baikal/workspace/C50/Huawei_IoT_Agent_Tiny_SDK_Linux//lwm2m/core/er-coap-13/er-coap-13.c ****         size_t i = 0;
 365:/home/baikal/workspace/C50/Huawei_IoT_Agent_Tiny_SDK_Linux//lwm2m/core/er-coap-13/er-coap-13.c **** 
 366:/home/baikal/workspace/C50/Huawei_IoT_Agent_Tiny_SDK_Linux//lwm2m/core/er-coap-13/er-coap-13.c ****         for (opt = option; opt != NULL; opt = opt->next)
 367:/home/baikal/workspace/C50/Huawei_IoT_Agent_Tiny_SDK_Linux//lwm2m/core/er-coap-13/er-coap-13.c ****         {
 368:/home/baikal/workspace/C50/Huawei_IoT_Agent_Tiny_SDK_Linux//lwm2m/core/er-coap-13/er-coap-13.c ****             output[i] = '/';
 369:/home/baikal/workspace/C50/Huawei_IoT_Agent_Tiny_SDK_Linux//lwm2m/core/er-coap-13/er-coap-13.c ****             i += 1;
 370:/home/baikal/workspace/C50/Huawei_IoT_Agent_Tiny_SDK_Linux//lwm2m/core/er-coap-13/er-coap-13.c **** 
 371:/home/baikal/workspace/C50/Huawei_IoT_Agent_Tiny_SDK_Linux//lwm2m/core/er-coap-13/er-coap-13.c ****             memmove(output + i, opt->data, opt->len);
 372:/home/baikal/workspace/C50/Huawei_IoT_Agent_Tiny_SDK_Linux//lwm2m/core/er-coap-13/er-coap-13.c ****             i += opt->len;
 373:/home/baikal/workspace/C50/Huawei_IoT_Agent_Tiny_SDK_Linux//lwm2m/core/er-coap-13/er-coap-13.c ****         }
 374:/home/baikal/workspace/C50/Huawei_IoT_Agent_Tiny_SDK_Linux//lwm2m/core/er-coap-13/er-coap-13.c ****         output[i] = 0;
 375:/home/baikal/workspace/C50/Huawei_IoT_Agent_Tiny_SDK_Linux//lwm2m/core/er-coap-13/er-coap-13.c ****     }
 376:/home/baikal/workspace/C50/Huawei_IoT_Agent_Tiny_SDK_Linux//lwm2m/core/er-coap-13/er-coap-13.c **** 
 377:/home/baikal/workspace/C50/Huawei_IoT_Agent_Tiny_SDK_Linux//lwm2m/core/er-coap-13/er-coap-13.c ****     return output;
 378:/home/baikal/workspace/C50/Huawei_IoT_Agent_Tiny_SDK_Linux//lwm2m/core/er-coap-13/er-coap-13.c **** }
 379:/home/baikal/workspace/C50/Huawei_IoT_Agent_Tiny_SDK_Linux//lwm2m/core/er-coap-13/er-coap-13.c **** 
 380:/home/baikal/workspace/C50/Huawei_IoT_Agent_Tiny_SDK_Linux//lwm2m/core/er-coap-13/er-coap-13.c **** /*-----------------------------------------------------------------------------------*/
 381:/home/baikal/workspace/C50/Huawei_IoT_Agent_Tiny_SDK_Linux//lwm2m/core/er-coap-13/er-coap-13.c **** static
 382:/home/baikal/workspace/C50/Huawei_IoT_Agent_Tiny_SDK_Linux//lwm2m/core/er-coap-13/er-coap-13.c **** int
 383:/home/baikal/workspace/C50/Huawei_IoT_Agent_Tiny_SDK_Linux//lwm2m/core/er-coap-13/er-coap-13.c **** coap_get_variable(const uint8_t *buffer, size_t length, const char *name, const char **output)
 384:/home/baikal/workspace/C50/Huawei_IoT_Agent_Tiny_SDK_Linux//lwm2m/core/er-coap-13/er-coap-13.c **** {
 708              		.loc 1 384 0
 709              		.cfi_startproc
 710              	.LVL100:
 711 0000 4157     		pushq	%r15
 712              	.LCFI50:
 713              		.cfi_def_cfa_offset 16
 714              		.cfi_offset 15, -16
 715 0002 4156     		pushq	%r14
 716              	.LCFI51:
 717              		.cfi_def_cfa_offset 24
 718              		.cfi_offset 14, -24
 719 0004 4155     		pushq	%r13
 720              	.LCFI52:
GAS LISTING /tmp/ccSAldBr.s 			page 22


 721              		.cfi_def_cfa_offset 32
 722              		.cfi_offset 13, -32
 723 0006 4154     		pushq	%r12
 724              	.LCFI53:
 725              		.cfi_def_cfa_offset 40
 726              		.cfi_offset 12, -40
 727 0008 55       		pushq	%rbp
 728              	.LCFI54:
 729              		.cfi_def_cfa_offset 48
 730              		.cfi_offset 6, -48
 731 0009 53       		pushq	%rbx
 732              	.LCFI55:
 733              		.cfi_def_cfa_offset 56
 734              		.cfi_offset 3, -56
 735 000a 4883EC08 		subq	$8, %rsp
 736              	.LCFI56:
 737              		.cfi_def_cfa_offset 64
 738 000e 4989FD   		movq	%rdi, %r13
 739 0011 4989D6   		movq	%rdx, %r14
 740 0014 4989CF   		movq	%rcx, %r15
 741              	.LVL101:
 385:/home/baikal/workspace/C50/Huawei_IoT_Agent_Tiny_SDK_Linux//lwm2m/core/er-coap-13/er-coap-13.c ****     const uint8_t *start = NULL;
 386:/home/baikal/workspace/C50/Huawei_IoT_Agent_Tiny_SDK_Linux//lwm2m/core/er-coap-13/er-coap-13.c ****     const uint8_t *end = NULL;
 387:/home/baikal/workspace/C50/Huawei_IoT_Agent_Tiny_SDK_Linux//lwm2m/core/er-coap-13/er-coap-13.c ****     const uint8_t *value_end = NULL;
 388:/home/baikal/workspace/C50/Huawei_IoT_Agent_Tiny_SDK_Linux//lwm2m/core/er-coap-13/er-coap-13.c ****     size_t name_len = 0;
 389:/home/baikal/workspace/C50/Huawei_IoT_Agent_Tiny_SDK_Linux//lwm2m/core/er-coap-13/er-coap-13.c **** 
 390:/home/baikal/workspace/C50/Huawei_IoT_Agent_Tiny_SDK_Linux//lwm2m/core/er-coap-13/er-coap-13.c ****     /*initialize the output buffer first*/
 391:/home/baikal/workspace/C50/Huawei_IoT_Agent_Tiny_SDK_Linux//lwm2m/core/er-coap-13/er-coap-13.c ****     *output = 0;
 742              		.loc 1 391 0
 743 0017 48C70100 		movq	$0, (%rcx)
 743      000000
 392:/home/baikal/workspace/C50/Huawei_IoT_Agent_Tiny_SDK_Linux//lwm2m/core/er-coap-13/er-coap-13.c **** 
 393:/home/baikal/workspace/C50/Huawei_IoT_Agent_Tiny_SDK_Linux//lwm2m/core/er-coap-13/er-coap-13.c ****     name_len = strlen(name);
 744              		.loc 1 393 0
 745 001e B8000000 		movl	$0, %eax
 745      00
 746 0023 48C7C1FF 		movq	$-1, %rcx
 746      FFFFFF
 747              	.LVL102:
 748 002a 4889D7   		movq	%rdx, %rdi
 749              	.LVL103:
 750 002d F2AE     		repnz scasb
 751              	.LVL104:
 752 002f 48F7D1   		notq	%rcx
 753 0032 488D69FF 		leaq	-1(%rcx), %rbp
 754              	.LVL105:
 394:/home/baikal/workspace/C50/Huawei_IoT_Agent_Tiny_SDK_Linux//lwm2m/core/er-coap-13/er-coap-13.c ****     end = buffer + length;
 755              		.loc 1 394 0
 756 0036 4D8D6435 		leaq	0(%r13,%rsi), %r12
 756      00
 757              	.LVL106:
 395:/home/baikal/workspace/C50/Huawei_IoT_Agent_Tiny_SDK_Linux//lwm2m/core/er-coap-13/er-coap-13.c **** 
 396:/home/baikal/workspace/C50/Huawei_IoT_Agent_Tiny_SDK_Linux//lwm2m/core/er-coap-13/er-coap-13.c ****     for (start = buffer; start + name_len < end; ++start)
 758              		.loc 1 396 0
 759 003b 4C89EB   		movq	%r13, %rbx
 760 003e EB4D     		jmp	.L49
 761              	.LVL107:
GAS LISTING /tmp/ccSAldBr.s 			page 23


 762              	.L54:
 397:/home/baikal/workspace/C50/Huawei_IoT_Agent_Tiny_SDK_Linux//lwm2m/core/er-coap-13/er-coap-13.c ****     {
 398:/home/baikal/workspace/C50/Huawei_IoT_Agent_Tiny_SDK_Linux//lwm2m/core/er-coap-13/er-coap-13.c ****         if ((start == buffer || start[-1] == '&') && start[name_len] == '=' &&
 763              		.loc 1 398 0
 764 0040 4C39EB   		cmpq	%r13, %rbx
 765 0043 7406     		je	.L50
 766              		.loc 1 398 0 is_stmt 0 discriminator 2
 767 0045 807BFF26 		cmpb	$38, -1(%rbx)
 768 0049 753E     		jne	.L51
 769              	.L50:
 770              		.loc 1 398 0 discriminator 3
 771 004b 80383D   		cmpb	$61, (%rax)
 772 004e 7539     		jne	.L51
 399:/home/baikal/workspace/C50/Huawei_IoT_Agent_Tiny_SDK_Linux//lwm2m/core/er-coap-13/er-coap-13.c ****                 strncmp(name, (char *)start, name_len) == 0)
 773              		.loc 1 399 0 is_stmt 1 discriminator 4
 774 0050 4889EA   		movq	%rbp, %rdx
 775 0053 4889DE   		movq	%rbx, %rsi
 776 0056 4C89F7   		movq	%r14, %rdi
 777 0059 E8000000 		call	strncmp
 777      00
 778              	.LVL108:
 398:/home/baikal/workspace/C50/Huawei_IoT_Agent_Tiny_SDK_Linux//lwm2m/core/er-coap-13/er-coap-13.c ****                 strncmp(name, (char *)start, name_len) == 0)
 779              		.loc 1 398 0 discriminator 4
 780 005e 85C0     		testl	%eax, %eax
 781 0060 7527     		jne	.L51
 400:/home/baikal/workspace/C50/Huawei_IoT_Agent_Tiny_SDK_Linux//lwm2m/core/er-coap-13/er-coap-13.c ****         {
 401:/home/baikal/workspace/C50/Huawei_IoT_Agent_Tiny_SDK_Linux//lwm2m/core/er-coap-13/er-coap-13.c **** 
 402:/home/baikal/workspace/C50/Huawei_IoT_Agent_Tiny_SDK_Linux//lwm2m/core/er-coap-13/er-coap-13.c ****             /* Point start to variable value */
 403:/home/baikal/workspace/C50/Huawei_IoT_Agent_Tiny_SDK_Linux//lwm2m/core/er-coap-13/er-coap-13.c ****             start += name_len + 1;
 782              		.loc 1 403 0
 783 0062 488D5C2B 		leaq	1(%rbx,%rbp), %rbx
 783      01
 784              	.LVL109:
 404:/home/baikal/workspace/C50/Huawei_IoT_Agent_Tiny_SDK_Linux//lwm2m/core/er-coap-13/er-coap-13.c **** 
 405:/home/baikal/workspace/C50/Huawei_IoT_Agent_Tiny_SDK_Linux//lwm2m/core/er-coap-13/er-coap-13.c ****             /* Point end to the end of the value */
 406:/home/baikal/workspace/C50/Huawei_IoT_Agent_Tiny_SDK_Linux//lwm2m/core/er-coap-13/er-coap-13.c ****             value_end = (const uint8_t *) memchr(start, '&', end - start);
 785              		.loc 1 406 0
 786 0067 4C89E2   		movq	%r12, %rdx
 787 006a 4829DA   		subq	%rbx, %rdx
 788 006d BE260000 		movl	$38, %esi
 788      00
 789 0072 4889DF   		movq	%rbx, %rdi
 790 0075 E8000000 		call	memchr
 790      00
 791              	.LVL110:
 407:/home/baikal/workspace/C50/Huawei_IoT_Agent_Tiny_SDK_Linux//lwm2m/core/er-coap-13/er-coap-13.c ****             if (value_end == NULL)
 792              		.loc 1 407 0
 793 007a 4885C0   		testq	%rax, %rax
 794 007d 7503     		jne	.L52
 408:/home/baikal/workspace/C50/Huawei_IoT_Agent_Tiny_SDK_Linux//lwm2m/core/er-coap-13/er-coap-13.c ****             {
 409:/home/baikal/workspace/C50/Huawei_IoT_Agent_Tiny_SDK_Linux//lwm2m/core/er-coap-13/er-coap-13.c ****                 value_end = end;
 795              		.loc 1 409 0
 796 007f 4C89E0   		movq	%r12, %rax
 797              	.LVL111:
 798              	.L52:
 410:/home/baikal/workspace/C50/Huawei_IoT_Agent_Tiny_SDK_Linux//lwm2m/core/er-coap-13/er-coap-13.c ****             }
 411:/home/baikal/workspace/C50/Huawei_IoT_Agent_Tiny_SDK_Linux//lwm2m/core/er-coap-13/er-coap-13.c **** 
GAS LISTING /tmp/ccSAldBr.s 			page 24


 412:/home/baikal/workspace/C50/Huawei_IoT_Agent_Tiny_SDK_Linux//lwm2m/core/er-coap-13/er-coap-13.c ****             *output = (char *)start;
 799              		.loc 1 412 0
 800 0082 49891F   		movq	%rbx, (%r15)
 413:/home/baikal/workspace/C50/Huawei_IoT_Agent_Tiny_SDK_Linux//lwm2m/core/er-coap-13/er-coap-13.c **** 
 414:/home/baikal/workspace/C50/Huawei_IoT_Agent_Tiny_SDK_Linux//lwm2m/core/er-coap-13/er-coap-13.c ****             return (value_end - start);
 801              		.loc 1 414 0
 802 0085 29D8     		subl	%ebx, %eax
 803              	.LVL112:
 804 0087 EB12     		jmp	.L53
 805              	.LVL113:
 806              	.L51:
 396:/home/baikal/workspace/C50/Huawei_IoT_Agent_Tiny_SDK_Linux//lwm2m/core/er-coap-13/er-coap-13.c ****     {
 807              		.loc 1 396 0 discriminator 2
 808 0089 4883C301 		addq	$1, %rbx
 809              	.LVL114:
 810              	.L49:
 396:/home/baikal/workspace/C50/Huawei_IoT_Agent_Tiny_SDK_Linux//lwm2m/core/er-coap-13/er-coap-13.c ****     {
 811              		.loc 1 396 0 is_stmt 0 discriminator 1
 812 008d 488D042B 		leaq	(%rbx,%rbp), %rax
 813 0091 4939C4   		cmpq	%rax, %r12
 814 0094 77AA     		ja	.L54
 415:/home/baikal/workspace/C50/Huawei_IoT_Agent_Tiny_SDK_Linux//lwm2m/core/er-coap-13/er-coap-13.c ****         }
 416:/home/baikal/workspace/C50/Huawei_IoT_Agent_Tiny_SDK_Linux//lwm2m/core/er-coap-13/er-coap-13.c ****     }
 417:/home/baikal/workspace/C50/Huawei_IoT_Agent_Tiny_SDK_Linux//lwm2m/core/er-coap-13/er-coap-13.c **** 
 418:/home/baikal/workspace/C50/Huawei_IoT_Agent_Tiny_SDK_Linux//lwm2m/core/er-coap-13/er-coap-13.c ****     return 0;
 815              		.loc 1 418 0 is_stmt 1
 816 0096 B8000000 		movl	$0, %eax
 816      00
 817              	.LVL115:
 818              	.L53:
 419:/home/baikal/workspace/C50/Huawei_IoT_Agent_Tiny_SDK_Linux//lwm2m/core/er-coap-13/er-coap-13.c **** }
 819              		.loc 1 419 0
 820 009b 4883C408 		addq	$8, %rsp
 821              	.LCFI57:
 822              		.cfi_def_cfa_offset 56
 823 009f 5B       		popq	%rbx
 824              	.LCFI58:
 825              		.cfi_def_cfa_offset 48
 826              	.LVL116:
 827 00a0 5D       		popq	%rbp
 828              	.LCFI59:
 829              		.cfi_def_cfa_offset 40
 830              	.LVL117:
 831 00a1 415C     		popq	%r12
 832              	.LCFI60:
 833              		.cfi_def_cfa_offset 32
 834              	.LVL118:
 835 00a3 415D     		popq	%r13
 836              	.LCFI61:
 837              		.cfi_def_cfa_offset 24
 838              	.LVL119:
 839 00a5 415E     		popq	%r14
 840              	.LCFI62:
 841              		.cfi_def_cfa_offset 16
 842 00a7 415F     		popq	%r15
 843              	.LCFI63:
 844              		.cfi_def_cfa_offset 8
GAS LISTING /tmp/ccSAldBr.s 			page 25


 845              	.LVL120:
 846 00a9 C3       		ret
 847              		.cfi_endproc
 848              	.LFE74:
 850              		.section	.text.coap_add_multi_option,"ax",@progbits
 851              		.globl	coap_add_multi_option
 853              	coap_add_multi_option:
 854              	.LFB71:
 294:/home/baikal/workspace/C50/Huawei_IoT_Agent_Tiny_SDK_Linux//lwm2m/core/er-coap-13/er-coap-13.c ****     multi_option_t *opt = (multi_option_t *)lwm2m_malloc(sizeof(multi_option_t));
 855              		.loc 1 294 0
 856              		.cfi_startproc
 857              	.LVL121:
 858 0000 4156     		pushq	%r14
 859              	.LCFI64:
 860              		.cfi_def_cfa_offset 16
 861              		.cfi_offset 14, -16
 862 0002 4155     		pushq	%r13
 863              	.LCFI65:
 864              		.cfi_def_cfa_offset 24
 865              		.cfi_offset 13, -24
 866 0004 4154     		pushq	%r12
 867              	.LCFI66:
 868              		.cfi_def_cfa_offset 32
 869              		.cfi_offset 12, -32
 870 0006 55       		pushq	%rbp
 871              	.LCFI67:
 872              		.cfi_def_cfa_offset 40
 873              		.cfi_offset 6, -40
 874 0007 53       		pushq	%rbx
 875              	.LCFI68:
 876              		.cfi_def_cfa_offset 48
 877              		.cfi_offset 3, -48
 878 0008 4989FC   		movq	%rdi, %r12
 879 000b 4989F6   		movq	%rsi, %r14
 880 000e 4889D5   		movq	%rdx, %rbp
 881 0011 4189CD   		movl	%ecx, %r13d
 295:/home/baikal/workspace/C50/Huawei_IoT_Agent_Tiny_SDK_Linux//lwm2m/core/er-coap-13/er-coap-13.c **** 
 882              		.loc 1 295 0
 883 0014 BF180000 		movl	$24, %edi
 883      00
 884              	.LVL122:
 885 0019 E8000000 		call	lwm2m_malloc
 885      00
 886              	.LVL123:
 297:/home/baikal/workspace/C50/Huawei_IoT_Agent_Tiny_SDK_Linux//lwm2m/core/er-coap-13/er-coap-13.c ****     {
 887              		.loc 1 297 0
 888 001e 4885C0   		testq	%rax, %rax
 889 0021 7469     		je	.L57
 890 0023 4889C3   		movq	%rax, %rbx
 299:/home/baikal/workspace/C50/Huawei_IoT_Agent_Tiny_SDK_Linux//lwm2m/core/er-coap-13/er-coap-13.c ****         opt->len = (uint8_t)option_len;
 891              		.loc 1 299 0
 892 0026 48C70000 		movq	$0, (%rax)
 892      000000
 300:/home/baikal/workspace/C50/Huawei_IoT_Agent_Tiny_SDK_Linux//lwm2m/core/er-coap-13/er-coap-13.c ****         if (is_static)
 893              		.loc 1 300 0
 894 002d 40886809 		movb	%bpl, 9(%rax)
 301:/home/baikal/workspace/C50/Huawei_IoT_Agent_Tiny_SDK_Linux//lwm2m/core/er-coap-13/er-coap-13.c ****         {
GAS LISTING /tmp/ccSAldBr.s 			page 26


 895              		.loc 1 301 0
 896 0031 4584ED   		testb	%r13b, %r13b
 897 0034 740A     		je	.L59
 303:/home/baikal/workspace/C50/Huawei_IoT_Agent_Tiny_SDK_Linux//lwm2m/core/er-coap-13/er-coap-13.c ****             opt->is_static = 1;
 898              		.loc 1 303 0
 899 0036 4C897010 		movq	%r14, 16(%rax)
 304:/home/baikal/workspace/C50/Huawei_IoT_Agent_Tiny_SDK_Linux//lwm2m/core/er-coap-13/er-coap-13.c ****         }
 900              		.loc 1 304 0
 901 003a C6400801 		movb	$1, 8(%rax)
 902 003e EB2D     		jmp	.L60
 903              	.L59:
 308:/home/baikal/workspace/C50/Huawei_IoT_Agent_Tiny_SDK_Linux//lwm2m/core/er-coap-13/er-coap-13.c ****             opt->data = (uint8_t *)lwm2m_malloc(option_len);
 904              		.loc 1 308 0
 905 0040 C6400800 		movb	$0, 8(%rax)
 309:/home/baikal/workspace/C50/Huawei_IoT_Agent_Tiny_SDK_Linux//lwm2m/core/er-coap-13/er-coap-13.c ****             if (opt->data == NULL)
 906              		.loc 1 309 0
 907 0044 4889EF   		movq	%rbp, %rdi
 908 0047 E8000000 		call	lwm2m_malloc
 908      00
 909              	.LVL124:
 910 004c 48894310 		movq	%rax, 16(%rbx)
 310:/home/baikal/workspace/C50/Huawei_IoT_Agent_Tiny_SDK_Linux//lwm2m/core/er-coap-13/er-coap-13.c ****             {
 911              		.loc 1 310 0
 912 0050 4885C0   		testq	%rax, %rax
 913 0053 750A     		jne	.L61
 312:/home/baikal/workspace/C50/Huawei_IoT_Agent_Tiny_SDK_Linux//lwm2m/core/er-coap-13/er-coap-13.c ****                 return;
 914              		.loc 1 312 0
 915 0055 4889DF   		movq	%rbx, %rdi
 916 0058 E8000000 		call	lwm2m_free
 916      00
 917              	.LVL125:
 313:/home/baikal/workspace/C50/Huawei_IoT_Agent_Tiny_SDK_Linux//lwm2m/core/er-coap-13/er-coap-13.c ****             }
 918              		.loc 1 313 0
 919 005d EB2D     		jmp	.L57
 920              	.L61:
 921              	.LVL126:
 922              	.LBB48:
 923              	.LBB49:
  53:/usr/include/x86_64-linux-gnu/bits/string3.h **** }
 924              		.loc 2 53 0
 925 005f 4889EA   		movq	%rbp, %rdx
 926 0062 4C89F6   		movq	%r14, %rsi
 927 0065 4889C7   		movq	%rax, %rdi
 928 0068 E8000000 		call	memcpy
 928      00
 929              	.LVL127:
 930              	.L60:
 931              	.LBE49:
 932              	.LBE48:
 318:/home/baikal/workspace/C50/Huawei_IoT_Agent_Tiny_SDK_Linux//lwm2m/core/er-coap-13/er-coap-13.c ****         {
 933              		.loc 1 318 0
 934 006d 498B1424 		movq	(%r12), %rdx
 935 0071 4885D2   		testq	%rdx, %rdx
 936 0074 7505     		jne	.L63
 937 0076 EB10     		jmp	.L62
 938              	.LVL128:
 939              	.L64:
GAS LISTING /tmp/ccSAldBr.s 			page 27


 940              	.LBB50:
 323:/home/baikal/workspace/C50/Huawei_IoT_Agent_Tiny_SDK_Linux//lwm2m/core/er-coap-13/er-coap-13.c ****             }
 941              		.loc 1 323 0
 942 0078 4889C2   		movq	%rax, %rdx
 943              	.LVL129:
 944              	.L63:
 321:/home/baikal/workspace/C50/Huawei_IoT_Agent_Tiny_SDK_Linux//lwm2m/core/er-coap-13/er-coap-13.c ****             {
 945              		.loc 1 321 0
 946 007b 488B02   		movq	(%rdx), %rax
 947 007e 4885C0   		testq	%rax, %rax
 948 0081 75F5     		jne	.L64
 325:/home/baikal/workspace/C50/Huawei_IoT_Agent_Tiny_SDK_Linux//lwm2m/core/er-coap-13/er-coap-13.c ****         }
 949              		.loc 1 325 0
 950 0083 48891A   		movq	%rbx, (%rdx)
 951              	.LBE50:
 952 0086 EB04     		jmp	.L57
 953              	.LVL130:
 954              	.L62:
 329:/home/baikal/workspace/C50/Huawei_IoT_Agent_Tiny_SDK_Linux//lwm2m/core/er-coap-13/er-coap-13.c ****         }
 955              		.loc 1 329 0
 956 0088 49891C24 		movq	%rbx, (%r12)
 957              	.LVL131:
 958              	.L57:
 332:/home/baikal/workspace/C50/Huawei_IoT_Agent_Tiny_SDK_Linux//lwm2m/core/er-coap-13/er-coap-13.c **** 
 959              		.loc 1 332 0
 960 008c 5B       		popq	%rbx
 961              	.LCFI69:
 962              		.cfi_def_cfa_offset 40
 963 008d 5D       		popq	%rbp
 964              	.LCFI70:
 965              		.cfi_def_cfa_offset 32
 966              	.LVL132:
 967 008e 415C     		popq	%r12
 968              	.LCFI71:
 969              		.cfi_def_cfa_offset 24
 970              	.LVL133:
 971 0090 415D     		popq	%r13
 972              	.LCFI72:
 973              		.cfi_def_cfa_offset 16
 974 0092 415E     		popq	%r14
 975              	.LCFI73:
 976              		.cfi_def_cfa_offset 8
 977              	.LVL134:
 978 0094 C3       		ret
 979              		.cfi_endproc
 980              	.LFE71:
 982              		.section	.text.free_multi_option,"ax",@progbits
 983              		.globl	free_multi_option
 985              	free_multi_option:
 986              	.LFB72:
 336:/home/baikal/workspace/C50/Huawei_IoT_Agent_Tiny_SDK_Linux//lwm2m/core/er-coap-13/er-coap-13.c ****     if (dst)
 987              		.loc 1 336 0
 988              		.cfi_startproc
 989              	.LVL135:
 337:/home/baikal/workspace/C50/Huawei_IoT_Agent_Tiny_SDK_Linux//lwm2m/core/er-coap-13/er-coap-13.c ****     {
 990              		.loc 1 337 0
 991 0000 4885FF   		testq	%rdi, %rdi
GAS LISTING /tmp/ccSAldBr.s 			page 28


 992 0003 7438     		je	.L71
 336:/home/baikal/workspace/C50/Huawei_IoT_Agent_Tiny_SDK_Linux//lwm2m/core/er-coap-13/er-coap-13.c ****     if (dst)
 993              		.loc 1 336 0
 994 0005 55       		pushq	%rbp
 995              	.LCFI74:
 996              		.cfi_def_cfa_offset 16
 997              		.cfi_offset 6, -16
 998 0006 53       		pushq	%rbx
 999              	.LCFI75:
 1000              		.cfi_def_cfa_offset 24
 1001              		.cfi_offset 3, -24
 1002 0007 4883EC08 		subq	$8, %rsp
 1003              	.LCFI76:
 1004              		.cfi_def_cfa_offset 32
 1005 000b 4889FB   		movq	%rdi, %rbx
 1006              	.LBB51:
 339:/home/baikal/workspace/C50/Huawei_IoT_Agent_Tiny_SDK_Linux//lwm2m/core/er-coap-13/er-coap-13.c ****         dst->next = NULL;
 1007              		.loc 1 339 0
 1008 000e 488B2F   		movq	(%rdi), %rbp
 1009              	.LVL136:
 340:/home/baikal/workspace/C50/Huawei_IoT_Agent_Tiny_SDK_Linux//lwm2m/core/er-coap-13/er-coap-13.c ****         if (dst->is_static == 0)
 1010              		.loc 1 340 0
 1011 0011 48C70700 		movq	$0, (%rdi)
 1011      000000
 341:/home/baikal/workspace/C50/Huawei_IoT_Agent_Tiny_SDK_Linux//lwm2m/core/er-coap-13/er-coap-13.c ****         {
 1012              		.loc 1 341 0
 1013 0018 807F0800 		cmpb	$0, 8(%rdi)
 1014 001c 7509     		jne	.L68
 343:/home/baikal/workspace/C50/Huawei_IoT_Agent_Tiny_SDK_Linux//lwm2m/core/er-coap-13/er-coap-13.c ****         }
 1015              		.loc 1 343 0
 1016 001e 488B7F10 		movq	16(%rdi), %rdi
 1017              	.LVL137:
 1018 0022 E8000000 		call	lwm2m_free
 1018      00
 1019              	.LVL138:
 1020              	.L68:
 345:/home/baikal/workspace/C50/Huawei_IoT_Agent_Tiny_SDK_Linux//lwm2m/core/er-coap-13/er-coap-13.c ****         free_multi_option(n);
 1021              		.loc 1 345 0
 1022 0027 4889DF   		movq	%rbx, %rdi
 1023 002a E8000000 		call	lwm2m_free
 1023      00
 1024              	.LVL139:
 346:/home/baikal/workspace/C50/Huawei_IoT_Agent_Tiny_SDK_Linux//lwm2m/core/er-coap-13/er-coap-13.c ****     }
 1025              		.loc 1 346 0
 1026 002f 4889EF   		movq	%rbp, %rdi
 1027 0032 E8000000 		call	free_multi_option
 1027      00
 1028              	.LVL140:
 1029              	.LBE51:
 348:/home/baikal/workspace/C50/Huawei_IoT_Agent_Tiny_SDK_Linux//lwm2m/core/er-coap-13/er-coap-13.c **** 
 1030              		.loc 1 348 0
 1031 0037 4883C408 		addq	$8, %rsp
 1032              	.LCFI77:
 1033              		.cfi_def_cfa_offset 24
 1034 003b 5B       		popq	%rbx
 1035              	.LCFI78:
 1036              		.cfi_restore 3
GAS LISTING /tmp/ccSAldBr.s 			page 29


 1037              		.cfi_def_cfa_offset 16
 1038              	.LVL141:
 1039 003c 5D       		popq	%rbp
 1040              	.LCFI79:
 1041              		.cfi_restore 6
 1042              		.cfi_def_cfa_offset 8
 1043              	.LVL142:
 1044              	.L71:
 1045 003d F3C3     		rep ret
 1046              		.cfi_endproc
 1047              	.LFE72:
 1049              		.section	.text.coap_get_multi_option_as_string,"ax",@progbits
 1050              		.globl	coap_get_multi_option_as_string
 1052              	coap_get_multi_option_as_string:
 1053              	.LFB73:
 351:/home/baikal/workspace/C50/Huawei_IoT_Agent_Tiny_SDK_Linux//lwm2m/core/er-coap-13/er-coap-13.c ****     size_t len = 0;
 1054              		.loc 1 351 0
 1055              		.cfi_startproc
 1056              	.LVL143:
 1057 0000 4154     		pushq	%r12
 1058              	.LCFI80:
 1059              		.cfi_def_cfa_offset 16
 1060              		.cfi_offset 12, -16
 1061 0002 55       		pushq	%rbp
 1062              	.LCFI81:
 1063              		.cfi_def_cfa_offset 24
 1064              		.cfi_offset 6, -24
 1065 0003 53       		pushq	%rbx
 1066              	.LCFI82:
 1067              		.cfi_def_cfa_offset 32
 1068              		.cfi_offset 3, -32
 1069 0004 4889FB   		movq	%rdi, %rbx
 1070              	.LVL144:
 356:/home/baikal/workspace/C50/Huawei_IoT_Agent_Tiny_SDK_Linux//lwm2m/core/er-coap-13/er-coap-13.c ****     {
 1071              		.loc 1 356 0
 1072 0007 4889FA   		movq	%rdi, %rdx
 352:/home/baikal/workspace/C50/Huawei_IoT_Agent_Tiny_SDK_Linux//lwm2m/core/er-coap-13/er-coap-13.c ****     multi_option_t *opt;
 1073              		.loc 1 352 0
 1074 000a BF000000 		movl	$0, %edi
 1074      00
 1075              	.LVL145:
 356:/home/baikal/workspace/C50/Huawei_IoT_Agent_Tiny_SDK_Linux//lwm2m/core/er-coap-13/er-coap-13.c ****     {
 1076              		.loc 1 356 0
 1077 000f EB0F     		jmp	.L73
 1078              	.LVL146:
 1079              	.L74:
 358:/home/baikal/workspace/C50/Huawei_IoT_Agent_Tiny_SDK_Linux//lwm2m/core/er-coap-13/er-coap-13.c ****     }
 1080              		.loc 1 358 0 discriminator 3
 1081 0011 0FB64209 		movzbl	9(%rdx), %eax
 1082 0015 83C001   		addl	$1, %eax
 1083 0018 4898     		cltq
 1084 001a 4801C7   		addq	%rax, %rdi
 1085              	.LVL147:
 356:/home/baikal/workspace/C50/Huawei_IoT_Agent_Tiny_SDK_Linux//lwm2m/core/er-coap-13/er-coap-13.c ****     {
 1086              		.loc 1 356 0 discriminator 3
 1087 001d 488B12   		movq	(%rdx), %rdx
 1088              	.LVL148:
GAS LISTING /tmp/ccSAldBr.s 			page 30


 1089              	.L73:
 356:/home/baikal/workspace/C50/Huawei_IoT_Agent_Tiny_SDK_Linux//lwm2m/core/er-coap-13/er-coap-13.c ****     {
 1090              		.loc 1 356 0 is_stmt 0 discriminator 1
 1091 0020 4885D2   		testq	%rdx, %rdx
 1092 0023 75EC     		jne	.L74
 361:/home/baikal/workspace/C50/Huawei_IoT_Agent_Tiny_SDK_Linux//lwm2m/core/er-coap-13/er-coap-13.c ****     if (output != NULL)
 1093              		.loc 1 361 0 is_stmt 1
 1094 0025 4883C701 		addq	$1, %rdi
 1095              	.LVL149:
 1096 0029 E8000000 		call	lwm2m_malloc
 1096      00
 1097              	.LVL150:
 1098 002e 4989C4   		movq	%rax, %r12
 1099              	.LVL151:
 362:/home/baikal/workspace/C50/Huawei_IoT_Agent_Tiny_SDK_Linux//lwm2m/core/er-coap-13/er-coap-13.c ****     {
 1100              		.loc 1 362 0
 1101 0031 4885C0   		testq	%rax, %rax
 1102 0034 7528     		jne	.L78
 1103 0036 EB35     		jmp	.L76
 1104              	.LVL152:
 1105              	.L77:
 1106              	.LBB52:
 368:/home/baikal/workspace/C50/Huawei_IoT_Agent_Tiny_SDK_Linux//lwm2m/core/er-coap-13/er-coap-13.c ****             i += 1;
 1107              		.loc 1 368 0 discriminator 3
 1108 0038 41C60404 		movb	$47, (%r12,%rax)
 1108      2F
 369:/home/baikal/workspace/C50/Huawei_IoT_Agent_Tiny_SDK_Linux//lwm2m/core/er-coap-13/er-coap-13.c **** 
 1109              		.loc 1 369 0 discriminator 3
 1110 003d 488D6801 		leaq	1(%rax), %rbp
 1111              	.LVL153:
 371:/home/baikal/workspace/C50/Huawei_IoT_Agent_Tiny_SDK_Linux//lwm2m/core/er-coap-13/er-coap-13.c ****             i += opt->len;
 1112              		.loc 1 371 0 discriminator 3
 1113 0041 0FB65309 		movzbl	9(%rbx), %edx
 1114 0045 488B7310 		movq	16(%rbx), %rsi
 1115 0049 498D3C2C 		leaq	(%r12,%rbp), %rdi
 1116              	.LVL154:
 1117              	.LBB53:
 1118              	.LBB54:
 1119              		.loc 2 59 0 discriminator 3
 1120 004d E8000000 		call	memmove
 1120      00
 1121              	.LVL155:
 1122              	.LBE54:
 1123              	.LBE53:
 372:/home/baikal/workspace/C50/Huawei_IoT_Agent_Tiny_SDK_Linux//lwm2m/core/er-coap-13/er-coap-13.c ****         }
 1124              		.loc 1 372 0 discriminator 3
 1125 0052 0FB64309 		movzbl	9(%rbx), %eax
 1126 0056 4801E8   		addq	%rbp, %rax
 1127              	.LVL156:
 366:/home/baikal/workspace/C50/Huawei_IoT_Agent_Tiny_SDK_Linux//lwm2m/core/er-coap-13/er-coap-13.c ****         {
 1128              		.loc 1 366 0 discriminator 3
 1129 0059 488B1B   		movq	(%rbx), %rbx
 1130              	.LVL157:
 1131 005c EB05     		jmp	.L75
 1132              	.LVL158:
 1133              	.L78:
 1134              	.LBE52:
GAS LISTING /tmp/ccSAldBr.s 			page 31


 1135 005e B8000000 		movl	$0, %eax
 1135      00
 1136              	.LVL159:
 1137              	.L75:
 1138              	.LBB55:
 366:/home/baikal/workspace/C50/Huawei_IoT_Agent_Tiny_SDK_Linux//lwm2m/core/er-coap-13/er-coap-13.c ****         {
 1139              		.loc 1 366 0 is_stmt 0 discriminator 1
 1140 0063 4885DB   		testq	%rbx, %rbx
 1141 0066 75D0     		jne	.L77
 374:/home/baikal/workspace/C50/Huawei_IoT_Agent_Tiny_SDK_Linux//lwm2m/core/er-coap-13/er-coap-13.c ****     }
 1142              		.loc 1 374 0 is_stmt 1
 1143 0068 41C60404 		movb	$0, (%r12,%rax)
 1143      00
 1144              	.LVL160:
 1145              	.L76:
 1146              	.LBE55:
 378:/home/baikal/workspace/C50/Huawei_IoT_Agent_Tiny_SDK_Linux//lwm2m/core/er-coap-13/er-coap-13.c **** 
 1147              		.loc 1 378 0
 1148 006d 4C89E0   		movq	%r12, %rax
 1149 0070 5B       		popq	%rbx
 1150              	.LCFI83:
 1151              		.cfi_def_cfa_offset 24
 1152 0071 5D       		popq	%rbp
 1153              	.LCFI84:
 1154              		.cfi_def_cfa_offset 16
 1155 0072 415C     		popq	%r12
 1156              	.LCFI85:
 1157              		.cfi_def_cfa_offset 8
 1158              	.LVL161:
 1159 0074 C3       		ret
 1160              		.cfi_endproc
 1161              	.LFE73:
 1163              		.section	.text.coap_get_mid,"ax",@progbits
 1164              		.globl	coap_get_mid
 1166              	coap_get_mid:
 1167              	.LFB75:
 420:/home/baikal/workspace/C50/Huawei_IoT_Agent_Tiny_SDK_Linux//lwm2m/core/er-coap-13/er-coap-13.c **** 
 421:/home/baikal/workspace/C50/Huawei_IoT_Agent_Tiny_SDK_Linux//lwm2m/core/er-coap-13/er-coap-13.c **** /*-----------------------------------------------------------------------------------*/
 422:/home/baikal/workspace/C50/Huawei_IoT_Agent_Tiny_SDK_Linux//lwm2m/core/er-coap-13/er-coap-13.c **** uint16_t
 423:/home/baikal/workspace/C50/Huawei_IoT_Agent_Tiny_SDK_Linux//lwm2m/core/er-coap-13/er-coap-13.c **** coap_get_mid()
 424:/home/baikal/workspace/C50/Huawei_IoT_Agent_Tiny_SDK_Linux//lwm2m/core/er-coap-13/er-coap-13.c **** {
 1168              		.loc 1 424 0
 1169              		.cfi_startproc
 425:/home/baikal/workspace/C50/Huawei_IoT_Agent_Tiny_SDK_Linux//lwm2m/core/er-coap-13/er-coap-13.c ****     return ++current_mid;
 1170              		.loc 1 425 0
 1171 0000 0FB70500 		movzwl	current_mid(%rip), %eax
 1171      000000
 1172 0007 83C001   		addl	$1, %eax
 1173 000a 66890500 		movw	%ax, current_mid(%rip)
 1173      000000
 426:/home/baikal/workspace/C50/Huawei_IoT_Agent_Tiny_SDK_Linux//lwm2m/core/er-coap-13/er-coap-13.c **** }
 1174              		.loc 1 426 0
 1175 0011 C3       		ret
 1176              		.cfi_endproc
 1177              	.LFE75:
 1179              		.section	.text.coap_init_message,"ax",@progbits
 1180              		.globl	coap_init_message
GAS LISTING /tmp/ccSAldBr.s 			page 32


 1182              	coap_init_message:
 1183              	.LFB76:
 427:/home/baikal/workspace/C50/Huawei_IoT_Agent_Tiny_SDK_Linux//lwm2m/core/er-coap-13/er-coap-13.c **** /*-----------------------------------------------------------------------------------*/
 428:/home/baikal/workspace/C50/Huawei_IoT_Agent_Tiny_SDK_Linux//lwm2m/core/er-coap-13/er-coap-13.c **** /*- MEASSAGE PROCESSING -------------------------------------------------------------*/
 429:/home/baikal/workspace/C50/Huawei_IoT_Agent_Tiny_SDK_Linux//lwm2m/core/er-coap-13/er-coap-13.c **** /*-----------------------------------------------------------------------------------*/
 430:/home/baikal/workspace/C50/Huawei_IoT_Agent_Tiny_SDK_Linux//lwm2m/core/er-coap-13/er-coap-13.c **** void
 431:/home/baikal/workspace/C50/Huawei_IoT_Agent_Tiny_SDK_Linux//lwm2m/core/er-coap-13/er-coap-13.c **** coap_init_message(void *packet, coap_message_type_t type, uint8_t code, uint16_t mid)
 432:/home/baikal/workspace/C50/Huawei_IoT_Agent_Tiny_SDK_Linux//lwm2m/core/er-coap-13/er-coap-13.c **** {
 1184              		.loc 1 432 0
 1185              		.cfi_startproc
 1186              	.LVL162:
 1187 0000 4989F8   		movq	%rdi, %r8
 1188 0003 4189C9   		movl	%ecx, %r9d
 1189              	.LVL163:
 1190              	.LBB56:
 1191              	.LBB57:
  60:/usr/include/x86_64-linux-gnu/bits/string3.h **** }
  61:/usr/include/x86_64-linux-gnu/bits/string3.h **** 
  62:/usr/include/x86_64-linux-gnu/bits/string3.h **** #ifdef __USE_GNU
  63:/usr/include/x86_64-linux-gnu/bits/string3.h **** __fortify_function void *
  64:/usr/include/x86_64-linux-gnu/bits/string3.h **** __NTH (mempcpy (void *__restrict __dest, const void *__restrict __src,
  65:/usr/include/x86_64-linux-gnu/bits/string3.h **** 		size_t __len))
  66:/usr/include/x86_64-linux-gnu/bits/string3.h **** {
  67:/usr/include/x86_64-linux-gnu/bits/string3.h ****   return __builtin___mempcpy_chk (__dest, __src, __len, __bos0 (__dest));
  68:/usr/include/x86_64-linux-gnu/bits/string3.h **** }
  69:/usr/include/x86_64-linux-gnu/bits/string3.h **** #endif
  70:/usr/include/x86_64-linux-gnu/bits/string3.h **** 
  71:/usr/include/x86_64-linux-gnu/bits/string3.h **** 
  72:/usr/include/x86_64-linux-gnu/bits/string3.h **** /* The first two tests here help to catch a somewhat common problem
  73:/usr/include/x86_64-linux-gnu/bits/string3.h ****    where the second and third parameter are transposed.  This is
  74:/usr/include/x86_64-linux-gnu/bits/string3.h ****    especially problematic if the intended fill value is zero.  In this
  75:/usr/include/x86_64-linux-gnu/bits/string3.h ****    case no work is done at all.  We detect these problems by referring
  76:/usr/include/x86_64-linux-gnu/bits/string3.h ****    non-existing functions.  */
  77:/usr/include/x86_64-linux-gnu/bits/string3.h **** __fortify_function void *
  78:/usr/include/x86_64-linux-gnu/bits/string3.h **** __NTH (memset (void *__dest, int __ch, size_t __len))
  79:/usr/include/x86_64-linux-gnu/bits/string3.h **** {
  80:/usr/include/x86_64-linux-gnu/bits/string3.h ****   /* GCC-5.0 and newer implements these checks in the compiler, so we don't
  81:/usr/include/x86_64-linux-gnu/bits/string3.h ****      need them here.  */
  82:/usr/include/x86_64-linux-gnu/bits/string3.h **** #if !__GNUC_PREREQ (5,0)
  83:/usr/include/x86_64-linux-gnu/bits/string3.h ****   if (__builtin_constant_p (__len) && __len == 0
  84:/usr/include/x86_64-linux-gnu/bits/string3.h ****       && (!__builtin_constant_p (__ch) || __ch != 0))
  85:/usr/include/x86_64-linux-gnu/bits/string3.h ****     {
  86:/usr/include/x86_64-linux-gnu/bits/string3.h ****       __warn_memset_zero_len ();
  87:/usr/include/x86_64-linux-gnu/bits/string3.h ****       return __dest;
  88:/usr/include/x86_64-linux-gnu/bits/string3.h ****     }
  89:/usr/include/x86_64-linux-gnu/bits/string3.h **** #endif
  90:/usr/include/x86_64-linux-gnu/bits/string3.h ****   return __builtin___memset_chk (__dest, __ch, __len, __bos0 (__dest));
 1192              		.loc 2 90 0
 1193 0006 48C70700 		movq	$0, (%rdi)
 1193      000000
 1194 000d 48C787C8 		movq	$0, 200(%rdi)
 1194      00000000 
 1194      000000
 1195 0018 488D7F08 		leaq	8(%rdi), %rdi
 1196              	.LVL164:
 1197 001c 4883E7F8 		andq	$-8, %rdi
 1198 0020 4C89C1   		movq	%r8, %rcx
GAS LISTING /tmp/ccSAldBr.s 			page 33


 1199              	.LVL165:
 1200 0023 4829F9   		subq	%rdi, %rcx
 1201 0026 81C1D000 		addl	$208, %ecx
 1201      0000
 1202 002c C1E903   		shrl	$3, %ecx
 1203 002f 89C9     		movl	%ecx, %ecx
 1204 0031 B8000000 		movl	$0, %eax
 1204      00
 1205 0036 F348AB   		rep stosq
 1206              	.LVL166:
 1207              	.LBE57:
 1208              	.LBE56:
 433:/home/baikal/workspace/C50/Huawei_IoT_Agent_Tiny_SDK_Linux//lwm2m/core/er-coap-13/er-coap-13.c ****     coap_packet_t *const coap_pkt = (coap_packet_t *) packet;
 434:/home/baikal/workspace/C50/Huawei_IoT_Agent_Tiny_SDK_Linux//lwm2m/core/er-coap-13/er-coap-13.c **** 
 435:/home/baikal/workspace/C50/Huawei_IoT_Agent_Tiny_SDK_Linux//lwm2m/core/er-coap-13/er-coap-13.c ****     /* Important thing */
 436:/home/baikal/workspace/C50/Huawei_IoT_Agent_Tiny_SDK_Linux//lwm2m/core/er-coap-13/er-coap-13.c ****     memset(coap_pkt, 0, sizeof(coap_packet_t));
 437:/home/baikal/workspace/C50/Huawei_IoT_Agent_Tiny_SDK_Linux//lwm2m/core/er-coap-13/er-coap-13.c **** 
 438:/home/baikal/workspace/C50/Huawei_IoT_Agent_Tiny_SDK_Linux//lwm2m/core/er-coap-13/er-coap-13.c ****     coap_pkt->type = type;
 1209              		.loc 1 438 0
 1210 0039 4189700C 		movl	%esi, 12(%r8)
 439:/home/baikal/workspace/C50/Huawei_IoT_Agent_Tiny_SDK_Linux//lwm2m/core/er-coap-13/er-coap-13.c ****     coap_pkt->code = code;
 1211              		.loc 1 439 0
 1212 003d 41885010 		movb	%dl, 16(%r8)
 440:/home/baikal/workspace/C50/Huawei_IoT_Agent_Tiny_SDK_Linux//lwm2m/core/er-coap-13/er-coap-13.c ****     coap_pkt->mid = mid;
 1213              		.loc 1 440 0
 1214 0041 66458948 		movw	%r9w, 18(%r8)
 1214      12
 1215 0046 C3       		ret
 1216              		.cfi_endproc
 1217              	.LFE76:
 1219              		.section	.text.coap_free_header,"ax",@progbits
 1220              		.globl	coap_free_header
 1222              	coap_free_header:
 1223              	.LFB77:
 441:/home/baikal/workspace/C50/Huawei_IoT_Agent_Tiny_SDK_Linux//lwm2m/core/er-coap-13/er-coap-13.c **** }
 442:/home/baikal/workspace/C50/Huawei_IoT_Agent_Tiny_SDK_Linux//lwm2m/core/er-coap-13/er-coap-13.c **** 
 443:/home/baikal/workspace/C50/Huawei_IoT_Agent_Tiny_SDK_Linux//lwm2m/core/er-coap-13/er-coap-13.c **** void
 444:/home/baikal/workspace/C50/Huawei_IoT_Agent_Tiny_SDK_Linux//lwm2m/core/er-coap-13/er-coap-13.c **** coap_free_header(void *packet)
 445:/home/baikal/workspace/C50/Huawei_IoT_Agent_Tiny_SDK_Linux//lwm2m/core/er-coap-13/er-coap-13.c **** {
 1224              		.loc 1 445 0
 1225              		.cfi_startproc
 1226              	.LVL167:
 1227 0000 53       		pushq	%rbx
 1228              	.LCFI86:
 1229              		.cfi_def_cfa_offset 16
 1230              		.cfi_offset 3, -16
 1231 0001 4889FB   		movq	%rdi, %rbx
 1232              	.LVL168:
 446:/home/baikal/workspace/C50/Huawei_IoT_Agent_Tiny_SDK_Linux//lwm2m/core/er-coap-13/er-coap-13.c ****     coap_packet_t *const coap_pkt = (coap_packet_t *) packet;
 447:/home/baikal/workspace/C50/Huawei_IoT_Agent_Tiny_SDK_Linux//lwm2m/core/er-coap-13/er-coap-13.c **** 
 448:/home/baikal/workspace/C50/Huawei_IoT_Agent_Tiny_SDK_Linux//lwm2m/core/er-coap-13/er-coap-13.c ****     free_multi_option(coap_pkt->uri_path);
 1233              		.loc 1 448 0
 1234 0004 488B7F78 		movq	120(%rdi), %rdi
 1235              	.LVL169:
 1236 0008 E8000000 		call	free_multi_option
 1236      00
 1237              	.LVL170:
GAS LISTING /tmp/ccSAldBr.s 			page 34


 449:/home/baikal/workspace/C50/Huawei_IoT_Agent_Tiny_SDK_Linux//lwm2m/core/er-coap-13/er-coap-13.c ****     free_multi_option(coap_pkt->uri_query);
 1238              		.loc 1 449 0
 1239 000d 488BBBB8 		movq	184(%rbx), %rdi
 1239      000000
 1240 0014 E8000000 		call	free_multi_option
 1240      00
 1241              	.LVL171:
 450:/home/baikal/workspace/C50/Huawei_IoT_Agent_Tiny_SDK_Linux//lwm2m/core/er-coap-13/er-coap-13.c ****     free_multi_option(coap_pkt->location_path);
 1242              		.loc 1 450 0
 1243 0019 488B7B58 		movq	88(%rbx), %rdi
 1244 001d E8000000 		call	free_multi_option
 1244      00
 1245              	.LVL172:
 451:/home/baikal/workspace/C50/Huawei_IoT_Agent_Tiny_SDK_Linux//lwm2m/core/er-coap-13/er-coap-13.c ****     coap_pkt->uri_path = NULL;
 1246              		.loc 1 451 0
 1247 0022 48C74378 		movq	$0, 120(%rbx)
 1247      00000000 
 452:/home/baikal/workspace/C50/Huawei_IoT_Agent_Tiny_SDK_Linux//lwm2m/core/er-coap-13/er-coap-13.c ****     coap_pkt->uri_query = NULL;
 1248              		.loc 1 452 0
 1249 002a 48C783B8 		movq	$0, 184(%rbx)
 1249      00000000 
 1249      000000
 453:/home/baikal/workspace/C50/Huawei_IoT_Agent_Tiny_SDK_Linux//lwm2m/core/er-coap-13/er-coap-13.c ****     coap_pkt->location_path = NULL;
 1250              		.loc 1 453 0
 1251 0035 48C74358 		movq	$0, 88(%rbx)
 1251      00000000 
 454:/home/baikal/workspace/C50/Huawei_IoT_Agent_Tiny_SDK_Linux//lwm2m/core/er-coap-13/er-coap-13.c **** }
 1252              		.loc 1 454 0
 1253 003d 5B       		popq	%rbx
 1254              	.LCFI87:
 1255              		.cfi_def_cfa_offset 8
 1256              	.LVL173:
 1257 003e C3       		ret
 1258              		.cfi_endproc
 1259              	.LFE77:
 1261              		.section	.text.coap_serialize_get_size,"ax",@progbits
 1262              		.globl	coap_serialize_get_size
 1264              	coap_serialize_get_size:
 1265              	.LFB78:
 455:/home/baikal/workspace/C50/Huawei_IoT_Agent_Tiny_SDK_Linux//lwm2m/core/er-coap-13/er-coap-13.c **** 
 456:/home/baikal/workspace/C50/Huawei_IoT_Agent_Tiny_SDK_Linux//lwm2m/core/er-coap-13/er-coap-13.c **** /*-----------------------------------------------------------------------------------*/
 457:/home/baikal/workspace/C50/Huawei_IoT_Agent_Tiny_SDK_Linux//lwm2m/core/er-coap-13/er-coap-13.c **** size_t coap_serialize_get_size(void *packet)
 458:/home/baikal/workspace/C50/Huawei_IoT_Agent_Tiny_SDK_Linux//lwm2m/core/er-coap-13/er-coap-13.c **** {
 1266              		.loc 1 458 0
 1267              		.cfi_startproc
 1268              	.LVL174:
 459:/home/baikal/workspace/C50/Huawei_IoT_Agent_Tiny_SDK_Linux//lwm2m/core/er-coap-13/er-coap-13.c ****     coap_packet_t *const coap_pkt = (coap_packet_t *) packet;
 460:/home/baikal/workspace/C50/Huawei_IoT_Agent_Tiny_SDK_Linux//lwm2m/core/er-coap-13/er-coap-13.c ****     size_t length = 0;
 461:/home/baikal/workspace/C50/Huawei_IoT_Agent_Tiny_SDK_Linux//lwm2m/core/er-coap-13/er-coap-13.c **** 
 462:/home/baikal/workspace/C50/Huawei_IoT_Agent_Tiny_SDK_Linux//lwm2m/core/er-coap-13/er-coap-13.c ****     length = COAP_HEADER_LEN + coap_pkt->payload_len + coap_pkt->token_len;
 1269              		.loc 1 462 0
 1270 0000 0FB7B7C2 		movzwl	194(%rdi), %esi
 1270      000000
 1271 0007 0FB7D6   		movzwl	%si, %edx
 1272 000a 0FB68784 		movzbl	132(%rdi), %eax
 1272      000000
 1273 0011 8D440204 		leal	4(%rdx,%rax), %eax
GAS LISTING /tmp/ccSAldBr.s 			page 35


 1274 0015 4898     		cltq
 1275              	.LVL175:
 463:/home/baikal/workspace/C50/Huawei_IoT_Agent_Tiny_SDK_Linux//lwm2m/core/er-coap-13/er-coap-13.c **** 
 464:/home/baikal/workspace/C50/Huawei_IoT_Agent_Tiny_SDK_Linux//lwm2m/core/er-coap-13/er-coap-13.c ****     if (IS_OPTION(coap_pkt, COAP_OPTION_IF_MATCH))
 1276              		.loc 1 464 0
 1277 0017 0FB65714 		movzbl	20(%rdi), %edx
 1278 001b F6C202   		testb	$2, %dl
 1279 001e 7410     		je	.L85
 465:/home/baikal/workspace/C50/Huawei_IoT_Agent_Tiny_SDK_Linux//lwm2m/core/er-coap-13/er-coap-13.c ****     {
 466:/home/baikal/workspace/C50/Huawei_IoT_Agent_Tiny_SDK_Linux//lwm2m/core/er-coap-13/er-coap-13.c ****         length += COAP_MAX_OPTION_HEADER_LEN + coap_pkt->if_match_len;
 1280              		.loc 1 466 0
 1281 0020 0FB68F92 		movzbl	146(%rdi), %ecx
 1281      000000
 1282 0027 83C105   		addl	$5, %ecx
 1283 002a 4863C9   		movslq	%ecx, %rcx
 1284 002d 4801C8   		addq	%rcx, %rax
 1285              	.LVL176:
 1286              	.L85:
 467:/home/baikal/workspace/C50/Huawei_IoT_Agent_Tiny_SDK_Linux//lwm2m/core/er-coap-13/er-coap-13.c ****     }
 468:/home/baikal/workspace/C50/Huawei_IoT_Agent_Tiny_SDK_Linux//lwm2m/core/er-coap-13/er-coap-13.c ****     if (IS_OPTION(coap_pkt, COAP_OPTION_URI_HOST))
 1287              		.loc 1 468 0
 1288 0030 F6C208   		testb	$8, %dl
 1289 0033 7408     		je	.L86
 469:/home/baikal/workspace/C50/Huawei_IoT_Agent_Tiny_SDK_Linux//lwm2m/core/er-coap-13/er-coap-13.c ****     {
 470:/home/baikal/workspace/C50/Huawei_IoT_Agent_Tiny_SDK_Linux//lwm2m/core/er-coap-13/er-coap-13.c ****         length += COAP_MAX_OPTION_HEADER_LEN + coap_pkt->uri_host_len;
 1290              		.loc 1 470 0
 1291 0035 48034748 		addq	72(%rdi), %rax
 1292              	.LVL177:
 1293 0039 4883C005 		addq	$5, %rax
 1294              	.LVL178:
 1295              	.L86:
 471:/home/baikal/workspace/C50/Huawei_IoT_Agent_Tiny_SDK_Linux//lwm2m/core/er-coap-13/er-coap-13.c ****     }
 472:/home/baikal/workspace/C50/Huawei_IoT_Agent_Tiny_SDK_Linux//lwm2m/core/er-coap-13/er-coap-13.c ****     if (IS_OPTION(coap_pkt, COAP_OPTION_ETAG))
 1296              		.loc 1 472 0
 1297 003d F6C210   		testb	$16, %dl
 1298 0040 740D     		je	.L87
 473:/home/baikal/workspace/C50/Huawei_IoT_Agent_Tiny_SDK_Linux//lwm2m/core/er-coap-13/er-coap-13.c ****     {
 474:/home/baikal/workspace/C50/Huawei_IoT_Agent_Tiny_SDK_Linux//lwm2m/core/er-coap-13/er-coap-13.c ****         length += COAP_MAX_OPTION_HEADER_LEN + coap_pkt->etag_len;
 1299              		.loc 1 474 0
 1300 0042 0FB64F38 		movzbl	56(%rdi), %ecx
 1301 0046 83C105   		addl	$5, %ecx
 1302 0049 4863C9   		movslq	%ecx, %rcx
 1303 004c 4801C8   		addq	%rcx, %rax
 1304              	.LVL179:
 1305              	.L87:
 475:/home/baikal/workspace/C50/Huawei_IoT_Agent_Tiny_SDK_Linux//lwm2m/core/er-coap-13/er-coap-13.c ****     }
 476:/home/baikal/workspace/C50/Huawei_IoT_Agent_Tiny_SDK_Linux//lwm2m/core/er-coap-13/er-coap-13.c ****     if (IS_OPTION(coap_pkt, COAP_OPTION_IF_NONE_MATCH))
 1306              		.loc 1 476 0
 1307 004f F6C220   		testb	$32, %dl
 1308 0052 7404     		je	.L88
 477:/home/baikal/workspace/C50/Huawei_IoT_Agent_Tiny_SDK_Linux//lwm2m/core/er-coap-13/er-coap-13.c ****     {
 478:/home/baikal/workspace/C50/Huawei_IoT_Agent_Tiny_SDK_Linux//lwm2m/core/er-coap-13/er-coap-13.c ****         // can be stored in extended fields
 479:/home/baikal/workspace/C50/Huawei_IoT_Agent_Tiny_SDK_Linux//lwm2m/core/er-coap-13/er-coap-13.c ****         length += COAP_MAX_OPTION_HEADER_LEN;
 1309              		.loc 1 479 0
 1310 0054 4883C005 		addq	$5, %rax
 1311              	.LVL180:
 1312              	.L88:
GAS LISTING /tmp/ccSAldBr.s 			page 36


 480:/home/baikal/workspace/C50/Huawei_IoT_Agent_Tiny_SDK_Linux//lwm2m/core/er-coap-13/er-coap-13.c ****     }
 481:/home/baikal/workspace/C50/Huawei_IoT_Agent_Tiny_SDK_Linux//lwm2m/core/er-coap-13/er-coap-13.c ****     if (IS_OPTION(coap_pkt, COAP_OPTION_OBSERVE))
 1313              		.loc 1 481 0
 1314 0058 F6C240   		testb	$64, %dl
 1315 005b 7404     		je	.L89
 482:/home/baikal/workspace/C50/Huawei_IoT_Agent_Tiny_SDK_Linux//lwm2m/core/er-coap-13/er-coap-13.c ****     {
 483:/home/baikal/workspace/C50/Huawei_IoT_Agent_Tiny_SDK_Linux//lwm2m/core/er-coap-13/er-coap-13.c ****         // can be stored in extended fields
 484:/home/baikal/workspace/C50/Huawei_IoT_Agent_Tiny_SDK_Linux//lwm2m/core/er-coap-13/er-coap-13.c ****         length += COAP_MAX_OPTION_HEADER_LEN;
 1316              		.loc 1 484 0
 1317 005d 4883C005 		addq	$5, %rax
 1318              	.LVL181:
 1319              	.L89:
 485:/home/baikal/workspace/C50/Huawei_IoT_Agent_Tiny_SDK_Linux//lwm2m/core/er-coap-13/er-coap-13.c ****     }
 486:/home/baikal/workspace/C50/Huawei_IoT_Agent_Tiny_SDK_Linux//lwm2m/core/er-coap-13/er-coap-13.c ****     if (IS_OPTION(coap_pkt, COAP_OPTION_URI_PORT))
 1320              		.loc 1 486 0
 1321 0061 84D2     		testb	%dl, %dl
 1322 0063 7904     		jns	.L90
 487:/home/baikal/workspace/C50/Huawei_IoT_Agent_Tiny_SDK_Linux//lwm2m/core/er-coap-13/er-coap-13.c ****     {
 488:/home/baikal/workspace/C50/Huawei_IoT_Agent_Tiny_SDK_Linux//lwm2m/core/er-coap-13/er-coap-13.c ****         // can be stored in extended fields
 489:/home/baikal/workspace/C50/Huawei_IoT_Agent_Tiny_SDK_Linux//lwm2m/core/er-coap-13/er-coap-13.c ****         length += COAP_MAX_OPTION_HEADER_LEN;
 1323              		.loc 1 489 0
 1324 0065 4883C005 		addq	$5, %rax
 1325              	.LVL182:
 1326              	.L90:
 490:/home/baikal/workspace/C50/Huawei_IoT_Agent_Tiny_SDK_Linux//lwm2m/core/er-coap-13/er-coap-13.c ****     }
 491:/home/baikal/workspace/C50/Huawei_IoT_Agent_Tiny_SDK_Linux//lwm2m/core/er-coap-13/er-coap-13.c ****     if (IS_OPTION(coap_pkt, COAP_OPTION_LOCATION_PATH))
 1327              		.loc 1 491 0
 1328 0069 440FB647 		movzbl	21(%rdi), %r8d
 1328      15
 1329 006e 41F6C001 		testb	$1, %r8b
 1330 0072 741B     		je	.L91
 1331              	.LBB58:
 492:/home/baikal/workspace/C50/Huawei_IoT_Agent_Tiny_SDK_Linux//lwm2m/core/er-coap-13/er-coap-13.c ****     {
 493:/home/baikal/workspace/C50/Huawei_IoT_Agent_Tiny_SDK_Linux//lwm2m/core/er-coap-13/er-coap-13.c ****         multi_option_t *optP;
 494:/home/baikal/workspace/C50/Huawei_IoT_Agent_Tiny_SDK_Linux//lwm2m/core/er-coap-13/er-coap-13.c **** 
 495:/home/baikal/workspace/C50/Huawei_IoT_Agent_Tiny_SDK_Linux//lwm2m/core/er-coap-13/er-coap-13.c ****         for (optP = coap_pkt->location_path ; optP != NULL ; optP = optP->next)
 1332              		.loc 1 495 0
 1333 0074 488B4F58 		movq	88(%rdi), %rcx
 1334              	.LVL183:
 1335 0078 EB10     		jmp	.L92
 1336              	.L93:
 496:/home/baikal/workspace/C50/Huawei_IoT_Agent_Tiny_SDK_Linux//lwm2m/core/er-coap-13/er-coap-13.c ****         {
 497:/home/baikal/workspace/C50/Huawei_IoT_Agent_Tiny_SDK_Linux//lwm2m/core/er-coap-13/er-coap-13.c ****             length += COAP_MAX_OPTION_HEADER_LEN + optP->len;
 1337              		.loc 1 497 0 discriminator 3
 1338 007a 0FB65109 		movzbl	9(%rcx), %edx
 1339 007e 83C205   		addl	$5, %edx
 1340 0081 4863D2   		movslq	%edx, %rdx
 1341 0084 4801D0   		addq	%rdx, %rax
 1342              	.LVL184:
 495:/home/baikal/workspace/C50/Huawei_IoT_Agent_Tiny_SDK_Linux//lwm2m/core/er-coap-13/er-coap-13.c ****         {
 1343              		.loc 1 495 0 discriminator 3
 1344 0087 488B09   		movq	(%rcx), %rcx
 1345              	.LVL185:
 1346              	.L92:
 495:/home/baikal/workspace/C50/Huawei_IoT_Agent_Tiny_SDK_Linux//lwm2m/core/er-coap-13/er-coap-13.c ****         {
 1347              		.loc 1 495 0 is_stmt 0 discriminator 1
 1348 008a 4885C9   		testq	%rcx, %rcx
GAS LISTING /tmp/ccSAldBr.s 			page 37


 1349 008d 75EB     		jne	.L93
 1350              	.LVL186:
 1351              	.L91:
 1352              	.LBE58:
 498:/home/baikal/workspace/C50/Huawei_IoT_Agent_Tiny_SDK_Linux//lwm2m/core/er-coap-13/er-coap-13.c ****         }
 499:/home/baikal/workspace/C50/Huawei_IoT_Agent_Tiny_SDK_Linux//lwm2m/core/er-coap-13/er-coap-13.c ****     }
 500:/home/baikal/workspace/C50/Huawei_IoT_Agent_Tiny_SDK_Linux//lwm2m/core/er-coap-13/er-coap-13.c ****     if (IS_OPTION(coap_pkt, COAP_OPTION_URI_PATH))
 1353              		.loc 1 500 0 is_stmt 1
 1354 008f 41F6C008 		testb	$8, %r8b
 1355 0093 741B     		je	.L94
 1356              	.LBB59:
 501:/home/baikal/workspace/C50/Huawei_IoT_Agent_Tiny_SDK_Linux//lwm2m/core/er-coap-13/er-coap-13.c ****     {
 502:/home/baikal/workspace/C50/Huawei_IoT_Agent_Tiny_SDK_Linux//lwm2m/core/er-coap-13/er-coap-13.c ****         multi_option_t *optP;
 503:/home/baikal/workspace/C50/Huawei_IoT_Agent_Tiny_SDK_Linux//lwm2m/core/er-coap-13/er-coap-13.c **** 
 504:/home/baikal/workspace/C50/Huawei_IoT_Agent_Tiny_SDK_Linux//lwm2m/core/er-coap-13/er-coap-13.c ****         for (optP = coap_pkt->uri_path ; optP != NULL ; optP = optP->next)
 1357              		.loc 1 504 0
 1358 0095 488B4F78 		movq	120(%rdi), %rcx
 1359              	.LVL187:
 1360 0099 EB10     		jmp	.L95
 1361              	.L96:
 505:/home/baikal/workspace/C50/Huawei_IoT_Agent_Tiny_SDK_Linux//lwm2m/core/er-coap-13/er-coap-13.c ****         {
 506:/home/baikal/workspace/C50/Huawei_IoT_Agent_Tiny_SDK_Linux//lwm2m/core/er-coap-13/er-coap-13.c ****             length += COAP_MAX_OPTION_HEADER_LEN + optP->len;
 1362              		.loc 1 506 0 discriminator 3
 1363 009b 0FB65109 		movzbl	9(%rcx), %edx
 1364 009f 83C205   		addl	$5, %edx
 1365 00a2 4863D2   		movslq	%edx, %rdx
 1366 00a5 4801D0   		addq	%rdx, %rax
 1367              	.LVL188:
 504:/home/baikal/workspace/C50/Huawei_IoT_Agent_Tiny_SDK_Linux//lwm2m/core/er-coap-13/er-coap-13.c ****         {
 1368              		.loc 1 504 0 discriminator 3
 1369 00a8 488B09   		movq	(%rcx), %rcx
 1370              	.LVL189:
 1371              	.L95:
 504:/home/baikal/workspace/C50/Huawei_IoT_Agent_Tiny_SDK_Linux//lwm2m/core/er-coap-13/er-coap-13.c ****         {
 1372              		.loc 1 504 0 is_stmt 0 discriminator 1
 1373 00ab 4885C9   		testq	%rcx, %rcx
 1374 00ae 75EB     		jne	.L96
 1375              	.LVL190:
 1376              	.L94:
 1377              	.LBE59:
 507:/home/baikal/workspace/C50/Huawei_IoT_Agent_Tiny_SDK_Linux//lwm2m/core/er-coap-13/er-coap-13.c ****         }
 508:/home/baikal/workspace/C50/Huawei_IoT_Agent_Tiny_SDK_Linux//lwm2m/core/er-coap-13/er-coap-13.c ****     }
 509:/home/baikal/workspace/C50/Huawei_IoT_Agent_Tiny_SDK_Linux//lwm2m/core/er-coap-13/er-coap-13.c ****     if (IS_OPTION(coap_pkt, COAP_OPTION_CONTENT_TYPE))
 1378              		.loc 1 509 0 is_stmt 1
 1379 00b0 41F6C010 		testb	$16, %r8b
 1380 00b4 7404     		je	.L97
 510:/home/baikal/workspace/C50/Huawei_IoT_Agent_Tiny_SDK_Linux//lwm2m/core/er-coap-13/er-coap-13.c ****     {
 511:/home/baikal/workspace/C50/Huawei_IoT_Agent_Tiny_SDK_Linux//lwm2m/core/er-coap-13/er-coap-13.c ****         // can be stored in extended fields
 512:/home/baikal/workspace/C50/Huawei_IoT_Agent_Tiny_SDK_Linux//lwm2m/core/er-coap-13/er-coap-13.c ****         length += COAP_MAX_OPTION_HEADER_LEN;
 1381              		.loc 1 512 0
 1382 00b6 4883C005 		addq	$5, %rax
 1383              	.LVL191:
 1384              	.L97:
 513:/home/baikal/workspace/C50/Huawei_IoT_Agent_Tiny_SDK_Linux//lwm2m/core/er-coap-13/er-coap-13.c ****     }
 514:/home/baikal/workspace/C50/Huawei_IoT_Agent_Tiny_SDK_Linux//lwm2m/core/er-coap-13/er-coap-13.c ****     if (IS_OPTION(coap_pkt, COAP_OPTION_MAX_AGE))
 1385              		.loc 1 514 0
 1386 00ba 41F6C040 		testb	$64, %r8b
GAS LISTING /tmp/ccSAldBr.s 			page 38


 1387 00be 7404     		je	.L98
 515:/home/baikal/workspace/C50/Huawei_IoT_Agent_Tiny_SDK_Linux//lwm2m/core/er-coap-13/er-coap-13.c ****     {
 516:/home/baikal/workspace/C50/Huawei_IoT_Agent_Tiny_SDK_Linux//lwm2m/core/er-coap-13/er-coap-13.c ****         // can be stored in extended fields
 517:/home/baikal/workspace/C50/Huawei_IoT_Agent_Tiny_SDK_Linux//lwm2m/core/er-coap-13/er-coap-13.c ****         length += COAP_MAX_OPTION_HEADER_LEN;
 1388              		.loc 1 517 0
 1389 00c0 4883C005 		addq	$5, %rax
 1390              	.LVL192:
 1391              	.L98:
 518:/home/baikal/workspace/C50/Huawei_IoT_Agent_Tiny_SDK_Linux//lwm2m/core/er-coap-13/er-coap-13.c ****     }
 519:/home/baikal/workspace/C50/Huawei_IoT_Agent_Tiny_SDK_Linux//lwm2m/core/er-coap-13/er-coap-13.c ****     if (IS_OPTION(coap_pkt, COAP_OPTION_URI_QUERY))
 1392              		.loc 1 519 0
 1393 00c4 4584C0   		testb	%r8b, %r8b
 1394 00c7 791E     		jns	.L99
 1395              	.LBB60:
 520:/home/baikal/workspace/C50/Huawei_IoT_Agent_Tiny_SDK_Linux//lwm2m/core/er-coap-13/er-coap-13.c ****     {
 521:/home/baikal/workspace/C50/Huawei_IoT_Agent_Tiny_SDK_Linux//lwm2m/core/er-coap-13/er-coap-13.c ****         multi_option_t *optP;
 522:/home/baikal/workspace/C50/Huawei_IoT_Agent_Tiny_SDK_Linux//lwm2m/core/er-coap-13/er-coap-13.c **** 
 523:/home/baikal/workspace/C50/Huawei_IoT_Agent_Tiny_SDK_Linux//lwm2m/core/er-coap-13/er-coap-13.c ****         for (optP = coap_pkt->uri_query ; optP != NULL ; optP = optP->next)
 1396              		.loc 1 523 0
 1397 00c9 488B8FB8 		movq	184(%rdi), %rcx
 1397      000000
 1398              	.LVL193:
 1399 00d0 EB10     		jmp	.L100
 1400              	.L101:
 524:/home/baikal/workspace/C50/Huawei_IoT_Agent_Tiny_SDK_Linux//lwm2m/core/er-coap-13/er-coap-13.c ****         {
 525:/home/baikal/workspace/C50/Huawei_IoT_Agent_Tiny_SDK_Linux//lwm2m/core/er-coap-13/er-coap-13.c ****             length += COAP_MAX_OPTION_HEADER_LEN + optP->len;
 1401              		.loc 1 525 0 discriminator 3
 1402 00d2 0FB65109 		movzbl	9(%rcx), %edx
 1403 00d6 83C205   		addl	$5, %edx
 1404 00d9 4863D2   		movslq	%edx, %rdx
 1405 00dc 4801D0   		addq	%rdx, %rax
 1406              	.LVL194:
 523:/home/baikal/workspace/C50/Huawei_IoT_Agent_Tiny_SDK_Linux//lwm2m/core/er-coap-13/er-coap-13.c ****         {
 1407              		.loc 1 523 0 discriminator 3
 1408 00df 488B09   		movq	(%rcx), %rcx
 1409              	.LVL195:
 1410              	.L100:
 523:/home/baikal/workspace/C50/Huawei_IoT_Agent_Tiny_SDK_Linux//lwm2m/core/er-coap-13/er-coap-13.c ****         {
 1411              		.loc 1 523 0 is_stmt 0 discriminator 1
 1412 00e2 4885C9   		testq	%rcx, %rcx
 1413 00e5 75EB     		jne	.L101
 1414              	.LVL196:
 1415              	.L99:
 1416              	.LBE60:
 526:/home/baikal/workspace/C50/Huawei_IoT_Agent_Tiny_SDK_Linux//lwm2m/core/er-coap-13/er-coap-13.c ****         }
 527:/home/baikal/workspace/C50/Huawei_IoT_Agent_Tiny_SDK_Linux//lwm2m/core/er-coap-13/er-coap-13.c ****     }
 528:/home/baikal/workspace/C50/Huawei_IoT_Agent_Tiny_SDK_Linux//lwm2m/core/er-coap-13/er-coap-13.c ****     if (IS_OPTION(coap_pkt, COAP_OPTION_ACCEPT))
 1417              		.loc 1 528 0 is_stmt 1
 1418 00e7 0FB65716 		movzbl	22(%rdi), %edx
 1419 00eb F6C202   		testb	$2, %dl
 1420 00ee 7410     		je	.L102
 529:/home/baikal/workspace/C50/Huawei_IoT_Agent_Tiny_SDK_Linux//lwm2m/core/er-coap-13/er-coap-13.c ****     {
 530:/home/baikal/workspace/C50/Huawei_IoT_Agent_Tiny_SDK_Linux//lwm2m/core/er-coap-13/er-coap-13.c ****         length += coap_pkt->accept_num * COAP_MAX_OPTION_HEADER_LEN;
 1421              		.loc 1 530 0
 1422 00f0 0FB68F8D 		movzbl	141(%rdi), %ecx
 1422      000000
 1423 00f7 8D0C89   		leal	(%rcx,%rcx,4), %ecx
GAS LISTING /tmp/ccSAldBr.s 			page 39


 1424 00fa 4863C9   		movslq	%ecx, %rcx
 1425 00fd 4801C8   		addq	%rcx, %rax
 1426              	.LVL197:
 1427              	.L102:
 531:/home/baikal/workspace/C50/Huawei_IoT_Agent_Tiny_SDK_Linux//lwm2m/core/er-coap-13/er-coap-13.c ****     }
 532:/home/baikal/workspace/C50/Huawei_IoT_Agent_Tiny_SDK_Linux//lwm2m/core/er-coap-13/er-coap-13.c ****     if (IS_OPTION(coap_pkt, COAP_OPTION_LOCATION_QUERY))
 1428              		.loc 1 532 0
 1429 0100 F6C210   		testb	$16, %dl
 1430 0103 7408     		je	.L103
 533:/home/baikal/workspace/C50/Huawei_IoT_Agent_Tiny_SDK_Linux//lwm2m/core/er-coap-13/er-coap-13.c ****     {
 534:/home/baikal/workspace/C50/Huawei_IoT_Agent_Tiny_SDK_Linux//lwm2m/core/er-coap-13/er-coap-13.c ****         length += COAP_MAX_OPTION_HEADER_LEN + coap_pkt->location_query_len;
 1431              		.loc 1 534 0
 1432 0105 48034768 		addq	104(%rdi), %rax
 1433              	.LVL198:
 1434 0109 4883C005 		addq	$5, %rax
 1435              	.LVL199:
 1436              	.L103:
 535:/home/baikal/workspace/C50/Huawei_IoT_Agent_Tiny_SDK_Linux//lwm2m/core/er-coap-13/er-coap-13.c ****     }
 536:/home/baikal/workspace/C50/Huawei_IoT_Agent_Tiny_SDK_Linux//lwm2m/core/er-coap-13/er-coap-13.c ****     if (IS_OPTION(coap_pkt, COAP_OPTION_BLOCK2))
 1437              		.loc 1 536 0
 1438 010d 84D2     		testb	%dl, %dl
 1439 010f 7904     		jns	.L104
 537:/home/baikal/workspace/C50/Huawei_IoT_Agent_Tiny_SDK_Linux//lwm2m/core/er-coap-13/er-coap-13.c ****     {
 538:/home/baikal/workspace/C50/Huawei_IoT_Agent_Tiny_SDK_Linux//lwm2m/core/er-coap-13/er-coap-13.c ****         // can be stored in extended fields
 539:/home/baikal/workspace/C50/Huawei_IoT_Agent_Tiny_SDK_Linux//lwm2m/core/er-coap-13/er-coap-13.c ****         length += COAP_MAX_OPTION_HEADER_LEN;
 1440              		.loc 1 539 0
 1441 0111 4883C005 		addq	$5, %rax
 1442              	.LVL200:
 1443              	.L104:
 540:/home/baikal/workspace/C50/Huawei_IoT_Agent_Tiny_SDK_Linux//lwm2m/core/er-coap-13/er-coap-13.c ****     }
 541:/home/baikal/workspace/C50/Huawei_IoT_Agent_Tiny_SDK_Linux//lwm2m/core/er-coap-13/er-coap-13.c ****     if (IS_OPTION(coap_pkt, COAP_OPTION_BLOCK1))
 1444              		.loc 1 541 0
 1445 0115 0FB65717 		movzbl	23(%rdi), %edx
 1446 0119 F6C208   		testb	$8, %dl
 1447 011c 7404     		je	.L105
 542:/home/baikal/workspace/C50/Huawei_IoT_Agent_Tiny_SDK_Linux//lwm2m/core/er-coap-13/er-coap-13.c ****     {
 543:/home/baikal/workspace/C50/Huawei_IoT_Agent_Tiny_SDK_Linux//lwm2m/core/er-coap-13/er-coap-13.c ****         // can be stored in extended fields
 544:/home/baikal/workspace/C50/Huawei_IoT_Agent_Tiny_SDK_Linux//lwm2m/core/er-coap-13/er-coap-13.c ****         length += COAP_MAX_OPTION_HEADER_LEN;
 1448              		.loc 1 544 0
 1449 011e 4883C005 		addq	$5, %rax
 1450              	.LVL201:
 1451              	.L105:
 545:/home/baikal/workspace/C50/Huawei_IoT_Agent_Tiny_SDK_Linux//lwm2m/core/er-coap-13/er-coap-13.c ****     }
 546:/home/baikal/workspace/C50/Huawei_IoT_Agent_Tiny_SDK_Linux//lwm2m/core/er-coap-13/er-coap-13.c ****     if (IS_OPTION(coap_pkt, COAP_OPTION_SIZE))
 1452              		.loc 1 546 0
 1453 0122 F6C210   		testb	$16, %dl
 1454 0125 7404     		je	.L106
 547:/home/baikal/workspace/C50/Huawei_IoT_Agent_Tiny_SDK_Linux//lwm2m/core/er-coap-13/er-coap-13.c ****     {
 548:/home/baikal/workspace/C50/Huawei_IoT_Agent_Tiny_SDK_Linux//lwm2m/core/er-coap-13/er-coap-13.c ****         // can be stored in extended fields
 549:/home/baikal/workspace/C50/Huawei_IoT_Agent_Tiny_SDK_Linux//lwm2m/core/er-coap-13/er-coap-13.c ****         length += COAP_MAX_OPTION_HEADER_LEN;
 1455              		.loc 1 549 0
 1456 0127 4883C005 		addq	$5, %rax
 1457              	.LVL202:
 1458              	.L106:
 550:/home/baikal/workspace/C50/Huawei_IoT_Agent_Tiny_SDK_Linux//lwm2m/core/er-coap-13/er-coap-13.c ****     }
 551:/home/baikal/workspace/C50/Huawei_IoT_Agent_Tiny_SDK_Linux//lwm2m/core/er-coap-13/er-coap-13.c ****     if (IS_OPTION(coap_pkt, COAP_OPTION_PROXY_URI))
 1459              		.loc 1 551 0
GAS LISTING /tmp/ccSAldBr.s 			page 40


 1460 012b F6471808 		testb	$8, 24(%rdi)
 1461 012f 7408     		je	.L107
 552:/home/baikal/workspace/C50/Huawei_IoT_Agent_Tiny_SDK_Linux//lwm2m/core/er-coap-13/er-coap-13.c ****     {
 553:/home/baikal/workspace/C50/Huawei_IoT_Agent_Tiny_SDK_Linux//lwm2m/core/er-coap-13/er-coap-13.c ****         length += COAP_MAX_OPTION_HEADER_LEN + coap_pkt->proxy_uri_len;
 1462              		.loc 1 553 0
 1463 0131 48034728 		addq	40(%rdi), %rax
 1464              	.LVL203:
 1465 0135 4883C005 		addq	$5, %rax
 1466              	.LVL204:
 1467              	.L107:
 554:/home/baikal/workspace/C50/Huawei_IoT_Agent_Tiny_SDK_Linux//lwm2m/core/er-coap-13/er-coap-13.c ****     }
 555:/home/baikal/workspace/C50/Huawei_IoT_Agent_Tiny_SDK_Linux//lwm2m/core/er-coap-13/er-coap-13.c **** 
 556:/home/baikal/workspace/C50/Huawei_IoT_Agent_Tiny_SDK_Linux//lwm2m/core/er-coap-13/er-coap-13.c ****     if (coap_pkt->payload_len)
 1468              		.loc 1 556 0
 1469 0139 6685F6   		testw	%si, %si
 1470 013c 7404     		je	.L108
 557:/home/baikal/workspace/C50/Huawei_IoT_Agent_Tiny_SDK_Linux//lwm2m/core/er-coap-13/er-coap-13.c ****     {
 558:/home/baikal/workspace/C50/Huawei_IoT_Agent_Tiny_SDK_Linux//lwm2m/core/er-coap-13/er-coap-13.c ****         // Account for the payload marker.
 559:/home/baikal/workspace/C50/Huawei_IoT_Agent_Tiny_SDK_Linux//lwm2m/core/er-coap-13/er-coap-13.c ****         length += 1;
 1471              		.loc 1 559 0
 1472 013e 4883C001 		addq	$1, %rax
 1473              	.LVL205:
 1474              	.L108:
 560:/home/baikal/workspace/C50/Huawei_IoT_Agent_Tiny_SDK_Linux//lwm2m/core/er-coap-13/er-coap-13.c ****     }
 561:/home/baikal/workspace/C50/Huawei_IoT_Agent_Tiny_SDK_Linux//lwm2m/core/er-coap-13/er-coap-13.c **** 
 562:/home/baikal/workspace/C50/Huawei_IoT_Agent_Tiny_SDK_Linux//lwm2m/core/er-coap-13/er-coap-13.c ****     return length;
 563:/home/baikal/workspace/C50/Huawei_IoT_Agent_Tiny_SDK_Linux//lwm2m/core/er-coap-13/er-coap-13.c **** }
 1475              		.loc 1 563 0
 1476 0142 F3C3     		rep ret
 1477              		.cfi_endproc
 1478              	.LFE78:
 1480              		.section	.text.coap_serialize_message,"ax",@progbits
 1481              		.globl	coap_serialize_message
 1483              	coap_serialize_message:
 1484              	.LFB79:
 564:/home/baikal/workspace/C50/Huawei_IoT_Agent_Tiny_SDK_Linux//lwm2m/core/er-coap-13/er-coap-13.c **** 
 565:/home/baikal/workspace/C50/Huawei_IoT_Agent_Tiny_SDK_Linux//lwm2m/core/er-coap-13/er-coap-13.c **** /*-----------------------------------------------------------------------------------*/
 566:/home/baikal/workspace/C50/Huawei_IoT_Agent_Tiny_SDK_Linux//lwm2m/core/er-coap-13/er-coap-13.c **** size_t
 567:/home/baikal/workspace/C50/Huawei_IoT_Agent_Tiny_SDK_Linux//lwm2m/core/er-coap-13/er-coap-13.c **** coap_serialize_message(void *packet, uint8_t *buffer)
 568:/home/baikal/workspace/C50/Huawei_IoT_Agent_Tiny_SDK_Linux//lwm2m/core/er-coap-13/er-coap-13.c **** {
 1485              		.loc 1 568 0
 1486              		.cfi_startproc
 1487              	.LVL206:
 1488 0000 4156     		pushq	%r14
 1489              	.LCFI88:
 1490              		.cfi_def_cfa_offset 16
 1491              		.cfi_offset 14, -16
 1492 0002 4155     		pushq	%r13
 1493              	.LCFI89:
 1494              		.cfi_def_cfa_offset 24
 1495              		.cfi_offset 13, -24
 1496 0004 4154     		pushq	%r12
 1497              	.LCFI90:
 1498              		.cfi_def_cfa_offset 32
 1499              		.cfi_offset 12, -32
 1500 0006 55       		pushq	%rbp
 1501              	.LCFI91:
GAS LISTING /tmp/ccSAldBr.s 			page 41


 1502              		.cfi_def_cfa_offset 40
 1503              		.cfi_offset 6, -40
 1504 0007 53       		pushq	%rbx
 1505              	.LCFI92:
 1506              		.cfi_def_cfa_offset 48
 1507              		.cfi_offset 3, -48
 1508 0008 4889FB   		movq	%rdi, %rbx
 1509 000b 4989F4   		movq	%rsi, %r12
 1510              	.LVL207:
 569:/home/baikal/workspace/C50/Huawei_IoT_Agent_Tiny_SDK_Linux//lwm2m/core/er-coap-13/er-coap-13.c ****     coap_packet_t *const coap_pkt = (coap_packet_t *) packet;
 570:/home/baikal/workspace/C50/Huawei_IoT_Agent_Tiny_SDK_Linux//lwm2m/core/er-coap-13/er-coap-13.c ****     uint8_t *option;
 571:/home/baikal/workspace/C50/Huawei_IoT_Agent_Tiny_SDK_Linux//lwm2m/core/er-coap-13/er-coap-13.c ****     unsigned int current_number = 0;
 572:/home/baikal/workspace/C50/Huawei_IoT_Agent_Tiny_SDK_Linux//lwm2m/core/er-coap-13/er-coap-13.c **** 
 573:/home/baikal/workspace/C50/Huawei_IoT_Agent_Tiny_SDK_Linux//lwm2m/core/er-coap-13/er-coap-13.c ****     /* Initialize */
 574:/home/baikal/workspace/C50/Huawei_IoT_Agent_Tiny_SDK_Linux//lwm2m/core/er-coap-13/er-coap-13.c ****     coap_pkt->buffer = buffer;
 1511              		.loc 1 574 0
 1512 000e 488937   		movq	%rsi, (%rdi)
 575:/home/baikal/workspace/C50/Huawei_IoT_Agent_Tiny_SDK_Linux//lwm2m/core/er-coap-13/er-coap-13.c ****     coap_pkt->version = 1;
 1513              		.loc 1 575 0
 1514 0011 C6470801 		movb	$1, 8(%rdi)
 576:/home/baikal/workspace/C50/Huawei_IoT_Agent_Tiny_SDK_Linux//lwm2m/core/er-coap-13/er-coap-13.c **** 
 577:/home/baikal/workspace/C50/Huawei_IoT_Agent_Tiny_SDK_Linux//lwm2m/core/er-coap-13/er-coap-13.c ****     PRINTF("-Serializing MID %u to %p, ", coap_pkt->mid, coap_pkt->buffer);
 578:/home/baikal/workspace/C50/Huawei_IoT_Agent_Tiny_SDK_Linux//lwm2m/core/er-coap-13/er-coap-13.c **** 
 579:/home/baikal/workspace/C50/Huawei_IoT_Agent_Tiny_SDK_Linux//lwm2m/core/er-coap-13/er-coap-13.c ****     /* set header fields */
 580:/home/baikal/workspace/C50/Huawei_IoT_Agent_Tiny_SDK_Linux//lwm2m/core/er-coap-13/er-coap-13.c ****     coap_pkt->buffer[0]  = 0x00;
 1515              		.loc 1 580 0
 1516 0015 C60600   		movb	$0, (%rsi)
 581:/home/baikal/workspace/C50/Huawei_IoT_Agent_Tiny_SDK_Linux//lwm2m/core/er-coap-13/er-coap-13.c ****     coap_pkt->buffer[0] |= COAP_HEADER_VERSION_MASK & (coap_pkt->version) << COAP_HEADER_VERSION_PO
 1517              		.loc 1 581 0
 1518 0018 488B17   		movq	(%rdi), %rdx
 1519 001b 0FB64708 		movzbl	8(%rdi), %eax
 1520 001f C1E006   		sall	$6, %eax
 1521 0022 0802     		orb	%al, (%rdx)
 582:/home/baikal/workspace/C50/Huawei_IoT_Agent_Tiny_SDK_Linux//lwm2m/core/er-coap-13/er-coap-13.c ****     coap_pkt->buffer[0] |= COAP_HEADER_TYPE_MASK & (coap_pkt->type) << COAP_HEADER_TYPE_POSITION;
 1522              		.loc 1 582 0
 1523 0024 488B17   		movq	(%rdi), %rdx
 1524 0027 0FB6470C 		movzbl	12(%rdi), %eax
 1525 002b C1E004   		sall	$4, %eax
 1526 002e 83E030   		andl	$48, %eax
 1527 0031 0802     		orb	%al, (%rdx)
 583:/home/baikal/workspace/C50/Huawei_IoT_Agent_Tiny_SDK_Linux//lwm2m/core/er-coap-13/er-coap-13.c ****     coap_pkt->buffer[0] |= COAP_HEADER_TOKEN_LEN_MASK & (coap_pkt->token_len) << COAP_HEADER_TOKEN_
 1528              		.loc 1 583 0
 1529 0033 488B17   		movq	(%rdi), %rdx
 1530 0036 0FB68784 		movzbl	132(%rdi), %eax
 1530      000000
 1531 003d 83E00F   		andl	$15, %eax
 1532 0040 0802     		orb	%al, (%rdx)
 584:/home/baikal/workspace/C50/Huawei_IoT_Agent_Tiny_SDK_Linux//lwm2m/core/er-coap-13/er-coap-13.c ****     coap_pkt->buffer[1] = coap_pkt->code;
 1533              		.loc 1 584 0
 1534 0042 488B07   		movq	(%rdi), %rax
 1535 0045 0FB65710 		movzbl	16(%rdi), %edx
 1536 0049 885001   		movb	%dl, 1(%rax)
 585:/home/baikal/workspace/C50/Huawei_IoT_Agent_Tiny_SDK_Linux//lwm2m/core/er-coap-13/er-coap-13.c ****     coap_pkt->buffer[2] = (uint8_t) ((coap_pkt->mid) >> 8);
 1537              		.loc 1 585 0
 1538 004c 488B07   		movq	(%rdi), %rax
 1539 004f 0FB65713 		movzbl	19(%rdi), %edx
 1540 0053 885002   		movb	%dl, 2(%rax)
GAS LISTING /tmp/ccSAldBr.s 			page 42


 586:/home/baikal/workspace/C50/Huawei_IoT_Agent_Tiny_SDK_Linux//lwm2m/core/er-coap-13/er-coap-13.c ****     coap_pkt->buffer[3] = (uint8_t) (coap_pkt->mid);
 1541              		.loc 1 586 0
 1542 0056 488B07   		movq	(%rdi), %rax
 1543 0059 0FB75712 		movzwl	18(%rdi), %edx
 1544 005d 885003   		movb	%dl, 3(%rax)
 587:/home/baikal/workspace/C50/Huawei_IoT_Agent_Tiny_SDK_Linux//lwm2m/core/er-coap-13/er-coap-13.c **** 
 588:/home/baikal/workspace/C50/Huawei_IoT_Agent_Tiny_SDK_Linux//lwm2m/core/er-coap-13/er-coap-13.c ****     /* set Token */
 589:/home/baikal/workspace/C50/Huawei_IoT_Agent_Tiny_SDK_Linux//lwm2m/core/er-coap-13/er-coap-13.c ****     PRINTF("Token (len %u)", coap_pkt->token_len);
 590:/home/baikal/workspace/C50/Huawei_IoT_Agent_Tiny_SDK_Linux//lwm2m/core/er-coap-13/er-coap-13.c ****     option = coap_pkt->buffer + COAP_HEADER_LEN;
 1545              		.loc 1 590 0
 1546 0060 488B07   		movq	(%rdi), %rax
 1547 0063 488D6804 		leaq	4(%rax), %rbp
 1548              	.LVL208:
 591:/home/baikal/workspace/C50/Huawei_IoT_Agent_Tiny_SDK_Linux//lwm2m/core/er-coap-13/er-coap-13.c ****     for (current_number = 0; current_number < coap_pkt->token_len; ++current_number)
 1549              		.loc 1 591 0
 1550 0067 B8000000 		movl	$0, %eax
 1550      00
 1551 006c EB14     		jmp	.L110
 1552              	.LVL209:
 1553              	.L111:
 592:/home/baikal/workspace/C50/Huawei_IoT_Agent_Tiny_SDK_Linux//lwm2m/core/er-coap-13/er-coap-13.c ****     {
 593:/home/baikal/workspace/C50/Huawei_IoT_Agent_Tiny_SDK_Linux//lwm2m/core/er-coap-13/er-coap-13.c ****         PRINTF(" %02X", coap_pkt->token[current_number]);
 594:/home/baikal/workspace/C50/Huawei_IoT_Agent_Tiny_SDK_Linux//lwm2m/core/er-coap-13/er-coap-13.c ****         *option = coap_pkt->token[current_number];
 1554              		.loc 1 594 0 discriminator 3
 1555 006e 89C2     		movl	%eax, %edx
 1556 0070 0FB69413 		movzbl	133(%rbx,%rdx), %edx
 1556      85000000 
 1557 0078 885500   		movb	%dl, 0(%rbp)
 595:/home/baikal/workspace/C50/Huawei_IoT_Agent_Tiny_SDK_Linux//lwm2m/core/er-coap-13/er-coap-13.c ****         ++option;
 1558              		.loc 1 595 0 discriminator 3
 1559 007b 4883C501 		addq	$1, %rbp
 1560              	.LVL210:
 591:/home/baikal/workspace/C50/Huawei_IoT_Agent_Tiny_SDK_Linux//lwm2m/core/er-coap-13/er-coap-13.c ****     for (current_number = 0; current_number < coap_pkt->token_len; ++current_number)
 1561              		.loc 1 591 0 discriminator 3
 1562 007f 83C001   		addl	$1, %eax
 1563              	.LVL211:
 1564              	.L110:
 591:/home/baikal/workspace/C50/Huawei_IoT_Agent_Tiny_SDK_Linux//lwm2m/core/er-coap-13/er-coap-13.c ****     for (current_number = 0; current_number < coap_pkt->token_len; ++current_number)
 1565              		.loc 1 591 0 is_stmt 0 discriminator 1
 1566 0082 0FB69384 		movzbl	132(%rbx), %edx
 1566      000000
 1567 0089 39D0     		cmpl	%edx, %eax
 1568 008b 72E1     		jb	.L111
 1569              	.LVL212:
 596:/home/baikal/workspace/C50/Huawei_IoT_Agent_Tiny_SDK_Linux//lwm2m/core/er-coap-13/er-coap-13.c ****     }
 597:/home/baikal/workspace/C50/Huawei_IoT_Agent_Tiny_SDK_Linux//lwm2m/core/er-coap-13/er-coap-13.c ****     PRINTF("-\n");
 598:/home/baikal/workspace/C50/Huawei_IoT_Agent_Tiny_SDK_Linux//lwm2m/core/er-coap-13/er-coap-13.c **** 
 599:/home/baikal/workspace/C50/Huawei_IoT_Agent_Tiny_SDK_Linux//lwm2m/core/er-coap-13/er-coap-13.c ****     /* Serialize options */
 600:/home/baikal/workspace/C50/Huawei_IoT_Agent_Tiny_SDK_Linux//lwm2m/core/er-coap-13/er-coap-13.c ****     current_number = 0;
 601:/home/baikal/workspace/C50/Huawei_IoT_Agent_Tiny_SDK_Linux//lwm2m/core/er-coap-13/er-coap-13.c **** 
 602:/home/baikal/workspace/C50/Huawei_IoT_Agent_Tiny_SDK_Linux//lwm2m/core/er-coap-13/er-coap-13.c ****     PRINTF("-Serializing options at %p-\n", option);
 603:/home/baikal/workspace/C50/Huawei_IoT_Agent_Tiny_SDK_Linux//lwm2m/core/er-coap-13/er-coap-13.c **** 
 604:/home/baikal/workspace/C50/Huawei_IoT_Agent_Tiny_SDK_Linux//lwm2m/core/er-coap-13/er-coap-13.c ****     /* The options must be serialized in the order of their number */
 605:/home/baikal/workspace/C50/Huawei_IoT_Agent_Tiny_SDK_Linux//lwm2m/core/er-coap-13/er-coap-13.c ****     COAP_SERIALIZE_BYTE_OPTION(   COAP_OPTION_IF_MATCH,       if_match, "If-Match")
 1570              		.loc 1 605 0 is_stmt 1
 1571 008d F6431402 		testb	$2, 20(%rbx)
 1572 0091 7432     		je	.L134
GAS LISTING /tmp/ccSAldBr.s 			page 43


 1573              		.loc 1 605 0 is_stmt 0 discriminator 1
 1574 0093 488D8B93 		leaq	147(%rbx), %rcx
 1574      000000
 1575 009a 41B90000 		movl	$0, %r9d
 1575      0000
 1576 00a0 440FB683 		movzbl	146(%rbx), %r8d
 1576      92000000 
 1577 00a8 4889EA   		movq	%rbp, %rdx
 1578 00ab BE000000 		movl	$0, %esi
 1578      00
 1579              	.LVL213:
 1580 00b0 BF010000 		movl	$1, %edi
 1580      00
 1581 00b5 E8000000 		call	coap_serialize_array_option
 1581      00
 1582              	.LVL214:
 1583 00ba 4801C5   		addq	%rax, %rbp
 1584              	.LVL215:
 1585 00bd 41BD0100 		movl	$1, %r13d
 1585      0000
 1586 00c3 EB06     		jmp	.L112
 1587              	.LVL216:
 1588              	.L134:
 600:/home/baikal/workspace/C50/Huawei_IoT_Agent_Tiny_SDK_Linux//lwm2m/core/er-coap-13/er-coap-13.c **** 
 1589              		.loc 1 600 0 is_stmt 1
 1590 00c5 41BD0000 		movl	$0, %r13d
 1590      0000
 1591              	.LVL217:
 1592              	.L112:
 606:/home/baikal/workspace/C50/Huawei_IoT_Agent_Tiny_SDK_Linux//lwm2m/core/er-coap-13/er-coap-13.c ****     COAP_SERIALIZE_STRING_OPTION( COAP_OPTION_URI_HOST,       uri_host, '\0', "Uri-Host")
 1593              		.loc 1 606 0
 1594 00cb F6431408 		testb	$8, 20(%rbx)
 1595 00cf 7427     		je	.L113
 1596              		.loc 1 606 0 is_stmt 0 discriminator 1
 1597 00d1 488B4B50 		movq	80(%rbx), %rcx
 1598 00d5 41B90000 		movl	$0, %r9d
 1598      0000
 1599 00db 4C8B4348 		movq	72(%rbx), %r8
 1600 00df 4889EA   		movq	%rbp, %rdx
 1601 00e2 4489EE   		movl	%r13d, %esi
 1602 00e5 BF030000 		movl	$3, %edi
 1602      00
 1603 00ea E8000000 		call	coap_serialize_array_option
 1603      00
 1604              	.LVL218:
 1605 00ef 4801C5   		addq	%rax, %rbp
 1606              	.LVL219:
 1607 00f2 41BD0300 		movl	$3, %r13d
 1607      0000
 1608              	.LVL220:
 1609              	.L113:
 607:/home/baikal/workspace/C50/Huawei_IoT_Agent_Tiny_SDK_Linux//lwm2m/core/er-coap-13/er-coap-13.c ****     COAP_SERIALIZE_BYTE_OPTION(   COAP_OPTION_ETAG,           etag, "ETag")
 1610              		.loc 1 607 0 is_stmt 1
 1611 00f8 F6431410 		testb	$16, 20(%rbx)
 1612 00fc 7428     		je	.L114
 1613              		.loc 1 607 0 is_stmt 0 discriminator 1
 1614 00fe 488D4B39 		leaq	57(%rbx), %rcx
GAS LISTING /tmp/ccSAldBr.s 			page 44


 1615 0102 41B90000 		movl	$0, %r9d
 1615      0000
 1616 0108 440FB643 		movzbl	56(%rbx), %r8d
 1616      38
 1617 010d 4889EA   		movq	%rbp, %rdx
 1618 0110 4489EE   		movl	%r13d, %esi
 1619 0113 BF040000 		movl	$4, %edi
 1619      00
 1620 0118 E8000000 		call	coap_serialize_array_option
 1620      00
 1621              	.LVL221:
 1622 011d 4801C5   		addq	%rax, %rbp
 1623              	.LVL222:
 1624 0120 41BD0400 		movl	$4, %r13d
 1624      0000
 1625              	.LVL223:
 1626              	.L114:
 608:/home/baikal/workspace/C50/Huawei_IoT_Agent_Tiny_SDK_Linux//lwm2m/core/er-coap-13/er-coap-13.c ****     COAP_SERIALIZE_INT_OPTION(    COAP_OPTION_IF_NONE_MATCH,  content_type - coap_pkt->content_type
 1627              		.loc 1 608 0 is_stmt 1
 1628 0126 F6431420 		testb	$32, 20(%rbx)
 1629 012a 741E     		je	.L115
 1630              		.loc 1 608 0 is_stmt 0 discriminator 1
 1631 012c B9000000 		movl	$0, %ecx
 1631      00
 1632 0131 4889EA   		movq	%rbp, %rdx
 1633 0134 4489EE   		movl	%r13d, %esi
 1634 0137 BF050000 		movl	$5, %edi
 1634      00
 1635 013c E8000000 		call	coap_serialize_int_option
 1635      00
 1636              	.LVL224:
 1637 0141 4801C5   		addq	%rax, %rbp
 1638              	.LVL225:
 1639 0144 41BD0500 		movl	$5, %r13d
 1639      0000
 1640              	.LVL226:
 1641              	.L115:
 609:/home/baikal/workspace/C50/Huawei_IoT_Agent_Tiny_SDK_Linux//lwm2m/core/er-coap-13/er-coap-13.c ****     COAP_SERIALIZE_INT_OPTION(    COAP_OPTION_OBSERVE,        observe, "Observe")
 1642              		.loc 1 609 0 is_stmt 1
 1643 014a F6431440 		testb	$64, 20(%rbx)
 1644 014e 741F     		je	.L116
 1645              		.loc 1 609 0 is_stmt 0 discriminator 1
 1646 0150 8B8B8000 		movl	128(%rbx), %ecx
 1646      0000
 1647 0156 4889EA   		movq	%rbp, %rdx
 1648 0159 4489EE   		movl	%r13d, %esi
 1649 015c BF060000 		movl	$6, %edi
 1649      00
 1650 0161 E8000000 		call	coap_serialize_int_option
 1650      00
 1651              	.LVL227:
 1652 0166 4801C5   		addq	%rax, %rbp
 1653              	.LVL228:
 1654 0169 41BD0600 		movl	$6, %r13d
 1654      0000
 1655              	.LVL229:
 1656              	.L116:
GAS LISTING /tmp/ccSAldBr.s 			page 45


 610:/home/baikal/workspace/C50/Huawei_IoT_Agent_Tiny_SDK_Linux//lwm2m/core/er-coap-13/er-coap-13.c ****     COAP_SERIALIZE_INT_OPTION(    COAP_OPTION_URI_PORT,       uri_port, "Uri-Port")
 1657              		.loc 1 610 0 is_stmt 1
 1658 016f 807B1400 		cmpb	$0, 20(%rbx)
 1659 0173 791D     		jns	.L117
 1660              		.loc 1 610 0 is_stmt 0 discriminator 1
 1661 0175 0FB74B60 		movzwl	96(%rbx), %ecx
 1662 0179 4889EA   		movq	%rbp, %rdx
 1663 017c 4489EE   		movl	%r13d, %esi
 1664 017f BF070000 		movl	$7, %edi
 1664      00
 1665 0184 E8000000 		call	coap_serialize_int_option
 1665      00
 1666              	.LVL230:
 1667 0189 4801C5   		addq	%rax, %rbp
 1668              	.LVL231:
 1669 018c 41BD0700 		movl	$7, %r13d
 1669      0000
 1670              	.LVL232:
 1671              	.L117:
 611:/home/baikal/workspace/C50/Huawei_IoT_Agent_Tiny_SDK_Linux//lwm2m/core/er-coap-13/er-coap-13.c ****     COAP_SERIALIZE_MULTI_OPTION(  COAP_OPTION_LOCATION_PATH,  location_path, "Location-Path")
 1672              		.loc 1 611 0 is_stmt 1
 1673 0192 F6431501 		testb	$1, 21(%rbx)
 1674 0196 741D     		je	.L118
 1675              		.loc 1 611 0 is_stmt 0 discriminator 1
 1676 0198 488B4B58 		movq	88(%rbx), %rcx
 1677 019c 4889EA   		movq	%rbp, %rdx
 1678 019f 4489EE   		movl	%r13d, %esi
 1679 01a2 BF080000 		movl	$8, %edi
 1679      00
 1680 01a7 E8000000 		call	coap_serialize_multi_option
 1680      00
 1681              	.LVL233:
 1682 01ac 4801C5   		addq	%rax, %rbp
 1683              	.LVL234:
 1684 01af 41BD0800 		movl	$8, %r13d
 1684      0000
 1685              	.LVL235:
 1686              	.L118:
 612:/home/baikal/workspace/C50/Huawei_IoT_Agent_Tiny_SDK_Linux//lwm2m/core/er-coap-13/er-coap-13.c ****     COAP_SERIALIZE_MULTI_OPTION(  COAP_OPTION_URI_PATH,       uri_path, "Uri-Path")
 1687              		.loc 1 612 0 is_stmt 1
 1688 01b5 F6431508 		testb	$8, 21(%rbx)
 1689 01b9 741D     		je	.L119
 1690              		.loc 1 612 0 is_stmt 0 discriminator 1
 1691 01bb 488B4B78 		movq	120(%rbx), %rcx
 1692 01bf 4889EA   		movq	%rbp, %rdx
 1693 01c2 4489EE   		movl	%r13d, %esi
 1694 01c5 BF0B0000 		movl	$11, %edi
 1694      00
 1695 01ca E8000000 		call	coap_serialize_multi_option
 1695      00
 1696              	.LVL236:
 1697 01cf 4801C5   		addq	%rax, %rbp
 1698              	.LVL237:
 1699 01d2 41BD0B00 		movl	$11, %r13d
 1699      0000
 1700              	.LVL238:
 1701              	.L119:
GAS LISTING /tmp/ccSAldBr.s 			page 46


 613:/home/baikal/workspace/C50/Huawei_IoT_Agent_Tiny_SDK_Linux//lwm2m/core/er-coap-13/er-coap-13.c ****     COAP_SERIALIZE_INT_OPTION(    COAP_OPTION_CONTENT_TYPE,   content_type, "Content-Format")
 1702              		.loc 1 613 0 is_stmt 1
 1703 01d8 F6431510 		testb	$16, 21(%rbx)
 1704 01dc 741C     		je	.L120
 1705              		.loc 1 613 0 is_stmt 0 discriminator 1
 1706 01de 8B4B1C   		movl	28(%rbx), %ecx
 1707 01e1 4889EA   		movq	%rbp, %rdx
 1708 01e4 4489EE   		movl	%r13d, %esi
 1709 01e7 BF0C0000 		movl	$12, %edi
 1709      00
 1710 01ec E8000000 		call	coap_serialize_int_option
 1710      00
 1711              	.LVL239:
 1712 01f1 4801C5   		addq	%rax, %rbp
 1713              	.LVL240:
 1714 01f4 41BD0C00 		movl	$12, %r13d
 1714      0000
 1715              	.LVL241:
 1716              	.L120:
 614:/home/baikal/workspace/C50/Huawei_IoT_Agent_Tiny_SDK_Linux//lwm2m/core/er-coap-13/er-coap-13.c ****     COAP_SERIALIZE_INT_OPTION(    COAP_OPTION_MAX_AGE,        max_age, "Max-Age")
 1717              		.loc 1 614 0 is_stmt 1
 1718 01fa F6431540 		testb	$64, 21(%rbx)
 1719 01fe 741C     		je	.L121
 1720              		.loc 1 614 0 is_stmt 0 discriminator 1
 1721 0200 8B4B20   		movl	32(%rbx), %ecx
 1722 0203 4889EA   		movq	%rbp, %rdx
 1723 0206 4489EE   		movl	%r13d, %esi
 1724 0209 BF0E0000 		movl	$14, %edi
 1724      00
 1725 020e E8000000 		call	coap_serialize_int_option
 1725      00
 1726              	.LVL242:
 1727 0213 4801C5   		addq	%rax, %rbp
 1728              	.LVL243:
 1729 0216 41BD0E00 		movl	$14, %r13d
 1729      0000
 1730              	.LVL244:
 1731              	.L121:
 615:/home/baikal/workspace/C50/Huawei_IoT_Agent_Tiny_SDK_Linux//lwm2m/core/er-coap-13/er-coap-13.c ****     COAP_SERIALIZE_MULTI_OPTION(  COAP_OPTION_URI_QUERY,      uri_query, "Uri-Query")
 1732              		.loc 1 615 0 is_stmt 1
 1733 021c 807B1500 		cmpb	$0, 21(%rbx)
 1734 0220 7920     		jns	.L122
 1735              		.loc 1 615 0 is_stmt 0 discriminator 1
 1736 0222 488B8BB8 		movq	184(%rbx), %rcx
 1736      000000
 1737 0229 4889EA   		movq	%rbp, %rdx
 1738 022c 4489EE   		movl	%r13d, %esi
 1739 022f BF0F0000 		movl	$15, %edi
 1739      00
 1740 0234 E8000000 		call	coap_serialize_multi_option
 1740      00
 1741              	.LVL245:
 1742 0239 4801C5   		addq	%rax, %rbp
 1743              	.LVL246:
 1744 023c 41BD0F00 		movl	$15, %r13d
 1744      0000
 1745              	.LVL247:
GAS LISTING /tmp/ccSAldBr.s 			page 47


 1746              	.L122:
 616:/home/baikal/workspace/C50/Huawei_IoT_Agent_Tiny_SDK_Linux//lwm2m/core/er-coap-13/er-coap-13.c ****     COAP_SERIALIZE_ACCEPT_OPTION( COAP_OPTION_ACCEPT,         accept, "Accept")
 1747              		.loc 1 616 0 is_stmt 1
 1748 0242 F6431602 		testb	$2, 22(%rbx)
 1749 0246 752C     		jne	.L135
 1750              	.LBB61:
 1751 0248 EB3C     		jmp	.L124
 1752              	.LVL248:
 1753              	.L125:
 1754              		.loc 1 616 0 is_stmt 0 discriminator 4
 1755 024a 4963C6   		movslq	%r14d, %rax
 1756 024d 0FB78C43 		movzwl	142(%rbx,%rax,2), %ecx
 1756      8E000000 
 1757 0255 4889EA   		movq	%rbp, %rdx
 1758 0258 4489EE   		movl	%r13d, %esi
 1759 025b BF110000 		movl	$17, %edi
 1759      00
 1760 0260 E8000000 		call	coap_serialize_int_option
 1760      00
 1761              	.LVL249:
 1762 0265 4801C5   		addq	%rax, %rbp
 1763              	.LVL250:
 1764 0268 4183C601 		addl	$1, %r14d
 1765              	.LVL251:
 1766 026c 41BD1100 		movl	$17, %r13d
 1766      0000
 1767 0272 EB06     		jmp	.L123
 1768              	.LVL252:
 1769              	.L135:
 1770              	.LBE61:
 1771 0274 41BE0000 		movl	$0, %r14d
 1771      0000
 1772              	.LVL253:
 1773              	.L123:
 1774              	.LBB62:
 1775              		.loc 1 616 0 discriminator 2
 1776 027a 0FB6838D 		movzbl	141(%rbx), %eax
 1776      000000
 1777 0281 4139C6   		cmpl	%eax, %r14d
 1778 0284 7CC4     		jl	.L125
 1779              	.LVL254:
 1780              	.L124:
 1781              	.LBE62:
 617:/home/baikal/workspace/C50/Huawei_IoT_Agent_Tiny_SDK_Linux//lwm2m/core/er-coap-13/er-coap-13.c ****     COAP_SERIALIZE_STRING_OPTION( COAP_OPTION_LOCATION_QUERY, location_query, '&', "Location-Query"
 1782              		.loc 1 617 0 is_stmt 1
 1783 0286 F6431610 		testb	$16, 22(%rbx)
 1784 028a 7427     		je	.L126
 1785              		.loc 1 617 0 is_stmt 0 discriminator 1
 1786 028c 488B4B70 		movq	112(%rbx), %rcx
 1787 0290 41B92600 		movl	$38, %r9d
 1787      0000
 1788 0296 4C8B4368 		movq	104(%rbx), %r8
 1789 029a 4889EA   		movq	%rbp, %rdx
 1790 029d 4489EE   		movl	%r13d, %esi
 1791 02a0 BF140000 		movl	$20, %edi
 1791      00
 1792 02a5 E8000000 		call	coap_serialize_array_option
GAS LISTING /tmp/ccSAldBr.s 			page 48


 1792      00
 1793              	.LVL255:
 1794 02aa 4801C5   		addq	%rax, %rbp
 1795              	.LVL256:
 1796 02ad 41BD1400 		movl	$20, %r13d
 1796      0000
 1797              	.LVL257:
 1798              	.L126:
 618:/home/baikal/workspace/C50/Huawei_IoT_Agent_Tiny_SDK_Linux//lwm2m/core/er-coap-13/er-coap-13.c ****     COAP_SERIALIZE_BLOCK_OPTION(  COAP_OPTION_BLOCK2,         block2, "Block2")
 1799              		.loc 1 618 0 is_stmt 1
 1800 02b3 807B1600 		cmpb	$0, 22(%rbx)
 1801 02b7 794C     		jns	.L127
 1802              	.LBB63:
 1803              		.loc 1 618 0 is_stmt 0 discriminator 1
 1804 02b9 448BB39C 		movl	156(%rbx), %r14d
 1804      000000
 1805 02c0 41C1E604 		sall	$4, %r14d
 1806              	.LVL258:
 1807 02c4 80BBA000 		cmpb	$0, 160(%rbx)
 1807      000000
 1808 02cb 7404     		je	.L128
 1809              		.loc 1 618 0 discriminator 2
 1810 02cd 4183CE08 		orl	$8, %r14d
 1811              	.LVL259:
 1812              	.L128:
 1813              		.loc 1 618 0 discriminator 4
 1814 02d1 0FB7BBA2 		movzwl	162(%rbx), %edi
 1814      000000
 1815 02d8 66C1EF04 		shrw	$4, %di
 1816 02dc 0FB7FF   		movzwl	%di, %edi
 1817 02df E8000000 		call	coap_log_2
 1817      00
 1818              	.LVL260:
 1819 02e4 89C1     		movl	%eax, %ecx
 1820 02e6 83E10F   		andl	$15, %ecx
 1821 02e9 4409F1   		orl	%r14d, %ecx
 1822              	.LVL261:
 1823 02ec 4889EA   		movq	%rbp, %rdx
 1824 02ef 4489EE   		movl	%r13d, %esi
 1825 02f2 BF170000 		movl	$23, %edi
 1825      00
 1826 02f7 E8000000 		call	coap_serialize_int_option
 1826      00
 1827              	.LVL262:
 1828 02fc 4801C5   		addq	%rax, %rbp
 1829              	.LVL263:
 1830 02ff 41BD1700 		movl	$23, %r13d
 1830      0000
 1831              	.LVL264:
 1832              	.L127:
 1833              	.LBE63:
 619:/home/baikal/workspace/C50/Huawei_IoT_Agent_Tiny_SDK_Linux//lwm2m/core/er-coap-13/er-coap-13.c ****     COAP_SERIALIZE_BLOCK_OPTION(  COAP_OPTION_BLOCK1,         block1, "Block1")
 1834              		.loc 1 619 0 is_stmt 1
 1835 0305 F6431708 		testb	$8, 23(%rbx)
 1836 0309 744C     		je	.L129
 1837              	.LBB64:
 1838              		.loc 1 619 0 is_stmt 0 discriminator 1
GAS LISTING /tmp/ccSAldBr.s 			page 49


 1839 030b 448BB3A8 		movl	168(%rbx), %r14d
 1839      000000
 1840 0312 41C1E604 		sall	$4, %r14d
 1841              	.LVL265:
 1842 0316 80BBAC00 		cmpb	$0, 172(%rbx)
 1842      000000
 1843 031d 7404     		je	.L130
 1844              		.loc 1 619 0 discriminator 2
 1845 031f 4183CE08 		orl	$8, %r14d
 1846              	.LVL266:
 1847              	.L130:
 1848              		.loc 1 619 0 discriminator 4
 1849 0323 0FB7BBAE 		movzwl	174(%rbx), %edi
 1849      000000
 1850 032a 66C1EF04 		shrw	$4, %di
 1851 032e 0FB7FF   		movzwl	%di, %edi
 1852 0331 E8000000 		call	coap_log_2
 1852      00
 1853              	.LVL267:
 1854 0336 89C1     		movl	%eax, %ecx
 1855 0338 83E10F   		andl	$15, %ecx
 1856 033b 4409F1   		orl	%r14d, %ecx
 1857              	.LVL268:
 1858 033e 4889EA   		movq	%rbp, %rdx
 1859 0341 4489EE   		movl	%r13d, %esi
 1860 0344 BF1B0000 		movl	$27, %edi
 1860      00
 1861 0349 E8000000 		call	coap_serialize_int_option
 1861      00
 1862              	.LVL269:
 1863 034e 4801C5   		addq	%rax, %rbp
 1864              	.LVL270:
 1865 0351 41BD1B00 		movl	$27, %r13d
 1865      0000
 1866              	.LVL271:
 1867              	.L129:
 1868              	.LBE64:
 620:/home/baikal/workspace/C50/Huawei_IoT_Agent_Tiny_SDK_Linux//lwm2m/core/er-coap-13/er-coap-13.c ****     COAP_SERIALIZE_INT_OPTION(    COAP_OPTION_SIZE,           size, "Size")
 1869              		.loc 1 620 0 is_stmt 1
 1870 0357 F6431710 		testb	$16, 23(%rbx)
 1871 035b 741F     		je	.L131
 1872              		.loc 1 620 0 is_stmt 0 discriminator 1
 1873 035d 8B8BB400 		movl	180(%rbx), %ecx
 1873      0000
 1874 0363 4889EA   		movq	%rbp, %rdx
 1875 0366 4489EE   		movl	%r13d, %esi
 1876 0369 BF1C0000 		movl	$28, %edi
 1876      00
 1877 036e E8000000 		call	coap_serialize_int_option
 1877      00
 1878              	.LVL272:
 1879 0373 4801C5   		addq	%rax, %rbp
 1880              	.LVL273:
 1881 0376 41BD1C00 		movl	$28, %r13d
 1881      0000
 1882              	.LVL274:
 1883              	.L131:
GAS LISTING /tmp/ccSAldBr.s 			page 50


 621:/home/baikal/workspace/C50/Huawei_IoT_Agent_Tiny_SDK_Linux//lwm2m/core/er-coap-13/er-coap-13.c ****     COAP_SERIALIZE_STRING_OPTION( COAP_OPTION_PROXY_URI,      proxy_uri, '\0', "Proxy-Uri")
 1884              		.loc 1 621 0 is_stmt 1
 1885 037c F6431808 		testb	$8, 24(%rbx)
 1886 0380 7421     		je	.L132
 1887              		.loc 1 621 0 is_stmt 0 discriminator 1
 1888 0382 488B4B30 		movq	48(%rbx), %rcx
 1889 0386 41B90000 		movl	$0, %r9d
 1889      0000
 1890 038c 4C8B4328 		movq	40(%rbx), %r8
 1891 0390 4889EA   		movq	%rbp, %rdx
 1892 0393 4489EE   		movl	%r13d, %esi
 1893 0396 BF230000 		movl	$35, %edi
 1893      00
 1894 039b E8000000 		call	coap_serialize_array_option
 1894      00
 1895              	.LVL275:
 1896 03a0 4801C5   		addq	%rax, %rbp
 1897              	.LVL276:
 1898              	.L132:
 622:/home/baikal/workspace/C50/Huawei_IoT_Agent_Tiny_SDK_Linux//lwm2m/core/er-coap-13/er-coap-13.c **** 
 623:/home/baikal/workspace/C50/Huawei_IoT_Agent_Tiny_SDK_Linux//lwm2m/core/er-coap-13/er-coap-13.c ****     PRINTF("-Done serializing at %p----\n", option);
 624:/home/baikal/workspace/C50/Huawei_IoT_Agent_Tiny_SDK_Linux//lwm2m/core/er-coap-13/er-coap-13.c **** 
 625:/home/baikal/workspace/C50/Huawei_IoT_Agent_Tiny_SDK_Linux//lwm2m/core/er-coap-13/er-coap-13.c ****     /* Free allocated header fields */
 626:/home/baikal/workspace/C50/Huawei_IoT_Agent_Tiny_SDK_Linux//lwm2m/core/er-coap-13/er-coap-13.c ****     coap_free_header(packet);
 1899              		.loc 1 626 0 is_stmt 1
 1900 03a3 4889DF   		movq	%rbx, %rdi
 1901 03a6 E8000000 		call	coap_free_header
 1901      00
 1902              	.LVL277:
 627:/home/baikal/workspace/C50/Huawei_IoT_Agent_Tiny_SDK_Linux//lwm2m/core/er-coap-13/er-coap-13.c **** 
 628:/home/baikal/workspace/C50/Huawei_IoT_Agent_Tiny_SDK_Linux//lwm2m/core/er-coap-13/er-coap-13.c ****     /* Pack payload */
 629:/home/baikal/workspace/C50/Huawei_IoT_Agent_Tiny_SDK_Linux//lwm2m/core/er-coap-13/er-coap-13.c ****     /* Payload marker */
 630:/home/baikal/workspace/C50/Huawei_IoT_Agent_Tiny_SDK_Linux//lwm2m/core/er-coap-13/er-coap-13.c ****     if (coap_pkt->payload_len)
 1903              		.loc 1 630 0
 1904 03ab 6683BBC2 		cmpw	$0, 194(%rbx)
 1904      00000000 
 1905 03b3 7408     		je	.L133
 631:/home/baikal/workspace/C50/Huawei_IoT_Agent_Tiny_SDK_Linux//lwm2m/core/er-coap-13/er-coap-13.c ****     {
 632:/home/baikal/workspace/C50/Huawei_IoT_Agent_Tiny_SDK_Linux//lwm2m/core/er-coap-13/er-coap-13.c ****         *option = 0xFF;
 1906              		.loc 1 632 0
 1907 03b5 C64500FF 		movb	$-1, 0(%rbp)
 633:/home/baikal/workspace/C50/Huawei_IoT_Agent_Tiny_SDK_Linux//lwm2m/core/er-coap-13/er-coap-13.c ****         ++option;
 1908              		.loc 1 633 0
 1909 03b9 4883C501 		addq	$1, %rbp
 1910              	.LVL278:
 1911              	.L133:
 634:/home/baikal/workspace/C50/Huawei_IoT_Agent_Tiny_SDK_Linux//lwm2m/core/er-coap-13/er-coap-13.c ****     }
 635:/home/baikal/workspace/C50/Huawei_IoT_Agent_Tiny_SDK_Linux//lwm2m/core/er-coap-13/er-coap-13.c **** 
 636:/home/baikal/workspace/C50/Huawei_IoT_Agent_Tiny_SDK_Linux//lwm2m/core/er-coap-13/er-coap-13.c ****     memmove(option, coap_pkt->payload, coap_pkt->payload_len);
 1912              		.loc 1 636 0
 1913 03bd 0FB793C2 		movzwl	194(%rbx), %edx
 1913      000000
 1914 03c4 488BB3C8 		movq	200(%rbx), %rsi
 1914      000000
 1915              	.LVL279:
 1916              	.LBB65:
 1917              	.LBB66:
GAS LISTING /tmp/ccSAldBr.s 			page 51


  59:/usr/include/x86_64-linux-gnu/bits/string3.h **** }
 1918              		.loc 2 59 0
 1919 03cb 4889EF   		movq	%rbp, %rdi
 1920 03ce E8000000 		call	memmove
 1920      00
 1921              	.LVL280:
 1922              	.LBE66:
 1923              	.LBE65:
 637:/home/baikal/workspace/C50/Huawei_IoT_Agent_Tiny_SDK_Linux//lwm2m/core/er-coap-13/er-coap-13.c **** 
 638:/home/baikal/workspace/C50/Huawei_IoT_Agent_Tiny_SDK_Linux//lwm2m/core/er-coap-13/er-coap-13.c ****     PRINTF("-Done %u B (header len %u, payload len %u)-\n", coap_pkt->payload_len + option - buffer
 639:/home/baikal/workspace/C50/Huawei_IoT_Agent_Tiny_SDK_Linux//lwm2m/core/er-coap-13/er-coap-13.c **** 
 640:/home/baikal/workspace/C50/Huawei_IoT_Agent_Tiny_SDK_Linux//lwm2m/core/er-coap-13/er-coap-13.c ****     PRINTF("Dump [0x%02X %02X %02X %02X  %02X %02X %02X %02X]\n",
 641:/home/baikal/workspace/C50/Huawei_IoT_Agent_Tiny_SDK_Linux//lwm2m/core/er-coap-13/er-coap-13.c ****            coap_pkt->buffer[0],
 642:/home/baikal/workspace/C50/Huawei_IoT_Agent_Tiny_SDK_Linux//lwm2m/core/er-coap-13/er-coap-13.c ****            coap_pkt->buffer[1],
 643:/home/baikal/workspace/C50/Huawei_IoT_Agent_Tiny_SDK_Linux//lwm2m/core/er-coap-13/er-coap-13.c ****            coap_pkt->buffer[2],
 644:/home/baikal/workspace/C50/Huawei_IoT_Agent_Tiny_SDK_Linux//lwm2m/core/er-coap-13/er-coap-13.c ****            coap_pkt->buffer[3],
 645:/home/baikal/workspace/C50/Huawei_IoT_Agent_Tiny_SDK_Linux//lwm2m/core/er-coap-13/er-coap-13.c ****            coap_pkt->buffer[4],
 646:/home/baikal/workspace/C50/Huawei_IoT_Agent_Tiny_SDK_Linux//lwm2m/core/er-coap-13/er-coap-13.c ****            coap_pkt->buffer[5],
 647:/home/baikal/workspace/C50/Huawei_IoT_Agent_Tiny_SDK_Linux//lwm2m/core/er-coap-13/er-coap-13.c ****            coap_pkt->buffer[6],
 648:/home/baikal/workspace/C50/Huawei_IoT_Agent_Tiny_SDK_Linux//lwm2m/core/er-coap-13/er-coap-13.c ****            coap_pkt->buffer[7]
 649:/home/baikal/workspace/C50/Huawei_IoT_Agent_Tiny_SDK_Linux//lwm2m/core/er-coap-13/er-coap-13.c ****           );
 650:/home/baikal/workspace/C50/Huawei_IoT_Agent_Tiny_SDK_Linux//lwm2m/core/er-coap-13/er-coap-13.c **** 
 651:/home/baikal/workspace/C50/Huawei_IoT_Agent_Tiny_SDK_Linux//lwm2m/core/er-coap-13/er-coap-13.c ****     return (option - buffer) + coap_pkt->payload_len; /* packet length */
 1924              		.loc 1 651 0
 1925 03d3 4C29E5   		subq	%r12, %rbp
 1926              	.LVL281:
 1927 03d6 0FB783C2 		movzwl	194(%rbx), %eax
 1927      000000
 1928 03dd 4801E8   		addq	%rbp, %rax
 652:/home/baikal/workspace/C50/Huawei_IoT_Agent_Tiny_SDK_Linux//lwm2m/core/er-coap-13/er-coap-13.c **** }
 1929              		.loc 1 652 0
 1930 03e0 5B       		popq	%rbx
 1931              	.LCFI93:
 1932              		.cfi_def_cfa_offset 40
 1933              	.LVL282:
 1934 03e1 5D       		popq	%rbp
 1935              	.LCFI94:
 1936              		.cfi_def_cfa_offset 32
 1937 03e2 415C     		popq	%r12
 1938              	.LCFI95:
 1939              		.cfi_def_cfa_offset 24
 1940              	.LVL283:
 1941 03e4 415D     		popq	%r13
 1942              	.LCFI96:
 1943              		.cfi_def_cfa_offset 16
 1944 03e6 415E     		popq	%r14
 1945              	.LCFI97:
 1946              		.cfi_def_cfa_offset 8
 1947 03e8 C3       		ret
 1948              		.cfi_endproc
 1949              	.LFE79:
 1951              		.section	.rodata.str1.1,"aMS",@progbits,1
 1952              	.LC0:
 1953 0000 436F4150 		.string	"CoAP version must be 1"
 1953      20766572 
 1953      73696F6E 
 1953      206D7573 
GAS LISTING /tmp/ccSAldBr.s 			page 52


 1953      74206265 
 1954              		.section	.rodata.str1.8,"aMS",@progbits,1
 1955              		.align 8
 1956              	.LC1:
 1957 0000 54686973 		.string	"This is a constrained server (Contiki)"
 1957      20697320 
 1957      6120636F 
 1957      6E737472 
 1957      61696E65 
 1958              		.section	.rodata.str1.1
 1959              	.LC2:
 1960 0017 556E7375 		.string	"Unsupported critical option"
 1960      70706F72 
 1960      74656420 
 1960      63726974 
 1960      6963616C 
 1961              		.section	.text.coap_parse_message,"ax",@progbits
 1962              		.globl	coap_parse_message
 1964              	coap_parse_message:
 1965              	.LFB80:
 653:/home/baikal/workspace/C50/Huawei_IoT_Agent_Tiny_SDK_Linux//lwm2m/core/er-coap-13/er-coap-13.c **** /*-----------------------------------------------------------------------------------*/
 654:/home/baikal/workspace/C50/Huawei_IoT_Agent_Tiny_SDK_Linux//lwm2m/core/er-coap-13/er-coap-13.c **** coap_status_t
 655:/home/baikal/workspace/C50/Huawei_IoT_Agent_Tiny_SDK_Linux//lwm2m/core/er-coap-13/er-coap-13.c **** coap_parse_message(void *packet, uint8_t *data, uint16_t data_len)
 656:/home/baikal/workspace/C50/Huawei_IoT_Agent_Tiny_SDK_Linux//lwm2m/core/er-coap-13/er-coap-13.c **** {
 1966              		.loc 1 656 0
 1967              		.cfi_startproc
 1968              	.LVL284:
 1969 0000 4157     		pushq	%r15
 1970              	.LCFI98:
 1971              		.cfi_def_cfa_offset 16
 1972              		.cfi_offset 15, -16
 1973 0002 4156     		pushq	%r14
 1974              	.LCFI99:
 1975              		.cfi_def_cfa_offset 24
 1976              		.cfi_offset 14, -24
 1977 0004 4155     		pushq	%r13
 1978              	.LCFI100:
 1979              		.cfi_def_cfa_offset 32
 1980              		.cfi_offset 13, -32
 1981 0006 4154     		pushq	%r12
 1982              	.LCFI101:
 1983              		.cfi_def_cfa_offset 40
 1984              		.cfi_offset 12, -40
 1985 0008 55       		pushq	%rbp
 1986              	.LCFI102:
 1987              		.cfi_def_cfa_offset 48
 1988              		.cfi_offset 6, -48
 1989 0009 53       		pushq	%rbx
 1990              	.LCFI103:
 1991              		.cfi_def_cfa_offset 56
 1992              		.cfi_offset 3, -56
 1993 000a 4883EC28 		subq	$40, %rsp
 1994              	.LCFI104:
 1995              		.cfi_def_cfa_offset 96
 1996 000e 4889FD   		movq	%rdi, %rbp
 1997              	.LVL285:
 657:/home/baikal/workspace/C50/Huawei_IoT_Agent_Tiny_SDK_Linux//lwm2m/core/er-coap-13/er-coap-13.c ****     coap_packet_t *const coap_pkt = (coap_packet_t *) packet;
GAS LISTING /tmp/ccSAldBr.s 			page 53


 658:/home/baikal/workspace/C50/Huawei_IoT_Agent_Tiny_SDK_Linux//lwm2m/core/er-coap-13/er-coap-13.c ****     uint8_t *current_option;
 659:/home/baikal/workspace/C50/Huawei_IoT_Agent_Tiny_SDK_Linux//lwm2m/core/er-coap-13/er-coap-13.c ****     unsigned int option_number = 0;
 660:/home/baikal/workspace/C50/Huawei_IoT_Agent_Tiny_SDK_Linux//lwm2m/core/er-coap-13/er-coap-13.c ****     unsigned int option_delta = 0;
 1998              		.loc 1 660 0
 1999 0011 C744241C 		movl	$0, 28(%rsp)
 1999      00000000 
 661:/home/baikal/workspace/C50/Huawei_IoT_Agent_Tiny_SDK_Linux//lwm2m/core/er-coap-13/er-coap-13.c ****     size_t option_length = 0;
 2000              		.loc 1 661 0
 2001 0019 48C74424 		movq	$0, 16(%rsp)
 2001      10000000 
 2001      00
 2002              	.LVL286:
 2003              	.LBB67:
 2004              	.LBB68:
 2005              		.loc 2 90 0
 2006 0022 48C787C8 		movq	$0, 200(%rdi)
 2006      00000000 
 2006      000000
 2007 002d 488D7F08 		leaq	8(%rdi), %rdi
 2008              	.LVL287:
 2009 0031 4883E7F8 		andq	$-8, %rdi
 2010 0035 4889E9   		movq	%rbp, %rcx
 2011 0038 4829F9   		subq	%rdi, %rcx
 2012 003b 81C1D000 		addl	$208, %ecx
 2012      0000
 2013 0041 C1E903   		shrl	$3, %ecx
 2014 0044 89C9     		movl	%ecx, %ecx
 2015 0046 B8000000 		movl	$0, %eax
 2015      00
 2016 004b F348AB   		rep stosq
 2017              	.LVL288:
 2018              	.LBE68:
 2019              	.LBE67:
 662:/home/baikal/workspace/C50/Huawei_IoT_Agent_Tiny_SDK_Linux//lwm2m/core/er-coap-13/er-coap-13.c ****     unsigned int *x;
 663:/home/baikal/workspace/C50/Huawei_IoT_Agent_Tiny_SDK_Linux//lwm2m/core/er-coap-13/er-coap-13.c **** 
 664:/home/baikal/workspace/C50/Huawei_IoT_Agent_Tiny_SDK_Linux//lwm2m/core/er-coap-13/er-coap-13.c ****     /* Initialize packet */
 665:/home/baikal/workspace/C50/Huawei_IoT_Agent_Tiny_SDK_Linux//lwm2m/core/er-coap-13/er-coap-13.c ****     memset(coap_pkt, 0, sizeof(coap_packet_t));
 666:/home/baikal/workspace/C50/Huawei_IoT_Agent_Tiny_SDK_Linux//lwm2m/core/er-coap-13/er-coap-13.c **** 
 667:/home/baikal/workspace/C50/Huawei_IoT_Agent_Tiny_SDK_Linux//lwm2m/core/er-coap-13/er-coap-13.c ****     /* pointer to packet bytes */
 668:/home/baikal/workspace/C50/Huawei_IoT_Agent_Tiny_SDK_Linux//lwm2m/core/er-coap-13/er-coap-13.c ****     coap_pkt->buffer = data;
 2020              		.loc 1 668 0
 2021 004e 48897500 		movq	%rsi, 0(%rbp)
 669:/home/baikal/workspace/C50/Huawei_IoT_Agent_Tiny_SDK_Linux//lwm2m/core/er-coap-13/er-coap-13.c **** 
 670:/home/baikal/workspace/C50/Huawei_IoT_Agent_Tiny_SDK_Linux//lwm2m/core/er-coap-13/er-coap-13.c ****     /* parse header fields */
 671:/home/baikal/workspace/C50/Huawei_IoT_Agent_Tiny_SDK_Linux//lwm2m/core/er-coap-13/er-coap-13.c ****     coap_pkt->version = (COAP_HEADER_VERSION_MASK & coap_pkt->buffer[0]) >> COAP_HEADER_VERSION_POS
 2022              		.loc 1 671 0
 2023 0052 0FB63E   		movzbl	(%rsi), %edi
 2024 0055 40C0EF06 		shrb	$6, %dil
 2025 0059 40887D08 		movb	%dil, 8(%rbp)
 672:/home/baikal/workspace/C50/Huawei_IoT_Agent_Tiny_SDK_Linux//lwm2m/core/er-coap-13/er-coap-13.c ****     coap_pkt->type = (coap_message_type_t)((COAP_HEADER_TYPE_MASK & coap_pkt->buffer[0]) >> COAP_HE
 2026              		.loc 1 672 0
 2027 005d 0FB606   		movzbl	(%rsi), %eax
 2028 0060 83E030   		andl	$48, %eax
 2029 0063 C0E804   		shrb	$4, %al
 2030 0066 0FB6C0   		movzbl	%al, %eax
 2031 0069 89450C   		movl	%eax, 12(%rbp)
 673:/home/baikal/workspace/C50/Huawei_IoT_Agent_Tiny_SDK_Linux//lwm2m/core/er-coap-13/er-coap-13.c ****     coap_pkt->token_len = MIN(COAP_TOKEN_LEN, (COAP_HEADER_TOKEN_LEN_MASK & coap_pkt->buffer[0]) >>
GAS LISTING /tmp/ccSAldBr.s 			page 54


 2032              		.loc 1 673 0
 2033 006c 0FB606   		movzbl	(%rsi), %eax
 2034 006f 83E00F   		andl	$15, %eax
 2035 0072 83F808   		cmpl	$8, %eax
 2036 0075 B9080000 		movl	$8, %ecx
 2036      00
 2037 007a 0F4FC1   		cmovg	%ecx, %eax
 2038 007d 88858400 		movb	%al, 132(%rbp)
 2038      0000
 674:/home/baikal/workspace/C50/Huawei_IoT_Agent_Tiny_SDK_Linux//lwm2m/core/er-coap-13/er-coap-13.c ****     coap_pkt->code = coap_pkt->buffer[1];
 2039              		.loc 1 674 0
 2040 0083 0FB64E01 		movzbl	1(%rsi), %ecx
 2041 0087 884D10   		movb	%cl, 16(%rbp)
 675:/home/baikal/workspace/C50/Huawei_IoT_Agent_Tiny_SDK_Linux//lwm2m/core/er-coap-13/er-coap-13.c ****     coap_pkt->mid = coap_pkt->buffer[2] << 8 | coap_pkt->buffer[3];
 2042              		.loc 1 675 0
 2043 008a 0FB64E02 		movzbl	2(%rsi), %ecx
 2044 008e C1E108   		sall	$8, %ecx
 2045 0091 440FB646 		movzbl	3(%rsi), %r8d
 2045      03
 2046 0096 4409C1   		orl	%r8d, %ecx
 2047 0099 66894D12 		movw	%cx, 18(%rbp)
 676:/home/baikal/workspace/C50/Huawei_IoT_Agent_Tiny_SDK_Linux//lwm2m/core/er-coap-13/er-coap-13.c **** 
 677:/home/baikal/workspace/C50/Huawei_IoT_Agent_Tiny_SDK_Linux//lwm2m/core/er-coap-13/er-coap-13.c ****     if (coap_pkt->version != 1)
 2048              		.loc 1 677 0
 2049 009d 4080FF01 		cmpb	$1, %dil
 2050 00a1 7415     		je	.L138
 678:/home/baikal/workspace/C50/Huawei_IoT_Agent_Tiny_SDK_Linux//lwm2m/core/er-coap-13/er-coap-13.c ****     {
 679:/home/baikal/workspace/C50/Huawei_IoT_Agent_Tiny_SDK_Linux//lwm2m/core/er-coap-13/er-coap-13.c ****         coap_error_message = "CoAP version must be 1";
 2051              		.loc 1 679 0
 2052 00a3 48C70500 		movq	$.LC0, coap_error_message(%rip)
 2052      00000000 
 2052      000000
 680:/home/baikal/workspace/C50/Huawei_IoT_Agent_Tiny_SDK_Linux//lwm2m/core/er-coap-13/er-coap-13.c ****         return BAD_REQUEST_4_00;
 2053              		.loc 1 680 0
 2054 00ae B8800000 		movl	$128, %eax
 2054      00
 2055 00b3 E95E0300 		jmp	.L139
 2055      00
 2056              	.L138:
 2057 00b8 4189D6   		movl	%edx, %r14d
 2058 00bb 89542408 		movl	%edx, 8(%rsp)
 2059 00bf 4989F4   		movq	%rsi, %r12
 681:/home/baikal/workspace/C50/Huawei_IoT_Agent_Tiny_SDK_Linux//lwm2m/core/er-coap-13/er-coap-13.c ****     }
 682:/home/baikal/workspace/C50/Huawei_IoT_Agent_Tiny_SDK_Linux//lwm2m/core/er-coap-13/er-coap-13.c **** 
 683:/home/baikal/workspace/C50/Huawei_IoT_Agent_Tiny_SDK_Linux//lwm2m/core/er-coap-13/er-coap-13.c ****     current_option = data + COAP_HEADER_LEN;
 2060              		.loc 1 683 0
 2061 00c2 488D5E04 		leaq	4(%rsi), %rbx
 2062              	.LVL289:
 684:/home/baikal/workspace/C50/Huawei_IoT_Agent_Tiny_SDK_Linux//lwm2m/core/er-coap-13/er-coap-13.c **** 
 685:/home/baikal/workspace/C50/Huawei_IoT_Agent_Tiny_SDK_Linux//lwm2m/core/er-coap-13/er-coap-13.c ****     if (coap_pkt->token_len != 0)
 2063              		.loc 1 685 0
 2064 00c6 84C0     		testb	%al, %al
 2065 00c8 7416     		je	.L140
 686:/home/baikal/workspace/C50/Huawei_IoT_Agent_Tiny_SDK_Linux//lwm2m/core/er-coap-13/er-coap-13.c ****     {
 687:/home/baikal/workspace/C50/Huawei_IoT_Agent_Tiny_SDK_Linux//lwm2m/core/er-coap-13/er-coap-13.c ****         memcpy(coap_pkt->token, current_option, coap_pkt->token_len);
 2066              		.loc 1 687 0
 2067 00ca 0FB6D0   		movzbl	%al, %edx
GAS LISTING /tmp/ccSAldBr.s 			page 55


 2068              	.LVL290:
 2069 00cd 488DBD85 		leaq	133(%rbp), %rdi
 2069      000000
 2070              	.LVL291:
 2071              	.LBB69:
 2072              	.LBB70:
  53:/usr/include/x86_64-linux-gnu/bits/string3.h **** }
 2073              		.loc 2 53 0
 2074 00d4 4889DE   		movq	%rbx, %rsi
 2075              	.LVL292:
 2076 00d7 E8000000 		call	memcpy
 2076      00
 2077              	.LVL293:
 2078              	.LBE70:
 2079              	.LBE69:
 688:/home/baikal/workspace/C50/Huawei_IoT_Agent_Tiny_SDK_Linux//lwm2m/core/er-coap-13/er-coap-13.c ****         SET_OPTION(coap_pkt, COAP_OPTION_TOKEN);
 2080              		.loc 1 688 0
 2081 00dc 804D1608 		orb	$8, 22(%rbp)
 2082              	.L140:
 689:/home/baikal/workspace/C50/Huawei_IoT_Agent_Tiny_SDK_Linux//lwm2m/core/er-coap-13/er-coap-13.c **** 
 690:/home/baikal/workspace/C50/Huawei_IoT_Agent_Tiny_SDK_Linux//lwm2m/core/er-coap-13/er-coap-13.c ****         PRINTF("Token (len %u) [0x%02X%02X%02X%02X%02X%02X%02X%02X]\n", coap_pkt->token_len,
 691:/home/baikal/workspace/C50/Huawei_IoT_Agent_Tiny_SDK_Linux//lwm2m/core/er-coap-13/er-coap-13.c ****                coap_pkt->token[0],
 692:/home/baikal/workspace/C50/Huawei_IoT_Agent_Tiny_SDK_Linux//lwm2m/core/er-coap-13/er-coap-13.c ****                coap_pkt->token[1],
 693:/home/baikal/workspace/C50/Huawei_IoT_Agent_Tiny_SDK_Linux//lwm2m/core/er-coap-13/er-coap-13.c ****                coap_pkt->token[2],
 694:/home/baikal/workspace/C50/Huawei_IoT_Agent_Tiny_SDK_Linux//lwm2m/core/er-coap-13/er-coap-13.c ****                coap_pkt->token[3],
 695:/home/baikal/workspace/C50/Huawei_IoT_Agent_Tiny_SDK_Linux//lwm2m/core/er-coap-13/er-coap-13.c ****                coap_pkt->token[4],
 696:/home/baikal/workspace/C50/Huawei_IoT_Agent_Tiny_SDK_Linux//lwm2m/core/er-coap-13/er-coap-13.c ****                coap_pkt->token[5],
 697:/home/baikal/workspace/C50/Huawei_IoT_Agent_Tiny_SDK_Linux//lwm2m/core/er-coap-13/er-coap-13.c ****                coap_pkt->token[6],
 698:/home/baikal/workspace/C50/Huawei_IoT_Agent_Tiny_SDK_Linux//lwm2m/core/er-coap-13/er-coap-13.c ****                coap_pkt->token[7]
 699:/home/baikal/workspace/C50/Huawei_IoT_Agent_Tiny_SDK_Linux//lwm2m/core/er-coap-13/er-coap-13.c ****               ); /*FIXME always prints 8 bytes */
 700:/home/baikal/workspace/C50/Huawei_IoT_Agent_Tiny_SDK_Linux//lwm2m/core/er-coap-13/er-coap-13.c ****     }
 701:/home/baikal/workspace/C50/Huawei_IoT_Agent_Tiny_SDK_Linux//lwm2m/core/er-coap-13/er-coap-13.c **** 
 702:/home/baikal/workspace/C50/Huawei_IoT_Agent_Tiny_SDK_Linux//lwm2m/core/er-coap-13/er-coap-13.c ****     /* parse options */
 703:/home/baikal/workspace/C50/Huawei_IoT_Agent_Tiny_SDK_Linux//lwm2m/core/er-coap-13/er-coap-13.c ****     current_option += coap_pkt->token_len;
 2083              		.loc 1 703 0
 2084 00e0 0FB68584 		movzbl	132(%rbp), %eax
 2084      000000
 2085 00e7 4801C3   		addq	%rax, %rbx
 2086              	.LVL294:
 659:/home/baikal/workspace/C50/Huawei_IoT_Agent_Tiny_SDK_Linux//lwm2m/core/er-coap-13/er-coap-13.c ****     unsigned int option_delta = 0;
 2087              		.loc 1 659 0
 2088 00ea 41BD0000 		movl	$0, %r13d
 2088      0000
 704:/home/baikal/workspace/C50/Huawei_IoT_Agent_Tiny_SDK_Linux//lwm2m/core/er-coap-13/er-coap-13.c **** 
 705:/home/baikal/workspace/C50/Huawei_IoT_Agent_Tiny_SDK_Linux//lwm2m/core/er-coap-13/er-coap-13.c ****     while (current_option < data + data_len)
 2089              		.loc 1 705 0
 2090 00f0 E9050300 		jmp	.L141
 2090      00
 2091              	.LVL295:
 2092              	.L169:
 706:/home/baikal/workspace/C50/Huawei_IoT_Agent_Tiny_SDK_Linux//lwm2m/core/er-coap-13/er-coap-13.c ****     {
 707:/home/baikal/workspace/C50/Huawei_IoT_Agent_Tiny_SDK_Linux//lwm2m/core/er-coap-13/er-coap-13.c ****         /* Payload marker 0xFF, currently only checking for 0xF* because rest is reserved */
 708:/home/baikal/workspace/C50/Huawei_IoT_Agent_Tiny_SDK_Linux//lwm2m/core/er-coap-13/er-coap-13.c ****         if ((current_option[0] & 0xF0) == 0xF0)
 2093              		.loc 1 708 0
 2094 00f5 0FB603   		movzbl	(%rbx), %eax
 2095 00f8 89C2     		movl	%eax, %edx
 2096 00fa 83E2F0   		andl	$-16, %edx
GAS LISTING /tmp/ccSAldBr.s 			page 56


 2097 00fd 80FAF0   		cmpb	$-16, %dl
 2098 0100 7526     		jne	.L142
 709:/home/baikal/workspace/C50/Huawei_IoT_Agent_Tiny_SDK_Linux//lwm2m/core/er-coap-13/er-coap-13.c ****         {
 710:/home/baikal/workspace/C50/Huawei_IoT_Agent_Tiny_SDK_Linux//lwm2m/core/er-coap-13/er-coap-13.c ****             coap_pkt->payload = ++current_option;
 2099              		.loc 1 710 0
 2100 0102 4883C301 		addq	$1, %rbx
 2101              	.LVL296:
 2102 0106 48899DC8 		movq	%rbx, 200(%rbp)
 2102      000000
 711:/home/baikal/workspace/C50/Huawei_IoT_Agent_Tiny_SDK_Linux//lwm2m/core/er-coap-13/er-coap-13.c ****             coap_pkt->payload_len = data_len - (coap_pkt->payload - data);
 2103              		.loc 1 711 0
 2104 010d 4C29E3   		subq	%r12, %rbx
 2105              	.LVL297:
 2106 0110 0FB74424 		movzwl	8(%rsp), %eax
 2106      08
 2107 0115 29D8     		subl	%ebx, %eax
 2108 0117 668985C2 		movw	%ax, 194(%rbp)
 2108      000000
 712:/home/baikal/workspace/C50/Huawei_IoT_Agent_Tiny_SDK_Linux//lwm2m/core/er-coap-13/er-coap-13.c **** 
 713:/home/baikal/workspace/C50/Huawei_IoT_Agent_Tiny_SDK_Linux//lwm2m/core/er-coap-13/er-coap-13.c ****             break;
 714:/home/baikal/workspace/C50/Huawei_IoT_Agent_Tiny_SDK_Linux//lwm2m/core/er-coap-13/er-coap-13.c ****         }
 715:/home/baikal/workspace/C50/Huawei_IoT_Agent_Tiny_SDK_Linux//lwm2m/core/er-coap-13/er-coap-13.c **** 
 716:/home/baikal/workspace/C50/Huawei_IoT_Agent_Tiny_SDK_Linux//lwm2m/core/er-coap-13/er-coap-13.c ****         option_delta = current_option[0] >> 4;
 717:/home/baikal/workspace/C50/Huawei_IoT_Agent_Tiny_SDK_Linux//lwm2m/core/er-coap-13/er-coap-13.c ****         option_length = current_option[0] & 0x0F;
 718:/home/baikal/workspace/C50/Huawei_IoT_Agent_Tiny_SDK_Linux//lwm2m/core/er-coap-13/er-coap-13.c ****         ++current_option;
 719:/home/baikal/workspace/C50/Huawei_IoT_Agent_Tiny_SDK_Linux//lwm2m/core/er-coap-13/er-coap-13.c **** 
 720:/home/baikal/workspace/C50/Huawei_IoT_Agent_Tiny_SDK_Linux//lwm2m/core/er-coap-13/er-coap-13.c ****         /* avoids code duplication without function overhead */
 721:/home/baikal/workspace/C50/Huawei_IoT_Agent_Tiny_SDK_Linux//lwm2m/core/er-coap-13/er-coap-13.c ****         x = &option_delta;
 722:/home/baikal/workspace/C50/Huawei_IoT_Agent_Tiny_SDK_Linux//lwm2m/core/er-coap-13/er-coap-13.c ****         do
 723:/home/baikal/workspace/C50/Huawei_IoT_Agent_Tiny_SDK_Linux//lwm2m/core/er-coap-13/er-coap-13.c ****         {
 724:/home/baikal/workspace/C50/Huawei_IoT_Agent_Tiny_SDK_Linux//lwm2m/core/er-coap-13/er-coap-13.c ****             if (*x == 13)
 725:/home/baikal/workspace/C50/Huawei_IoT_Agent_Tiny_SDK_Linux//lwm2m/core/er-coap-13/er-coap-13.c ****             {
 726:/home/baikal/workspace/C50/Huawei_IoT_Agent_Tiny_SDK_Linux//lwm2m/core/er-coap-13/er-coap-13.c ****                 *x += current_option[0];
 727:/home/baikal/workspace/C50/Huawei_IoT_Agent_Tiny_SDK_Linux//lwm2m/core/er-coap-13/er-coap-13.c ****                 ++current_option;
 728:/home/baikal/workspace/C50/Huawei_IoT_Agent_Tiny_SDK_Linux//lwm2m/core/er-coap-13/er-coap-13.c ****             }
 729:/home/baikal/workspace/C50/Huawei_IoT_Agent_Tiny_SDK_Linux//lwm2m/core/er-coap-13/er-coap-13.c ****             else if (*x == 14)
 730:/home/baikal/workspace/C50/Huawei_IoT_Agent_Tiny_SDK_Linux//lwm2m/core/er-coap-13/er-coap-13.c ****             {
 731:/home/baikal/workspace/C50/Huawei_IoT_Agent_Tiny_SDK_Linux//lwm2m/core/er-coap-13/er-coap-13.c ****                 *x += 255;
 732:/home/baikal/workspace/C50/Huawei_IoT_Agent_Tiny_SDK_Linux//lwm2m/core/er-coap-13/er-coap-13.c ****                 *x += current_option[0] << 8;
 733:/home/baikal/workspace/C50/Huawei_IoT_Agent_Tiny_SDK_Linux//lwm2m/core/er-coap-13/er-coap-13.c ****                 ++current_option;
 734:/home/baikal/workspace/C50/Huawei_IoT_Agent_Tiny_SDK_Linux//lwm2m/core/er-coap-13/er-coap-13.c ****                 *x += current_option[0];
 735:/home/baikal/workspace/C50/Huawei_IoT_Agent_Tiny_SDK_Linux//lwm2m/core/er-coap-13/er-coap-13.c ****                 ++current_option;
 736:/home/baikal/workspace/C50/Huawei_IoT_Agent_Tiny_SDK_Linux//lwm2m/core/er-coap-13/er-coap-13.c ****             }
 737:/home/baikal/workspace/C50/Huawei_IoT_Agent_Tiny_SDK_Linux//lwm2m/core/er-coap-13/er-coap-13.c ****         }
 738:/home/baikal/workspace/C50/Huawei_IoT_Agent_Tiny_SDK_Linux//lwm2m/core/er-coap-13/er-coap-13.c ****         while (x != (unsigned int *)&option_length && NULL != (x = (unsigned int *)&option_length))
 739:/home/baikal/workspace/C50/Huawei_IoT_Agent_Tiny_SDK_Linux//lwm2m/core/er-coap-13/er-coap-13.c **** 
 740:/home/baikal/workspace/C50/Huawei_IoT_Agent_Tiny_SDK_Linux//lwm2m/core/er-coap-13/er-coap-13.c ****         option_number += option_delta;
 741:/home/baikal/workspace/C50/Huawei_IoT_Agent_Tiny_SDK_Linux//lwm2m/core/er-coap-13/er-coap-13.c **** 
 742:/home/baikal/workspace/C50/Huawei_IoT_Agent_Tiny_SDK_Linux//lwm2m/core/er-coap-13/er-coap-13.c ****         if (current_option + option_length > data + data_len)
 743:/home/baikal/workspace/C50/Huawei_IoT_Agent_Tiny_SDK_Linux//lwm2m/core/er-coap-13/er-coap-13.c ****         {
 744:/home/baikal/workspace/C50/Huawei_IoT_Agent_Tiny_SDK_Linux//lwm2m/core/er-coap-13/er-coap-13.c ****             PRINTF("OPTION %u (delta %u, len %u) has invalid length.\n", option_number, option_delt
 745:/home/baikal/workspace/C50/Huawei_IoT_Agent_Tiny_SDK_Linux//lwm2m/core/er-coap-13/er-coap-13.c ****             return BAD_REQUEST_4_00;
 746:/home/baikal/workspace/C50/Huawei_IoT_Agent_Tiny_SDK_Linux//lwm2m/core/er-coap-13/er-coap-13.c ****         }
 747:/home/baikal/workspace/C50/Huawei_IoT_Agent_Tiny_SDK_Linux//lwm2m/core/er-coap-13/er-coap-13.c ****         else
 748:/home/baikal/workspace/C50/Huawei_IoT_Agent_Tiny_SDK_Linux//lwm2m/core/er-coap-13/er-coap-13.c ****         {
 749:/home/baikal/workspace/C50/Huawei_IoT_Agent_Tiny_SDK_Linux//lwm2m/core/er-coap-13/er-coap-13.c ****             PRINTF("OPTION %u (delta %u, len %u): ", option_number, option_delta, option_length);
 750:/home/baikal/workspace/C50/Huawei_IoT_Agent_Tiny_SDK_Linux//lwm2m/core/er-coap-13/er-coap-13.c ****         }
GAS LISTING /tmp/ccSAldBr.s 			page 57


 751:/home/baikal/workspace/C50/Huawei_IoT_Agent_Tiny_SDK_Linux//lwm2m/core/er-coap-13/er-coap-13.c **** 
 752:/home/baikal/workspace/C50/Huawei_IoT_Agent_Tiny_SDK_Linux//lwm2m/core/er-coap-13/er-coap-13.c ****         SET_OPTION(coap_pkt, option_number);
 753:/home/baikal/workspace/C50/Huawei_IoT_Agent_Tiny_SDK_Linux//lwm2m/core/er-coap-13/er-coap-13.c **** 
 754:/home/baikal/workspace/C50/Huawei_IoT_Agent_Tiny_SDK_Linux//lwm2m/core/er-coap-13/er-coap-13.c ****         switch (option_number)
 755:/home/baikal/workspace/C50/Huawei_IoT_Agent_Tiny_SDK_Linux//lwm2m/core/er-coap-13/er-coap-13.c ****         {
 756:/home/baikal/workspace/C50/Huawei_IoT_Agent_Tiny_SDK_Linux//lwm2m/core/er-coap-13/er-coap-13.c ****         case COAP_OPTION_CONTENT_TYPE:
 757:/home/baikal/workspace/C50/Huawei_IoT_Agent_Tiny_SDK_Linux//lwm2m/core/er-coap-13/er-coap-13.c ****             coap_pkt->content_type = (coap_content_type_t)coap_parse_int_option(current_option, opt
 758:/home/baikal/workspace/C50/Huawei_IoT_Agent_Tiny_SDK_Linux//lwm2m/core/er-coap-13/er-coap-13.c ****             PRINTF("Content-Format [%u]\n", coap_pkt->content_type);
 759:/home/baikal/workspace/C50/Huawei_IoT_Agent_Tiny_SDK_Linux//lwm2m/core/er-coap-13/er-coap-13.c ****             break;
 760:/home/baikal/workspace/C50/Huawei_IoT_Agent_Tiny_SDK_Linux//lwm2m/core/er-coap-13/er-coap-13.c ****         case COAP_OPTION_MAX_AGE:
 761:/home/baikal/workspace/C50/Huawei_IoT_Agent_Tiny_SDK_Linux//lwm2m/core/er-coap-13/er-coap-13.c ****             coap_pkt->max_age = coap_parse_int_option(current_option, option_length);
 762:/home/baikal/workspace/C50/Huawei_IoT_Agent_Tiny_SDK_Linux//lwm2m/core/er-coap-13/er-coap-13.c ****             PRINTF("Max-Age [%lu]\n", coap_pkt->max_age);
 763:/home/baikal/workspace/C50/Huawei_IoT_Agent_Tiny_SDK_Linux//lwm2m/core/er-coap-13/er-coap-13.c ****             break;
 764:/home/baikal/workspace/C50/Huawei_IoT_Agent_Tiny_SDK_Linux//lwm2m/core/er-coap-13/er-coap-13.c ****         case COAP_OPTION_ETAG:
 765:/home/baikal/workspace/C50/Huawei_IoT_Agent_Tiny_SDK_Linux//lwm2m/core/er-coap-13/er-coap-13.c ****             coap_pkt->etag_len = (uint8_t)(MIN(COAP_ETAG_LEN, option_length));
 766:/home/baikal/workspace/C50/Huawei_IoT_Agent_Tiny_SDK_Linux//lwm2m/core/er-coap-13/er-coap-13.c ****             memcpy(coap_pkt->etag, current_option, coap_pkt->etag_len);
 767:/home/baikal/workspace/C50/Huawei_IoT_Agent_Tiny_SDK_Linux//lwm2m/core/er-coap-13/er-coap-13.c ****             PRINTF("ETag %u [0x%02X%02X%02X%02X%02X%02X%02X%02X]\n", coap_pkt->etag_len,
 768:/home/baikal/workspace/C50/Huawei_IoT_Agent_Tiny_SDK_Linux//lwm2m/core/er-coap-13/er-coap-13.c ****                    coap_pkt->etag[0],
 769:/home/baikal/workspace/C50/Huawei_IoT_Agent_Tiny_SDK_Linux//lwm2m/core/er-coap-13/er-coap-13.c ****                    coap_pkt->etag[1],
 770:/home/baikal/workspace/C50/Huawei_IoT_Agent_Tiny_SDK_Linux//lwm2m/core/er-coap-13/er-coap-13.c ****                    coap_pkt->etag[2],
 771:/home/baikal/workspace/C50/Huawei_IoT_Agent_Tiny_SDK_Linux//lwm2m/core/er-coap-13/er-coap-13.c ****                    coap_pkt->etag[3],
 772:/home/baikal/workspace/C50/Huawei_IoT_Agent_Tiny_SDK_Linux//lwm2m/core/er-coap-13/er-coap-13.c ****                    coap_pkt->etag[4],
 773:/home/baikal/workspace/C50/Huawei_IoT_Agent_Tiny_SDK_Linux//lwm2m/core/er-coap-13/er-coap-13.c ****                    coap_pkt->etag[5],
 774:/home/baikal/workspace/C50/Huawei_IoT_Agent_Tiny_SDK_Linux//lwm2m/core/er-coap-13/er-coap-13.c ****                    coap_pkt->etag[6],
 775:/home/baikal/workspace/C50/Huawei_IoT_Agent_Tiny_SDK_Linux//lwm2m/core/er-coap-13/er-coap-13.c ****                    coap_pkt->etag[7]
 776:/home/baikal/workspace/C50/Huawei_IoT_Agent_Tiny_SDK_Linux//lwm2m/core/er-coap-13/er-coap-13.c ****                   ); /*FIXME always prints 8 bytes */
 777:/home/baikal/workspace/C50/Huawei_IoT_Agent_Tiny_SDK_Linux//lwm2m/core/er-coap-13/er-coap-13.c ****             break;
 778:/home/baikal/workspace/C50/Huawei_IoT_Agent_Tiny_SDK_Linux//lwm2m/core/er-coap-13/er-coap-13.c ****         case COAP_OPTION_ACCEPT:
 779:/home/baikal/workspace/C50/Huawei_IoT_Agent_Tiny_SDK_Linux//lwm2m/core/er-coap-13/er-coap-13.c ****             if (coap_pkt->accept_num < COAP_MAX_ACCEPT_NUM)
 780:/home/baikal/workspace/C50/Huawei_IoT_Agent_Tiny_SDK_Linux//lwm2m/core/er-coap-13/er-coap-13.c ****             {
 781:/home/baikal/workspace/C50/Huawei_IoT_Agent_Tiny_SDK_Linux//lwm2m/core/er-coap-13/er-coap-13.c ****                 coap_pkt->accept[coap_pkt->accept_num] = coap_parse_int_option(current_option, opti
 782:/home/baikal/workspace/C50/Huawei_IoT_Agent_Tiny_SDK_Linux//lwm2m/core/er-coap-13/er-coap-13.c ****                 coap_pkt->accept_num += 1;
 783:/home/baikal/workspace/C50/Huawei_IoT_Agent_Tiny_SDK_Linux//lwm2m/core/er-coap-13/er-coap-13.c ****                 PRINTF("Accept [%u]\n", coap_pkt->content_type);
 784:/home/baikal/workspace/C50/Huawei_IoT_Agent_Tiny_SDK_Linux//lwm2m/core/er-coap-13/er-coap-13.c ****             }
 785:/home/baikal/workspace/C50/Huawei_IoT_Agent_Tiny_SDK_Linux//lwm2m/core/er-coap-13/er-coap-13.c ****             break;
 786:/home/baikal/workspace/C50/Huawei_IoT_Agent_Tiny_SDK_Linux//lwm2m/core/er-coap-13/er-coap-13.c ****         case COAP_OPTION_IF_MATCH:
 787:/home/baikal/workspace/C50/Huawei_IoT_Agent_Tiny_SDK_Linux//lwm2m/core/er-coap-13/er-coap-13.c ****             /*FIXME support multiple ETags */
 788:/home/baikal/workspace/C50/Huawei_IoT_Agent_Tiny_SDK_Linux//lwm2m/core/er-coap-13/er-coap-13.c ****             coap_pkt->if_match_len = (uint8_t)(MIN(COAP_ETAG_LEN, option_length));
 789:/home/baikal/workspace/C50/Huawei_IoT_Agent_Tiny_SDK_Linux//lwm2m/core/er-coap-13/er-coap-13.c ****             memcpy(coap_pkt->if_match, current_option, coap_pkt->if_match_len);
 790:/home/baikal/workspace/C50/Huawei_IoT_Agent_Tiny_SDK_Linux//lwm2m/core/er-coap-13/er-coap-13.c ****             PRINTF("If-Match %u [0x%02X%02X%02X%02X%02X%02X%02X%02X]\n", coap_pkt->if_match_len,
 791:/home/baikal/workspace/C50/Huawei_IoT_Agent_Tiny_SDK_Linux//lwm2m/core/er-coap-13/er-coap-13.c ****                    coap_pkt->if_match[0],
 792:/home/baikal/workspace/C50/Huawei_IoT_Agent_Tiny_SDK_Linux//lwm2m/core/er-coap-13/er-coap-13.c ****                    coap_pkt->if_match[1],
 793:/home/baikal/workspace/C50/Huawei_IoT_Agent_Tiny_SDK_Linux//lwm2m/core/er-coap-13/er-coap-13.c ****                    coap_pkt->if_match[2],
 794:/home/baikal/workspace/C50/Huawei_IoT_Agent_Tiny_SDK_Linux//lwm2m/core/er-coap-13/er-coap-13.c ****                    coap_pkt->if_match[3],
 795:/home/baikal/workspace/C50/Huawei_IoT_Agent_Tiny_SDK_Linux//lwm2m/core/er-coap-13/er-coap-13.c ****                    coap_pkt->if_match[4],
 796:/home/baikal/workspace/C50/Huawei_IoT_Agent_Tiny_SDK_Linux//lwm2m/core/er-coap-13/er-coap-13.c ****                    coap_pkt->if_match[5],
 797:/home/baikal/workspace/C50/Huawei_IoT_Agent_Tiny_SDK_Linux//lwm2m/core/er-coap-13/er-coap-13.c ****                    coap_pkt->if_match[6],
 798:/home/baikal/workspace/C50/Huawei_IoT_Agent_Tiny_SDK_Linux//lwm2m/core/er-coap-13/er-coap-13.c ****                    coap_pkt->if_match[7]
 799:/home/baikal/workspace/C50/Huawei_IoT_Agent_Tiny_SDK_Linux//lwm2m/core/er-coap-13/er-coap-13.c ****                   ); /*FIXME always prints 8 bytes */
 800:/home/baikal/workspace/C50/Huawei_IoT_Agent_Tiny_SDK_Linux//lwm2m/core/er-coap-13/er-coap-13.c ****             break;
 801:/home/baikal/workspace/C50/Huawei_IoT_Agent_Tiny_SDK_Linux//lwm2m/core/er-coap-13/er-coap-13.c ****         case COAP_OPTION_IF_NONE_MATCH:
 802:/home/baikal/workspace/C50/Huawei_IoT_Agent_Tiny_SDK_Linux//lwm2m/core/er-coap-13/er-coap-13.c ****             coap_pkt->if_none_match = 1;
 803:/home/baikal/workspace/C50/Huawei_IoT_Agent_Tiny_SDK_Linux//lwm2m/core/er-coap-13/er-coap-13.c ****             PRINTF("If-None-Match\n");
 804:/home/baikal/workspace/C50/Huawei_IoT_Agent_Tiny_SDK_Linux//lwm2m/core/er-coap-13/er-coap-13.c ****             break;
 805:/home/baikal/workspace/C50/Huawei_IoT_Agent_Tiny_SDK_Linux//lwm2m/core/er-coap-13/er-coap-13.c **** 
 806:/home/baikal/workspace/C50/Huawei_IoT_Agent_Tiny_SDK_Linux//lwm2m/core/er-coap-13/er-coap-13.c ****         case COAP_OPTION_URI_HOST:
 807:/home/baikal/workspace/C50/Huawei_IoT_Agent_Tiny_SDK_Linux//lwm2m/core/er-coap-13/er-coap-13.c ****             coap_pkt->uri_host = current_option;
GAS LISTING /tmp/ccSAldBr.s 			page 58


 808:/home/baikal/workspace/C50/Huawei_IoT_Agent_Tiny_SDK_Linux//lwm2m/core/er-coap-13/er-coap-13.c ****             coap_pkt->uri_host_len = option_length;
 809:/home/baikal/workspace/C50/Huawei_IoT_Agent_Tiny_SDK_Linux//lwm2m/core/er-coap-13/er-coap-13.c ****             PRINTF("Uri-Host [%.*s]\n", coap_pkt->uri_host_len, coap_pkt->uri_host);
 810:/home/baikal/workspace/C50/Huawei_IoT_Agent_Tiny_SDK_Linux//lwm2m/core/er-coap-13/er-coap-13.c ****             break;
 811:/home/baikal/workspace/C50/Huawei_IoT_Agent_Tiny_SDK_Linux//lwm2m/core/er-coap-13/er-coap-13.c ****         case COAP_OPTION_URI_PORT:
 812:/home/baikal/workspace/C50/Huawei_IoT_Agent_Tiny_SDK_Linux//lwm2m/core/er-coap-13/er-coap-13.c ****             coap_pkt->uri_port = coap_parse_int_option(current_option, option_length);
 813:/home/baikal/workspace/C50/Huawei_IoT_Agent_Tiny_SDK_Linux//lwm2m/core/er-coap-13/er-coap-13.c ****             PRINTF("Uri-Port [%u]\n", coap_pkt->uri_port);
 814:/home/baikal/workspace/C50/Huawei_IoT_Agent_Tiny_SDK_Linux//lwm2m/core/er-coap-13/er-coap-13.c ****             break;
 815:/home/baikal/workspace/C50/Huawei_IoT_Agent_Tiny_SDK_Linux//lwm2m/core/er-coap-13/er-coap-13.c ****         case COAP_OPTION_URI_PATH:
 816:/home/baikal/workspace/C50/Huawei_IoT_Agent_Tiny_SDK_Linux//lwm2m/core/er-coap-13/er-coap-13.c ****             /* coap_merge_multi_option() operates in-place on the IPBUF, but final packet field sho
 817:/home/baikal/workspace/C50/Huawei_IoT_Agent_Tiny_SDK_Linux//lwm2m/core/er-coap-13/er-coap-13.c ****             // coap_merge_multi_option( (char **) &(coap_pkt->uri_path), &(coap_pkt->uri_path_len),
 818:/home/baikal/workspace/C50/Huawei_IoT_Agent_Tiny_SDK_Linux//lwm2m/core/er-coap-13/er-coap-13.c ****             coap_add_multi_option( &(coap_pkt->uri_path), current_option, option_length, 1);
 819:/home/baikal/workspace/C50/Huawei_IoT_Agent_Tiny_SDK_Linux//lwm2m/core/er-coap-13/er-coap-13.c ****             PRINTF("Uri-Path [%.*s]\n", option_length, current_option);
 820:/home/baikal/workspace/C50/Huawei_IoT_Agent_Tiny_SDK_Linux//lwm2m/core/er-coap-13/er-coap-13.c ****             break;
 821:/home/baikal/workspace/C50/Huawei_IoT_Agent_Tiny_SDK_Linux//lwm2m/core/er-coap-13/er-coap-13.c ****         case COAP_OPTION_URI_QUERY:
 822:/home/baikal/workspace/C50/Huawei_IoT_Agent_Tiny_SDK_Linux//lwm2m/core/er-coap-13/er-coap-13.c ****             /* coap_merge_multi_option() operates in-place on the IPBUF, but final packet field sho
 823:/home/baikal/workspace/C50/Huawei_IoT_Agent_Tiny_SDK_Linux//lwm2m/core/er-coap-13/er-coap-13.c ****             // coap_merge_multi_option( (char **) &(coap_pkt->uri_query), &(coap_pkt->uri_query_len
 824:/home/baikal/workspace/C50/Huawei_IoT_Agent_Tiny_SDK_Linux//lwm2m/core/er-coap-13/er-coap-13.c ****             coap_add_multi_option( &(coap_pkt->uri_query), current_option, option_length, 1);
 825:/home/baikal/workspace/C50/Huawei_IoT_Agent_Tiny_SDK_Linux//lwm2m/core/er-coap-13/er-coap-13.c ****             PRINTF("Uri-Query [%.*s]\n", option_length, current_option);
 826:/home/baikal/workspace/C50/Huawei_IoT_Agent_Tiny_SDK_Linux//lwm2m/core/er-coap-13/er-coap-13.c ****             break;
 827:/home/baikal/workspace/C50/Huawei_IoT_Agent_Tiny_SDK_Linux//lwm2m/core/er-coap-13/er-coap-13.c **** 
 828:/home/baikal/workspace/C50/Huawei_IoT_Agent_Tiny_SDK_Linux//lwm2m/core/er-coap-13/er-coap-13.c ****         case COAP_OPTION_LOCATION_PATH:
 829:/home/baikal/workspace/C50/Huawei_IoT_Agent_Tiny_SDK_Linux//lwm2m/core/er-coap-13/er-coap-13.c ****             coap_add_multi_option( &(coap_pkt->location_path), current_option, option_length, 1);
 830:/home/baikal/workspace/C50/Huawei_IoT_Agent_Tiny_SDK_Linux//lwm2m/core/er-coap-13/er-coap-13.c ****             break;
 831:/home/baikal/workspace/C50/Huawei_IoT_Agent_Tiny_SDK_Linux//lwm2m/core/er-coap-13/er-coap-13.c ****         case COAP_OPTION_LOCATION_QUERY:
 832:/home/baikal/workspace/C50/Huawei_IoT_Agent_Tiny_SDK_Linux//lwm2m/core/er-coap-13/er-coap-13.c ****             /* coap_merge_multi_option() operates in-place on the IPBUF, but final packet field sho
 833:/home/baikal/workspace/C50/Huawei_IoT_Agent_Tiny_SDK_Linux//lwm2m/core/er-coap-13/er-coap-13.c ****             coap_merge_multi_option( &(coap_pkt->location_query), &(coap_pkt->location_query_len), 
 834:/home/baikal/workspace/C50/Huawei_IoT_Agent_Tiny_SDK_Linux//lwm2m/core/er-coap-13/er-coap-13.c ****             PRINTF("Location-Query [%.*s]\n", option_length, current_option);
 835:/home/baikal/workspace/C50/Huawei_IoT_Agent_Tiny_SDK_Linux//lwm2m/core/er-coap-13/er-coap-13.c ****             break;
 836:/home/baikal/workspace/C50/Huawei_IoT_Agent_Tiny_SDK_Linux//lwm2m/core/er-coap-13/er-coap-13.c **** 
 837:/home/baikal/workspace/C50/Huawei_IoT_Agent_Tiny_SDK_Linux//lwm2m/core/er-coap-13/er-coap-13.c ****         case COAP_OPTION_PROXY_URI:
 838:/home/baikal/workspace/C50/Huawei_IoT_Agent_Tiny_SDK_Linux//lwm2m/core/er-coap-13/er-coap-13.c ****             /*FIXME check for own end-point */
 839:/home/baikal/workspace/C50/Huawei_IoT_Agent_Tiny_SDK_Linux//lwm2m/core/er-coap-13/er-coap-13.c ****             coap_pkt->proxy_uri = current_option;
 840:/home/baikal/workspace/C50/Huawei_IoT_Agent_Tiny_SDK_Linux//lwm2m/core/er-coap-13/er-coap-13.c ****             coap_pkt->proxy_uri_len = option_length;
 841:/home/baikal/workspace/C50/Huawei_IoT_Agent_Tiny_SDK_Linux//lwm2m/core/er-coap-13/er-coap-13.c ****             /*TODO length > 270 not implemented (actually not required) */
 842:/home/baikal/workspace/C50/Huawei_IoT_Agent_Tiny_SDK_Linux//lwm2m/core/er-coap-13/er-coap-13.c ****             PRINTF("Proxy-Uri NOT IMPLEMENTED [%.*s]\n", coap_pkt->proxy_uri_len, coap_pkt->proxy_u
 843:/home/baikal/workspace/C50/Huawei_IoT_Agent_Tiny_SDK_Linux//lwm2m/core/er-coap-13/er-coap-13.c ****             coap_error_message = "This is a constrained server (Contiki)";
 844:/home/baikal/workspace/C50/Huawei_IoT_Agent_Tiny_SDK_Linux//lwm2m/core/er-coap-13/er-coap-13.c ****             return PROXYING_NOT_SUPPORTED_5_05;
 845:/home/baikal/workspace/C50/Huawei_IoT_Agent_Tiny_SDK_Linux//lwm2m/core/er-coap-13/er-coap-13.c ****         //        break;
 846:/home/baikal/workspace/C50/Huawei_IoT_Agent_Tiny_SDK_Linux//lwm2m/core/er-coap-13/er-coap-13.c **** 
 847:/home/baikal/workspace/C50/Huawei_IoT_Agent_Tiny_SDK_Linux//lwm2m/core/er-coap-13/er-coap-13.c ****         case COAP_OPTION_OBSERVE:
 848:/home/baikal/workspace/C50/Huawei_IoT_Agent_Tiny_SDK_Linux//lwm2m/core/er-coap-13/er-coap-13.c ****             coap_pkt->observe = coap_parse_int_option(current_option, option_length);
 849:/home/baikal/workspace/C50/Huawei_IoT_Agent_Tiny_SDK_Linux//lwm2m/core/er-coap-13/er-coap-13.c ****             PRINTF("Observe [%lu]\n", coap_pkt->observe);
 850:/home/baikal/workspace/C50/Huawei_IoT_Agent_Tiny_SDK_Linux//lwm2m/core/er-coap-13/er-coap-13.c ****             break;
 851:/home/baikal/workspace/C50/Huawei_IoT_Agent_Tiny_SDK_Linux//lwm2m/core/er-coap-13/er-coap-13.c ****         case COAP_OPTION_BLOCK2:
 852:/home/baikal/workspace/C50/Huawei_IoT_Agent_Tiny_SDK_Linux//lwm2m/core/er-coap-13/er-coap-13.c ****             coap_pkt->block2_num = coap_parse_int_option(current_option, option_length);
 853:/home/baikal/workspace/C50/Huawei_IoT_Agent_Tiny_SDK_Linux//lwm2m/core/er-coap-13/er-coap-13.c ****             coap_pkt->block2_more = (coap_pkt->block2_num & 0x08) >> 3;
 854:/home/baikal/workspace/C50/Huawei_IoT_Agent_Tiny_SDK_Linux//lwm2m/core/er-coap-13/er-coap-13.c ****             coap_pkt->block2_size = 16 << (coap_pkt->block2_num & 0x07);
 855:/home/baikal/workspace/C50/Huawei_IoT_Agent_Tiny_SDK_Linux//lwm2m/core/er-coap-13/er-coap-13.c ****             coap_pkt->block2_offset = (coap_pkt->block2_num & ~0x0000000F) << (coap_pkt->block2_num
 856:/home/baikal/workspace/C50/Huawei_IoT_Agent_Tiny_SDK_Linux//lwm2m/core/er-coap-13/er-coap-13.c ****             coap_pkt->block2_num >>= 4;
 857:/home/baikal/workspace/C50/Huawei_IoT_Agent_Tiny_SDK_Linux//lwm2m/core/er-coap-13/er-coap-13.c ****             PRINTF("Block2 [%lu%s (%u B/blk)]\n", coap_pkt->block2_num, coap_pkt->block2_more ? "+"
 858:/home/baikal/workspace/C50/Huawei_IoT_Agent_Tiny_SDK_Linux//lwm2m/core/er-coap-13/er-coap-13.c ****             break;
 859:/home/baikal/workspace/C50/Huawei_IoT_Agent_Tiny_SDK_Linux//lwm2m/core/er-coap-13/er-coap-13.c ****         case COAP_OPTION_BLOCK1:
 860:/home/baikal/workspace/C50/Huawei_IoT_Agent_Tiny_SDK_Linux//lwm2m/core/er-coap-13/er-coap-13.c ****             coap_pkt->block1_num = coap_parse_int_option(current_option, option_length);
 861:/home/baikal/workspace/C50/Huawei_IoT_Agent_Tiny_SDK_Linux//lwm2m/core/er-coap-13/er-coap-13.c ****             coap_pkt->block1_more = (coap_pkt->block1_num & 0x08) >> 3;
 862:/home/baikal/workspace/C50/Huawei_IoT_Agent_Tiny_SDK_Linux//lwm2m/core/er-coap-13/er-coap-13.c ****             coap_pkt->block1_size = 16 << (coap_pkt->block1_num & 0x07);
 863:/home/baikal/workspace/C50/Huawei_IoT_Agent_Tiny_SDK_Linux//lwm2m/core/er-coap-13/er-coap-13.c ****             coap_pkt->block1_offset = (coap_pkt->block1_num & ~0x0000000F) << (coap_pkt->block1_num
 864:/home/baikal/workspace/C50/Huawei_IoT_Agent_Tiny_SDK_Linux//lwm2m/core/er-coap-13/er-coap-13.c ****             coap_pkt->block1_num >>= 4;
GAS LISTING /tmp/ccSAldBr.s 			page 59


 865:/home/baikal/workspace/C50/Huawei_IoT_Agent_Tiny_SDK_Linux//lwm2m/core/er-coap-13/er-coap-13.c ****             PRINTF("Block1 [%lu%s (%u B/blk)]\n", coap_pkt->block1_num, coap_pkt->block1_more ? "+"
 866:/home/baikal/workspace/C50/Huawei_IoT_Agent_Tiny_SDK_Linux//lwm2m/core/er-coap-13/er-coap-13.c ****             break;
 867:/home/baikal/workspace/C50/Huawei_IoT_Agent_Tiny_SDK_Linux//lwm2m/core/er-coap-13/er-coap-13.c ****         case COAP_OPTION_SIZE:
 868:/home/baikal/workspace/C50/Huawei_IoT_Agent_Tiny_SDK_Linux//lwm2m/core/er-coap-13/er-coap-13.c ****             coap_pkt->size = coap_parse_int_option(current_option, option_length);
 869:/home/baikal/workspace/C50/Huawei_IoT_Agent_Tiny_SDK_Linux//lwm2m/core/er-coap-13/er-coap-13.c ****             PRINTF("Size [%lu]\n", coap_pkt->size);
 870:/home/baikal/workspace/C50/Huawei_IoT_Agent_Tiny_SDK_Linux//lwm2m/core/er-coap-13/er-coap-13.c ****             break;
 871:/home/baikal/workspace/C50/Huawei_IoT_Agent_Tiny_SDK_Linux//lwm2m/core/er-coap-13/er-coap-13.c ****         default:
 872:/home/baikal/workspace/C50/Huawei_IoT_Agent_Tiny_SDK_Linux//lwm2m/core/er-coap-13/er-coap-13.c ****             PRINTF("unknown (%u)\n", option_number);
 873:/home/baikal/workspace/C50/Huawei_IoT_Agent_Tiny_SDK_Linux//lwm2m/core/er-coap-13/er-coap-13.c ****             /* Check if critical (odd) */
 874:/home/baikal/workspace/C50/Huawei_IoT_Agent_Tiny_SDK_Linux//lwm2m/core/er-coap-13/er-coap-13.c ****             if (option_number & 1)
 875:/home/baikal/workspace/C50/Huawei_IoT_Agent_Tiny_SDK_Linux//lwm2m/core/er-coap-13/er-coap-13.c ****             {
 876:/home/baikal/workspace/C50/Huawei_IoT_Agent_Tiny_SDK_Linux//lwm2m/core/er-coap-13/er-coap-13.c ****                 coap_error_message = "Unsupported critical option";
 877:/home/baikal/workspace/C50/Huawei_IoT_Agent_Tiny_SDK_Linux//lwm2m/core/er-coap-13/er-coap-13.c ****                 return BAD_OPTION_4_02;
 878:/home/baikal/workspace/C50/Huawei_IoT_Agent_Tiny_SDK_Linux//lwm2m/core/er-coap-13/er-coap-13.c ****             }
 879:/home/baikal/workspace/C50/Huawei_IoT_Agent_Tiny_SDK_Linux//lwm2m/core/er-coap-13/er-coap-13.c ****         }
 880:/home/baikal/workspace/C50/Huawei_IoT_Agent_Tiny_SDK_Linux//lwm2m/core/er-coap-13/er-coap-13.c **** 
 881:/home/baikal/workspace/C50/Huawei_IoT_Agent_Tiny_SDK_Linux//lwm2m/core/er-coap-13/er-coap-13.c ****         current_option += option_length;
 882:/home/baikal/workspace/C50/Huawei_IoT_Agent_Tiny_SDK_Linux//lwm2m/core/er-coap-13/er-coap-13.c ****     } /* for */
 883:/home/baikal/workspace/C50/Huawei_IoT_Agent_Tiny_SDK_Linux//lwm2m/core/er-coap-13/er-coap-13.c ****     PRINTF("-Done parsing-------\n");
 884:/home/baikal/workspace/C50/Huawei_IoT_Agent_Tiny_SDK_Linux//lwm2m/core/er-coap-13/er-coap-13.c **** 
 885:/home/baikal/workspace/C50/Huawei_IoT_Agent_Tiny_SDK_Linux//lwm2m/core/er-coap-13/er-coap-13.c **** 
 886:/home/baikal/workspace/C50/Huawei_IoT_Agent_Tiny_SDK_Linux//lwm2m/core/er-coap-13/er-coap-13.c **** 
 887:/home/baikal/workspace/C50/Huawei_IoT_Agent_Tiny_SDK_Linux//lwm2m/core/er-coap-13/er-coap-13.c ****     return NO_ERROR;
 2109              		.loc 1 887 0
 2110 011e B8000000 		movl	$0, %eax
 2110      00
 713:/home/baikal/workspace/C50/Huawei_IoT_Agent_Tiny_SDK_Linux//lwm2m/core/er-coap-13/er-coap-13.c ****         }
 2111              		.loc 1 713 0
 2112 0123 E9EE0200 		jmp	.L139
 2112      00
 2113              	.LVL298:
 2114              	.L142:
 716:/home/baikal/workspace/C50/Huawei_IoT_Agent_Tiny_SDK_Linux//lwm2m/core/er-coap-13/er-coap-13.c ****         option_length = current_option[0] & 0x0F;
 2115              		.loc 1 716 0
 2116 0128 C0E804   		shrb	$4, %al
 2117 012b 0FB6C0   		movzbl	%al, %eax
 2118 012e 8944241C 		movl	%eax, 28(%rsp)
 717:/home/baikal/workspace/C50/Huawei_IoT_Agent_Tiny_SDK_Linux//lwm2m/core/er-coap-13/er-coap-13.c ****         ++current_option;
 2119              		.loc 1 717 0
 2120 0132 0FB603   		movzbl	(%rbx), %eax
 2121 0135 83E00F   		andl	$15, %eax
 2122 0138 48894424 		movq	%rax, 16(%rsp)
 2122      10
 718:/home/baikal/workspace/C50/Huawei_IoT_Agent_Tiny_SDK_Linux//lwm2m/core/er-coap-13/er-coap-13.c **** 
 2123              		.loc 1 718 0
 2124 013d 4883C301 		addq	$1, %rbx
 2125              	.LVL299:
 721:/home/baikal/workspace/C50/Huawei_IoT_Agent_Tiny_SDK_Linux//lwm2m/core/er-coap-13/er-coap-13.c ****         do
 2126              		.loc 1 721 0
 2127 0141 488D4C24 		leaq	28(%rsp), %rcx
 2127      1C
 2128              	.LVL300:
 2129 0146 EB03     		jmp	.L145
 2130              	.L170:
 738:/home/baikal/workspace/C50/Huawei_IoT_Agent_Tiny_SDK_Linux//lwm2m/core/er-coap-13/er-coap-13.c **** 
 2131              		.loc 1 738 0
 2132 0148 4889C1   		movq	%rax, %rcx
GAS LISTING /tmp/ccSAldBr.s 			page 60


 2133              	.LVL301:
 2134              	.L145:
 724:/home/baikal/workspace/C50/Huawei_IoT_Agent_Tiny_SDK_Linux//lwm2m/core/er-coap-13/er-coap-13.c ****             {
 2135              		.loc 1 724 0
 2136 014b 8B01     		movl	(%rcx), %eax
 2137 014d 83F80D   		cmpl	$13, %eax
 2138 0150 750D     		jne	.L143
 726:/home/baikal/workspace/C50/Huawei_IoT_Agent_Tiny_SDK_Linux//lwm2m/core/er-coap-13/er-coap-13.c ****                 ++current_option;
 2139              		.loc 1 726 0
 2140 0152 0FB613   		movzbl	(%rbx), %edx
 2141 0155 01D0     		addl	%edx, %eax
 2142 0157 8901     		movl	%eax, (%rcx)
 727:/home/baikal/workspace/C50/Huawei_IoT_Agent_Tiny_SDK_Linux//lwm2m/core/er-coap-13/er-coap-13.c ****             }
 2143              		.loc 1 727 0
 2144 0159 4883C301 		addq	$1, %rbx
 2145              	.LVL302:
 2146 015d EB23     		jmp	.L144
 2147              	.L143:
 729:/home/baikal/workspace/C50/Huawei_IoT_Agent_Tiny_SDK_Linux//lwm2m/core/er-coap-13/er-coap-13.c ****             {
 2148              		.loc 1 729 0
 2149 015f 83F80E   		cmpl	$14, %eax
 2150 0162 751E     		jne	.L144
 731:/home/baikal/workspace/C50/Huawei_IoT_Agent_Tiny_SDK_Linux//lwm2m/core/er-coap-13/er-coap-13.c ****                 *x += current_option[0] << 8;
 2151              		.loc 1 731 0
 2152 0164 8D90FF00 		leal	255(%rax), %edx
 2152      0000
 2153 016a 8911     		movl	%edx, (%rcx)
 732:/home/baikal/workspace/C50/Huawei_IoT_Agent_Tiny_SDK_Linux//lwm2m/core/er-coap-13/er-coap-13.c ****                 ++current_option;
 2154              		.loc 1 732 0
 2155 016c 0FB603   		movzbl	(%rbx), %eax
 2156 016f C1E008   		sall	$8, %eax
 2157 0172 01D0     		addl	%edx, %eax
 2158 0174 8901     		movl	%eax, (%rcx)
 2159              	.LVL303:
 734:/home/baikal/workspace/C50/Huawei_IoT_Agent_Tiny_SDK_Linux//lwm2m/core/er-coap-13/er-coap-13.c ****                 ++current_option;
 2160              		.loc 1 734 0
 2161 0176 0FB65301 		movzbl	1(%rbx), %edx
 2162 017a 01D0     		addl	%edx, %eax
 2163 017c 8901     		movl	%eax, (%rcx)
 735:/home/baikal/workspace/C50/Huawei_IoT_Agent_Tiny_SDK_Linux//lwm2m/core/er-coap-13/er-coap-13.c ****             }
 2164              		.loc 1 735 0
 2165 017e 4883C302 		addq	$2, %rbx
 2166              	.LVL304:
 2167              	.L144:
 738:/home/baikal/workspace/C50/Huawei_IoT_Agent_Tiny_SDK_Linux//lwm2m/core/er-coap-13/er-coap-13.c **** 
 2168              		.loc 1 738 0
 2169 0182 488D4424 		leaq	16(%rsp), %rax
 2169      10
 2170 0187 4839C1   		cmpq	%rax, %rcx
 2171 018a 75BC     		jne	.L170
 740:/home/baikal/workspace/C50/Huawei_IoT_Agent_Tiny_SDK_Linux//lwm2m/core/er-coap-13/er-coap-13.c **** 
 2172              		.loc 1 740 0
 2173 018c 4489E8   		movl	%r13d, %eax
 2174 018f 0344241C 		addl	28(%rsp), %eax
 2175 0193 4189C5   		movl	%eax, %r13d
 2176              	.LVL305:
 742:/home/baikal/workspace/C50/Huawei_IoT_Agent_Tiny_SDK_Linux//lwm2m/core/er-coap-13/er-coap-13.c ****         {
GAS LISTING /tmp/ccSAldBr.s 			page 61


 2177              		.loc 1 742 0
 2178 0196 488B7424 		movq	16(%rsp), %rsi
 2178      10
 2179 019b 488D1433 		leaq	(%rbx,%rsi), %rdx
 2180 019f 4839D7   		cmpq	%rdx, %rdi
 2181 01a2 0F826902 		jb	.L171
 2181      0000
 752:/home/baikal/workspace/C50/Huawei_IoT_Agent_Tiny_SDK_Linux//lwm2m/core/er-coap-13/er-coap-13.c **** 
 2182              		.loc 1 752 0
 2183 01a8 83F828   		cmpl	$40, %eax
 2184 01ab 7718     		ja	.L146
 752:/home/baikal/workspace/C50/Huawei_IoT_Agent_Tiny_SDK_Linux//lwm2m/core/er-coap-13/er-coap-13.c **** 
 2185              		.loc 1 752 0 is_stmt 0 discriminator 1
 2186 01ad 89C2     		movl	%eax, %edx
 2187 01af C1EA03   		shrl	$3, %edx
 2188 01b2 89C1     		movl	%eax, %ecx
 2189              	.LVL306:
 2190 01b4 83E107   		andl	$7, %ecx
 2191 01b7 BF010000 		movl	$1, %edi
 2191      00
 2192 01bc D3E7     		sall	%cl, %edi
 2193 01be 89D2     		movl	%edx, %edx
 2194 01c0 40087C15 		orb	%dil, 20(%rbp,%rdx)
 2194      14
 2195              	.L146:
 754:/home/baikal/workspace/C50/Huawei_IoT_Agent_Tiny_SDK_Linux//lwm2m/core/er-coap-13/er-coap-13.c ****         {
 2196              		.loc 1 754 0 is_stmt 1
 2197 01c5 83F823   		cmpl	$35, %eax
 2198 01c8 0F871102 		ja	.L147
 2198      0000
 2199 01ce 89C2     		movl	%eax, %edx
 2200 01d0 FF24D500 		jmp	*.L149(,%rdx,8)
 2200      000000
 2201              		.section	.rodata.coap_parse_message,"a",@progbits
 2202              		.align 8
 2203              		.align 4
 2204              	.L149:
 2205 0000 00000000 		.quad	.L147
 2205      00000000 
 2206 0008 00000000 		.quad	.L148
 2206      00000000 
 2207 0010 00000000 		.quad	.L147
 2207      00000000 
 2208 0018 00000000 		.quad	.L150
 2208      00000000 
 2209 0020 00000000 		.quad	.L151
 2209      00000000 
 2210 0028 00000000 		.quad	.L152
 2210      00000000 
 2211 0030 00000000 		.quad	.L153
 2211      00000000 
 2212 0038 00000000 		.quad	.L154
 2212      00000000 
 2213 0040 00000000 		.quad	.L155
 2213      00000000 
 2214 0048 00000000 		.quad	.L147
 2214      00000000 
GAS LISTING /tmp/ccSAldBr.s 			page 62


 2215 0050 00000000 		.quad	.L147
 2215      00000000 
 2216 0058 00000000 		.quad	.L156
 2216      00000000 
 2217 0060 00000000 		.quad	.L157
 2217      00000000 
 2218 0068 00000000 		.quad	.L147
 2218      00000000 
 2219 0070 00000000 		.quad	.L158
 2219      00000000 
 2220 0078 00000000 		.quad	.L159
 2220      00000000 
 2221 0080 00000000 		.quad	.L147
 2221      00000000 
 2222 0088 00000000 		.quad	.L160
 2222      00000000 
 2223 0090 00000000 		.quad	.L147
 2223      00000000 
 2224 0098 00000000 		.quad	.L147
 2224      00000000 
 2225 00a0 00000000 		.quad	.L161
 2225      00000000 
 2226 00a8 00000000 		.quad	.L147
 2226      00000000 
 2227 00b0 00000000 		.quad	.L147
 2227      00000000 
 2228 00b8 00000000 		.quad	.L162
 2228      00000000 
 2229 00c0 00000000 		.quad	.L147
 2229      00000000 
 2230 00c8 00000000 		.quad	.L147
 2230      00000000 
 2231 00d0 00000000 		.quad	.L147
 2231      00000000 
 2232 00d8 00000000 		.quad	.L163
 2232      00000000 
 2233 00e0 00000000 		.quad	.L164
 2233      00000000 
 2234 00e8 00000000 		.quad	.L147
 2234      00000000 
 2235 00f0 00000000 		.quad	.L147
 2235      00000000 
 2236 00f8 00000000 		.quad	.L147
 2236      00000000 
 2237 0100 00000000 		.quad	.L147
 2237      00000000 
 2238 0108 00000000 		.quad	.L147
 2238      00000000 
 2239 0110 00000000 		.quad	.L147
 2239      00000000 
 2240 0118 00000000 		.quad	.L165
 2240      00000000 
 2241              		.section	.text.coap_parse_message
 2242              	.L157:
 757:/home/baikal/workspace/C50/Huawei_IoT_Agent_Tiny_SDK_Linux//lwm2m/core/er-coap-13/er-coap-13.c ****             PRINTF("Content-Format [%u]\n", coap_pkt->content_type);
 2243              		.loc 1 757 0
 2244 01d7 4889DF   		movq	%rbx, %rdi
GAS LISTING /tmp/ccSAldBr.s 			page 63


 2245 01da E8000000 		call	coap_parse_int_option
 2245      00
 2246              	.LVL307:
 2247 01df 89451C   		movl	%eax, 28(%rbp)
 759:/home/baikal/workspace/C50/Huawei_IoT_Agent_Tiny_SDK_Linux//lwm2m/core/er-coap-13/er-coap-13.c ****         case COAP_OPTION_MAX_AGE:
 2248              		.loc 1 759 0
 2249 01e2 E90E0200 		jmp	.L166
 2249      00
 2250              	.LVL308:
 2251              	.L158:
 761:/home/baikal/workspace/C50/Huawei_IoT_Agent_Tiny_SDK_Linux//lwm2m/core/er-coap-13/er-coap-13.c ****             PRINTF("Max-Age [%lu]\n", coap_pkt->max_age);
 2252              		.loc 1 761 0
 2253 01e7 4889DF   		movq	%rbx, %rdi
 2254 01ea E8000000 		call	coap_parse_int_option
 2254      00
 2255              	.LVL309:
 2256 01ef 894520   		movl	%eax, 32(%rbp)
 763:/home/baikal/workspace/C50/Huawei_IoT_Agent_Tiny_SDK_Linux//lwm2m/core/er-coap-13/er-coap-13.c ****         case COAP_OPTION_ETAG:
 2257              		.loc 1 763 0
 2258 01f2 E9FE0100 		jmp	.L166
 2258      00
 2259              	.LVL310:
 2260              	.L151:
 765:/home/baikal/workspace/C50/Huawei_IoT_Agent_Tiny_SDK_Linux//lwm2m/core/er-coap-13/er-coap-13.c ****             memcpy(coap_pkt->etag, current_option, coap_pkt->etag_len);
 2261              		.loc 1 765 0
 2262 01f7 4883FE08 		cmpq	$8, %rsi
 2263 01fb 7605     		jbe	.L167
 2264 01fd BE080000 		movl	$8, %esi
 2264      00
 2265              	.L167:
 765:/home/baikal/workspace/C50/Huawei_IoT_Agent_Tiny_SDK_Linux//lwm2m/core/er-coap-13/er-coap-13.c ****             memcpy(coap_pkt->etag, current_option, coap_pkt->etag_len);
 2266              		.loc 1 765 0 is_stmt 0 discriminator 4
 2267 0202 40887538 		movb	%sil, 56(%rbp)
 766:/home/baikal/workspace/C50/Huawei_IoT_Agent_Tiny_SDK_Linux//lwm2m/core/er-coap-13/er-coap-13.c ****             PRINTF("ETag %u [0x%02X%02X%02X%02X%02X%02X%02X%02X]\n", coap_pkt->etag_len,
 2268              		.loc 1 766 0 is_stmt 1 discriminator 4
 2269 0206 400FB6D6 		movzbl	%sil, %edx
 2270 020a 488D7D39 		leaq	57(%rbp), %rdi
 2271              	.LVL311:
 2272              	.LBB71:
 2273              	.LBB72:
  53:/usr/include/x86_64-linux-gnu/bits/string3.h **** }
 2274              		.loc 2 53 0 discriminator 4
 2275 020e 4889DE   		movq	%rbx, %rsi
 2276 0211 E8000000 		call	memcpy
 2276      00
 2277              	.LVL312:
 2278 0216 E9DA0100 		jmp	.L166
 2278      00
 2279              	.LVL313:
 2280              	.L160:
 2281              	.LBE72:
 2282              	.LBE71:
 779:/home/baikal/workspace/C50/Huawei_IoT_Agent_Tiny_SDK_Linux//lwm2m/core/er-coap-13/er-coap-13.c ****             {
 2283              		.loc 1 779 0
 2284 021b 440FB6BD 		movzbl	141(%rbp), %r15d
 2284      8D000000 
 2285 0223 4180FF01 		cmpb	$1, %r15b
GAS LISTING /tmp/ccSAldBr.s 			page 64


 2286 0227 0F87C801 		ja	.L166
 2286      0000
 781:/home/baikal/workspace/C50/Huawei_IoT_Agent_Tiny_SDK_Linux//lwm2m/core/er-coap-13/er-coap-13.c ****                 coap_pkt->accept_num += 1;
 2287              		.loc 1 781 0
 2288 022d 410FB6C7 		movzbl	%r15b, %eax
 2289              	.LVL314:
 2290 0231 8944240C 		movl	%eax, 12(%rsp)
 2291 0235 4889DF   		movq	%rbx, %rdi
 2292 0238 E8000000 		call	coap_parse_int_option
 2292      00
 2293              	.LVL315:
 2294 023d 48635424 		movslq	12(%rsp), %rdx
 2294      0C
 2295 0242 66898455 		movw	%ax, 142(%rbp,%rdx,2)
 2295      8E000000 
 782:/home/baikal/workspace/C50/Huawei_IoT_Agent_Tiny_SDK_Linux//lwm2m/core/er-coap-13/er-coap-13.c ****                 PRINTF("Accept [%u]\n", coap_pkt->content_type);
 2296              		.loc 1 782 0
 2297 024a 4183C701 		addl	$1, %r15d
 2298 024e 4488BD8D 		movb	%r15b, 141(%rbp)
 2298      000000
 2299 0255 E99B0100 		jmp	.L166
 2299      00
 2300              	.LVL316:
 2301              	.L148:
 788:/home/baikal/workspace/C50/Huawei_IoT_Agent_Tiny_SDK_Linux//lwm2m/core/er-coap-13/er-coap-13.c ****             memcpy(coap_pkt->if_match, current_option, coap_pkt->if_match_len);
 2302              		.loc 1 788 0
 2303 025a 4883FE08 		cmpq	$8, %rsi
 2304 025e 7605     		jbe	.L168
 2305 0260 BE080000 		movl	$8, %esi
 2305      00
 2306              	.L168:
 788:/home/baikal/workspace/C50/Huawei_IoT_Agent_Tiny_SDK_Linux//lwm2m/core/er-coap-13/er-coap-13.c ****             memcpy(coap_pkt->if_match, current_option, coap_pkt->if_match_len);
 2307              		.loc 1 788 0 is_stmt 0 discriminator 4
 2308 0265 4088B592 		movb	%sil, 146(%rbp)
 2308      000000
 789:/home/baikal/workspace/C50/Huawei_IoT_Agent_Tiny_SDK_Linux//lwm2m/core/er-coap-13/er-coap-13.c ****             PRINTF("If-Match %u [0x%02X%02X%02X%02X%02X%02X%02X%02X]\n", coap_pkt->if_match_len,
 2309              		.loc 1 789 0 is_stmt 1 discriminator 4
 2310 026c 400FB6D6 		movzbl	%sil, %edx
 2311 0270 488DBD93 		leaq	147(%rbp), %rdi
 2311      000000
 2312              	.LVL317:
 2313              	.LBB73:
 2314              	.LBB74:
  53:/usr/include/x86_64-linux-gnu/bits/string3.h **** }
 2315              		.loc 2 53 0 discriminator 4
 2316 0277 4889DE   		movq	%rbx, %rsi
 2317 027a E8000000 		call	memcpy
 2317      00
 2318              	.LVL318:
 2319 027f E9710100 		jmp	.L166
 2319      00
 2320              	.LVL319:
 2321              	.L152:
 2322              	.LBE74:
 2323              	.LBE73:
 802:/home/baikal/workspace/C50/Huawei_IoT_Agent_Tiny_SDK_Linux//lwm2m/core/er-coap-13/er-coap-13.c ****             PRINTF("If-None-Match\n");
 2324              		.loc 1 802 0
GAS LISTING /tmp/ccSAldBr.s 			page 65


 2325 0284 C685C000 		movb	$1, 192(%rbp)
 2325      000001
 804:/home/baikal/workspace/C50/Huawei_IoT_Agent_Tiny_SDK_Linux//lwm2m/core/er-coap-13/er-coap-13.c **** 
 2326              		.loc 1 804 0
 2327 028b E9650100 		jmp	.L166
 2327      00
 2328              	.L150:
 807:/home/baikal/workspace/C50/Huawei_IoT_Agent_Tiny_SDK_Linux//lwm2m/core/er-coap-13/er-coap-13.c ****             coap_pkt->uri_host_len = option_length;
 2329              		.loc 1 807 0
 2330 0290 48895D50 		movq	%rbx, 80(%rbp)
 808:/home/baikal/workspace/C50/Huawei_IoT_Agent_Tiny_SDK_Linux//lwm2m/core/er-coap-13/er-coap-13.c ****             PRINTF("Uri-Host [%.*s]\n", coap_pkt->uri_host_len, coap_pkt->uri_host);
 2331              		.loc 1 808 0
 2332 0294 48897548 		movq	%rsi, 72(%rbp)
 810:/home/baikal/workspace/C50/Huawei_IoT_Agent_Tiny_SDK_Linux//lwm2m/core/er-coap-13/er-coap-13.c ****         case COAP_OPTION_URI_PORT:
 2333              		.loc 1 810 0
 2334 0298 E9580100 		jmp	.L166
 2334      00
 2335              	.L154:
 812:/home/baikal/workspace/C50/Huawei_IoT_Agent_Tiny_SDK_Linux//lwm2m/core/er-coap-13/er-coap-13.c ****             PRINTF("Uri-Port [%u]\n", coap_pkt->uri_port);
 2336              		.loc 1 812 0
 2337 029d 4889DF   		movq	%rbx, %rdi
 2338 02a0 E8000000 		call	coap_parse_int_option
 2338      00
 2339              	.LVL320:
 2340 02a5 66894560 		movw	%ax, 96(%rbp)
 814:/home/baikal/workspace/C50/Huawei_IoT_Agent_Tiny_SDK_Linux//lwm2m/core/er-coap-13/er-coap-13.c ****         case COAP_OPTION_URI_PATH:
 2341              		.loc 1 814 0
 2342 02a9 E9470100 		jmp	.L166
 2342      00
 2343              	.LVL321:
 2344              	.L156:
 818:/home/baikal/workspace/C50/Huawei_IoT_Agent_Tiny_SDK_Linux//lwm2m/core/er-coap-13/er-coap-13.c ****             PRINTF("Uri-Path [%.*s]\n", option_length, current_option);
 2345              		.loc 1 818 0
 2346 02ae 488D7D78 		leaq	120(%rbp), %rdi
 2347 02b2 B9010000 		movl	$1, %ecx
 2347      00
 2348 02b7 4889F2   		movq	%rsi, %rdx
 2349 02ba 4889DE   		movq	%rbx, %rsi
 2350 02bd E8000000 		call	coap_add_multi_option
 2350      00
 2351              	.LVL322:
 820:/home/baikal/workspace/C50/Huawei_IoT_Agent_Tiny_SDK_Linux//lwm2m/core/er-coap-13/er-coap-13.c ****         case COAP_OPTION_URI_QUERY:
 2352              		.loc 1 820 0
 2353 02c2 E92E0100 		jmp	.L166
 2353      00
 2354              	.LVL323:
 2355              	.L159:
 824:/home/baikal/workspace/C50/Huawei_IoT_Agent_Tiny_SDK_Linux//lwm2m/core/er-coap-13/er-coap-13.c ****             PRINTF("Uri-Query [%.*s]\n", option_length, current_option);
 2356              		.loc 1 824 0
 2357 02c7 488DBDB8 		leaq	184(%rbp), %rdi
 2357      000000
 2358 02ce B9010000 		movl	$1, %ecx
 2358      00
 2359 02d3 4889F2   		movq	%rsi, %rdx
 2360 02d6 4889DE   		movq	%rbx, %rsi
 2361 02d9 E8000000 		call	coap_add_multi_option
 2361      00
GAS LISTING /tmp/ccSAldBr.s 			page 66


 2362              	.LVL324:
 826:/home/baikal/workspace/C50/Huawei_IoT_Agent_Tiny_SDK_Linux//lwm2m/core/er-coap-13/er-coap-13.c **** 
 2363              		.loc 1 826 0
 2364 02de E9120100 		jmp	.L166
 2364      00
 2365              	.LVL325:
 2366              	.L155:
 829:/home/baikal/workspace/C50/Huawei_IoT_Agent_Tiny_SDK_Linux//lwm2m/core/er-coap-13/er-coap-13.c ****             break;
 2367              		.loc 1 829 0
 2368 02e3 488D7D58 		leaq	88(%rbp), %rdi
 2369 02e7 B9010000 		movl	$1, %ecx
 2369      00
 2370 02ec 4889F2   		movq	%rsi, %rdx
 2371 02ef 4889DE   		movq	%rbx, %rsi
 2372 02f2 E8000000 		call	coap_add_multi_option
 2372      00
 2373              	.LVL326:
 830:/home/baikal/workspace/C50/Huawei_IoT_Agent_Tiny_SDK_Linux//lwm2m/core/er-coap-13/er-coap-13.c ****         case COAP_OPTION_LOCATION_QUERY:
 2374              		.loc 1 830 0
 2375 02f7 E9F90000 		jmp	.L166
 2375      00
 2376              	.LVL327:
 2377              	.L161:
 833:/home/baikal/workspace/C50/Huawei_IoT_Agent_Tiny_SDK_Linux//lwm2m/core/er-coap-13/er-coap-13.c ****             PRINTF("Location-Query [%.*s]\n", option_length, current_option);
 2378              		.loc 1 833 0
 2379 02fc 488D4568 		leaq	104(%rbp), %rax
 2380              	.LVL328:
 2381 0300 488D7D70 		leaq	112(%rbp), %rdi
 2382 0304 41B82600 		movl	$38, %r8d
 2382      0000
 2383 030a 4889F1   		movq	%rsi, %rcx
 2384 030d 4889DA   		movq	%rbx, %rdx
 2385 0310 4889C6   		movq	%rax, %rsi
 2386 0313 E8000000 		call	coap_merge_multi_option
 2386      00
 2387              	.LVL329:
 835:/home/baikal/workspace/C50/Huawei_IoT_Agent_Tiny_SDK_Linux//lwm2m/core/er-coap-13/er-coap-13.c **** 
 2388              		.loc 1 835 0
 2389 0318 E9D80000 		jmp	.L166
 2389      00
 2390              	.LVL330:
 2391              	.L165:
 839:/home/baikal/workspace/C50/Huawei_IoT_Agent_Tiny_SDK_Linux//lwm2m/core/er-coap-13/er-coap-13.c ****             coap_pkt->proxy_uri_len = option_length;
 2392              		.loc 1 839 0
 2393 031d 48895D30 		movq	%rbx, 48(%rbp)
 840:/home/baikal/workspace/C50/Huawei_IoT_Agent_Tiny_SDK_Linux//lwm2m/core/er-coap-13/er-coap-13.c ****             /*TODO length > 270 not implemented (actually not required) */
 2394              		.loc 1 840 0
 2395 0321 48897528 		movq	%rsi, 40(%rbp)
 843:/home/baikal/workspace/C50/Huawei_IoT_Agent_Tiny_SDK_Linux//lwm2m/core/er-coap-13/er-coap-13.c ****             return PROXYING_NOT_SUPPORTED_5_05;
 2396              		.loc 1 843 0
 2397 0325 48C70500 		movq	$.LC1, coap_error_message(%rip)
 2397      00000000 
 2397      000000
 844:/home/baikal/workspace/C50/Huawei_IoT_Agent_Tiny_SDK_Linux//lwm2m/core/er-coap-13/er-coap-13.c ****         //        break;
 2398              		.loc 1 844 0
 2399 0330 B8A50000 		movl	$165, %eax
 2399      00
GAS LISTING /tmp/ccSAldBr.s 			page 67


 2400              	.LVL331:
 2401 0335 E9DC0000 		jmp	.L139
 2401      00
 2402              	.LVL332:
 2403              	.L153:
 848:/home/baikal/workspace/C50/Huawei_IoT_Agent_Tiny_SDK_Linux//lwm2m/core/er-coap-13/er-coap-13.c ****             PRINTF("Observe [%lu]\n", coap_pkt->observe);
 2404              		.loc 1 848 0
 2405 033a 4889DF   		movq	%rbx, %rdi
 2406 033d E8000000 		call	coap_parse_int_option
 2406      00
 2407              	.LVL333:
 2408 0342 89858000 		movl	%eax, 128(%rbp)
 2408      0000
 850:/home/baikal/workspace/C50/Huawei_IoT_Agent_Tiny_SDK_Linux//lwm2m/core/er-coap-13/er-coap-13.c ****         case COAP_OPTION_BLOCK2:
 2409              		.loc 1 850 0
 2410 0348 E9A80000 		jmp	.L166
 2410      00
 2411              	.LVL334:
 2412              	.L162:
 852:/home/baikal/workspace/C50/Huawei_IoT_Agent_Tiny_SDK_Linux//lwm2m/core/er-coap-13/er-coap-13.c ****             coap_pkt->block2_more = (coap_pkt->block2_num & 0x08) >> 3;
 2413              		.loc 1 852 0
 2414 034d 4889DF   		movq	%rbx, %rdi
 2415 0350 E8000000 		call	coap_parse_int_option
 2415      00
 2416              	.LVL335:
 853:/home/baikal/workspace/C50/Huawei_IoT_Agent_Tiny_SDK_Linux//lwm2m/core/er-coap-13/er-coap-13.c ****             coap_pkt->block2_size = 16 << (coap_pkt->block2_num & 0x07);
 2417              		.loc 1 853 0
 2418 0355 89C2     		movl	%eax, %edx
 2419 0357 83E208   		andl	$8, %edx
 2420 035a C1EA03   		shrl	$3, %edx
 2421 035d 8895A000 		movb	%dl, 160(%rbp)
 2421      0000
 854:/home/baikal/workspace/C50/Huawei_IoT_Agent_Tiny_SDK_Linux//lwm2m/core/er-coap-13/er-coap-13.c ****             coap_pkt->block2_offset = (coap_pkt->block2_num & ~0x0000000F) << (coap_pkt->block2_num
 2422              		.loc 1 854 0
 2423 0363 89C1     		movl	%eax, %ecx
 2424 0365 83E107   		andl	$7, %ecx
 2425 0368 BA100000 		movl	$16, %edx
 2425      00
 2426 036d D3E2     		sall	%cl, %edx
 2427 036f 668995A2 		movw	%dx, 162(%rbp)
 2427      000000
 855:/home/baikal/workspace/C50/Huawei_IoT_Agent_Tiny_SDK_Linux//lwm2m/core/er-coap-13/er-coap-13.c ****             coap_pkt->block2_num >>= 4;
 2428              		.loc 1 855 0
 2429 0376 89C2     		movl	%eax, %edx
 2430 0378 83E2F0   		andl	$-16, %edx
 2431 037b D3E2     		sall	%cl, %edx
 2432 037d 8995A400 		movl	%edx, 164(%rbp)
 2432      0000
 856:/home/baikal/workspace/C50/Huawei_IoT_Agent_Tiny_SDK_Linux//lwm2m/core/er-coap-13/er-coap-13.c ****             PRINTF("Block2 [%lu%s (%u B/blk)]\n", coap_pkt->block2_num, coap_pkt->block2_more ? "+"
 2433              		.loc 1 856 0
 2434 0383 C1E804   		shrl	$4, %eax
 2435 0386 89859C00 		movl	%eax, 156(%rbp)
 2435      0000
 858:/home/baikal/workspace/C50/Huawei_IoT_Agent_Tiny_SDK_Linux//lwm2m/core/er-coap-13/er-coap-13.c ****         case COAP_OPTION_BLOCK1:
 2436              		.loc 1 858 0
 2437 038c EB67     		jmp	.L166
 2438              	.LVL336:
GAS LISTING /tmp/ccSAldBr.s 			page 68


 2439              	.L163:
 860:/home/baikal/workspace/C50/Huawei_IoT_Agent_Tiny_SDK_Linux//lwm2m/core/er-coap-13/er-coap-13.c ****             coap_pkt->block1_more = (coap_pkt->block1_num & 0x08) >> 3;
 2440              		.loc 1 860 0
 2441 038e 4889DF   		movq	%rbx, %rdi
 2442 0391 E8000000 		call	coap_parse_int_option
 2442      00
 2443              	.LVL337:
 861:/home/baikal/workspace/C50/Huawei_IoT_Agent_Tiny_SDK_Linux//lwm2m/core/er-coap-13/er-coap-13.c ****             coap_pkt->block1_size = 16 << (coap_pkt->block1_num & 0x07);
 2444              		.loc 1 861 0
 2445 0396 89C2     		movl	%eax, %edx
 2446 0398 83E208   		andl	$8, %edx
 2447 039b C1EA03   		shrl	$3, %edx
 2448 039e 8895AC00 		movb	%dl, 172(%rbp)
 2448      0000
 862:/home/baikal/workspace/C50/Huawei_IoT_Agent_Tiny_SDK_Linux//lwm2m/core/er-coap-13/er-coap-13.c ****             coap_pkt->block1_offset = (coap_pkt->block1_num & ~0x0000000F) << (coap_pkt->block1_num
 2449              		.loc 1 862 0
 2450 03a4 89C1     		movl	%eax, %ecx
 2451 03a6 83E107   		andl	$7, %ecx
 2452 03a9 BA100000 		movl	$16, %edx
 2452      00
 2453 03ae D3E2     		sall	%cl, %edx
 2454 03b0 668995AE 		movw	%dx, 174(%rbp)
 2454      000000
 863:/home/baikal/workspace/C50/Huawei_IoT_Agent_Tiny_SDK_Linux//lwm2m/core/er-coap-13/er-coap-13.c ****             coap_pkt->block1_num >>= 4;
 2455              		.loc 1 863 0
 2456 03b7 89C2     		movl	%eax, %edx
 2457 03b9 83E2F0   		andl	$-16, %edx
 2458 03bc D3E2     		sall	%cl, %edx
 2459 03be 8995B000 		movl	%edx, 176(%rbp)
 2459      0000
 864:/home/baikal/workspace/C50/Huawei_IoT_Agent_Tiny_SDK_Linux//lwm2m/core/er-coap-13/er-coap-13.c ****             PRINTF("Block1 [%lu%s (%u B/blk)]\n", coap_pkt->block1_num, coap_pkt->block1_more ? "+"
 2460              		.loc 1 864 0
 2461 03c4 C1E804   		shrl	$4, %eax
 2462 03c7 8985A800 		movl	%eax, 168(%rbp)
 2462      0000
 866:/home/baikal/workspace/C50/Huawei_IoT_Agent_Tiny_SDK_Linux//lwm2m/core/er-coap-13/er-coap-13.c ****         case COAP_OPTION_SIZE:
 2463              		.loc 1 866 0
 2464 03cd EB26     		jmp	.L166
 2465              	.LVL338:
 2466              	.L164:
 868:/home/baikal/workspace/C50/Huawei_IoT_Agent_Tiny_SDK_Linux//lwm2m/core/er-coap-13/er-coap-13.c ****             PRINTF("Size [%lu]\n", coap_pkt->size);
 2467              		.loc 1 868 0
 2468 03cf 4889DF   		movq	%rbx, %rdi
 2469 03d2 E8000000 		call	coap_parse_int_option
 2469      00
 2470              	.LVL339:
 2471 03d7 8985B400 		movl	%eax, 180(%rbp)
 2471      0000
 870:/home/baikal/workspace/C50/Huawei_IoT_Agent_Tiny_SDK_Linux//lwm2m/core/er-coap-13/er-coap-13.c ****         default:
 2472              		.loc 1 870 0
 2473 03dd EB16     		jmp	.L166
 2474              	.LVL340:
 2475              	.L147:
 874:/home/baikal/workspace/C50/Huawei_IoT_Agent_Tiny_SDK_Linux//lwm2m/core/er-coap-13/er-coap-13.c ****             {
 2476              		.loc 1 874 0
 2477 03df A801     		testb	$1, %al
 2478 03e1 7412     		je	.L166
GAS LISTING /tmp/ccSAldBr.s 			page 69


 876:/home/baikal/workspace/C50/Huawei_IoT_Agent_Tiny_SDK_Linux//lwm2m/core/er-coap-13/er-coap-13.c ****                 return BAD_OPTION_4_02;
 2479              		.loc 1 876 0
 2480 03e3 48C70500 		movq	$.LC2, coap_error_message(%rip)
 2480      00000000 
 2480      000000
 877:/home/baikal/workspace/C50/Huawei_IoT_Agent_Tiny_SDK_Linux//lwm2m/core/er-coap-13/er-coap-13.c ****             }
 2481              		.loc 1 877 0
 2482 03ee B8820000 		movl	$130, %eax
 2482      00
 2483              	.LVL341:
 2484 03f3 EB21     		jmp	.L139
 2485              	.L166:
 881:/home/baikal/workspace/C50/Huawei_IoT_Agent_Tiny_SDK_Linux//lwm2m/core/er-coap-13/er-coap-13.c ****     } /* for */
 2486              		.loc 1 881 0
 2487 03f5 48035C24 		addq	16(%rsp), %rbx
 2487      10
 2488              	.LVL342:
 2489              	.L141:
 705:/home/baikal/workspace/C50/Huawei_IoT_Agent_Tiny_SDK_Linux//lwm2m/core/er-coap-13/er-coap-13.c ****     {
 2490              		.loc 1 705 0
 2491 03fa 410FB7FE 		movzwl	%r14w, %edi
 2492 03fe 4C01E7   		addq	%r12, %rdi
 2493 0401 4839FB   		cmpq	%rdi, %rbx
 2494 0404 0F82EBFC 		jb	.L169
 2494      FFFF
 2495              		.loc 1 887 0
 2496 040a B8000000 		movl	$0, %eax
 2496      00
 2497 040f EB05     		jmp	.L139
 2498              	.LVL343:
 2499              	.L171:
 745:/home/baikal/workspace/C50/Huawei_IoT_Agent_Tiny_SDK_Linux//lwm2m/core/er-coap-13/er-coap-13.c ****         }
 2500              		.loc 1 745 0
 2501 0411 B8800000 		movl	$128, %eax
 2501      00
 2502              	.LVL344:
 2503              	.L139:
 888:/home/baikal/workspace/C50/Huawei_IoT_Agent_Tiny_SDK_Linux//lwm2m/core/er-coap-13/er-coap-13.c **** }
 2504              		.loc 1 888 0
 2505 0416 4883C428 		addq	$40, %rsp
 2506              	.LCFI105:
 2507              		.cfi_def_cfa_offset 56
 2508 041a 5B       		popq	%rbx
 2509              	.LCFI106:
 2510              		.cfi_def_cfa_offset 48
 2511 041b 5D       		popq	%rbp
 2512              	.LCFI107:
 2513              		.cfi_def_cfa_offset 40
 2514              	.LVL345:
 2515 041c 415C     		popq	%r12
 2516              	.LCFI108:
 2517              		.cfi_def_cfa_offset 32
 2518 041e 415D     		popq	%r13
 2519              	.LCFI109:
 2520              		.cfi_def_cfa_offset 24
 2521 0420 415E     		popq	%r14
 2522              	.LCFI110:
GAS LISTING /tmp/ccSAldBr.s 			page 70


 2523              		.cfi_def_cfa_offset 16
 2524 0422 415F     		popq	%r15
 2525              	.LCFI111:
 2526              		.cfi_def_cfa_offset 8
 2527 0424 C3       		ret
 2528              		.cfi_endproc
 2529              	.LFE80:
 2531              		.section	.text.coap_get_query_variable,"ax",@progbits
 2532              		.globl	coap_get_query_variable
 2534              	coap_get_query_variable:
 2535              	.LFB81:
 889:/home/baikal/workspace/C50/Huawei_IoT_Agent_Tiny_SDK_Linux//lwm2m/core/er-coap-13/er-coap-13.c **** /*-----------------------------------------------------------------------------------*/
 890:/home/baikal/workspace/C50/Huawei_IoT_Agent_Tiny_SDK_Linux//lwm2m/core/er-coap-13/er-coap-13.c **** /*- REST FRAMEWORK FUNCTIONS --------------------------------------------------------*/
 891:/home/baikal/workspace/C50/Huawei_IoT_Agent_Tiny_SDK_Linux//lwm2m/core/er-coap-13/er-coap-13.c **** /*-----------------------------------------------------------------------------------*/
 892:/home/baikal/workspace/C50/Huawei_IoT_Agent_Tiny_SDK_Linux//lwm2m/core/er-coap-13/er-coap-13.c **** int
 893:/home/baikal/workspace/C50/Huawei_IoT_Agent_Tiny_SDK_Linux//lwm2m/core/er-coap-13/er-coap-13.c **** coap_get_query_variable(void *packet, const char *name, const char **output)
 894:/home/baikal/workspace/C50/Huawei_IoT_Agent_Tiny_SDK_Linux//lwm2m/core/er-coap-13/er-coap-13.c **** {
 2536              		.loc 1 894 0
 2537              		.cfi_startproc
 2538              	.LVL346:
 895:/home/baikal/workspace/C50/Huawei_IoT_Agent_Tiny_SDK_Linux//lwm2m/core/er-coap-13/er-coap-13.c ****     /*
 896:/home/baikal/workspace/C50/Huawei_IoT_Agent_Tiny_SDK_Linux//lwm2m/core/er-coap-13/er-coap-13.c ****       coap_packet_t *const coap_pkt = (coap_packet_t *) packet;
 897:/home/baikal/workspace/C50/Huawei_IoT_Agent_Tiny_SDK_Linux//lwm2m/core/er-coap-13/er-coap-13.c **** 
 898:/home/baikal/workspace/C50/Huawei_IoT_Agent_Tiny_SDK_Linux//lwm2m/core/er-coap-13/er-coap-13.c ****       if (IS_OPTION(coap_pkt, COAP_OPTION_URI_QUERY)) {
 899:/home/baikal/workspace/C50/Huawei_IoT_Agent_Tiny_SDK_Linux//lwm2m/core/er-coap-13/er-coap-13.c ****         return coap_get_variable(coap_pkt->uri_query, coap_pkt->uri_query_len, name, output);
 900:/home/baikal/workspace/C50/Huawei_IoT_Agent_Tiny_SDK_Linux//lwm2m/core/er-coap-13/er-coap-13.c ****       }
 901:/home/baikal/workspace/C50/Huawei_IoT_Agent_Tiny_SDK_Linux//lwm2m/core/er-coap-13/er-coap-13.c ****     */
 902:/home/baikal/workspace/C50/Huawei_IoT_Agent_Tiny_SDK_Linux//lwm2m/core/er-coap-13/er-coap-13.c ****     return 0;
 903:/home/baikal/workspace/C50/Huawei_IoT_Agent_Tiny_SDK_Linux//lwm2m/core/er-coap-13/er-coap-13.c **** }
 2539              		.loc 1 903 0
 2540 0000 B8000000 		movl	$0, %eax
 2540      00
 2541 0005 C3       		ret
 2542              		.cfi_endproc
 2543              	.LFE81:
 2545              		.section	.text.coap_get_post_variable,"ax",@progbits
 2546              		.globl	coap_get_post_variable
 2548              	coap_get_post_variable:
 2549              	.LFB82:
 904:/home/baikal/workspace/C50/Huawei_IoT_Agent_Tiny_SDK_Linux//lwm2m/core/er-coap-13/er-coap-13.c **** 
 905:/home/baikal/workspace/C50/Huawei_IoT_Agent_Tiny_SDK_Linux//lwm2m/core/er-coap-13/er-coap-13.c **** int
 906:/home/baikal/workspace/C50/Huawei_IoT_Agent_Tiny_SDK_Linux//lwm2m/core/er-coap-13/er-coap-13.c **** coap_get_post_variable(void *packet, const char *name, const char **output)
 907:/home/baikal/workspace/C50/Huawei_IoT_Agent_Tiny_SDK_Linux//lwm2m/core/er-coap-13/er-coap-13.c **** {
 2550              		.loc 1 907 0
 2551              		.cfi_startproc
 2552              	.LVL347:
 908:/home/baikal/workspace/C50/Huawei_IoT_Agent_Tiny_SDK_Linux//lwm2m/core/er-coap-13/er-coap-13.c ****     coap_packet_t *const coap_pkt = (coap_packet_t *) packet;
 909:/home/baikal/workspace/C50/Huawei_IoT_Agent_Tiny_SDK_Linux//lwm2m/core/er-coap-13/er-coap-13.c **** 
 910:/home/baikal/workspace/C50/Huawei_IoT_Agent_Tiny_SDK_Linux//lwm2m/core/er-coap-13/er-coap-13.c ****     if (coap_pkt->payload_len)
 2553              		.loc 1 910 0
 2554 0000 0FB787C2 		movzwl	194(%rdi), %eax
 2554      000000
 2555 0007 6685C0   		testw	%ax, %ax
 2556 000a 741B     		je	.L178
 907:/home/baikal/workspace/C50/Huawei_IoT_Agent_Tiny_SDK_Linux//lwm2m/core/er-coap-13/er-coap-13.c ****     coap_packet_t *const coap_pkt = (coap_packet_t *) packet;
 2557              		.loc 1 907 0
 2558 000c 4883EC08 		subq	$8, %rsp
GAS LISTING /tmp/ccSAldBr.s 			page 71


 2559              	.LCFI112:
 2560              		.cfi_def_cfa_offset 16
 2561 0010 4889D1   		movq	%rdx, %rcx
 2562 0013 4889F2   		movq	%rsi, %rdx
 2563              	.LVL348:
 911:/home/baikal/workspace/C50/Huawei_IoT_Agent_Tiny_SDK_Linux//lwm2m/core/er-coap-13/er-coap-13.c ****     {
 912:/home/baikal/workspace/C50/Huawei_IoT_Agent_Tiny_SDK_Linux//lwm2m/core/er-coap-13/er-coap-13.c ****         return coap_get_variable(coap_pkt->payload, coap_pkt->payload_len, name, output);
 2564              		.loc 1 912 0
 2565 0016 488BBFC8 		movq	200(%rdi), %rdi
 2565      000000
 2566              	.LVL349:
 2567 001d 0FB7F0   		movzwl	%ax, %esi
 2568              	.LVL350:
 2569 0020 E8000000 		call	coap_get_variable
 2569      00
 2570              	.LVL351:
 2571 0025 EB06     		jmp	.L177
 2572              	.LVL352:
 2573              	.L178:
 2574              	.LCFI113:
 2575              		.cfi_def_cfa_offset 8
 913:/home/baikal/workspace/C50/Huawei_IoT_Agent_Tiny_SDK_Linux//lwm2m/core/er-coap-13/er-coap-13.c ****     }
 914:/home/baikal/workspace/C50/Huawei_IoT_Agent_Tiny_SDK_Linux//lwm2m/core/er-coap-13/er-coap-13.c ****     return 0;
 2576              		.loc 1 914 0
 2577 0027 B8000000 		movl	$0, %eax
 2577      00
 2578 002c C3       		ret
 2579              	.LVL353:
 2580              	.L177:
 2581              	.LCFI114:
 2582              		.cfi_def_cfa_offset 16
 915:/home/baikal/workspace/C50/Huawei_IoT_Agent_Tiny_SDK_Linux//lwm2m/core/er-coap-13/er-coap-13.c **** }
 2583              		.loc 1 915 0
 2584 002d 4883C408 		addq	$8, %rsp
 2585              	.LCFI115:
 2586              		.cfi_def_cfa_offset 8
 2587 0031 C3       		ret
 2588              		.cfi_endproc
 2589              	.LFE82:
 2591              		.section	.text.coap_set_status_code,"ax",@progbits
 2592              		.globl	coap_set_status_code
 2594              	coap_set_status_code:
 2595              	.LFB83:
 916:/home/baikal/workspace/C50/Huawei_IoT_Agent_Tiny_SDK_Linux//lwm2m/core/er-coap-13/er-coap-13.c **** /*-----------------------------------------------------------------------------------*/
 917:/home/baikal/workspace/C50/Huawei_IoT_Agent_Tiny_SDK_Linux//lwm2m/core/er-coap-13/er-coap-13.c **** int
 918:/home/baikal/workspace/C50/Huawei_IoT_Agent_Tiny_SDK_Linux//lwm2m/core/er-coap-13/er-coap-13.c **** coap_set_status_code(void *packet, unsigned int code)
 919:/home/baikal/workspace/C50/Huawei_IoT_Agent_Tiny_SDK_Linux//lwm2m/core/er-coap-13/er-coap-13.c **** {
 2596              		.loc 1 919 0
 2597              		.cfi_startproc
 2598              	.LVL354:
 920:/home/baikal/workspace/C50/Huawei_IoT_Agent_Tiny_SDK_Linux//lwm2m/core/er-coap-13/er-coap-13.c ****     if (code <= 0xFF)
 2599              		.loc 1 920 0
 2600 0000 81FEFF00 		cmpl	$255, %esi
 2600      0000
 2601 0006 770A     		ja	.L183
 921:/home/baikal/workspace/C50/Huawei_IoT_Agent_Tiny_SDK_Linux//lwm2m/core/er-coap-13/er-coap-13.c ****     {
 922:/home/baikal/workspace/C50/Huawei_IoT_Agent_Tiny_SDK_Linux//lwm2m/core/er-coap-13/er-coap-13.c ****         ((coap_packet_t *)packet)->code = (uint8_t) code;
GAS LISTING /tmp/ccSAldBr.s 			page 72


 2602              		.loc 1 922 0
 2603 0008 40887710 		movb	%sil, 16(%rdi)
 923:/home/baikal/workspace/C50/Huawei_IoT_Agent_Tiny_SDK_Linux//lwm2m/core/er-coap-13/er-coap-13.c ****         return 1;
 2604              		.loc 1 923 0
 2605 000c B8010000 		movl	$1, %eax
 2605      00
 2606 0011 C3       		ret
 2607              	.L183:
 924:/home/baikal/workspace/C50/Huawei_IoT_Agent_Tiny_SDK_Linux//lwm2m/core/er-coap-13/er-coap-13.c ****     }
 925:/home/baikal/workspace/C50/Huawei_IoT_Agent_Tiny_SDK_Linux//lwm2m/core/er-coap-13/er-coap-13.c ****     else
 926:/home/baikal/workspace/C50/Huawei_IoT_Agent_Tiny_SDK_Linux//lwm2m/core/er-coap-13/er-coap-13.c ****     {
 927:/home/baikal/workspace/C50/Huawei_IoT_Agent_Tiny_SDK_Linux//lwm2m/core/er-coap-13/er-coap-13.c ****         return 0;
 2608              		.loc 1 927 0
 2609 0012 B8000000 		movl	$0, %eax
 2609      00
 928:/home/baikal/workspace/C50/Huawei_IoT_Agent_Tiny_SDK_Linux//lwm2m/core/er-coap-13/er-coap-13.c ****     }
 929:/home/baikal/workspace/C50/Huawei_IoT_Agent_Tiny_SDK_Linux//lwm2m/core/er-coap-13/er-coap-13.c **** }
 2610              		.loc 1 929 0
 2611 0017 C3       		ret
 2612              		.cfi_endproc
 2613              	.LFE83:
 2615              		.section	.text.coap_get_header_content_type,"ax",@progbits
 2616              		.globl	coap_get_header_content_type
 2618              	coap_get_header_content_type:
 2619              	.LFB84:
 930:/home/baikal/workspace/C50/Huawei_IoT_Agent_Tiny_SDK_Linux//lwm2m/core/er-coap-13/er-coap-13.c **** /*-----------------------------------------------------------------------------------*/
 931:/home/baikal/workspace/C50/Huawei_IoT_Agent_Tiny_SDK_Linux//lwm2m/core/er-coap-13/er-coap-13.c **** /*- HEADER OPTION GETTERS AND SETTERS -----------------------------------------------*/
 932:/home/baikal/workspace/C50/Huawei_IoT_Agent_Tiny_SDK_Linux//lwm2m/core/er-coap-13/er-coap-13.c **** /*-----------------------------------------------------------------------------------*/
 933:/home/baikal/workspace/C50/Huawei_IoT_Agent_Tiny_SDK_Linux//lwm2m/core/er-coap-13/er-coap-13.c **** unsigned int
 934:/home/baikal/workspace/C50/Huawei_IoT_Agent_Tiny_SDK_Linux//lwm2m/core/er-coap-13/er-coap-13.c **** coap_get_header_content_type(void *packet)
 935:/home/baikal/workspace/C50/Huawei_IoT_Agent_Tiny_SDK_Linux//lwm2m/core/er-coap-13/er-coap-13.c **** {
 2620              		.loc 1 935 0
 2621              		.cfi_startproc
 2622              	.LVL355:
 936:/home/baikal/workspace/C50/Huawei_IoT_Agent_Tiny_SDK_Linux//lwm2m/core/er-coap-13/er-coap-13.c ****     coap_packet_t *const coap_pkt = (coap_packet_t *) packet;
 937:/home/baikal/workspace/C50/Huawei_IoT_Agent_Tiny_SDK_Linux//lwm2m/core/er-coap-13/er-coap-13.c **** 
 938:/home/baikal/workspace/C50/Huawei_IoT_Agent_Tiny_SDK_Linux//lwm2m/core/er-coap-13/er-coap-13.c ****     if (!IS_OPTION(coap_pkt, COAP_OPTION_CONTENT_TYPE)) return (unsigned int) - 1;
 2623              		.loc 1 938 0
 2624 0000 F6471510 		testb	$16, 21(%rdi)
 2625 0004 7404     		je	.L186
 939:/home/baikal/workspace/C50/Huawei_IoT_Agent_Tiny_SDK_Linux//lwm2m/core/er-coap-13/er-coap-13.c **** 
 940:/home/baikal/workspace/C50/Huawei_IoT_Agent_Tiny_SDK_Linux//lwm2m/core/er-coap-13/er-coap-13.c ****     return coap_pkt->content_type;
 2626              		.loc 1 940 0
 2627 0006 8B471C   		movl	28(%rdi), %eax
 2628 0009 C3       		ret
 2629              	.L186:
 938:/home/baikal/workspace/C50/Huawei_IoT_Agent_Tiny_SDK_Linux//lwm2m/core/er-coap-13/er-coap-13.c **** 
 2630              		.loc 1 938 0
 2631 000a B8FFFFFF 		movl	$-1, %eax
 2631      FF
 941:/home/baikal/workspace/C50/Huawei_IoT_Agent_Tiny_SDK_Linux//lwm2m/core/er-coap-13/er-coap-13.c **** }
 2632              		.loc 1 941 0
 2633 000f C3       		ret
 2634              		.cfi_endproc
 2635              	.LFE84:
 2637              		.section	.text.coap_set_header_content_type,"ax",@progbits
 2638              		.globl	coap_set_header_content_type
GAS LISTING /tmp/ccSAldBr.s 			page 73


 2640              	coap_set_header_content_type:
 2641              	.LFB85:
 942:/home/baikal/workspace/C50/Huawei_IoT_Agent_Tiny_SDK_Linux//lwm2m/core/er-coap-13/er-coap-13.c **** 
 943:/home/baikal/workspace/C50/Huawei_IoT_Agent_Tiny_SDK_Linux//lwm2m/core/er-coap-13/er-coap-13.c **** int
 944:/home/baikal/workspace/C50/Huawei_IoT_Agent_Tiny_SDK_Linux//lwm2m/core/er-coap-13/er-coap-13.c **** coap_set_header_content_type(void *packet, unsigned int content_type)
 945:/home/baikal/workspace/C50/Huawei_IoT_Agent_Tiny_SDK_Linux//lwm2m/core/er-coap-13/er-coap-13.c **** {
 2642              		.loc 1 945 0
 2643              		.cfi_startproc
 2644              	.LVL356:
 946:/home/baikal/workspace/C50/Huawei_IoT_Agent_Tiny_SDK_Linux//lwm2m/core/er-coap-13/er-coap-13.c ****     coap_packet_t *const coap_pkt = (coap_packet_t *) packet;
 947:/home/baikal/workspace/C50/Huawei_IoT_Agent_Tiny_SDK_Linux//lwm2m/core/er-coap-13/er-coap-13.c **** 
 948:/home/baikal/workspace/C50/Huawei_IoT_Agent_Tiny_SDK_Linux//lwm2m/core/er-coap-13/er-coap-13.c ****     coap_pkt->content_type = (coap_content_type_t) content_type;
 2645              		.loc 1 948 0
 2646 0000 89771C   		movl	%esi, 28(%rdi)
 949:/home/baikal/workspace/C50/Huawei_IoT_Agent_Tiny_SDK_Linux//lwm2m/core/er-coap-13/er-coap-13.c ****     SET_OPTION(coap_pkt, COAP_OPTION_CONTENT_TYPE);
 2647              		.loc 1 949 0
 2648 0003 804F1510 		orb	$16, 21(%rdi)
 950:/home/baikal/workspace/C50/Huawei_IoT_Agent_Tiny_SDK_Linux//lwm2m/core/er-coap-13/er-coap-13.c ****     return 1;
 951:/home/baikal/workspace/C50/Huawei_IoT_Agent_Tiny_SDK_Linux//lwm2m/core/er-coap-13/er-coap-13.c **** }
 2649              		.loc 1 951 0
 2650 0007 B8010000 		movl	$1, %eax
 2650      00
 2651 000c C3       		ret
 2652              		.cfi_endproc
 2653              	.LFE85:
 2655              		.section	.text.coap_get_header_accept,"ax",@progbits
 2656              		.globl	coap_get_header_accept
 2658              	coap_get_header_accept:
 2659              	.LFB86:
 952:/home/baikal/workspace/C50/Huawei_IoT_Agent_Tiny_SDK_Linux//lwm2m/core/er-coap-13/er-coap-13.c **** /*-----------------------------------------------------------------------------------*/
 953:/home/baikal/workspace/C50/Huawei_IoT_Agent_Tiny_SDK_Linux//lwm2m/core/er-coap-13/er-coap-13.c **** int
 954:/home/baikal/workspace/C50/Huawei_IoT_Agent_Tiny_SDK_Linux//lwm2m/core/er-coap-13/er-coap-13.c **** coap_get_header_accept(void *packet, const uint16_t **accept)
 955:/home/baikal/workspace/C50/Huawei_IoT_Agent_Tiny_SDK_Linux//lwm2m/core/er-coap-13/er-coap-13.c **** {
 2660              		.loc 1 955 0
 2661              		.cfi_startproc
 2662              	.LVL357:
 956:/home/baikal/workspace/C50/Huawei_IoT_Agent_Tiny_SDK_Linux//lwm2m/core/er-coap-13/er-coap-13.c ****     coap_packet_t *const coap_pkt = (coap_packet_t *) packet;
 957:/home/baikal/workspace/C50/Huawei_IoT_Agent_Tiny_SDK_Linux//lwm2m/core/er-coap-13/er-coap-13.c **** 
 958:/home/baikal/workspace/C50/Huawei_IoT_Agent_Tiny_SDK_Linux//lwm2m/core/er-coap-13/er-coap-13.c ****     if (!IS_OPTION(coap_pkt, COAP_OPTION_ACCEPT)) return 0;
 2663              		.loc 1 958 0
 2664 0000 F6471602 		testb	$2, 22(%rdi)
 2665 0004 7412     		je	.L190
 959:/home/baikal/workspace/C50/Huawei_IoT_Agent_Tiny_SDK_Linux//lwm2m/core/er-coap-13/er-coap-13.c **** 
 960:/home/baikal/workspace/C50/Huawei_IoT_Agent_Tiny_SDK_Linux//lwm2m/core/er-coap-13/er-coap-13.c ****     *accept = coap_pkt->accept;
 2666              		.loc 1 960 0
 2667 0006 488D878E 		leaq	142(%rdi), %rax
 2667      000000
 2668 000d 488906   		movq	%rax, (%rsi)
 961:/home/baikal/workspace/C50/Huawei_IoT_Agent_Tiny_SDK_Linux//lwm2m/core/er-coap-13/er-coap-13.c ****     return coap_pkt->accept_num;
 2669              		.loc 1 961 0
 2670 0010 0FB6878D 		movzbl	141(%rdi), %eax
 2670      000000
 2671 0017 C3       		ret
 2672              	.L190:
 958:/home/baikal/workspace/C50/Huawei_IoT_Agent_Tiny_SDK_Linux//lwm2m/core/er-coap-13/er-coap-13.c **** 
 2673              		.loc 1 958 0
 2674 0018 B8000000 		movl	$0, %eax
GAS LISTING /tmp/ccSAldBr.s 			page 74


 2674      00
 962:/home/baikal/workspace/C50/Huawei_IoT_Agent_Tiny_SDK_Linux//lwm2m/core/er-coap-13/er-coap-13.c **** }
 2675              		.loc 1 962 0
 2676 001d C3       		ret
 2677              		.cfi_endproc
 2678              	.LFE86:
 2680              		.section	.text.coap_set_header_accept,"ax",@progbits
 2681              		.globl	coap_set_header_accept
 2683              	coap_set_header_accept:
 2684              	.LFB87:
 963:/home/baikal/workspace/C50/Huawei_IoT_Agent_Tiny_SDK_Linux//lwm2m/core/er-coap-13/er-coap-13.c **** 
 964:/home/baikal/workspace/C50/Huawei_IoT_Agent_Tiny_SDK_Linux//lwm2m/core/er-coap-13/er-coap-13.c **** int
 965:/home/baikal/workspace/C50/Huawei_IoT_Agent_Tiny_SDK_Linux//lwm2m/core/er-coap-13/er-coap-13.c **** coap_set_header_accept(void *packet, uint16_t accept)
 966:/home/baikal/workspace/C50/Huawei_IoT_Agent_Tiny_SDK_Linux//lwm2m/core/er-coap-13/er-coap-13.c **** {
 2685              		.loc 1 966 0
 2686              		.cfi_startproc
 2687              	.LVL358:
 967:/home/baikal/workspace/C50/Huawei_IoT_Agent_Tiny_SDK_Linux//lwm2m/core/er-coap-13/er-coap-13.c ****     coap_packet_t *const coap_pkt = (coap_packet_t *) packet;
 968:/home/baikal/workspace/C50/Huawei_IoT_Agent_Tiny_SDK_Linux//lwm2m/core/er-coap-13/er-coap-13.c **** 
 969:/home/baikal/workspace/C50/Huawei_IoT_Agent_Tiny_SDK_Linux//lwm2m/core/er-coap-13/er-coap-13.c ****     if (coap_pkt->accept_num < COAP_MAX_ACCEPT_NUM)
 2688              		.loc 1 969 0
 2689 0000 0FB6878D 		movzbl	141(%rdi), %eax
 2689      000000
 2690 0007 3C01     		cmpb	$1, %al
 2691 0009 7718     		ja	.L192
 970:/home/baikal/workspace/C50/Huawei_IoT_Agent_Tiny_SDK_Linux//lwm2m/core/er-coap-13/er-coap-13.c ****     {
 971:/home/baikal/workspace/C50/Huawei_IoT_Agent_Tiny_SDK_Linux//lwm2m/core/er-coap-13/er-coap-13.c ****         coap_pkt->accept[coap_pkt->accept_num] = accept;
 2692              		.loc 1 971 0
 2693 000b 0FB6D0   		movzbl	%al, %edx
 2694 000e 6689B457 		movw	%si, 142(%rdi,%rdx,2)
 2694      8E000000 
 972:/home/baikal/workspace/C50/Huawei_IoT_Agent_Tiny_SDK_Linux//lwm2m/core/er-coap-13/er-coap-13.c ****         coap_pkt->accept_num += 1;
 2695              		.loc 1 972 0
 2696 0016 83C001   		addl	$1, %eax
 2697 0019 88878D00 		movb	%al, 141(%rdi)
 2697      0000
 973:/home/baikal/workspace/C50/Huawei_IoT_Agent_Tiny_SDK_Linux//lwm2m/core/er-coap-13/er-coap-13.c **** 
 974:/home/baikal/workspace/C50/Huawei_IoT_Agent_Tiny_SDK_Linux//lwm2m/core/er-coap-13/er-coap-13.c ****         SET_OPTION(coap_pkt, COAP_OPTION_ACCEPT);
 2698              		.loc 1 974 0
 2699 001f 804F1602 		orb	$2, 22(%rdi)
 2700              	.L192:
 975:/home/baikal/workspace/C50/Huawei_IoT_Agent_Tiny_SDK_Linux//lwm2m/core/er-coap-13/er-coap-13.c ****     }
 976:/home/baikal/workspace/C50/Huawei_IoT_Agent_Tiny_SDK_Linux//lwm2m/core/er-coap-13/er-coap-13.c ****     return coap_pkt->accept_num;
 2701              		.loc 1 976 0
 2702 0023 0FB6878D 		movzbl	141(%rdi), %eax
 2702      000000
 977:/home/baikal/workspace/C50/Huawei_IoT_Agent_Tiny_SDK_Linux//lwm2m/core/er-coap-13/er-coap-13.c **** }
 2703              		.loc 1 977 0
 2704 002a C3       		ret
 2705              		.cfi_endproc
 2706              	.LFE87:
 2708              		.section	.text.coap_get_header_max_age,"ax",@progbits
 2709              		.globl	coap_get_header_max_age
 2711              	coap_get_header_max_age:
 2712              	.LFB88:
 978:/home/baikal/workspace/C50/Huawei_IoT_Agent_Tiny_SDK_Linux//lwm2m/core/er-coap-13/er-coap-13.c **** /*-----------------------------------------------------------------------------------*/
 979:/home/baikal/workspace/C50/Huawei_IoT_Agent_Tiny_SDK_Linux//lwm2m/core/er-coap-13/er-coap-13.c **** int
GAS LISTING /tmp/ccSAldBr.s 			page 75


 980:/home/baikal/workspace/C50/Huawei_IoT_Agent_Tiny_SDK_Linux//lwm2m/core/er-coap-13/er-coap-13.c **** coap_get_header_max_age(void *packet, uint32_t *age)
 981:/home/baikal/workspace/C50/Huawei_IoT_Agent_Tiny_SDK_Linux//lwm2m/core/er-coap-13/er-coap-13.c **** {
 2713              		.loc 1 981 0
 2714              		.cfi_startproc
 2715              	.LVL359:
 982:/home/baikal/workspace/C50/Huawei_IoT_Agent_Tiny_SDK_Linux//lwm2m/core/er-coap-13/er-coap-13.c ****     coap_packet_t *const coap_pkt = (coap_packet_t *) packet;
 983:/home/baikal/workspace/C50/Huawei_IoT_Agent_Tiny_SDK_Linux//lwm2m/core/er-coap-13/er-coap-13.c **** 
 984:/home/baikal/workspace/C50/Huawei_IoT_Agent_Tiny_SDK_Linux//lwm2m/core/er-coap-13/er-coap-13.c ****     if (!IS_OPTION(coap_pkt, COAP_OPTION_MAX_AGE))
 2716              		.loc 1 984 0
 2717 0000 F6471540 		testb	$64, 21(%rdi)
 2718 0004 7508     		jne	.L194
 985:/home/baikal/workspace/C50/Huawei_IoT_Agent_Tiny_SDK_Linux//lwm2m/core/er-coap-13/er-coap-13.c ****     {
 986:/home/baikal/workspace/C50/Huawei_IoT_Agent_Tiny_SDK_Linux//lwm2m/core/er-coap-13/er-coap-13.c ****         *age = COAP_DEFAULT_MAX_AGE;
 2719              		.loc 1 986 0
 2720 0006 C7063C00 		movl	$60, (%rsi)
 2720      0000
 2721 000c EB05     		jmp	.L195
 2722              	.L194:
 987:/home/baikal/workspace/C50/Huawei_IoT_Agent_Tiny_SDK_Linux//lwm2m/core/er-coap-13/er-coap-13.c ****     }
 988:/home/baikal/workspace/C50/Huawei_IoT_Agent_Tiny_SDK_Linux//lwm2m/core/er-coap-13/er-coap-13.c ****     else
 989:/home/baikal/workspace/C50/Huawei_IoT_Agent_Tiny_SDK_Linux//lwm2m/core/er-coap-13/er-coap-13.c ****     {
 990:/home/baikal/workspace/C50/Huawei_IoT_Agent_Tiny_SDK_Linux//lwm2m/core/er-coap-13/er-coap-13.c ****         *age = coap_pkt->max_age;
 2723              		.loc 1 990 0
 2724 000e 8B4720   		movl	32(%rdi), %eax
 2725 0011 8906     		movl	%eax, (%rsi)
 2726              	.L195:
 991:/home/baikal/workspace/C50/Huawei_IoT_Agent_Tiny_SDK_Linux//lwm2m/core/er-coap-13/er-coap-13.c ****     }
 992:/home/baikal/workspace/C50/Huawei_IoT_Agent_Tiny_SDK_Linux//lwm2m/core/er-coap-13/er-coap-13.c ****     return 1;
 993:/home/baikal/workspace/C50/Huawei_IoT_Agent_Tiny_SDK_Linux//lwm2m/core/er-coap-13/er-coap-13.c **** }
 2727              		.loc 1 993 0
 2728 0013 B8010000 		movl	$1, %eax
 2728      00
 2729 0018 C3       		ret
 2730              		.cfi_endproc
 2731              	.LFE88:
 2733              		.section	.text.coap_set_header_max_age,"ax",@progbits
 2734              		.globl	coap_set_header_max_age
 2736              	coap_set_header_max_age:
 2737              	.LFB89:
 994:/home/baikal/workspace/C50/Huawei_IoT_Agent_Tiny_SDK_Linux//lwm2m/core/er-coap-13/er-coap-13.c **** 
 995:/home/baikal/workspace/C50/Huawei_IoT_Agent_Tiny_SDK_Linux//lwm2m/core/er-coap-13/er-coap-13.c **** int
 996:/home/baikal/workspace/C50/Huawei_IoT_Agent_Tiny_SDK_Linux//lwm2m/core/er-coap-13/er-coap-13.c **** coap_set_header_max_age(void *packet, uint32_t age)
 997:/home/baikal/workspace/C50/Huawei_IoT_Agent_Tiny_SDK_Linux//lwm2m/core/er-coap-13/er-coap-13.c **** {
 2738              		.loc 1 997 0
 2739              		.cfi_startproc
 2740              	.LVL360:
 998:/home/baikal/workspace/C50/Huawei_IoT_Agent_Tiny_SDK_Linux//lwm2m/core/er-coap-13/er-coap-13.c ****     coap_packet_t *const coap_pkt = (coap_packet_t *) packet;
 999:/home/baikal/workspace/C50/Huawei_IoT_Agent_Tiny_SDK_Linux//lwm2m/core/er-coap-13/er-coap-13.c **** 
1000:/home/baikal/workspace/C50/Huawei_IoT_Agent_Tiny_SDK_Linux//lwm2m/core/er-coap-13/er-coap-13.c ****     coap_pkt->max_age = age;
 2741              		.loc 1 1000 0
 2742 0000 897720   		movl	%esi, 32(%rdi)
1001:/home/baikal/workspace/C50/Huawei_IoT_Agent_Tiny_SDK_Linux//lwm2m/core/er-coap-13/er-coap-13.c ****     SET_OPTION(coap_pkt, COAP_OPTION_MAX_AGE);
 2743              		.loc 1 1001 0
 2744 0003 804F1540 		orb	$64, 21(%rdi)
1002:/home/baikal/workspace/C50/Huawei_IoT_Agent_Tiny_SDK_Linux//lwm2m/core/er-coap-13/er-coap-13.c ****     return 1;
1003:/home/baikal/workspace/C50/Huawei_IoT_Agent_Tiny_SDK_Linux//lwm2m/core/er-coap-13/er-coap-13.c **** }
 2745              		.loc 1 1003 0
GAS LISTING /tmp/ccSAldBr.s 			page 76


 2746 0007 B8010000 		movl	$1, %eax
 2746      00
 2747 000c C3       		ret
 2748              		.cfi_endproc
 2749              	.LFE89:
 2751              		.section	.text.coap_get_header_etag,"ax",@progbits
 2752              		.globl	coap_get_header_etag
 2754              	coap_get_header_etag:
 2755              	.LFB90:
1004:/home/baikal/workspace/C50/Huawei_IoT_Agent_Tiny_SDK_Linux//lwm2m/core/er-coap-13/er-coap-13.c **** /*-----------------------------------------------------------------------------------*/
1005:/home/baikal/workspace/C50/Huawei_IoT_Agent_Tiny_SDK_Linux//lwm2m/core/er-coap-13/er-coap-13.c **** int
1006:/home/baikal/workspace/C50/Huawei_IoT_Agent_Tiny_SDK_Linux//lwm2m/core/er-coap-13/er-coap-13.c **** coap_get_header_etag(void *packet, const uint8_t **etag)
1007:/home/baikal/workspace/C50/Huawei_IoT_Agent_Tiny_SDK_Linux//lwm2m/core/er-coap-13/er-coap-13.c **** {
 2756              		.loc 1 1007 0
 2757              		.cfi_startproc
 2758              	.LVL361:
1008:/home/baikal/workspace/C50/Huawei_IoT_Agent_Tiny_SDK_Linux//lwm2m/core/er-coap-13/er-coap-13.c ****     coap_packet_t *const coap_pkt = (coap_packet_t *) packet;
1009:/home/baikal/workspace/C50/Huawei_IoT_Agent_Tiny_SDK_Linux//lwm2m/core/er-coap-13/er-coap-13.c **** 
1010:/home/baikal/workspace/C50/Huawei_IoT_Agent_Tiny_SDK_Linux//lwm2m/core/er-coap-13/er-coap-13.c ****     if (!IS_OPTION(coap_pkt, COAP_OPTION_ETAG)) return 0;
 2759              		.loc 1 1010 0
 2760 0000 F6471410 		testb	$16, 20(%rdi)
 2761 0004 740C     		je	.L199
1011:/home/baikal/workspace/C50/Huawei_IoT_Agent_Tiny_SDK_Linux//lwm2m/core/er-coap-13/er-coap-13.c **** 
1012:/home/baikal/workspace/C50/Huawei_IoT_Agent_Tiny_SDK_Linux//lwm2m/core/er-coap-13/er-coap-13.c ****     *etag = coap_pkt->etag;
 2762              		.loc 1 1012 0
 2763 0006 488D4739 		leaq	57(%rdi), %rax
 2764 000a 488906   		movq	%rax, (%rsi)
1013:/home/baikal/workspace/C50/Huawei_IoT_Agent_Tiny_SDK_Linux//lwm2m/core/er-coap-13/er-coap-13.c ****     return coap_pkt->etag_len;
 2765              		.loc 1 1013 0
 2766 000d 0FB64738 		movzbl	56(%rdi), %eax
 2767 0011 C3       		ret
 2768              	.L199:
1010:/home/baikal/workspace/C50/Huawei_IoT_Agent_Tiny_SDK_Linux//lwm2m/core/er-coap-13/er-coap-13.c **** 
 2769              		.loc 1 1010 0
 2770 0012 B8000000 		movl	$0, %eax
 2770      00
1014:/home/baikal/workspace/C50/Huawei_IoT_Agent_Tiny_SDK_Linux//lwm2m/core/er-coap-13/er-coap-13.c **** }
 2771              		.loc 1 1014 0
 2772 0017 C3       		ret
 2773              		.cfi_endproc
 2774              	.LFE90:
 2776              		.section	.text.coap_set_header_etag,"ax",@progbits
 2777              		.globl	coap_set_header_etag
 2779              	coap_set_header_etag:
 2780              	.LFB91:
1015:/home/baikal/workspace/C50/Huawei_IoT_Agent_Tiny_SDK_Linux//lwm2m/core/er-coap-13/er-coap-13.c **** 
1016:/home/baikal/workspace/C50/Huawei_IoT_Agent_Tiny_SDK_Linux//lwm2m/core/er-coap-13/er-coap-13.c **** int
1017:/home/baikal/workspace/C50/Huawei_IoT_Agent_Tiny_SDK_Linux//lwm2m/core/er-coap-13/er-coap-13.c **** coap_set_header_etag(void *packet, const uint8_t *etag, size_t etag_len)
1018:/home/baikal/workspace/C50/Huawei_IoT_Agent_Tiny_SDK_Linux//lwm2m/core/er-coap-13/er-coap-13.c **** {
 2781              		.loc 1 1018 0
 2782              		.cfi_startproc
 2783              	.LVL362:
 2784 0000 53       		pushq	%rbx
 2785              	.LCFI116:
 2786              		.cfi_def_cfa_offset 16
 2787              		.cfi_offset 3, -16
 2788 0001 4889FB   		movq	%rdi, %rbx
GAS LISTING /tmp/ccSAldBr.s 			page 77


 2789              	.LVL363:
1019:/home/baikal/workspace/C50/Huawei_IoT_Agent_Tiny_SDK_Linux//lwm2m/core/er-coap-13/er-coap-13.c ****     coap_packet_t *const coap_pkt = (coap_packet_t *) packet;
1020:/home/baikal/workspace/C50/Huawei_IoT_Agent_Tiny_SDK_Linux//lwm2m/core/er-coap-13/er-coap-13.c **** 
1021:/home/baikal/workspace/C50/Huawei_IoT_Agent_Tiny_SDK_Linux//lwm2m/core/er-coap-13/er-coap-13.c ****     coap_pkt->etag_len = (uint8_t)(MIN(COAP_ETAG_LEN, etag_len));
 2790              		.loc 1 1021 0
 2791 0004 4883FA08 		cmpq	$8, %rdx
 2792 0008 7605     		jbe	.L201
 2793 000a BA080000 		movl	$8, %edx
 2793      00
 2794              	.LVL364:
 2795              	.L201:
 2796              		.loc 1 1021 0 is_stmt 0 discriminator 4
 2797 000f 885338   		movb	%dl, 56(%rbx)
1022:/home/baikal/workspace/C50/Huawei_IoT_Agent_Tiny_SDK_Linux//lwm2m/core/er-coap-13/er-coap-13.c ****     memcpy(coap_pkt->etag, etag, coap_pkt->etag_len);
 2798              		.loc 1 1022 0 is_stmt 1 discriminator 4
 2799 0012 0FB6D2   		movzbl	%dl, %edx
 2800 0015 488D7B39 		leaq	57(%rbx), %rdi
 2801              	.LVL365:
 2802              	.LBB75:
 2803              	.LBB76:
  53:/usr/include/x86_64-linux-gnu/bits/string3.h **** }
 2804              		.loc 2 53 0 discriminator 4
 2805 0019 E8000000 		call	memcpy
 2805      00
 2806              	.LVL366:
 2807              	.LBE76:
 2808              	.LBE75:
1023:/home/baikal/workspace/C50/Huawei_IoT_Agent_Tiny_SDK_Linux//lwm2m/core/er-coap-13/er-coap-13.c **** 
1024:/home/baikal/workspace/C50/Huawei_IoT_Agent_Tiny_SDK_Linux//lwm2m/core/er-coap-13/er-coap-13.c ****     SET_OPTION(coap_pkt, COAP_OPTION_ETAG);
 2809              		.loc 1 1024 0 discriminator 4
 2810 001e 804B1410 		orb	$16, 20(%rbx)
1025:/home/baikal/workspace/C50/Huawei_IoT_Agent_Tiny_SDK_Linux//lwm2m/core/er-coap-13/er-coap-13.c ****     return coap_pkt->etag_len;
 2811              		.loc 1 1025 0 discriminator 4
 2812 0022 0FB64338 		movzbl	56(%rbx), %eax
1026:/home/baikal/workspace/C50/Huawei_IoT_Agent_Tiny_SDK_Linux//lwm2m/core/er-coap-13/er-coap-13.c **** }
 2813              		.loc 1 1026 0 discriminator 4
 2814 0026 5B       		popq	%rbx
 2815              	.LCFI117:
 2816              		.cfi_def_cfa_offset 8
 2817              	.LVL367:
 2818 0027 C3       		ret
 2819              		.cfi_endproc
 2820              	.LFE91:
 2822              		.section	.text.coap_get_header_if_match,"ax",@progbits
 2823              		.globl	coap_get_header_if_match
 2825              	coap_get_header_if_match:
 2826              	.LFB92:
1027:/home/baikal/workspace/C50/Huawei_IoT_Agent_Tiny_SDK_Linux//lwm2m/core/er-coap-13/er-coap-13.c **** /*-----------------------------------------------------------------------------------*/
1028:/home/baikal/workspace/C50/Huawei_IoT_Agent_Tiny_SDK_Linux//lwm2m/core/er-coap-13/er-coap-13.c **** /*FIXME support multiple ETags */
1029:/home/baikal/workspace/C50/Huawei_IoT_Agent_Tiny_SDK_Linux//lwm2m/core/er-coap-13/er-coap-13.c **** int
1030:/home/baikal/workspace/C50/Huawei_IoT_Agent_Tiny_SDK_Linux//lwm2m/core/er-coap-13/er-coap-13.c **** coap_get_header_if_match(void *packet, const uint8_t **etag)
1031:/home/baikal/workspace/C50/Huawei_IoT_Agent_Tiny_SDK_Linux//lwm2m/core/er-coap-13/er-coap-13.c **** {
 2827              		.loc 1 1031 0
 2828              		.cfi_startproc
 2829              	.LVL368:
1032:/home/baikal/workspace/C50/Huawei_IoT_Agent_Tiny_SDK_Linux//lwm2m/core/er-coap-13/er-coap-13.c ****     coap_packet_t *const coap_pkt = (coap_packet_t *) packet;
1033:/home/baikal/workspace/C50/Huawei_IoT_Agent_Tiny_SDK_Linux//lwm2m/core/er-coap-13/er-coap-13.c **** 
GAS LISTING /tmp/ccSAldBr.s 			page 78


1034:/home/baikal/workspace/C50/Huawei_IoT_Agent_Tiny_SDK_Linux//lwm2m/core/er-coap-13/er-coap-13.c ****     if (!IS_OPTION(coap_pkt, COAP_OPTION_IF_MATCH)) return 0;
 2830              		.loc 1 1034 0
 2831 0000 F6471402 		testb	$2, 20(%rdi)
 2832 0004 7412     		je	.L206
1035:/home/baikal/workspace/C50/Huawei_IoT_Agent_Tiny_SDK_Linux//lwm2m/core/er-coap-13/er-coap-13.c **** 
1036:/home/baikal/workspace/C50/Huawei_IoT_Agent_Tiny_SDK_Linux//lwm2m/core/er-coap-13/er-coap-13.c ****     *etag = coap_pkt->if_match;
 2833              		.loc 1 1036 0
 2834 0006 488D8793 		leaq	147(%rdi), %rax
 2834      000000
 2835 000d 488906   		movq	%rax, (%rsi)
1037:/home/baikal/workspace/C50/Huawei_IoT_Agent_Tiny_SDK_Linux//lwm2m/core/er-coap-13/er-coap-13.c ****     return coap_pkt->if_match_len;
 2836              		.loc 1 1037 0
 2837 0010 0FB68792 		movzbl	146(%rdi), %eax
 2837      000000
 2838 0017 C3       		ret
 2839              	.L206:
1034:/home/baikal/workspace/C50/Huawei_IoT_Agent_Tiny_SDK_Linux//lwm2m/core/er-coap-13/er-coap-13.c **** 
 2840              		.loc 1 1034 0
 2841 0018 B8000000 		movl	$0, %eax
 2841      00
1038:/home/baikal/workspace/C50/Huawei_IoT_Agent_Tiny_SDK_Linux//lwm2m/core/er-coap-13/er-coap-13.c **** }
 2842              		.loc 1 1038 0
 2843 001d C3       		ret
 2844              		.cfi_endproc
 2845              	.LFE92:
 2847              		.section	.text.coap_set_header_if_match,"ax",@progbits
 2848              		.globl	coap_set_header_if_match
 2850              	coap_set_header_if_match:
 2851              	.LFB93:
1039:/home/baikal/workspace/C50/Huawei_IoT_Agent_Tiny_SDK_Linux//lwm2m/core/er-coap-13/er-coap-13.c **** 
1040:/home/baikal/workspace/C50/Huawei_IoT_Agent_Tiny_SDK_Linux//lwm2m/core/er-coap-13/er-coap-13.c **** int
1041:/home/baikal/workspace/C50/Huawei_IoT_Agent_Tiny_SDK_Linux//lwm2m/core/er-coap-13/er-coap-13.c **** coap_set_header_if_match(void *packet, const uint8_t *etag, size_t etag_len)
1042:/home/baikal/workspace/C50/Huawei_IoT_Agent_Tiny_SDK_Linux//lwm2m/core/er-coap-13/er-coap-13.c **** {
 2852              		.loc 1 1042 0
 2853              		.cfi_startproc
 2854              	.LVL369:
 2855 0000 53       		pushq	%rbx
 2856              	.LCFI118:
 2857              		.cfi_def_cfa_offset 16
 2858              		.cfi_offset 3, -16
 2859 0001 4889FB   		movq	%rdi, %rbx
 2860              	.LVL370:
1043:/home/baikal/workspace/C50/Huawei_IoT_Agent_Tiny_SDK_Linux//lwm2m/core/er-coap-13/er-coap-13.c ****     coap_packet_t *const coap_pkt = (coap_packet_t *) packet;
1044:/home/baikal/workspace/C50/Huawei_IoT_Agent_Tiny_SDK_Linux//lwm2m/core/er-coap-13/er-coap-13.c **** 
1045:/home/baikal/workspace/C50/Huawei_IoT_Agent_Tiny_SDK_Linux//lwm2m/core/er-coap-13/er-coap-13.c ****     coap_pkt->if_match_len = (uint8_t)(MIN(COAP_ETAG_LEN, etag_len));
 2861              		.loc 1 1045 0
 2862 0004 4883FA08 		cmpq	$8, %rdx
 2863 0008 7605     		jbe	.L208
 2864 000a BA080000 		movl	$8, %edx
 2864      00
 2865              	.LVL371:
 2866              	.L208:
 2867              		.loc 1 1045 0 is_stmt 0 discriminator 4
 2868 000f 88939200 		movb	%dl, 146(%rbx)
 2868      0000
1046:/home/baikal/workspace/C50/Huawei_IoT_Agent_Tiny_SDK_Linux//lwm2m/core/er-coap-13/er-coap-13.c ****     memcpy(coap_pkt->if_match, etag, coap_pkt->if_match_len);
 2869              		.loc 1 1046 0 is_stmt 1 discriminator 4
GAS LISTING /tmp/ccSAldBr.s 			page 79


 2870 0015 0FB6D2   		movzbl	%dl, %edx
 2871 0018 488DBB93 		leaq	147(%rbx), %rdi
 2871      000000
 2872              	.LVL372:
 2873              	.LBB77:
 2874              	.LBB78:
  53:/usr/include/x86_64-linux-gnu/bits/string3.h **** }
 2875              		.loc 2 53 0 discriminator 4
 2876 001f E8000000 		call	memcpy
 2876      00
 2877              	.LVL373:
 2878              	.LBE78:
 2879              	.LBE77:
1047:/home/baikal/workspace/C50/Huawei_IoT_Agent_Tiny_SDK_Linux//lwm2m/core/er-coap-13/er-coap-13.c **** 
1048:/home/baikal/workspace/C50/Huawei_IoT_Agent_Tiny_SDK_Linux//lwm2m/core/er-coap-13/er-coap-13.c ****     SET_OPTION(coap_pkt, COAP_OPTION_IF_MATCH);
 2880              		.loc 1 1048 0 discriminator 4
 2881 0024 804B1402 		orb	$2, 20(%rbx)
1049:/home/baikal/workspace/C50/Huawei_IoT_Agent_Tiny_SDK_Linux//lwm2m/core/er-coap-13/er-coap-13.c ****     return coap_pkt->if_match_len;
 2882              		.loc 1 1049 0 discriminator 4
 2883 0028 0FB68392 		movzbl	146(%rbx), %eax
 2883      000000
1050:/home/baikal/workspace/C50/Huawei_IoT_Agent_Tiny_SDK_Linux//lwm2m/core/er-coap-13/er-coap-13.c **** }
 2884              		.loc 1 1050 0 discriminator 4
 2885 002f 5B       		popq	%rbx
 2886              	.LCFI119:
 2887              		.cfi_def_cfa_offset 8
 2888              	.LVL374:
 2889 0030 C3       		ret
 2890              		.cfi_endproc
 2891              	.LFE93:
 2893              		.section	.text.coap_get_header_if_none_match,"ax",@progbits
 2894              		.globl	coap_get_header_if_none_match
 2896              	coap_get_header_if_none_match:
 2897              	.LFB94:
1051:/home/baikal/workspace/C50/Huawei_IoT_Agent_Tiny_SDK_Linux//lwm2m/core/er-coap-13/er-coap-13.c **** /*-----------------------------------------------------------------------------------*/
1052:/home/baikal/workspace/C50/Huawei_IoT_Agent_Tiny_SDK_Linux//lwm2m/core/er-coap-13/er-coap-13.c **** int
1053:/home/baikal/workspace/C50/Huawei_IoT_Agent_Tiny_SDK_Linux//lwm2m/core/er-coap-13/er-coap-13.c **** coap_get_header_if_none_match(void *packet)
1054:/home/baikal/workspace/C50/Huawei_IoT_Agent_Tiny_SDK_Linux//lwm2m/core/er-coap-13/er-coap-13.c **** {
 2898              		.loc 1 1054 0
 2899              		.cfi_startproc
 2900              	.LVL375:
1055:/home/baikal/workspace/C50/Huawei_IoT_Agent_Tiny_SDK_Linux//lwm2m/core/er-coap-13/er-coap-13.c ****     return IS_OPTION((coap_packet_t *)packet, COAP_OPTION_IF_NONE_MATCH) ? 1 : 0;
 2901              		.loc 1 1055 0
 2902 0000 0FB64714 		movzbl	20(%rdi), %eax
 2903 0004 C0E805   		shrb	$5, %al
 2904 0007 83E001   		andl	$1, %eax
1056:/home/baikal/workspace/C50/Huawei_IoT_Agent_Tiny_SDK_Linux//lwm2m/core/er-coap-13/er-coap-13.c **** }
 2905              		.loc 1 1056 0
 2906 000a C3       		ret
 2907              		.cfi_endproc
 2908              	.LFE94:
 2910              		.section	.text.coap_set_header_if_none_match,"ax",@progbits
 2911              		.globl	coap_set_header_if_none_match
 2913              	coap_set_header_if_none_match:
 2914              	.LFB95:
1057:/home/baikal/workspace/C50/Huawei_IoT_Agent_Tiny_SDK_Linux//lwm2m/core/er-coap-13/er-coap-13.c **** 
1058:/home/baikal/workspace/C50/Huawei_IoT_Agent_Tiny_SDK_Linux//lwm2m/core/er-coap-13/er-coap-13.c **** int
GAS LISTING /tmp/ccSAldBr.s 			page 80


1059:/home/baikal/workspace/C50/Huawei_IoT_Agent_Tiny_SDK_Linux//lwm2m/core/er-coap-13/er-coap-13.c **** coap_set_header_if_none_match(void *packet)
1060:/home/baikal/workspace/C50/Huawei_IoT_Agent_Tiny_SDK_Linux//lwm2m/core/er-coap-13/er-coap-13.c **** {
 2915              		.loc 1 1060 0
 2916              		.cfi_startproc
 2917              	.LVL376:
1061:/home/baikal/workspace/C50/Huawei_IoT_Agent_Tiny_SDK_Linux//lwm2m/core/er-coap-13/er-coap-13.c ****     SET_OPTION((coap_packet_t *)packet, COAP_OPTION_IF_NONE_MATCH);
 2918              		.loc 1 1061 0
 2919 0000 804F1420 		orb	$32, 20(%rdi)
1062:/home/baikal/workspace/C50/Huawei_IoT_Agent_Tiny_SDK_Linux//lwm2m/core/er-coap-13/er-coap-13.c ****     return 1;
1063:/home/baikal/workspace/C50/Huawei_IoT_Agent_Tiny_SDK_Linux//lwm2m/core/er-coap-13/er-coap-13.c **** }
 2920              		.loc 1 1063 0
 2921 0004 B8010000 		movl	$1, %eax
 2921      00
 2922 0009 C3       		ret
 2923              		.cfi_endproc
 2924              	.LFE95:
 2926              		.section	.text.coap_get_header_token,"ax",@progbits
 2927              		.globl	coap_get_header_token
 2929              	coap_get_header_token:
 2930              	.LFB96:
1064:/home/baikal/workspace/C50/Huawei_IoT_Agent_Tiny_SDK_Linux//lwm2m/core/er-coap-13/er-coap-13.c **** /*-----------------------------------------------------------------------------------*/
1065:/home/baikal/workspace/C50/Huawei_IoT_Agent_Tiny_SDK_Linux//lwm2m/core/er-coap-13/er-coap-13.c **** int
1066:/home/baikal/workspace/C50/Huawei_IoT_Agent_Tiny_SDK_Linux//lwm2m/core/er-coap-13/er-coap-13.c **** coap_get_header_token(void *packet, const uint8_t **token)
1067:/home/baikal/workspace/C50/Huawei_IoT_Agent_Tiny_SDK_Linux//lwm2m/core/er-coap-13/er-coap-13.c **** {
 2931              		.loc 1 1067 0
 2932              		.cfi_startproc
 2933              	.LVL377:
1068:/home/baikal/workspace/C50/Huawei_IoT_Agent_Tiny_SDK_Linux//lwm2m/core/er-coap-13/er-coap-13.c ****     coap_packet_t *const coap_pkt = (coap_packet_t *) packet;
1069:/home/baikal/workspace/C50/Huawei_IoT_Agent_Tiny_SDK_Linux//lwm2m/core/er-coap-13/er-coap-13.c **** 
1070:/home/baikal/workspace/C50/Huawei_IoT_Agent_Tiny_SDK_Linux//lwm2m/core/er-coap-13/er-coap-13.c ****     if (!IS_OPTION(coap_pkt, COAP_OPTION_TOKEN)) return 0;
 2934              		.loc 1 1070 0
 2935 0000 F6471608 		testb	$8, 22(%rdi)
 2936 0004 7412     		je	.L215
1071:/home/baikal/workspace/C50/Huawei_IoT_Agent_Tiny_SDK_Linux//lwm2m/core/er-coap-13/er-coap-13.c **** 
1072:/home/baikal/workspace/C50/Huawei_IoT_Agent_Tiny_SDK_Linux//lwm2m/core/er-coap-13/er-coap-13.c ****     *token = coap_pkt->token;
 2937              		.loc 1 1072 0
 2938 0006 488D8785 		leaq	133(%rdi), %rax
 2938      000000
 2939 000d 488906   		movq	%rax, (%rsi)
1073:/home/baikal/workspace/C50/Huawei_IoT_Agent_Tiny_SDK_Linux//lwm2m/core/er-coap-13/er-coap-13.c ****     return coap_pkt->token_len;
 2940              		.loc 1 1073 0
 2941 0010 0FB68784 		movzbl	132(%rdi), %eax
 2941      000000
 2942 0017 C3       		ret
 2943              	.L215:
1070:/home/baikal/workspace/C50/Huawei_IoT_Agent_Tiny_SDK_Linux//lwm2m/core/er-coap-13/er-coap-13.c **** 
 2944              		.loc 1 1070 0
 2945 0018 B8000000 		movl	$0, %eax
 2945      00
1074:/home/baikal/workspace/C50/Huawei_IoT_Agent_Tiny_SDK_Linux//lwm2m/core/er-coap-13/er-coap-13.c **** }
 2946              		.loc 1 1074 0
 2947 001d C3       		ret
 2948              		.cfi_endproc
 2949              	.LFE96:
 2951              		.section	.text.coap_set_header_token,"ax",@progbits
 2952              		.globl	coap_set_header_token
 2954              	coap_set_header_token:
GAS LISTING /tmp/ccSAldBr.s 			page 81


 2955              	.LFB97:
1075:/home/baikal/workspace/C50/Huawei_IoT_Agent_Tiny_SDK_Linux//lwm2m/core/er-coap-13/er-coap-13.c **** 
1076:/home/baikal/workspace/C50/Huawei_IoT_Agent_Tiny_SDK_Linux//lwm2m/core/er-coap-13/er-coap-13.c **** int
1077:/home/baikal/workspace/C50/Huawei_IoT_Agent_Tiny_SDK_Linux//lwm2m/core/er-coap-13/er-coap-13.c **** coap_set_header_token(void *packet, const uint8_t *token, size_t token_len)
1078:/home/baikal/workspace/C50/Huawei_IoT_Agent_Tiny_SDK_Linux//lwm2m/core/er-coap-13/er-coap-13.c **** {
 2956              		.loc 1 1078 0
 2957              		.cfi_startproc
 2958              	.LVL378:
 2959 0000 53       		pushq	%rbx
 2960              	.LCFI120:
 2961              		.cfi_def_cfa_offset 16
 2962              		.cfi_offset 3, -16
 2963 0001 4889FB   		movq	%rdi, %rbx
 2964              	.LVL379:
1079:/home/baikal/workspace/C50/Huawei_IoT_Agent_Tiny_SDK_Linux//lwm2m/core/er-coap-13/er-coap-13.c ****     coap_packet_t *const coap_pkt = (coap_packet_t *) packet;
1080:/home/baikal/workspace/C50/Huawei_IoT_Agent_Tiny_SDK_Linux//lwm2m/core/er-coap-13/er-coap-13.c **** 
1081:/home/baikal/workspace/C50/Huawei_IoT_Agent_Tiny_SDK_Linux//lwm2m/core/er-coap-13/er-coap-13.c ****     coap_pkt->token_len = (uint8_t)(MIN(COAP_TOKEN_LEN, token_len));
 2965              		.loc 1 1081 0
 2966 0004 4883FA08 		cmpq	$8, %rdx
 2967 0008 7605     		jbe	.L217
 2968 000a BA080000 		movl	$8, %edx
 2968      00
 2969              	.LVL380:
 2970              	.L217:
 2971              		.loc 1 1081 0 is_stmt 0 discriminator 4
 2972 000f 88938400 		movb	%dl, 132(%rbx)
 2972      0000
1082:/home/baikal/workspace/C50/Huawei_IoT_Agent_Tiny_SDK_Linux//lwm2m/core/er-coap-13/er-coap-13.c ****     memcpy(coap_pkt->token, token, coap_pkt->token_len);
 2973              		.loc 1 1082 0 is_stmt 1 discriminator 4
 2974 0015 0FB6D2   		movzbl	%dl, %edx
 2975 0018 488DBB85 		leaq	133(%rbx), %rdi
 2975      000000
 2976              	.LVL381:
 2977              	.LBB79:
 2978              	.LBB80:
  53:/usr/include/x86_64-linux-gnu/bits/string3.h **** }
 2979              		.loc 2 53 0 discriminator 4
 2980 001f E8000000 		call	memcpy
 2980      00
 2981              	.LVL382:
 2982              	.LBE80:
 2983              	.LBE79:
1083:/home/baikal/workspace/C50/Huawei_IoT_Agent_Tiny_SDK_Linux//lwm2m/core/er-coap-13/er-coap-13.c **** 
1084:/home/baikal/workspace/C50/Huawei_IoT_Agent_Tiny_SDK_Linux//lwm2m/core/er-coap-13/er-coap-13.c ****     SET_OPTION(coap_pkt, COAP_OPTION_TOKEN);
 2984              		.loc 1 1084 0 discriminator 4
 2985 0024 804B1608 		orb	$8, 22(%rbx)
1085:/home/baikal/workspace/C50/Huawei_IoT_Agent_Tiny_SDK_Linux//lwm2m/core/er-coap-13/er-coap-13.c ****     return coap_pkt->token_len;
 2986              		.loc 1 1085 0 discriminator 4
 2987 0028 0FB68384 		movzbl	132(%rbx), %eax
 2987      000000
1086:/home/baikal/workspace/C50/Huawei_IoT_Agent_Tiny_SDK_Linux//lwm2m/core/er-coap-13/er-coap-13.c **** }
 2988              		.loc 1 1086 0 discriminator 4
 2989 002f 5B       		popq	%rbx
 2990              	.LCFI121:
 2991              		.cfi_def_cfa_offset 8
 2992              	.LVL383:
 2993 0030 C3       		ret
GAS LISTING /tmp/ccSAldBr.s 			page 82


 2994              		.cfi_endproc
 2995              	.LFE97:
 2997              		.section	.text.coap_get_header_proxy_uri,"ax",@progbits
 2998              		.globl	coap_get_header_proxy_uri
 3000              	coap_get_header_proxy_uri:
 3001              	.LFB98:
1087:/home/baikal/workspace/C50/Huawei_IoT_Agent_Tiny_SDK_Linux//lwm2m/core/er-coap-13/er-coap-13.c **** /*-----------------------------------------------------------------------------------*/
1088:/home/baikal/workspace/C50/Huawei_IoT_Agent_Tiny_SDK_Linux//lwm2m/core/er-coap-13/er-coap-13.c **** int
1089:/home/baikal/workspace/C50/Huawei_IoT_Agent_Tiny_SDK_Linux//lwm2m/core/er-coap-13/er-coap-13.c **** coap_get_header_proxy_uri(void *packet, const char **uri)
1090:/home/baikal/workspace/C50/Huawei_IoT_Agent_Tiny_SDK_Linux//lwm2m/core/er-coap-13/er-coap-13.c **** {
 3002              		.loc 1 1090 0
 3003              		.cfi_startproc
 3004              	.LVL384:
1091:/home/baikal/workspace/C50/Huawei_IoT_Agent_Tiny_SDK_Linux//lwm2m/core/er-coap-13/er-coap-13.c ****     coap_packet_t *const coap_pkt = (coap_packet_t *) packet;
1092:/home/baikal/workspace/C50/Huawei_IoT_Agent_Tiny_SDK_Linux//lwm2m/core/er-coap-13/er-coap-13.c **** 
1093:/home/baikal/workspace/C50/Huawei_IoT_Agent_Tiny_SDK_Linux//lwm2m/core/er-coap-13/er-coap-13.c ****     if (!IS_OPTION(coap_pkt, COAP_OPTION_PROXY_URI)) return 0;
 3005              		.loc 1 1093 0
 3006 0000 F6471808 		testb	$8, 24(%rdi)
 3007 0004 740B     		je	.L222
1094:/home/baikal/workspace/C50/Huawei_IoT_Agent_Tiny_SDK_Linux//lwm2m/core/er-coap-13/er-coap-13.c **** 
1095:/home/baikal/workspace/C50/Huawei_IoT_Agent_Tiny_SDK_Linux//lwm2m/core/er-coap-13/er-coap-13.c ****     *uri = (const char *)coap_pkt->proxy_uri;
 3008              		.loc 1 1095 0
 3009 0006 488B4730 		movq	48(%rdi), %rax
 3010 000a 488906   		movq	%rax, (%rsi)
1096:/home/baikal/workspace/C50/Huawei_IoT_Agent_Tiny_SDK_Linux//lwm2m/core/er-coap-13/er-coap-13.c ****     return coap_pkt->proxy_uri_len;
 3011              		.loc 1 1096 0
 3012 000d 8B4728   		movl	40(%rdi), %eax
 3013 0010 C3       		ret
 3014              	.L222:
1093:/home/baikal/workspace/C50/Huawei_IoT_Agent_Tiny_SDK_Linux//lwm2m/core/er-coap-13/er-coap-13.c **** 
 3015              		.loc 1 1093 0
 3016 0011 B8000000 		movl	$0, %eax
 3016      00
1097:/home/baikal/workspace/C50/Huawei_IoT_Agent_Tiny_SDK_Linux//lwm2m/core/er-coap-13/er-coap-13.c **** }
 3017              		.loc 1 1097 0
 3018 0016 C3       		ret
 3019              		.cfi_endproc
 3020              	.LFE98:
 3022              		.section	.text.coap_set_header_proxy_uri,"ax",@progbits
 3023              		.globl	coap_set_header_proxy_uri
 3025              	coap_set_header_proxy_uri:
 3026              	.LFB99:
1098:/home/baikal/workspace/C50/Huawei_IoT_Agent_Tiny_SDK_Linux//lwm2m/core/er-coap-13/er-coap-13.c **** 
1099:/home/baikal/workspace/C50/Huawei_IoT_Agent_Tiny_SDK_Linux//lwm2m/core/er-coap-13/er-coap-13.c **** int
1100:/home/baikal/workspace/C50/Huawei_IoT_Agent_Tiny_SDK_Linux//lwm2m/core/er-coap-13/er-coap-13.c **** coap_set_header_proxy_uri(void *packet, const char *uri)
1101:/home/baikal/workspace/C50/Huawei_IoT_Agent_Tiny_SDK_Linux//lwm2m/core/er-coap-13/er-coap-13.c **** {
 3027              		.loc 1 1101 0
 3028              		.cfi_startproc
 3029              	.LVL385:
 3030 0000 4889FA   		movq	%rdi, %rdx
 3031              	.LVL386:
1102:/home/baikal/workspace/C50/Huawei_IoT_Agent_Tiny_SDK_Linux//lwm2m/core/er-coap-13/er-coap-13.c ****     coap_packet_t *const coap_pkt = (coap_packet_t *) packet;
1103:/home/baikal/workspace/C50/Huawei_IoT_Agent_Tiny_SDK_Linux//lwm2m/core/er-coap-13/er-coap-13.c **** 
1104:/home/baikal/workspace/C50/Huawei_IoT_Agent_Tiny_SDK_Linux//lwm2m/core/er-coap-13/er-coap-13.c ****     coap_pkt->proxy_uri = (uint8_t *)uri;
 3032              		.loc 1 1104 0
 3033 0003 48897730 		movq	%rsi, 48(%rdi)
1105:/home/baikal/workspace/C50/Huawei_IoT_Agent_Tiny_SDK_Linux//lwm2m/core/er-coap-13/er-coap-13.c ****     coap_pkt->proxy_uri_len = strlen(uri);
GAS LISTING /tmp/ccSAldBr.s 			page 83


 3034              		.loc 1 1105 0
 3035 0007 B8000000 		movl	$0, %eax
 3035      00
 3036 000c 48C7C1FF 		movq	$-1, %rcx
 3036      FFFFFF
 3037 0013 4889F7   		movq	%rsi, %rdi
 3038              	.LVL387:
 3039 0016 F2AE     		repnz scasb
 3040              	.LVL388:
 3041 0018 4889C8   		movq	%rcx, %rax
 3042 001b 48F7D0   		notq	%rax
 3043 001e 4883E801 		subq	$1, %rax
 3044 0022 48894228 		movq	%rax, 40(%rdx)
1106:/home/baikal/workspace/C50/Huawei_IoT_Agent_Tiny_SDK_Linux//lwm2m/core/er-coap-13/er-coap-13.c **** 
1107:/home/baikal/workspace/C50/Huawei_IoT_Agent_Tiny_SDK_Linux//lwm2m/core/er-coap-13/er-coap-13.c ****     SET_OPTION(coap_pkt, COAP_OPTION_PROXY_URI);
 3045              		.loc 1 1107 0
 3046 0026 804A1808 		orb	$8, 24(%rdx)
1108:/home/baikal/workspace/C50/Huawei_IoT_Agent_Tiny_SDK_Linux//lwm2m/core/er-coap-13/er-coap-13.c ****     return coap_pkt->proxy_uri_len;
1109:/home/baikal/workspace/C50/Huawei_IoT_Agent_Tiny_SDK_Linux//lwm2m/core/er-coap-13/er-coap-13.c **** }
 3047              		.loc 1 1109 0
 3048 002a C3       		ret
 3049              		.cfi_endproc
 3050              	.LFE99:
 3052              		.section	.text.coap_get_header_uri_host,"ax",@progbits
 3053              		.globl	coap_get_header_uri_host
 3055              	coap_get_header_uri_host:
 3056              	.LFB100:
1110:/home/baikal/workspace/C50/Huawei_IoT_Agent_Tiny_SDK_Linux//lwm2m/core/er-coap-13/er-coap-13.c **** /*-----------------------------------------------------------------------------------*/
1111:/home/baikal/workspace/C50/Huawei_IoT_Agent_Tiny_SDK_Linux//lwm2m/core/er-coap-13/er-coap-13.c **** int
1112:/home/baikal/workspace/C50/Huawei_IoT_Agent_Tiny_SDK_Linux//lwm2m/core/er-coap-13/er-coap-13.c **** coap_get_header_uri_host(void *packet, const char **host)
1113:/home/baikal/workspace/C50/Huawei_IoT_Agent_Tiny_SDK_Linux//lwm2m/core/er-coap-13/er-coap-13.c **** {
 3057              		.loc 1 1113 0
 3058              		.cfi_startproc
 3059              	.LVL389:
1114:/home/baikal/workspace/C50/Huawei_IoT_Agent_Tiny_SDK_Linux//lwm2m/core/er-coap-13/er-coap-13.c ****     coap_packet_t *const coap_pkt = (coap_packet_t *) packet;
1115:/home/baikal/workspace/C50/Huawei_IoT_Agent_Tiny_SDK_Linux//lwm2m/core/er-coap-13/er-coap-13.c **** 
1116:/home/baikal/workspace/C50/Huawei_IoT_Agent_Tiny_SDK_Linux//lwm2m/core/er-coap-13/er-coap-13.c ****     if (!IS_OPTION(coap_pkt, COAP_OPTION_URI_HOST)) return 0;
 3060              		.loc 1 1116 0
 3061 0000 F6471408 		testb	$8, 20(%rdi)
 3062 0004 740B     		je	.L226
1117:/home/baikal/workspace/C50/Huawei_IoT_Agent_Tiny_SDK_Linux//lwm2m/core/er-coap-13/er-coap-13.c **** 
1118:/home/baikal/workspace/C50/Huawei_IoT_Agent_Tiny_SDK_Linux//lwm2m/core/er-coap-13/er-coap-13.c ****     *host = (char *)coap_pkt->uri_host;
 3063              		.loc 1 1118 0
 3064 0006 488B4750 		movq	80(%rdi), %rax
 3065 000a 488906   		movq	%rax, (%rsi)
1119:/home/baikal/workspace/C50/Huawei_IoT_Agent_Tiny_SDK_Linux//lwm2m/core/er-coap-13/er-coap-13.c ****     return coap_pkt->uri_host_len;
 3066              		.loc 1 1119 0
 3067 000d 8B4748   		movl	72(%rdi), %eax
 3068 0010 C3       		ret
 3069              	.L226:
1116:/home/baikal/workspace/C50/Huawei_IoT_Agent_Tiny_SDK_Linux//lwm2m/core/er-coap-13/er-coap-13.c **** 
 3070              		.loc 1 1116 0
 3071 0011 B8000000 		movl	$0, %eax
 3071      00
1120:/home/baikal/workspace/C50/Huawei_IoT_Agent_Tiny_SDK_Linux//lwm2m/core/er-coap-13/er-coap-13.c **** }
 3072              		.loc 1 1120 0
 3073 0016 C3       		ret
GAS LISTING /tmp/ccSAldBr.s 			page 84


 3074              		.cfi_endproc
 3075              	.LFE100:
 3077              		.section	.text.coap_set_header_uri_host,"ax",@progbits
 3078              		.globl	coap_set_header_uri_host
 3080              	coap_set_header_uri_host:
 3081              	.LFB101:
1121:/home/baikal/workspace/C50/Huawei_IoT_Agent_Tiny_SDK_Linux//lwm2m/core/er-coap-13/er-coap-13.c **** 
1122:/home/baikal/workspace/C50/Huawei_IoT_Agent_Tiny_SDK_Linux//lwm2m/core/er-coap-13/er-coap-13.c **** int
1123:/home/baikal/workspace/C50/Huawei_IoT_Agent_Tiny_SDK_Linux//lwm2m/core/er-coap-13/er-coap-13.c **** coap_set_header_uri_host(void *packet, const char *host)
1124:/home/baikal/workspace/C50/Huawei_IoT_Agent_Tiny_SDK_Linux//lwm2m/core/er-coap-13/er-coap-13.c **** {
 3082              		.loc 1 1124 0
 3083              		.cfi_startproc
 3084              	.LVL390:
 3085 0000 4889FA   		movq	%rdi, %rdx
 3086              	.LVL391:
1125:/home/baikal/workspace/C50/Huawei_IoT_Agent_Tiny_SDK_Linux//lwm2m/core/er-coap-13/er-coap-13.c ****     coap_packet_t *const coap_pkt = (coap_packet_t *) packet;
1126:/home/baikal/workspace/C50/Huawei_IoT_Agent_Tiny_SDK_Linux//lwm2m/core/er-coap-13/er-coap-13.c **** 
1127:/home/baikal/workspace/C50/Huawei_IoT_Agent_Tiny_SDK_Linux//lwm2m/core/er-coap-13/er-coap-13.c ****     coap_pkt->uri_host = (uint8_t *)host;
 3087              		.loc 1 1127 0
 3088 0003 48897750 		movq	%rsi, 80(%rdi)
1128:/home/baikal/workspace/C50/Huawei_IoT_Agent_Tiny_SDK_Linux//lwm2m/core/er-coap-13/er-coap-13.c ****     coap_pkt->uri_host_len = strlen(host);
 3089              		.loc 1 1128 0
 3090 0007 B8000000 		movl	$0, %eax
 3090      00
 3091 000c 48C7C1FF 		movq	$-1, %rcx
 3091      FFFFFF
 3092 0013 4889F7   		movq	%rsi, %rdi
 3093              	.LVL392:
 3094 0016 F2AE     		repnz scasb
 3095              	.LVL393:
 3096 0018 4889C8   		movq	%rcx, %rax
 3097 001b 48F7D0   		notq	%rax
 3098 001e 4883E801 		subq	$1, %rax
 3099 0022 48894248 		movq	%rax, 72(%rdx)
1129:/home/baikal/workspace/C50/Huawei_IoT_Agent_Tiny_SDK_Linux//lwm2m/core/er-coap-13/er-coap-13.c **** 
1130:/home/baikal/workspace/C50/Huawei_IoT_Agent_Tiny_SDK_Linux//lwm2m/core/er-coap-13/er-coap-13.c ****     SET_OPTION(coap_pkt, COAP_OPTION_URI_HOST);
 3100              		.loc 1 1130 0
 3101 0026 804A1408 		orb	$8, 20(%rdx)
1131:/home/baikal/workspace/C50/Huawei_IoT_Agent_Tiny_SDK_Linux//lwm2m/core/er-coap-13/er-coap-13.c ****     return coap_pkt->uri_host_len;
1132:/home/baikal/workspace/C50/Huawei_IoT_Agent_Tiny_SDK_Linux//lwm2m/core/er-coap-13/er-coap-13.c **** }
 3102              		.loc 1 1132 0
 3103 002a C3       		ret
 3104              		.cfi_endproc
 3105              	.LFE101:
 3107              		.section	.text.coap_get_header_uri_path,"ax",@progbits
 3108              		.globl	coap_get_header_uri_path
 3110              	coap_get_header_uri_path:
 3111              	.LFB102:
1133:/home/baikal/workspace/C50/Huawei_IoT_Agent_Tiny_SDK_Linux//lwm2m/core/er-coap-13/er-coap-13.c **** /*-----------------------------------------------------------------------------------*/
1134:/home/baikal/workspace/C50/Huawei_IoT_Agent_Tiny_SDK_Linux//lwm2m/core/er-coap-13/er-coap-13.c **** int
1135:/home/baikal/workspace/C50/Huawei_IoT_Agent_Tiny_SDK_Linux//lwm2m/core/er-coap-13/er-coap-13.c **** coap_get_header_uri_path(void *packet, const char **path)
1136:/home/baikal/workspace/C50/Huawei_IoT_Agent_Tiny_SDK_Linux//lwm2m/core/er-coap-13/er-coap-13.c **** {
 3112              		.loc 1 1136 0
 3113              		.cfi_startproc
 3114              	.LVL394:
1137:/home/baikal/workspace/C50/Huawei_IoT_Agent_Tiny_SDK_Linux//lwm2m/core/er-coap-13/er-coap-13.c ****     coap_packet_t *const coap_pkt = (coap_packet_t *) packet;
1138:/home/baikal/workspace/C50/Huawei_IoT_Agent_Tiny_SDK_Linux//lwm2m/core/er-coap-13/er-coap-13.c **** 
GAS LISTING /tmp/ccSAldBr.s 			page 85


1139:/home/baikal/workspace/C50/Huawei_IoT_Agent_Tiny_SDK_Linux//lwm2m/core/er-coap-13/er-coap-13.c ****     if (!IS_OPTION(coap_pkt, COAP_OPTION_URI_PATH)) return 0;
 3115              		.loc 1 1139 0
 3116 0000 F6471508 		testb	$8, 21(%rdi)
 3117 0004 7407     		je	.L229
1140:/home/baikal/workspace/C50/Huawei_IoT_Agent_Tiny_SDK_Linux//lwm2m/core/er-coap-13/er-coap-13.c **** 
1141:/home/baikal/workspace/C50/Huawei_IoT_Agent_Tiny_SDK_Linux//lwm2m/core/er-coap-13/er-coap-13.c ****     *path = NULL; //coap_pkt->uri_path;
 3118              		.loc 1 1141 0
 3119 0006 48C70600 		movq	$0, (%rsi)
 3119      000000
 3120              	.L229:
1142:/home/baikal/workspace/C50/Huawei_IoT_Agent_Tiny_SDK_Linux//lwm2m/core/er-coap-13/er-coap-13.c ****     return 0; //coap_pkt->uri_path_len;
1143:/home/baikal/workspace/C50/Huawei_IoT_Agent_Tiny_SDK_Linux//lwm2m/core/er-coap-13/er-coap-13.c **** }
 3121              		.loc 1 1143 0
 3122 000d B8000000 		movl	$0, %eax
 3122      00
 3123 0012 C3       		ret
 3124              		.cfi_endproc
 3125              	.LFE102:
 3127              		.section	.text.coap_set_header_uri_path,"ax",@progbits
 3128              		.globl	coap_set_header_uri_path
 3130              	coap_set_header_uri_path:
 3131              	.LFB103:
1144:/home/baikal/workspace/C50/Huawei_IoT_Agent_Tiny_SDK_Linux//lwm2m/core/er-coap-13/er-coap-13.c **** 
1145:/home/baikal/workspace/C50/Huawei_IoT_Agent_Tiny_SDK_Linux//lwm2m/core/er-coap-13/er-coap-13.c **** int
1146:/home/baikal/workspace/C50/Huawei_IoT_Agent_Tiny_SDK_Linux//lwm2m/core/er-coap-13/er-coap-13.c **** coap_set_header_uri_path(void *packet, const char *path)
1147:/home/baikal/workspace/C50/Huawei_IoT_Agent_Tiny_SDK_Linux//lwm2m/core/er-coap-13/er-coap-13.c **** {
 3132              		.loc 1 1147 0
 3133              		.cfi_startproc
 3134              	.LVL395:
 3135 0000 4156     		pushq	%r14
 3136              	.LCFI122:
 3137              		.cfi_def_cfa_offset 16
 3138              		.cfi_offset 14, -16
 3139 0002 4155     		pushq	%r13
 3140              	.LCFI123:
 3141              		.cfi_def_cfa_offset 24
 3142              		.cfi_offset 13, -24
 3143 0004 4154     		pushq	%r12
 3144              	.LCFI124:
 3145              		.cfi_def_cfa_offset 32
 3146              		.cfi_offset 12, -32
 3147 0006 55       		pushq	%rbp
 3148              	.LCFI125:
 3149              		.cfi_def_cfa_offset 40
 3150              		.cfi_offset 6, -40
 3151 0007 53       		pushq	%rbx
 3152              	.LCFI126:
 3153              		.cfi_def_cfa_offset 48
 3154              		.cfi_offset 3, -48
 3155 0008 4989FE   		movq	%rdi, %r14
 3156 000b 4989F4   		movq	%rsi, %r12
 3157              	.LVL396:
1148:/home/baikal/workspace/C50/Huawei_IoT_Agent_Tiny_SDK_Linux//lwm2m/core/er-coap-13/er-coap-13.c ****     coap_packet_t *coap_pkt = (coap_packet_t *) packet;
1149:/home/baikal/workspace/C50/Huawei_IoT_Agent_Tiny_SDK_Linux//lwm2m/core/er-coap-13/er-coap-13.c ****     int length = 0;
1150:/home/baikal/workspace/C50/Huawei_IoT_Agent_Tiny_SDK_Linux//lwm2m/core/er-coap-13/er-coap-13.c **** 
1151:/home/baikal/workspace/C50/Huawei_IoT_Agent_Tiny_SDK_Linux//lwm2m/core/er-coap-13/er-coap-13.c ****     free_multi_option(coap_pkt->uri_path);
 3158              		.loc 1 1151 0
GAS LISTING /tmp/ccSAldBr.s 			page 86


 3159 000e 488B7F78 		movq	120(%rdi), %rdi
 3160              	.LVL397:
 3161 0012 E8000000 		call	free_multi_option
 3161      00
 3162              	.LVL398:
1152:/home/baikal/workspace/C50/Huawei_IoT_Agent_Tiny_SDK_Linux//lwm2m/core/er-coap-13/er-coap-13.c ****     coap_pkt->uri_path = NULL;
 3163              		.loc 1 1152 0
 3164 0017 49C74678 		movq	$0, 120(%r14)
 3164      00000000 
1153:/home/baikal/workspace/C50/Huawei_IoT_Agent_Tiny_SDK_Linux//lwm2m/core/er-coap-13/er-coap-13.c **** 
1154:/home/baikal/workspace/C50/Huawei_IoT_Agent_Tiny_SDK_Linux//lwm2m/core/er-coap-13/er-coap-13.c ****     if (path[0] == '/') ++path;
 3165              		.loc 1 1154 0
 3166 001f 41803C24 		cmpb	$47, (%r12)
 3166      2F
 3167 0024 7504     		jne	.L231
 3168              		.loc 1 1154 0 is_stmt 0 discriminator 1
 3169 0026 4983C401 		addq	$1, %r12
 3170              	.LVL399:
 3171              	.L231:
1147:/home/baikal/workspace/C50/Huawei_IoT_Agent_Tiny_SDK_Linux//lwm2m/core/er-coap-13/er-coap-13.c ****     coap_packet_t *coap_pkt = (coap_packet_t *) packet;
 3172              		.loc 1 1147 0 is_stmt 1
 3173 002a 41BD0000 		movl	$0, %r13d
 3173      0000
 3174              	.LVL400:
 3175              	.L235:
 3176              	.LBB81:
1155:/home/baikal/workspace/C50/Huawei_IoT_Agent_Tiny_SDK_Linux//lwm2m/core/er-coap-13/er-coap-13.c **** 
1156:/home/baikal/workspace/C50/Huawei_IoT_Agent_Tiny_SDK_Linux//lwm2m/core/er-coap-13/er-coap-13.c ****     do
1157:/home/baikal/workspace/C50/Huawei_IoT_Agent_Tiny_SDK_Linux//lwm2m/core/er-coap-13/er-coap-13.c ****     {
1158:/home/baikal/workspace/C50/Huawei_IoT_Agent_Tiny_SDK_Linux//lwm2m/core/er-coap-13/er-coap-13.c ****         int i = 0;
 3177              		.loc 1 1158 0
 3178 0030 BB000000 		movl	$0, %ebx
 3178      00
1159:/home/baikal/workspace/C50/Huawei_IoT_Agent_Tiny_SDK_Linux//lwm2m/core/er-coap-13/er-coap-13.c **** 
1160:/home/baikal/workspace/C50/Huawei_IoT_Agent_Tiny_SDK_Linux//lwm2m/core/er-coap-13/er-coap-13.c ****         while (path[i] != 0 && path[i] != '/') i++;
 3179              		.loc 1 1160 0
 3180 0035 EB03     		jmp	.L232
 3181              	.LVL401:
 3182              	.L233:
 3183              		.loc 1 1160 0 is_stmt 0 discriminator 2
 3184 0037 83C301   		addl	$1, %ebx
 3185              	.LVL402:
 3186              	.L232:
 3187              		.loc 1 1160 0 discriminator 1
 3188 003a 4863D3   		movslq	%ebx, %rdx
 3189 003d 498D2C14 		leaq	(%r12,%rdx), %rbp
 3190 0041 0FB64500 		movzbl	0(%rbp), %eax
 3191 0045 84C0     		testb	%al, %al
 3192 0047 0F95C1   		setne	%cl
 3193 004a 3C2F     		cmpb	$47, %al
 3194 004c 0F95C0   		setne	%al
 3195 004f 84C1     		testb	%al, %cl
 3196 0051 75E4     		jne	.L233
1161:/home/baikal/workspace/C50/Huawei_IoT_Agent_Tiny_SDK_Linux//lwm2m/core/er-coap-13/er-coap-13.c ****         coap_add_multi_option(&(coap_pkt->uri_path), (uint8_t *)path, i, 0);
 3197              		.loc 1 1161 0 is_stmt 1
 3198 0053 498D7E78 		leaq	120(%r14), %rdi
 3199 0057 B9000000 		movl	$0, %ecx
GAS LISTING /tmp/ccSAldBr.s 			page 87


 3199      00
 3200 005c 4C89E6   		movq	%r12, %rsi
 3201 005f E8000000 		call	coap_add_multi_option
 3201      00
 3202              	.LVL403:
1162:/home/baikal/workspace/C50/Huawei_IoT_Agent_Tiny_SDK_Linux//lwm2m/core/er-coap-13/er-coap-13.c **** 
1163:/home/baikal/workspace/C50/Huawei_IoT_Agent_Tiny_SDK_Linux//lwm2m/core/er-coap-13/er-coap-13.c ****         if (path[i] == '/') i++;
 3203              		.loc 1 1163 0
 3204 0064 807D002F 		cmpb	$47, 0(%rbp)
 3205 0068 7503     		jne	.L234
 3206              		.loc 1 1163 0 is_stmt 0 discriminator 1
 3207 006a 83C301   		addl	$1, %ebx
 3208              	.LVL404:
 3209              	.L234:
1164:/home/baikal/workspace/C50/Huawei_IoT_Agent_Tiny_SDK_Linux//lwm2m/core/er-coap-13/er-coap-13.c ****         path += i;
 3210              		.loc 1 1164 0 is_stmt 1
 3211 006d 4863C3   		movslq	%ebx, %rax
 3212 0070 4901C4   		addq	%rax, %r12
 3213              	.LVL405:
1165:/home/baikal/workspace/C50/Huawei_IoT_Agent_Tiny_SDK_Linux//lwm2m/core/er-coap-13/er-coap-13.c ****         length += i;
 3214              		.loc 1 1165 0
 3215 0073 4101DD   		addl	%ebx, %r13d
 3216              	.LVL406:
 3217              	.LBE81:
1166:/home/baikal/workspace/C50/Huawei_IoT_Agent_Tiny_SDK_Linux//lwm2m/core/er-coap-13/er-coap-13.c ****     }
1167:/home/baikal/workspace/C50/Huawei_IoT_Agent_Tiny_SDK_Linux//lwm2m/core/er-coap-13/er-coap-13.c ****     while (path[0] != 0);
 3218              		.loc 1 1167 0
 3219 0076 41803C24 		cmpb	$0, (%r12)
 3219      00
 3220 007b 75B3     		jne	.L235
1168:/home/baikal/workspace/C50/Huawei_IoT_Agent_Tiny_SDK_Linux//lwm2m/core/er-coap-13/er-coap-13.c **** 
1169:/home/baikal/workspace/C50/Huawei_IoT_Agent_Tiny_SDK_Linux//lwm2m/core/er-coap-13/er-coap-13.c ****     SET_OPTION(coap_pkt, COAP_OPTION_URI_PATH);
 3221              		.loc 1 1169 0 discriminator 1
 3222 007d 41804E15 		orb	$8, 21(%r14)
 3222      08
1170:/home/baikal/workspace/C50/Huawei_IoT_Agent_Tiny_SDK_Linux//lwm2m/core/er-coap-13/er-coap-13.c ****     return length;
1171:/home/baikal/workspace/C50/Huawei_IoT_Agent_Tiny_SDK_Linux//lwm2m/core/er-coap-13/er-coap-13.c **** }
 3223              		.loc 1 1171 0 discriminator 1
 3224 0082 4489E8   		movl	%r13d, %eax
 3225 0085 5B       		popq	%rbx
 3226              	.LCFI127:
 3227              		.cfi_def_cfa_offset 40
 3228              	.LVL407:
 3229 0086 5D       		popq	%rbp
 3230              	.LCFI128:
 3231              		.cfi_def_cfa_offset 32
 3232 0087 415C     		popq	%r12
 3233              	.LCFI129:
 3234              		.cfi_def_cfa_offset 24
 3235              	.LVL408:
 3236 0089 415D     		popq	%r13
 3237              	.LCFI130:
 3238              		.cfi_def_cfa_offset 16
 3239              	.LVL409:
 3240 008b 415E     		popq	%r14
 3241              	.LCFI131:
 3242              		.cfi_def_cfa_offset 8
GAS LISTING /tmp/ccSAldBr.s 			page 88


 3243              	.LVL410:
 3244 008d C3       		ret
 3245              		.cfi_endproc
 3246              	.LFE103:
 3248              		.section	.text.coap_set_header_uri_path_segment,"ax",@progbits
 3249              		.globl	coap_set_header_uri_path_segment
 3251              	coap_set_header_uri_path_segment:
 3252              	.LFB104:
1172:/home/baikal/workspace/C50/Huawei_IoT_Agent_Tiny_SDK_Linux//lwm2m/core/er-coap-13/er-coap-13.c **** 
1173:/home/baikal/workspace/C50/Huawei_IoT_Agent_Tiny_SDK_Linux//lwm2m/core/er-coap-13/er-coap-13.c **** int
1174:/home/baikal/workspace/C50/Huawei_IoT_Agent_Tiny_SDK_Linux//lwm2m/core/er-coap-13/er-coap-13.c **** coap_set_header_uri_path_segment(void *packet, const char *segment)
1175:/home/baikal/workspace/C50/Huawei_IoT_Agent_Tiny_SDK_Linux//lwm2m/core/er-coap-13/er-coap-13.c **** {
 3253              		.loc 1 1175 0
 3254              		.cfi_startproc
 3255              	.LVL411:
 3256 0000 55       		pushq	%rbp
 3257              	.LCFI132:
 3258              		.cfi_def_cfa_offset 16
 3259              		.cfi_offset 6, -16
 3260 0001 53       		pushq	%rbx
 3261              	.LCFI133:
 3262              		.cfi_def_cfa_offset 24
 3263              		.cfi_offset 3, -24
 3264 0002 4883EC08 		subq	$8, %rsp
 3265              	.LCFI134:
 3266              		.cfi_def_cfa_offset 32
 3267 0006 4889FB   		movq	%rdi, %rbx
 3268              	.LVL412:
1176:/home/baikal/workspace/C50/Huawei_IoT_Agent_Tiny_SDK_Linux//lwm2m/core/er-coap-13/er-coap-13.c ****     coap_packet_t *coap_pkt = (coap_packet_t *) packet;
1177:/home/baikal/workspace/C50/Huawei_IoT_Agent_Tiny_SDK_Linux//lwm2m/core/er-coap-13/er-coap-13.c ****     int length;
1178:/home/baikal/workspace/C50/Huawei_IoT_Agent_Tiny_SDK_Linux//lwm2m/core/er-coap-13/er-coap-13.c **** 
1179:/home/baikal/workspace/C50/Huawei_IoT_Agent_Tiny_SDK_Linux//lwm2m/core/er-coap-13/er-coap-13.c ****     if (segment == NULL || segment[0] == 0)
 3269              		.loc 1 1179 0
 3270 0009 4885F6   		testq	%rsi, %rsi
 3271 000c 7405     		je	.L238
 3272              		.loc 1 1179 0 is_stmt 0 discriminator 1
 3273 000e 803E00   		cmpb	$0, (%rsi)
 3274 0011 751F     		jne	.L239
 3275              	.L238:
1180:/home/baikal/workspace/C50/Huawei_IoT_Agent_Tiny_SDK_Linux//lwm2m/core/er-coap-13/er-coap-13.c ****     {
1181:/home/baikal/workspace/C50/Huawei_IoT_Agent_Tiny_SDK_Linux//lwm2m/core/er-coap-13/er-coap-13.c ****         coap_add_multi_option(&(coap_pkt->uri_path), NULL, 0, 1);
 3276              		.loc 1 1181 0 is_stmt 1
 3277 0013 488D7B78 		leaq	120(%rbx), %rdi
 3278              	.LVL413:
 3279 0017 B9010000 		movl	$1, %ecx
 3279      00
 3280 001c BA000000 		movl	$0, %edx
 3280      00
 3281 0021 BE000000 		movl	$0, %esi
 3281      00
 3282              	.LVL414:
 3283 0026 E8000000 		call	coap_add_multi_option
 3283      00
 3284              	.LVL415:
1182:/home/baikal/workspace/C50/Huawei_IoT_Agent_Tiny_SDK_Linux//lwm2m/core/er-coap-13/er-coap-13.c ****         length = 0;
 3285              		.loc 1 1182 0
 3286 002b BD000000 		movl	$0, %ebp
GAS LISTING /tmp/ccSAldBr.s 			page 89


 3286      00
 3287 0030 EB2B     		jmp	.L240
 3288              	.LVL416:
 3289              	.L239:
1183:/home/baikal/workspace/C50/Huawei_IoT_Agent_Tiny_SDK_Linux//lwm2m/core/er-coap-13/er-coap-13.c ****     }
1184:/home/baikal/workspace/C50/Huawei_IoT_Agent_Tiny_SDK_Linux//lwm2m/core/er-coap-13/er-coap-13.c ****     else
1185:/home/baikal/workspace/C50/Huawei_IoT_Agent_Tiny_SDK_Linux//lwm2m/core/er-coap-13/er-coap-13.c ****     {
1186:/home/baikal/workspace/C50/Huawei_IoT_Agent_Tiny_SDK_Linux//lwm2m/core/er-coap-13/er-coap-13.c ****         length = strlen(segment);
 3290              		.loc 1 1186 0
 3291 0032 B8000000 		movl	$0, %eax
 3291      00
 3292 0037 48C7C1FF 		movq	$-1, %rcx
 3292      FFFFFF
 3293 003e 4889F7   		movq	%rsi, %rdi
 3294 0041 F2AE     		repnz scasb
 3295              	.LVL417:
 3296 0043 48F7D1   		notq	%rcx
 3297 0046 4883E901 		subq	$1, %rcx
 3298 004a 89CD     		movl	%ecx, %ebp
 3299              	.LVL418:
1187:/home/baikal/workspace/C50/Huawei_IoT_Agent_Tiny_SDK_Linux//lwm2m/core/er-coap-13/er-coap-13.c ****         coap_add_multi_option(&(coap_pkt->uri_path), (uint8_t *)segment, length, 0);
 3300              		.loc 1 1187 0
 3301 004c 4863D1   		movslq	%ecx, %rdx
 3302 004f 488D7B78 		leaq	120(%rbx), %rdi
 3303 0053 B9000000 		movl	$0, %ecx
 3303      00
 3304              	.LVL419:
 3305 0058 E8000000 		call	coap_add_multi_option
 3305      00
 3306              	.LVL420:
 3307              	.L240:
1188:/home/baikal/workspace/C50/Huawei_IoT_Agent_Tiny_SDK_Linux//lwm2m/core/er-coap-13/er-coap-13.c ****     }
1189:/home/baikal/workspace/C50/Huawei_IoT_Agent_Tiny_SDK_Linux//lwm2m/core/er-coap-13/er-coap-13.c **** 
1190:/home/baikal/workspace/C50/Huawei_IoT_Agent_Tiny_SDK_Linux//lwm2m/core/er-coap-13/er-coap-13.c ****     SET_OPTION(coap_pkt, COAP_OPTION_URI_PATH);
 3308              		.loc 1 1190 0 discriminator 1
 3309 005d 804B1508 		orb	$8, 21(%rbx)
1191:/home/baikal/workspace/C50/Huawei_IoT_Agent_Tiny_SDK_Linux//lwm2m/core/er-coap-13/er-coap-13.c ****     return length;
1192:/home/baikal/workspace/C50/Huawei_IoT_Agent_Tiny_SDK_Linux//lwm2m/core/er-coap-13/er-coap-13.c **** }
 3310              		.loc 1 1192 0 discriminator 1
 3311 0061 89E8     		movl	%ebp, %eax
 3312 0063 4883C408 		addq	$8, %rsp
 3313              	.LCFI135:
 3314              		.cfi_def_cfa_offset 24
 3315 0067 5B       		popq	%rbx
 3316              	.LCFI136:
 3317              		.cfi_def_cfa_offset 16
 3318              	.LVL421:
 3319 0068 5D       		popq	%rbp
 3320              	.LCFI137:
 3321              		.cfi_def_cfa_offset 8
 3322              	.LVL422:
 3323 0069 C3       		ret
 3324              		.cfi_endproc
 3325              	.LFE104:
 3327              		.section	.text.coap_get_header_uri_query,"ax",@progbits
 3328              		.globl	coap_get_header_uri_query
 3330              	coap_get_header_uri_query:
GAS LISTING /tmp/ccSAldBr.s 			page 90


 3331              	.LFB105:
1193:/home/baikal/workspace/C50/Huawei_IoT_Agent_Tiny_SDK_Linux//lwm2m/core/er-coap-13/er-coap-13.c **** /*-----------------------------------------------------------------------------------*/
1194:/home/baikal/workspace/C50/Huawei_IoT_Agent_Tiny_SDK_Linux//lwm2m/core/er-coap-13/er-coap-13.c **** int
1195:/home/baikal/workspace/C50/Huawei_IoT_Agent_Tiny_SDK_Linux//lwm2m/core/er-coap-13/er-coap-13.c **** coap_get_header_uri_query(void *packet, const char **query)
1196:/home/baikal/workspace/C50/Huawei_IoT_Agent_Tiny_SDK_Linux//lwm2m/core/er-coap-13/er-coap-13.c **** {
 3332              		.loc 1 1196 0
 3333              		.cfi_startproc
 3334              	.LVL423:
1197:/home/baikal/workspace/C50/Huawei_IoT_Agent_Tiny_SDK_Linux//lwm2m/core/er-coap-13/er-coap-13.c ****     coap_packet_t *const coap_pkt = (coap_packet_t *) packet;
1198:/home/baikal/workspace/C50/Huawei_IoT_Agent_Tiny_SDK_Linux//lwm2m/core/er-coap-13/er-coap-13.c **** 
1199:/home/baikal/workspace/C50/Huawei_IoT_Agent_Tiny_SDK_Linux//lwm2m/core/er-coap-13/er-coap-13.c ****     if (!IS_OPTION(coap_pkt, COAP_OPTION_URI_QUERY)) return 0;
 3335              		.loc 1 1199 0
 3336 0000 807F1500 		cmpb	$0, 21(%rdi)
 3337 0004 7907     		jns	.L243
1200:/home/baikal/workspace/C50/Huawei_IoT_Agent_Tiny_SDK_Linux//lwm2m/core/er-coap-13/er-coap-13.c **** 
1201:/home/baikal/workspace/C50/Huawei_IoT_Agent_Tiny_SDK_Linux//lwm2m/core/er-coap-13/er-coap-13.c ****     *query = NULL; //coap_pkt->uri_query;
 3338              		.loc 1 1201 0
 3339 0006 48C70600 		movq	$0, (%rsi)
 3339      000000
 3340              	.L243:
1202:/home/baikal/workspace/C50/Huawei_IoT_Agent_Tiny_SDK_Linux//lwm2m/core/er-coap-13/er-coap-13.c ****     return 0; //coap_pkt->uri_query_len;
1203:/home/baikal/workspace/C50/Huawei_IoT_Agent_Tiny_SDK_Linux//lwm2m/core/er-coap-13/er-coap-13.c **** }
 3341              		.loc 1 1203 0
 3342 000d B8000000 		movl	$0, %eax
 3342      00
 3343 0012 C3       		ret
 3344              		.cfi_endproc
 3345              	.LFE105:
 3347              		.section	.text.coap_set_header_uri_query,"ax",@progbits
 3348              		.globl	coap_set_header_uri_query
 3350              	coap_set_header_uri_query:
 3351              	.LFB106:
1204:/home/baikal/workspace/C50/Huawei_IoT_Agent_Tiny_SDK_Linux//lwm2m/core/er-coap-13/er-coap-13.c **** 
1205:/home/baikal/workspace/C50/Huawei_IoT_Agent_Tiny_SDK_Linux//lwm2m/core/er-coap-13/er-coap-13.c **** int
1206:/home/baikal/workspace/C50/Huawei_IoT_Agent_Tiny_SDK_Linux//lwm2m/core/er-coap-13/er-coap-13.c **** coap_set_header_uri_query(void *packet, const char *query)
1207:/home/baikal/workspace/C50/Huawei_IoT_Agent_Tiny_SDK_Linux//lwm2m/core/er-coap-13/er-coap-13.c **** {
 3352              		.loc 1 1207 0
 3353              		.cfi_startproc
 3354              	.LVL424:
 3355 0000 4156     		pushq	%r14
 3356              	.LCFI138:
 3357              		.cfi_def_cfa_offset 16
 3358              		.cfi_offset 14, -16
 3359 0002 4155     		pushq	%r13
 3360              	.LCFI139:
 3361              		.cfi_def_cfa_offset 24
 3362              		.cfi_offset 13, -24
 3363 0004 4154     		pushq	%r12
 3364              	.LCFI140:
 3365              		.cfi_def_cfa_offset 32
 3366              		.cfi_offset 12, -32
 3367 0006 55       		pushq	%rbp
 3368              	.LCFI141:
 3369              		.cfi_def_cfa_offset 40
 3370              		.cfi_offset 6, -40
 3371 0007 53       		pushq	%rbx
 3372              	.LCFI142:
GAS LISTING /tmp/ccSAldBr.s 			page 91


 3373              		.cfi_def_cfa_offset 48
 3374              		.cfi_offset 3, -48
 3375 0008 4989FE   		movq	%rdi, %r14
 3376 000b 4989F4   		movq	%rsi, %r12
 3377              	.LVL425:
1208:/home/baikal/workspace/C50/Huawei_IoT_Agent_Tiny_SDK_Linux//lwm2m/core/er-coap-13/er-coap-13.c ****     int length = 0;
1209:/home/baikal/workspace/C50/Huawei_IoT_Agent_Tiny_SDK_Linux//lwm2m/core/er-coap-13/er-coap-13.c ****     coap_packet_t *const coap_pkt = (coap_packet_t *) packet;
1210:/home/baikal/workspace/C50/Huawei_IoT_Agent_Tiny_SDK_Linux//lwm2m/core/er-coap-13/er-coap-13.c **** 
1211:/home/baikal/workspace/C50/Huawei_IoT_Agent_Tiny_SDK_Linux//lwm2m/core/er-coap-13/er-coap-13.c ****     free_multi_option(coap_pkt->uri_query);
 3378              		.loc 1 1211 0
 3379 000e 488BBFB8 		movq	184(%rdi), %rdi
 3379      000000
 3380              	.LVL426:
 3381 0015 E8000000 		call	free_multi_option
 3381      00
 3382              	.LVL427:
1212:/home/baikal/workspace/C50/Huawei_IoT_Agent_Tiny_SDK_Linux//lwm2m/core/er-coap-13/er-coap-13.c ****     coap_pkt->uri_query = NULL;
 3383              		.loc 1 1212 0
 3384 001a 49C786B8 		movq	$0, 184(%r14)
 3384      00000000 
 3384      000000
1213:/home/baikal/workspace/C50/Huawei_IoT_Agent_Tiny_SDK_Linux//lwm2m/core/er-coap-13/er-coap-13.c **** 
1214:/home/baikal/workspace/C50/Huawei_IoT_Agent_Tiny_SDK_Linux//lwm2m/core/er-coap-13/er-coap-13.c ****     if (query[0] == '?') ++query;
 3385              		.loc 1 1214 0
 3386 0025 41803C24 		cmpb	$63, (%r12)
 3386      3F
 3387 002a 7504     		jne	.L245
 3388              		.loc 1 1214 0 is_stmt 0 discriminator 1
 3389 002c 4983C401 		addq	$1, %r12
 3390              	.LVL428:
 3391              	.L245:
1207:/home/baikal/workspace/C50/Huawei_IoT_Agent_Tiny_SDK_Linux//lwm2m/core/er-coap-13/er-coap-13.c ****     int length = 0;
 3392              		.loc 1 1207 0 is_stmt 1
 3393 0030 41BD0000 		movl	$0, %r13d
 3393      0000
 3394              	.LVL429:
 3395              	.L249:
 3396              	.LBB82:
1215:/home/baikal/workspace/C50/Huawei_IoT_Agent_Tiny_SDK_Linux//lwm2m/core/er-coap-13/er-coap-13.c **** 
1216:/home/baikal/workspace/C50/Huawei_IoT_Agent_Tiny_SDK_Linux//lwm2m/core/er-coap-13/er-coap-13.c ****     do
1217:/home/baikal/workspace/C50/Huawei_IoT_Agent_Tiny_SDK_Linux//lwm2m/core/er-coap-13/er-coap-13.c ****     {
1218:/home/baikal/workspace/C50/Huawei_IoT_Agent_Tiny_SDK_Linux//lwm2m/core/er-coap-13/er-coap-13.c ****         int i = 0;
 3397              		.loc 1 1218 0
 3398 0036 BB000000 		movl	$0, %ebx
 3398      00
1219:/home/baikal/workspace/C50/Huawei_IoT_Agent_Tiny_SDK_Linux//lwm2m/core/er-coap-13/er-coap-13.c **** 
1220:/home/baikal/workspace/C50/Huawei_IoT_Agent_Tiny_SDK_Linux//lwm2m/core/er-coap-13/er-coap-13.c ****         while (query[i] != 0 && query[i] != '&') i++;
 3399              		.loc 1 1220 0
 3400 003b EB03     		jmp	.L246
 3401              	.LVL430:
 3402              	.L247:
 3403              		.loc 1 1220 0 is_stmt 0 discriminator 2
 3404 003d 83C301   		addl	$1, %ebx
 3405              	.LVL431:
 3406              	.L246:
 3407              		.loc 1 1220 0 discriminator 1
 3408 0040 4863D3   		movslq	%ebx, %rdx
GAS LISTING /tmp/ccSAldBr.s 			page 92


 3409 0043 498D2C14 		leaq	(%r12,%rdx), %rbp
 3410 0047 0FB64500 		movzbl	0(%rbp), %eax
 3411 004b 84C0     		testb	%al, %al
 3412 004d 0F95C1   		setne	%cl
 3413 0050 3C26     		cmpb	$38, %al
 3414 0052 0F95C0   		setne	%al
 3415 0055 84C1     		testb	%al, %cl
 3416 0057 75E4     		jne	.L247
1221:/home/baikal/workspace/C50/Huawei_IoT_Agent_Tiny_SDK_Linux//lwm2m/core/er-coap-13/er-coap-13.c ****         coap_add_multi_option(&(coap_pkt->uri_query), (uint8_t *)query, i, 0);
 3417              		.loc 1 1221 0 is_stmt 1
 3418 0059 498DBEB8 		leaq	184(%r14), %rdi
 3418      000000
 3419 0060 B9000000 		movl	$0, %ecx
 3419      00
 3420 0065 4C89E6   		movq	%r12, %rsi
 3421 0068 E8000000 		call	coap_add_multi_option
 3421      00
 3422              	.LVL432:
1222:/home/baikal/workspace/C50/Huawei_IoT_Agent_Tiny_SDK_Linux//lwm2m/core/er-coap-13/er-coap-13.c **** 
1223:/home/baikal/workspace/C50/Huawei_IoT_Agent_Tiny_SDK_Linux//lwm2m/core/er-coap-13/er-coap-13.c ****         if (query[i] == '&') i++;
 3423              		.loc 1 1223 0
 3424 006d 807D0026 		cmpb	$38, 0(%rbp)
 3425 0071 7503     		jne	.L248
 3426              		.loc 1 1223 0 is_stmt 0 discriminator 1
 3427 0073 83C301   		addl	$1, %ebx
 3428              	.LVL433:
 3429              	.L248:
1224:/home/baikal/workspace/C50/Huawei_IoT_Agent_Tiny_SDK_Linux//lwm2m/core/er-coap-13/er-coap-13.c ****         query += i;
 3430              		.loc 1 1224 0 is_stmt 1
 3431 0076 4863C3   		movslq	%ebx, %rax
 3432 0079 4901C4   		addq	%rax, %r12
 3433              	.LVL434:
1225:/home/baikal/workspace/C50/Huawei_IoT_Agent_Tiny_SDK_Linux//lwm2m/core/er-coap-13/er-coap-13.c ****         length += i;
 3434              		.loc 1 1225 0
 3435 007c 4101DD   		addl	%ebx, %r13d
 3436              	.LVL435:
 3437              	.LBE82:
1226:/home/baikal/workspace/C50/Huawei_IoT_Agent_Tiny_SDK_Linux//lwm2m/core/er-coap-13/er-coap-13.c ****     }
1227:/home/baikal/workspace/C50/Huawei_IoT_Agent_Tiny_SDK_Linux//lwm2m/core/er-coap-13/er-coap-13.c ****     while (query[0] != 0);
 3438              		.loc 1 1227 0
 3439 007f 41803C24 		cmpb	$0, (%r12)
 3439      00
 3440 0084 75B0     		jne	.L249
1228:/home/baikal/workspace/C50/Huawei_IoT_Agent_Tiny_SDK_Linux//lwm2m/core/er-coap-13/er-coap-13.c **** 
1229:/home/baikal/workspace/C50/Huawei_IoT_Agent_Tiny_SDK_Linux//lwm2m/core/er-coap-13/er-coap-13.c ****     SET_OPTION(coap_pkt, COAP_OPTION_URI_QUERY);
 3441              		.loc 1 1229 0 discriminator 1
 3442 0086 41804E15 		orb	$-128, 21(%r14)
 3442      80
1230:/home/baikal/workspace/C50/Huawei_IoT_Agent_Tiny_SDK_Linux//lwm2m/core/er-coap-13/er-coap-13.c ****     return length;
1231:/home/baikal/workspace/C50/Huawei_IoT_Agent_Tiny_SDK_Linux//lwm2m/core/er-coap-13/er-coap-13.c **** }
 3443              		.loc 1 1231 0 discriminator 1
 3444 008b 4489E8   		movl	%r13d, %eax
 3445 008e 5B       		popq	%rbx
 3446              	.LCFI143:
 3447              		.cfi_def_cfa_offset 40
 3448              	.LVL436:
 3449 008f 5D       		popq	%rbp
GAS LISTING /tmp/ccSAldBr.s 			page 93


 3450              	.LCFI144:
 3451              		.cfi_def_cfa_offset 32
 3452 0090 415C     		popq	%r12
 3453              	.LCFI145:
 3454              		.cfi_def_cfa_offset 24
 3455              	.LVL437:
 3456 0092 415D     		popq	%r13
 3457              	.LCFI146:
 3458              		.cfi_def_cfa_offset 16
 3459              	.LVL438:
 3460 0094 415E     		popq	%r14
 3461              	.LCFI147:
 3462              		.cfi_def_cfa_offset 8
 3463              	.LVL439:
 3464 0096 C3       		ret
 3465              		.cfi_endproc
 3466              	.LFE106:
 3468              		.section	.text.coap_get_header_location_path,"ax",@progbits
 3469              		.globl	coap_get_header_location_path
 3471              	coap_get_header_location_path:
 3472              	.LFB107:
1232:/home/baikal/workspace/C50/Huawei_IoT_Agent_Tiny_SDK_Linux//lwm2m/core/er-coap-13/er-coap-13.c **** /*-----------------------------------------------------------------------------------*/
1233:/home/baikal/workspace/C50/Huawei_IoT_Agent_Tiny_SDK_Linux//lwm2m/core/er-coap-13/er-coap-13.c **** int
1234:/home/baikal/workspace/C50/Huawei_IoT_Agent_Tiny_SDK_Linux//lwm2m/core/er-coap-13/er-coap-13.c **** coap_get_header_location_path(void *packet, const char **path)
1235:/home/baikal/workspace/C50/Huawei_IoT_Agent_Tiny_SDK_Linux//lwm2m/core/er-coap-13/er-coap-13.c **** {
 3473              		.loc 1 1235 0
 3474              		.cfi_startproc
 3475              	.LVL440:
1236:/home/baikal/workspace/C50/Huawei_IoT_Agent_Tiny_SDK_Linux//lwm2m/core/er-coap-13/er-coap-13.c ****     coap_packet_t *const coap_pkt = (coap_packet_t *) packet;
1237:/home/baikal/workspace/C50/Huawei_IoT_Agent_Tiny_SDK_Linux//lwm2m/core/er-coap-13/er-coap-13.c **** 
1238:/home/baikal/workspace/C50/Huawei_IoT_Agent_Tiny_SDK_Linux//lwm2m/core/er-coap-13/er-coap-13.c ****     if (!IS_OPTION(coap_pkt, COAP_OPTION_LOCATION_PATH)) return 0;
 3476              		.loc 1 1238 0
 3477 0000 F6471501 		testb	$1, 21(%rdi)
 3478 0004 7407     		je	.L252
1239:/home/baikal/workspace/C50/Huawei_IoT_Agent_Tiny_SDK_Linux//lwm2m/core/er-coap-13/er-coap-13.c **** 
1240:/home/baikal/workspace/C50/Huawei_IoT_Agent_Tiny_SDK_Linux//lwm2m/core/er-coap-13/er-coap-13.c ****     *path = NULL; //coap_pkt->location_path;
 3479              		.loc 1 1240 0
 3480 0006 48C70600 		movq	$0, (%rsi)
 3480      000000
 3481              	.L252:
1241:/home/baikal/workspace/C50/Huawei_IoT_Agent_Tiny_SDK_Linux//lwm2m/core/er-coap-13/er-coap-13.c ****     return 0; //coap_pkt->location_path_len;
1242:/home/baikal/workspace/C50/Huawei_IoT_Agent_Tiny_SDK_Linux//lwm2m/core/er-coap-13/er-coap-13.c **** }
 3482              		.loc 1 1242 0
 3483 000d B8000000 		movl	$0, %eax
 3483      00
 3484 0012 C3       		ret
 3485              		.cfi_endproc
 3486              	.LFE107:
 3488              		.section	.text.coap_set_header_location_path,"ax",@progbits
 3489              		.globl	coap_set_header_location_path
 3491              	coap_set_header_location_path:
 3492              	.LFB108:
1243:/home/baikal/workspace/C50/Huawei_IoT_Agent_Tiny_SDK_Linux//lwm2m/core/er-coap-13/er-coap-13.c **** 
1244:/home/baikal/workspace/C50/Huawei_IoT_Agent_Tiny_SDK_Linux//lwm2m/core/er-coap-13/er-coap-13.c **** int
1245:/home/baikal/workspace/C50/Huawei_IoT_Agent_Tiny_SDK_Linux//lwm2m/core/er-coap-13/er-coap-13.c **** coap_set_header_location_path(void *packet, const char *path)
1246:/home/baikal/workspace/C50/Huawei_IoT_Agent_Tiny_SDK_Linux//lwm2m/core/er-coap-13/er-coap-13.c **** {
 3493              		.loc 1 1246 0
GAS LISTING /tmp/ccSAldBr.s 			page 94


 3494              		.cfi_startproc
 3495              	.LVL441:
 3496 0000 4156     		pushq	%r14
 3497              	.LCFI148:
 3498              		.cfi_def_cfa_offset 16
 3499              		.cfi_offset 14, -16
 3500 0002 4155     		pushq	%r13
 3501              	.LCFI149:
 3502              		.cfi_def_cfa_offset 24
 3503              		.cfi_offset 13, -24
 3504 0004 4154     		pushq	%r12
 3505              	.LCFI150:
 3506              		.cfi_def_cfa_offset 32
 3507              		.cfi_offset 12, -32
 3508 0006 55       		pushq	%rbp
 3509              	.LCFI151:
 3510              		.cfi_def_cfa_offset 40
 3511              		.cfi_offset 6, -40
 3512 0007 53       		pushq	%rbx
 3513              	.LCFI152:
 3514              		.cfi_def_cfa_offset 48
 3515              		.cfi_offset 3, -48
 3516 0008 4989FE   		movq	%rdi, %r14
 3517 000b 4989F4   		movq	%rsi, %r12
 3518              	.LVL442:
1247:/home/baikal/workspace/C50/Huawei_IoT_Agent_Tiny_SDK_Linux//lwm2m/core/er-coap-13/er-coap-13.c ****     coap_packet_t *coap_pkt = (coap_packet_t *) packet;
1248:/home/baikal/workspace/C50/Huawei_IoT_Agent_Tiny_SDK_Linux//lwm2m/core/er-coap-13/er-coap-13.c ****     int length = 0;
1249:/home/baikal/workspace/C50/Huawei_IoT_Agent_Tiny_SDK_Linux//lwm2m/core/er-coap-13/er-coap-13.c **** 
1250:/home/baikal/workspace/C50/Huawei_IoT_Agent_Tiny_SDK_Linux//lwm2m/core/er-coap-13/er-coap-13.c ****     free_multi_option(coap_pkt->location_path);
 3519              		.loc 1 1250 0
 3520 000e 488B7F58 		movq	88(%rdi), %rdi
 3521              	.LVL443:
 3522 0012 E8000000 		call	free_multi_option
 3522      00
 3523              	.LVL444:
1251:/home/baikal/workspace/C50/Huawei_IoT_Agent_Tiny_SDK_Linux//lwm2m/core/er-coap-13/er-coap-13.c ****     coap_pkt->location_path = NULL;
 3524              		.loc 1 1251 0
 3525 0017 49C74658 		movq	$0, 88(%r14)
 3525      00000000 
1252:/home/baikal/workspace/C50/Huawei_IoT_Agent_Tiny_SDK_Linux//lwm2m/core/er-coap-13/er-coap-13.c **** 
1253:/home/baikal/workspace/C50/Huawei_IoT_Agent_Tiny_SDK_Linux//lwm2m/core/er-coap-13/er-coap-13.c ****     if (path[0] == '/') ++path;
 3526              		.loc 1 1253 0
 3527 001f 41803C24 		cmpb	$47, (%r12)
 3527      2F
 3528 0024 7504     		jne	.L254
 3529              		.loc 1 1253 0 is_stmt 0 discriminator 1
 3530 0026 4983C401 		addq	$1, %r12
 3531              	.LVL445:
 3532              	.L254:
1246:/home/baikal/workspace/C50/Huawei_IoT_Agent_Tiny_SDK_Linux//lwm2m/core/er-coap-13/er-coap-13.c ****     coap_packet_t *coap_pkt = (coap_packet_t *) packet;
 3533              		.loc 1 1246 0 is_stmt 1
 3534 002a 41BD0000 		movl	$0, %r13d
 3534      0000
 3535              	.LVL446:
 3536              	.L258:
 3537              	.LBB83:
1254:/home/baikal/workspace/C50/Huawei_IoT_Agent_Tiny_SDK_Linux//lwm2m/core/er-coap-13/er-coap-13.c **** 
GAS LISTING /tmp/ccSAldBr.s 			page 95


1255:/home/baikal/workspace/C50/Huawei_IoT_Agent_Tiny_SDK_Linux//lwm2m/core/er-coap-13/er-coap-13.c ****     do
1256:/home/baikal/workspace/C50/Huawei_IoT_Agent_Tiny_SDK_Linux//lwm2m/core/er-coap-13/er-coap-13.c ****     {
1257:/home/baikal/workspace/C50/Huawei_IoT_Agent_Tiny_SDK_Linux//lwm2m/core/er-coap-13/er-coap-13.c ****         int i = 0;
 3538              		.loc 1 1257 0
 3539 0030 BB000000 		movl	$0, %ebx
 3539      00
1258:/home/baikal/workspace/C50/Huawei_IoT_Agent_Tiny_SDK_Linux//lwm2m/core/er-coap-13/er-coap-13.c **** 
1259:/home/baikal/workspace/C50/Huawei_IoT_Agent_Tiny_SDK_Linux//lwm2m/core/er-coap-13/er-coap-13.c ****         while (path[i] != 0 && path[i] != '/') i++;
 3540              		.loc 1 1259 0
 3541 0035 EB03     		jmp	.L255
 3542              	.LVL447:
 3543              	.L256:
 3544              		.loc 1 1259 0 is_stmt 0 discriminator 2
 3545 0037 83C301   		addl	$1, %ebx
 3546              	.LVL448:
 3547              	.L255:
 3548              		.loc 1 1259 0 discriminator 1
 3549 003a 4863D3   		movslq	%ebx, %rdx
 3550 003d 498D2C14 		leaq	(%r12,%rdx), %rbp
 3551 0041 0FB64500 		movzbl	0(%rbp), %eax
 3552 0045 84C0     		testb	%al, %al
 3553 0047 0F95C1   		setne	%cl
 3554 004a 3C2F     		cmpb	$47, %al
 3555 004c 0F95C0   		setne	%al
 3556 004f 84C1     		testb	%al, %cl
 3557 0051 75E4     		jne	.L256
1260:/home/baikal/workspace/C50/Huawei_IoT_Agent_Tiny_SDK_Linux//lwm2m/core/er-coap-13/er-coap-13.c ****         coap_add_multi_option(&(coap_pkt->location_path), (uint8_t *)path, i, 0);
 3558              		.loc 1 1260 0 is_stmt 1
 3559 0053 498D7E58 		leaq	88(%r14), %rdi
 3560 0057 B9000000 		movl	$0, %ecx
 3560      00
 3561 005c 4C89E6   		movq	%r12, %rsi
 3562 005f E8000000 		call	coap_add_multi_option
 3562      00
 3563              	.LVL449:
1261:/home/baikal/workspace/C50/Huawei_IoT_Agent_Tiny_SDK_Linux//lwm2m/core/er-coap-13/er-coap-13.c **** 
1262:/home/baikal/workspace/C50/Huawei_IoT_Agent_Tiny_SDK_Linux//lwm2m/core/er-coap-13/er-coap-13.c ****         if (path[i] == '/') i++;
 3564              		.loc 1 1262 0
 3565 0064 807D002F 		cmpb	$47, 0(%rbp)
 3566 0068 7503     		jne	.L257
 3567              		.loc 1 1262 0 is_stmt 0 discriminator 1
 3568 006a 83C301   		addl	$1, %ebx
 3569              	.LVL450:
 3570              	.L257:
1263:/home/baikal/workspace/C50/Huawei_IoT_Agent_Tiny_SDK_Linux//lwm2m/core/er-coap-13/er-coap-13.c ****         path += i;
 3571              		.loc 1 1263 0 is_stmt 1
 3572 006d 4863C3   		movslq	%ebx, %rax
 3573 0070 4901C4   		addq	%rax, %r12
 3574              	.LVL451:
1264:/home/baikal/workspace/C50/Huawei_IoT_Agent_Tiny_SDK_Linux//lwm2m/core/er-coap-13/er-coap-13.c ****         length += i;
 3575              		.loc 1 1264 0
 3576 0073 4101DD   		addl	%ebx, %r13d
 3577              	.LVL452:
 3578              	.LBE83:
1265:/home/baikal/workspace/C50/Huawei_IoT_Agent_Tiny_SDK_Linux//lwm2m/core/er-coap-13/er-coap-13.c ****     }
1266:/home/baikal/workspace/C50/Huawei_IoT_Agent_Tiny_SDK_Linux//lwm2m/core/er-coap-13/er-coap-13.c ****     while (path[0] != 0);
 3579              		.loc 1 1266 0
GAS LISTING /tmp/ccSAldBr.s 			page 96


 3580 0076 41803C24 		cmpb	$0, (%r12)
 3580      00
 3581 007b 75B3     		jne	.L258
1267:/home/baikal/workspace/C50/Huawei_IoT_Agent_Tiny_SDK_Linux//lwm2m/core/er-coap-13/er-coap-13.c **** 
1268:/home/baikal/workspace/C50/Huawei_IoT_Agent_Tiny_SDK_Linux//lwm2m/core/er-coap-13/er-coap-13.c ****     SET_OPTION(coap_pkt, COAP_OPTION_LOCATION_PATH);
 3582              		.loc 1 1268 0 discriminator 1
 3583 007d 41804E15 		orb	$1, 21(%r14)
 3583      01
1269:/home/baikal/workspace/C50/Huawei_IoT_Agent_Tiny_SDK_Linux//lwm2m/core/er-coap-13/er-coap-13.c ****     return length;
1270:/home/baikal/workspace/C50/Huawei_IoT_Agent_Tiny_SDK_Linux//lwm2m/core/er-coap-13/er-coap-13.c **** }
 3584              		.loc 1 1270 0 discriminator 1
 3585 0082 4489E8   		movl	%r13d, %eax
 3586 0085 5B       		popq	%rbx
 3587              	.LCFI153:
 3588              		.cfi_def_cfa_offset 40
 3589              	.LVL453:
 3590 0086 5D       		popq	%rbp
 3591              	.LCFI154:
 3592              		.cfi_def_cfa_offset 32
 3593 0087 415C     		popq	%r12
 3594              	.LCFI155:
 3595              		.cfi_def_cfa_offset 24
 3596              	.LVL454:
 3597 0089 415D     		popq	%r13
 3598              	.LCFI156:
 3599              		.cfi_def_cfa_offset 16
 3600              	.LVL455:
 3601 008b 415E     		popq	%r14
 3602              	.LCFI157:
 3603              		.cfi_def_cfa_offset 8
 3604              	.LVL456:
 3605 008d C3       		ret
 3606              		.cfi_endproc
 3607              	.LFE108:
 3609              		.section	.text.coap_get_header_location_query,"ax",@progbits
 3610              		.globl	coap_get_header_location_query
 3612              	coap_get_header_location_query:
 3613              	.LFB109:
1271:/home/baikal/workspace/C50/Huawei_IoT_Agent_Tiny_SDK_Linux//lwm2m/core/er-coap-13/er-coap-13.c **** /*-----------------------------------------------------------------------------------*/
1272:/home/baikal/workspace/C50/Huawei_IoT_Agent_Tiny_SDK_Linux//lwm2m/core/er-coap-13/er-coap-13.c **** int
1273:/home/baikal/workspace/C50/Huawei_IoT_Agent_Tiny_SDK_Linux//lwm2m/core/er-coap-13/er-coap-13.c **** coap_get_header_location_query(void *packet, const char **query)
1274:/home/baikal/workspace/C50/Huawei_IoT_Agent_Tiny_SDK_Linux//lwm2m/core/er-coap-13/er-coap-13.c **** {
 3614              		.loc 1 1274 0
 3615              		.cfi_startproc
 3616              	.LVL457:
1275:/home/baikal/workspace/C50/Huawei_IoT_Agent_Tiny_SDK_Linux//lwm2m/core/er-coap-13/er-coap-13.c ****     coap_packet_t *const coap_pkt = (coap_packet_t *) packet;
1276:/home/baikal/workspace/C50/Huawei_IoT_Agent_Tiny_SDK_Linux//lwm2m/core/er-coap-13/er-coap-13.c **** 
1277:/home/baikal/workspace/C50/Huawei_IoT_Agent_Tiny_SDK_Linux//lwm2m/core/er-coap-13/er-coap-13.c ****     if (!IS_OPTION(coap_pkt, COAP_OPTION_LOCATION_QUERY)) return 0;
 3617              		.loc 1 1277 0
 3618 0000 F6471610 		testb	$16, 22(%rdi)
 3619 0004 740B     		je	.L262
1278:/home/baikal/workspace/C50/Huawei_IoT_Agent_Tiny_SDK_Linux//lwm2m/core/er-coap-13/er-coap-13.c **** 
1279:/home/baikal/workspace/C50/Huawei_IoT_Agent_Tiny_SDK_Linux//lwm2m/core/er-coap-13/er-coap-13.c ****     *query = (const char *)coap_pkt->location_query;
 3620              		.loc 1 1279 0
 3621 0006 488B4770 		movq	112(%rdi), %rax
 3622 000a 488906   		movq	%rax, (%rsi)
1280:/home/baikal/workspace/C50/Huawei_IoT_Agent_Tiny_SDK_Linux//lwm2m/core/er-coap-13/er-coap-13.c ****     return coap_pkt->location_query_len;
GAS LISTING /tmp/ccSAldBr.s 			page 97


 3623              		.loc 1 1280 0
 3624 000d 8B4768   		movl	104(%rdi), %eax
 3625 0010 C3       		ret
 3626              	.L262:
1277:/home/baikal/workspace/C50/Huawei_IoT_Agent_Tiny_SDK_Linux//lwm2m/core/er-coap-13/er-coap-13.c **** 
 3627              		.loc 1 1277 0
 3628 0011 B8000000 		movl	$0, %eax
 3628      00
1281:/home/baikal/workspace/C50/Huawei_IoT_Agent_Tiny_SDK_Linux//lwm2m/core/er-coap-13/er-coap-13.c **** }
 3629              		.loc 1 1281 0
 3630 0016 C3       		ret
 3631              		.cfi_endproc
 3632              	.LFE109:
 3634              		.section	.text.coap_set_header_location_query,"ax",@progbits
 3635              		.globl	coap_set_header_location_query
 3637              	coap_set_header_location_query:
 3638              	.LFB110:
1282:/home/baikal/workspace/C50/Huawei_IoT_Agent_Tiny_SDK_Linux//lwm2m/core/er-coap-13/er-coap-13.c **** 
1283:/home/baikal/workspace/C50/Huawei_IoT_Agent_Tiny_SDK_Linux//lwm2m/core/er-coap-13/er-coap-13.c **** int
1284:/home/baikal/workspace/C50/Huawei_IoT_Agent_Tiny_SDK_Linux//lwm2m/core/er-coap-13/er-coap-13.c **** coap_set_header_location_query(void *packet, char *query)
1285:/home/baikal/workspace/C50/Huawei_IoT_Agent_Tiny_SDK_Linux//lwm2m/core/er-coap-13/er-coap-13.c **** {
 3639              		.loc 1 1285 0
 3640              		.cfi_startproc
 3641              	.LVL458:
 3642 0000 4889FA   		movq	%rdi, %rdx
 3643              	.LVL459:
1286:/home/baikal/workspace/C50/Huawei_IoT_Agent_Tiny_SDK_Linux//lwm2m/core/er-coap-13/er-coap-13.c ****     coap_packet_t *const coap_pkt = (coap_packet_t *) packet;
1287:/home/baikal/workspace/C50/Huawei_IoT_Agent_Tiny_SDK_Linux//lwm2m/core/er-coap-13/er-coap-13.c **** 
1288:/home/baikal/workspace/C50/Huawei_IoT_Agent_Tiny_SDK_Linux//lwm2m/core/er-coap-13/er-coap-13.c ****     while (query[0] == '?') ++query;
 3644              		.loc 1 1288 0
 3645 0003 EB04     		jmp	.L264
 3646              	.L265:
 3647              		.loc 1 1288 0 is_stmt 0 discriminator 2
 3648 0005 4883C601 		addq	$1, %rsi
 3649              	.LVL460:
 3650              	.L264:
 3651              		.loc 1 1288 0 discriminator 1
 3652 0009 803E3F   		cmpb	$63, (%rsi)
 3653 000c 74F7     		je	.L265
1289:/home/baikal/workspace/C50/Huawei_IoT_Agent_Tiny_SDK_Linux//lwm2m/core/er-coap-13/er-coap-13.c **** 
1290:/home/baikal/workspace/C50/Huawei_IoT_Agent_Tiny_SDK_Linux//lwm2m/core/er-coap-13/er-coap-13.c ****     coap_pkt->location_query = (uint8_t *)query;
 3654              		.loc 1 1290 0 is_stmt 1
 3655 000e 48897270 		movq	%rsi, 112(%rdx)
1291:/home/baikal/workspace/C50/Huawei_IoT_Agent_Tiny_SDK_Linux//lwm2m/core/er-coap-13/er-coap-13.c ****     coap_pkt->location_query_len = strlen(query);
 3656              		.loc 1 1291 0
 3657 0012 B8000000 		movl	$0, %eax
 3657      00
 3658 0017 48C7C1FF 		movq	$-1, %rcx
 3658      FFFFFF
 3659 001e 4889F7   		movq	%rsi, %rdi
 3660              	.LVL461:
 3661 0021 F2AE     		repnz scasb
 3662              	.LVL462:
 3663 0023 4889C8   		movq	%rcx, %rax
 3664 0026 48F7D0   		notq	%rax
 3665 0029 4883E801 		subq	$1, %rax
 3666 002d 48894268 		movq	%rax, 104(%rdx)
GAS LISTING /tmp/ccSAldBr.s 			page 98


1292:/home/baikal/workspace/C50/Huawei_IoT_Agent_Tiny_SDK_Linux//lwm2m/core/er-coap-13/er-coap-13.c **** 
1293:/home/baikal/workspace/C50/Huawei_IoT_Agent_Tiny_SDK_Linux//lwm2m/core/er-coap-13/er-coap-13.c ****     SET_OPTION(coap_pkt, COAP_OPTION_LOCATION_QUERY);
 3667              		.loc 1 1293 0
 3668 0031 804A1610 		orb	$16, 22(%rdx)
1294:/home/baikal/workspace/C50/Huawei_IoT_Agent_Tiny_SDK_Linux//lwm2m/core/er-coap-13/er-coap-13.c ****     return coap_pkt->location_query_len;
1295:/home/baikal/workspace/C50/Huawei_IoT_Agent_Tiny_SDK_Linux//lwm2m/core/er-coap-13/er-coap-13.c **** }
 3669              		.loc 1 1295 0
 3670 0035 C3       		ret
 3671              		.cfi_endproc
 3672              	.LFE110:
 3674              		.section	.text.coap_get_header_observe,"ax",@progbits
 3675              		.globl	coap_get_header_observe
 3677              	coap_get_header_observe:
 3678              	.LFB111:
1296:/home/baikal/workspace/C50/Huawei_IoT_Agent_Tiny_SDK_Linux//lwm2m/core/er-coap-13/er-coap-13.c **** /*-----------------------------------------------------------------------------------*/
1297:/home/baikal/workspace/C50/Huawei_IoT_Agent_Tiny_SDK_Linux//lwm2m/core/er-coap-13/er-coap-13.c **** int
1298:/home/baikal/workspace/C50/Huawei_IoT_Agent_Tiny_SDK_Linux//lwm2m/core/er-coap-13/er-coap-13.c **** coap_get_header_observe(void *packet, uint32_t *observe)
1299:/home/baikal/workspace/C50/Huawei_IoT_Agent_Tiny_SDK_Linux//lwm2m/core/er-coap-13/er-coap-13.c **** {
 3679              		.loc 1 1299 0
 3680              		.cfi_startproc
 3681              	.LVL463:
1300:/home/baikal/workspace/C50/Huawei_IoT_Agent_Tiny_SDK_Linux//lwm2m/core/er-coap-13/er-coap-13.c ****     coap_packet_t *const coap_pkt = (coap_packet_t *) packet;
1301:/home/baikal/workspace/C50/Huawei_IoT_Agent_Tiny_SDK_Linux//lwm2m/core/er-coap-13/er-coap-13.c **** 
1302:/home/baikal/workspace/C50/Huawei_IoT_Agent_Tiny_SDK_Linux//lwm2m/core/er-coap-13/er-coap-13.c ****     if (!IS_OPTION(coap_pkt, COAP_OPTION_OBSERVE)) return 0;
 3682              		.loc 1 1302 0
 3683 0000 F6471440 		testb	$64, 20(%rdi)
 3684 0004 740E     		je	.L268
1303:/home/baikal/workspace/C50/Huawei_IoT_Agent_Tiny_SDK_Linux//lwm2m/core/er-coap-13/er-coap-13.c **** 
1304:/home/baikal/workspace/C50/Huawei_IoT_Agent_Tiny_SDK_Linux//lwm2m/core/er-coap-13/er-coap-13.c ****     *observe = coap_pkt->observe;
 3685              		.loc 1 1304 0
 3686 0006 8B878000 		movl	128(%rdi), %eax
 3686      0000
 3687 000c 8906     		movl	%eax, (%rsi)
1305:/home/baikal/workspace/C50/Huawei_IoT_Agent_Tiny_SDK_Linux//lwm2m/core/er-coap-13/er-coap-13.c ****     return 1;
 3688              		.loc 1 1305 0
 3689 000e B8010000 		movl	$1, %eax
 3689      00
 3690 0013 C3       		ret
 3691              	.L268:
1302:/home/baikal/workspace/C50/Huawei_IoT_Agent_Tiny_SDK_Linux//lwm2m/core/er-coap-13/er-coap-13.c **** 
 3692              		.loc 1 1302 0
 3693 0014 B8000000 		movl	$0, %eax
 3693      00
1306:/home/baikal/workspace/C50/Huawei_IoT_Agent_Tiny_SDK_Linux//lwm2m/core/er-coap-13/er-coap-13.c **** }
 3694              		.loc 1 1306 0
 3695 0019 C3       		ret
 3696              		.cfi_endproc
 3697              	.LFE111:
 3699              		.section	.text.coap_set_header_observe,"ax",@progbits
 3700              		.globl	coap_set_header_observe
 3702              	coap_set_header_observe:
 3703              	.LFB112:
1307:/home/baikal/workspace/C50/Huawei_IoT_Agent_Tiny_SDK_Linux//lwm2m/core/er-coap-13/er-coap-13.c **** 
1308:/home/baikal/workspace/C50/Huawei_IoT_Agent_Tiny_SDK_Linux//lwm2m/core/er-coap-13/er-coap-13.c **** int
1309:/home/baikal/workspace/C50/Huawei_IoT_Agent_Tiny_SDK_Linux//lwm2m/core/er-coap-13/er-coap-13.c **** coap_set_header_observe(void *packet, uint32_t observe)
1310:/home/baikal/workspace/C50/Huawei_IoT_Agent_Tiny_SDK_Linux//lwm2m/core/er-coap-13/er-coap-13.c **** {
 3704              		.loc 1 1310 0
GAS LISTING /tmp/ccSAldBr.s 			page 99


 3705              		.cfi_startproc
 3706              	.LVL464:
1311:/home/baikal/workspace/C50/Huawei_IoT_Agent_Tiny_SDK_Linux//lwm2m/core/er-coap-13/er-coap-13.c ****     coap_packet_t *const coap_pkt = (coap_packet_t *) packet;
1312:/home/baikal/workspace/C50/Huawei_IoT_Agent_Tiny_SDK_Linux//lwm2m/core/er-coap-13/er-coap-13.c **** 
1313:/home/baikal/workspace/C50/Huawei_IoT_Agent_Tiny_SDK_Linux//lwm2m/core/er-coap-13/er-coap-13.c ****     coap_pkt->observe = 0x00FFFFFF & observe;
 3707              		.loc 1 1313 0
 3708 0000 81E6FFFF 		andl	$16777215, %esi
 3708      FF00
 3709              	.LVL465:
 3710 0006 89B78000 		movl	%esi, 128(%rdi)
 3710      0000
1314:/home/baikal/workspace/C50/Huawei_IoT_Agent_Tiny_SDK_Linux//lwm2m/core/er-coap-13/er-coap-13.c ****     SET_OPTION(coap_pkt, COAP_OPTION_OBSERVE);
 3711              		.loc 1 1314 0
 3712 000c 804F1440 		orb	$64, 20(%rdi)
1315:/home/baikal/workspace/C50/Huawei_IoT_Agent_Tiny_SDK_Linux//lwm2m/core/er-coap-13/er-coap-13.c ****     return 1;
1316:/home/baikal/workspace/C50/Huawei_IoT_Agent_Tiny_SDK_Linux//lwm2m/core/er-coap-13/er-coap-13.c **** }
 3713              		.loc 1 1316 0
 3714 0010 B8010000 		movl	$1, %eax
 3714      00
 3715 0015 C3       		ret
 3716              		.cfi_endproc
 3717              	.LFE112:
 3719              		.section	.text.coap_get_header_block2,"ax",@progbits
 3720              		.globl	coap_get_header_block2
 3722              	coap_get_header_block2:
 3723              	.LFB113:
1317:/home/baikal/workspace/C50/Huawei_IoT_Agent_Tiny_SDK_Linux//lwm2m/core/er-coap-13/er-coap-13.c **** /*-----------------------------------------------------------------------------------*/
1318:/home/baikal/workspace/C50/Huawei_IoT_Agent_Tiny_SDK_Linux//lwm2m/core/er-coap-13/er-coap-13.c **** int
1319:/home/baikal/workspace/C50/Huawei_IoT_Agent_Tiny_SDK_Linux//lwm2m/core/er-coap-13/er-coap-13.c **** coap_get_header_block2(void *packet, uint32_t *num, uint8_t *more, uint16_t *size, uint32_t *offset
1320:/home/baikal/workspace/C50/Huawei_IoT_Agent_Tiny_SDK_Linux//lwm2m/core/er-coap-13/er-coap-13.c **** {
 3724              		.loc 1 1320 0
 3725              		.cfi_startproc
 3726              	.LVL466:
1321:/home/baikal/workspace/C50/Huawei_IoT_Agent_Tiny_SDK_Linux//lwm2m/core/er-coap-13/er-coap-13.c ****     coap_packet_t *const coap_pkt = (coap_packet_t *) packet;
1322:/home/baikal/workspace/C50/Huawei_IoT_Agent_Tiny_SDK_Linux//lwm2m/core/er-coap-13/er-coap-13.c **** 
1323:/home/baikal/workspace/C50/Huawei_IoT_Agent_Tiny_SDK_Linux//lwm2m/core/er-coap-13/er-coap-13.c ****     if (!IS_OPTION(coap_pkt, COAP_OPTION_BLOCK2)) return 0;
 3727              		.loc 1 1323 0
 3728 0000 807F1600 		cmpb	$0, 22(%rdi)
 3729 0004 793E     		jns	.L275
1324:/home/baikal/workspace/C50/Huawei_IoT_Agent_Tiny_SDK_Linux//lwm2m/core/er-coap-13/er-coap-13.c **** 
1325:/home/baikal/workspace/C50/Huawei_IoT_Agent_Tiny_SDK_Linux//lwm2m/core/er-coap-13/er-coap-13.c ****     /* pointers may be NULL to get only specific block parameters */
1326:/home/baikal/workspace/C50/Huawei_IoT_Agent_Tiny_SDK_Linux//lwm2m/core/er-coap-13/er-coap-13.c ****     if (num != NULL) *num = coap_pkt->block2_num;
 3730              		.loc 1 1326 0
 3731 0006 4885F6   		testq	%rsi, %rsi
 3732 0009 7408     		je	.L272
 3733              		.loc 1 1326 0 is_stmt 0 discriminator 1
 3734 000b 8B879C00 		movl	156(%rdi), %eax
 3734      0000
 3735 0011 8906     		movl	%eax, (%rsi)
 3736              	.L272:
1327:/home/baikal/workspace/C50/Huawei_IoT_Agent_Tiny_SDK_Linux//lwm2m/core/er-coap-13/er-coap-13.c ****     if (more != NULL) *more = coap_pkt->block2_more;
 3737              		.loc 1 1327 0 is_stmt 1
 3738 0013 4885D2   		testq	%rdx, %rdx
 3739 0016 7409     		je	.L273
 3740              		.loc 1 1327 0 is_stmt 0 discriminator 1
 3741 0018 0FB687A0 		movzbl	160(%rdi), %eax
 3741      000000
GAS LISTING /tmp/ccSAldBr.s 			page 100


 3742 001f 8802     		movb	%al, (%rdx)
 3743              	.L273:
1328:/home/baikal/workspace/C50/Huawei_IoT_Agent_Tiny_SDK_Linux//lwm2m/core/er-coap-13/er-coap-13.c ****     if (size != NULL) *size = coap_pkt->block2_size;
 3744              		.loc 1 1328 0 is_stmt 1
 3745 0021 4885C9   		testq	%rcx, %rcx
 3746 0024 740A     		je	.L274
 3747              		.loc 1 1328 0 is_stmt 0 discriminator 1
 3748 0026 0FB787A2 		movzwl	162(%rdi), %eax
 3748      000000
 3749 002d 668901   		movw	%ax, (%rcx)
 3750              	.L274:
1329:/home/baikal/workspace/C50/Huawei_IoT_Agent_Tiny_SDK_Linux//lwm2m/core/er-coap-13/er-coap-13.c ****     if (offset != NULL) *offset = coap_pkt->block2_offset;
 3751              		.loc 1 1329 0 is_stmt 1
 3752 0030 4D85C0   		testq	%r8, %r8
 3753 0033 7415     		je	.L276
 3754              		.loc 1 1329 0 is_stmt 0 discriminator 1
 3755 0035 8B87A400 		movl	164(%rdi), %eax
 3755      0000
 3756 003b 418900   		movl	%eax, (%r8)
1330:/home/baikal/workspace/C50/Huawei_IoT_Agent_Tiny_SDK_Linux//lwm2m/core/er-coap-13/er-coap-13.c **** 
1331:/home/baikal/workspace/C50/Huawei_IoT_Agent_Tiny_SDK_Linux//lwm2m/core/er-coap-13/er-coap-13.c ****     return 1;
 3757              		.loc 1 1331 0 is_stmt 1 discriminator 1
 3758 003e B8010000 		movl	$1, %eax
 3758      00
 3759 0043 C3       		ret
 3760              	.L275:
1323:/home/baikal/workspace/C50/Huawei_IoT_Agent_Tiny_SDK_Linux//lwm2m/core/er-coap-13/er-coap-13.c **** 
 3761              		.loc 1 1323 0
 3762 0044 B8000000 		movl	$0, %eax
 3762      00
 3763 0049 C3       		ret
 3764              	.L276:
 3765              		.loc 1 1331 0
 3766 004a B8010000 		movl	$1, %eax
 3766      00
1332:/home/baikal/workspace/C50/Huawei_IoT_Agent_Tiny_SDK_Linux//lwm2m/core/er-coap-13/er-coap-13.c **** }
 3767              		.loc 1 1332 0
 3768 004f C3       		ret
 3769              		.cfi_endproc
 3770              	.LFE113:
 3772              		.section	.text.coap_set_header_block2,"ax",@progbits
 3773              		.globl	coap_set_header_block2
 3775              	coap_set_header_block2:
 3776              	.LFB114:
1333:/home/baikal/workspace/C50/Huawei_IoT_Agent_Tiny_SDK_Linux//lwm2m/core/er-coap-13/er-coap-13.c **** 
1334:/home/baikal/workspace/C50/Huawei_IoT_Agent_Tiny_SDK_Linux//lwm2m/core/er-coap-13/er-coap-13.c **** int
1335:/home/baikal/workspace/C50/Huawei_IoT_Agent_Tiny_SDK_Linux//lwm2m/core/er-coap-13/er-coap-13.c **** coap_set_header_block2(void *packet, uint32_t num, uint8_t more, uint16_t size)
1336:/home/baikal/workspace/C50/Huawei_IoT_Agent_Tiny_SDK_Linux//lwm2m/core/er-coap-13/er-coap-13.c **** {
 3777              		.loc 1 1336 0
 3778              		.cfi_startproc
 3779              	.LVL467:
1337:/home/baikal/workspace/C50/Huawei_IoT_Agent_Tiny_SDK_Linux//lwm2m/core/er-coap-13/er-coap-13.c ****     coap_packet_t *const coap_pkt = (coap_packet_t *) packet;
1338:/home/baikal/workspace/C50/Huawei_IoT_Agent_Tiny_SDK_Linux//lwm2m/core/er-coap-13/er-coap-13.c **** 
1339:/home/baikal/workspace/C50/Huawei_IoT_Agent_Tiny_SDK_Linux//lwm2m/core/er-coap-13/er-coap-13.c ****     if (size < 16) return 0;
 3780              		.loc 1 1339 0
 3781 0000 6683F90F 		cmpw	$15, %cx
 3782 0004 762F     		jbe	.L279
GAS LISTING /tmp/ccSAldBr.s 			page 101


1340:/home/baikal/workspace/C50/Huawei_IoT_Agent_Tiny_SDK_Linux//lwm2m/core/er-coap-13/er-coap-13.c ****     if (size > 2048) return 0;
 3783              		.loc 1 1340 0
 3784 0006 6681F900 		cmpw	$2048, %cx
 3784      08
 3785 000b 772E     		ja	.L280
1341:/home/baikal/workspace/C50/Huawei_IoT_Agent_Tiny_SDK_Linux//lwm2m/core/er-coap-13/er-coap-13.c ****     if (num > 0x0FFFFF) return 0;
 3786              		.loc 1 1341 0
 3787 000d 81FEFFFF 		cmpl	$1048575, %esi
 3787      0F00
 3788 0013 772C     		ja	.L281
1342:/home/baikal/workspace/C50/Huawei_IoT_Agent_Tiny_SDK_Linux//lwm2m/core/er-coap-13/er-coap-13.c **** 
1343:/home/baikal/workspace/C50/Huawei_IoT_Agent_Tiny_SDK_Linux//lwm2m/core/er-coap-13/er-coap-13.c ****     coap_pkt->block2_num = num;
 3789              		.loc 1 1343 0
 3790 0015 89B79C00 		movl	%esi, 156(%rdi)
 3790      0000
1344:/home/baikal/workspace/C50/Huawei_IoT_Agent_Tiny_SDK_Linux//lwm2m/core/er-coap-13/er-coap-13.c ****     coap_pkt->block2_more = more ? 1 : 0;
 3791              		.loc 1 1344 0
 3792 001b 84D2     		testb	%dl, %dl
 3793 001d 0F9587A0 		setne	160(%rdi)
 3793      000000
1345:/home/baikal/workspace/C50/Huawei_IoT_Agent_Tiny_SDK_Linux//lwm2m/core/er-coap-13/er-coap-13.c ****     coap_pkt->block2_size = size;
 3794              		.loc 1 1345 0
 3795 0024 66898FA2 		movw	%cx, 162(%rdi)
 3795      000000
1346:/home/baikal/workspace/C50/Huawei_IoT_Agent_Tiny_SDK_Linux//lwm2m/core/er-coap-13/er-coap-13.c **** 
1347:/home/baikal/workspace/C50/Huawei_IoT_Agent_Tiny_SDK_Linux//lwm2m/core/er-coap-13/er-coap-13.c ****     SET_OPTION(coap_pkt, COAP_OPTION_BLOCK2);
 3796              		.loc 1 1347 0
 3797 002b 804F1680 		orb	$-128, 22(%rdi)
1348:/home/baikal/workspace/C50/Huawei_IoT_Agent_Tiny_SDK_Linux//lwm2m/core/er-coap-13/er-coap-13.c ****     return 1;
 3798              		.loc 1 1348 0
 3799 002f B8010000 		movl	$1, %eax
 3799      00
 3800 0034 C3       		ret
 3801              	.L279:
1339:/home/baikal/workspace/C50/Huawei_IoT_Agent_Tiny_SDK_Linux//lwm2m/core/er-coap-13/er-coap-13.c ****     if (size > 2048) return 0;
 3802              		.loc 1 1339 0
 3803 0035 B8000000 		movl	$0, %eax
 3803      00
 3804 003a C3       		ret
 3805              	.L280:
1340:/home/baikal/workspace/C50/Huawei_IoT_Agent_Tiny_SDK_Linux//lwm2m/core/er-coap-13/er-coap-13.c ****     if (num > 0x0FFFFF) return 0;
 3806              		.loc 1 1340 0
 3807 003b B8000000 		movl	$0, %eax
 3807      00
 3808 0040 C3       		ret
 3809              	.L281:
1341:/home/baikal/workspace/C50/Huawei_IoT_Agent_Tiny_SDK_Linux//lwm2m/core/er-coap-13/er-coap-13.c **** 
 3810              		.loc 1 1341 0
 3811 0041 B8000000 		movl	$0, %eax
 3811      00
1349:/home/baikal/workspace/C50/Huawei_IoT_Agent_Tiny_SDK_Linux//lwm2m/core/er-coap-13/er-coap-13.c **** }
 3812              		.loc 1 1349 0
 3813 0046 C3       		ret
 3814              		.cfi_endproc
 3815              	.LFE114:
 3817              		.section	.text.coap_get_header_block1,"ax",@progbits
 3818              		.globl	coap_get_header_block1
GAS LISTING /tmp/ccSAldBr.s 			page 102


 3820              	coap_get_header_block1:
 3821              	.LFB115:
1350:/home/baikal/workspace/C50/Huawei_IoT_Agent_Tiny_SDK_Linux//lwm2m/core/er-coap-13/er-coap-13.c **** /*-----------------------------------------------------------------------------------*/
1351:/home/baikal/workspace/C50/Huawei_IoT_Agent_Tiny_SDK_Linux//lwm2m/core/er-coap-13/er-coap-13.c **** int
1352:/home/baikal/workspace/C50/Huawei_IoT_Agent_Tiny_SDK_Linux//lwm2m/core/er-coap-13/er-coap-13.c **** coap_get_header_block1(void *packet, uint32_t *num, uint8_t *more, uint16_t *size, uint32_t *offset
1353:/home/baikal/workspace/C50/Huawei_IoT_Agent_Tiny_SDK_Linux//lwm2m/core/er-coap-13/er-coap-13.c **** {
 3822              		.loc 1 1353 0
 3823              		.cfi_startproc
 3824              	.LVL468:
1354:/home/baikal/workspace/C50/Huawei_IoT_Agent_Tiny_SDK_Linux//lwm2m/core/er-coap-13/er-coap-13.c ****     coap_packet_t *const coap_pkt = (coap_packet_t *) packet;
1355:/home/baikal/workspace/C50/Huawei_IoT_Agent_Tiny_SDK_Linux//lwm2m/core/er-coap-13/er-coap-13.c **** 
1356:/home/baikal/workspace/C50/Huawei_IoT_Agent_Tiny_SDK_Linux//lwm2m/core/er-coap-13/er-coap-13.c ****     if (!IS_OPTION(coap_pkt, COAP_OPTION_BLOCK1)) return 0;
 3825              		.loc 1 1356 0
 3826 0000 F6471708 		testb	$8, 23(%rdi)
 3827 0004 743E     		je	.L287
1357:/home/baikal/workspace/C50/Huawei_IoT_Agent_Tiny_SDK_Linux//lwm2m/core/er-coap-13/er-coap-13.c **** 
1358:/home/baikal/workspace/C50/Huawei_IoT_Agent_Tiny_SDK_Linux//lwm2m/core/er-coap-13/er-coap-13.c ****     /* pointers may be NULL to get only specific block parameters */
1359:/home/baikal/workspace/C50/Huawei_IoT_Agent_Tiny_SDK_Linux//lwm2m/core/er-coap-13/er-coap-13.c ****     if (num != NULL) *num = coap_pkt->block1_num;
 3828              		.loc 1 1359 0
 3829 0006 4885F6   		testq	%rsi, %rsi
 3830 0009 7408     		je	.L284
 3831              		.loc 1 1359 0 is_stmt 0 discriminator 1
 3832 000b 8B87A800 		movl	168(%rdi), %eax
 3832      0000
 3833 0011 8906     		movl	%eax, (%rsi)
 3834              	.L284:
1360:/home/baikal/workspace/C50/Huawei_IoT_Agent_Tiny_SDK_Linux//lwm2m/core/er-coap-13/er-coap-13.c ****     if (more != NULL) *more = coap_pkt->block1_more;
 3835              		.loc 1 1360 0 is_stmt 1
 3836 0013 4885D2   		testq	%rdx, %rdx
 3837 0016 7409     		je	.L285
 3838              		.loc 1 1360 0 is_stmt 0 discriminator 1
 3839 0018 0FB687AC 		movzbl	172(%rdi), %eax
 3839      000000
 3840 001f 8802     		movb	%al, (%rdx)
 3841              	.L285:
1361:/home/baikal/workspace/C50/Huawei_IoT_Agent_Tiny_SDK_Linux//lwm2m/core/er-coap-13/er-coap-13.c ****     if (size != NULL) *size = coap_pkt->block1_size;
 3842              		.loc 1 1361 0 is_stmt 1
 3843 0021 4885C9   		testq	%rcx, %rcx
 3844 0024 740A     		je	.L286
 3845              		.loc 1 1361 0 is_stmt 0 discriminator 1
 3846 0026 0FB787AE 		movzwl	174(%rdi), %eax
 3846      000000
 3847 002d 668901   		movw	%ax, (%rcx)
 3848              	.L286:
1362:/home/baikal/workspace/C50/Huawei_IoT_Agent_Tiny_SDK_Linux//lwm2m/core/er-coap-13/er-coap-13.c ****     if (offset != NULL) *offset = coap_pkt->block1_offset;
 3849              		.loc 1 1362 0 is_stmt 1
 3850 0030 4D85C0   		testq	%r8, %r8
 3851 0033 7415     		je	.L288
 3852              		.loc 1 1362 0 is_stmt 0 discriminator 1
 3853 0035 8B87B000 		movl	176(%rdi), %eax
 3853      0000
 3854 003b 418900   		movl	%eax, (%r8)
1363:/home/baikal/workspace/C50/Huawei_IoT_Agent_Tiny_SDK_Linux//lwm2m/core/er-coap-13/er-coap-13.c **** 
1364:/home/baikal/workspace/C50/Huawei_IoT_Agent_Tiny_SDK_Linux//lwm2m/core/er-coap-13/er-coap-13.c ****     return 1;
 3855              		.loc 1 1364 0 is_stmt 1 discriminator 1
 3856 003e B8010000 		movl	$1, %eax
 3856      00
GAS LISTING /tmp/ccSAldBr.s 			page 103


 3857 0043 C3       		ret
 3858              	.L287:
1356:/home/baikal/workspace/C50/Huawei_IoT_Agent_Tiny_SDK_Linux//lwm2m/core/er-coap-13/er-coap-13.c **** 
 3859              		.loc 1 1356 0
 3860 0044 B8000000 		movl	$0, %eax
 3860      00
 3861 0049 C3       		ret
 3862              	.L288:
 3863              		.loc 1 1364 0
 3864 004a B8010000 		movl	$1, %eax
 3864      00
1365:/home/baikal/workspace/C50/Huawei_IoT_Agent_Tiny_SDK_Linux//lwm2m/core/er-coap-13/er-coap-13.c **** }
 3865              		.loc 1 1365 0
 3866 004f C3       		ret
 3867              		.cfi_endproc
 3868              	.LFE115:
 3870              		.section	.text.coap_set_header_block1,"ax",@progbits
 3871              		.globl	coap_set_header_block1
 3873              	coap_set_header_block1:
 3874              	.LFB116:
1366:/home/baikal/workspace/C50/Huawei_IoT_Agent_Tiny_SDK_Linux//lwm2m/core/er-coap-13/er-coap-13.c **** 
1367:/home/baikal/workspace/C50/Huawei_IoT_Agent_Tiny_SDK_Linux//lwm2m/core/er-coap-13/er-coap-13.c **** int
1368:/home/baikal/workspace/C50/Huawei_IoT_Agent_Tiny_SDK_Linux//lwm2m/core/er-coap-13/er-coap-13.c **** coap_set_header_block1(void *packet, uint32_t num, uint8_t more, uint16_t size)
1369:/home/baikal/workspace/C50/Huawei_IoT_Agent_Tiny_SDK_Linux//lwm2m/core/er-coap-13/er-coap-13.c **** {
 3875              		.loc 1 1369 0
 3876              		.cfi_startproc
 3877              	.LVL469:
1370:/home/baikal/workspace/C50/Huawei_IoT_Agent_Tiny_SDK_Linux//lwm2m/core/er-coap-13/er-coap-13.c ****     coap_packet_t *const coap_pkt = (coap_packet_t *) packet;
1371:/home/baikal/workspace/C50/Huawei_IoT_Agent_Tiny_SDK_Linux//lwm2m/core/er-coap-13/er-coap-13.c **** 
1372:/home/baikal/workspace/C50/Huawei_IoT_Agent_Tiny_SDK_Linux//lwm2m/core/er-coap-13/er-coap-13.c ****     if (size < 16) return 0;
 3878              		.loc 1 1372 0
 3879 0000 6683F90F 		cmpw	$15, %cx
 3880 0004 762C     		jbe	.L291
1373:/home/baikal/workspace/C50/Huawei_IoT_Agent_Tiny_SDK_Linux//lwm2m/core/er-coap-13/er-coap-13.c ****     if (size > 2048) return 0;
 3881              		.loc 1 1373 0
 3882 0006 6681F900 		cmpw	$2048, %cx
 3882      08
 3883 000b 772B     		ja	.L292
1374:/home/baikal/workspace/C50/Huawei_IoT_Agent_Tiny_SDK_Linux//lwm2m/core/er-coap-13/er-coap-13.c ****     if (num > 0x0FFFFF) return 0;
 3884              		.loc 1 1374 0
 3885 000d 81FEFFFF 		cmpl	$1048575, %esi
 3885      0F00
 3886 0013 7729     		ja	.L293
1375:/home/baikal/workspace/C50/Huawei_IoT_Agent_Tiny_SDK_Linux//lwm2m/core/er-coap-13/er-coap-13.c **** 
1376:/home/baikal/workspace/C50/Huawei_IoT_Agent_Tiny_SDK_Linux//lwm2m/core/er-coap-13/er-coap-13.c ****     coap_pkt->block1_num = num;
 3887              		.loc 1 1376 0
 3888 0015 89B7A800 		movl	%esi, 168(%rdi)
 3888      0000
1377:/home/baikal/workspace/C50/Huawei_IoT_Agent_Tiny_SDK_Linux//lwm2m/core/er-coap-13/er-coap-13.c ****     coap_pkt->block1_more = more;
 3889              		.loc 1 1377 0
 3890 001b 8897AC00 		movb	%dl, 172(%rdi)
 3890      0000
1378:/home/baikal/workspace/C50/Huawei_IoT_Agent_Tiny_SDK_Linux//lwm2m/core/er-coap-13/er-coap-13.c ****     coap_pkt->block1_size = size;
 3891              		.loc 1 1378 0
 3892 0021 66898FAE 		movw	%cx, 174(%rdi)
 3892      000000
1379:/home/baikal/workspace/C50/Huawei_IoT_Agent_Tiny_SDK_Linux//lwm2m/core/er-coap-13/er-coap-13.c **** 
GAS LISTING /tmp/ccSAldBr.s 			page 104


1380:/home/baikal/workspace/C50/Huawei_IoT_Agent_Tiny_SDK_Linux//lwm2m/core/er-coap-13/er-coap-13.c ****     SET_OPTION(coap_pkt, COAP_OPTION_BLOCK1);
 3893              		.loc 1 1380 0
 3894 0028 804F1708 		orb	$8, 23(%rdi)
1381:/home/baikal/workspace/C50/Huawei_IoT_Agent_Tiny_SDK_Linux//lwm2m/core/er-coap-13/er-coap-13.c ****     return 1;
 3895              		.loc 1 1381 0
 3896 002c B8010000 		movl	$1, %eax
 3896      00
 3897 0031 C3       		ret
 3898              	.L291:
1372:/home/baikal/workspace/C50/Huawei_IoT_Agent_Tiny_SDK_Linux//lwm2m/core/er-coap-13/er-coap-13.c ****     if (size > 2048) return 0;
 3899              		.loc 1 1372 0
 3900 0032 B8000000 		movl	$0, %eax
 3900      00
 3901 0037 C3       		ret
 3902              	.L292:
1373:/home/baikal/workspace/C50/Huawei_IoT_Agent_Tiny_SDK_Linux//lwm2m/core/er-coap-13/er-coap-13.c ****     if (num > 0x0FFFFF) return 0;
 3903              		.loc 1 1373 0
 3904 0038 B8000000 		movl	$0, %eax
 3904      00
 3905 003d C3       		ret
 3906              	.L293:
1374:/home/baikal/workspace/C50/Huawei_IoT_Agent_Tiny_SDK_Linux//lwm2m/core/er-coap-13/er-coap-13.c **** 
 3907              		.loc 1 1374 0
 3908 003e B8000000 		movl	$0, %eax
 3908      00
1382:/home/baikal/workspace/C50/Huawei_IoT_Agent_Tiny_SDK_Linux//lwm2m/core/er-coap-13/er-coap-13.c **** }
 3909              		.loc 1 1382 0
 3910 0043 C3       		ret
 3911              		.cfi_endproc
 3912              	.LFE116:
 3914              		.section	.text.coap_get_header_size,"ax",@progbits
 3915              		.globl	coap_get_header_size
 3917              	coap_get_header_size:
 3918              	.LFB117:
1383:/home/baikal/workspace/C50/Huawei_IoT_Agent_Tiny_SDK_Linux//lwm2m/core/er-coap-13/er-coap-13.c **** /*-----------------------------------------------------------------------------------*/
1384:/home/baikal/workspace/C50/Huawei_IoT_Agent_Tiny_SDK_Linux//lwm2m/core/er-coap-13/er-coap-13.c **** int
1385:/home/baikal/workspace/C50/Huawei_IoT_Agent_Tiny_SDK_Linux//lwm2m/core/er-coap-13/er-coap-13.c **** coap_get_header_size(void *packet, uint32_t *size)
1386:/home/baikal/workspace/C50/Huawei_IoT_Agent_Tiny_SDK_Linux//lwm2m/core/er-coap-13/er-coap-13.c **** {
 3919              		.loc 1 1386 0
 3920              		.cfi_startproc
 3921              	.LVL470:
1387:/home/baikal/workspace/C50/Huawei_IoT_Agent_Tiny_SDK_Linux//lwm2m/core/er-coap-13/er-coap-13.c ****     coap_packet_t *const coap_pkt = (coap_packet_t *) packet;
1388:/home/baikal/workspace/C50/Huawei_IoT_Agent_Tiny_SDK_Linux//lwm2m/core/er-coap-13/er-coap-13.c **** 
1389:/home/baikal/workspace/C50/Huawei_IoT_Agent_Tiny_SDK_Linux//lwm2m/core/er-coap-13/er-coap-13.c ****     if (!IS_OPTION(coap_pkt, COAP_OPTION_SIZE)) return 0;
 3922              		.loc 1 1389 0
 3923 0000 F6471710 		testb	$16, 23(%rdi)
 3924 0004 740E     		je	.L296
1390:/home/baikal/workspace/C50/Huawei_IoT_Agent_Tiny_SDK_Linux//lwm2m/core/er-coap-13/er-coap-13.c **** 
1391:/home/baikal/workspace/C50/Huawei_IoT_Agent_Tiny_SDK_Linux//lwm2m/core/er-coap-13/er-coap-13.c ****     *size = coap_pkt->size;
 3925              		.loc 1 1391 0
 3926 0006 8B87B400 		movl	180(%rdi), %eax
 3926      0000
 3927 000c 8906     		movl	%eax, (%rsi)
1392:/home/baikal/workspace/C50/Huawei_IoT_Agent_Tiny_SDK_Linux//lwm2m/core/er-coap-13/er-coap-13.c ****     return 1;
 3928              		.loc 1 1392 0
 3929 000e B8010000 		movl	$1, %eax
 3929      00
GAS LISTING /tmp/ccSAldBr.s 			page 105


 3930 0013 C3       		ret
 3931              	.L296:
1389:/home/baikal/workspace/C50/Huawei_IoT_Agent_Tiny_SDK_Linux//lwm2m/core/er-coap-13/er-coap-13.c **** 
 3932              		.loc 1 1389 0
 3933 0014 B8000000 		movl	$0, %eax
 3933      00
1393:/home/baikal/workspace/C50/Huawei_IoT_Agent_Tiny_SDK_Linux//lwm2m/core/er-coap-13/er-coap-13.c **** }
 3934              		.loc 1 1393 0
 3935 0019 C3       		ret
 3936              		.cfi_endproc
 3937              	.LFE117:
 3939              		.section	.text.coap_set_header_size,"ax",@progbits
 3940              		.globl	coap_set_header_size
 3942              	coap_set_header_size:
 3943              	.LFB118:
1394:/home/baikal/workspace/C50/Huawei_IoT_Agent_Tiny_SDK_Linux//lwm2m/core/er-coap-13/er-coap-13.c **** 
1395:/home/baikal/workspace/C50/Huawei_IoT_Agent_Tiny_SDK_Linux//lwm2m/core/er-coap-13/er-coap-13.c **** int
1396:/home/baikal/workspace/C50/Huawei_IoT_Agent_Tiny_SDK_Linux//lwm2m/core/er-coap-13/er-coap-13.c **** coap_set_header_size(void *packet, uint32_t size)
1397:/home/baikal/workspace/C50/Huawei_IoT_Agent_Tiny_SDK_Linux//lwm2m/core/er-coap-13/er-coap-13.c **** {
 3944              		.loc 1 1397 0
 3945              		.cfi_startproc
 3946              	.LVL471:
1398:/home/baikal/workspace/C50/Huawei_IoT_Agent_Tiny_SDK_Linux//lwm2m/core/er-coap-13/er-coap-13.c ****     coap_packet_t *const coap_pkt = (coap_packet_t *) packet;
1399:/home/baikal/workspace/C50/Huawei_IoT_Agent_Tiny_SDK_Linux//lwm2m/core/er-coap-13/er-coap-13.c **** 
1400:/home/baikal/workspace/C50/Huawei_IoT_Agent_Tiny_SDK_Linux//lwm2m/core/er-coap-13/er-coap-13.c ****     coap_pkt->size = size;
 3947              		.loc 1 1400 0
 3948 0000 89B7B400 		movl	%esi, 180(%rdi)
 3948      0000
1401:/home/baikal/workspace/C50/Huawei_IoT_Agent_Tiny_SDK_Linux//lwm2m/core/er-coap-13/er-coap-13.c ****     SET_OPTION(coap_pkt, COAP_OPTION_SIZE);
 3949              		.loc 1 1401 0
 3950 0006 804F1710 		orb	$16, 23(%rdi)
1402:/home/baikal/workspace/C50/Huawei_IoT_Agent_Tiny_SDK_Linux//lwm2m/core/er-coap-13/er-coap-13.c ****     return 1;
1403:/home/baikal/workspace/C50/Huawei_IoT_Agent_Tiny_SDK_Linux//lwm2m/core/er-coap-13/er-coap-13.c **** }
 3951              		.loc 1 1403 0
 3952 000a B8010000 		movl	$1, %eax
 3952      00
 3953 000f C3       		ret
 3954              		.cfi_endproc
 3955              	.LFE118:
 3957              		.section	.text.coap_get_payload,"ax",@progbits
 3958              		.globl	coap_get_payload
 3960              	coap_get_payload:
 3961              	.LFB119:
1404:/home/baikal/workspace/C50/Huawei_IoT_Agent_Tiny_SDK_Linux//lwm2m/core/er-coap-13/er-coap-13.c **** /*-----------------------------------------------------------------------------------*/
1405:/home/baikal/workspace/C50/Huawei_IoT_Agent_Tiny_SDK_Linux//lwm2m/core/er-coap-13/er-coap-13.c **** /*- PAYLOAD -------------------------------------------------------------------------*/
1406:/home/baikal/workspace/C50/Huawei_IoT_Agent_Tiny_SDK_Linux//lwm2m/core/er-coap-13/er-coap-13.c **** /*-----------------------------------------------------------------------------------*/
1407:/home/baikal/workspace/C50/Huawei_IoT_Agent_Tiny_SDK_Linux//lwm2m/core/er-coap-13/er-coap-13.c **** int
1408:/home/baikal/workspace/C50/Huawei_IoT_Agent_Tiny_SDK_Linux//lwm2m/core/er-coap-13/er-coap-13.c **** coap_get_payload(void *packet, const uint8_t **payload)
1409:/home/baikal/workspace/C50/Huawei_IoT_Agent_Tiny_SDK_Linux//lwm2m/core/er-coap-13/er-coap-13.c **** {
 3962              		.loc 1 1409 0
 3963              		.cfi_startproc
 3964              	.LVL472:
1410:/home/baikal/workspace/C50/Huawei_IoT_Agent_Tiny_SDK_Linux//lwm2m/core/er-coap-13/er-coap-13.c ****     coap_packet_t *const coap_pkt = (coap_packet_t *) packet;
1411:/home/baikal/workspace/C50/Huawei_IoT_Agent_Tiny_SDK_Linux//lwm2m/core/er-coap-13/er-coap-13.c **** 
1412:/home/baikal/workspace/C50/Huawei_IoT_Agent_Tiny_SDK_Linux//lwm2m/core/er-coap-13/er-coap-13.c ****     if (coap_pkt->payload)
 3965              		.loc 1 1412 0
 3966 0000 488B87C8 		movq	200(%rdi), %rax
GAS LISTING /tmp/ccSAldBr.s 			page 106


 3966      000000
 3967 0007 4885C0   		testq	%rax, %rax
 3968 000a 740B     		je	.L299
1413:/home/baikal/workspace/C50/Huawei_IoT_Agent_Tiny_SDK_Linux//lwm2m/core/er-coap-13/er-coap-13.c ****     {
1414:/home/baikal/workspace/C50/Huawei_IoT_Agent_Tiny_SDK_Linux//lwm2m/core/er-coap-13/er-coap-13.c ****         *payload = coap_pkt->payload;
 3969              		.loc 1 1414 0
 3970 000c 488906   		movq	%rax, (%rsi)
1415:/home/baikal/workspace/C50/Huawei_IoT_Agent_Tiny_SDK_Linux//lwm2m/core/er-coap-13/er-coap-13.c ****         return coap_pkt->payload_len;
 3971              		.loc 1 1415 0
 3972 000f 0FB787C2 		movzwl	194(%rdi), %eax
 3972      000000
 3973 0016 C3       		ret
 3974              	.L299:
1416:/home/baikal/workspace/C50/Huawei_IoT_Agent_Tiny_SDK_Linux//lwm2m/core/er-coap-13/er-coap-13.c ****     }
1417:/home/baikal/workspace/C50/Huawei_IoT_Agent_Tiny_SDK_Linux//lwm2m/core/er-coap-13/er-coap-13.c ****     else
1418:/home/baikal/workspace/C50/Huawei_IoT_Agent_Tiny_SDK_Linux//lwm2m/core/er-coap-13/er-coap-13.c ****     {
1419:/home/baikal/workspace/C50/Huawei_IoT_Agent_Tiny_SDK_Linux//lwm2m/core/er-coap-13/er-coap-13.c ****         *payload = NULL;
 3975              		.loc 1 1419 0
 3976 0017 48C70600 		movq	$0, (%rsi)
 3976      000000
1420:/home/baikal/workspace/C50/Huawei_IoT_Agent_Tiny_SDK_Linux//lwm2m/core/er-coap-13/er-coap-13.c ****         return 0;
 3977              		.loc 1 1420 0
 3978 001e B8000000 		movl	$0, %eax
 3978      00
1421:/home/baikal/workspace/C50/Huawei_IoT_Agent_Tiny_SDK_Linux//lwm2m/core/er-coap-13/er-coap-13.c ****     }
1422:/home/baikal/workspace/C50/Huawei_IoT_Agent_Tiny_SDK_Linux//lwm2m/core/er-coap-13/er-coap-13.c **** }
 3979              		.loc 1 1422 0
 3980 0023 C3       		ret
 3981              		.cfi_endproc
 3982              	.LFE119:
 3984              		.section	.text.coap_set_payload,"ax",@progbits
 3985              		.globl	coap_set_payload
 3987              	coap_set_payload:
 3988              	.LFB120:
1423:/home/baikal/workspace/C50/Huawei_IoT_Agent_Tiny_SDK_Linux//lwm2m/core/er-coap-13/er-coap-13.c **** 
1424:/home/baikal/workspace/C50/Huawei_IoT_Agent_Tiny_SDK_Linux//lwm2m/core/er-coap-13/er-coap-13.c **** int
1425:/home/baikal/workspace/C50/Huawei_IoT_Agent_Tiny_SDK_Linux//lwm2m/core/er-coap-13/er-coap-13.c **** coap_set_payload(void *packet, const void *payload, size_t length)
1426:/home/baikal/workspace/C50/Huawei_IoT_Agent_Tiny_SDK_Linux//lwm2m/core/er-coap-13/er-coap-13.c **** {
 3989              		.loc 1 1426 0
 3990              		.cfi_startproc
 3991              	.LVL473:
1427:/home/baikal/workspace/C50/Huawei_IoT_Agent_Tiny_SDK_Linux//lwm2m/core/er-coap-13/er-coap-13.c ****     coap_packet_t *const coap_pkt = (coap_packet_t *) packet;
1428:/home/baikal/workspace/C50/Huawei_IoT_Agent_Tiny_SDK_Linux//lwm2m/core/er-coap-13/er-coap-13.c **** 
1429:/home/baikal/workspace/C50/Huawei_IoT_Agent_Tiny_SDK_Linux//lwm2m/core/er-coap-13/er-coap-13.c ****     coap_pkt->payload = (uint8_t *) payload;
 3992              		.loc 1 1429 0
 3993 0000 4889B7C8 		movq	%rsi, 200(%rdi)
 3993      000000
1430:/home/baikal/workspace/C50/Huawei_IoT_Agent_Tiny_SDK_Linux//lwm2m/core/er-coap-13/er-coap-13.c ****     coap_pkt->payload_len = (uint16_t)(length);
 3994              		.loc 1 1430 0
 3995 0007 668997C2 		movw	%dx, 194(%rdi)
 3995      000000
1431:/home/baikal/workspace/C50/Huawei_IoT_Agent_Tiny_SDK_Linux//lwm2m/core/er-coap-13/er-coap-13.c **** 
1432:/home/baikal/workspace/C50/Huawei_IoT_Agent_Tiny_SDK_Linux//lwm2m/core/er-coap-13/er-coap-13.c ****     return coap_pkt->payload_len;
 3996              		.loc 1 1432 0
 3997 000e 0FB7C2   		movzwl	%dx, %eax
1433:/home/baikal/workspace/C50/Huawei_IoT_Agent_Tiny_SDK_Linux//lwm2m/core/er-coap-13/er-coap-13.c **** }
 3998              		.loc 1 1433 0
GAS LISTING /tmp/ccSAldBr.s 			page 107


 3999 0011 C3       		ret
 4000              		.cfi_endproc
 4001              	.LFE120:
 4003              		.globl	coap_error_message
 4004              		.section	.rodata.str1.1
 4005              	.LC3:
 4006 0033 00       		.string	""
 4007              		.section	.data.coap_error_message,"aw",@progbits
 4008              		.align 8
 4011              	coap_error_message:
 4012 0000 00000000 		.quad	.LC3
 4012      00000000 
 4013              		.globl	coap_error_code
 4014              		.section	.bss.coap_error_code,"aw",@nobits
 4015              		.align 4
 4018              	coap_error_code:
 4019 0000 00000000 		.zero	4
 4020              		.section	.bss.current_mid,"aw",@nobits
 4021              		.align 2
 4024              	current_mid:
 4025 0000 0000     		.zero	2
 4026              		.text
 4027              	.Letext0:
 4028              		.file 3 "/usr/lib/gcc/x86_64-linux-gnu/5/include/stddef.h"
 4029              		.file 4 "/usr/include/x86_64-linux-gnu/bits/types.h"
 4030              		.file 5 "/usr/include/libio.h"
 4031              		.file 6 "/usr/include/stdint.h"
 4032              		.file 7 "/home/baikal/workspace/C50/Huawei_IoT_Agent_Tiny_SDK_Linux//lwm2m/core/er-coap-13/er-coap
 4033              		.file 8 "/usr/include/stdio.h"
 4034              		.file 9 "/usr/include/string.h"
 4035              		.file 10 "/home/baikal/workspace/C50/Huawei_IoT_Agent_Tiny_SDK_Linux//lwm2m/core/liblwm2m.h"
 4036              		.file 11 "<built-in>"
GAS LISTING /tmp/ccSAldBr.s 			page 108


DEFINED SYMBOLS
                            *ABS*:0000000000000000 er-coap-13.c
     /tmp/ccSAldBr.s:6      .text.coap_log_2:0000000000000000 coap_log_2
     /tmp/ccSAldBr.s:41     .text.coap_parse_int_option:0000000000000000 coap_parse_int_option
     /tmp/ccSAldBr.s:74     .text.coap_option_nibble:0000000000000000 coap_option_nibble
     /tmp/ccSAldBr.s:102    .text.coap_set_option_header:0000000000000000 coap_set_option_header
     /tmp/ccSAldBr.s:204    .text.coap_serialize_int_option:0000000000000000 coap_serialize_int_option
     /tmp/ccSAldBr.s:342    .text.coap_serialize_array_option:0000000000000000 coap_serialize_array_option
     /tmp/ccSAldBr.s:521    .text.coap_serialize_multi_option:0000000000000000 coap_serialize_multi_option
     /tmp/ccSAldBr.s:619    .text.coap_merge_multi_option:0000000000000000 coap_merge_multi_option
     /tmp/ccSAldBr.s:706    .text.coap_get_variable:0000000000000000 coap_get_variable
     /tmp/ccSAldBr.s:853    .text.coap_add_multi_option:0000000000000000 coap_add_multi_option
     /tmp/ccSAldBr.s:985    .text.free_multi_option:0000000000000000 free_multi_option
     /tmp/ccSAldBr.s:1052   .text.coap_get_multi_option_as_string:0000000000000000 coap_get_multi_option_as_string
     /tmp/ccSAldBr.s:1166   .text.coap_get_mid:0000000000000000 coap_get_mid
     /tmp/ccSAldBr.s:4024   .bss.current_mid:0000000000000000 current_mid
     /tmp/ccSAldBr.s:1182   .text.coap_init_message:0000000000000000 coap_init_message
     /tmp/ccSAldBr.s:1222   .text.coap_free_header:0000000000000000 coap_free_header
     /tmp/ccSAldBr.s:1264   .text.coap_serialize_get_size:0000000000000000 coap_serialize_get_size
     /tmp/ccSAldBr.s:1483   .text.coap_serialize_message:0000000000000000 coap_serialize_message
     /tmp/ccSAldBr.s:1964   .text.coap_parse_message:0000000000000000 coap_parse_message
     /tmp/ccSAldBr.s:4011   .data.coap_error_message:0000000000000000 coap_error_message
     /tmp/ccSAldBr.s:2534   .text.coap_get_query_variable:0000000000000000 coap_get_query_variable
     /tmp/ccSAldBr.s:2548   .text.coap_get_post_variable:0000000000000000 coap_get_post_variable
     /tmp/ccSAldBr.s:2594   .text.coap_set_status_code:0000000000000000 coap_set_status_code
     /tmp/ccSAldBr.s:2618   .text.coap_get_header_content_type:0000000000000000 coap_get_header_content_type
     /tmp/ccSAldBr.s:2640   .text.coap_set_header_content_type:0000000000000000 coap_set_header_content_type
     /tmp/ccSAldBr.s:2658   .text.coap_get_header_accept:0000000000000000 coap_get_header_accept
     /tmp/ccSAldBr.s:2683   .text.coap_set_header_accept:0000000000000000 coap_set_header_accept
     /tmp/ccSAldBr.s:2711   .text.coap_get_header_max_age:0000000000000000 coap_get_header_max_age
     /tmp/ccSAldBr.s:2736   .text.coap_set_header_max_age:0000000000000000 coap_set_header_max_age
     /tmp/ccSAldBr.s:2754   .text.coap_get_header_etag:0000000000000000 coap_get_header_etag
     /tmp/ccSAldBr.s:2779   .text.coap_set_header_etag:0000000000000000 coap_set_header_etag
     /tmp/ccSAldBr.s:2825   .text.coap_get_header_if_match:0000000000000000 coap_get_header_if_match
     /tmp/ccSAldBr.s:2850   .text.coap_set_header_if_match:0000000000000000 coap_set_header_if_match
     /tmp/ccSAldBr.s:2896   .text.coap_get_header_if_none_match:0000000000000000 coap_get_header_if_none_match
     /tmp/ccSAldBr.s:2913   .text.coap_set_header_if_none_match:0000000000000000 coap_set_header_if_none_match
     /tmp/ccSAldBr.s:2929   .text.coap_get_header_token:0000000000000000 coap_get_header_token
     /tmp/ccSAldBr.s:2954   .text.coap_set_header_token:0000000000000000 coap_set_header_token
     /tmp/ccSAldBr.s:3000   .text.coap_get_header_proxy_uri:0000000000000000 coap_get_header_proxy_uri
     /tmp/ccSAldBr.s:3025   .text.coap_set_header_proxy_uri:0000000000000000 coap_set_header_proxy_uri
     /tmp/ccSAldBr.s:3055   .text.coap_get_header_uri_host:0000000000000000 coap_get_header_uri_host
     /tmp/ccSAldBr.s:3080   .text.coap_set_header_uri_host:0000000000000000 coap_set_header_uri_host
     /tmp/ccSAldBr.s:3110   .text.coap_get_header_uri_path:0000000000000000 coap_get_header_uri_path
     /tmp/ccSAldBr.s:3130   .text.coap_set_header_uri_path:0000000000000000 coap_set_header_uri_path
     /tmp/ccSAldBr.s:3251   .text.coap_set_header_uri_path_segment:0000000000000000 coap_set_header_uri_path_segment
     /tmp/ccSAldBr.s:3330   .text.coap_get_header_uri_query:0000000000000000 coap_get_header_uri_query
     /tmp/ccSAldBr.s:3350   .text.coap_set_header_uri_query:0000000000000000 coap_set_header_uri_query
     /tmp/ccSAldBr.s:3471   .text.coap_get_header_location_path:0000000000000000 coap_get_header_location_path
     /tmp/ccSAldBr.s:3491   .text.coap_set_header_location_path:0000000000000000 coap_set_header_location_path
     /tmp/ccSAldBr.s:3612   .text.coap_get_header_location_query:0000000000000000 coap_get_header_location_query
     /tmp/ccSAldBr.s:3637   .text.coap_set_header_location_query:0000000000000000 coap_set_header_location_query
     /tmp/ccSAldBr.s:3677   .text.coap_get_header_observe:0000000000000000 coap_get_header_observe
     /tmp/ccSAldBr.s:3702   .text.coap_set_header_observe:0000000000000000 coap_set_header_observe
     /tmp/ccSAldBr.s:3722   .text.coap_get_header_block2:0000000000000000 coap_get_header_block2
     /tmp/ccSAldBr.s:3775   .text.coap_set_header_block2:0000000000000000 coap_set_header_block2
     /tmp/ccSAldBr.s:3820   .text.coap_get_header_block1:0000000000000000 coap_get_header_block1
GAS LISTING /tmp/ccSAldBr.s 			page 109


     /tmp/ccSAldBr.s:3873   .text.coap_set_header_block1:0000000000000000 coap_set_header_block1
     /tmp/ccSAldBr.s:3917   .text.coap_get_header_size:0000000000000000 coap_get_header_size
     /tmp/ccSAldBr.s:3942   .text.coap_set_header_size:0000000000000000 coap_set_header_size
     /tmp/ccSAldBr.s:3960   .text.coap_get_payload:0000000000000000 coap_get_payload
     /tmp/ccSAldBr.s:3987   .text.coap_set_payload:0000000000000000 coap_set_payload
     /tmp/ccSAldBr.s:4018   .bss.coap_error_code:0000000000000000 coap_error_code

UNDEFINED SYMBOLS
memcpy
memmove
strncmp
memchr
lwm2m_malloc
lwm2m_free
