GAS LISTING /tmp/ccQM4ohB.s 			page 1


   1              		.file	"liblwm2m.c"
   2              		.text
   3              	.Ltext0:
   4              		.section	.text.lwm2m_bootstrap_tag_IOT_server,"ax",@progbits
   6              	lwm2m_bootstrap_tag_IOT_server:
   7              	.LFB80:
   8              		.file 1 "/home/baikal/workspace/C50/Huawei_IoT_Agent_Tiny_SDK_Linux//lwm2m/core/liblwm2m.c"
   1:/home/baikal/workspace/C50/Huawei_IoT_Agent_Tiny_SDK_Linux//lwm2m/core/liblwm2m.c **** /*----------------------------------------------------------------------------
   2:/home/baikal/workspace/C50/Huawei_IoT_Agent_Tiny_SDK_Linux//lwm2m/core/liblwm2m.c ****  * Copyright (c) <2016-2018>, <Huawei Technologies Co., Ltd>
   3:/home/baikal/workspace/C50/Huawei_IoT_Agent_Tiny_SDK_Linux//lwm2m/core/liblwm2m.c ****  * All rights reserved.
   4:/home/baikal/workspace/C50/Huawei_IoT_Agent_Tiny_SDK_Linux//lwm2m/core/liblwm2m.c ****  * Redistribution and use in source and binary forms, with or without modification,
   5:/home/baikal/workspace/C50/Huawei_IoT_Agent_Tiny_SDK_Linux//lwm2m/core/liblwm2m.c ****  * are permitted provided that the following conditions are met:
   6:/home/baikal/workspace/C50/Huawei_IoT_Agent_Tiny_SDK_Linux//lwm2m/core/liblwm2m.c ****  * 1. Redistributions of source code must retain the above copyright notice, this list of
   7:/home/baikal/workspace/C50/Huawei_IoT_Agent_Tiny_SDK_Linux//lwm2m/core/liblwm2m.c ****  * conditions and the following disclaimer.
   8:/home/baikal/workspace/C50/Huawei_IoT_Agent_Tiny_SDK_Linux//lwm2m/core/liblwm2m.c ****  * 2. Redistributions in binary form must reproduce the above copyright notice, this list
   9:/home/baikal/workspace/C50/Huawei_IoT_Agent_Tiny_SDK_Linux//lwm2m/core/liblwm2m.c ****  * of conditions and the following disclaimer in the documentation and/or other materials
  10:/home/baikal/workspace/C50/Huawei_IoT_Agent_Tiny_SDK_Linux//lwm2m/core/liblwm2m.c ****  * provided with the distribution.
  11:/home/baikal/workspace/C50/Huawei_IoT_Agent_Tiny_SDK_Linux//lwm2m/core/liblwm2m.c ****  * 3. Neither the name of the copyright holder nor the names of its contributors may be used
  12:/home/baikal/workspace/C50/Huawei_IoT_Agent_Tiny_SDK_Linux//lwm2m/core/liblwm2m.c ****  * to endorse or promote products derived from this software without specific prior written
  13:/home/baikal/workspace/C50/Huawei_IoT_Agent_Tiny_SDK_Linux//lwm2m/core/liblwm2m.c ****  * permission.
  14:/home/baikal/workspace/C50/Huawei_IoT_Agent_Tiny_SDK_Linux//lwm2m/core/liblwm2m.c ****  * THIS SOFTWARE IS PROVIDED BY THE COPYRIGHT HOLDERS AND CONTRIBUTORS
  15:/home/baikal/workspace/C50/Huawei_IoT_Agent_Tiny_SDK_Linux//lwm2m/core/liblwm2m.c ****  * "AS IS" AND ANY EXPRESS OR IMPLIED WARRANTIES, INCLUDING, BUT NOT LIMITED TO,
  16:/home/baikal/workspace/C50/Huawei_IoT_Agent_Tiny_SDK_Linux//lwm2m/core/liblwm2m.c ****  * THE IMPLIED WARRANTIES OF MERCHANTABILITY AND FITNESS FOR A PARTICULAR
  17:/home/baikal/workspace/C50/Huawei_IoT_Agent_Tiny_SDK_Linux//lwm2m/core/liblwm2m.c ****  * PURPOSE ARE DISCLAIMED. IN NO EVENT SHALL THE COPYRIGHT HOLDER OR
  18:/home/baikal/workspace/C50/Huawei_IoT_Agent_Tiny_SDK_Linux//lwm2m/core/liblwm2m.c ****  * CONTRIBUTORS BE LIABLE FOR ANY DIRECT, INDIRECT, INCIDENTAL, SPECIAL,
  19:/home/baikal/workspace/C50/Huawei_IoT_Agent_Tiny_SDK_Linux//lwm2m/core/liblwm2m.c ****  * EXEMPLARY, OR CONSEQUENTIAL DAMAGES (INCLUDING, BUT NOT LIMITED TO,
  20:/home/baikal/workspace/C50/Huawei_IoT_Agent_Tiny_SDK_Linux//lwm2m/core/liblwm2m.c ****  * PROCUREMENT OF SUBSTITUTE GOODS OR SERVICES; LOSS OF USE, DATA, OR PROFITS;
  21:/home/baikal/workspace/C50/Huawei_IoT_Agent_Tiny_SDK_Linux//lwm2m/core/liblwm2m.c ****  * OR BUSINESS INTERRUPTION) HOWEVER CAUSED AND ON ANY THEORY OF LIABILITY,
  22:/home/baikal/workspace/C50/Huawei_IoT_Agent_Tiny_SDK_Linux//lwm2m/core/liblwm2m.c ****  * WHETHER IN CONTRACT, STRICT LIABILITY, OR TORT (INCLUDING NEGLIGENCE OR
  23:/home/baikal/workspace/C50/Huawei_IoT_Agent_Tiny_SDK_Linux//lwm2m/core/liblwm2m.c ****  * OTHERWISE) ARISING IN ANY WAY OUT OF THE USE OF THIS SOFTWARE, EVEN IF
  24:/home/baikal/workspace/C50/Huawei_IoT_Agent_Tiny_SDK_Linux//lwm2m/core/liblwm2m.c ****  * ADVISED OF THE POSSIBILITY OF SUCH DAMAGE.
  25:/home/baikal/workspace/C50/Huawei_IoT_Agent_Tiny_SDK_Linux//lwm2m/core/liblwm2m.c ****  *---------------------------------------------------------------------------*/
  26:/home/baikal/workspace/C50/Huawei_IoT_Agent_Tiny_SDK_Linux//lwm2m/core/liblwm2m.c **** /*----------------------------------------------------------------------------
  27:/home/baikal/workspace/C50/Huawei_IoT_Agent_Tiny_SDK_Linux//lwm2m/core/liblwm2m.c ****  * Notice of Export Control Law
  28:/home/baikal/workspace/C50/Huawei_IoT_Agent_Tiny_SDK_Linux//lwm2m/core/liblwm2m.c ****  * ===============================================
  29:/home/baikal/workspace/C50/Huawei_IoT_Agent_Tiny_SDK_Linux//lwm2m/core/liblwm2m.c ****  * Huawei LiteOS may be subject to applicable export control laws and regulations, which might
  30:/home/baikal/workspace/C50/Huawei_IoT_Agent_Tiny_SDK_Linux//lwm2m/core/liblwm2m.c ****  * include those applicable to Huawei LiteOS of U.S. and the country in which you are located.
  31:/home/baikal/workspace/C50/Huawei_IoT_Agent_Tiny_SDK_Linux//lwm2m/core/liblwm2m.c ****  * Import, export and usage of Huawei LiteOS in any manner by you shall be in compliance with such
  32:/home/baikal/workspace/C50/Huawei_IoT_Agent_Tiny_SDK_Linux//lwm2m/core/liblwm2m.c ****  * applicable export control laws and regulations.
  33:/home/baikal/workspace/C50/Huawei_IoT_Agent_Tiny_SDK_Linux//lwm2m/core/liblwm2m.c ****  *---------------------------------------------------------------------------*/
  34:/home/baikal/workspace/C50/Huawei_IoT_Agent_Tiny_SDK_Linux//lwm2m/core/liblwm2m.c **** 
  35:/home/baikal/workspace/C50/Huawei_IoT_Agent_Tiny_SDK_Linux//lwm2m/core/liblwm2m.c **** /*******************************************************************************
  36:/home/baikal/workspace/C50/Huawei_IoT_Agent_Tiny_SDK_Linux//lwm2m/core/liblwm2m.c ****  *
  37:/home/baikal/workspace/C50/Huawei_IoT_Agent_Tiny_SDK_Linux//lwm2m/core/liblwm2m.c ****  * Copyright (c) 2013, 2014 Intel Corporation and others.
  38:/home/baikal/workspace/C50/Huawei_IoT_Agent_Tiny_SDK_Linux//lwm2m/core/liblwm2m.c ****  * All rights reserved. This program and the accompanying materials
  39:/home/baikal/workspace/C50/Huawei_IoT_Agent_Tiny_SDK_Linux//lwm2m/core/liblwm2m.c ****  * are made available under the terms of the Eclipse Public License v1.0
  40:/home/baikal/workspace/C50/Huawei_IoT_Agent_Tiny_SDK_Linux//lwm2m/core/liblwm2m.c ****  * and Eclipse Distribution License v1.0 which accompany this distribution.
  41:/home/baikal/workspace/C50/Huawei_IoT_Agent_Tiny_SDK_Linux//lwm2m/core/liblwm2m.c ****  *
  42:/home/baikal/workspace/C50/Huawei_IoT_Agent_Tiny_SDK_Linux//lwm2m/core/liblwm2m.c ****  * The Eclipse Public License is available at
  43:/home/baikal/workspace/C50/Huawei_IoT_Agent_Tiny_SDK_Linux//lwm2m/core/liblwm2m.c ****  *    http://www.eclipse.org/legal/epl-v10.html
  44:/home/baikal/workspace/C50/Huawei_IoT_Agent_Tiny_SDK_Linux//lwm2m/core/liblwm2m.c ****  * The Eclipse Distribution License is available at
  45:/home/baikal/workspace/C50/Huawei_IoT_Agent_Tiny_SDK_Linux//lwm2m/core/liblwm2m.c ****  *    http://www.eclipse.org/org/documents/edl-v10.php.
  46:/home/baikal/workspace/C50/Huawei_IoT_Agent_Tiny_SDK_Linux//lwm2m/core/liblwm2m.c ****  *
  47:/home/baikal/workspace/C50/Huawei_IoT_Agent_Tiny_SDK_Linux//lwm2m/core/liblwm2m.c ****  * Contributors:
  48:/home/baikal/workspace/C50/Huawei_IoT_Agent_Tiny_SDK_Linux//lwm2m/core/liblwm2m.c ****  *    David Navarro, Intel Corporation - initial API and implementation
  49:/home/baikal/workspace/C50/Huawei_IoT_Agent_Tiny_SDK_Linux//lwm2m/core/liblwm2m.c ****  *    Fabien Fleutot - Please refer to git log
  50:/home/baikal/workspace/C50/Huawei_IoT_Agent_Tiny_SDK_Linux//lwm2m/core/liblwm2m.c ****  *    Simon Bernard - Please refer to git log
GAS LISTING /tmp/ccQM4ohB.s 			page 2


  51:/home/baikal/workspace/C50/Huawei_IoT_Agent_Tiny_SDK_Linux//lwm2m/core/liblwm2m.c ****  *    Toby Jaffey - Please refer to git log
  52:/home/baikal/workspace/C50/Huawei_IoT_Agent_Tiny_SDK_Linux//lwm2m/core/liblwm2m.c ****  *    Pascal Rieux - Please refer to git log
  53:/home/baikal/workspace/C50/Huawei_IoT_Agent_Tiny_SDK_Linux//lwm2m/core/liblwm2m.c ****  *
  54:/home/baikal/workspace/C50/Huawei_IoT_Agent_Tiny_SDK_Linux//lwm2m/core/liblwm2m.c ****  *******************************************************************************/
  55:/home/baikal/workspace/C50/Huawei_IoT_Agent_Tiny_SDK_Linux//lwm2m/core/liblwm2m.c **** 
  56:/home/baikal/workspace/C50/Huawei_IoT_Agent_Tiny_SDK_Linux//lwm2m/core/liblwm2m.c **** /*
  57:/home/baikal/workspace/C50/Huawei_IoT_Agent_Tiny_SDK_Linux//lwm2m/core/liblwm2m.c ****  Copyright (c) 2013, 2014 Intel Corporation
  58:/home/baikal/workspace/C50/Huawei_IoT_Agent_Tiny_SDK_Linux//lwm2m/core/liblwm2m.c **** 
  59:/home/baikal/workspace/C50/Huawei_IoT_Agent_Tiny_SDK_Linux//lwm2m/core/liblwm2m.c ****  Redistribution and use in source and binary forms, with or without modification,
  60:/home/baikal/workspace/C50/Huawei_IoT_Agent_Tiny_SDK_Linux//lwm2m/core/liblwm2m.c ****  are permitted provided that the following conditions are met:
  61:/home/baikal/workspace/C50/Huawei_IoT_Agent_Tiny_SDK_Linux//lwm2m/core/liblwm2m.c **** 
  62:/home/baikal/workspace/C50/Huawei_IoT_Agent_Tiny_SDK_Linux//lwm2m/core/liblwm2m.c ****      * Redistributions of source code must retain the above copyright notice,
  63:/home/baikal/workspace/C50/Huawei_IoT_Agent_Tiny_SDK_Linux//lwm2m/core/liblwm2m.c ****        this list of conditions and the following disclaimer.
  64:/home/baikal/workspace/C50/Huawei_IoT_Agent_Tiny_SDK_Linux//lwm2m/core/liblwm2m.c ****      * Redistributions in binary form must reproduce the above copyright notice,
  65:/home/baikal/workspace/C50/Huawei_IoT_Agent_Tiny_SDK_Linux//lwm2m/core/liblwm2m.c ****        this list of conditions and the following disclaimer in the documentation
  66:/home/baikal/workspace/C50/Huawei_IoT_Agent_Tiny_SDK_Linux//lwm2m/core/liblwm2m.c ****        and/or other materials provided with the distribution.
  67:/home/baikal/workspace/C50/Huawei_IoT_Agent_Tiny_SDK_Linux//lwm2m/core/liblwm2m.c ****      * Neither the name of Intel Corporation nor the names of its contributors
  68:/home/baikal/workspace/C50/Huawei_IoT_Agent_Tiny_SDK_Linux//lwm2m/core/liblwm2m.c ****        may be used to endorse or promote products derived from this software
  69:/home/baikal/workspace/C50/Huawei_IoT_Agent_Tiny_SDK_Linux//lwm2m/core/liblwm2m.c ****        without specific prior written permission.
  70:/home/baikal/workspace/C50/Huawei_IoT_Agent_Tiny_SDK_Linux//lwm2m/core/liblwm2m.c **** 
  71:/home/baikal/workspace/C50/Huawei_IoT_Agent_Tiny_SDK_Linux//lwm2m/core/liblwm2m.c ****  THIS SOFTWARE IS PROVIDED BY THE COPYRIGHT HOLDERS AND CONTRIBUTORS "AS IS" AND
  72:/home/baikal/workspace/C50/Huawei_IoT_Agent_Tiny_SDK_Linux//lwm2m/core/liblwm2m.c ****  ANY EXPRESS OR IMPLIED WARRANTIES, INCLUDING, BUT NOT LIMITED TO, THE IMPLIED
  73:/home/baikal/workspace/C50/Huawei_IoT_Agent_Tiny_SDK_Linux//lwm2m/core/liblwm2m.c ****  WARRANTIES OF MERCHANTABILITY AND FITNESS FOR A PARTICULAR PURPOSE ARE DISCLAIMED.
  74:/home/baikal/workspace/C50/Huawei_IoT_Agent_Tiny_SDK_Linux//lwm2m/core/liblwm2m.c ****  IN NO EVENT SHALL THE COPYRIGHT OWNER OR CONTRIBUTORS BE LIABLE FOR ANY DIRECT,
  75:/home/baikal/workspace/C50/Huawei_IoT_Agent_Tiny_SDK_Linux//lwm2m/core/liblwm2m.c ****  INDIRECT, INCIDENTAL, SPECIAL, EXEMPLARY, OR CONSEQUENTIAL DAMAGES (INCLUDING,
  76:/home/baikal/workspace/C50/Huawei_IoT_Agent_Tiny_SDK_Linux//lwm2m/core/liblwm2m.c ****  BUT NOT LIMITED TO, PROCUREMENT OF SUBSTITUTE GOODS OR SERVICES; LOSS OF USE,
  77:/home/baikal/workspace/C50/Huawei_IoT_Agent_Tiny_SDK_Linux//lwm2m/core/liblwm2m.c ****  DATA, OR PROFITS; OR BUSINESS INTERRUPTION) HOWEVER CAUSED AND ON ANY THEORY OF
  78:/home/baikal/workspace/C50/Huawei_IoT_Agent_Tiny_SDK_Linux//lwm2m/core/liblwm2m.c ****  LIABILITY, WHETHER IN CONTRACT, STRICT LIABILITY, OR TORT (INCLUDING NEGLIGENCE OR
  79:/home/baikal/workspace/C50/Huawei_IoT_Agent_Tiny_SDK_Linux//lwm2m/core/liblwm2m.c ****  OTHERWISE) ARISING IN ANY WAY OUT OF THE USE OF THIS SOFTWARE, EVEN IF ADVISED OF
  80:/home/baikal/workspace/C50/Huawei_IoT_Agent_Tiny_SDK_Linux//lwm2m/core/liblwm2m.c ****  THE POSSIBILITY OF SUCH DAMAGE.
  81:/home/baikal/workspace/C50/Huawei_IoT_Agent_Tiny_SDK_Linux//lwm2m/core/liblwm2m.c **** 
  82:/home/baikal/workspace/C50/Huawei_IoT_Agent_Tiny_SDK_Linux//lwm2m/core/liblwm2m.c ****  David Navarro <david.navarro@intel.com>
  83:/home/baikal/workspace/C50/Huawei_IoT_Agent_Tiny_SDK_Linux//lwm2m/core/liblwm2m.c **** 
  84:/home/baikal/workspace/C50/Huawei_IoT_Agent_Tiny_SDK_Linux//lwm2m/core/liblwm2m.c **** */
  85:/home/baikal/workspace/C50/Huawei_IoT_Agent_Tiny_SDK_Linux//lwm2m/core/liblwm2m.c **** 
  86:/home/baikal/workspace/C50/Huawei_IoT_Agent_Tiny_SDK_Linux//lwm2m/core/liblwm2m.c **** #include "internals.h"
  87:/home/baikal/workspace/C50/Huawei_IoT_Agent_Tiny_SDK_Linux//lwm2m/core/liblwm2m.c **** #include "atiny_adapter.h"
  88:/home/baikal/workspace/C50/Huawei_IoT_Agent_Tiny_SDK_Linux//lwm2m/core/liblwm2m.c **** #include <stdlib.h>
  89:/home/baikal/workspace/C50/Huawei_IoT_Agent_Tiny_SDK_Linux//lwm2m/core/liblwm2m.c **** #include <string.h>
  90:/home/baikal/workspace/C50/Huawei_IoT_Agent_Tiny_SDK_Linux//lwm2m/core/liblwm2m.c **** 
  91:/home/baikal/workspace/C50/Huawei_IoT_Agent_Tiny_SDK_Linux//lwm2m/core/liblwm2m.c **** #include <stdio.h>
  92:/home/baikal/workspace/C50/Huawei_IoT_Agent_Tiny_SDK_Linux//lwm2m/core/liblwm2m.c **** 
  93:/home/baikal/workspace/C50/Huawei_IoT_Agent_Tiny_SDK_Linux//lwm2m/core/liblwm2m.c **** 
  94:/home/baikal/workspace/C50/Huawei_IoT_Agent_Tiny_SDK_Linux//lwm2m/core/liblwm2m.c **** lwm2m_context_t *lwm2m_init(void *userData)
  95:/home/baikal/workspace/C50/Huawei_IoT_Agent_Tiny_SDK_Linux//lwm2m/core/liblwm2m.c **** {
  96:/home/baikal/workspace/C50/Huawei_IoT_Agent_Tiny_SDK_Linux//lwm2m/core/liblwm2m.c ****     lwm2m_context_t *contextP;
  97:/home/baikal/workspace/C50/Huawei_IoT_Agent_Tiny_SDK_Linux//lwm2m/core/liblwm2m.c **** 
  98:/home/baikal/workspace/C50/Huawei_IoT_Agent_Tiny_SDK_Linux//lwm2m/core/liblwm2m.c ****     LOG("Entering");
  99:/home/baikal/workspace/C50/Huawei_IoT_Agent_Tiny_SDK_Linux//lwm2m/core/liblwm2m.c ****     contextP = (lwm2m_context_t *)lwm2m_malloc(sizeof(lwm2m_context_t));
 100:/home/baikal/workspace/C50/Huawei_IoT_Agent_Tiny_SDK_Linux//lwm2m/core/liblwm2m.c ****     if (NULL != contextP)
 101:/home/baikal/workspace/C50/Huawei_IoT_Agent_Tiny_SDK_Linux//lwm2m/core/liblwm2m.c ****     {
 102:/home/baikal/workspace/C50/Huawei_IoT_Agent_Tiny_SDK_Linux//lwm2m/core/liblwm2m.c ****         memset(contextP, 0, sizeof(lwm2m_context_t));
 103:/home/baikal/workspace/C50/Huawei_IoT_Agent_Tiny_SDK_Linux//lwm2m/core/liblwm2m.c ****         contextP->userData = userData;
 104:/home/baikal/workspace/C50/Huawei_IoT_Agent_Tiny_SDK_Linux//lwm2m/core/liblwm2m.c ****         lwm2m_rand((void *)&contextP->nextMID, sizeof(contextP->nextMID));
 105:/home/baikal/workspace/C50/Huawei_IoT_Agent_Tiny_SDK_Linux//lwm2m/core/liblwm2m.c ****     }
 106:/home/baikal/workspace/C50/Huawei_IoT_Agent_Tiny_SDK_Linux//lwm2m/core/liblwm2m.c **** 
 107:/home/baikal/workspace/C50/Huawei_IoT_Agent_Tiny_SDK_Linux//lwm2m/core/liblwm2m.c ****     return contextP;
GAS LISTING /tmp/ccQM4ohB.s 			page 3


 108:/home/baikal/workspace/C50/Huawei_IoT_Agent_Tiny_SDK_Linux//lwm2m/core/liblwm2m.c **** }
 109:/home/baikal/workspace/C50/Huawei_IoT_Agent_Tiny_SDK_Linux//lwm2m/core/liblwm2m.c **** 
 110:/home/baikal/workspace/C50/Huawei_IoT_Agent_Tiny_SDK_Linux//lwm2m/core/liblwm2m.c **** #ifdef LWM2M_CLIENT_MODE
 111:/home/baikal/workspace/C50/Huawei_IoT_Agent_Tiny_SDK_Linux//lwm2m/core/liblwm2m.c **** 
 112:/home/baikal/workspace/C50/Huawei_IoT_Agent_Tiny_SDK_Linux//lwm2m/core/liblwm2m.c **** 
 113:/home/baikal/workspace/C50/Huawei_IoT_Agent_Tiny_SDK_Linux//lwm2m/core/liblwm2m.c **** static lwm2m_event_handler_t event_handler = NULL;
 114:/home/baikal/workspace/C50/Huawei_IoT_Agent_Tiny_SDK_Linux//lwm2m/core/liblwm2m.c **** void lwm2m_register_event_handler(lwm2m_event_handler_t callback)
 115:/home/baikal/workspace/C50/Huawei_IoT_Agent_Tiny_SDK_Linux//lwm2m/core/liblwm2m.c **** {
 116:/home/baikal/workspace/C50/Huawei_IoT_Agent_Tiny_SDK_Linux//lwm2m/core/liblwm2m.c ****     event_handler = callback;
 117:/home/baikal/workspace/C50/Huawei_IoT_Agent_Tiny_SDK_Linux//lwm2m/core/liblwm2m.c **** }
 118:/home/baikal/workspace/C50/Huawei_IoT_Agent_Tiny_SDK_Linux//lwm2m/core/liblwm2m.c **** 
 119:/home/baikal/workspace/C50/Huawei_IoT_Agent_Tiny_SDK_Linux//lwm2m/core/liblwm2m.c **** void lwm2m_notify_even(module_type_t type, int code, const char *arg, int arg_len)
 120:/home/baikal/workspace/C50/Huawei_IoT_Agent_Tiny_SDK_Linux//lwm2m/core/liblwm2m.c **** {
 121:/home/baikal/workspace/C50/Huawei_IoT_Agent_Tiny_SDK_Linux//lwm2m/core/liblwm2m.c ****     if(event_handler != NULL)
 122:/home/baikal/workspace/C50/Huawei_IoT_Agent_Tiny_SDK_Linux//lwm2m/core/liblwm2m.c ****     {
 123:/home/baikal/workspace/C50/Huawei_IoT_Agent_Tiny_SDK_Linux//lwm2m/core/liblwm2m.c ****         event_handler(type, code, arg, arg_len);
 124:/home/baikal/workspace/C50/Huawei_IoT_Agent_Tiny_SDK_Linux//lwm2m/core/liblwm2m.c ****     }
 125:/home/baikal/workspace/C50/Huawei_IoT_Agent_Tiny_SDK_Linux//lwm2m/core/liblwm2m.c **** }
 126:/home/baikal/workspace/C50/Huawei_IoT_Agent_Tiny_SDK_Linux//lwm2m/core/liblwm2m.c **** 
 127:/home/baikal/workspace/C50/Huawei_IoT_Agent_Tiny_SDK_Linux//lwm2m/core/liblwm2m.c **** void lwm2m_deregister(lwm2m_context_t *context)
 128:/home/baikal/workspace/C50/Huawei_IoT_Agent_Tiny_SDK_Linux//lwm2m/core/liblwm2m.c **** {
 129:/home/baikal/workspace/C50/Huawei_IoT_Agent_Tiny_SDK_Linux//lwm2m/core/liblwm2m.c ****     lwm2m_server_t *server = context->serverList;
 130:/home/baikal/workspace/C50/Huawei_IoT_Agent_Tiny_SDK_Linux//lwm2m/core/liblwm2m.c **** 
 131:/home/baikal/workspace/C50/Huawei_IoT_Agent_Tiny_SDK_Linux//lwm2m/core/liblwm2m.c ****     LOG("Entering");
 132:/home/baikal/workspace/C50/Huawei_IoT_Agent_Tiny_SDK_Linux//lwm2m/core/liblwm2m.c ****     while (NULL != server)
 133:/home/baikal/workspace/C50/Huawei_IoT_Agent_Tiny_SDK_Linux//lwm2m/core/liblwm2m.c ****     {
 134:/home/baikal/workspace/C50/Huawei_IoT_Agent_Tiny_SDK_Linux//lwm2m/core/liblwm2m.c ****         registration_deregister(context, server);
 135:/home/baikal/workspace/C50/Huawei_IoT_Agent_Tiny_SDK_Linux//lwm2m/core/liblwm2m.c ****         server = server->next;
 136:/home/baikal/workspace/C50/Huawei_IoT_Agent_Tiny_SDK_Linux//lwm2m/core/liblwm2m.c ****     }
 137:/home/baikal/workspace/C50/Huawei_IoT_Agent_Tiny_SDK_Linux//lwm2m/core/liblwm2m.c **** }
 138:/home/baikal/workspace/C50/Huawei_IoT_Agent_Tiny_SDK_Linux//lwm2m/core/liblwm2m.c **** 
 139:/home/baikal/workspace/C50/Huawei_IoT_Agent_Tiny_SDK_Linux//lwm2m/core/liblwm2m.c **** static void prv_deleteServer(lwm2m_server_t *serverP, void *userData)
 140:/home/baikal/workspace/C50/Huawei_IoT_Agent_Tiny_SDK_Linux//lwm2m/core/liblwm2m.c **** {
 141:/home/baikal/workspace/C50/Huawei_IoT_Agent_Tiny_SDK_Linux//lwm2m/core/liblwm2m.c ****     // TODO parse transaction and observation to remove the ones related to this server
 142:/home/baikal/workspace/C50/Huawei_IoT_Agent_Tiny_SDK_Linux//lwm2m/core/liblwm2m.c ****     if (serverP->sessionH != NULL)
 143:/home/baikal/workspace/C50/Huawei_IoT_Agent_Tiny_SDK_Linux//lwm2m/core/liblwm2m.c ****     {
 144:/home/baikal/workspace/C50/Huawei_IoT_Agent_Tiny_SDK_Linux//lwm2m/core/liblwm2m.c ****         lwm2m_close_connection(serverP->sessionH, userData);
 145:/home/baikal/workspace/C50/Huawei_IoT_Agent_Tiny_SDK_Linux//lwm2m/core/liblwm2m.c ****     }
 146:/home/baikal/workspace/C50/Huawei_IoT_Agent_Tiny_SDK_Linux//lwm2m/core/liblwm2m.c ****     if (NULL != serverP->location)
 147:/home/baikal/workspace/C50/Huawei_IoT_Agent_Tiny_SDK_Linux//lwm2m/core/liblwm2m.c ****     {
 148:/home/baikal/workspace/C50/Huawei_IoT_Agent_Tiny_SDK_Linux//lwm2m/core/liblwm2m.c ****         lwm2m_free(serverP->location);
 149:/home/baikal/workspace/C50/Huawei_IoT_Agent_Tiny_SDK_Linux//lwm2m/core/liblwm2m.c ****     }
 150:/home/baikal/workspace/C50/Huawei_IoT_Agent_Tiny_SDK_Linux//lwm2m/core/liblwm2m.c ****     free_block1_buffer(serverP->block1Data);
 151:/home/baikal/workspace/C50/Huawei_IoT_Agent_Tiny_SDK_Linux//lwm2m/core/liblwm2m.c ****     lwm2m_free(serverP);
 152:/home/baikal/workspace/C50/Huawei_IoT_Agent_Tiny_SDK_Linux//lwm2m/core/liblwm2m.c **** }
 153:/home/baikal/workspace/C50/Huawei_IoT_Agent_Tiny_SDK_Linux//lwm2m/core/liblwm2m.c **** 
 154:/home/baikal/workspace/C50/Huawei_IoT_Agent_Tiny_SDK_Linux//lwm2m/core/liblwm2m.c **** static void prv_deleteServerList(lwm2m_context_t *context)
 155:/home/baikal/workspace/C50/Huawei_IoT_Agent_Tiny_SDK_Linux//lwm2m/core/liblwm2m.c **** {
 156:/home/baikal/workspace/C50/Huawei_IoT_Agent_Tiny_SDK_Linux//lwm2m/core/liblwm2m.c ****     while (NULL != context->serverList)
 157:/home/baikal/workspace/C50/Huawei_IoT_Agent_Tiny_SDK_Linux//lwm2m/core/liblwm2m.c ****     {
 158:/home/baikal/workspace/C50/Huawei_IoT_Agent_Tiny_SDK_Linux//lwm2m/core/liblwm2m.c ****         lwm2m_server_t *server;
 159:/home/baikal/workspace/C50/Huawei_IoT_Agent_Tiny_SDK_Linux//lwm2m/core/liblwm2m.c ****         server = context->serverList;
 160:/home/baikal/workspace/C50/Huawei_IoT_Agent_Tiny_SDK_Linux//lwm2m/core/liblwm2m.c ****         context->serverList = server->next;
 161:/home/baikal/workspace/C50/Huawei_IoT_Agent_Tiny_SDK_Linux//lwm2m/core/liblwm2m.c ****         prv_deleteServer(server, context->userData);
 162:/home/baikal/workspace/C50/Huawei_IoT_Agent_Tiny_SDK_Linux//lwm2m/core/liblwm2m.c ****     }
 163:/home/baikal/workspace/C50/Huawei_IoT_Agent_Tiny_SDK_Linux//lwm2m/core/liblwm2m.c **** }
 164:/home/baikal/workspace/C50/Huawei_IoT_Agent_Tiny_SDK_Linux//lwm2m/core/liblwm2m.c **** 
GAS LISTING /tmp/ccQM4ohB.s 			page 4


 165:/home/baikal/workspace/C50/Huawei_IoT_Agent_Tiny_SDK_Linux//lwm2m/core/liblwm2m.c **** #ifdef LWM2M_BOOTSTRAP
 166:/home/baikal/workspace/C50/Huawei_IoT_Agent_Tiny_SDK_Linux//lwm2m/core/liblwm2m.c **** static void prv_deleteBootstrapServer(lwm2m_server_t *serverP, void *userData)
 167:/home/baikal/workspace/C50/Huawei_IoT_Agent_Tiny_SDK_Linux//lwm2m/core/liblwm2m.c **** {
 168:/home/baikal/workspace/C50/Huawei_IoT_Agent_Tiny_SDK_Linux//lwm2m/core/liblwm2m.c ****     // TODO should we free location as in prv_deleteServer ?
 169:/home/baikal/workspace/C50/Huawei_IoT_Agent_Tiny_SDK_Linux//lwm2m/core/liblwm2m.c ****     // TODO should we parse transaction and observation to remove the ones related to this server ?
 170:/home/baikal/workspace/C50/Huawei_IoT_Agent_Tiny_SDK_Linux//lwm2m/core/liblwm2m.c ****     if (serverP->sessionH != NULL)
 171:/home/baikal/workspace/C50/Huawei_IoT_Agent_Tiny_SDK_Linux//lwm2m/core/liblwm2m.c ****     {
 172:/home/baikal/workspace/C50/Huawei_IoT_Agent_Tiny_SDK_Linux//lwm2m/core/liblwm2m.c ****         lwm2m_close_connection(serverP->sessionH, userData);
 173:/home/baikal/workspace/C50/Huawei_IoT_Agent_Tiny_SDK_Linux//lwm2m/core/liblwm2m.c ****     }
 174:/home/baikal/workspace/C50/Huawei_IoT_Agent_Tiny_SDK_Linux//lwm2m/core/liblwm2m.c ****     free_block1_buffer(serverP->block1Data);
 175:/home/baikal/workspace/C50/Huawei_IoT_Agent_Tiny_SDK_Linux//lwm2m/core/liblwm2m.c ****     lwm2m_free(serverP);
 176:/home/baikal/workspace/C50/Huawei_IoT_Agent_Tiny_SDK_Linux//lwm2m/core/liblwm2m.c **** }
 177:/home/baikal/workspace/C50/Huawei_IoT_Agent_Tiny_SDK_Linux//lwm2m/core/liblwm2m.c **** 
 178:/home/baikal/workspace/C50/Huawei_IoT_Agent_Tiny_SDK_Linux//lwm2m/core/liblwm2m.c **** static void prv_deleteBootstrapServerList(lwm2m_context_t *context)
 179:/home/baikal/workspace/C50/Huawei_IoT_Agent_Tiny_SDK_Linux//lwm2m/core/liblwm2m.c **** {
 180:/home/baikal/workspace/C50/Huawei_IoT_Agent_Tiny_SDK_Linux//lwm2m/core/liblwm2m.c ****     while (NULL != context->bootstrapServerList)
 181:/home/baikal/workspace/C50/Huawei_IoT_Agent_Tiny_SDK_Linux//lwm2m/core/liblwm2m.c ****     {
 182:/home/baikal/workspace/C50/Huawei_IoT_Agent_Tiny_SDK_Linux//lwm2m/core/liblwm2m.c ****         lwm2m_server_t *server;
 183:/home/baikal/workspace/C50/Huawei_IoT_Agent_Tiny_SDK_Linux//lwm2m/core/liblwm2m.c ****         server = context->bootstrapServerList;
 184:/home/baikal/workspace/C50/Huawei_IoT_Agent_Tiny_SDK_Linux//lwm2m/core/liblwm2m.c ****         context->bootstrapServerList = server->next;
 185:/home/baikal/workspace/C50/Huawei_IoT_Agent_Tiny_SDK_Linux//lwm2m/core/liblwm2m.c ****         prv_deleteBootstrapServer(server, context->userData);
 186:/home/baikal/workspace/C50/Huawei_IoT_Agent_Tiny_SDK_Linux//lwm2m/core/liblwm2m.c ****     }
 187:/home/baikal/workspace/C50/Huawei_IoT_Agent_Tiny_SDK_Linux//lwm2m/core/liblwm2m.c **** }
 188:/home/baikal/workspace/C50/Huawei_IoT_Agent_Tiny_SDK_Linux//lwm2m/core/liblwm2m.c **** #endif
 189:/home/baikal/workspace/C50/Huawei_IoT_Agent_Tiny_SDK_Linux//lwm2m/core/liblwm2m.c **** 
 190:/home/baikal/workspace/C50/Huawei_IoT_Agent_Tiny_SDK_Linux//lwm2m/core/liblwm2m.c **** static void prv_deleteObservedList(lwm2m_context_t *contextP)
 191:/home/baikal/workspace/C50/Huawei_IoT_Agent_Tiny_SDK_Linux//lwm2m/core/liblwm2m.c **** {
 192:/home/baikal/workspace/C50/Huawei_IoT_Agent_Tiny_SDK_Linux//lwm2m/core/liblwm2m.c ****     atiny_mutex_lock(contextP->observe_mutex);
 193:/home/baikal/workspace/C50/Huawei_IoT_Agent_Tiny_SDK_Linux//lwm2m/core/liblwm2m.c ****     while (NULL != contextP->observedList)
 194:/home/baikal/workspace/C50/Huawei_IoT_Agent_Tiny_SDK_Linux//lwm2m/core/liblwm2m.c ****     {
 195:/home/baikal/workspace/C50/Huawei_IoT_Agent_Tiny_SDK_Linux//lwm2m/core/liblwm2m.c ****         lwm2m_observed_t *targetP;
 196:/home/baikal/workspace/C50/Huawei_IoT_Agent_Tiny_SDK_Linux//lwm2m/core/liblwm2m.c ****         lwm2m_watcher_t *watcherP;
 197:/home/baikal/workspace/C50/Huawei_IoT_Agent_Tiny_SDK_Linux//lwm2m/core/liblwm2m.c **** 
 198:/home/baikal/workspace/C50/Huawei_IoT_Agent_Tiny_SDK_Linux//lwm2m/core/liblwm2m.c ****         targetP = contextP->observedList;
 199:/home/baikal/workspace/C50/Huawei_IoT_Agent_Tiny_SDK_Linux//lwm2m/core/liblwm2m.c ****         contextP->observedList = contextP->observedList->next;
 200:/home/baikal/workspace/C50/Huawei_IoT_Agent_Tiny_SDK_Linux//lwm2m/core/liblwm2m.c **** 
 201:/home/baikal/workspace/C50/Huawei_IoT_Agent_Tiny_SDK_Linux//lwm2m/core/liblwm2m.c ****         lwm2m_notify_even(MODULE_URI, OBSERVE_UNSUBSCRIBE, (char *) & (targetP->uri), sizeof(target
 202:/home/baikal/workspace/C50/Huawei_IoT_Agent_Tiny_SDK_Linux//lwm2m/core/liblwm2m.c **** 
 203:/home/baikal/workspace/C50/Huawei_IoT_Agent_Tiny_SDK_Linux//lwm2m/core/liblwm2m.c ****         for (watcherP = targetP->watcherList ; watcherP != NULL ; watcherP = watcherP->next)
 204:/home/baikal/workspace/C50/Huawei_IoT_Agent_Tiny_SDK_Linux//lwm2m/core/liblwm2m.c ****         {
 205:/home/baikal/workspace/C50/Huawei_IoT_Agent_Tiny_SDK_Linux//lwm2m/core/liblwm2m.c ****             if (watcherP->parameters != NULL) lwm2m_free(watcherP->parameters);
 206:/home/baikal/workspace/C50/Huawei_IoT_Agent_Tiny_SDK_Linux//lwm2m/core/liblwm2m.c ****         }
 207:/home/baikal/workspace/C50/Huawei_IoT_Agent_Tiny_SDK_Linux//lwm2m/core/liblwm2m.c ****         LWM2M_LIST_FREE(targetP->watcherList);
 208:/home/baikal/workspace/C50/Huawei_IoT_Agent_Tiny_SDK_Linux//lwm2m/core/liblwm2m.c **** 
 209:/home/baikal/workspace/C50/Huawei_IoT_Agent_Tiny_SDK_Linux//lwm2m/core/liblwm2m.c ****         lwm2m_free(targetP);
 210:/home/baikal/workspace/C50/Huawei_IoT_Agent_Tiny_SDK_Linux//lwm2m/core/liblwm2m.c ****     }
 211:/home/baikal/workspace/C50/Huawei_IoT_Agent_Tiny_SDK_Linux//lwm2m/core/liblwm2m.c ****     atiny_mutex_unlock(contextP->observe_mutex);
 212:/home/baikal/workspace/C50/Huawei_IoT_Agent_Tiny_SDK_Linux//lwm2m/core/liblwm2m.c **** }
 213:/home/baikal/workspace/C50/Huawei_IoT_Agent_Tiny_SDK_Linux//lwm2m/core/liblwm2m.c **** #endif
 214:/home/baikal/workspace/C50/Huawei_IoT_Agent_Tiny_SDK_Linux//lwm2m/core/liblwm2m.c **** 
 215:/home/baikal/workspace/C50/Huawei_IoT_Agent_Tiny_SDK_Linux//lwm2m/core/liblwm2m.c **** void prv_deleteTransactionList(lwm2m_context_t *context)
 216:/home/baikal/workspace/C50/Huawei_IoT_Agent_Tiny_SDK_Linux//lwm2m/core/liblwm2m.c **** {
 217:/home/baikal/workspace/C50/Huawei_IoT_Agent_Tiny_SDK_Linux//lwm2m/core/liblwm2m.c ****     while (NULL != context->transactionList)
 218:/home/baikal/workspace/C50/Huawei_IoT_Agent_Tiny_SDK_Linux//lwm2m/core/liblwm2m.c ****     {
 219:/home/baikal/workspace/C50/Huawei_IoT_Agent_Tiny_SDK_Linux//lwm2m/core/liblwm2m.c ****         lwm2m_transaction_t *transaction;
 220:/home/baikal/workspace/C50/Huawei_IoT_Agent_Tiny_SDK_Linux//lwm2m/core/liblwm2m.c **** 
 221:/home/baikal/workspace/C50/Huawei_IoT_Agent_Tiny_SDK_Linux//lwm2m/core/liblwm2m.c ****         transaction = context->transactionList;
GAS LISTING /tmp/ccQM4ohB.s 			page 5


 222:/home/baikal/workspace/C50/Huawei_IoT_Agent_Tiny_SDK_Linux//lwm2m/core/liblwm2m.c ****         context->transactionList = context->transactionList->next;
 223:/home/baikal/workspace/C50/Huawei_IoT_Agent_Tiny_SDK_Linux//lwm2m/core/liblwm2m.c ****         if (transaction->callback != NULL)
 224:/home/baikal/workspace/C50/Huawei_IoT_Agent_Tiny_SDK_Linux//lwm2m/core/liblwm2m.c ****         {
 225:/home/baikal/workspace/C50/Huawei_IoT_Agent_Tiny_SDK_Linux//lwm2m/core/liblwm2m.c ****             transaction->callback(transaction, NULL);
 226:/home/baikal/workspace/C50/Huawei_IoT_Agent_Tiny_SDK_Linux//lwm2m/core/liblwm2m.c ****         }
 227:/home/baikal/workspace/C50/Huawei_IoT_Agent_Tiny_SDK_Linux//lwm2m/core/liblwm2m.c ****         transaction_free(transaction);
 228:/home/baikal/workspace/C50/Huawei_IoT_Agent_Tiny_SDK_Linux//lwm2m/core/liblwm2m.c ****     }
 229:/home/baikal/workspace/C50/Huawei_IoT_Agent_Tiny_SDK_Linux//lwm2m/core/liblwm2m.c **** }
 230:/home/baikal/workspace/C50/Huawei_IoT_Agent_Tiny_SDK_Linux//lwm2m/core/liblwm2m.c **** 
 231:/home/baikal/workspace/C50/Huawei_IoT_Agent_Tiny_SDK_Linux//lwm2m/core/liblwm2m.c **** void lwm2m_close(lwm2m_context_t *contextP)
 232:/home/baikal/workspace/C50/Huawei_IoT_Agent_Tiny_SDK_Linux//lwm2m/core/liblwm2m.c **** {
 233:/home/baikal/workspace/C50/Huawei_IoT_Agent_Tiny_SDK_Linux//lwm2m/core/liblwm2m.c **** #ifdef LWM2M_CLIENT_MODE
 234:/home/baikal/workspace/C50/Huawei_IoT_Agent_Tiny_SDK_Linux//lwm2m/core/liblwm2m.c **** 
 235:/home/baikal/workspace/C50/Huawei_IoT_Agent_Tiny_SDK_Linux//lwm2m/core/liblwm2m.c ****     LOG("Entering");
 236:/home/baikal/workspace/C50/Huawei_IoT_Agent_Tiny_SDK_Linux//lwm2m/core/liblwm2m.c ****     lwm2m_deregister(contextP);
 237:/home/baikal/workspace/C50/Huawei_IoT_Agent_Tiny_SDK_Linux//lwm2m/core/liblwm2m.c ****     prv_deleteServerList(contextP);
 238:/home/baikal/workspace/C50/Huawei_IoT_Agent_Tiny_SDK_Linux//lwm2m/core/liblwm2m.c **** #ifdef LWM2M_BOOTSTRAP
 239:/home/baikal/workspace/C50/Huawei_IoT_Agent_Tiny_SDK_Linux//lwm2m/core/liblwm2m.c ****     prv_deleteBootstrapServerList(contextP);
 240:/home/baikal/workspace/C50/Huawei_IoT_Agent_Tiny_SDK_Linux//lwm2m/core/liblwm2m.c **** #endif
 241:/home/baikal/workspace/C50/Huawei_IoT_Agent_Tiny_SDK_Linux//lwm2m/core/liblwm2m.c ****     prv_deleteObservedList(contextP);
 242:/home/baikal/workspace/C50/Huawei_IoT_Agent_Tiny_SDK_Linux//lwm2m/core/liblwm2m.c ****     lwm2m_free(contextP->endpointName);
 243:/home/baikal/workspace/C50/Huawei_IoT_Agent_Tiny_SDK_Linux//lwm2m/core/liblwm2m.c ****     //lwm2m_free(contextP->bs_server_uri);
 244:/home/baikal/workspace/C50/Huawei_IoT_Agent_Tiny_SDK_Linux//lwm2m/core/liblwm2m.c ****     if (contextP->msisdn != NULL)
 245:/home/baikal/workspace/C50/Huawei_IoT_Agent_Tiny_SDK_Linux//lwm2m/core/liblwm2m.c ****     {
 246:/home/baikal/workspace/C50/Huawei_IoT_Agent_Tiny_SDK_Linux//lwm2m/core/liblwm2m.c ****         lwm2m_free(contextP->msisdn);
 247:/home/baikal/workspace/C50/Huawei_IoT_Agent_Tiny_SDK_Linux//lwm2m/core/liblwm2m.c ****     }
 248:/home/baikal/workspace/C50/Huawei_IoT_Agent_Tiny_SDK_Linux//lwm2m/core/liblwm2m.c ****     if (contextP->altPath != NULL)
 249:/home/baikal/workspace/C50/Huawei_IoT_Agent_Tiny_SDK_Linux//lwm2m/core/liblwm2m.c ****     {
 250:/home/baikal/workspace/C50/Huawei_IoT_Agent_Tiny_SDK_Linux//lwm2m/core/liblwm2m.c ****         lwm2m_free(contextP->altPath);
 251:/home/baikal/workspace/C50/Huawei_IoT_Agent_Tiny_SDK_Linux//lwm2m/core/liblwm2m.c ****     }
 252:/home/baikal/workspace/C50/Huawei_IoT_Agent_Tiny_SDK_Linux//lwm2m/core/liblwm2m.c **** 
 253:/home/baikal/workspace/C50/Huawei_IoT_Agent_Tiny_SDK_Linux//lwm2m/core/liblwm2m.c **** #endif
 254:/home/baikal/workspace/C50/Huawei_IoT_Agent_Tiny_SDK_Linux//lwm2m/core/liblwm2m.c **** 
 255:/home/baikal/workspace/C50/Huawei_IoT_Agent_Tiny_SDK_Linux//lwm2m/core/liblwm2m.c **** #ifdef LWM2M_SERVER_MODE
 256:/home/baikal/workspace/C50/Huawei_IoT_Agent_Tiny_SDK_Linux//lwm2m/core/liblwm2m.c ****     while (NULL != contextP->clientList)
 257:/home/baikal/workspace/C50/Huawei_IoT_Agent_Tiny_SDK_Linux//lwm2m/core/liblwm2m.c ****     {
 258:/home/baikal/workspace/C50/Huawei_IoT_Agent_Tiny_SDK_Linux//lwm2m/core/liblwm2m.c ****         lwm2m_client_t *clientP;
 259:/home/baikal/workspace/C50/Huawei_IoT_Agent_Tiny_SDK_Linux//lwm2m/core/liblwm2m.c **** 
 260:/home/baikal/workspace/C50/Huawei_IoT_Agent_Tiny_SDK_Linux//lwm2m/core/liblwm2m.c ****         clientP = contextP->clientList;
 261:/home/baikal/workspace/C50/Huawei_IoT_Agent_Tiny_SDK_Linux//lwm2m/core/liblwm2m.c ****         contextP->clientList = contextP->clientList->next;
 262:/home/baikal/workspace/C50/Huawei_IoT_Agent_Tiny_SDK_Linux//lwm2m/core/liblwm2m.c **** 
 263:/home/baikal/workspace/C50/Huawei_IoT_Agent_Tiny_SDK_Linux//lwm2m/core/liblwm2m.c ****         registration_freeClient(clientP);
 264:/home/baikal/workspace/C50/Huawei_IoT_Agent_Tiny_SDK_Linux//lwm2m/core/liblwm2m.c ****     }
 265:/home/baikal/workspace/C50/Huawei_IoT_Agent_Tiny_SDK_Linux//lwm2m/core/liblwm2m.c **** #endif
 266:/home/baikal/workspace/C50/Huawei_IoT_Agent_Tiny_SDK_Linux//lwm2m/core/liblwm2m.c **** 
 267:/home/baikal/workspace/C50/Huawei_IoT_Agent_Tiny_SDK_Linux//lwm2m/core/liblwm2m.c ****     prv_deleteTransactionList(contextP);
 268:/home/baikal/workspace/C50/Huawei_IoT_Agent_Tiny_SDK_Linux//lwm2m/core/liblwm2m.c ****     lwm2m_free(contextP);
 269:/home/baikal/workspace/C50/Huawei_IoT_Agent_Tiny_SDK_Linux//lwm2m/core/liblwm2m.c **** }
 270:/home/baikal/workspace/C50/Huawei_IoT_Agent_Tiny_SDK_Linux//lwm2m/core/liblwm2m.c **** 
 271:/home/baikal/workspace/C50/Huawei_IoT_Agent_Tiny_SDK_Linux//lwm2m/core/liblwm2m.c **** #ifdef LWM2M_CLIENT_MODE
 272:/home/baikal/workspace/C50/Huawei_IoT_Agent_Tiny_SDK_Linux//lwm2m/core/liblwm2m.c **** static int prv_refreshServerList(lwm2m_context_t *contextP)
 273:/home/baikal/workspace/C50/Huawei_IoT_Agent_Tiny_SDK_Linux//lwm2m/core/liblwm2m.c **** {
 274:/home/baikal/workspace/C50/Huawei_IoT_Agent_Tiny_SDK_Linux//lwm2m/core/liblwm2m.c ****     lwm2m_server_t *targetP;
 275:/home/baikal/workspace/C50/Huawei_IoT_Agent_Tiny_SDK_Linux//lwm2m/core/liblwm2m.c ****     lwm2m_server_t *nextP;
 276:/home/baikal/workspace/C50/Huawei_IoT_Agent_Tiny_SDK_Linux//lwm2m/core/liblwm2m.c **** 
 277:/home/baikal/workspace/C50/Huawei_IoT_Agent_Tiny_SDK_Linux//lwm2m/core/liblwm2m.c ****     // Remove all servers marked as dirty
 278:/home/baikal/workspace/C50/Huawei_IoT_Agent_Tiny_SDK_Linux//lwm2m/core/liblwm2m.c ****     targetP = contextP->bootstrapServerList;
GAS LISTING /tmp/ccQM4ohB.s 			page 6


 279:/home/baikal/workspace/C50/Huawei_IoT_Agent_Tiny_SDK_Linux//lwm2m/core/liblwm2m.c ****     contextP->bootstrapServerList = NULL;
 280:/home/baikal/workspace/C50/Huawei_IoT_Agent_Tiny_SDK_Linux//lwm2m/core/liblwm2m.c ****     while (targetP != NULL)
 281:/home/baikal/workspace/C50/Huawei_IoT_Agent_Tiny_SDK_Linux//lwm2m/core/liblwm2m.c ****     {
 282:/home/baikal/workspace/C50/Huawei_IoT_Agent_Tiny_SDK_Linux//lwm2m/core/liblwm2m.c ****         nextP = targetP->next;
 283:/home/baikal/workspace/C50/Huawei_IoT_Agent_Tiny_SDK_Linux//lwm2m/core/liblwm2m.c ****         targetP->next = NULL;
 284:/home/baikal/workspace/C50/Huawei_IoT_Agent_Tiny_SDK_Linux//lwm2m/core/liblwm2m.c ****         if (!targetP->dirty)
 285:/home/baikal/workspace/C50/Huawei_IoT_Agent_Tiny_SDK_Linux//lwm2m/core/liblwm2m.c ****         {
 286:/home/baikal/workspace/C50/Huawei_IoT_Agent_Tiny_SDK_Linux//lwm2m/core/liblwm2m.c ****             targetP->status = STATE_DEREGISTERED;
 287:/home/baikal/workspace/C50/Huawei_IoT_Agent_Tiny_SDK_Linux//lwm2m/core/liblwm2m.c ****             contextP->bootstrapServerList = (lwm2m_server_t *)LWM2M_LIST_ADD(contextP->bootstrapSer
 288:/home/baikal/workspace/C50/Huawei_IoT_Agent_Tiny_SDK_Linux//lwm2m/core/liblwm2m.c ****         }
 289:/home/baikal/workspace/C50/Huawei_IoT_Agent_Tiny_SDK_Linux//lwm2m/core/liblwm2m.c ****         else
 290:/home/baikal/workspace/C50/Huawei_IoT_Agent_Tiny_SDK_Linux//lwm2m/core/liblwm2m.c ****         {
 291:/home/baikal/workspace/C50/Huawei_IoT_Agent_Tiny_SDK_Linux//lwm2m/core/liblwm2m.c ****             prv_deleteServer(targetP, contextP->userData);
 292:/home/baikal/workspace/C50/Huawei_IoT_Agent_Tiny_SDK_Linux//lwm2m/core/liblwm2m.c ****         }
 293:/home/baikal/workspace/C50/Huawei_IoT_Agent_Tiny_SDK_Linux//lwm2m/core/liblwm2m.c ****         targetP = nextP;
 294:/home/baikal/workspace/C50/Huawei_IoT_Agent_Tiny_SDK_Linux//lwm2m/core/liblwm2m.c ****     }
 295:/home/baikal/workspace/C50/Huawei_IoT_Agent_Tiny_SDK_Linux//lwm2m/core/liblwm2m.c ****     targetP = contextP->serverList;
 296:/home/baikal/workspace/C50/Huawei_IoT_Agent_Tiny_SDK_Linux//lwm2m/core/liblwm2m.c ****     contextP->serverList = NULL;
 297:/home/baikal/workspace/C50/Huawei_IoT_Agent_Tiny_SDK_Linux//lwm2m/core/liblwm2m.c ****     while (targetP != NULL)
 298:/home/baikal/workspace/C50/Huawei_IoT_Agent_Tiny_SDK_Linux//lwm2m/core/liblwm2m.c ****     {
 299:/home/baikal/workspace/C50/Huawei_IoT_Agent_Tiny_SDK_Linux//lwm2m/core/liblwm2m.c ****         nextP = targetP->next;
 300:/home/baikal/workspace/C50/Huawei_IoT_Agent_Tiny_SDK_Linux//lwm2m/core/liblwm2m.c ****         targetP->next = NULL;
 301:/home/baikal/workspace/C50/Huawei_IoT_Agent_Tiny_SDK_Linux//lwm2m/core/liblwm2m.c ****         if (!targetP->dirty)
 302:/home/baikal/workspace/C50/Huawei_IoT_Agent_Tiny_SDK_Linux//lwm2m/core/liblwm2m.c ****         {
 303:/home/baikal/workspace/C50/Huawei_IoT_Agent_Tiny_SDK_Linux//lwm2m/core/liblwm2m.c ****             // TODO: Should we revert the status to STATE_DEREGISTERED ?
 304:/home/baikal/workspace/C50/Huawei_IoT_Agent_Tiny_SDK_Linux//lwm2m/core/liblwm2m.c ****             contextP->serverList = (lwm2m_server_t *)LWM2M_LIST_ADD(contextP->serverList, targetP);
 305:/home/baikal/workspace/C50/Huawei_IoT_Agent_Tiny_SDK_Linux//lwm2m/core/liblwm2m.c ****         }
 306:/home/baikal/workspace/C50/Huawei_IoT_Agent_Tiny_SDK_Linux//lwm2m/core/liblwm2m.c ****         else
 307:/home/baikal/workspace/C50/Huawei_IoT_Agent_Tiny_SDK_Linux//lwm2m/core/liblwm2m.c ****         {
 308:/home/baikal/workspace/C50/Huawei_IoT_Agent_Tiny_SDK_Linux//lwm2m/core/liblwm2m.c ****             prv_deleteServer(targetP, contextP->userData);
 309:/home/baikal/workspace/C50/Huawei_IoT_Agent_Tiny_SDK_Linux//lwm2m/core/liblwm2m.c ****         }
 310:/home/baikal/workspace/C50/Huawei_IoT_Agent_Tiny_SDK_Linux//lwm2m/core/liblwm2m.c ****         targetP = nextP;
 311:/home/baikal/workspace/C50/Huawei_IoT_Agent_Tiny_SDK_Linux//lwm2m/core/liblwm2m.c ****     }
 312:/home/baikal/workspace/C50/Huawei_IoT_Agent_Tiny_SDK_Linux//lwm2m/core/liblwm2m.c **** 
 313:/home/baikal/workspace/C50/Huawei_IoT_Agent_Tiny_SDK_Linux//lwm2m/core/liblwm2m.c ****     return object_getServers(contextP, false);
 314:/home/baikal/workspace/C50/Huawei_IoT_Agent_Tiny_SDK_Linux//lwm2m/core/liblwm2m.c **** }
 315:/home/baikal/workspace/C50/Huawei_IoT_Agent_Tiny_SDK_Linux//lwm2m/core/liblwm2m.c **** //result = lwm2m_configure(lwm2mH, name, NULL, NULL, OBJ_COUNT, objArray)
 316:/home/baikal/workspace/C50/Huawei_IoT_Agent_Tiny_SDK_Linux//lwm2m/core/liblwm2m.c **** int lwm2m_configure(lwm2m_context_t *contextP,
 317:/home/baikal/workspace/C50/Huawei_IoT_Agent_Tiny_SDK_Linux//lwm2m/core/liblwm2m.c ****                     const char *endpointName,
 318:/home/baikal/workspace/C50/Huawei_IoT_Agent_Tiny_SDK_Linux//lwm2m/core/liblwm2m.c ****                     const char *msisdn,
 319:/home/baikal/workspace/C50/Huawei_IoT_Agent_Tiny_SDK_Linux//lwm2m/core/liblwm2m.c ****                     const char *altPath,
 320:/home/baikal/workspace/C50/Huawei_IoT_Agent_Tiny_SDK_Linux//lwm2m/core/liblwm2m.c ****                     uint16_t numObject,
 321:/home/baikal/workspace/C50/Huawei_IoT_Agent_Tiny_SDK_Linux//lwm2m/core/liblwm2m.c ****                     lwm2m_object_t *objectList[])
 322:/home/baikal/workspace/C50/Huawei_IoT_Agent_Tiny_SDK_Linux//lwm2m/core/liblwm2m.c **** {
 323:/home/baikal/workspace/C50/Huawei_IoT_Agent_Tiny_SDK_Linux//lwm2m/core/liblwm2m.c ****     int i;
 324:/home/baikal/workspace/C50/Huawei_IoT_Agent_Tiny_SDK_Linux//lwm2m/core/liblwm2m.c ****     uint8_t found;
 325:/home/baikal/workspace/C50/Huawei_IoT_Agent_Tiny_SDK_Linux//lwm2m/core/liblwm2m.c **** 
 326:/home/baikal/workspace/C50/Huawei_IoT_Agent_Tiny_SDK_Linux//lwm2m/core/liblwm2m.c ****     //LOG_ARG("endpointName: \"%s\", msisdn: \"%s\", altPath: \"%s\", numObject: %d", endpointName,
 327:/home/baikal/workspace/C50/Huawei_IoT_Agent_Tiny_SDK_Linux//lwm2m/core/liblwm2m.c ****     // This API can be called only once for now
 328:/home/baikal/workspace/C50/Huawei_IoT_Agent_Tiny_SDK_Linux//lwm2m/core/liblwm2m.c ****     if (contextP->endpointName != NULL || contextP->objectList != NULL) return COAP_400_BAD_REQUEST
 329:/home/baikal/workspace/C50/Huawei_IoT_Agent_Tiny_SDK_Linux//lwm2m/core/liblwm2m.c **** 
 330:/home/baikal/workspace/C50/Huawei_IoT_Agent_Tiny_SDK_Linux//lwm2m/core/liblwm2m.c ****     if (endpointName == NULL) return COAP_400_BAD_REQUEST;
 331:/home/baikal/workspace/C50/Huawei_IoT_Agent_Tiny_SDK_Linux//lwm2m/core/liblwm2m.c ****     if (numObject < 3) return COAP_400_BAD_REQUEST;
 332:/home/baikal/workspace/C50/Huawei_IoT_Agent_Tiny_SDK_Linux//lwm2m/core/liblwm2m.c ****     // Check that mandatory objects are present
 333:/home/baikal/workspace/C50/Huawei_IoT_Agent_Tiny_SDK_Linux//lwm2m/core/liblwm2m.c ****     found = 0;
 334:/home/baikal/workspace/C50/Huawei_IoT_Agent_Tiny_SDK_Linux//lwm2m/core/liblwm2m.c ****     for (i = 0 ; i < numObject ; i++)
 335:/home/baikal/workspace/C50/Huawei_IoT_Agent_Tiny_SDK_Linux//lwm2m/core/liblwm2m.c ****     {
GAS LISTING /tmp/ccQM4ohB.s 			page 7


 336:/home/baikal/workspace/C50/Huawei_IoT_Agent_Tiny_SDK_Linux//lwm2m/core/liblwm2m.c ****         if(objectList[i] == NULL) // happens when undef CONFIG_FEATURE_FOTA
 337:/home/baikal/workspace/C50/Huawei_IoT_Agent_Tiny_SDK_Linux//lwm2m/core/liblwm2m.c ****             continue;
 338:/home/baikal/workspace/C50/Huawei_IoT_Agent_Tiny_SDK_Linux//lwm2m/core/liblwm2m.c ****         if (objectList[i]->objID == LWM2M_SECURITY_OBJECT_ID) found |= 0x01;
 339:/home/baikal/workspace/C50/Huawei_IoT_Agent_Tiny_SDK_Linux//lwm2m/core/liblwm2m.c ****         if (objectList[i]->objID == LWM2M_SERVER_OBJECT_ID) found |= 0x02;
 340:/home/baikal/workspace/C50/Huawei_IoT_Agent_Tiny_SDK_Linux//lwm2m/core/liblwm2m.c ****         if (objectList[i]->objID == LWM2M_DEVICE_OBJECT_ID) found |= 0x04;
 341:/home/baikal/workspace/C50/Huawei_IoT_Agent_Tiny_SDK_Linux//lwm2m/core/liblwm2m.c ****     }
 342:/home/baikal/workspace/C50/Huawei_IoT_Agent_Tiny_SDK_Linux//lwm2m/core/liblwm2m.c ****     if (found != 0x07) return COAP_400_BAD_REQUEST;
 343:/home/baikal/workspace/C50/Huawei_IoT_Agent_Tiny_SDK_Linux//lwm2m/core/liblwm2m.c ****     if (altPath != NULL)
 344:/home/baikal/workspace/C50/Huawei_IoT_Agent_Tiny_SDK_Linux//lwm2m/core/liblwm2m.c ****     {
 345:/home/baikal/workspace/C50/Huawei_IoT_Agent_Tiny_SDK_Linux//lwm2m/core/liblwm2m.c ****         if (0 == utils_isAltPathValid(altPath))
 346:/home/baikal/workspace/C50/Huawei_IoT_Agent_Tiny_SDK_Linux//lwm2m/core/liblwm2m.c ****         {
 347:/home/baikal/workspace/C50/Huawei_IoT_Agent_Tiny_SDK_Linux//lwm2m/core/liblwm2m.c ****             return COAP_400_BAD_REQUEST;
 348:/home/baikal/workspace/C50/Huawei_IoT_Agent_Tiny_SDK_Linux//lwm2m/core/liblwm2m.c ****         }
 349:/home/baikal/workspace/C50/Huawei_IoT_Agent_Tiny_SDK_Linux//lwm2m/core/liblwm2m.c ****         if (altPath[1] == 0)
 350:/home/baikal/workspace/C50/Huawei_IoT_Agent_Tiny_SDK_Linux//lwm2m/core/liblwm2m.c ****         {
 351:/home/baikal/workspace/C50/Huawei_IoT_Agent_Tiny_SDK_Linux//lwm2m/core/liblwm2m.c ****             altPath = NULL;
 352:/home/baikal/workspace/C50/Huawei_IoT_Agent_Tiny_SDK_Linux//lwm2m/core/liblwm2m.c ****         }
 353:/home/baikal/workspace/C50/Huawei_IoT_Agent_Tiny_SDK_Linux//lwm2m/core/liblwm2m.c ****     }
 354:/home/baikal/workspace/C50/Huawei_IoT_Agent_Tiny_SDK_Linux//lwm2m/core/liblwm2m.c ****     contextP->endpointName = lwm2m_strdup(endpointName);
 355:/home/baikal/workspace/C50/Huawei_IoT_Agent_Tiny_SDK_Linux//lwm2m/core/liblwm2m.c ****     if (contextP->endpointName == NULL)
 356:/home/baikal/workspace/C50/Huawei_IoT_Agent_Tiny_SDK_Linux//lwm2m/core/liblwm2m.c ****     {
 357:/home/baikal/workspace/C50/Huawei_IoT_Agent_Tiny_SDK_Linux//lwm2m/core/liblwm2m.c ****         return COAP_500_INTERNAL_SERVER_ERROR;
 358:/home/baikal/workspace/C50/Huawei_IoT_Agent_Tiny_SDK_Linux//lwm2m/core/liblwm2m.c ****     }
 359:/home/baikal/workspace/C50/Huawei_IoT_Agent_Tiny_SDK_Linux//lwm2m/core/liblwm2m.c **** 
 360:/home/baikal/workspace/C50/Huawei_IoT_Agent_Tiny_SDK_Linux//lwm2m/core/liblwm2m.c ****     if (msisdn != NULL)
 361:/home/baikal/workspace/C50/Huawei_IoT_Agent_Tiny_SDK_Linux//lwm2m/core/liblwm2m.c ****     {
 362:/home/baikal/workspace/C50/Huawei_IoT_Agent_Tiny_SDK_Linux//lwm2m/core/liblwm2m.c ****         contextP->msisdn = lwm2m_strdup(msisdn);
 363:/home/baikal/workspace/C50/Huawei_IoT_Agent_Tiny_SDK_Linux//lwm2m/core/liblwm2m.c ****         if (contextP->msisdn == NULL)
 364:/home/baikal/workspace/C50/Huawei_IoT_Agent_Tiny_SDK_Linux//lwm2m/core/liblwm2m.c ****         {
 365:/home/baikal/workspace/C50/Huawei_IoT_Agent_Tiny_SDK_Linux//lwm2m/core/liblwm2m.c ****             return COAP_500_INTERNAL_SERVER_ERROR;
 366:/home/baikal/workspace/C50/Huawei_IoT_Agent_Tiny_SDK_Linux//lwm2m/core/liblwm2m.c ****         }
 367:/home/baikal/workspace/C50/Huawei_IoT_Agent_Tiny_SDK_Linux//lwm2m/core/liblwm2m.c ****     }
 368:/home/baikal/workspace/C50/Huawei_IoT_Agent_Tiny_SDK_Linux//lwm2m/core/liblwm2m.c **** 
 369:/home/baikal/workspace/C50/Huawei_IoT_Agent_Tiny_SDK_Linux//lwm2m/core/liblwm2m.c ****     if (altPath != NULL)
 370:/home/baikal/workspace/C50/Huawei_IoT_Agent_Tiny_SDK_Linux//lwm2m/core/liblwm2m.c ****     {
 371:/home/baikal/workspace/C50/Huawei_IoT_Agent_Tiny_SDK_Linux//lwm2m/core/liblwm2m.c ****         contextP->altPath = lwm2m_strdup(altPath);
 372:/home/baikal/workspace/C50/Huawei_IoT_Agent_Tiny_SDK_Linux//lwm2m/core/liblwm2m.c ****         if (contextP->altPath == NULL)
 373:/home/baikal/workspace/C50/Huawei_IoT_Agent_Tiny_SDK_Linux//lwm2m/core/liblwm2m.c ****         {
 374:/home/baikal/workspace/C50/Huawei_IoT_Agent_Tiny_SDK_Linux//lwm2m/core/liblwm2m.c ****             return COAP_500_INTERNAL_SERVER_ERROR;
 375:/home/baikal/workspace/C50/Huawei_IoT_Agent_Tiny_SDK_Linux//lwm2m/core/liblwm2m.c ****         }
 376:/home/baikal/workspace/C50/Huawei_IoT_Agent_Tiny_SDK_Linux//lwm2m/core/liblwm2m.c ****     }
 377:/home/baikal/workspace/C50/Huawei_IoT_Agent_Tiny_SDK_Linux//lwm2m/core/liblwm2m.c **** 
 378:/home/baikal/workspace/C50/Huawei_IoT_Agent_Tiny_SDK_Linux//lwm2m/core/liblwm2m.c ****     for (i = 0; i < numObject; i++)
 379:/home/baikal/workspace/C50/Huawei_IoT_Agent_Tiny_SDK_Linux//lwm2m/core/liblwm2m.c ****     {
 380:/home/baikal/workspace/C50/Huawei_IoT_Agent_Tiny_SDK_Linux//lwm2m/core/liblwm2m.c ****         if(objectList[i] == NULL) // happens when undef CONFIG_FEATURE_FOTA
 381:/home/baikal/workspace/C50/Huawei_IoT_Agent_Tiny_SDK_Linux//lwm2m/core/liblwm2m.c ****             continue;
 382:/home/baikal/workspace/C50/Huawei_IoT_Agent_Tiny_SDK_Linux//lwm2m/core/liblwm2m.c ****         objectList[i]->next = NULL;
 383:/home/baikal/workspace/C50/Huawei_IoT_Agent_Tiny_SDK_Linux//lwm2m/core/liblwm2m.c ****         contextP->objectList = (lwm2m_object_t *)LWM2M_LIST_ADD(contextP->objectList, objectList[i]
 384:/home/baikal/workspace/C50/Huawei_IoT_Agent_Tiny_SDK_Linux//lwm2m/core/liblwm2m.c ****     }
 385:/home/baikal/workspace/C50/Huawei_IoT_Agent_Tiny_SDK_Linux//lwm2m/core/liblwm2m.c **** 
 386:/home/baikal/workspace/C50/Huawei_IoT_Agent_Tiny_SDK_Linux//lwm2m/core/liblwm2m.c ****     return COAP_NO_ERROR;
 387:/home/baikal/workspace/C50/Huawei_IoT_Agent_Tiny_SDK_Linux//lwm2m/core/liblwm2m.c **** }
 388:/home/baikal/workspace/C50/Huawei_IoT_Agent_Tiny_SDK_Linux//lwm2m/core/liblwm2m.c **** 
 389:/home/baikal/workspace/C50/Huawei_IoT_Agent_Tiny_SDK_Linux//lwm2m/core/liblwm2m.c **** int lwm2m_add_object(lwm2m_context_t *contextP,
 390:/home/baikal/workspace/C50/Huawei_IoT_Agent_Tiny_SDK_Linux//lwm2m/core/liblwm2m.c ****                      lwm2m_object_t *objectP)
 391:/home/baikal/workspace/C50/Huawei_IoT_Agent_Tiny_SDK_Linux//lwm2m/core/liblwm2m.c **** {
 392:/home/baikal/workspace/C50/Huawei_IoT_Agent_Tiny_SDK_Linux//lwm2m/core/liblwm2m.c ****     lwm2m_object_t *targetP;
GAS LISTING /tmp/ccQM4ohB.s 			page 8


 393:/home/baikal/workspace/C50/Huawei_IoT_Agent_Tiny_SDK_Linux//lwm2m/core/liblwm2m.c **** 
 394:/home/baikal/workspace/C50/Huawei_IoT_Agent_Tiny_SDK_Linux//lwm2m/core/liblwm2m.c ****     LOG_ARG("ID: %d", objectP->objID);
 395:/home/baikal/workspace/C50/Huawei_IoT_Agent_Tiny_SDK_Linux//lwm2m/core/liblwm2m.c ****     targetP = (lwm2m_object_t *)LWM2M_LIST_FIND(contextP->objectList, objectP->objID);
 396:/home/baikal/workspace/C50/Huawei_IoT_Agent_Tiny_SDK_Linux//lwm2m/core/liblwm2m.c ****     if (targetP != NULL) return COAP_406_NOT_ACCEPTABLE;
 397:/home/baikal/workspace/C50/Huawei_IoT_Agent_Tiny_SDK_Linux//lwm2m/core/liblwm2m.c ****     objectP->next = NULL;
 398:/home/baikal/workspace/C50/Huawei_IoT_Agent_Tiny_SDK_Linux//lwm2m/core/liblwm2m.c **** 
 399:/home/baikal/workspace/C50/Huawei_IoT_Agent_Tiny_SDK_Linux//lwm2m/core/liblwm2m.c ****     contextP->objectList = (lwm2m_object_t *)LWM2M_LIST_ADD(contextP->objectList, objectP);
 400:/home/baikal/workspace/C50/Huawei_IoT_Agent_Tiny_SDK_Linux//lwm2m/core/liblwm2m.c **** 
 401:/home/baikal/workspace/C50/Huawei_IoT_Agent_Tiny_SDK_Linux//lwm2m/core/liblwm2m.c ****     if (contextP->state == STATE_READY)
 402:/home/baikal/workspace/C50/Huawei_IoT_Agent_Tiny_SDK_Linux//lwm2m/core/liblwm2m.c ****     {
 403:/home/baikal/workspace/C50/Huawei_IoT_Agent_Tiny_SDK_Linux//lwm2m/core/liblwm2m.c ****         return lwm2m_update_registration(contextP, 0, true);
 404:/home/baikal/workspace/C50/Huawei_IoT_Agent_Tiny_SDK_Linux//lwm2m/core/liblwm2m.c ****     }
 405:/home/baikal/workspace/C50/Huawei_IoT_Agent_Tiny_SDK_Linux//lwm2m/core/liblwm2m.c **** 
 406:/home/baikal/workspace/C50/Huawei_IoT_Agent_Tiny_SDK_Linux//lwm2m/core/liblwm2m.c ****     return COAP_NO_ERROR;
 407:/home/baikal/workspace/C50/Huawei_IoT_Agent_Tiny_SDK_Linux//lwm2m/core/liblwm2m.c **** }
 408:/home/baikal/workspace/C50/Huawei_IoT_Agent_Tiny_SDK_Linux//lwm2m/core/liblwm2m.c **** 
 409:/home/baikal/workspace/C50/Huawei_IoT_Agent_Tiny_SDK_Linux//lwm2m/core/liblwm2m.c **** int lwm2m_remove_object(lwm2m_context_t *contextP,
 410:/home/baikal/workspace/C50/Huawei_IoT_Agent_Tiny_SDK_Linux//lwm2m/core/liblwm2m.c ****                         uint16_t id)
 411:/home/baikal/workspace/C50/Huawei_IoT_Agent_Tiny_SDK_Linux//lwm2m/core/liblwm2m.c **** {
 412:/home/baikal/workspace/C50/Huawei_IoT_Agent_Tiny_SDK_Linux//lwm2m/core/liblwm2m.c ****     lwm2m_object_t *targetP;
 413:/home/baikal/workspace/C50/Huawei_IoT_Agent_Tiny_SDK_Linux//lwm2m/core/liblwm2m.c **** 
 414:/home/baikal/workspace/C50/Huawei_IoT_Agent_Tiny_SDK_Linux//lwm2m/core/liblwm2m.c ****     LOG_ARG("ID: %d", id);
 415:/home/baikal/workspace/C50/Huawei_IoT_Agent_Tiny_SDK_Linux//lwm2m/core/liblwm2m.c ****     contextP->objectList = (lwm2m_object_t *)LWM2M_LIST_RM(contextP->objectList, id, &targetP);
 416:/home/baikal/workspace/C50/Huawei_IoT_Agent_Tiny_SDK_Linux//lwm2m/core/liblwm2m.c **** 
 417:/home/baikal/workspace/C50/Huawei_IoT_Agent_Tiny_SDK_Linux//lwm2m/core/liblwm2m.c ****     if (targetP == NULL) return COAP_404_NOT_FOUND;
 418:/home/baikal/workspace/C50/Huawei_IoT_Agent_Tiny_SDK_Linux//lwm2m/core/liblwm2m.c **** 
 419:/home/baikal/workspace/C50/Huawei_IoT_Agent_Tiny_SDK_Linux//lwm2m/core/liblwm2m.c ****     if (contextP->state == STATE_READY)
 420:/home/baikal/workspace/C50/Huawei_IoT_Agent_Tiny_SDK_Linux//lwm2m/core/liblwm2m.c ****     {
 421:/home/baikal/workspace/C50/Huawei_IoT_Agent_Tiny_SDK_Linux//lwm2m/core/liblwm2m.c ****         return lwm2m_update_registration(contextP, 0, true);
 422:/home/baikal/workspace/C50/Huawei_IoT_Agent_Tiny_SDK_Linux//lwm2m/core/liblwm2m.c ****     }
 423:/home/baikal/workspace/C50/Huawei_IoT_Agent_Tiny_SDK_Linux//lwm2m/core/liblwm2m.c **** 
 424:/home/baikal/workspace/C50/Huawei_IoT_Agent_Tiny_SDK_Linux//lwm2m/core/liblwm2m.c ****     return 0;
 425:/home/baikal/workspace/C50/Huawei_IoT_Agent_Tiny_SDK_Linux//lwm2m/core/liblwm2m.c **** }
 426:/home/baikal/workspace/C50/Huawei_IoT_Agent_Tiny_SDK_Linux//lwm2m/core/liblwm2m.c **** 
 427:/home/baikal/workspace/C50/Huawei_IoT_Agent_Tiny_SDK_Linux//lwm2m/core/liblwm2m.c **** 
 428:/home/baikal/workspace/C50/Huawei_IoT_Agent_Tiny_SDK_Linux//lwm2m/core/liblwm2m.c **** static void lwm2m_reset_register(lwm2m_context_t *context)
 429:/home/baikal/workspace/C50/Huawei_IoT_Agent_Tiny_SDK_Linux//lwm2m/core/liblwm2m.c **** {
 430:/home/baikal/workspace/C50/Huawei_IoT_Agent_Tiny_SDK_Linux//lwm2m/core/liblwm2m.c ****     lwm2m_server_t *server = context->serverList;
 431:/home/baikal/workspace/C50/Huawei_IoT_Agent_Tiny_SDK_Linux//lwm2m/core/liblwm2m.c **** 
 432:/home/baikal/workspace/C50/Huawei_IoT_Agent_Tiny_SDK_Linux//lwm2m/core/liblwm2m.c ****     LOG("Entering");
 433:/home/baikal/workspace/C50/Huawei_IoT_Agent_Tiny_SDK_Linux//lwm2m/core/liblwm2m.c ****     while (NULL != server)
 434:/home/baikal/workspace/C50/Huawei_IoT_Agent_Tiny_SDK_Linux//lwm2m/core/liblwm2m.c ****     {
 435:/home/baikal/workspace/C50/Huawei_IoT_Agent_Tiny_SDK_Linux//lwm2m/core/liblwm2m.c ****         registration_reset(context, server);
 436:/home/baikal/workspace/C50/Huawei_IoT_Agent_Tiny_SDK_Linux//lwm2m/core/liblwm2m.c ****         server = server->next;
 437:/home/baikal/workspace/C50/Huawei_IoT_Agent_Tiny_SDK_Linux//lwm2m/core/liblwm2m.c ****     }
 438:/home/baikal/workspace/C50/Huawei_IoT_Agent_Tiny_SDK_Linux//lwm2m/core/liblwm2m.c **** }
 439:/home/baikal/workspace/C50/Huawei_IoT_Agent_Tiny_SDK_Linux//lwm2m/core/liblwm2m.c **** 
 440:/home/baikal/workspace/C50/Huawei_IoT_Agent_Tiny_SDK_Linux//lwm2m/core/liblwm2m.c **** int lwm2m_reconnect(lwm2m_context_t *context)
 441:/home/baikal/workspace/C50/Huawei_IoT_Agent_Tiny_SDK_Linux//lwm2m/core/liblwm2m.c **** {
 442:/home/baikal/workspace/C50/Huawei_IoT_Agent_Tiny_SDK_Linux//lwm2m/core/liblwm2m.c ****     if(NULL == context)
 443:/home/baikal/workspace/C50/Huawei_IoT_Agent_Tiny_SDK_Linux//lwm2m/core/liblwm2m.c ****     {
 444:/home/baikal/workspace/C50/Huawei_IoT_Agent_Tiny_SDK_Linux//lwm2m/core/liblwm2m.c ****         LOG("context null point");
 445:/home/baikal/workspace/C50/Huawei_IoT_Agent_Tiny_SDK_Linux//lwm2m/core/liblwm2m.c ****         return COAP_405_METHOD_NOT_ALLOWED;
 446:/home/baikal/workspace/C50/Huawei_IoT_Agent_Tiny_SDK_Linux//lwm2m/core/liblwm2m.c ****     }
 447:/home/baikal/workspace/C50/Huawei_IoT_Agent_Tiny_SDK_Linux//lwm2m/core/liblwm2m.c **** 
 448:/home/baikal/workspace/C50/Huawei_IoT_Agent_Tiny_SDK_Linux//lwm2m/core/liblwm2m.c ****     lwm2m_reset_register(context);
 449:/home/baikal/workspace/C50/Huawei_IoT_Agent_Tiny_SDK_Linux//lwm2m/core/liblwm2m.c ****     prv_deleteObservedList(context);
GAS LISTING /tmp/ccQM4ohB.s 			page 9


 450:/home/baikal/workspace/C50/Huawei_IoT_Agent_Tiny_SDK_Linux//lwm2m/core/liblwm2m.c ****     prv_deleteTransactionList(context);
 451:/home/baikal/workspace/C50/Huawei_IoT_Agent_Tiny_SDK_Linux//lwm2m/core/liblwm2m.c ****     context->state = ((context->serverList != NULL) ? STATE_REGISTER_REQUIRED : STATE_BOOTSTRAP_REQ
 452:/home/baikal/workspace/C50/Huawei_IoT_Agent_Tiny_SDK_Linux//lwm2m/core/liblwm2m.c ****     lwm2m_notify_even(MODULE_LWM2M, STATE_REG_FAILED, NULL, 0);
 453:/home/baikal/workspace/C50/Huawei_IoT_Agent_Tiny_SDK_Linux//lwm2m/core/liblwm2m.c ****     return COAP_NO_ERROR;
 454:/home/baikal/workspace/C50/Huawei_IoT_Agent_Tiny_SDK_Linux//lwm2m/core/liblwm2m.c **** }
 455:/home/baikal/workspace/C50/Huawei_IoT_Agent_Tiny_SDK_Linux//lwm2m/core/liblwm2m.c **** 
 456:/home/baikal/workspace/C50/Huawei_IoT_Agent_Tiny_SDK_Linux//lwm2m/core/liblwm2m.c **** #endif
 457:/home/baikal/workspace/C50/Huawei_IoT_Agent_Tiny_SDK_Linux//lwm2m/core/liblwm2m.c **** 
 458:/home/baikal/workspace/C50/Huawei_IoT_Agent_Tiny_SDK_Linux//lwm2m/core/liblwm2m.c **** /*
 459:/home/baikal/workspace/C50/Huawei_IoT_Agent_Tiny_SDK_Linux//lwm2m/core/liblwm2m.c ****  * add date:     2018-06-04
 460:/home/baikal/workspace/C50/Huawei_IoT_Agent_Tiny_SDK_Linux//lwm2m/core/liblwm2m.c ****  * description:  in order to mark the server of the bootstrapServerList and the serverList. think t
 461:/home/baikal/workspace/C50/Huawei_IoT_Agent_Tiny_SDK_Linux//lwm2m/core/liblwm2m.c ****  * 				 dirty, should be delete from the list, and will be new soon.
 462:/home/baikal/workspace/C50/Huawei_IoT_Agent_Tiny_SDK_Linux//lwm2m/core/liblwm2m.c ****  * return:       none
 463:/home/baikal/workspace/C50/Huawei_IoT_Agent_Tiny_SDK_Linux//lwm2m/core/liblwm2m.c ****  * pay attention:
 464:/home/baikal/workspace/C50/Huawei_IoT_Agent_Tiny_SDK_Linux//lwm2m/core/liblwm2m.c ****  *              the function in fact have been defined as prv_tagAllServer in another file. defined
 465:/home/baikal/workspace/C50/Huawei_IoT_Agent_Tiny_SDK_Linux//lwm2m/core/liblwm2m.c ****  *              not include and contact closely with another file.
 466:/home/baikal/workspace/C50/Huawei_IoT_Agent_Tiny_SDK_Linux//lwm2m/core/liblwm2m.c ****  *
 467:/home/baikal/workspace/C50/Huawei_IoT_Agent_Tiny_SDK_Linux//lwm2m/core/liblwm2m.c ****  */
 468:/home/baikal/workspace/C50/Huawei_IoT_Agent_Tiny_SDK_Linux//lwm2m/core/liblwm2m.c **** static void lwm2m_bootstrap_tag_IOT_server(lwm2m_context_t *contextP)
 469:/home/baikal/workspace/C50/Huawei_IoT_Agent_Tiny_SDK_Linux//lwm2m/core/liblwm2m.c **** {
   9              		.loc 1 469 0
  10              		.cfi_startproc
  11              	.LVL0:
 470:/home/baikal/workspace/C50/Huawei_IoT_Agent_Tiny_SDK_Linux//lwm2m/core/liblwm2m.c ****     lwm2m_server_t *targetP;
 471:/home/baikal/workspace/C50/Huawei_IoT_Agent_Tiny_SDK_Linux//lwm2m/core/liblwm2m.c **** 
 472:/home/baikal/workspace/C50/Huawei_IoT_Agent_Tiny_SDK_Linux//lwm2m/core/liblwm2m.c ****     targetP = contextP->serverList;
  12              		.loc 1 472 0
  13 0000 488B4730 		movq	48(%rdi), %rax
  14              	.LVL1:
 473:/home/baikal/workspace/C50/Huawei_IoT_Agent_Tiny_SDK_Linux//lwm2m/core/liblwm2m.c ****     while (targetP != NULL)
  15              		.loc 1 473 0
  16 0004 EB07     		jmp	.L2
  17              	.L3:
 474:/home/baikal/workspace/C50/Huawei_IoT_Agent_Tiny_SDK_Linux//lwm2m/core/liblwm2m.c ****     {
 475:/home/baikal/workspace/C50/Huawei_IoT_Agent_Tiny_SDK_Linux//lwm2m/core/liblwm2m.c ****         targetP->dirty = true;
  18              		.loc 1 475 0
  19 0006 C6404001 		movb	$1, 64(%rax)
 476:/home/baikal/workspace/C50/Huawei_IoT_Agent_Tiny_SDK_Linux//lwm2m/core/liblwm2m.c ****         targetP = targetP->next;
  20              		.loc 1 476 0
  21 000a 488B00   		movq	(%rax), %rax
  22              	.LVL2:
  23              	.L2:
 473:/home/baikal/workspace/C50/Huawei_IoT_Agent_Tiny_SDK_Linux//lwm2m/core/liblwm2m.c ****     while (targetP != NULL)
  24              		.loc 1 473 0
  25 000d 4885C0   		testq	%rax, %rax
  26 0010 75F4     		jne	.L3
 477:/home/baikal/workspace/C50/Huawei_IoT_Agent_Tiny_SDK_Linux//lwm2m/core/liblwm2m.c ****     }
 478:/home/baikal/workspace/C50/Huawei_IoT_Agent_Tiny_SDK_Linux//lwm2m/core/liblwm2m.c **** }
  27              		.loc 1 478 0
  28 0012 F3C3     		rep ret
  29              		.cfi_endproc
  30              	.LFE80:
  32              		.section	.text.prv_deleteServer,"ax",@progbits
  34              	prv_deleteServer:
  35              	.LFB67:
 140:/home/baikal/workspace/C50/Huawei_IoT_Agent_Tiny_SDK_Linux//lwm2m/core/liblwm2m.c ****     // TODO parse transaction and observation to remove the ones related to this server
  36              		.loc 1 140 0
GAS LISTING /tmp/ccQM4ohB.s 			page 10


  37              		.cfi_startproc
  38              	.LVL3:
  39 0000 53       		pushq	%rbx
  40              	.LCFI0:
  41              		.cfi_def_cfa_offset 16
  42              		.cfi_offset 3, -16
  43 0001 4889FB   		movq	%rdi, %rbx
 142:/home/baikal/workspace/C50/Huawei_IoT_Agent_Tiny_SDK_Linux//lwm2m/core/liblwm2m.c ****     {
  44              		.loc 1 142 0
  45 0004 488B7F28 		movq	40(%rdi), %rdi
  46              	.LVL4:
  47 0008 4885FF   		testq	%rdi, %rdi
  48 000b 7405     		je	.L5
 144:/home/baikal/workspace/C50/Huawei_IoT_Agent_Tiny_SDK_Linux//lwm2m/core/liblwm2m.c ****     }
  49              		.loc 1 144 0
  50 000d E8000000 		call	lwm2m_close_connection
  50      00
  51              	.LVL5:
  52              	.L5:
 146:/home/baikal/workspace/C50/Huawei_IoT_Agent_Tiny_SDK_Linux//lwm2m/core/liblwm2m.c ****     {
  53              		.loc 1 146 0
  54 0012 488B7B38 		movq	56(%rbx), %rdi
  55 0016 4885FF   		testq	%rdi, %rdi
  56 0019 7405     		je	.L6
 148:/home/baikal/workspace/C50/Huawei_IoT_Agent_Tiny_SDK_Linux//lwm2m/core/liblwm2m.c ****     }
  57              		.loc 1 148 0
  58 001b E8000000 		call	lwm2m_free
  58      00
  59              	.LVL6:
  60              	.L6:
 150:/home/baikal/workspace/C50/Huawei_IoT_Agent_Tiny_SDK_Linux//lwm2m/core/liblwm2m.c ****     lwm2m_free(serverP);
  61              		.loc 1 150 0
  62 0020 488B7B48 		movq	72(%rbx), %rdi
  63 0024 E8000000 		call	free_block1_buffer
  63      00
  64              	.LVL7:
 151:/home/baikal/workspace/C50/Huawei_IoT_Agent_Tiny_SDK_Linux//lwm2m/core/liblwm2m.c **** }
  65              		.loc 1 151 0
  66 0029 4889DF   		movq	%rbx, %rdi
  67 002c E8000000 		call	lwm2m_free
  67      00
  68              	.LVL8:
 152:/home/baikal/workspace/C50/Huawei_IoT_Agent_Tiny_SDK_Linux//lwm2m/core/liblwm2m.c **** 
  69              		.loc 1 152 0
  70 0031 5B       		popq	%rbx
  71              	.LCFI1:
  72              		.cfi_def_cfa_offset 8
  73              	.LVL9:
  74 0032 C3       		ret
  75              		.cfi_endproc
  76              	.LFE67:
  78              		.section	.text.prv_deleteServerList,"ax",@progbits
  80              	prv_deleteServerList:
  81              	.LFB68:
 155:/home/baikal/workspace/C50/Huawei_IoT_Agent_Tiny_SDK_Linux//lwm2m/core/liblwm2m.c ****     while (NULL != context->serverList)
  82              		.loc 1 155 0
  83              		.cfi_startproc
GAS LISTING /tmp/ccQM4ohB.s 			page 11


  84              	.LVL10:
  85 0000 53       		pushq	%rbx
  86              	.LCFI2:
  87              		.cfi_def_cfa_offset 16
  88              		.cfi_offset 3, -16
  89 0001 4889FB   		movq	%rdi, %rbx
 156:/home/baikal/workspace/C50/Huawei_IoT_Agent_Tiny_SDK_Linux//lwm2m/core/liblwm2m.c ****     {
  90              		.loc 1 156 0
  91 0004 EB10     		jmp	.L9
  92              	.LVL11:
  93              	.L10:
  94              	.LBB4:
 160:/home/baikal/workspace/C50/Huawei_IoT_Agent_Tiny_SDK_Linux//lwm2m/core/liblwm2m.c ****         prv_deleteServer(server, context->userData);
  95              		.loc 1 160 0
  96 0006 488B07   		movq	(%rdi), %rax
  97 0009 48894330 		movq	%rax, 48(%rbx)
 161:/home/baikal/workspace/C50/Huawei_IoT_Agent_Tiny_SDK_Linux//lwm2m/core/liblwm2m.c ****     }
  98              		.loc 1 161 0
  99 000d 488B7360 		movq	96(%rbx), %rsi
 100 0011 E8000000 		call	prv_deleteServer
 100      00
 101              	.LVL12:
 102              	.L9:
 103              	.LBE4:
 156:/home/baikal/workspace/C50/Huawei_IoT_Agent_Tiny_SDK_Linux//lwm2m/core/liblwm2m.c ****     {
 104              		.loc 1 156 0
 105 0016 488B7B30 		movq	48(%rbx), %rdi
 106 001a 4885FF   		testq	%rdi, %rdi
 107 001d 75E7     		jne	.L10
 163:/home/baikal/workspace/C50/Huawei_IoT_Agent_Tiny_SDK_Linux//lwm2m/core/liblwm2m.c **** 
 108              		.loc 1 163 0
 109 001f 5B       		popq	%rbx
 110              	.LCFI3:
 111              		.cfi_def_cfa_offset 8
 112              	.LVL13:
 113 0020 C3       		ret
 114              		.cfi_endproc
 115              	.LFE68:
 117              		.section	.text.prv_deleteBootstrapServer,"ax",@progbits
 119              	prv_deleteBootstrapServer:
 120              	.LFB69:
 167:/home/baikal/workspace/C50/Huawei_IoT_Agent_Tiny_SDK_Linux//lwm2m/core/liblwm2m.c ****     // TODO should we free location as in prv_deleteServer ?
 121              		.loc 1 167 0
 122              		.cfi_startproc
 123              	.LVL14:
 124 0000 53       		pushq	%rbx
 125              	.LCFI4:
 126              		.cfi_def_cfa_offset 16
 127              		.cfi_offset 3, -16
 128 0001 4889FB   		movq	%rdi, %rbx
 170:/home/baikal/workspace/C50/Huawei_IoT_Agent_Tiny_SDK_Linux//lwm2m/core/liblwm2m.c ****     {
 129              		.loc 1 170 0
 130 0004 488B7F28 		movq	40(%rdi), %rdi
 131              	.LVL15:
 132 0008 4885FF   		testq	%rdi, %rdi
 133 000b 7405     		je	.L13
 172:/home/baikal/workspace/C50/Huawei_IoT_Agent_Tiny_SDK_Linux//lwm2m/core/liblwm2m.c ****     }
GAS LISTING /tmp/ccQM4ohB.s 			page 12


 134              		.loc 1 172 0
 135 000d E8000000 		call	lwm2m_close_connection
 135      00
 136              	.LVL16:
 137              	.L13:
 174:/home/baikal/workspace/C50/Huawei_IoT_Agent_Tiny_SDK_Linux//lwm2m/core/liblwm2m.c ****     lwm2m_free(serverP);
 138              		.loc 1 174 0
 139 0012 488B7B48 		movq	72(%rbx), %rdi
 140 0016 E8000000 		call	free_block1_buffer
 140      00
 141              	.LVL17:
 175:/home/baikal/workspace/C50/Huawei_IoT_Agent_Tiny_SDK_Linux//lwm2m/core/liblwm2m.c **** }
 142              		.loc 1 175 0
 143 001b 4889DF   		movq	%rbx, %rdi
 144 001e E8000000 		call	lwm2m_free
 144      00
 145              	.LVL18:
 176:/home/baikal/workspace/C50/Huawei_IoT_Agent_Tiny_SDK_Linux//lwm2m/core/liblwm2m.c **** 
 146              		.loc 1 176 0
 147 0023 5B       		popq	%rbx
 148              	.LCFI5:
 149              		.cfi_def_cfa_offset 8
 150              	.LVL19:
 151 0024 C3       		ret
 152              		.cfi_endproc
 153              	.LFE69:
 155              		.section	.text.prv_deleteBootstrapServerList,"ax",@progbits
 157              	prv_deleteBootstrapServerList:
 158              	.LFB70:
 179:/home/baikal/workspace/C50/Huawei_IoT_Agent_Tiny_SDK_Linux//lwm2m/core/liblwm2m.c ****     while (NULL != context->bootstrapServerList)
 159              		.loc 1 179 0
 160              		.cfi_startproc
 161              	.LVL20:
 162 0000 53       		pushq	%rbx
 163              	.LCFI6:
 164              		.cfi_def_cfa_offset 16
 165              		.cfi_offset 3, -16
 166 0001 4889FB   		movq	%rdi, %rbx
 180:/home/baikal/workspace/C50/Huawei_IoT_Agent_Tiny_SDK_Linux//lwm2m/core/liblwm2m.c ****     {
 167              		.loc 1 180 0
 168 0004 EB10     		jmp	.L16
 169              	.LVL21:
 170              	.L17:
 171              	.LBB5:
 184:/home/baikal/workspace/C50/Huawei_IoT_Agent_Tiny_SDK_Linux//lwm2m/core/liblwm2m.c ****         prv_deleteBootstrapServer(server, context->userData);
 172              		.loc 1 184 0
 173 0006 488B07   		movq	(%rdi), %rax
 174 0009 48894328 		movq	%rax, 40(%rbx)
 185:/home/baikal/workspace/C50/Huawei_IoT_Agent_Tiny_SDK_Linux//lwm2m/core/liblwm2m.c ****     }
 175              		.loc 1 185 0
 176 000d 488B7360 		movq	96(%rbx), %rsi
 177 0011 E8000000 		call	prv_deleteBootstrapServer
 177      00
 178              	.LVL22:
 179              	.L16:
 180              	.LBE5:
 180:/home/baikal/workspace/C50/Huawei_IoT_Agent_Tiny_SDK_Linux//lwm2m/core/liblwm2m.c ****     {
GAS LISTING /tmp/ccQM4ohB.s 			page 13


 181              		.loc 1 180 0
 182 0016 488B7B28 		movq	40(%rbx), %rdi
 183 001a 4885FF   		testq	%rdi, %rdi
 184 001d 75E7     		jne	.L17
 187:/home/baikal/workspace/C50/Huawei_IoT_Agent_Tiny_SDK_Linux//lwm2m/core/liblwm2m.c **** #endif
 185              		.loc 1 187 0
 186 001f 5B       		popq	%rbx
 187              	.LCFI7:
 188              		.cfi_def_cfa_offset 8
 189              	.LVL23:
 190 0020 C3       		ret
 191              		.cfi_endproc
 192              	.LFE70:
 194              		.section	.text.lwm2m_reset_register,"ax",@progbits
 196              	lwm2m_reset_register:
 197              	.LFB78:
 429:/home/baikal/workspace/C50/Huawei_IoT_Agent_Tiny_SDK_Linux//lwm2m/core/liblwm2m.c ****     lwm2m_server_t *server = context->serverList;
 198              		.loc 1 429 0
 199              		.cfi_startproc
 200              	.LVL24:
 201 0000 55       		pushq	%rbp
 202              	.LCFI8:
 203              		.cfi_def_cfa_offset 16
 204              		.cfi_offset 6, -16
 205 0001 53       		pushq	%rbx
 206              	.LCFI9:
 207              		.cfi_def_cfa_offset 24
 208              		.cfi_offset 3, -24
 209 0002 4883EC08 		subq	$8, %rsp
 210              	.LCFI10:
 211              		.cfi_def_cfa_offset 32
 212 0006 4889FD   		movq	%rdi, %rbp
 430:/home/baikal/workspace/C50/Huawei_IoT_Agent_Tiny_SDK_Linux//lwm2m/core/liblwm2m.c **** 
 213              		.loc 1 430 0
 214 0009 488B5F30 		movq	48(%rdi), %rbx
 215              	.LVL25:
 433:/home/baikal/workspace/C50/Huawei_IoT_Agent_Tiny_SDK_Linux//lwm2m/core/liblwm2m.c ****     {
 216              		.loc 1 433 0
 217 000d EB0E     		jmp	.L20
 218              	.LVL26:
 219              	.L21:
 435:/home/baikal/workspace/C50/Huawei_IoT_Agent_Tiny_SDK_Linux//lwm2m/core/liblwm2m.c ****         server = server->next;
 220              		.loc 1 435 0
 221 000f 4889DE   		movq	%rbx, %rsi
 222 0012 4889EF   		movq	%rbp, %rdi
 223 0015 E8000000 		call	registration_reset
 223      00
 224              	.LVL27:
 436:/home/baikal/workspace/C50/Huawei_IoT_Agent_Tiny_SDK_Linux//lwm2m/core/liblwm2m.c ****     }
 225              		.loc 1 436 0
 226 001a 488B1B   		movq	(%rbx), %rbx
 227              	.LVL28:
 228              	.L20:
 433:/home/baikal/workspace/C50/Huawei_IoT_Agent_Tiny_SDK_Linux//lwm2m/core/liblwm2m.c ****     {
 229              		.loc 1 433 0
 230 001d 4885DB   		testq	%rbx, %rbx
 231 0020 75ED     		jne	.L21
GAS LISTING /tmp/ccQM4ohB.s 			page 14


 438:/home/baikal/workspace/C50/Huawei_IoT_Agent_Tiny_SDK_Linux//lwm2m/core/liblwm2m.c **** 
 232              		.loc 1 438 0
 233 0022 4883C408 		addq	$8, %rsp
 234              	.LCFI11:
 235              		.cfi_def_cfa_offset 24
 236 0026 5B       		popq	%rbx
 237              	.LCFI12:
 238              		.cfi_def_cfa_offset 16
 239              	.LVL29:
 240 0027 5D       		popq	%rbp
 241              	.LCFI13:
 242              		.cfi_def_cfa_offset 8
 243              	.LVL30:
 244 0028 C3       		ret
 245              		.cfi_endproc
 246              	.LFE78:
 248              		.section	.text.prv_refreshServerList,"ax",@progbits
 250              	prv_refreshServerList:
 251              	.LFB74:
 273:/home/baikal/workspace/C50/Huawei_IoT_Agent_Tiny_SDK_Linux//lwm2m/core/liblwm2m.c ****     lwm2m_server_t *targetP;
 252              		.loc 1 273 0
 253              		.cfi_startproc
 254              	.LVL31:
 255 0000 55       		pushq	%rbp
 256              	.LCFI14:
 257              		.cfi_def_cfa_offset 16
 258              		.cfi_offset 6, -16
 259 0001 53       		pushq	%rbx
 260              	.LCFI15:
 261              		.cfi_def_cfa_offset 24
 262              		.cfi_offset 3, -24
 263 0002 4883EC08 		subq	$8, %rsp
 264              	.LCFI16:
 265              		.cfi_def_cfa_offset 32
 266 0006 4889FB   		movq	%rdi, %rbx
 278:/home/baikal/workspace/C50/Huawei_IoT_Agent_Tiny_SDK_Linux//lwm2m/core/liblwm2m.c ****     contextP->bootstrapServerList = NULL;
 267              		.loc 1 278 0
 268 0009 488B7F28 		movq	40(%rdi), %rdi
 269              	.LVL32:
 279:/home/baikal/workspace/C50/Huawei_IoT_Agent_Tiny_SDK_Linux//lwm2m/core/liblwm2m.c ****     while (targetP != NULL)
 270              		.loc 1 279 0
 271 000d 48C74328 		movq	$0, 40(%rbx)
 271      00000000 
 280:/home/baikal/workspace/C50/Huawei_IoT_Agent_Tiny_SDK_Linux//lwm2m/core/liblwm2m.c ****     {
 272              		.loc 1 280 0
 273 0015 EB35     		jmp	.L24
 274              	.L27:
 282:/home/baikal/workspace/C50/Huawei_IoT_Agent_Tiny_SDK_Linux//lwm2m/core/liblwm2m.c ****         targetP->next = NULL;
 275              		.loc 1 282 0
 276 0017 488B2F   		movq	(%rdi), %rbp
 277              	.LVL33:
 283:/home/baikal/workspace/C50/Huawei_IoT_Agent_Tiny_SDK_Linux//lwm2m/core/liblwm2m.c ****         if (!targetP->dirty)
 278              		.loc 1 283 0
 279 001a 48C70700 		movq	$0, (%rdi)
 279      000000
 284:/home/baikal/workspace/C50/Huawei_IoT_Agent_Tiny_SDK_Linux//lwm2m/core/liblwm2m.c ****         {
 280              		.loc 1 284 0
GAS LISTING /tmp/ccQM4ohB.s 			page 15


 281 0021 807F4000 		cmpb	$0, 64(%rdi)
 282 0025 7519     		jne	.L25
 286:/home/baikal/workspace/C50/Huawei_IoT_Agent_Tiny_SDK_Linux//lwm2m/core/liblwm2m.c ****             contextP->bootstrapServerList = (lwm2m_server_t *)LWM2M_LIST_ADD(contextP->bootstrapSer
 283              		.loc 1 286 0
 284 0027 C7473000 		movl	$0, 48(%rdi)
 284      000000
 287:/home/baikal/workspace/C50/Huawei_IoT_Agent_Tiny_SDK_Linux//lwm2m/core/liblwm2m.c ****         }
 285              		.loc 1 287 0
 286 002e 4889FE   		movq	%rdi, %rsi
 287 0031 488B7B28 		movq	40(%rbx), %rdi
 288              	.LVL34:
 289 0035 E8000000 		call	lwm2m_list_add
 289      00
 290              	.LVL35:
 291 003a 48894328 		movq	%rax, 40(%rbx)
 292 003e EB09     		jmp	.L26
 293              	.LVL36:
 294              	.L25:
 291:/home/baikal/workspace/C50/Huawei_IoT_Agent_Tiny_SDK_Linux//lwm2m/core/liblwm2m.c ****         }
 295              		.loc 1 291 0
 296 0040 488B7360 		movq	96(%rbx), %rsi
 297 0044 E8000000 		call	prv_deleteServer
 297      00
 298              	.LVL37:
 299              	.L26:
 273:/home/baikal/workspace/C50/Huawei_IoT_Agent_Tiny_SDK_Linux//lwm2m/core/liblwm2m.c ****     lwm2m_server_t *targetP;
 300              		.loc 1 273 0
 301 0049 4889EF   		movq	%rbp, %rdi
 302              	.LVL38:
 303              	.L24:
 280:/home/baikal/workspace/C50/Huawei_IoT_Agent_Tiny_SDK_Linux//lwm2m/core/liblwm2m.c ****     {
 304              		.loc 1 280 0
 305 004c 4885FF   		testq	%rdi, %rdi
 306 004f 75C6     		jne	.L27
 295:/home/baikal/workspace/C50/Huawei_IoT_Agent_Tiny_SDK_Linux//lwm2m/core/liblwm2m.c ****     contextP->serverList = NULL;
 307              		.loc 1 295 0
 308 0051 488B7B30 		movq	48(%rbx), %rdi
 309              	.LVL39:
 296:/home/baikal/workspace/C50/Huawei_IoT_Agent_Tiny_SDK_Linux//lwm2m/core/liblwm2m.c ****     while (targetP != NULL)
 310              		.loc 1 296 0
 311 0055 48C74330 		movq	$0, 48(%rbx)
 311      00000000 
 297:/home/baikal/workspace/C50/Huawei_IoT_Agent_Tiny_SDK_Linux//lwm2m/core/liblwm2m.c ****     {
 312              		.loc 1 297 0
 313 005d EB2E     		jmp	.L28
 314              	.L31:
 299:/home/baikal/workspace/C50/Huawei_IoT_Agent_Tiny_SDK_Linux//lwm2m/core/liblwm2m.c ****         targetP->next = NULL;
 315              		.loc 1 299 0
 316 005f 488B2F   		movq	(%rdi), %rbp
 317              	.LVL40:
 300:/home/baikal/workspace/C50/Huawei_IoT_Agent_Tiny_SDK_Linux//lwm2m/core/liblwm2m.c ****         if (!targetP->dirty)
 318              		.loc 1 300 0
 319 0062 48C70700 		movq	$0, (%rdi)
 319      000000
 301:/home/baikal/workspace/C50/Huawei_IoT_Agent_Tiny_SDK_Linux//lwm2m/core/liblwm2m.c ****         {
 320              		.loc 1 301 0
 321 0069 807F4000 		cmpb	$0, 64(%rdi)
GAS LISTING /tmp/ccQM4ohB.s 			page 16


 322 006d 7512     		jne	.L29
 304:/home/baikal/workspace/C50/Huawei_IoT_Agent_Tiny_SDK_Linux//lwm2m/core/liblwm2m.c ****         }
 323              		.loc 1 304 0
 324 006f 4889FE   		movq	%rdi, %rsi
 325 0072 488B7B30 		movq	48(%rbx), %rdi
 326              	.LVL41:
 327 0076 E8000000 		call	lwm2m_list_add
 327      00
 328              	.LVL42:
 329 007b 48894330 		movq	%rax, 48(%rbx)
 330 007f EB09     		jmp	.L30
 331              	.LVL43:
 332              	.L29:
 308:/home/baikal/workspace/C50/Huawei_IoT_Agent_Tiny_SDK_Linux//lwm2m/core/liblwm2m.c ****         }
 333              		.loc 1 308 0
 334 0081 488B7360 		movq	96(%rbx), %rsi
 335 0085 E8000000 		call	prv_deleteServer
 335      00
 336              	.LVL44:
 337              	.L30:
 273:/home/baikal/workspace/C50/Huawei_IoT_Agent_Tiny_SDK_Linux//lwm2m/core/liblwm2m.c ****     lwm2m_server_t *targetP;
 338              		.loc 1 273 0
 339 008a 4889EF   		movq	%rbp, %rdi
 340              	.LVL45:
 341              	.L28:
 297:/home/baikal/workspace/C50/Huawei_IoT_Agent_Tiny_SDK_Linux//lwm2m/core/liblwm2m.c ****     {
 342              		.loc 1 297 0
 343 008d 4885FF   		testq	%rdi, %rdi
 344 0090 75CD     		jne	.L31
 313:/home/baikal/workspace/C50/Huawei_IoT_Agent_Tiny_SDK_Linux//lwm2m/core/liblwm2m.c **** }
 345              		.loc 1 313 0
 346 0092 BE000000 		movl	$0, %esi
 346      00
 347 0097 4889DF   		movq	%rbx, %rdi
 348              	.LVL46:
 349 009a E8000000 		call	object_getServers
 349      00
 350              	.LVL47:
 314:/home/baikal/workspace/C50/Huawei_IoT_Agent_Tiny_SDK_Linux//lwm2m/core/liblwm2m.c **** //result = lwm2m_configure(lwm2mH, name, NULL, NULL, OBJ_COUNT, objArray)
 351              		.loc 1 314 0
 352 009f 4883C408 		addq	$8, %rsp
 353              	.LCFI17:
 354              		.cfi_def_cfa_offset 24
 355 00a3 5B       		popq	%rbx
 356              	.LCFI18:
 357              		.cfi_def_cfa_offset 16
 358              	.LVL48:
 359 00a4 5D       		popq	%rbp
 360              	.LCFI19:
 361              		.cfi_def_cfa_offset 8
 362 00a5 C3       		ret
 363              		.cfi_endproc
 364              	.LFE74:
 366              		.section	.text.lwm2m_init,"ax",@progbits
 367              		.globl	lwm2m_init
 369              	lwm2m_init:
 370              	.LFB63:
GAS LISTING /tmp/ccQM4ohB.s 			page 17


  95:/home/baikal/workspace/C50/Huawei_IoT_Agent_Tiny_SDK_Linux//lwm2m/core/liblwm2m.c ****     lwm2m_context_t *contextP;
 371              		.loc 1 95 0
 372              		.cfi_startproc
 373              	.LVL49:
 374 0000 55       		pushq	%rbp
 375              	.LCFI20:
 376              		.cfi_def_cfa_offset 16
 377              		.cfi_offset 6, -16
 378 0001 53       		pushq	%rbx
 379              	.LCFI21:
 380              		.cfi_def_cfa_offset 24
 381              		.cfi_offset 3, -24
 382 0002 4883EC08 		subq	$8, %rsp
 383              	.LCFI22:
 384              		.cfi_def_cfa_offset 32
 385 0006 4889FD   		movq	%rdi, %rbp
  99:/home/baikal/workspace/C50/Huawei_IoT_Agent_Tiny_SDK_Linux//lwm2m/core/liblwm2m.c ****     if (NULL != contextP)
 386              		.loc 1 99 0
 387 0009 BF680000 		movl	$104, %edi
 387      00
 388              	.LVL50:
 389 000e E8000000 		call	lwm2m_malloc
 389      00
 390              	.LVL51:
 391 0013 4889C3   		movq	%rax, %rbx
 392              	.LVL52:
 100:/home/baikal/workspace/C50/Huawei_IoT_Agent_Tiny_SDK_Linux//lwm2m/core/liblwm2m.c ****     {
 393              		.loc 1 100 0
 394 0016 4885C0   		testq	%rax, %rax
 395 0019 7437     		je	.L34
 396              	.LVL53:
 397              	.LBB6:
 398              	.LBB7:
 399              		.file 2 "/usr/include/x86_64-linux-gnu/bits/string3.h"
   1:/usr/include/x86_64-linux-gnu/bits/string3.h **** /* Copyright (C) 2004-2016 Free Software Foundation, Inc.
   2:/usr/include/x86_64-linux-gnu/bits/string3.h ****    This file is part of the GNU C Library.
   3:/usr/include/x86_64-linux-gnu/bits/string3.h **** 
   4:/usr/include/x86_64-linux-gnu/bits/string3.h ****    The GNU C Library is free software; you can redistribute it and/or
   5:/usr/include/x86_64-linux-gnu/bits/string3.h ****    modify it under the terms of the GNU Lesser General Public
   6:/usr/include/x86_64-linux-gnu/bits/string3.h ****    License as published by the Free Software Foundation; either
   7:/usr/include/x86_64-linux-gnu/bits/string3.h ****    version 2.1 of the License, or (at your option) any later version.
   8:/usr/include/x86_64-linux-gnu/bits/string3.h **** 
   9:/usr/include/x86_64-linux-gnu/bits/string3.h ****    The GNU C Library is distributed in the hope that it will be useful,
  10:/usr/include/x86_64-linux-gnu/bits/string3.h ****    but WITHOUT ANY WARRANTY; without even the implied warranty of
  11:/usr/include/x86_64-linux-gnu/bits/string3.h ****    MERCHANTABILITY or FITNESS FOR A PARTICULAR PURPOSE.  See the GNU
  12:/usr/include/x86_64-linux-gnu/bits/string3.h ****    Lesser General Public License for more details.
  13:/usr/include/x86_64-linux-gnu/bits/string3.h **** 
  14:/usr/include/x86_64-linux-gnu/bits/string3.h ****    You should have received a copy of the GNU Lesser General Public
  15:/usr/include/x86_64-linux-gnu/bits/string3.h ****    License along with the GNU C Library; if not, see
  16:/usr/include/x86_64-linux-gnu/bits/string3.h ****    <http://www.gnu.org/licenses/>.  */
  17:/usr/include/x86_64-linux-gnu/bits/string3.h **** 
  18:/usr/include/x86_64-linux-gnu/bits/string3.h **** #ifndef _STRING_H
  19:/usr/include/x86_64-linux-gnu/bits/string3.h **** # error "Never use <bits/string3.h> directly; include <string.h> instead."
  20:/usr/include/x86_64-linux-gnu/bits/string3.h **** #endif
  21:/usr/include/x86_64-linux-gnu/bits/string3.h **** 
  22:/usr/include/x86_64-linux-gnu/bits/string3.h **** #if !__GNUC_PREREQ (5,0)
  23:/usr/include/x86_64-linux-gnu/bits/string3.h **** __warndecl (__warn_memset_zero_len,
GAS LISTING /tmp/ccQM4ohB.s 			page 18


  24:/usr/include/x86_64-linux-gnu/bits/string3.h **** 	    "memset used with constant zero length parameter; this could be due to transposed parameters")
  25:/usr/include/x86_64-linux-gnu/bits/string3.h **** #endif
  26:/usr/include/x86_64-linux-gnu/bits/string3.h **** 
  27:/usr/include/x86_64-linux-gnu/bits/string3.h **** #ifndef __cplusplus
  28:/usr/include/x86_64-linux-gnu/bits/string3.h **** /* XXX This is temporarily.  We should not redefine any of the symbols
  29:/usr/include/x86_64-linux-gnu/bits/string3.h ****    and instead integrate the error checking into the original
  30:/usr/include/x86_64-linux-gnu/bits/string3.h ****    definitions.  */
  31:/usr/include/x86_64-linux-gnu/bits/string3.h **** # undef memcpy
  32:/usr/include/x86_64-linux-gnu/bits/string3.h **** # undef memmove
  33:/usr/include/x86_64-linux-gnu/bits/string3.h **** # undef memset
  34:/usr/include/x86_64-linux-gnu/bits/string3.h **** # undef strcat
  35:/usr/include/x86_64-linux-gnu/bits/string3.h **** # undef strcpy
  36:/usr/include/x86_64-linux-gnu/bits/string3.h **** # undef strncat
  37:/usr/include/x86_64-linux-gnu/bits/string3.h **** # undef strncpy
  38:/usr/include/x86_64-linux-gnu/bits/string3.h **** # ifdef __USE_GNU
  39:/usr/include/x86_64-linux-gnu/bits/string3.h **** #  undef mempcpy
  40:/usr/include/x86_64-linux-gnu/bits/string3.h **** #  undef stpcpy
  41:/usr/include/x86_64-linux-gnu/bits/string3.h **** # endif
  42:/usr/include/x86_64-linux-gnu/bits/string3.h **** # ifdef __USE_MISC
  43:/usr/include/x86_64-linux-gnu/bits/string3.h **** #  undef bcopy
  44:/usr/include/x86_64-linux-gnu/bits/string3.h **** #  undef bzero
  45:/usr/include/x86_64-linux-gnu/bits/string3.h **** # endif
  46:/usr/include/x86_64-linux-gnu/bits/string3.h **** #endif
  47:/usr/include/x86_64-linux-gnu/bits/string3.h **** 
  48:/usr/include/x86_64-linux-gnu/bits/string3.h **** 
  49:/usr/include/x86_64-linux-gnu/bits/string3.h **** __fortify_function void *
  50:/usr/include/x86_64-linux-gnu/bits/string3.h **** __NTH (memcpy (void *__restrict __dest, const void *__restrict __src,
  51:/usr/include/x86_64-linux-gnu/bits/string3.h **** 	       size_t __len))
  52:/usr/include/x86_64-linux-gnu/bits/string3.h **** {
  53:/usr/include/x86_64-linux-gnu/bits/string3.h ****   return __builtin___memcpy_chk (__dest, __src, __len, __bos0 (__dest));
  54:/usr/include/x86_64-linux-gnu/bits/string3.h **** }
  55:/usr/include/x86_64-linux-gnu/bits/string3.h **** 
  56:/usr/include/x86_64-linux-gnu/bits/string3.h **** __fortify_function void *
  57:/usr/include/x86_64-linux-gnu/bits/string3.h **** __NTH (memmove (void *__dest, const void *__src, size_t __len))
  58:/usr/include/x86_64-linux-gnu/bits/string3.h **** {
  59:/usr/include/x86_64-linux-gnu/bits/string3.h ****   return __builtin___memmove_chk (__dest, __src, __len, __bos0 (__dest));
  60:/usr/include/x86_64-linux-gnu/bits/string3.h **** }
  61:/usr/include/x86_64-linux-gnu/bits/string3.h **** 
  62:/usr/include/x86_64-linux-gnu/bits/string3.h **** #ifdef __USE_GNU
  63:/usr/include/x86_64-linux-gnu/bits/string3.h **** __fortify_function void *
  64:/usr/include/x86_64-linux-gnu/bits/string3.h **** __NTH (mempcpy (void *__restrict __dest, const void *__restrict __src,
  65:/usr/include/x86_64-linux-gnu/bits/string3.h **** 		size_t __len))
  66:/usr/include/x86_64-linux-gnu/bits/string3.h **** {
  67:/usr/include/x86_64-linux-gnu/bits/string3.h ****   return __builtin___mempcpy_chk (__dest, __src, __len, __bos0 (__dest));
  68:/usr/include/x86_64-linux-gnu/bits/string3.h **** }
  69:/usr/include/x86_64-linux-gnu/bits/string3.h **** #endif
  70:/usr/include/x86_64-linux-gnu/bits/string3.h **** 
  71:/usr/include/x86_64-linux-gnu/bits/string3.h **** 
  72:/usr/include/x86_64-linux-gnu/bits/string3.h **** /* The first two tests here help to catch a somewhat common problem
  73:/usr/include/x86_64-linux-gnu/bits/string3.h ****    where the second and third parameter are transposed.  This is
  74:/usr/include/x86_64-linux-gnu/bits/string3.h ****    especially problematic if the intended fill value is zero.  In this
  75:/usr/include/x86_64-linux-gnu/bits/string3.h ****    case no work is done at all.  We detect these problems by referring
  76:/usr/include/x86_64-linux-gnu/bits/string3.h ****    non-existing functions.  */
  77:/usr/include/x86_64-linux-gnu/bits/string3.h **** __fortify_function void *
  78:/usr/include/x86_64-linux-gnu/bits/string3.h **** __NTH (memset (void *__dest, int __ch, size_t __len))
  79:/usr/include/x86_64-linux-gnu/bits/string3.h **** {
  80:/usr/include/x86_64-linux-gnu/bits/string3.h ****   /* GCC-5.0 and newer implements these checks in the compiler, so we don't
GAS LISTING /tmp/ccQM4ohB.s 			page 19


  81:/usr/include/x86_64-linux-gnu/bits/string3.h ****      need them here.  */
  82:/usr/include/x86_64-linux-gnu/bits/string3.h **** #if !__GNUC_PREREQ (5,0)
  83:/usr/include/x86_64-linux-gnu/bits/string3.h ****   if (__builtin_constant_p (__len) && __len == 0
  84:/usr/include/x86_64-linux-gnu/bits/string3.h ****       && (!__builtin_constant_p (__ch) || __ch != 0))
  85:/usr/include/x86_64-linux-gnu/bits/string3.h ****     {
  86:/usr/include/x86_64-linux-gnu/bits/string3.h ****       __warn_memset_zero_len ();
  87:/usr/include/x86_64-linux-gnu/bits/string3.h ****       return __dest;
  88:/usr/include/x86_64-linux-gnu/bits/string3.h ****     }
  89:/usr/include/x86_64-linux-gnu/bits/string3.h **** #endif
  90:/usr/include/x86_64-linux-gnu/bits/string3.h ****   return __builtin___memset_chk (__dest, __ch, __len, __bos0 (__dest));
 400              		.loc 2 90 0
 401 001b 48C70000 		movq	$0, (%rax)
 401      000000
 402 0022 488D7808 		leaq	8(%rax), %rdi
 403 0026 4883E7F8 		andq	$-8, %rdi
 404 002a 4889C1   		movq	%rax, %rcx
 405 002d 4829F9   		subq	%rdi, %rcx
 406 0030 83C168   		addl	$104, %ecx
 407 0033 C1E903   		shrl	$3, %ecx
 408 0036 89C9     		movl	%ecx, %ecx
 409 0038 B8000000 		movl	$0, %eax
 409      00
 410              	.LVL54:
 411 003d F348AB   		rep stosq
 412              	.LVL55:
 413              	.LBE7:
 414              	.LBE6:
 103:/home/baikal/workspace/C50/Huawei_IoT_Agent_Tiny_SDK_Linux//lwm2m/core/liblwm2m.c ****         lwm2m_rand((void *)&contextP->nextMID, sizeof(contextP->nextMID));
 415              		.loc 1 103 0
 416 0040 48896B60 		movq	%rbp, 96(%rbx)
 104:/home/baikal/workspace/C50/Huawei_IoT_Agent_Tiny_SDK_Linux//lwm2m/core/liblwm2m.c ****     }
 417              		.loc 1 104 0
 418 0044 488D7B50 		leaq	80(%rbx), %rdi
 419 0048 BE020000 		movl	$2, %esi
 419      00
 420 004d E8000000 		call	lwm2m_rand
 420      00
 421              	.LVL56:
 422              	.L34:
 108:/home/baikal/workspace/C50/Huawei_IoT_Agent_Tiny_SDK_Linux//lwm2m/core/liblwm2m.c **** 
 423              		.loc 1 108 0
 424 0052 4889D8   		movq	%rbx, %rax
 425 0055 4883C408 		addq	$8, %rsp
 426              	.LCFI23:
 427              		.cfi_def_cfa_offset 24
 428 0059 5B       		popq	%rbx
 429              	.LCFI24:
 430              		.cfi_def_cfa_offset 16
 431              	.LVL57:
 432 005a 5D       		popq	%rbp
 433              	.LCFI25:
 434              		.cfi_def_cfa_offset 8
 435              	.LVL58:
 436 005b C3       		ret
 437              		.cfi_endproc
 438              	.LFE63:
 440              		.section	.text.lwm2m_register_event_handler,"ax",@progbits
GAS LISTING /tmp/ccQM4ohB.s 			page 20


 441              		.globl	lwm2m_register_event_handler
 443              	lwm2m_register_event_handler:
 444              	.LFB64:
 115:/home/baikal/workspace/C50/Huawei_IoT_Agent_Tiny_SDK_Linux//lwm2m/core/liblwm2m.c ****     event_handler = callback;
 445              		.loc 1 115 0
 446              		.cfi_startproc
 447              	.LVL59:
 116:/home/baikal/workspace/C50/Huawei_IoT_Agent_Tiny_SDK_Linux//lwm2m/core/liblwm2m.c **** }
 448              		.loc 1 116 0
 449 0000 48893D00 		movq	%rdi, event_handler(%rip)
 449      000000
 450 0007 C3       		ret
 451              		.cfi_endproc
 452              	.LFE64:
 454              		.section	.text.lwm2m_notify_even,"ax",@progbits
 455              		.globl	lwm2m_notify_even
 457              	lwm2m_notify_even:
 458              	.LFB65:
 120:/home/baikal/workspace/C50/Huawei_IoT_Agent_Tiny_SDK_Linux//lwm2m/core/liblwm2m.c ****     if(event_handler != NULL)
 459              		.loc 1 120 0
 460              		.cfi_startproc
 461              	.LVL60:
 121:/home/baikal/workspace/C50/Huawei_IoT_Agent_Tiny_SDK_Linux//lwm2m/core/liblwm2m.c ****     {
 462              		.loc 1 121 0
 463 0000 488B0500 		movq	event_handler(%rip), %rax
 463      000000
 464 0007 4885C0   		testq	%rax, %rax
 465 000a 740A     		je	.L41
 120:/home/baikal/workspace/C50/Huawei_IoT_Agent_Tiny_SDK_Linux//lwm2m/core/liblwm2m.c ****     if(event_handler != NULL)
 466              		.loc 1 120 0
 467 000c 4883EC08 		subq	$8, %rsp
 468              	.LCFI26:
 469              		.cfi_def_cfa_offset 16
 123:/home/baikal/workspace/C50/Huawei_IoT_Agent_Tiny_SDK_Linux//lwm2m/core/liblwm2m.c ****     }
 470              		.loc 1 123 0
 471 0010 FFD0     		call	*%rax
 472              	.LVL61:
 125:/home/baikal/workspace/C50/Huawei_IoT_Agent_Tiny_SDK_Linux//lwm2m/core/liblwm2m.c **** 
 473              		.loc 1 125 0
 474 0012 4883C408 		addq	$8, %rsp
 475              	.LCFI27:
 476              		.cfi_def_cfa_offset 8
 477              	.L41:
 478 0016 F3C3     		rep ret
 479              		.cfi_endproc
 480              	.LFE65:
 482              		.section	.text.prv_deleteObservedList,"ax",@progbits
 484              	prv_deleteObservedList:
 485              	.LFB71:
 191:/home/baikal/workspace/C50/Huawei_IoT_Agent_Tiny_SDK_Linux//lwm2m/core/liblwm2m.c ****     atiny_mutex_lock(contextP->observe_mutex);
 486              		.loc 1 191 0
 487              		.cfi_startproc
 488              	.LVL62:
 489 0000 4154     		pushq	%r12
 490              	.LCFI28:
 491              		.cfi_def_cfa_offset 16
 492              		.cfi_offset 12, -16
GAS LISTING /tmp/ccQM4ohB.s 			page 21


 493 0002 55       		pushq	%rbp
 494              	.LCFI29:
 495              		.cfi_def_cfa_offset 24
 496              		.cfi_offset 6, -24
 497 0003 53       		pushq	%rbx
 498              	.LCFI30:
 499              		.cfi_def_cfa_offset 32
 500              		.cfi_offset 3, -32
 501 0004 4989FC   		movq	%rdi, %r12
 192:/home/baikal/workspace/C50/Huawei_IoT_Agent_Tiny_SDK_Linux//lwm2m/core/liblwm2m.c ****     while (NULL != contextP->observedList)
 502              		.loc 1 192 0
 503 0007 488B7F48 		movq	72(%rdi), %rdi
 504              	.LVL63:
 505 000b E8000000 		call	atiny_mutex_lock
 505      00
 506              	.LVL64:
 193:/home/baikal/workspace/C50/Huawei_IoT_Agent_Tiny_SDK_Linux//lwm2m/core/liblwm2m.c ****     {
 507              		.loc 1 193 0
 508 0010 EB4E     		jmp	.L43
 509              	.L47:
 510              	.LVL65:
 511              	.LBB8:
 199:/home/baikal/workspace/C50/Huawei_IoT_Agent_Tiny_SDK_Linux//lwm2m/core/liblwm2m.c **** 
 512              		.loc 1 199 0
 513 0012 488B4500 		movq	0(%rbp), %rax
 514 0016 49894424 		movq	%rax, 64(%r12)
 514      40
 201:/home/baikal/workspace/C50/Huawei_IoT_Agent_Tiny_SDK_Linux//lwm2m/core/liblwm2m.c **** 
 515              		.loc 1 201 0
 516 001b 488D5508 		leaq	8(%rbp), %rdx
 517 001f B9080000 		movl	$8, %ecx
 517      00
 518 0024 BE000000 		movl	$0, %esi
 518      00
 519 0029 BF020000 		movl	$2, %edi
 519      00
 520 002e E8000000 		call	lwm2m_notify_even
 520      00
 521              	.LVL66:
 203:/home/baikal/workspace/C50/Huawei_IoT_Agent_Tiny_SDK_Linux//lwm2m/core/liblwm2m.c ****         {
 522              		.loc 1 203 0
 523 0033 488B5D10 		movq	16(%rbp), %rbx
 524              	.LVL67:
 525 0037 EB11     		jmp	.L44
 526              	.L46:
 205:/home/baikal/workspace/C50/Huawei_IoT_Agent_Tiny_SDK_Linux//lwm2m/core/liblwm2m.c ****         }
 527              		.loc 1 205 0
 528 0039 488B7B18 		movq	24(%rbx), %rdi
 529 003d 4885FF   		testq	%rdi, %rdi
 530 0040 7405     		je	.L45
 205:/home/baikal/workspace/C50/Huawei_IoT_Agent_Tiny_SDK_Linux//lwm2m/core/liblwm2m.c ****         }
 531              		.loc 1 205 0 is_stmt 0 discriminator 1
 532 0042 E8000000 		call	lwm2m_free
 532      00
 533              	.LVL68:
 534              	.L45:
 203:/home/baikal/workspace/C50/Huawei_IoT_Agent_Tiny_SDK_Linux//lwm2m/core/liblwm2m.c ****         {
GAS LISTING /tmp/ccQM4ohB.s 			page 22


 535              		.loc 1 203 0 is_stmt 1 discriminator 2
 536 0047 488B1B   		movq	(%rbx), %rbx
 537              	.LVL69:
 538              	.L44:
 203:/home/baikal/workspace/C50/Huawei_IoT_Agent_Tiny_SDK_Linux//lwm2m/core/liblwm2m.c ****         {
 539              		.loc 1 203 0 is_stmt 0 discriminator 1
 540 004a 4885DB   		testq	%rbx, %rbx
 541 004d 75EA     		jne	.L46
 207:/home/baikal/workspace/C50/Huawei_IoT_Agent_Tiny_SDK_Linux//lwm2m/core/liblwm2m.c **** 
 542              		.loc 1 207 0 is_stmt 1
 543 004f 488B7D10 		movq	16(%rbp), %rdi
 544 0053 E8000000 		call	lwm2m_list_free
 544      00
 545              	.LVL70:
 209:/home/baikal/workspace/C50/Huawei_IoT_Agent_Tiny_SDK_Linux//lwm2m/core/liblwm2m.c ****     }
 546              		.loc 1 209 0
 547 0058 4889EF   		movq	%rbp, %rdi
 548 005b E8000000 		call	lwm2m_free
 548      00
 549              	.LVL71:
 550              	.L43:
 551              	.LBE8:
 193:/home/baikal/workspace/C50/Huawei_IoT_Agent_Tiny_SDK_Linux//lwm2m/core/liblwm2m.c ****     {
 552              		.loc 1 193 0
 553 0060 498B6C24 		movq	64(%r12), %rbp
 553      40
 554 0065 4885ED   		testq	%rbp, %rbp
 555 0068 75A8     		jne	.L47
 211:/home/baikal/workspace/C50/Huawei_IoT_Agent_Tiny_SDK_Linux//lwm2m/core/liblwm2m.c **** }
 556              		.loc 1 211 0
 557 006a 498B7C24 		movq	72(%r12), %rdi
 557      48
 558 006f E8000000 		call	atiny_mutex_unlock
 558      00
 559              	.LVL72:
 212:/home/baikal/workspace/C50/Huawei_IoT_Agent_Tiny_SDK_Linux//lwm2m/core/liblwm2m.c **** #endif
 560              		.loc 1 212 0
 561 0074 5B       		popq	%rbx
 562              	.LCFI31:
 563              		.cfi_def_cfa_offset 24
 564 0075 5D       		popq	%rbp
 565              	.LCFI32:
 566              		.cfi_def_cfa_offset 16
 567 0076 415C     		popq	%r12
 568              	.LCFI33:
 569              		.cfi_def_cfa_offset 8
 570              	.LVL73:
 571 0078 C3       		ret
 572              		.cfi_endproc
 573              	.LFE71:
 575              		.section	.text.lwm2m_deregister,"ax",@progbits
 576              		.globl	lwm2m_deregister
 578              	lwm2m_deregister:
 579              	.LFB66:
 128:/home/baikal/workspace/C50/Huawei_IoT_Agent_Tiny_SDK_Linux//lwm2m/core/liblwm2m.c ****     lwm2m_server_t *server = context->serverList;
 580              		.loc 1 128 0
 581              		.cfi_startproc
GAS LISTING /tmp/ccQM4ohB.s 			page 23


 582              	.LVL74:
 583 0000 55       		pushq	%rbp
 584              	.LCFI34:
 585              		.cfi_def_cfa_offset 16
 586              		.cfi_offset 6, -16
 587 0001 53       		pushq	%rbx
 588              	.LCFI35:
 589              		.cfi_def_cfa_offset 24
 590              		.cfi_offset 3, -24
 591 0002 4883EC08 		subq	$8, %rsp
 592              	.LCFI36:
 593              		.cfi_def_cfa_offset 32
 594 0006 4889FD   		movq	%rdi, %rbp
 129:/home/baikal/workspace/C50/Huawei_IoT_Agent_Tiny_SDK_Linux//lwm2m/core/liblwm2m.c **** 
 595              		.loc 1 129 0
 596 0009 488B5F30 		movq	48(%rdi), %rbx
 597              	.LVL75:
 132:/home/baikal/workspace/C50/Huawei_IoT_Agent_Tiny_SDK_Linux//lwm2m/core/liblwm2m.c ****     {
 598              		.loc 1 132 0
 599 000d EB0E     		jmp	.L50
 600              	.LVL76:
 601              	.L51:
 134:/home/baikal/workspace/C50/Huawei_IoT_Agent_Tiny_SDK_Linux//lwm2m/core/liblwm2m.c ****         server = server->next;
 602              		.loc 1 134 0
 603 000f 4889DE   		movq	%rbx, %rsi
 604 0012 4889EF   		movq	%rbp, %rdi
 605 0015 E8000000 		call	registration_deregister
 605      00
 606              	.LVL77:
 135:/home/baikal/workspace/C50/Huawei_IoT_Agent_Tiny_SDK_Linux//lwm2m/core/liblwm2m.c ****     }
 607              		.loc 1 135 0
 608 001a 488B1B   		movq	(%rbx), %rbx
 609              	.LVL78:
 610              	.L50:
 132:/home/baikal/workspace/C50/Huawei_IoT_Agent_Tiny_SDK_Linux//lwm2m/core/liblwm2m.c ****     {
 611              		.loc 1 132 0
 612 001d 4885DB   		testq	%rbx, %rbx
 613 0020 75ED     		jne	.L51
 137:/home/baikal/workspace/C50/Huawei_IoT_Agent_Tiny_SDK_Linux//lwm2m/core/liblwm2m.c **** 
 614              		.loc 1 137 0
 615 0022 4883C408 		addq	$8, %rsp
 616              	.LCFI37:
 617              		.cfi_def_cfa_offset 24
 618 0026 5B       		popq	%rbx
 619              	.LCFI38:
 620              		.cfi_def_cfa_offset 16
 621              	.LVL79:
 622 0027 5D       		popq	%rbp
 623              	.LCFI39:
 624              		.cfi_def_cfa_offset 8
 625              	.LVL80:
 626 0028 C3       		ret
 627              		.cfi_endproc
 628              	.LFE66:
 630              		.section	.text.prv_deleteTransactionList,"ax",@progbits
 631              		.globl	prv_deleteTransactionList
 633              	prv_deleteTransactionList:
GAS LISTING /tmp/ccQM4ohB.s 			page 24


 634              	.LFB72:
 216:/home/baikal/workspace/C50/Huawei_IoT_Agent_Tiny_SDK_Linux//lwm2m/core/liblwm2m.c ****     while (NULL != context->transactionList)
 635              		.loc 1 216 0
 636              		.cfi_startproc
 637              	.LVL81:
 638 0000 55       		pushq	%rbp
 639              	.LCFI40:
 640              		.cfi_def_cfa_offset 16
 641              		.cfi_offset 6, -16
 642 0001 53       		pushq	%rbx
 643              	.LCFI41:
 644              		.cfi_def_cfa_offset 24
 645              		.cfi_offset 3, -24
 646 0002 4883EC08 		subq	$8, %rsp
 647              	.LCFI42:
 648              		.cfi_def_cfa_offset 32
 649 0006 4889FD   		movq	%rdi, %rbp
 217:/home/baikal/workspace/C50/Huawei_IoT_Agent_Tiny_SDK_Linux//lwm2m/core/liblwm2m.c ****     {
 650              		.loc 1 217 0
 651 0009 EB22     		jmp	.L54
 652              	.LVL82:
 653              	.L56:
 654              	.LBB9:
 222:/home/baikal/workspace/C50/Huawei_IoT_Agent_Tiny_SDK_Linux//lwm2m/core/liblwm2m.c ****         if (transaction->callback != NULL)
 655              		.loc 1 222 0
 656 000b 488B03   		movq	(%rbx), %rax
 657 000e 48894558 		movq	%rax, 88(%rbp)
 223:/home/baikal/workspace/C50/Huawei_IoT_Agent_Tiny_SDK_Linux//lwm2m/core/liblwm2m.c ****         {
 658              		.loc 1 223 0
 659 0012 488B4360 		movq	96(%rbx), %rax
 660 0016 4885C0   		testq	%rax, %rax
 661 0019 740A     		je	.L55
 225:/home/baikal/workspace/C50/Huawei_IoT_Agent_Tiny_SDK_Linux//lwm2m/core/liblwm2m.c ****         }
 662              		.loc 1 225 0
 663 001b BE000000 		movl	$0, %esi
 663      00
 664 0020 4889DF   		movq	%rbx, %rdi
 665 0023 FFD0     		call	*%rax
 666              	.LVL83:
 667              	.L55:
 227:/home/baikal/workspace/C50/Huawei_IoT_Agent_Tiny_SDK_Linux//lwm2m/core/liblwm2m.c ****     }
 668              		.loc 1 227 0
 669 0025 4889DF   		movq	%rbx, %rdi
 670 0028 E8000000 		call	transaction_free
 670      00
 671              	.LVL84:
 672              	.L54:
 673              	.LBE9:
 217:/home/baikal/workspace/C50/Huawei_IoT_Agent_Tiny_SDK_Linux//lwm2m/core/liblwm2m.c ****     {
 674              		.loc 1 217 0
 675 002d 488B5D58 		movq	88(%rbp), %rbx
 676 0031 4885DB   		testq	%rbx, %rbx
 677 0034 75D5     		jne	.L56
 229:/home/baikal/workspace/C50/Huawei_IoT_Agent_Tiny_SDK_Linux//lwm2m/core/liblwm2m.c **** 
 678              		.loc 1 229 0
 679 0036 4883C408 		addq	$8, %rsp
 680              	.LCFI43:
GAS LISTING /tmp/ccQM4ohB.s 			page 25


 681              		.cfi_def_cfa_offset 24
 682 003a 5B       		popq	%rbx
 683              	.LCFI44:
 684              		.cfi_def_cfa_offset 16
 685 003b 5D       		popq	%rbp
 686              	.LCFI45:
 687              		.cfi_def_cfa_offset 8
 688              	.LVL85:
 689 003c C3       		ret
 690              		.cfi_endproc
 691              	.LFE72:
 693              		.section	.text.lwm2m_close,"ax",@progbits
 694              		.globl	lwm2m_close
 696              	lwm2m_close:
 697              	.LFB73:
 232:/home/baikal/workspace/C50/Huawei_IoT_Agent_Tiny_SDK_Linux//lwm2m/core/liblwm2m.c **** #ifdef LWM2M_CLIENT_MODE
 698              		.loc 1 232 0
 699              		.cfi_startproc
 700              	.LVL86:
 701 0000 53       		pushq	%rbx
 702              	.LCFI46:
 703              		.cfi_def_cfa_offset 16
 704              		.cfi_offset 3, -16
 705 0001 4889FB   		movq	%rdi, %rbx
 236:/home/baikal/workspace/C50/Huawei_IoT_Agent_Tiny_SDK_Linux//lwm2m/core/liblwm2m.c ****     prv_deleteServerList(contextP);
 706              		.loc 1 236 0
 707 0004 E8000000 		call	lwm2m_deregister
 707      00
 708              	.LVL87:
 237:/home/baikal/workspace/C50/Huawei_IoT_Agent_Tiny_SDK_Linux//lwm2m/core/liblwm2m.c **** #ifdef LWM2M_BOOTSTRAP
 709              		.loc 1 237 0
 710 0009 4889DF   		movq	%rbx, %rdi
 711 000c E8000000 		call	prv_deleteServerList
 711      00
 712              	.LVL88:
 239:/home/baikal/workspace/C50/Huawei_IoT_Agent_Tiny_SDK_Linux//lwm2m/core/liblwm2m.c **** #endif
 713              		.loc 1 239 0
 714 0011 4889DF   		movq	%rbx, %rdi
 715 0014 E8000000 		call	prv_deleteBootstrapServerList
 715      00
 716              	.LVL89:
 241:/home/baikal/workspace/C50/Huawei_IoT_Agent_Tiny_SDK_Linux//lwm2m/core/liblwm2m.c ****     lwm2m_free(contextP->endpointName);
 717              		.loc 1 241 0
 718 0019 4889DF   		movq	%rbx, %rdi
 719 001c E8000000 		call	prv_deleteObservedList
 719      00
 720              	.LVL90:
 242:/home/baikal/workspace/C50/Huawei_IoT_Agent_Tiny_SDK_Linux//lwm2m/core/liblwm2m.c ****     //lwm2m_free(contextP->bs_server_uri);
 721              		.loc 1 242 0
 722 0021 488B7B10 		movq	16(%rbx), %rdi
 723 0025 E8000000 		call	lwm2m_free
 723      00
 724              	.LVL91:
 244:/home/baikal/workspace/C50/Huawei_IoT_Agent_Tiny_SDK_Linux//lwm2m/core/liblwm2m.c ****     {
 725              		.loc 1 244 0
 726 002a 488B7B18 		movq	24(%rbx), %rdi
 727 002e 4885FF   		testq	%rdi, %rdi
GAS LISTING /tmp/ccQM4ohB.s 			page 26


 728 0031 7405     		je	.L59
 246:/home/baikal/workspace/C50/Huawei_IoT_Agent_Tiny_SDK_Linux//lwm2m/core/liblwm2m.c ****     }
 729              		.loc 1 246 0
 730 0033 E8000000 		call	lwm2m_free
 730      00
 731              	.LVL92:
 732              	.L59:
 248:/home/baikal/workspace/C50/Huawei_IoT_Agent_Tiny_SDK_Linux//lwm2m/core/liblwm2m.c ****     {
 733              		.loc 1 248 0
 734 0038 488B7B20 		movq	32(%rbx), %rdi
 735 003c 4885FF   		testq	%rdi, %rdi
 736 003f 7405     		je	.L60
 250:/home/baikal/workspace/C50/Huawei_IoT_Agent_Tiny_SDK_Linux//lwm2m/core/liblwm2m.c ****     }
 737              		.loc 1 250 0
 738 0041 E8000000 		call	lwm2m_free
 738      00
 739              	.LVL93:
 740              	.L60:
 267:/home/baikal/workspace/C50/Huawei_IoT_Agent_Tiny_SDK_Linux//lwm2m/core/liblwm2m.c ****     lwm2m_free(contextP);
 741              		.loc 1 267 0
 742 0046 4889DF   		movq	%rbx, %rdi
 743 0049 E8000000 		call	prv_deleteTransactionList
 743      00
 744              	.LVL94:
 268:/home/baikal/workspace/C50/Huawei_IoT_Agent_Tiny_SDK_Linux//lwm2m/core/liblwm2m.c **** }
 745              		.loc 1 268 0
 746 004e 4889DF   		movq	%rbx, %rdi
 747 0051 E8000000 		call	lwm2m_free
 747      00
 748              	.LVL95:
 269:/home/baikal/workspace/C50/Huawei_IoT_Agent_Tiny_SDK_Linux//lwm2m/core/liblwm2m.c **** 
 749              		.loc 1 269 0
 750 0056 5B       		popq	%rbx
 751              	.LCFI47:
 752              		.cfi_def_cfa_offset 8
 753              	.LVL96:
 754 0057 C3       		ret
 755              		.cfi_endproc
 756              	.LFE73:
 758              		.section	.text.lwm2m_configure,"ax",@progbits
 759              		.globl	lwm2m_configure
 761              	lwm2m_configure:
 762              	.LFB75:
 322:/home/baikal/workspace/C50/Huawei_IoT_Agent_Tiny_SDK_Linux//lwm2m/core/liblwm2m.c ****     int i;
 763              		.loc 1 322 0
 764              		.cfi_startproc
 765              	.LVL97:
 328:/home/baikal/workspace/C50/Huawei_IoT_Agent_Tiny_SDK_Linux//lwm2m/core/liblwm2m.c **** 
 766              		.loc 1 328 0
 767 0000 48837F10 		cmpq	$0, 16(%rdi)
 767      00
 768 0005 0F853201 		jne	.L75
 768      0000
 322:/home/baikal/workspace/C50/Huawei_IoT_Agent_Tiny_SDK_Linux//lwm2m/core/liblwm2m.c ****     int i;
 769              		.loc 1 322 0 discriminator 2
 770 000b 4157     		pushq	%r15
 771              	.LCFI48:
GAS LISTING /tmp/ccQM4ohB.s 			page 27


 772              		.cfi_def_cfa_offset 16
 773              		.cfi_offset 15, -16
 774 000d 4156     		pushq	%r14
 775              	.LCFI49:
 776              		.cfi_def_cfa_offset 24
 777              		.cfi_offset 14, -24
 778 000f 4155     		pushq	%r13
 779              	.LCFI50:
 780              		.cfi_def_cfa_offset 32
 781              		.cfi_offset 13, -32
 782 0011 4154     		pushq	%r12
 783              	.LCFI51:
 784              		.cfi_def_cfa_offset 40
 785              		.cfi_offset 12, -40
 786 0013 55       		pushq	%rbp
 787              	.LCFI52:
 788              		.cfi_def_cfa_offset 48
 789              		.cfi_offset 6, -48
 790 0014 53       		pushq	%rbx
 791              	.LCFI53:
 792              		.cfi_def_cfa_offset 56
 793              		.cfi_offset 3, -56
 794 0015 4883EC08 		subq	$8, %rsp
 795              	.LCFI54:
 796              		.cfi_def_cfa_offset 64
 797 0019 4889FB   		movq	%rdi, %rbx
 798 001c 4989F4   		movq	%rsi, %r12
 799 001f 4989D6   		movq	%rdx, %r14
 800 0022 4989CD   		movq	%rcx, %r13
 801 0025 4C89CD   		movq	%r9, %rbp
 802 0028 4489C0   		movl	%r8d, %eax
 328:/home/baikal/workspace/C50/Huawei_IoT_Agent_Tiny_SDK_Linux//lwm2m/core/liblwm2m.c **** 
 803              		.loc 1 328 0 discriminator 2
 804 002b 48837F38 		cmpq	$0, 56(%rdi)
 804      00
 805 0030 0F850D01 		jne	.L76
 805      0000
 330:/home/baikal/workspace/C50/Huawei_IoT_Agent_Tiny_SDK_Linux//lwm2m/core/liblwm2m.c ****     if (numObject < 3) return COAP_400_BAD_REQUEST;
 806              		.loc 1 330 0
 807 0036 4885F6   		testq	%rsi, %rsi
 808 0039 0F840B01 		je	.L77
 808      0000
 331:/home/baikal/workspace/C50/Huawei_IoT_Agent_Tiny_SDK_Linux//lwm2m/core/liblwm2m.c ****     // Check that mandatory objects are present
 809              		.loc 1 331 0
 810 003f 664183F8 		cmpw	$2, %r8w
 810      02
 811 0044 0F860701 		jbe	.L78
 811      0000
 812 004a BE000000 		movl	$0, %esi
 812      00
 813              	.LVL98:
 814 004f BA000000 		movl	$0, %edx
 814      00
 815              	.LVL99:
 816 0054 EB2E     		jmp	.L64
 817              	.LVL100:
 818              	.L68:
GAS LISTING /tmp/ccQM4ohB.s 			page 28


 336:/home/baikal/workspace/C50/Huawei_IoT_Agent_Tiny_SDK_Linux//lwm2m/core/liblwm2m.c ****             continue;
 819              		.loc 1 336 0
 820 0056 4863CA   		movslq	%edx, %rcx
 821 0059 488B4CCD 		movq	0(%rbp,%rcx,8), %rcx
 821      00
 822 005e 4885C9   		testq	%rcx, %rcx
 823 0061 741E     		je	.L65
 338:/home/baikal/workspace/C50/Huawei_IoT_Agent_Tiny_SDK_Linux//lwm2m/core/liblwm2m.c ****         if (objectList[i]->objID == LWM2M_SERVER_OBJECT_ID) found |= 0x02;
 824              		.loc 1 338 0
 825 0063 0FB74908 		movzwl	8(%rcx), %ecx
 826 0067 6685C9   		testw	%cx, %cx
 827 006a 7503     		jne	.L66
 338:/home/baikal/workspace/C50/Huawei_IoT_Agent_Tiny_SDK_Linux//lwm2m/core/liblwm2m.c ****         if (objectList[i]->objID == LWM2M_SERVER_OBJECT_ID) found |= 0x02;
 828              		.loc 1 338 0 is_stmt 0 discriminator 1
 829 006c 83CE01   		orl	$1, %esi
 830              	.LVL101:
 831              	.L66:
 339:/home/baikal/workspace/C50/Huawei_IoT_Agent_Tiny_SDK_Linux//lwm2m/core/liblwm2m.c ****         if (objectList[i]->objID == LWM2M_DEVICE_OBJECT_ID) found |= 0x04;
 832              		.loc 1 339 0 is_stmt 1
 833 006f 6683F901 		cmpw	$1, %cx
 834 0073 7503     		jne	.L67
 339:/home/baikal/workspace/C50/Huawei_IoT_Agent_Tiny_SDK_Linux//lwm2m/core/liblwm2m.c ****         if (objectList[i]->objID == LWM2M_DEVICE_OBJECT_ID) found |= 0x04;
 835              		.loc 1 339 0 is_stmt 0 discriminator 1
 836 0075 83CE02   		orl	$2, %esi
 837              	.LVL102:
 838              	.L67:
 340:/home/baikal/workspace/C50/Huawei_IoT_Agent_Tiny_SDK_Linux//lwm2m/core/liblwm2m.c ****     }
 839              		.loc 1 340 0 is_stmt 1
 840 0078 6683F903 		cmpw	$3, %cx
 841 007c 7503     		jne	.L65
 340:/home/baikal/workspace/C50/Huawei_IoT_Agent_Tiny_SDK_Linux//lwm2m/core/liblwm2m.c ****     }
 842              		.loc 1 340 0 is_stmt 0 discriminator 1
 843 007e 83CE04   		orl	$4, %esi
 844              	.LVL103:
 845              	.L65:
 334:/home/baikal/workspace/C50/Huawei_IoT_Agent_Tiny_SDK_Linux//lwm2m/core/liblwm2m.c ****     {
 846              		.loc 1 334 0 is_stmt 1 discriminator 2
 847 0081 83C201   		addl	$1, %edx
 848              	.LVL104:
 849              	.L64:
 334:/home/baikal/workspace/C50/Huawei_IoT_Agent_Tiny_SDK_Linux//lwm2m/core/liblwm2m.c ****     {
 850              		.loc 1 334 0 is_stmt 0 discriminator 1
 851 0084 440FB7F8 		movzwl	%ax, %r15d
 852 0088 4439FA   		cmpl	%r15d, %edx
 853 008b 7CC9     		jl	.L68
 342:/home/baikal/workspace/C50/Huawei_IoT_Agent_Tiny_SDK_Linux//lwm2m/core/liblwm2m.c ****     if (altPath != NULL)
 854              		.loc 1 342 0 is_stmt 1
 855 008d 4080FE07 		cmpb	$7, %sil
 856 0091 0F85C100 		jne	.L79
 856      0000
 343:/home/baikal/workspace/C50/Huawei_IoT_Agent_Tiny_SDK_Linux//lwm2m/core/liblwm2m.c ****     {
 857              		.loc 1 343 0
 858 0097 4D85ED   		testq	%r13, %r13
 859 009a 741D     		je	.L69
 345:/home/baikal/workspace/C50/Huawei_IoT_Agent_Tiny_SDK_Linux//lwm2m/core/liblwm2m.c ****         {
 860              		.loc 1 345 0
 861 009c 4C89EF   		movq	%r13, %rdi
GAS LISTING /tmp/ccQM4ohB.s 			page 29


 862              	.LVL105:
 863 009f E8000000 		call	utils_isAltPathValid
 863      00
 864              	.LVL106:
 865 00a4 85C0     		testl	%eax, %eax
 866 00a6 0F84B300 		je	.L80
 866      0000
 349:/home/baikal/workspace/C50/Huawei_IoT_Agent_Tiny_SDK_Linux//lwm2m/core/liblwm2m.c ****         {
 867              		.loc 1 349 0
 868 00ac 41807D01 		cmpb	$0, 1(%r13)
 868      00
 869 00b1 7506     		jne	.L69
 351:/home/baikal/workspace/C50/Huawei_IoT_Agent_Tiny_SDK_Linux//lwm2m/core/liblwm2m.c ****         }
 870              		.loc 1 351 0
 871 00b3 41BD0000 		movl	$0, %r13d
 871      0000
 872              	.LVL107:
 873              	.L69:
 354:/home/baikal/workspace/C50/Huawei_IoT_Agent_Tiny_SDK_Linux//lwm2m/core/liblwm2m.c ****     if (contextP->endpointName == NULL)
 874              		.loc 1 354 0
 875 00b9 4C89E7   		movq	%r12, %rdi
 876 00bc E8000000 		call	lwm2m_strdup
 876      00
 877              	.LVL108:
 878 00c1 48894310 		movq	%rax, 16(%rbx)
 355:/home/baikal/workspace/C50/Huawei_IoT_Agent_Tiny_SDK_Linux//lwm2m/core/liblwm2m.c ****     {
 879              		.loc 1 355 0
 880 00c5 4885C0   		testq	%rax, %rax
 881 00c8 0F849800 		je	.L82
 881      0000
 360:/home/baikal/workspace/C50/Huawei_IoT_Agent_Tiny_SDK_Linux//lwm2m/core/liblwm2m.c ****     {
 882              		.loc 1 360 0
 883 00ce 4D85F6   		testq	%r14, %r14
 884 00d1 7415     		je	.L70
 362:/home/baikal/workspace/C50/Huawei_IoT_Agent_Tiny_SDK_Linux//lwm2m/core/liblwm2m.c ****         if (contextP->msisdn == NULL)
 885              		.loc 1 362 0
 886 00d3 4C89F7   		movq	%r14, %rdi
 887 00d6 E8000000 		call	lwm2m_strdup
 887      00
 888              	.LVL109:
 889 00db 48894318 		movq	%rax, 24(%rbx)
 363:/home/baikal/workspace/C50/Huawei_IoT_Agent_Tiny_SDK_Linux//lwm2m/core/liblwm2m.c ****         {
 890              		.loc 1 363 0
 891 00df 4885C0   		testq	%rax, %rax
 892 00e2 0F848500 		je	.L83
 892      0000
 893              	.L70:
 369:/home/baikal/workspace/C50/Huawei_IoT_Agent_Tiny_SDK_Linux//lwm2m/core/liblwm2m.c ****     {
 894              		.loc 1 369 0
 895 00e8 4D85ED   		testq	%r13, %r13
 896 00eb 7411     		je	.L71
 371:/home/baikal/workspace/C50/Huawei_IoT_Agent_Tiny_SDK_Linux//lwm2m/core/liblwm2m.c ****         if (contextP->altPath == NULL)
 897              		.loc 1 371 0
 898 00ed 4C89EF   		movq	%r13, %rdi
 899 00f0 E8000000 		call	lwm2m_strdup
 899      00
 900              	.LVL110:
GAS LISTING /tmp/ccQM4ohB.s 			page 30


 901 00f5 48894320 		movq	%rax, 32(%rbx)
 372:/home/baikal/workspace/C50/Huawei_IoT_Agent_Tiny_SDK_Linux//lwm2m/core/liblwm2m.c ****         {
 902              		.loc 1 372 0
 903 00f9 4885C0   		testq	%rax, %rax
 904 00fc 7476     		je	.L84
 905              	.L71:
 351:/home/baikal/workspace/C50/Huawei_IoT_Agent_Tiny_SDK_Linux//lwm2m/core/liblwm2m.c ****         }
 906              		.loc 1 351 0 discriminator 1
 907 00fe 41BC0000 		movl	$0, %r12d
 907      0000
 908              	.LVL111:
 909 0104 EB2B     		jmp	.L72
 910              	.LVL112:
 911              	.L74:
 380:/home/baikal/workspace/C50/Huawei_IoT_Agent_Tiny_SDK_Linux//lwm2m/core/liblwm2m.c ****             continue;
 912              		.loc 1 380 0
 913 0106 4963C4   		movslq	%r12d, %rax
 914 0109 488D44C5 		leaq	0(%rbp,%rax,8), %rax
 914      00
 915 010e 488B10   		movq	(%rax), %rdx
 916 0111 4885D2   		testq	%rdx, %rdx
 917 0114 7417     		je	.L73
 382:/home/baikal/workspace/C50/Huawei_IoT_Agent_Tiny_SDK_Linux//lwm2m/core/liblwm2m.c ****         contextP->objectList = (lwm2m_object_t *)LWM2M_LIST_ADD(contextP->objectList, objectList[i]
 918              		.loc 1 382 0
 919 0116 48C70200 		movq	$0, (%rdx)
 919      000000
 383:/home/baikal/workspace/C50/Huawei_IoT_Agent_Tiny_SDK_Linux//lwm2m/core/liblwm2m.c ****     }
 920              		.loc 1 383 0
 921 011d 488B7B38 		movq	56(%rbx), %rdi
 922 0121 488B30   		movq	(%rax), %rsi
 923 0124 E8000000 		call	lwm2m_list_add
 923      00
 924              	.LVL113:
 925 0129 48894338 		movq	%rax, 56(%rbx)
 926              	.L73:
 378:/home/baikal/workspace/C50/Huawei_IoT_Agent_Tiny_SDK_Linux//lwm2m/core/liblwm2m.c ****     {
 927              		.loc 1 378 0 discriminator 2
 928 012d 4183C401 		addl	$1, %r12d
 929              	.LVL114:
 930              	.L72:
 378:/home/baikal/workspace/C50/Huawei_IoT_Agent_Tiny_SDK_Linux//lwm2m/core/liblwm2m.c ****     {
 931              		.loc 1 378 0 is_stmt 0 discriminator 1
 932 0131 4539FC   		cmpl	%r15d, %r12d
 933 0134 7CD0     		jl	.L74
 386:/home/baikal/workspace/C50/Huawei_IoT_Agent_Tiny_SDK_Linux//lwm2m/core/liblwm2m.c **** }
 934              		.loc 1 386 0 is_stmt 1
 935 0136 B8000000 		movl	$0, %eax
 935      00
 936 013b EB3C     		jmp	.L63
 937              	.LVL115:
 938              	.L75:
 939              	.LCFI55:
 940              		.cfi_def_cfa_offset 8
 941              		.cfi_restore 3
 942              		.cfi_restore 6
 943              		.cfi_restore 12
 944              		.cfi_restore 13
GAS LISTING /tmp/ccQM4ohB.s 			page 31


 945              		.cfi_restore 14
 946              		.cfi_restore 15
 328:/home/baikal/workspace/C50/Huawei_IoT_Agent_Tiny_SDK_Linux//lwm2m/core/liblwm2m.c **** 
 947              		.loc 1 328 0
 948 013d B8800000 		movl	$128, %eax
 948      00
 387:/home/baikal/workspace/C50/Huawei_IoT_Agent_Tiny_SDK_Linux//lwm2m/core/liblwm2m.c **** 
 949              		.loc 1 387 0
 950 0142 C3       		ret
 951              	.LVL116:
 952              	.L76:
 953              	.LCFI56:
 954              		.cfi_def_cfa_offset 64
 955              		.cfi_offset 3, -56
 956              		.cfi_offset 6, -48
 957              		.cfi_offset 12, -40
 958              		.cfi_offset 13, -32
 959              		.cfi_offset 14, -24
 960              		.cfi_offset 15, -16
 328:/home/baikal/workspace/C50/Huawei_IoT_Agent_Tiny_SDK_Linux//lwm2m/core/liblwm2m.c **** 
 961              		.loc 1 328 0
 962 0143 B8800000 		movl	$128, %eax
 962      00
 963              	.LVL117:
 964 0148 EB2F     		jmp	.L63
 965              	.LVL118:
 966              	.L77:
 330:/home/baikal/workspace/C50/Huawei_IoT_Agent_Tiny_SDK_Linux//lwm2m/core/liblwm2m.c ****     if (numObject < 3) return COAP_400_BAD_REQUEST;
 967              		.loc 1 330 0
 968 014a B8800000 		movl	$128, %eax
 968      00
 969              	.LVL119:
 970 014f EB28     		jmp	.L63
 971              	.LVL120:
 972              	.L78:
 331:/home/baikal/workspace/C50/Huawei_IoT_Agent_Tiny_SDK_Linux//lwm2m/core/liblwm2m.c ****     // Check that mandatory objects are present
 973              		.loc 1 331 0
 974 0151 B8800000 		movl	$128, %eax
 974      00
 975              	.LVL121:
 976 0156 EB21     		jmp	.L63
 977              	.LVL122:
 978              	.L79:
 342:/home/baikal/workspace/C50/Huawei_IoT_Agent_Tiny_SDK_Linux//lwm2m/core/liblwm2m.c ****     if (altPath != NULL)
 979              		.loc 1 342 0
 980 0158 B8800000 		movl	$128, %eax
 980      00
 981              	.LVL123:
 982 015d EB1A     		jmp	.L63
 983              	.LVL124:
 984              	.L80:
 347:/home/baikal/workspace/C50/Huawei_IoT_Agent_Tiny_SDK_Linux//lwm2m/core/liblwm2m.c ****         }
 985              		.loc 1 347 0
 986 015f B8800000 		movl	$128, %eax
 986      00
 987 0164 EB13     		jmp	.L63
 988              	.L82:
GAS LISTING /tmp/ccQM4ohB.s 			page 32


 357:/home/baikal/workspace/C50/Huawei_IoT_Agent_Tiny_SDK_Linux//lwm2m/core/liblwm2m.c ****     }
 989              		.loc 1 357 0
 990 0166 B8A00000 		movl	$160, %eax
 990      00
 991 016b EB0C     		jmp	.L63
 992              	.L83:
 365:/home/baikal/workspace/C50/Huawei_IoT_Agent_Tiny_SDK_Linux//lwm2m/core/liblwm2m.c ****         }
 993              		.loc 1 365 0
 994 016d B8A00000 		movl	$160, %eax
 994      00
 995 0172 EB05     		jmp	.L63
 996              	.L84:
 374:/home/baikal/workspace/C50/Huawei_IoT_Agent_Tiny_SDK_Linux//lwm2m/core/liblwm2m.c ****         }
 997              		.loc 1 374 0
 998 0174 B8A00000 		movl	$160, %eax
 998      00
 999              	.LVL125:
 1000              	.L63:
 387:/home/baikal/workspace/C50/Huawei_IoT_Agent_Tiny_SDK_Linux//lwm2m/core/liblwm2m.c **** 
 1001              		.loc 1 387 0
 1002 0179 4883C408 		addq	$8, %rsp
 1003              	.LCFI57:
 1004              		.cfi_def_cfa_offset 56
 1005 017d 5B       		popq	%rbx
 1006              	.LCFI58:
 1007              		.cfi_restore 3
 1008              		.cfi_def_cfa_offset 48
 1009              	.LVL126:
 1010 017e 5D       		popq	%rbp
 1011              	.LCFI59:
 1012              		.cfi_restore 6
 1013              		.cfi_def_cfa_offset 40
 1014              	.LVL127:
 1015 017f 415C     		popq	%r12
 1016              	.LCFI60:
 1017              		.cfi_restore 12
 1018              		.cfi_def_cfa_offset 32
 1019 0181 415D     		popq	%r13
 1020              	.LCFI61:
 1021              		.cfi_restore 13
 1022              		.cfi_def_cfa_offset 24
 1023              	.LVL128:
 1024 0183 415E     		popq	%r14
 1025              	.LCFI62:
 1026              		.cfi_restore 14
 1027              		.cfi_def_cfa_offset 16
 1028              	.LVL129:
 1029 0185 415F     		popq	%r15
 1030              	.LCFI63:
 1031              		.cfi_restore 15
 1032              		.cfi_def_cfa_offset 8
 1033 0187 C3       		ret
 1034              		.cfi_endproc
 1035              	.LFE75:
 1037              		.section	.text.lwm2m_add_object,"ax",@progbits
 1038              		.globl	lwm2m_add_object
 1040              	lwm2m_add_object:
GAS LISTING /tmp/ccQM4ohB.s 			page 33


 1041              	.LFB76:
 391:/home/baikal/workspace/C50/Huawei_IoT_Agent_Tiny_SDK_Linux//lwm2m/core/liblwm2m.c ****     lwm2m_object_t *targetP;
 1042              		.loc 1 391 0
 1043              		.cfi_startproc
 1044              	.LVL130:
 1045 0000 55       		pushq	%rbp
 1046              	.LCFI64:
 1047              		.cfi_def_cfa_offset 16
 1048              		.cfi_offset 6, -16
 1049 0001 53       		pushq	%rbx
 1050              	.LCFI65:
 1051              		.cfi_def_cfa_offset 24
 1052              		.cfi_offset 3, -24
 1053 0002 4883EC08 		subq	$8, %rsp
 1054              	.LCFI66:
 1055              		.cfi_def_cfa_offset 32
 1056 0006 4889FB   		movq	%rdi, %rbx
 1057 0009 4889F5   		movq	%rsi, %rbp
 395:/home/baikal/workspace/C50/Huawei_IoT_Agent_Tiny_SDK_Linux//lwm2m/core/liblwm2m.c ****     if (targetP != NULL) return COAP_406_NOT_ACCEPTABLE;
 1058              		.loc 1 395 0
 1059 000c 0FB77608 		movzwl	8(%rsi), %esi
 1060              	.LVL131:
 1061 0010 488B7F38 		movq	56(%rdi), %rdi
 1062              	.LVL132:
 1063 0014 E8000000 		call	lwm2m_list_find
 1063      00
 1064              	.LVL133:
 396:/home/baikal/workspace/C50/Huawei_IoT_Agent_Tiny_SDK_Linux//lwm2m/core/liblwm2m.c ****     objectP->next = NULL;
 1065              		.loc 1 396 0
 1066 0019 4885C0   		testq	%rax, %rax
 1067 001c 7531     		jne	.L88
 397:/home/baikal/workspace/C50/Huawei_IoT_Agent_Tiny_SDK_Linux//lwm2m/core/liblwm2m.c **** 
 1068              		.loc 1 397 0
 1069 001e 48C74500 		movq	$0, 0(%rbp)
 1069      00000000 
 399:/home/baikal/workspace/C50/Huawei_IoT_Agent_Tiny_SDK_Linux//lwm2m/core/liblwm2m.c **** 
 1070              		.loc 1 399 0
 1071 0026 488B7B38 		movq	56(%rbx), %rdi
 1072 002a 4889EE   		movq	%rbp, %rsi
 1073 002d E8000000 		call	lwm2m_list_add
 1073      00
 1074              	.LVL134:
 1075 0032 48894338 		movq	%rax, 56(%rbx)
 401:/home/baikal/workspace/C50/Huawei_IoT_Agent_Tiny_SDK_Linux//lwm2m/core/liblwm2m.c ****     {
 1076              		.loc 1 401 0
 1077 0036 833B05   		cmpl	$5, (%rbx)
 1078 0039 751B     		jne	.L89
 403:/home/baikal/workspace/C50/Huawei_IoT_Agent_Tiny_SDK_Linux//lwm2m/core/liblwm2m.c ****     }
 1079              		.loc 1 403 0
 1080 003b BA010000 		movl	$1, %edx
 1080      00
 1081 0040 BE000000 		movl	$0, %esi
 1081      00
 1082 0045 4889DF   		movq	%rbx, %rdi
 1083 0048 E8000000 		call	lwm2m_update_registration
 1083      00
 1084              	.LVL135:
GAS LISTING /tmp/ccQM4ohB.s 			page 34


 1085 004d EB0C     		jmp	.L87
 1086              	.LVL136:
 1087              	.L88:
 396:/home/baikal/workspace/C50/Huawei_IoT_Agent_Tiny_SDK_Linux//lwm2m/core/liblwm2m.c ****     objectP->next = NULL;
 1088              		.loc 1 396 0
 1089 004f B8860000 		movl	$134, %eax
 1089      00
 1090              	.LVL137:
 1091 0054 EB05     		jmp	.L87
 1092              	.L89:
 406:/home/baikal/workspace/C50/Huawei_IoT_Agent_Tiny_SDK_Linux//lwm2m/core/liblwm2m.c **** }
 1093              		.loc 1 406 0
 1094 0056 B8000000 		movl	$0, %eax
 1094      00
 1095              	.L87:
 407:/home/baikal/workspace/C50/Huawei_IoT_Agent_Tiny_SDK_Linux//lwm2m/core/liblwm2m.c **** 
 1096              		.loc 1 407 0
 1097 005b 4883C408 		addq	$8, %rsp
 1098              	.LCFI67:
 1099              		.cfi_def_cfa_offset 24
 1100 005f 5B       		popq	%rbx
 1101              	.LCFI68:
 1102              		.cfi_def_cfa_offset 16
 1103              	.LVL138:
 1104 0060 5D       		popq	%rbp
 1105              	.LCFI69:
 1106              		.cfi_def_cfa_offset 8
 1107              	.LVL139:
 1108 0061 C3       		ret
 1109              		.cfi_endproc
 1110              	.LFE76:
 1112              		.section	.text.lwm2m_remove_object,"ax",@progbits
 1113              		.globl	lwm2m_remove_object
 1115              	lwm2m_remove_object:
 1116              	.LFB77:
 411:/home/baikal/workspace/C50/Huawei_IoT_Agent_Tiny_SDK_Linux//lwm2m/core/liblwm2m.c ****     lwm2m_object_t *targetP;
 1117              		.loc 1 411 0
 1118              		.cfi_startproc
 1119              	.LVL140:
 1120 0000 53       		pushq	%rbx
 1121              	.LCFI70:
 1122              		.cfi_def_cfa_offset 16
 1123              		.cfi_offset 3, -16
 1124 0001 4883EC10 		subq	$16, %rsp
 1125              	.LCFI71:
 1126              		.cfi_def_cfa_offset 32
 1127 0005 4889FB   		movq	%rdi, %rbx
 415:/home/baikal/workspace/C50/Huawei_IoT_Agent_Tiny_SDK_Linux//lwm2m/core/liblwm2m.c **** 
 1128              		.loc 1 415 0
 1129 0008 488B7F38 		movq	56(%rdi), %rdi
 1130              	.LVL141:
 1131 000c 0FB7F6   		movzwl	%si, %esi
 1132 000f 488D5424 		leaq	8(%rsp), %rdx
 1132      08
 1133 0014 E8000000 		call	lwm2m_list_remove
 1133      00
 1134              	.LVL142:
GAS LISTING /tmp/ccQM4ohB.s 			page 35


 1135 0019 48894338 		movq	%rax, 56(%rbx)
 417:/home/baikal/workspace/C50/Huawei_IoT_Agent_Tiny_SDK_Linux//lwm2m/core/liblwm2m.c **** 
 1136              		.loc 1 417 0
 1137 001d 48837C24 		cmpq	$0, 8(%rsp)
 1137      0800
 1138 0023 7419     		je	.L93
 419:/home/baikal/workspace/C50/Huawei_IoT_Agent_Tiny_SDK_Linux//lwm2m/core/liblwm2m.c ****     {
 1139              		.loc 1 419 0
 1140 0025 833B05   		cmpl	$5, (%rbx)
 1141 0028 751B     		jne	.L94
 421:/home/baikal/workspace/C50/Huawei_IoT_Agent_Tiny_SDK_Linux//lwm2m/core/liblwm2m.c ****     }
 1142              		.loc 1 421 0
 1143 002a BA010000 		movl	$1, %edx
 1143      00
 1144 002f BE000000 		movl	$0, %esi
 1144      00
 1145 0034 4889DF   		movq	%rbx, %rdi
 1146 0037 E8000000 		call	lwm2m_update_registration
 1146      00
 1147              	.LVL143:
 1148 003c EB0C     		jmp	.L92
 1149              	.L93:
 417:/home/baikal/workspace/C50/Huawei_IoT_Agent_Tiny_SDK_Linux//lwm2m/core/liblwm2m.c **** 
 1150              		.loc 1 417 0
 1151 003e B8840000 		movl	$132, %eax
 1151      00
 1152 0043 EB05     		jmp	.L92
 1153              	.L94:
 424:/home/baikal/workspace/C50/Huawei_IoT_Agent_Tiny_SDK_Linux//lwm2m/core/liblwm2m.c **** }
 1154              		.loc 1 424 0
 1155 0045 B8000000 		movl	$0, %eax
 1155      00
 1156              	.L92:
 425:/home/baikal/workspace/C50/Huawei_IoT_Agent_Tiny_SDK_Linux//lwm2m/core/liblwm2m.c **** 
 1157              		.loc 1 425 0
 1158 004a 4883C410 		addq	$16, %rsp
 1159              	.LCFI72:
 1160              		.cfi_def_cfa_offset 16
 1161 004e 5B       		popq	%rbx
 1162              	.LCFI73:
 1163              		.cfi_def_cfa_offset 8
 1164              	.LVL144:
 1165 004f C3       		ret
 1166              		.cfi_endproc
 1167              	.LFE77:
 1169              		.section	.text.lwm2m_reconnect,"ax",@progbits
 1170              		.globl	lwm2m_reconnect
 1172              	lwm2m_reconnect:
 1173              	.LFB79:
 441:/home/baikal/workspace/C50/Huawei_IoT_Agent_Tiny_SDK_Linux//lwm2m/core/liblwm2m.c ****     if(NULL == context)
 1174              		.loc 1 441 0
 1175              		.cfi_startproc
 1176              	.LVL145:
 442:/home/baikal/workspace/C50/Huawei_IoT_Agent_Tiny_SDK_Linux//lwm2m/core/liblwm2m.c ****     {
 1177              		.loc 1 442 0
 1178 0000 4885FF   		testq	%rdi, %rdi
 1179 0003 744E     		je	.L99
GAS LISTING /tmp/ccQM4ohB.s 			page 36


 441:/home/baikal/workspace/C50/Huawei_IoT_Agent_Tiny_SDK_Linux//lwm2m/core/liblwm2m.c ****     if(NULL == context)
 1180              		.loc 1 441 0
 1181 0005 53       		pushq	%rbx
 1182              	.LCFI74:
 1183              		.cfi_def_cfa_offset 16
 1184              		.cfi_offset 3, -16
 1185 0006 4889FB   		movq	%rdi, %rbx
 448:/home/baikal/workspace/C50/Huawei_IoT_Agent_Tiny_SDK_Linux//lwm2m/core/liblwm2m.c ****     prv_deleteObservedList(context);
 1186              		.loc 1 448 0
 1187 0009 E8000000 		call	lwm2m_reset_register
 1187      00
 1188              	.LVL146:
 449:/home/baikal/workspace/C50/Huawei_IoT_Agent_Tiny_SDK_Linux//lwm2m/core/liblwm2m.c ****     prv_deleteTransactionList(context);
 1189              		.loc 1 449 0
 1190 000e 4889DF   		movq	%rbx, %rdi
 1191 0011 E8000000 		call	prv_deleteObservedList
 1191      00
 1192              	.LVL147:
 450:/home/baikal/workspace/C50/Huawei_IoT_Agent_Tiny_SDK_Linux//lwm2m/core/liblwm2m.c ****     context->state = ((context->serverList != NULL) ? STATE_REGISTER_REQUIRED : STATE_BOOTSTRAP_REQ
 1193              		.loc 1 450 0
 1194 0016 4889DF   		movq	%rbx, %rdi
 1195 0019 E8000000 		call	prv_deleteTransactionList
 1195      00
 1196              	.LVL148:
 451:/home/baikal/workspace/C50/Huawei_IoT_Agent_Tiny_SDK_Linux//lwm2m/core/liblwm2m.c ****     lwm2m_notify_even(MODULE_LWM2M, STATE_REG_FAILED, NULL, 0);
 1197              		.loc 1 451 0
 1198 001e 48837B30 		cmpq	$0, 48(%rbx)
 1198      00
 1199 0023 7407     		je	.L100
 1200 0025 B8030000 		movl	$3, %eax
 1200      00
 1201 002a EB05     		jmp	.L98
 1202              	.L100:
 1203 002c B8010000 		movl	$1, %eax
 1203      00
 1204              	.L98:
 451:/home/baikal/workspace/C50/Huawei_IoT_Agent_Tiny_SDK_Linux//lwm2m/core/liblwm2m.c ****     lwm2m_notify_even(MODULE_LWM2M, STATE_REG_FAILED, NULL, 0);
 1205              		.loc 1 451 0 is_stmt 0 discriminator 4
 1206 0031 8903     		movl	%eax, (%rbx)
 452:/home/baikal/workspace/C50/Huawei_IoT_Agent_Tiny_SDK_Linux//lwm2m/core/liblwm2m.c ****     return COAP_NO_ERROR;
 1207              		.loc 1 452 0 is_stmt 1 discriminator 4
 1208 0033 B9000000 		movl	$0, %ecx
 1208      00
 1209 0038 BA000000 		movl	$0, %edx
 1209      00
 1210 003d BE030000 		movl	$3, %esi
 1210      00
 1211 0042 BF000000 		movl	$0, %edi
 1211      00
 1212 0047 E8000000 		call	lwm2m_notify_even
 1212      00
 1213              	.LVL149:
 453:/home/baikal/workspace/C50/Huawei_IoT_Agent_Tiny_SDK_Linux//lwm2m/core/liblwm2m.c **** }
 1214              		.loc 1 453 0 discriminator 4
 1215 004c B8000000 		movl	$0, %eax
 1215      00
 1216 0051 EB06     		jmp	.L97
GAS LISTING /tmp/ccQM4ohB.s 			page 37


 1217              	.LVL150:
 1218              	.L99:
 1219              	.LCFI75:
 1220              		.cfi_def_cfa_offset 8
 1221              		.cfi_restore 3
 445:/home/baikal/workspace/C50/Huawei_IoT_Agent_Tiny_SDK_Linux//lwm2m/core/liblwm2m.c ****     }
 1222              		.loc 1 445 0
 1223 0053 B8850000 		movl	$133, %eax
 1223      00
 1224 0058 C3       		ret
 1225              	.LVL151:
 1226              	.L97:
 1227              	.LCFI76:
 1228              		.cfi_def_cfa_offset 16
 1229              		.cfi_offset 3, -16
 454:/home/baikal/workspace/C50/Huawei_IoT_Agent_Tiny_SDK_Linux//lwm2m/core/liblwm2m.c **** 
 1230              		.loc 1 454 0
 1231 0059 5B       		popq	%rbx
 1232              	.LCFI77:
 1233              		.cfi_restore 3
 1234              		.cfi_def_cfa_offset 8
 1235              	.LVL152:
 1236 005a C3       		ret
 1237              		.cfi_endproc
 1238              	.LFE79:
 1240              		.section	.text.lwm2m_bootstrap_sequence_factory_to_server_initiated,"ax",@progbits
 1241              		.globl	lwm2m_bootstrap_sequence_factory_to_server_initiated
 1243              	lwm2m_bootstrap_sequence_factory_to_server_initiated:
 1244              	.LFB81:
 479:/home/baikal/workspace/C50/Huawei_IoT_Agent_Tiny_SDK_Linux//lwm2m/core/liblwm2m.c **** 
 480:/home/baikal/workspace/C50/Huawei_IoT_Agent_Tiny_SDK_Linux//lwm2m/core/liblwm2m.c **** 
 481:/home/baikal/workspace/C50/Huawei_IoT_Agent_Tiny_SDK_Linux//lwm2m/core/liblwm2m.c **** /*
 482:/home/baikal/workspace/C50/Huawei_IoT_Agent_Tiny_SDK_Linux//lwm2m/core/liblwm2m.c ****  * add date:     2018-06-04
 483:/home/baikal/workspace/C50/Huawei_IoT_Agent_Tiny_SDK_Linux//lwm2m/core/liblwm2m.c ****  * modify data:  2018-06-25
 484:/home/baikal/workspace/C50/Huawei_IoT_Agent_Tiny_SDK_Linux//lwm2m/core/liblwm2m.c ****  * description:  only in the bootstrap sequence mode. when plan to change from factory to server, w
 485:/home/baikal/workspace/C50/Huawei_IoT_Agent_Tiny_SDK_Linux//lwm2m/core/liblwm2m.c ****  *               bootstrap(factory regist directly, flag is false,did not have bootstrapServerList)
 486:/home/baikal/workspace/C50/Huawei_IoT_Agent_Tiny_SDK_Linux//lwm2m/core/liblwm2m.c ****  *               start from the contextP->state = STATE_INITIAL
 487:/home/baikal/workspace/C50/Huawei_IoT_Agent_Tiny_SDK_Linux//lwm2m/core/liblwm2m.c ****  *
 488:/home/baikal/workspace/C50/Huawei_IoT_Agent_Tiny_SDK_Linux//lwm2m/core/liblwm2m.c ****  * return:
 489:/home/baikal/workspace/C50/Huawei_IoT_Agent_Tiny_SDK_Linux//lwm2m/core/liblwm2m.c ****                 success:  0
 490:/home/baikal/workspace/C50/Huawei_IoT_Agent_Tiny_SDK_Linux//lwm2m/core/liblwm2m.c ****                 fail:    -1
 491:/home/baikal/workspace/C50/Huawei_IoT_Agent_Tiny_SDK_Linux//lwm2m/core/liblwm2m.c ****  *
 492:/home/baikal/workspace/C50/Huawei_IoT_Agent_Tiny_SDK_Linux//lwm2m/core/liblwm2m.c ****  */
 493:/home/baikal/workspace/C50/Huawei_IoT_Agent_Tiny_SDK_Linux//lwm2m/core/liblwm2m.c **** int lwm2m_bootstrap_sequence_factory_to_server_initiated(lwm2m_context_t *contextP)
 494:/home/baikal/workspace/C50/Huawei_IoT_Agent_Tiny_SDK_Linux//lwm2m/core/liblwm2m.c **** {
 1245              		.loc 1 494 0
 1246              		.cfi_startproc
 1247              	.LVL153:
 495:/home/baikal/workspace/C50/Huawei_IoT_Agent_Tiny_SDK_Linux//lwm2m/core/liblwm2m.c **** 
 496:/home/baikal/workspace/C50/Huawei_IoT_Agent_Tiny_SDK_Linux//lwm2m/core/liblwm2m.c ****     LOG("[bootstrap_tag]: --------lwm2m_bootstrap_sequence_factory_to_server_initiated----------");
 497:/home/baikal/workspace/C50/Huawei_IoT_Agent_Tiny_SDK_Linux//lwm2m/core/liblwm2m.c **** 
 498:/home/baikal/workspace/C50/Huawei_IoT_Agent_Tiny_SDK_Linux//lwm2m/core/liblwm2m.c ****     //if regist fail, mean all iot server could not regist well, so tag it.
 499:/home/baikal/workspace/C50/Huawei_IoT_Agent_Tiny_SDK_Linux//lwm2m/core/liblwm2m.c ****     lwm2m_bootstrap_tag_IOT_server(contextP);  //only iot server
 1248              		.loc 1 499 0
 1249 0000 E8000000 		call	lwm2m_bootstrap_tag_IOT_server
 1249      00
 1250              	.LVL154:
GAS LISTING /tmp/ccQM4ohB.s 			page 38


 500:/home/baikal/workspace/C50/Huawei_IoT_Agent_Tiny_SDK_Linux//lwm2m/core/liblwm2m.c **** 
 501:/home/baikal/workspace/C50/Huawei_IoT_Agent_Tiny_SDK_Linux//lwm2m/core/liblwm2m.c ****     //in the server initiated mod, will have a connection in the bootstrap_start , the bootstrap se
 502:/home/baikal/workspace/C50/Huawei_IoT_Agent_Tiny_SDK_Linux//lwm2m/core/liblwm2m.c ****     //set in the security_instance_t already. and the security_instance_t's some info also have bee
 503:/home/baikal/workspace/C50/Huawei_IoT_Agent_Tiny_SDK_Linux//lwm2m/core/liblwm2m.c **** 
 504:/home/baikal/workspace/C50/Huawei_IoT_Agent_Tiny_SDK_Linux//lwm2m/core/liblwm2m.c ****     //pay attention : we should get into lwm2m_step again, so the process : contextP->state = STATE
 505:/home/baikal/workspace/C50/Huawei_IoT_Agent_Tiny_SDK_Linux//lwm2m/core/liblwm2m.c ****     //prv_refreshServerList, we have delete all iot_server, and delete the instance for iot server,
 506:/home/baikal/workspace/C50/Huawei_IoT_Agent_Tiny_SDK_Linux//lwm2m/core/liblwm2m.c ****     //the right instance of bootstrapserverlist , get into bootstrap process.
 507:/home/baikal/workspace/C50/Huawei_IoT_Agent_Tiny_SDK_Linux//lwm2m/core/liblwm2m.c **** 
 508:/home/baikal/workspace/C50/Huawei_IoT_Agent_Tiny_SDK_Linux//lwm2m/core/liblwm2m.c ****     return 0;
 509:/home/baikal/workspace/C50/Huawei_IoT_Agent_Tiny_SDK_Linux//lwm2m/core/liblwm2m.c **** }
 1251              		.loc 1 509 0
 1252 0005 B8000000 		movl	$0, %eax
 1252      00
 1253 000a C3       		ret
 1254              		.cfi_endproc
 1255              	.LFE81:
 1257              		.section	.text.lwm2m_bootstrap_sequence_server_to_client_initiated,"ax",@progbits
 1258              		.globl	lwm2m_bootstrap_sequence_server_to_client_initiated
 1260              	lwm2m_bootstrap_sequence_server_to_client_initiated:
 1261              	.LFB82:
 510:/home/baikal/workspace/C50/Huawei_IoT_Agent_Tiny_SDK_Linux//lwm2m/core/liblwm2m.c **** 
 511:/home/baikal/workspace/C50/Huawei_IoT_Agent_Tiny_SDK_Linux//lwm2m/core/liblwm2m.c **** 
 512:/home/baikal/workspace/C50/Huawei_IoT_Agent_Tiny_SDK_Linux//lwm2m/core/liblwm2m.c **** /*
 513:/home/baikal/workspace/C50/Huawei_IoT_Agent_Tiny_SDK_Linux//lwm2m/core/liblwm2m.c ****  * add date:     2018-06-04
 514:/home/baikal/workspace/C50/Huawei_IoT_Agent_Tiny_SDK_Linux//lwm2m/core/liblwm2m.c ****  * description:  only in the bootstrap sequence mode. when plan to change from server to client. we
 515:/home/baikal/workspace/C50/Huawei_IoT_Agent_Tiny_SDK_Linux//lwm2m/core/liblwm2m.c ****  *               info, such as uri may not ok.and in client mode, we must have the suitable bs serv
 516:/home/baikal/workspace/C50/Huawei_IoT_Agent_Tiny_SDK_Linux//lwm2m/core/liblwm2m.c ****  * return:
 517:/home/baikal/workspace/C50/Huawei_IoT_Agent_Tiny_SDK_Linux//lwm2m/core/liblwm2m.c ****                  success:  0
 518:/home/baikal/workspace/C50/Huawei_IoT_Agent_Tiny_SDK_Linux//lwm2m/core/liblwm2m.c ****                  fail:    -1
 519:/home/baikal/workspace/C50/Huawei_IoT_Agent_Tiny_SDK_Linux//lwm2m/core/liblwm2m.c ****  *
 520:/home/baikal/workspace/C50/Huawei_IoT_Agent_Tiny_SDK_Linux//lwm2m/core/liblwm2m.c ****  */
 521:/home/baikal/workspace/C50/Huawei_IoT_Agent_Tiny_SDK_Linux//lwm2m/core/liblwm2m.c **** int lwm2m_bootstrap_sequence_server_to_client_initiated(lwm2m_context_t *contextP)
 522:/home/baikal/workspace/C50/Huawei_IoT_Agent_Tiny_SDK_Linux//lwm2m/core/liblwm2m.c **** {
 1262              		.loc 1 522 0
 1263              		.cfi_startproc
 1264              	.LVL155:
 523:/home/baikal/workspace/C50/Huawei_IoT_Agent_Tiny_SDK_Linux//lwm2m/core/liblwm2m.c ****     LOG("[bootstrap_tag]: --------lwm2m_bootstrap_sequence_server_to_client_initiated----------");
 524:/home/baikal/workspace/C50/Huawei_IoT_Agent_Tiny_SDK_Linux//lwm2m/core/liblwm2m.c ****     //if regist fail, mean all iot server could not regist well, so tag it.
 525:/home/baikal/workspace/C50/Huawei_IoT_Agent_Tiny_SDK_Linux//lwm2m/core/liblwm2m.c ****     lwm2m_bootstrap_tag_IOT_server(contextP);  ////only iot server
 1265              		.loc 1 525 0
 1266 0000 E8000000 		call	lwm2m_bootstrap_tag_IOT_server
 1266      00
 1267              	.LVL156:
 526:/home/baikal/workspace/C50/Huawei_IoT_Agent_Tiny_SDK_Linux//lwm2m/core/liblwm2m.c **** 
 527:/home/baikal/workspace/C50/Huawei_IoT_Agent_Tiny_SDK_Linux//lwm2m/core/liblwm2m.c ****     ///no need write uri info, because have been stored in the instance for bootstrap server
 528:/home/baikal/workspace/C50/Huawei_IoT_Agent_Tiny_SDK_Linux//lwm2m/core/liblwm2m.c ****     return 0;
 529:/home/baikal/workspace/C50/Huawei_IoT_Agent_Tiny_SDK_Linux//lwm2m/core/liblwm2m.c **** }
 1268              		.loc 1 529 0
 1269 0005 B8000000 		movl	$0, %eax
 1269      00
 1270 000a C3       		ret
 1271              		.cfi_endproc
 1272              	.LFE82:
 1274              		.section	.text.lwm2m_bootstrap_process_reg_failed,"ax",@progbits
 1276              	lwm2m_bootstrap_process_reg_failed:
 1277              	.LFB83:
 530:/home/baikal/workspace/C50/Huawei_IoT_Agent_Tiny_SDK_Linux//lwm2m/core/liblwm2m.c **** 
GAS LISTING /tmp/ccQM4ohB.s 			page 39


 531:/home/baikal/workspace/C50/Huawei_IoT_Agent_Tiny_SDK_Linux//lwm2m/core/liblwm2m.c **** 
 532:/home/baikal/workspace/C50/Huawei_IoT_Agent_Tiny_SDK_Linux//lwm2m/core/liblwm2m.c **** /*
 533:/home/baikal/workspace/C50/Huawei_IoT_Agent_Tiny_SDK_Linux//lwm2m/core/liblwm2m.c ****  * author:       twx378188
 534:/home/baikal/workspace/C50/Huawei_IoT_Agent_Tiny_SDK_Linux//lwm2m/core/liblwm2m.c ****  * add date:     2018-06-04
 535:/home/baikal/workspace/C50/Huawei_IoT_Agent_Tiny_SDK_Linux//lwm2m/core/liblwm2m.c ****  * description:  only used in the situation: regist fail. when regist fail, we could regist again a
 536:/home/baikal/workspace/C50/Huawei_IoT_Agent_Tiny_SDK_Linux//lwm2m/core/liblwm2m.c ****  *               sequence mode, we could make some more, write new info and use bootstrap to get ne
 537:/home/baikal/workspace/C50/Huawei_IoT_Agent_Tiny_SDK_Linux//lwm2m/core/liblwm2m.c ****  * return:
 538:/home/baikal/workspace/C50/Huawei_IoT_Agent_Tiny_SDK_Linux//lwm2m/core/liblwm2m.c ****  *               success: 0
 539:/home/baikal/workspace/C50/Huawei_IoT_Agent_Tiny_SDK_Linux//lwm2m/core/liblwm2m.c ****  *               fail:    -1
 540:/home/baikal/workspace/C50/Huawei_IoT_Agent_Tiny_SDK_Linux//lwm2m/core/liblwm2m.c ****  * pay attention:
 541:/home/baikal/workspace/C50/Huawei_IoT_Agent_Tiny_SDK_Linux//lwm2m/core/liblwm2m.c ****  *              regist using old info a period, how long ?
 542:/home/baikal/workspace/C50/Huawei_IoT_Agent_Tiny_SDK_Linux//lwm2m/core/liblwm2m.c ****  *
 543:/home/baikal/workspace/C50/Huawei_IoT_Agent_Tiny_SDK_Linux//lwm2m/core/liblwm2m.c ****  *
 544:/home/baikal/workspace/C50/Huawei_IoT_Agent_Tiny_SDK_Linux//lwm2m/core/liblwm2m.c ****  */
 545:/home/baikal/workspace/C50/Huawei_IoT_Agent_Tiny_SDK_Linux//lwm2m/core/liblwm2m.c **** static void lwm2m_bootstrap_process_reg_failed(lwm2m_context_t *contextP)
 546:/home/baikal/workspace/C50/Huawei_IoT_Agent_Tiny_SDK_Linux//lwm2m/core/liblwm2m.c **** {
 1278              		.loc 1 546 0
 1279              		.cfi_startproc
 1280              	.LVL157:
 1281 0000 53       		pushq	%rbx
 1282              	.LCFI78:
 1283              		.cfi_def_cfa_offset 16
 1284              		.cfi_offset 3, -16
 1285 0001 4889FB   		movq	%rdi, %rbx
 1286              	.LVL158:
 547:/home/baikal/workspace/C50/Huawei_IoT_Agent_Tiny_SDK_Linux//lwm2m/core/liblwm2m.c ****     static time_t start_cnt;
 548:/home/baikal/workspace/C50/Huawei_IoT_Agent_Tiny_SDK_Linux//lwm2m/core/liblwm2m.c ****     static bool time_start = false;
 549:/home/baikal/workspace/C50/Huawei_IoT_Agent_Tiny_SDK_Linux//lwm2m/core/liblwm2m.c ****     bool to_register_entrance = false;
 550:/home/baikal/workspace/C50/Huawei_IoT_Agent_Tiny_SDK_Linux//lwm2m/core/liblwm2m.c ****     const int REGIST_INTERVAL_TIME = 100;
 551:/home/baikal/workspace/C50/Huawei_IoT_Agent_Tiny_SDK_Linux//lwm2m/core/liblwm2m.c ****     time_t end_cnt = lwm2m_gettime();
 1287              		.loc 1 551 0
 1288 0004 E8000000 		call	lwm2m_gettime
 1288      00
 1289              	.LVL159:
 552:/home/baikal/workspace/C50/Huawei_IoT_Agent_Tiny_SDK_Linux//lwm2m/core/liblwm2m.c **** 
 553:/home/baikal/workspace/C50/Huawei_IoT_Agent_Tiny_SDK_Linux//lwm2m/core/liblwm2m.c ****     if(NULL == contextP)
 1290              		.loc 1 553 0
 1291 0009 4885DB   		testq	%rbx, %rbx
 1292 000c 0F841201 		je	.L105
 1292      0000
 554:/home/baikal/workspace/C50/Huawei_IoT_Agent_Tiny_SDK_Linux//lwm2m/core/liblwm2m.c ****     {
 555:/home/baikal/workspace/C50/Huawei_IoT_Agent_Tiny_SDK_Linux//lwm2m/core/liblwm2m.c ****         LOG("[bootstrap_tag]: contextP is NULL, in bootstrap_dealwith_reg_failed");
 556:/home/baikal/workspace/C50/Huawei_IoT_Agent_Tiny_SDK_Linux//lwm2m/core/liblwm2m.c ****         return;
 557:/home/baikal/workspace/C50/Huawei_IoT_Agent_Tiny_SDK_Linux//lwm2m/core/liblwm2m.c ****     }
 558:/home/baikal/workspace/C50/Huawei_IoT_Agent_Tiny_SDK_Linux//lwm2m/core/liblwm2m.c **** 
 559:/home/baikal/workspace/C50/Huawei_IoT_Agent_Tiny_SDK_Linux//lwm2m/core/liblwm2m.c ****     if(contextP->bs_sequence_state == BS_SEQUENCE_STATE_FACTORY)
 1293              		.loc 1 559 0
 1294 0012 8B4304   		movl	4(%rbx), %eax
 1295 0015 83F801   		cmpl	$1, %eax
 1296 0018 7562     		jne	.L107
 560:/home/baikal/workspace/C50/Huawei_IoT_Agent_Tiny_SDK_Linux//lwm2m/core/liblwm2m.c ****     {
 561:/home/baikal/workspace/C50/Huawei_IoT_Agent_Tiny_SDK_Linux//lwm2m/core/liblwm2m.c ****         if(!time_start)
 1297              		.loc 1 561 0
 1298 001a 803D0000 		cmpb	$0, time_start.4949(%rip)
 1298      000000
 1299 0021 7513     		jne	.L108
 562:/home/baikal/workspace/C50/Huawei_IoT_Agent_Tiny_SDK_Linux//lwm2m/core/liblwm2m.c ****         {
GAS LISTING /tmp/ccQM4ohB.s 			page 40


 563:/home/baikal/workspace/C50/Huawei_IoT_Agent_Tiny_SDK_Linux//lwm2m/core/liblwm2m.c ****             time_start = true;
 1300              		.loc 1 563 0
 1301 0023 C6050000 		movb	$1, time_start.4949(%rip)
 1301      000001
 564:/home/baikal/workspace/C50/Huawei_IoT_Agent_Tiny_SDK_Linux//lwm2m/core/liblwm2m.c ****             start_cnt = lwm2m_gettime();
 1302              		.loc 1 564 0
 1303 002a E8000000 		call	lwm2m_gettime
 1303      00
 1304              	.LVL160:
 1305 002f 48890500 		movq	%rax, start_cnt.4948(%rip)
 1305      000000
 1306              	.L108:
 565:/home/baikal/workspace/C50/Huawei_IoT_Agent_Tiny_SDK_Linux//lwm2m/core/liblwm2m.c ****         }
 566:/home/baikal/workspace/C50/Huawei_IoT_Agent_Tiny_SDK_Linux//lwm2m/core/liblwm2m.c ****         end_cnt = lwm2m_gettime();
 1307              		.loc 1 566 0
 1308 0036 E8000000 		call	lwm2m_gettime
 1308      00
 1309              	.LVL161:
 567:/home/baikal/workspace/C50/Huawei_IoT_Agent_Tiny_SDK_Linux//lwm2m/core/liblwm2m.c **** 
 568:/home/baikal/workspace/C50/Huawei_IoT_Agent_Tiny_SDK_Linux//lwm2m/core/liblwm2m.c ****         //let's regist using old info for a period
 569:/home/baikal/workspace/C50/Huawei_IoT_Agent_Tiny_SDK_Linux//lwm2m/core/liblwm2m.c ****         if(end_cnt >= REGIST_INTERVAL_TIME + start_cnt)
 1310              		.loc 1 569 0
 1311 003b 488B0D00 		movq	start_cnt.4948(%rip), %rcx
 1311      000000
 1312 0042 488D5164 		leaq	100(%rcx), %rdx
 1313 0046 4839D0   		cmpq	%rdx, %rax
 1314 0049 0F8C9100 		jl	.L112
 1314      0000
 570:/home/baikal/workspace/C50/Huawei_IoT_Agent_Tiny_SDK_Linux//lwm2m/core/liblwm2m.c ****         {
 571:/home/baikal/workspace/C50/Huawei_IoT_Agent_Tiny_SDK_Linux//lwm2m/core/liblwm2m.c ****             time_start = false;
 1315              		.loc 1 571 0
 1316 004f C6050000 		movb	$0, time_start.4949(%rip)
 1316      000000
 572:/home/baikal/workspace/C50/Huawei_IoT_Agent_Tiny_SDK_Linux//lwm2m/core/liblwm2m.c ****             if(lwm2m_bootstrap_sequence_factory_to_server_initiated(contextP) == 0)
 1317              		.loc 1 572 0
 1318 0056 4889DF   		movq	%rbx, %rdi
 1319 0059 E8000000 		call	lwm2m_bootstrap_sequence_factory_to_server_initiated
 1319      00
 1320              	.LVL162:
 1321 005e 85C0     		testl	%eax, %eax
 1322 0060 0F858100 		jne	.L113
 1322      0000
 573:/home/baikal/workspace/C50/Huawei_IoT_Agent_Tiny_SDK_Linux//lwm2m/core/liblwm2m.c ****             {
 574:/home/baikal/workspace/C50/Huawei_IoT_Agent_Tiny_SDK_Linux//lwm2m/core/liblwm2m.c ****                 contextP->state = STATE_INITIAL;
 1323              		.loc 1 574 0
 1324 0066 C7030000 		movl	$0, (%rbx)
 1324      0000
 575:/home/baikal/workspace/C50/Huawei_IoT_Agent_Tiny_SDK_Linux//lwm2m/core/liblwm2m.c ****                 contextP->regist_first_flag = false;
 1325              		.loc 1 575 0
 1326 006c C6430800 		movb	$0, 8(%rbx)
 576:/home/baikal/workspace/C50/Huawei_IoT_Agent_Tiny_SDK_Linux//lwm2m/core/liblwm2m.c ****                 contextP->bs_sequence_state = BS_SEQUENCE_STATE_SERVER_INITIATED;
 1327              		.loc 1 576 0
 1328 0070 C7430402 		movl	$2, 4(%rbx)
 1328      000000
 1329 0077 E9850000 		jmp	.L109
 1329      00
 1330              	.L107:
GAS LISTING /tmp/ccQM4ohB.s 			page 41


 577:/home/baikal/workspace/C50/Huawei_IoT_Agent_Tiny_SDK_Linux//lwm2m/core/liblwm2m.c ****             }
 578:/home/baikal/workspace/C50/Huawei_IoT_Agent_Tiny_SDK_Linux//lwm2m/core/liblwm2m.c ****             else
 579:/home/baikal/workspace/C50/Huawei_IoT_Agent_Tiny_SDK_Linux//lwm2m/core/liblwm2m.c ****             {
 580:/home/baikal/workspace/C50/Huawei_IoT_Agent_Tiny_SDK_Linux//lwm2m/core/liblwm2m.c ****                 to_register_entrance = true;
 581:/home/baikal/workspace/C50/Huawei_IoT_Agent_Tiny_SDK_Linux//lwm2m/core/liblwm2m.c ****             }
 582:/home/baikal/workspace/C50/Huawei_IoT_Agent_Tiny_SDK_Linux//lwm2m/core/liblwm2m.c ****         }
 583:/home/baikal/workspace/C50/Huawei_IoT_Agent_Tiny_SDK_Linux//lwm2m/core/liblwm2m.c ****         else
 584:/home/baikal/workspace/C50/Huawei_IoT_Agent_Tiny_SDK_Linux//lwm2m/core/liblwm2m.c ****         {
 585:/home/baikal/workspace/C50/Huawei_IoT_Agent_Tiny_SDK_Linux//lwm2m/core/liblwm2m.c ****             to_register_entrance = true;
 586:/home/baikal/workspace/C50/Huawei_IoT_Agent_Tiny_SDK_Linux//lwm2m/core/liblwm2m.c ****         }
 587:/home/baikal/workspace/C50/Huawei_IoT_Agent_Tiny_SDK_Linux//lwm2m/core/liblwm2m.c **** 
 588:/home/baikal/workspace/C50/Huawei_IoT_Agent_Tiny_SDK_Linux//lwm2m/core/liblwm2m.c ****     }
 589:/home/baikal/workspace/C50/Huawei_IoT_Agent_Tiny_SDK_Linux//lwm2m/core/liblwm2m.c ****     else if(contextP->bs_sequence_state == BS_SEQUENCE_STATE_SERVER_INITIATED)
 1331              		.loc 1 589 0
 1332 007c 83F802   		cmpl	$2, %eax
 1333 007f 7550     		jne	.L110
 590:/home/baikal/workspace/C50/Huawei_IoT_Agent_Tiny_SDK_Linux//lwm2m/core/liblwm2m.c ****     {
 591:/home/baikal/workspace/C50/Huawei_IoT_Agent_Tiny_SDK_Linux//lwm2m/core/liblwm2m.c ****         if(!time_start)
 1334              		.loc 1 591 0
 1335 0081 803D0000 		cmpb	$0, time_start.4949(%rip)
 1335      000000
 1336 0088 7513     		jne	.L111
 592:/home/baikal/workspace/C50/Huawei_IoT_Agent_Tiny_SDK_Linux//lwm2m/core/liblwm2m.c ****         {
 593:/home/baikal/workspace/C50/Huawei_IoT_Agent_Tiny_SDK_Linux//lwm2m/core/liblwm2m.c ****             time_start = true;
 1337              		.loc 1 593 0
 1338 008a C6050000 		movb	$1, time_start.4949(%rip)
 1338      000001
 594:/home/baikal/workspace/C50/Huawei_IoT_Agent_Tiny_SDK_Linux//lwm2m/core/liblwm2m.c ****             start_cnt = lwm2m_gettime();
 1339              		.loc 1 594 0
 1340 0091 E8000000 		call	lwm2m_gettime
 1340      00
 1341              	.LVL163:
 1342 0096 48890500 		movq	%rax, start_cnt.4948(%rip)
 1342      000000
 1343              	.L111:
 595:/home/baikal/workspace/C50/Huawei_IoT_Agent_Tiny_SDK_Linux//lwm2m/core/liblwm2m.c ****         }
 596:/home/baikal/workspace/C50/Huawei_IoT_Agent_Tiny_SDK_Linux//lwm2m/core/liblwm2m.c **** 
 597:/home/baikal/workspace/C50/Huawei_IoT_Agent_Tiny_SDK_Linux//lwm2m/core/liblwm2m.c ****         end_cnt = lwm2m_gettime();
 1344              		.loc 1 597 0
 1345 009d E8000000 		call	lwm2m_gettime
 1345      00
 1346              	.LVL164:
 598:/home/baikal/workspace/C50/Huawei_IoT_Agent_Tiny_SDK_Linux//lwm2m/core/liblwm2m.c ****         if(end_cnt >= REGIST_INTERVAL_TIME + start_cnt)
 1347              		.loc 1 598 0
 1348 00a2 488B3500 		movq	start_cnt.4948(%rip), %rsi
 1348      000000
 1349 00a9 488D5664 		leaq	100(%rsi), %rdx
 1350 00ad 4839D0   		cmpq	%rdx, %rax
 1351 00b0 7C3C     		jl	.L114
 599:/home/baikal/workspace/C50/Huawei_IoT_Agent_Tiny_SDK_Linux//lwm2m/core/liblwm2m.c ****         {
 600:/home/baikal/workspace/C50/Huawei_IoT_Agent_Tiny_SDK_Linux//lwm2m/core/liblwm2m.c ****             if(lwm2m_bootstrap_sequence_server_to_client_initiated(contextP) == 0)
 1352              		.loc 1 600 0
 1353 00b2 4889DF   		movq	%rbx, %rdi
 1354 00b5 E8000000 		call	lwm2m_bootstrap_sequence_server_to_client_initiated
 1354      00
 1355              	.LVL165:
 1356 00ba 85C0     		testl	%eax, %eax
GAS LISTING /tmp/ccQM4ohB.s 			page 42


 1357 00bc 7537     		jne	.L115
 601:/home/baikal/workspace/C50/Huawei_IoT_Agent_Tiny_SDK_Linux//lwm2m/core/liblwm2m.c ****             {
 602:/home/baikal/workspace/C50/Huawei_IoT_Agent_Tiny_SDK_Linux//lwm2m/core/liblwm2m.c ****                 contextP->state = STATE_INITIAL;
 1358              		.loc 1 602 0
 1359 00be C7030000 		movl	$0, (%rbx)
 1359      0000
 603:/home/baikal/workspace/C50/Huawei_IoT_Agent_Tiny_SDK_Linux//lwm2m/core/liblwm2m.c ****                 contextP->regist_first_flag = false;
 1360              		.loc 1 603 0
 1361 00c4 C6430800 		movb	$0, 8(%rbx)
 604:/home/baikal/workspace/C50/Huawei_IoT_Agent_Tiny_SDK_Linux//lwm2m/core/liblwm2m.c ****                 contextP->bs_sequence_state = BS_SEQUENCE_STATE_CLIENT_INITIATED;
 1362              		.loc 1 604 0
 1363 00c8 C7430403 		movl	$3, 4(%rbx)
 1363      000000
 1364 00cf EB30     		jmp	.L109
 1365              	.L110:
 605:/home/baikal/workspace/C50/Huawei_IoT_Agent_Tiny_SDK_Linux//lwm2m/core/liblwm2m.c ****             }
 606:/home/baikal/workspace/C50/Huawei_IoT_Agent_Tiny_SDK_Linux//lwm2m/core/liblwm2m.c ****             else
 607:/home/baikal/workspace/C50/Huawei_IoT_Agent_Tiny_SDK_Linux//lwm2m/core/liblwm2m.c ****             {
 608:/home/baikal/workspace/C50/Huawei_IoT_Agent_Tiny_SDK_Linux//lwm2m/core/liblwm2m.c ****                 to_register_entrance = true;
 609:/home/baikal/workspace/C50/Huawei_IoT_Agent_Tiny_SDK_Linux//lwm2m/core/liblwm2m.c ****             }
 610:/home/baikal/workspace/C50/Huawei_IoT_Agent_Tiny_SDK_Linux//lwm2m/core/liblwm2m.c ****         }
 611:/home/baikal/workspace/C50/Huawei_IoT_Agent_Tiny_SDK_Linux//lwm2m/core/liblwm2m.c ****         else
 612:/home/baikal/workspace/C50/Huawei_IoT_Agent_Tiny_SDK_Linux//lwm2m/core/liblwm2m.c ****         {
 613:/home/baikal/workspace/C50/Huawei_IoT_Agent_Tiny_SDK_Linux//lwm2m/core/liblwm2m.c ****             to_register_entrance = true;
 614:/home/baikal/workspace/C50/Huawei_IoT_Agent_Tiny_SDK_Linux//lwm2m/core/liblwm2m.c ****         }
 615:/home/baikal/workspace/C50/Huawei_IoT_Agent_Tiny_SDK_Linux//lwm2m/core/liblwm2m.c ****     }
 616:/home/baikal/workspace/C50/Huawei_IoT_Agent_Tiny_SDK_Linux//lwm2m/core/liblwm2m.c ****     else if((contextP->bs_sequence_state == BS_SEQUENCE_STATE_CLIENT_INITIATED) || (contextP->bs_se
 1366              		.loc 1 616 0
 1367 00d1 83E803   		subl	$3, %eax
 1368 00d4 83F801   		cmpl	$1, %eax
 1369 00d7 7623     		jbe	.L116
 549:/home/baikal/workspace/C50/Huawei_IoT_Agent_Tiny_SDK_Linux//lwm2m/core/liblwm2m.c ****     const int REGIST_INTERVAL_TIME = 100;
 1370              		.loc 1 549 0
 1371 00d9 B8000000 		movl	$0, %eax
 1371      00
 1372 00de EB21     		jmp	.L109
 1373              	.LVL166:
 1374              	.L112:
 585:/home/baikal/workspace/C50/Huawei_IoT_Agent_Tiny_SDK_Linux//lwm2m/core/liblwm2m.c ****         }
 1375              		.loc 1 585 0
 1376 00e0 B8010000 		movl	$1, %eax
 1376      00
 1377              	.LVL167:
 1378 00e5 EB1A     		jmp	.L109
 1379              	.L113:
 580:/home/baikal/workspace/C50/Huawei_IoT_Agent_Tiny_SDK_Linux//lwm2m/core/liblwm2m.c ****             }
 1380              		.loc 1 580 0
 1381 00e7 B8010000 		movl	$1, %eax
 1381      00
 1382 00ec EB13     		jmp	.L109
 1383              	.LVL168:
 1384              	.L114:
 613:/home/baikal/workspace/C50/Huawei_IoT_Agent_Tiny_SDK_Linux//lwm2m/core/liblwm2m.c ****         }
 1385              		.loc 1 613 0
 1386 00ee B8010000 		movl	$1, %eax
 1386      00
 1387              	.LVL169:
GAS LISTING /tmp/ccQM4ohB.s 			page 43


 1388 00f3 EB0C     		jmp	.L109
 1389              	.L115:
 608:/home/baikal/workspace/C50/Huawei_IoT_Agent_Tiny_SDK_Linux//lwm2m/core/liblwm2m.c ****             }
 1390              		.loc 1 608 0
 1391 00f5 B8010000 		movl	$1, %eax
 1391      00
 1392 00fa EB05     		jmp	.L109
 1393              	.L116:
 617:/home/baikal/workspace/C50/Huawei_IoT_Agent_Tiny_SDK_Linux//lwm2m/core/liblwm2m.c ****     {
 618:/home/baikal/workspace/C50/Huawei_IoT_Agent_Tiny_SDK_Linux//lwm2m/core/liblwm2m.c ****         to_register_entrance = true;
 1394              		.loc 1 618 0
 1395 00fc B8010000 		movl	$1, %eax
 1395      00
 1396              	.L109:
 1397              	.LVL170:
 619:/home/baikal/workspace/C50/Huawei_IoT_Agent_Tiny_SDK_Linux//lwm2m/core/liblwm2m.c ****     }
 620:/home/baikal/workspace/C50/Huawei_IoT_Agent_Tiny_SDK_Linux//lwm2m/core/liblwm2m.c **** 
 621:/home/baikal/workspace/C50/Huawei_IoT_Agent_Tiny_SDK_Linux//lwm2m/core/liblwm2m.c **** 
 622:/home/baikal/workspace/C50/Huawei_IoT_Agent_Tiny_SDK_Linux//lwm2m/core/liblwm2m.c ****     if(to_register_entrance)
 1398              		.loc 1 622 0
 1399 0101 84C0     		testb	%al, %al
 1400 0103 741F     		je	.L105
 623:/home/baikal/workspace/C50/Huawei_IoT_Agent_Tiny_SDK_Linux//lwm2m/core/liblwm2m.c ****     {
 624:/home/baikal/workspace/C50/Huawei_IoT_Agent_Tiny_SDK_Linux//lwm2m/core/liblwm2m.c ****         contextP->state = STATE_REGISTER_REQUIRED;  //no other method to try registe, only again an
 1401              		.loc 1 624 0
 1402 0105 C7030300 		movl	$3, (%rbx)
 1402      0000
 625:/home/baikal/workspace/C50/Huawei_IoT_Agent_Tiny_SDK_Linux//lwm2m/core/liblwm2m.c ****         lwm2m_notify_even(MODULE_LWM2M, STATE_REG_FAILED, NULL, 0);
 1403              		.loc 1 625 0
 1404 010b B9000000 		movl	$0, %ecx
 1404      00
 1405 0110 BA000000 		movl	$0, %edx
 1405      00
 1406 0115 BE030000 		movl	$3, %esi
 1406      00
 1407 011a BF000000 		movl	$0, %edi
 1407      00
 1408 011f E8000000 		call	lwm2m_notify_even
 1408      00
 1409              	.LVL171:
 1410              	.L105:
 626:/home/baikal/workspace/C50/Huawei_IoT_Agent_Tiny_SDK_Linux//lwm2m/core/liblwm2m.c ****     }
 627:/home/baikal/workspace/C50/Huawei_IoT_Agent_Tiny_SDK_Linux//lwm2m/core/liblwm2m.c **** }
 1411              		.loc 1 627 0
 1412 0124 5B       		popq	%rbx
 1413              	.LCFI79:
 1414              		.cfi_def_cfa_offset 8
 1415              	.LVL172:
 1416 0125 C3       		ret
 1417              		.cfi_endproc
 1418              	.LFE83:
 1420              		.section	.text.lwm2m_step,"ax",@progbits
 1421              		.globl	lwm2m_step
 1423              	lwm2m_step:
 1424              	.LFB84:
 628:/home/baikal/workspace/C50/Huawei_IoT_Agent_Tiny_SDK_Linux//lwm2m/core/liblwm2m.c **** 
 629:/home/baikal/workspace/C50/Huawei_IoT_Agent_Tiny_SDK_Linux//lwm2m/core/liblwm2m.c **** 
GAS LISTING /tmp/ccQM4ohB.s 			page 44


 630:/home/baikal/workspace/C50/Huawei_IoT_Agent_Tiny_SDK_Linux//lwm2m/core/liblwm2m.c **** int lwm2m_step(lwm2m_context_t *contextP,
 631:/home/baikal/workspace/C50/Huawei_IoT_Agent_Tiny_SDK_Linux//lwm2m/core/liblwm2m.c ****                time_t *timeoutP)
 632:/home/baikal/workspace/C50/Huawei_IoT_Agent_Tiny_SDK_Linux//lwm2m/core/liblwm2m.c **** {
 1425              		.loc 1 632 0
 1426              		.cfi_startproc
 1427              	.LVL173:
 1428 0000 4154     		pushq	%r12
 1429              	.LCFI80:
 1430              		.cfi_def_cfa_offset 16
 1431              		.cfi_offset 12, -16
 1432 0002 55       		pushq	%rbp
 1433              	.LCFI81:
 1434              		.cfi_def_cfa_offset 24
 1435              		.cfi_offset 6, -24
 1436 0003 53       		pushq	%rbx
 1437              	.LCFI82:
 1438              		.cfi_def_cfa_offset 32
 1439              		.cfi_offset 3, -32
 1440 0004 4889FB   		movq	%rdi, %rbx
 1441 0007 4989F4   		movq	%rsi, %r12
 633:/home/baikal/workspace/C50/Huawei_IoT_Agent_Tiny_SDK_Linux//lwm2m/core/liblwm2m.c ****     time_t tv_sec;
 634:/home/baikal/workspace/C50/Huawei_IoT_Agent_Tiny_SDK_Linux//lwm2m/core/liblwm2m.c ****     int result;
 635:/home/baikal/workspace/C50/Huawei_IoT_Agent_Tiny_SDK_Linux//lwm2m/core/liblwm2m.c **** 
 636:/home/baikal/workspace/C50/Huawei_IoT_Agent_Tiny_SDK_Linux//lwm2m/core/liblwm2m.c ****     LOG_ARG("timeoutP: %" PRId64, *timeoutP);
 637:/home/baikal/workspace/C50/Huawei_IoT_Agent_Tiny_SDK_Linux//lwm2m/core/liblwm2m.c ****     tv_sec = lwm2m_gettime();
 1442              		.loc 1 637 0
 1443 000a E8000000 		call	lwm2m_gettime
 1443      00
 1444              	.LVL174:
 1445 000f 4889C5   		movq	%rax, %rbp
 1446              	.LVL175:
 1447              	.L119:
 638:/home/baikal/workspace/C50/Huawei_IoT_Agent_Tiny_SDK_Linux//lwm2m/core/liblwm2m.c ****     //if (tv_sec < 0) return COAP_500_INTERNAL_SERVER_ERROR;
 639:/home/baikal/workspace/C50/Huawei_IoT_Agent_Tiny_SDK_Linux//lwm2m/core/liblwm2m.c **** 
 640:/home/baikal/workspace/C50/Huawei_IoT_Agent_Tiny_SDK_Linux//lwm2m/core/liblwm2m.c **** #ifdef LWM2M_CLIENT_MODE
 641:/home/baikal/workspace/C50/Huawei_IoT_Agent_Tiny_SDK_Linux//lwm2m/core/liblwm2m.c ****     LOG_ARG("State: %s", STR_STATE(contextP->state));
 642:/home/baikal/workspace/C50/Huawei_IoT_Agent_Tiny_SDK_Linux//lwm2m/core/liblwm2m.c ****     // state can also be modified in bootstrap_handleCommand().
 643:/home/baikal/workspace/C50/Huawei_IoT_Agent_Tiny_SDK_Linux//lwm2m/core/liblwm2m.c **** 
 644:/home/baikal/workspace/C50/Huawei_IoT_Agent_Tiny_SDK_Linux//lwm2m/core/liblwm2m.c **** next_step:
 645:/home/baikal/workspace/C50/Huawei_IoT_Agent_Tiny_SDK_Linux//lwm2m/core/liblwm2m.c ****     switch (contextP->state)
 1448              		.loc 1 645 0
 1449 0012 8B03     		movl	(%rbx), %eax
 1450 0014 83F805   		cmpl	$5, %eax
 1451 0017 0F871D01 		ja	.L121
 1451      0000
 1452 001d 89C0     		movl	%eax, %eax
 1453 001f FF24C500 		jmp	*.L123(,%rax,8)
 1453      000000
 1454              		.section	.rodata.lwm2m_step,"a",@progbits
 1455              		.align 8
 1456              		.align 4
 1457              	.L123:
 1458 0000 00000000 		.quad	.L122
 1458      00000000 
 1459 0008 00000000 		.quad	.L124
 1459      00000000 
 1460 0010 00000000 		.quad	.L125
GAS LISTING /tmp/ccQM4ohB.s 			page 45


 1460      00000000 
 1461 0018 00000000 		.quad	.L126
 1461      00000000 
 1462 0020 00000000 		.quad	.L127
 1462      00000000 
 1463 0028 00000000 		.quad	.L128
 1463      00000000 
 1464              		.section	.text.lwm2m_step
 1465              	.L122:
 646:/home/baikal/workspace/C50/Huawei_IoT_Agent_Tiny_SDK_Linux//lwm2m/core/liblwm2m.c ****     {
 647:/home/baikal/workspace/C50/Huawei_IoT_Agent_Tiny_SDK_Linux//lwm2m/core/liblwm2m.c ****     case STATE_INITIAL:
 648:/home/baikal/workspace/C50/Huawei_IoT_Agent_Tiny_SDK_Linux//lwm2m/core/liblwm2m.c ****         if (0 != prv_refreshServerList(contextP))
 1466              		.loc 1 648 0
 1467 0026 4889DF   		movq	%rbx, %rdi
 1468 0029 E8000000 		call	prv_refreshServerList
 1468      00
 1469              	.LVL176:
 1470 002e 85C0     		testl	%eax, %eax
 1471 0030 0F853501 		jne	.L137
 1471      0000
 649:/home/baikal/workspace/C50/Huawei_IoT_Agent_Tiny_SDK_Linux//lwm2m/core/liblwm2m.c ****         {
 650:/home/baikal/workspace/C50/Huawei_IoT_Agent_Tiny_SDK_Linux//lwm2m/core/liblwm2m.c ****             LOG("prv_refreshServerList fail");
 651:/home/baikal/workspace/C50/Huawei_IoT_Agent_Tiny_SDK_Linux//lwm2m/core/liblwm2m.c ****             return COAP_503_SERVICE_UNAVAILABLE;
 652:/home/baikal/workspace/C50/Huawei_IoT_Agent_Tiny_SDK_Linux//lwm2m/core/liblwm2m.c ****         }
 653:/home/baikal/workspace/C50/Huawei_IoT_Agent_Tiny_SDK_Linux//lwm2m/core/liblwm2m.c **** 
 654:/home/baikal/workspace/C50/Huawei_IoT_Agent_Tiny_SDK_Linux//lwm2m/core/liblwm2m.c ****         if (contextP->serverList != NULL)
 1472              		.loc 1 654 0
 1473 0036 48837B30 		cmpq	$0, 48(%rbx)
 1473      00
 1474 003b 7416     		je	.L130
 655:/home/baikal/workspace/C50/Huawei_IoT_Agent_Tiny_SDK_Linux//lwm2m/core/liblwm2m.c ****         {
 656:/home/baikal/workspace/C50/Huawei_IoT_Agent_Tiny_SDK_Linux//lwm2m/core/liblwm2m.c ****             if(contextP->regist_first_flag)
 1475              		.loc 1 656 0
 1476 003d 807B0800 		cmpb	$0, 8(%rbx)
 1477 0041 7408     		je	.L131
 657:/home/baikal/workspace/C50/Huawei_IoT_Agent_Tiny_SDK_Linux//lwm2m/core/liblwm2m.c ****             {
 658:/home/baikal/workspace/C50/Huawei_IoT_Agent_Tiny_SDK_Linux//lwm2m/core/liblwm2m.c ****                 contextP->state = STATE_REGISTER_REQUIRED;
 1478              		.loc 1 658 0
 1479 0043 C7030300 		movl	$3, (%rbx)
 1479      0000
 1480 0049 EBC7     		jmp	.L119
 1481              	.L131:
 659:/home/baikal/workspace/C50/Huawei_IoT_Agent_Tiny_SDK_Linux//lwm2m/core/liblwm2m.c ****             }
 660:/home/baikal/workspace/C50/Huawei_IoT_Agent_Tiny_SDK_Linux//lwm2m/core/liblwm2m.c ****             else
 661:/home/baikal/workspace/C50/Huawei_IoT_Agent_Tiny_SDK_Linux//lwm2m/core/liblwm2m.c ****             {
 662:/home/baikal/workspace/C50/Huawei_IoT_Agent_Tiny_SDK_Linux//lwm2m/core/liblwm2m.c ****                 contextP->state = STATE_BOOTSTRAP_REQUIRED;
 1482              		.loc 1 662 0
 1483 004b C7030100 		movl	$1, (%rbx)
 1483      0000
 1484 0051 EBBF     		jmp	.L119
 1485              	.L130:
 663:/home/baikal/workspace/C50/Huawei_IoT_Agent_Tiny_SDK_Linux//lwm2m/core/liblwm2m.c ****             }
 664:/home/baikal/workspace/C50/Huawei_IoT_Agent_Tiny_SDK_Linux//lwm2m/core/liblwm2m.c ****         }
 665:/home/baikal/workspace/C50/Huawei_IoT_Agent_Tiny_SDK_Linux//lwm2m/core/liblwm2m.c ****         else
 666:/home/baikal/workspace/C50/Huawei_IoT_Agent_Tiny_SDK_Linux//lwm2m/core/liblwm2m.c ****         {
 667:/home/baikal/workspace/C50/Huawei_IoT_Agent_Tiny_SDK_Linux//lwm2m/core/liblwm2m.c ****             // Bootstrapping
 668:/home/baikal/workspace/C50/Huawei_IoT_Agent_Tiny_SDK_Linux//lwm2m/core/liblwm2m.c ****             contextP->state = STATE_BOOTSTRAP_REQUIRED;
GAS LISTING /tmp/ccQM4ohB.s 			page 46


 1486              		.loc 1 668 0
 1487 0053 C7030100 		movl	$1, (%rbx)
 1487      0000
 1488 0059 EBB7     		jmp	.L119
 1489              	.L124:
 669:/home/baikal/workspace/C50/Huawei_IoT_Agent_Tiny_SDK_Linux//lwm2m/core/liblwm2m.c ****         }
 670:/home/baikal/workspace/C50/Huawei_IoT_Agent_Tiny_SDK_Linux//lwm2m/core/liblwm2m.c ****         goto next_step;
 671:/home/baikal/workspace/C50/Huawei_IoT_Agent_Tiny_SDK_Linux//lwm2m/core/liblwm2m.c ****     //break;
 672:/home/baikal/workspace/C50/Huawei_IoT_Agent_Tiny_SDK_Linux//lwm2m/core/liblwm2m.c **** 
 673:/home/baikal/workspace/C50/Huawei_IoT_Agent_Tiny_SDK_Linux//lwm2m/core/liblwm2m.c ****     case STATE_BOOTSTRAP_REQUIRED:
 674:/home/baikal/workspace/C50/Huawei_IoT_Agent_Tiny_SDK_Linux//lwm2m/core/liblwm2m.c **** #ifdef LWM2M_BOOTSTRAP
 675:/home/baikal/workspace/C50/Huawei_IoT_Agent_Tiny_SDK_Linux//lwm2m/core/liblwm2m.c ****         if (contextP->bootstrapServerList != NULL)
 1490              		.loc 1 675 0
 1491 005b 48837B28 		cmpq	$0, 40(%rbx)
 1491      00
 1492 0060 0F840C01 		je	.L138
 1492      0000
 676:/home/baikal/workspace/C50/Huawei_IoT_Agent_Tiny_SDK_Linux//lwm2m/core/liblwm2m.c ****         {
 677:/home/baikal/workspace/C50/Huawei_IoT_Agent_Tiny_SDK_Linux//lwm2m/core/liblwm2m.c ****             bootstrap_start(contextP);
 1493              		.loc 1 677 0
 1494 0066 4889DF   		movq	%rbx, %rdi
 1495 0069 E8000000 		call	bootstrap_start
 1495      00
 1496              	.LVL177:
 678:/home/baikal/workspace/C50/Huawei_IoT_Agent_Tiny_SDK_Linux//lwm2m/core/liblwm2m.c ****             contextP->state = STATE_BOOTSTRAPPING;
 1497              		.loc 1 678 0
 1498 006e C7030200 		movl	$2, (%rbx)
 1498      0000
 679:/home/baikal/workspace/C50/Huawei_IoT_Agent_Tiny_SDK_Linux//lwm2m/core/liblwm2m.c ****             bootstrap_step(contextP, tv_sec, timeoutP);
 1499              		.loc 1 679 0
 1500 0074 4C89E2   		movq	%r12, %rdx
 1501 0077 89EE     		movl	%ebp, %esi
 1502 0079 4889DF   		movq	%rbx, %rdi
 1503 007c E8000000 		call	bootstrap_step
 1503      00
 1504              	.LVL178:
 680:/home/baikal/workspace/C50/Huawei_IoT_Agent_Tiny_SDK_Linux//lwm2m/core/liblwm2m.c ****             break;
 1505              		.loc 1 680 0
 1506 0081 E9B40000 		jmp	.L121
 1506      00
 1507              	.L125:
 681:/home/baikal/workspace/C50/Huawei_IoT_Agent_Tiny_SDK_Linux//lwm2m/core/liblwm2m.c ****         }
 682:/home/baikal/workspace/C50/Huawei_IoT_Agent_Tiny_SDK_Linux//lwm2m/core/liblwm2m.c ****         else
 683:/home/baikal/workspace/C50/Huawei_IoT_Agent_Tiny_SDK_Linux//lwm2m/core/liblwm2m.c **** #endif
 684:/home/baikal/workspace/C50/Huawei_IoT_Agent_Tiny_SDK_Linux//lwm2m/core/liblwm2m.c ****         {
 685:/home/baikal/workspace/C50/Huawei_IoT_Agent_Tiny_SDK_Linux//lwm2m/core/liblwm2m.c ****             return COAP_503_SERVICE_UNAVAILABLE;
 686:/home/baikal/workspace/C50/Huawei_IoT_Agent_Tiny_SDK_Linux//lwm2m/core/liblwm2m.c ****         }
 687:/home/baikal/workspace/C50/Huawei_IoT_Agent_Tiny_SDK_Linux//lwm2m/core/liblwm2m.c **** 
 688:/home/baikal/workspace/C50/Huawei_IoT_Agent_Tiny_SDK_Linux//lwm2m/core/liblwm2m.c **** #ifdef LWM2M_BOOTSTRAP
 689:/home/baikal/workspace/C50/Huawei_IoT_Agent_Tiny_SDK_Linux//lwm2m/core/liblwm2m.c ****     case STATE_BOOTSTRAPPING:
 690:/home/baikal/workspace/C50/Huawei_IoT_Agent_Tiny_SDK_Linux//lwm2m/core/liblwm2m.c ****         switch (bootstrap_getStatus(contextP))
 1508              		.loc 1 690 0
 1509 0086 4889DF   		movq	%rbx, %rdi
 1510 0089 E8000000 		call	bootstrap_getStatus
 1510      00
 1511              	.LVL179:
 1512 008e 83F80C   		cmpl	$12, %eax
GAS LISTING /tmp/ccQM4ohB.s 			page 47


 1513 0091 740B     		je	.L133
 1514 0093 83F80E   		cmpl	$14, %eax
 1515 0096 0F84DD00 		je	.L139
 1515      0000
 1516 009c EB0F     		jmp	.L141
 1517              	.L133:
 691:/home/baikal/workspace/C50/Huawei_IoT_Agent_Tiny_SDK_Linux//lwm2m/core/liblwm2m.c ****         {
 692:/home/baikal/workspace/C50/Huawei_IoT_Agent_Tiny_SDK_Linux//lwm2m/core/liblwm2m.c ****         case STATE_BS_FINISHED:
 693:/home/baikal/workspace/C50/Huawei_IoT_Agent_Tiny_SDK_Linux//lwm2m/core/liblwm2m.c ****             contextP->state = STATE_INITIAL;
 1518              		.loc 1 693 0
 1519 009e C7030000 		movl	$0, (%rbx)
 1519      0000
 694:/home/baikal/workspace/C50/Huawei_IoT_Agent_Tiny_SDK_Linux//lwm2m/core/liblwm2m.c ****             contextP->regist_first_flag = true;
 1520              		.loc 1 694 0
 1521 00a4 C6430801 		movb	$1, 8(%rbx)
 695:/home/baikal/workspace/C50/Huawei_IoT_Agent_Tiny_SDK_Linux//lwm2m/core/liblwm2m.c ****             goto next_step;
 1522              		.loc 1 695 0
 1523 00a8 E965FFFF 		jmp	.L119
 1523      FF
 1524              	.L141:
 696:/home/baikal/workspace/C50/Huawei_IoT_Agent_Tiny_SDK_Linux//lwm2m/core/liblwm2m.c ****             break;
 697:/home/baikal/workspace/C50/Huawei_IoT_Agent_Tiny_SDK_Linux//lwm2m/core/liblwm2m.c **** 
 698:/home/baikal/workspace/C50/Huawei_IoT_Agent_Tiny_SDK_Linux//lwm2m/core/liblwm2m.c ****         case STATE_BS_FAILED:
 699:/home/baikal/workspace/C50/Huawei_IoT_Agent_Tiny_SDK_Linux//lwm2m/core/liblwm2m.c ****             return COAP_503_SERVICE_UNAVAILABLE;
 700:/home/baikal/workspace/C50/Huawei_IoT_Agent_Tiny_SDK_Linux//lwm2m/core/liblwm2m.c **** 
 701:/home/baikal/workspace/C50/Huawei_IoT_Agent_Tiny_SDK_Linux//lwm2m/core/liblwm2m.c ****         default:
 702:/home/baikal/workspace/C50/Huawei_IoT_Agent_Tiny_SDK_Linux//lwm2m/core/liblwm2m.c ****             // keep on waiting
 703:/home/baikal/workspace/C50/Huawei_IoT_Agent_Tiny_SDK_Linux//lwm2m/core/liblwm2m.c ****             bootstrap_step(contextP, tv_sec, timeoutP);
 1525              		.loc 1 703 0
 1526 00ad 4C89E2   		movq	%r12, %rdx
 1527 00b0 89EE     		movl	%ebp, %esi
 1528 00b2 4889DF   		movq	%rbx, %rdi
 1529 00b5 E8000000 		call	bootstrap_step
 1529      00
 1530              	.LVL180:
 704:/home/baikal/workspace/C50/Huawei_IoT_Agent_Tiny_SDK_Linux//lwm2m/core/liblwm2m.c ****             break;
 705:/home/baikal/workspace/C50/Huawei_IoT_Agent_Tiny_SDK_Linux//lwm2m/core/liblwm2m.c ****         }
 706:/home/baikal/workspace/C50/Huawei_IoT_Agent_Tiny_SDK_Linux//lwm2m/core/liblwm2m.c ****         break;
 1531              		.loc 1 706 0
 1532 00ba EB7E     		jmp	.L121
 1533              	.L126:
 707:/home/baikal/workspace/C50/Huawei_IoT_Agent_Tiny_SDK_Linux//lwm2m/core/liblwm2m.c **** #endif
 708:/home/baikal/workspace/C50/Huawei_IoT_Agent_Tiny_SDK_Linux//lwm2m/core/liblwm2m.c ****     case STATE_REGISTER_REQUIRED:
 709:/home/baikal/workspace/C50/Huawei_IoT_Agent_Tiny_SDK_Linux//lwm2m/core/liblwm2m.c ****         result = registration_start(contextP);
 1534              		.loc 1 709 0
 1535 00bc 4889DF   		movq	%rbx, %rdi
 1536 00bf E8000000 		call	registration_start
 1536      00
 1537              	.LVL181:
 1538 00c4 0FB6C0   		movzbl	%al, %eax
 1539              	.LVL182:
 710:/home/baikal/workspace/C50/Huawei_IoT_Agent_Tiny_SDK_Linux//lwm2m/core/liblwm2m.c ****         LOG_ARG("[bootstrap_tag]: ---the return value result = %d of registration_start-----", resu
 711:/home/baikal/workspace/C50/Huawei_IoT_Agent_Tiny_SDK_Linux//lwm2m/core/liblwm2m.c ****         if (COAP_NO_ERROR != result)
 1540              		.loc 1 711 0
 1541 00c7 85C0     		testl	%eax, %eax
 1542 00c9 7410     		je	.L134
 712:/home/baikal/workspace/C50/Huawei_IoT_Agent_Tiny_SDK_Linux//lwm2m/core/liblwm2m.c ****         {
GAS LISTING /tmp/ccQM4ohB.s 			page 48


 713:/home/baikal/workspace/C50/Huawei_IoT_Agent_Tiny_SDK_Linux//lwm2m/core/liblwm2m.c ****             if(contextP->bs_sequence_state == BS_SEQUENCE_STATE_FACTORY)
 1543              		.loc 1 713 0
 1544 00cb 837B0401 		cmpl	$1, 4(%rbx)
 1545 00cf 0F85A900 		jne	.L129
 1545      0000
 714:/home/baikal/workspace/C50/Huawei_IoT_Agent_Tiny_SDK_Linux//lwm2m/core/liblwm2m.c ****             {
 715:/home/baikal/workspace/C50/Huawei_IoT_Agent_Tiny_SDK_Linux//lwm2m/core/liblwm2m.c ****                 //for the bs sequence mode, and in the state BS_SEQUENCE_STATE_FACTORY, even if fai
 716:/home/baikal/workspace/C50/Huawei_IoT_Agent_Tiny_SDK_Linux//lwm2m/core/liblwm2m.c ****                 //to get regist info from bs server. so not return. after get into registration_get
 717:/home/baikal/workspace/C50/Huawei_IoT_Agent_Tiny_SDK_Linux//lwm2m/core/liblwm2m.c ****                 //reg fail---because all server's are not in good state.
 718:/home/baikal/workspace/C50/Huawei_IoT_Agent_Tiny_SDK_Linux//lwm2m/core/liblwm2m.c ****                 contextP->state = STATE_REGISTERING;
 1546              		.loc 1 718 0
 1547 00d5 C7030400 		movl	$4, (%rbx)
 1547      0000
 1548              	.L134:
 719:/home/baikal/workspace/C50/Huawei_IoT_Agent_Tiny_SDK_Linux//lwm2m/core/liblwm2m.c ****             }
 720:/home/baikal/workspace/C50/Huawei_IoT_Agent_Tiny_SDK_Linux//lwm2m/core/liblwm2m.c ****             else
 721:/home/baikal/workspace/C50/Huawei_IoT_Agent_Tiny_SDK_Linux//lwm2m/core/liblwm2m.c ****             {
 722:/home/baikal/workspace/C50/Huawei_IoT_Agent_Tiny_SDK_Linux//lwm2m/core/liblwm2m.c ****                 return result;
 723:/home/baikal/workspace/C50/Huawei_IoT_Agent_Tiny_SDK_Linux//lwm2m/core/liblwm2m.c ****             }
 724:/home/baikal/workspace/C50/Huawei_IoT_Agent_Tiny_SDK_Linux//lwm2m/core/liblwm2m.c ****         }
 725:/home/baikal/workspace/C50/Huawei_IoT_Agent_Tiny_SDK_Linux//lwm2m/core/liblwm2m.c ****         contextP->state = STATE_REGISTERING;
 1549              		.loc 1 725 0
 1550 00db C7030400 		movl	$4, (%rbx)
 1550      0000
 726:/home/baikal/workspace/C50/Huawei_IoT_Agent_Tiny_SDK_Linux//lwm2m/core/liblwm2m.c ****         break;
 1551              		.loc 1 726 0
 1552 00e1 EB57     		jmp	.L121
 1553              	.LVL183:
 1554              	.L127:
 727:/home/baikal/workspace/C50/Huawei_IoT_Agent_Tiny_SDK_Linux//lwm2m/core/liblwm2m.c **** 
 728:/home/baikal/workspace/C50/Huawei_IoT_Agent_Tiny_SDK_Linux//lwm2m/core/liblwm2m.c ****     case STATE_REGISTERING:
 729:/home/baikal/workspace/C50/Huawei_IoT_Agent_Tiny_SDK_Linux//lwm2m/core/liblwm2m.c ****     {
 730:/home/baikal/workspace/C50/Huawei_IoT_Agent_Tiny_SDK_Linux//lwm2m/core/liblwm2m.c ****         switch (registration_getStatus(contextP))
 1555              		.loc 1 730 0
 1556 00e3 4889DF   		movq	%rbx, %rdi
 1557 00e6 E8000000 		call	registration_getStatus
 1557      00
 1558              	.LVL184:
 1559 00eb 83F802   		cmpl	$2, %eax
 1560 00ee 7407     		je	.L135
 1561 00f0 83F803   		cmpl	$3, %eax
 1562 00f3 7423     		je	.L136
 1563 00f5 EB43     		jmp	.L121
 1564              	.L135:
 731:/home/baikal/workspace/C50/Huawei_IoT_Agent_Tiny_SDK_Linux//lwm2m/core/liblwm2m.c ****         {
 732:/home/baikal/workspace/C50/Huawei_IoT_Agent_Tiny_SDK_Linux//lwm2m/core/liblwm2m.c ****         case STATE_REGISTERED:
 733:/home/baikal/workspace/C50/Huawei_IoT_Agent_Tiny_SDK_Linux//lwm2m/core/liblwm2m.c ****             contextP->state = STATE_READY;
 1565              		.loc 1 733 0
 1566 00f7 C7030500 		movl	$5, (%rbx)
 1566      0000
 734:/home/baikal/workspace/C50/Huawei_IoT_Agent_Tiny_SDK_Linux//lwm2m/core/liblwm2m.c ****             lwm2m_notify_even(MODULE_LWM2M, STATE_REGISTERED, NULL, 0);
 1567              		.loc 1 734 0
 1568 00fd B9000000 		movl	$0, %ecx
 1568      00
 1569 0102 BA000000 		movl	$0, %edx
 1569      00
 1570 0107 BE020000 		movl	$2, %esi
GAS LISTING /tmp/ccQM4ohB.s 			page 49


 1570      00
 1571 010c BF000000 		movl	$0, %edi
 1571      00
 1572 0111 E8000000 		call	lwm2m_notify_even
 1572      00
 1573              	.LVL185:
 735:/home/baikal/workspace/C50/Huawei_IoT_Agent_Tiny_SDK_Linux//lwm2m/core/liblwm2m.c ****             break;
 1574              		.loc 1 735 0
 1575 0116 EB22     		jmp	.L121
 1576              	.L136:
 736:/home/baikal/workspace/C50/Huawei_IoT_Agent_Tiny_SDK_Linux//lwm2m/core/liblwm2m.c **** 
 737:/home/baikal/workspace/C50/Huawei_IoT_Agent_Tiny_SDK_Linux//lwm2m/core/liblwm2m.c ****         case STATE_REG_FAILED:
 738:/home/baikal/workspace/C50/Huawei_IoT_Agent_Tiny_SDK_Linux//lwm2m/core/liblwm2m.c ****             // TODO avoid infinite loop by checking the bootstrap info is different
 739:/home/baikal/workspace/C50/Huawei_IoT_Agent_Tiny_SDK_Linux//lwm2m/core/liblwm2m.c ****             //contextP->state = STATE_BOOTSTRAP_REQUIRED;
 740:/home/baikal/workspace/C50/Huawei_IoT_Agent_Tiny_SDK_Linux//lwm2m/core/liblwm2m.c **** 
 741:/home/baikal/workspace/C50/Huawei_IoT_Agent_Tiny_SDK_Linux//lwm2m/core/liblwm2m.c ****             //if regist fail, we may regist again or use other method to try  according the init pa
 742:/home/baikal/workspace/C50/Huawei_IoT_Agent_Tiny_SDK_Linux//lwm2m/core/liblwm2m.c ****             lwm2m_bootstrap_process_reg_failed(contextP);
 1577              		.loc 1 742 0
 1578 0118 4889DF   		movq	%rbx, %rdi
 1579 011b E8000000 		call	lwm2m_bootstrap_process_reg_failed
 1579      00
 1580              	.LVL186:
 743:/home/baikal/workspace/C50/Huawei_IoT_Agent_Tiny_SDK_Linux//lwm2m/core/liblwm2m.c **** 
 744:/home/baikal/workspace/C50/Huawei_IoT_Agent_Tiny_SDK_Linux//lwm2m/core/liblwm2m.c ****             //contextP->state = STATE_REGISTER_REQUIRED;
 745:/home/baikal/workspace/C50/Huawei_IoT_Agent_Tiny_SDK_Linux//lwm2m/core/liblwm2m.c ****             //lwm2m_notify_even(MODULE_LWM2M,STATE_REG_FAILED, NULL, 0);
 746:/home/baikal/workspace/C50/Huawei_IoT_Agent_Tiny_SDK_Linux//lwm2m/core/liblwm2m.c ****             break;
 1581              		.loc 1 746 0
 1582 0120 EB18     		jmp	.L121
 1583              	.L128:
 747:/home/baikal/workspace/C50/Huawei_IoT_Agent_Tiny_SDK_Linux//lwm2m/core/liblwm2m.c **** 
 748:/home/baikal/workspace/C50/Huawei_IoT_Agent_Tiny_SDK_Linux//lwm2m/core/liblwm2m.c ****         case STATE_REG_PENDING:
 749:/home/baikal/workspace/C50/Huawei_IoT_Agent_Tiny_SDK_Linux//lwm2m/core/liblwm2m.c ****         default:
 750:/home/baikal/workspace/C50/Huawei_IoT_Agent_Tiny_SDK_Linux//lwm2m/core/liblwm2m.c ****             // keep on waiting
 751:/home/baikal/workspace/C50/Huawei_IoT_Agent_Tiny_SDK_Linux//lwm2m/core/liblwm2m.c ****             break;
 752:/home/baikal/workspace/C50/Huawei_IoT_Agent_Tiny_SDK_Linux//lwm2m/core/liblwm2m.c ****         }
 753:/home/baikal/workspace/C50/Huawei_IoT_Agent_Tiny_SDK_Linux//lwm2m/core/liblwm2m.c ****     }
 754:/home/baikal/workspace/C50/Huawei_IoT_Agent_Tiny_SDK_Linux//lwm2m/core/liblwm2m.c ****     break;
 755:/home/baikal/workspace/C50/Huawei_IoT_Agent_Tiny_SDK_Linux//lwm2m/core/liblwm2m.c **** 
 756:/home/baikal/workspace/C50/Huawei_IoT_Agent_Tiny_SDK_Linux//lwm2m/core/liblwm2m.c ****     case STATE_READY:
 757:/home/baikal/workspace/C50/Huawei_IoT_Agent_Tiny_SDK_Linux//lwm2m/core/liblwm2m.c ****         if (registration_getStatus(contextP) == STATE_REG_FAILED)
 1584              		.loc 1 757 0
 1585 0122 4889DF   		movq	%rbx, %rdi
 1586 0125 E8000000 		call	registration_getStatus
 1586      00
 1587              	.LVL187:
 1588 012a 83F803   		cmpl	$3, %eax
 1589 012d 750B     		jne	.L121
 758:/home/baikal/workspace/C50/Huawei_IoT_Agent_Tiny_SDK_Linux//lwm2m/core/liblwm2m.c ****         {
 759:/home/baikal/workspace/C50/Huawei_IoT_Agent_Tiny_SDK_Linux//lwm2m/core/liblwm2m.c ****             // TODO avoid infinite loop by checking the bootstrap info is different
 760:/home/baikal/workspace/C50/Huawei_IoT_Agent_Tiny_SDK_Linux//lwm2m/core/liblwm2m.c ****             //contextP->state = STATE_BOOTSTRAP_REQUIRED;
 761:/home/baikal/workspace/C50/Huawei_IoT_Agent_Tiny_SDK_Linux//lwm2m/core/liblwm2m.c ****             contextP->state = STATE_REGISTER_REQUIRED;
 1590              		.loc 1 761 0
 1591 012f C7030300 		movl	$3, (%rbx)
 1591      0000
 1592              	.L120:
 762:/home/baikal/workspace/C50/Huawei_IoT_Agent_Tiny_SDK_Linux//lwm2m/core/liblwm2m.c ****             goto next_step;
 1593              		.loc 1 762 0
GAS LISTING /tmp/ccQM4ohB.s 			page 50


 1594 0135 E9D8FEFF 		jmp	.L119
 1594      FF
 1595              	.L121:
 763:/home/baikal/workspace/C50/Huawei_IoT_Agent_Tiny_SDK_Linux//lwm2m/core/liblwm2m.c ****             //            break;
 764:/home/baikal/workspace/C50/Huawei_IoT_Agent_Tiny_SDK_Linux//lwm2m/core/liblwm2m.c ****         }
 765:/home/baikal/workspace/C50/Huawei_IoT_Agent_Tiny_SDK_Linux//lwm2m/core/liblwm2m.c ****         break;
 766:/home/baikal/workspace/C50/Huawei_IoT_Agent_Tiny_SDK_Linux//lwm2m/core/liblwm2m.c **** 
 767:/home/baikal/workspace/C50/Huawei_IoT_Agent_Tiny_SDK_Linux//lwm2m/core/liblwm2m.c ****     default:
 768:/home/baikal/workspace/C50/Huawei_IoT_Agent_Tiny_SDK_Linux//lwm2m/core/liblwm2m.c ****         // do nothing
 769:/home/baikal/workspace/C50/Huawei_IoT_Agent_Tiny_SDK_Linux//lwm2m/core/liblwm2m.c ****         break;
 770:/home/baikal/workspace/C50/Huawei_IoT_Agent_Tiny_SDK_Linux//lwm2m/core/liblwm2m.c ****     }
 771:/home/baikal/workspace/C50/Huawei_IoT_Agent_Tiny_SDK_Linux//lwm2m/core/liblwm2m.c **** 
 772:/home/baikal/workspace/C50/Huawei_IoT_Agent_Tiny_SDK_Linux//lwm2m/core/liblwm2m.c ****     observe_step(contextP, tv_sec, timeoutP);
 1596              		.loc 1 772 0
 1597 013a 4C89E2   		movq	%r12, %rdx
 1598 013d 4889EE   		movq	%rbp, %rsi
 1599 0140 4889DF   		movq	%rbx, %rdi
 1600 0143 E8000000 		call	observe_step
 1600      00
 1601              	.LVL188:
 773:/home/baikal/workspace/C50/Huawei_IoT_Agent_Tiny_SDK_Linux//lwm2m/core/liblwm2m.c **** #endif
 774:/home/baikal/workspace/C50/Huawei_IoT_Agent_Tiny_SDK_Linux//lwm2m/core/liblwm2m.c **** 
 775:/home/baikal/workspace/C50/Huawei_IoT_Agent_Tiny_SDK_Linux//lwm2m/core/liblwm2m.c ****     registration_step(contextP, tv_sec, timeoutP);
 1602              		.loc 1 775 0
 1603 0148 4C89E2   		movq	%r12, %rdx
 1604 014b 4889EE   		movq	%rbp, %rsi
 1605 014e 4889DF   		movq	%rbx, %rdi
 1606 0151 E8000000 		call	registration_step
 1606      00
 1607              	.LVL189:
 776:/home/baikal/workspace/C50/Huawei_IoT_Agent_Tiny_SDK_Linux//lwm2m/core/liblwm2m.c ****     transaction_step(contextP, tv_sec, timeoutP);
 1608              		.loc 1 776 0
 1609 0156 4C89E2   		movq	%r12, %rdx
 1610 0159 4889EE   		movq	%rbp, %rsi
 1611 015c 4889DF   		movq	%rbx, %rdi
 1612 015f E8000000 		call	transaction_step
 1612      00
 1613              	.LVL190:
 777:/home/baikal/workspace/C50/Huawei_IoT_Agent_Tiny_SDK_Linux//lwm2m/core/liblwm2m.c **** 
 778:/home/baikal/workspace/C50/Huawei_IoT_Agent_Tiny_SDK_Linux//lwm2m/core/liblwm2m.c ****     LOG_ARG("Final timeoutP: %" PRId64, *timeoutP);
 779:/home/baikal/workspace/C50/Huawei_IoT_Agent_Tiny_SDK_Linux//lwm2m/core/liblwm2m.c **** #ifdef LWM2M_CLIENT_MODE
 780:/home/baikal/workspace/C50/Huawei_IoT_Agent_Tiny_SDK_Linux//lwm2m/core/liblwm2m.c ****     LOG_ARG("Final state: %s", STR_STATE(contextP->state));
 781:/home/baikal/workspace/C50/Huawei_IoT_Agent_Tiny_SDK_Linux//lwm2m/core/liblwm2m.c **** #endif
 782:/home/baikal/workspace/C50/Huawei_IoT_Agent_Tiny_SDK_Linux//lwm2m/core/liblwm2m.c ****     return 0;
 1614              		.loc 1 782 0
 1615 0164 B8000000 		movl	$0, %eax
 1615      00
 1616 0169 EB13     		jmp	.L129
 1617              	.L137:
 651:/home/baikal/workspace/C50/Huawei_IoT_Agent_Tiny_SDK_Linux//lwm2m/core/liblwm2m.c ****         }
 1618              		.loc 1 651 0
 1619 016b B8A30000 		movl	$163, %eax
 1619      00
 1620 0170 EB0C     		jmp	.L129
 1621              	.L138:
 685:/home/baikal/workspace/C50/Huawei_IoT_Agent_Tiny_SDK_Linux//lwm2m/core/liblwm2m.c ****         }
 1622              		.loc 1 685 0
GAS LISTING /tmp/ccQM4ohB.s 			page 51


 1623 0172 B8A30000 		movl	$163, %eax
 1623      00
 1624 0177 EB05     		jmp	.L129
 1625              	.L139:
 699:/home/baikal/workspace/C50/Huawei_IoT_Agent_Tiny_SDK_Linux//lwm2m/core/liblwm2m.c **** 
 1626              		.loc 1 699 0
 1627 0179 B8A30000 		movl	$163, %eax
 1627      00
 1628              	.L129:
 783:/home/baikal/workspace/C50/Huawei_IoT_Agent_Tiny_SDK_Linux//lwm2m/core/liblwm2m.c **** }
 1629              		.loc 1 783 0
 1630 017e 5B       		popq	%rbx
 1631              	.LCFI83:
 1632              		.cfi_def_cfa_offset 24
 1633              	.LVL191:
 1634 017f 5D       		popq	%rbp
 1635              	.LCFI84:
 1636              		.cfi_def_cfa_offset 16
 1637              	.LVL192:
 1638 0180 415C     		popq	%r12
 1639              	.LCFI85:
 1640              		.cfi_def_cfa_offset 8
 1641              	.LVL193:
 1642 0182 C3       		ret
 1643              		.cfi_endproc
 1644              	.LFE84:
 1646              		.section	.bss.start_cnt.4948,"aw",@nobits
 1647              		.align 8
 1650              	start_cnt.4948:
 1651 0000 00000000 		.zero	8
 1651      00000000 
 1652              		.section	.bss.time_start.4949,"aw",@nobits
 1655              	time_start.4949:
 1656 0000 00       		.zero	1
 1657              		.section	.bss.event_handler,"aw",@nobits
 1658              		.align 8
 1661              	event_handler:
 1662 0000 00000000 		.zero	8
 1662      00000000 
 1663              		.text
 1664              	.Letext0:
 1665              		.file 3 "/usr/include/stdint.h"
 1666              		.file 4 "/usr/lib/gcc/x86_64-linux-gnu/5/include/stddef.h"
 1667              		.file 5 "/usr/include/x86_64-linux-gnu/bits/types.h"
 1668              		.file 6 "/usr/include/time.h"
 1669              		.file 7 "/home/baikal/workspace/C50/Huawei_IoT_Agent_Tiny_SDK_Linux//lwm2m/core/er-coap-13/er-coap
 1670              		.file 8 "/usr/include/libio.h"
 1671              		.file 9 "/home/baikal/workspace/C50/Huawei_IoT_Agent_Tiny_SDK_Linux//lwm2m/core/liblwm2m.h"
 1672              		.file 10 "/usr/include/stdio.h"
 1673              		.file 11 "/home/baikal/workspace/C50/Huawei_IoT_Agent_Tiny_SDK_Linux//lwm2m/core/internals.h"
 1674              		.file 12 "/home/baikal/workspace/C50/Huawei_IoT_Agent_Tiny_SDK_Linux//agent_tiny/osadapter/atiny_a
GAS LISTING /tmp/ccQM4ohB.s 			page 52

