GAS LISTING /tmp/ccoN3bUp.s 			page 1


   1              		.file	"list.c"
   2              		.text
   3              	.Ltext0:
   4              		.section	.text.lwm2m_list_add,"ax",@progbits
   5              		.globl	lwm2m_list_add
   7              	lwm2m_list_add:
   8              	.LFB63:
   9              		.file 1 "/home/baikal/workspace/C50/Huawei_IoT_Agent_Tiny_SDK_Linux//lwm2m/core/list.c"
   1:/home/baikal/workspace/C50/Huawei_IoT_Agent_Tiny_SDK_Linux//lwm2m/core/list.c **** /*******************************************************************************
   2:/home/baikal/workspace/C50/Huawei_IoT_Agent_Tiny_SDK_Linux//lwm2m/core/list.c ****  *
   3:/home/baikal/workspace/C50/Huawei_IoT_Agent_Tiny_SDK_Linux//lwm2m/core/list.c ****  * Copyright (c) 2013 Intel Corporation and others.
   4:/home/baikal/workspace/C50/Huawei_IoT_Agent_Tiny_SDK_Linux//lwm2m/core/list.c ****  * All rights reserved. This program and the accompanying materials
   5:/home/baikal/workspace/C50/Huawei_IoT_Agent_Tiny_SDK_Linux//lwm2m/core/list.c ****  * are made available under the terms of the Eclipse Public License v1.0
   6:/home/baikal/workspace/C50/Huawei_IoT_Agent_Tiny_SDK_Linux//lwm2m/core/list.c ****  * and Eclipse Distribution License v1.0 which accompany this distribution.
   7:/home/baikal/workspace/C50/Huawei_IoT_Agent_Tiny_SDK_Linux//lwm2m/core/list.c ****  *
   8:/home/baikal/workspace/C50/Huawei_IoT_Agent_Tiny_SDK_Linux//lwm2m/core/list.c ****  * The Eclipse Public License is available at
   9:/home/baikal/workspace/C50/Huawei_IoT_Agent_Tiny_SDK_Linux//lwm2m/core/list.c ****  *    http://www.eclipse.org/legal/epl-v10.html
  10:/home/baikal/workspace/C50/Huawei_IoT_Agent_Tiny_SDK_Linux//lwm2m/core/list.c ****  * The Eclipse Distribution License is available at
  11:/home/baikal/workspace/C50/Huawei_IoT_Agent_Tiny_SDK_Linux//lwm2m/core/list.c ****  *    http://www.eclipse.org/org/documents/edl-v10.php.
  12:/home/baikal/workspace/C50/Huawei_IoT_Agent_Tiny_SDK_Linux//lwm2m/core/list.c ****  *
  13:/home/baikal/workspace/C50/Huawei_IoT_Agent_Tiny_SDK_Linux//lwm2m/core/list.c ****  * Contributors:
  14:/home/baikal/workspace/C50/Huawei_IoT_Agent_Tiny_SDK_Linux//lwm2m/core/list.c ****  *    David Navarro, Intel Corporation - initial API and implementation
  15:/home/baikal/workspace/C50/Huawei_IoT_Agent_Tiny_SDK_Linux//lwm2m/core/list.c ****  *
  16:/home/baikal/workspace/C50/Huawei_IoT_Agent_Tiny_SDK_Linux//lwm2m/core/list.c ****  *******************************************************************************/
  17:/home/baikal/workspace/C50/Huawei_IoT_Agent_Tiny_SDK_Linux//lwm2m/core/list.c **** 
  18:/home/baikal/workspace/C50/Huawei_IoT_Agent_Tiny_SDK_Linux//lwm2m/core/list.c **** #include "internals.h"
  19:/home/baikal/workspace/C50/Huawei_IoT_Agent_Tiny_SDK_Linux//lwm2m/core/list.c **** 
  20:/home/baikal/workspace/C50/Huawei_IoT_Agent_Tiny_SDK_Linux//lwm2m/core/list.c **** 
  21:/home/baikal/workspace/C50/Huawei_IoT_Agent_Tiny_SDK_Linux//lwm2m/core/list.c **** lwm2m_list_t *lwm2m_list_add(lwm2m_list_t *head,
  22:/home/baikal/workspace/C50/Huawei_IoT_Agent_Tiny_SDK_Linux//lwm2m/core/list.c ****                              lwm2m_list_t *node)
  23:/home/baikal/workspace/C50/Huawei_IoT_Agent_Tiny_SDK_Linux//lwm2m/core/list.c **** {
  10              		.loc 1 23 0
  11              		.cfi_startproc
  12              	.LVL0:
  24:/home/baikal/workspace/C50/Huawei_IoT_Agent_Tiny_SDK_Linux//lwm2m/core/list.c ****     lwm2m_list_t *target;
  25:/home/baikal/workspace/C50/Huawei_IoT_Agent_Tiny_SDK_Linux//lwm2m/core/list.c **** 
  26:/home/baikal/workspace/C50/Huawei_IoT_Agent_Tiny_SDK_Linux//lwm2m/core/list.c ****     if (NULL == head) return node;
  13              		.loc 1 26 0
  14 0000 4885FF   		testq	%rdi, %rdi
  15 0003 7434     		je	.L5
  27:/home/baikal/workspace/C50/Huawei_IoT_Agent_Tiny_SDK_Linux//lwm2m/core/list.c **** 
  28:/home/baikal/workspace/C50/Huawei_IoT_Agent_Tiny_SDK_Linux//lwm2m/core/list.c ****     if (head->id > node->id)
  16              		.loc 1 28 0
  17 0005 440FB746 		movzwl	8(%rsi), %r8d
  17      08
  18 000a 66443947 		cmpw	%r8w, 8(%rdi)
  18      08
  19 000f 7607     		jbe	.L6
  29:/home/baikal/workspace/C50/Huawei_IoT_Agent_Tiny_SDK_Linux//lwm2m/core/list.c ****     {
  30:/home/baikal/workspace/C50/Huawei_IoT_Agent_Tiny_SDK_Linux//lwm2m/core/list.c ****         node->next = head;
  20              		.loc 1 30 0
  21 0011 48893E   		movq	%rdi, (%rsi)
  31:/home/baikal/workspace/C50/Huawei_IoT_Agent_Tiny_SDK_Linux//lwm2m/core/list.c ****         return node;
  22              		.loc 1 31 0
  23 0014 4889F0   		movq	%rsi, %rax
  24 0017 C3       		ret
  25              	.L6:
GAS LISTING /tmp/ccoN3bUp.s 			page 2


  26 0018 4889F9   		movq	%rdi, %rcx
  27 001b EB03     		jmp	.L3
  28              	.LVL1:
  29              	.L7:
  32:/home/baikal/workspace/C50/Huawei_IoT_Agent_Tiny_SDK_Linux//lwm2m/core/list.c ****     }
  33:/home/baikal/workspace/C50/Huawei_IoT_Agent_Tiny_SDK_Linux//lwm2m/core/list.c **** 
  34:/home/baikal/workspace/C50/Huawei_IoT_Agent_Tiny_SDK_Linux//lwm2m/core/list.c ****     target = head;
  35:/home/baikal/workspace/C50/Huawei_IoT_Agent_Tiny_SDK_Linux//lwm2m/core/list.c ****     while (NULL != target->next && target->next->id < node->id)
  36:/home/baikal/workspace/C50/Huawei_IoT_Agent_Tiny_SDK_Linux//lwm2m/core/list.c ****     {
  37:/home/baikal/workspace/C50/Huawei_IoT_Agent_Tiny_SDK_Linux//lwm2m/core/list.c ****         target = target->next;
  30              		.loc 1 37 0
  31 001d 4889D1   		movq	%rdx, %rcx
  32              	.LVL2:
  33              	.L3:
  35:/home/baikal/workspace/C50/Huawei_IoT_Agent_Tiny_SDK_Linux//lwm2m/core/list.c ****     {
  34              		.loc 1 35 0
  35 0020 488B11   		movq	(%rcx), %rdx
  36 0023 4885D2   		testq	%rdx, %rdx
  37 0026 7407     		je	.L4
  35:/home/baikal/workspace/C50/Huawei_IoT_Agent_Tiny_SDK_Linux//lwm2m/core/list.c ****     {
  38              		.loc 1 35 0 is_stmt 0 discriminator 1
  39 0028 66443B42 		cmpw	8(%rdx), %r8w
  39      08
  40 002d 77EE     		ja	.L7
  41              	.L4:
  38:/home/baikal/workspace/C50/Huawei_IoT_Agent_Tiny_SDK_Linux//lwm2m/core/list.c ****     }
  39:/home/baikal/workspace/C50/Huawei_IoT_Agent_Tiny_SDK_Linux//lwm2m/core/list.c **** 
  40:/home/baikal/workspace/C50/Huawei_IoT_Agent_Tiny_SDK_Linux//lwm2m/core/list.c ****     node->next = target->next;
  42              		.loc 1 40 0 is_stmt 1
  43 002f 488916   		movq	%rdx, (%rsi)
  41:/home/baikal/workspace/C50/Huawei_IoT_Agent_Tiny_SDK_Linux//lwm2m/core/list.c ****     target->next = node;
  44              		.loc 1 41 0
  45 0032 488931   		movq	%rsi, (%rcx)
  42:/home/baikal/workspace/C50/Huawei_IoT_Agent_Tiny_SDK_Linux//lwm2m/core/list.c **** 
  43:/home/baikal/workspace/C50/Huawei_IoT_Agent_Tiny_SDK_Linux//lwm2m/core/list.c ****     return head;
  46              		.loc 1 43 0
  47 0035 4889F8   		movq	%rdi, %rax
  48 0038 C3       		ret
  49              	.LVL3:
  50              	.L5:
  26:/home/baikal/workspace/C50/Huawei_IoT_Agent_Tiny_SDK_Linux//lwm2m/core/list.c **** 
  51              		.loc 1 26 0
  52 0039 4889F0   		movq	%rsi, %rax
  44:/home/baikal/workspace/C50/Huawei_IoT_Agent_Tiny_SDK_Linux//lwm2m/core/list.c **** }
  53              		.loc 1 44 0
  54 003c C3       		ret
  55              		.cfi_endproc
  56              	.LFE63:
  58              		.section	.text.lwm2m_list_find,"ax",@progbits
  59              		.globl	lwm2m_list_find
  61              	lwm2m_list_find:
  62              	.LFB64:
  45:/home/baikal/workspace/C50/Huawei_IoT_Agent_Tiny_SDK_Linux//lwm2m/core/list.c **** 
  46:/home/baikal/workspace/C50/Huawei_IoT_Agent_Tiny_SDK_Linux//lwm2m/core/list.c **** 
  47:/home/baikal/workspace/C50/Huawei_IoT_Agent_Tiny_SDK_Linux//lwm2m/core/list.c **** lwm2m_list_t *lwm2m_list_find(lwm2m_list_t *head,
  48:/home/baikal/workspace/C50/Huawei_IoT_Agent_Tiny_SDK_Linux//lwm2m/core/list.c ****                               uint16_t id)
  49:/home/baikal/workspace/C50/Huawei_IoT_Agent_Tiny_SDK_Linux//lwm2m/core/list.c **** {
GAS LISTING /tmp/ccoN3bUp.s 			page 3


  63              		.loc 1 49 0
  64              		.cfi_startproc
  65              	.LVL4:
  66 0000 89F0     		movl	%esi, %eax
  50:/home/baikal/workspace/C50/Huawei_IoT_Agent_Tiny_SDK_Linux//lwm2m/core/list.c ****     while (NULL != head && head->id < id)
  67              		.loc 1 50 0
  68 0002 EB03     		jmp	.L9
  69              	.LVL5:
  70              	.L11:
  51:/home/baikal/workspace/C50/Huawei_IoT_Agent_Tiny_SDK_Linux//lwm2m/core/list.c ****     {
  52:/home/baikal/workspace/C50/Huawei_IoT_Agent_Tiny_SDK_Linux//lwm2m/core/list.c ****         head = head->next;
  71              		.loc 1 52 0
  72 0004 488B3F   		movq	(%rdi), %rdi
  73              	.LVL6:
  74              	.L9:
  50:/home/baikal/workspace/C50/Huawei_IoT_Agent_Tiny_SDK_Linux//lwm2m/core/list.c ****     while (NULL != head && head->id < id)
  75              		.loc 1 50 0
  76 0007 4885FF   		testq	%rdi, %rdi
  77 000a 7406     		je	.L10
  50:/home/baikal/workspace/C50/Huawei_IoT_Agent_Tiny_SDK_Linux//lwm2m/core/list.c ****     while (NULL != head && head->id < id)
  78              		.loc 1 50 0 is_stmt 0 discriminator 1
  79 000c 66394708 		cmpw	%ax, 8(%rdi)
  80 0010 72F2     		jb	.L11
  81              	.L10:
  53:/home/baikal/workspace/C50/Huawei_IoT_Agent_Tiny_SDK_Linux//lwm2m/core/list.c ****     }
  54:/home/baikal/workspace/C50/Huawei_IoT_Agent_Tiny_SDK_Linux//lwm2m/core/list.c **** 
  55:/home/baikal/workspace/C50/Huawei_IoT_Agent_Tiny_SDK_Linux//lwm2m/core/list.c ****     if (NULL != head && head->id == id) return head;
  82              		.loc 1 55 0 is_stmt 1
  83 0012 4885FF   		testq	%rdi, %rdi
  84 0015 740C     		je	.L13
  85              		.loc 1 55 0 is_stmt 0 discriminator 1
  86 0017 66397708 		cmpw	%si, 8(%rdi)
  87 001b 740C     		je	.L14
  56:/home/baikal/workspace/C50/Huawei_IoT_Agent_Tiny_SDK_Linux//lwm2m/core/list.c **** 
  57:/home/baikal/workspace/C50/Huawei_IoT_Agent_Tiny_SDK_Linux//lwm2m/core/list.c ****     return NULL;
  88              		.loc 1 57 0 is_stmt 1
  89 001d B8000000 		movl	$0, %eax
  89      00
  90              	.LVL7:
  91 0022 C3       		ret
  92              	.LVL8:
  93              	.L13:
  94 0023 B8000000 		movl	$0, %eax
  94      00
  95              	.LVL9:
  96 0028 C3       		ret
  97              	.LVL10:
  98              	.L14:
  55:/home/baikal/workspace/C50/Huawei_IoT_Agent_Tiny_SDK_Linux//lwm2m/core/list.c **** 
  99              		.loc 1 55 0
 100 0029 4889F8   		movq	%rdi, %rax
 101              	.LVL11:
  58:/home/baikal/workspace/C50/Huawei_IoT_Agent_Tiny_SDK_Linux//lwm2m/core/list.c **** }
 102              		.loc 1 58 0
 103 002c C3       		ret
 104              		.cfi_endproc
 105              	.LFE64:
GAS LISTING /tmp/ccoN3bUp.s 			page 4


 107              		.section	.text.lwm2m_list_remove,"ax",@progbits
 108              		.globl	lwm2m_list_remove
 110              	lwm2m_list_remove:
 111              	.LFB65:
  59:/home/baikal/workspace/C50/Huawei_IoT_Agent_Tiny_SDK_Linux//lwm2m/core/list.c **** 
  60:/home/baikal/workspace/C50/Huawei_IoT_Agent_Tiny_SDK_Linux//lwm2m/core/list.c **** 
  61:/home/baikal/workspace/C50/Huawei_IoT_Agent_Tiny_SDK_Linux//lwm2m/core/list.c **** lwm2m_list_t *lwm2m_list_remove(lwm2m_list_t *head,
  62:/home/baikal/workspace/C50/Huawei_IoT_Agent_Tiny_SDK_Linux//lwm2m/core/list.c ****                                 uint16_t id,
  63:/home/baikal/workspace/C50/Huawei_IoT_Agent_Tiny_SDK_Linux//lwm2m/core/list.c ****                                 lwm2m_list_t **nodeP)
  64:/home/baikal/workspace/C50/Huawei_IoT_Agent_Tiny_SDK_Linux//lwm2m/core/list.c **** {
 112              		.loc 1 64 0
 113              		.cfi_startproc
 114              	.LVL12:
 115 0000 4189F1   		movl	%esi, %r9d
  65:/home/baikal/workspace/C50/Huawei_IoT_Agent_Tiny_SDK_Linux//lwm2m/core/list.c ****     lwm2m_list_t *target;
  66:/home/baikal/workspace/C50/Huawei_IoT_Agent_Tiny_SDK_Linux//lwm2m/core/list.c **** 
  67:/home/baikal/workspace/C50/Huawei_IoT_Agent_Tiny_SDK_Linux//lwm2m/core/list.c ****     if (head == NULL)
 116              		.loc 1 67 0
 117 0003 4885FF   		testq	%rdi, %rdi
 118 0006 7512     		jne	.L16
  68:/home/baikal/workspace/C50/Huawei_IoT_Agent_Tiny_SDK_Linux//lwm2m/core/list.c ****     {
  69:/home/baikal/workspace/C50/Huawei_IoT_Agent_Tiny_SDK_Linux//lwm2m/core/list.c ****         if (nodeP) *nodeP = NULL;
 119              		.loc 1 69 0
 120 0008 4885D2   		testq	%rdx, %rdx
 121 000b 7466     		je	.L23
 122              		.loc 1 69 0 is_stmt 0 discriminator 1
 123 000d 48C70200 		movq	$0, (%rdx)
 123      000000
  70:/home/baikal/workspace/C50/Huawei_IoT_Agent_Tiny_SDK_Linux//lwm2m/core/list.c ****         return NULL;
 124              		.loc 1 70 0 is_stmt 1 discriminator 1
 125 0014 B8000000 		movl	$0, %eax
 125      00
 126 0019 C3       		ret
 127              	.L16:
  71:/home/baikal/workspace/C50/Huawei_IoT_Agent_Tiny_SDK_Linux//lwm2m/core/list.c ****     }
  72:/home/baikal/workspace/C50/Huawei_IoT_Agent_Tiny_SDK_Linux//lwm2m/core/list.c **** 
  73:/home/baikal/workspace/C50/Huawei_IoT_Agent_Tiny_SDK_Linux//lwm2m/core/list.c ****     if (head->id == id)
 128              		.loc 1 73 0
 129 001a 66397708 		cmpw	%si, 8(%rdi)
 130 001e 750C     		jne	.L24
  74:/home/baikal/workspace/C50/Huawei_IoT_Agent_Tiny_SDK_Linux//lwm2m/core/list.c ****     {
  75:/home/baikal/workspace/C50/Huawei_IoT_Agent_Tiny_SDK_Linux//lwm2m/core/list.c ****         if (nodeP) *nodeP = head;
 131              		.loc 1 75 0
 132 0020 4885D2   		testq	%rdx, %rdx
 133 0023 7403     		je	.L19
 134              		.loc 1 75 0 is_stmt 0 discriminator 1
 135 0025 48893A   		movq	%rdi, (%rdx)
 136              	.L19:
  76:/home/baikal/workspace/C50/Huawei_IoT_Agent_Tiny_SDK_Linux//lwm2m/core/list.c ****         return head->next;
 137              		.loc 1 76 0 is_stmt 1
 138 0028 488B07   		movq	(%rdi), %rax
 139 002b C3       		ret
 140              	.L24:
 141 002c 4989F8   		movq	%rdi, %r8
 142 002f EB03     		jmp	.L18
 143              	.LVL13:
 144              	.L25:
GAS LISTING /tmp/ccoN3bUp.s 			page 5


  77:/home/baikal/workspace/C50/Huawei_IoT_Agent_Tiny_SDK_Linux//lwm2m/core/list.c ****     }
  78:/home/baikal/workspace/C50/Huawei_IoT_Agent_Tiny_SDK_Linux//lwm2m/core/list.c **** 
  79:/home/baikal/workspace/C50/Huawei_IoT_Agent_Tiny_SDK_Linux//lwm2m/core/list.c ****     target = head;
  80:/home/baikal/workspace/C50/Huawei_IoT_Agent_Tiny_SDK_Linux//lwm2m/core/list.c ****     while (NULL != target->next && target->next->id < id)
  81:/home/baikal/workspace/C50/Huawei_IoT_Agent_Tiny_SDK_Linux//lwm2m/core/list.c ****     {
  82:/home/baikal/workspace/C50/Huawei_IoT_Agent_Tiny_SDK_Linux//lwm2m/core/list.c ****         target = target->next;
 145              		.loc 1 82 0
 146 0031 4989C8   		movq	%rcx, %r8
 147              	.LVL14:
 148              	.L18:
  80:/home/baikal/workspace/C50/Huawei_IoT_Agent_Tiny_SDK_Linux//lwm2m/core/list.c ****     {
 149              		.loc 1 80 0
 150 0034 498B08   		movq	(%r8), %rcx
 151 0037 4885C9   		testq	%rcx, %rcx
 152 003a 7407     		je	.L20
  80:/home/baikal/workspace/C50/Huawei_IoT_Agent_Tiny_SDK_Linux//lwm2m/core/list.c ****     {
 153              		.loc 1 80 0 is_stmt 0 discriminator 1
 154 003c 66443B49 		cmpw	8(%rcx), %r9w
 154      08
 155 0041 77EE     		ja	.L25
 156              	.L20:
  83:/home/baikal/workspace/C50/Huawei_IoT_Agent_Tiny_SDK_Linux//lwm2m/core/list.c ****     }
  84:/home/baikal/workspace/C50/Huawei_IoT_Agent_Tiny_SDK_Linux//lwm2m/core/list.c **** 
  85:/home/baikal/workspace/C50/Huawei_IoT_Agent_Tiny_SDK_Linux//lwm2m/core/list.c ****     if (NULL != target->next && target->next->id == id)
 157              		.loc 1 85 0 is_stmt 1
 158 0043 4885C9   		testq	%rcx, %rcx
 159 0046 741B     		je	.L21
 160              		.loc 1 85 0 is_stmt 0 discriminator 1
 161 0048 66397108 		cmpw	%si, 8(%rcx)
 162 004c 7515     		jne	.L21
  86:/home/baikal/workspace/C50/Huawei_IoT_Agent_Tiny_SDK_Linux//lwm2m/core/list.c ****     {
  87:/home/baikal/workspace/C50/Huawei_IoT_Agent_Tiny_SDK_Linux//lwm2m/core/list.c ****         if (nodeP) *nodeP = target->next;
 163              		.loc 1 87 0 is_stmt 1
 164 004e 4885D2   		testq	%rdx, %rdx
 165 0051 7403     		je	.L22
 166              		.loc 1 87 0 is_stmt 0 discriminator 1
 167 0053 48890A   		movq	%rcx, (%rdx)
 168              	.L22:
  88:/home/baikal/workspace/C50/Huawei_IoT_Agent_Tiny_SDK_Linux//lwm2m/core/list.c ****         target->next = target->next->next;
 169              		.loc 1 88 0 is_stmt 1
 170 0056 498B00   		movq	(%r8), %rax
 171 0059 488B00   		movq	(%rax), %rax
 172 005c 498900   		movq	%rax, (%r8)
  89:/home/baikal/workspace/C50/Huawei_IoT_Agent_Tiny_SDK_Linux//lwm2m/core/list.c ****     }
  90:/home/baikal/workspace/C50/Huawei_IoT_Agent_Tiny_SDK_Linux//lwm2m/core/list.c ****     else
  91:/home/baikal/workspace/C50/Huawei_IoT_Agent_Tiny_SDK_Linux//lwm2m/core/list.c ****     {
  92:/home/baikal/workspace/C50/Huawei_IoT_Agent_Tiny_SDK_Linux//lwm2m/core/list.c ****         if (nodeP) *nodeP = NULL;
  93:/home/baikal/workspace/C50/Huawei_IoT_Agent_Tiny_SDK_Linux//lwm2m/core/list.c ****     }
  94:/home/baikal/workspace/C50/Huawei_IoT_Agent_Tiny_SDK_Linux//lwm2m/core/list.c **** 
  95:/home/baikal/workspace/C50/Huawei_IoT_Agent_Tiny_SDK_Linux//lwm2m/core/list.c ****     return head;
 173              		.loc 1 95 0
 174 005f 4889F8   		movq	%rdi, %rax
  88:/home/baikal/workspace/C50/Huawei_IoT_Agent_Tiny_SDK_Linux//lwm2m/core/list.c ****         target->next = target->next->next;
 175              		.loc 1 88 0
 176 0062 C3       		ret
 177              	.L21:
  92:/home/baikal/workspace/C50/Huawei_IoT_Agent_Tiny_SDK_Linux//lwm2m/core/list.c ****     }
GAS LISTING /tmp/ccoN3bUp.s 			page 6


 178              		.loc 1 92 0
 179 0063 4885D2   		testq	%rdx, %rdx
 180 0066 7411     		je	.L26
  92:/home/baikal/workspace/C50/Huawei_IoT_Agent_Tiny_SDK_Linux//lwm2m/core/list.c ****     }
 181              		.loc 1 92 0 is_stmt 0 discriminator 1
 182 0068 48C70200 		movq	$0, (%rdx)
 182      000000
 183              		.loc 1 95 0 is_stmt 1 discriminator 1
 184 006f 4889F8   		movq	%rdi, %rax
 185 0072 C3       		ret
 186              	.LVL15:
 187              	.L23:
  70:/home/baikal/workspace/C50/Huawei_IoT_Agent_Tiny_SDK_Linux//lwm2m/core/list.c ****     }
 188              		.loc 1 70 0
 189 0073 B8000000 		movl	$0, %eax
 189      00
 190 0078 C3       		ret
 191              	.LVL16:
 192              	.L26:
 193              		.loc 1 95 0
 194 0079 4889F8   		movq	%rdi, %rax
  96:/home/baikal/workspace/C50/Huawei_IoT_Agent_Tiny_SDK_Linux//lwm2m/core/list.c **** }
 195              		.loc 1 96 0
 196 007c C3       		ret
 197              		.cfi_endproc
 198              	.LFE65:
 200              		.section	.text.lwm2m_list_newId,"ax",@progbits
 201              		.globl	lwm2m_list_newId
 203              	lwm2m_list_newId:
 204              	.LFB66:
  97:/home/baikal/workspace/C50/Huawei_IoT_Agent_Tiny_SDK_Linux//lwm2m/core/list.c **** 
  98:/home/baikal/workspace/C50/Huawei_IoT_Agent_Tiny_SDK_Linux//lwm2m/core/list.c **** uint16_t lwm2m_list_newId(lwm2m_list_t *head)
  99:/home/baikal/workspace/C50/Huawei_IoT_Agent_Tiny_SDK_Linux//lwm2m/core/list.c **** {
 205              		.loc 1 99 0
 206              		.cfi_startproc
 207              	.LVL17:
 100:/home/baikal/workspace/C50/Huawei_IoT_Agent_Tiny_SDK_Linux//lwm2m/core/list.c ****     uint16_t id;
 101:/home/baikal/workspace/C50/Huawei_IoT_Agent_Tiny_SDK_Linux//lwm2m/core/list.c ****     lwm2m_list_t *target;
 102:/home/baikal/workspace/C50/Huawei_IoT_Agent_Tiny_SDK_Linux//lwm2m/core/list.c **** 
 103:/home/baikal/workspace/C50/Huawei_IoT_Agent_Tiny_SDK_Linux//lwm2m/core/list.c ****     id = 0;
 208              		.loc 1 103 0
 209 0000 B8000000 		movl	$0, %eax
 209      00
 104:/home/baikal/workspace/C50/Huawei_IoT_Agent_Tiny_SDK_Linux//lwm2m/core/list.c ****     target = head;
 105:/home/baikal/workspace/C50/Huawei_IoT_Agent_Tiny_SDK_Linux//lwm2m/core/list.c **** 
 106:/home/baikal/workspace/C50/Huawei_IoT_Agent_Tiny_SDK_Linux//lwm2m/core/list.c ****     while (target != NULL && id == target->id)
 210              		.loc 1 106 0
 211 0005 EB06     		jmp	.L28
 212              	.LVL18:
 213              	.L30:
 107:/home/baikal/workspace/C50/Huawei_IoT_Agent_Tiny_SDK_Linux//lwm2m/core/list.c ****     {
 108:/home/baikal/workspace/C50/Huawei_IoT_Agent_Tiny_SDK_Linux//lwm2m/core/list.c ****         id = target->id + 1;
 214              		.loc 1 108 0
 215 0007 8D4201   		leal	1(%rdx), %eax
 216              	.LVL19:
 109:/home/baikal/workspace/C50/Huawei_IoT_Agent_Tiny_SDK_Linux//lwm2m/core/list.c ****         target = target->next;
 217              		.loc 1 109 0
GAS LISTING /tmp/ccoN3bUp.s 			page 7


 218 000a 488B3F   		movq	(%rdi), %rdi
 219              	.LVL20:
 220              	.L28:
 106:/home/baikal/workspace/C50/Huawei_IoT_Agent_Tiny_SDK_Linux//lwm2m/core/list.c ****     {
 221              		.loc 1 106 0
 222 000d 4885FF   		testq	%rdi, %rdi
 223 0010 7409     		je	.L29
 106:/home/baikal/workspace/C50/Huawei_IoT_Agent_Tiny_SDK_Linux//lwm2m/core/list.c ****     {
 224              		.loc 1 106 0 is_stmt 0 discriminator 1
 225 0012 0FB75708 		movzwl	8(%rdi), %edx
 226 0016 6639D0   		cmpw	%dx, %ax
 227 0019 74EC     		je	.L30
 228              	.L29:
 110:/home/baikal/workspace/C50/Huawei_IoT_Agent_Tiny_SDK_Linux//lwm2m/core/list.c ****     }
 111:/home/baikal/workspace/C50/Huawei_IoT_Agent_Tiny_SDK_Linux//lwm2m/core/list.c **** 
 112:/home/baikal/workspace/C50/Huawei_IoT_Agent_Tiny_SDK_Linux//lwm2m/core/list.c ****     return id;
 113:/home/baikal/workspace/C50/Huawei_IoT_Agent_Tiny_SDK_Linux//lwm2m/core/list.c **** }
 229              		.loc 1 113 0 is_stmt 1
 230 001b F3C3     		rep ret
 231              		.cfi_endproc
 232              	.LFE66:
 234              		.section	.text.lwm2m_list_free,"ax",@progbits
 235              		.globl	lwm2m_list_free
 237              	lwm2m_list_free:
 238              	.LFB67:
 114:/home/baikal/workspace/C50/Huawei_IoT_Agent_Tiny_SDK_Linux//lwm2m/core/list.c **** 
 115:/home/baikal/workspace/C50/Huawei_IoT_Agent_Tiny_SDK_Linux//lwm2m/core/list.c **** void lwm2m_list_free(lwm2m_list_t *head)
 116:/home/baikal/workspace/C50/Huawei_IoT_Agent_Tiny_SDK_Linux//lwm2m/core/list.c **** {
 239              		.loc 1 116 0
 240              		.cfi_startproc
 241              	.LVL21:
 117:/home/baikal/workspace/C50/Huawei_IoT_Agent_Tiny_SDK_Linux//lwm2m/core/list.c ****     if (head != NULL)
 242              		.loc 1 117 0
 243 0000 4885FF   		testq	%rdi, %rdi
 244 0003 7412     		je	.L35
 116:/home/baikal/workspace/C50/Huawei_IoT_Agent_Tiny_SDK_Linux//lwm2m/core/list.c ****     if (head != NULL)
 245              		.loc 1 116 0
 246 0005 53       		pushq	%rbx
 247              	.LCFI0:
 248              		.cfi_def_cfa_offset 16
 249              		.cfi_offset 3, -16
 250              	.LBB2:
 118:/home/baikal/workspace/C50/Huawei_IoT_Agent_Tiny_SDK_Linux//lwm2m/core/list.c ****     {
 119:/home/baikal/workspace/C50/Huawei_IoT_Agent_Tiny_SDK_Linux//lwm2m/core/list.c ****         lwm2m_list_t *nextP;
 120:/home/baikal/workspace/C50/Huawei_IoT_Agent_Tiny_SDK_Linux//lwm2m/core/list.c **** 
 121:/home/baikal/workspace/C50/Huawei_IoT_Agent_Tiny_SDK_Linux//lwm2m/core/list.c ****         nextP = head->next;
 251              		.loc 1 121 0
 252 0006 488B1F   		movq	(%rdi), %rbx
 253              	.LVL22:
 122:/home/baikal/workspace/C50/Huawei_IoT_Agent_Tiny_SDK_Linux//lwm2m/core/list.c ****         lwm2m_free(head);
 254              		.loc 1 122 0
 255 0009 E8000000 		call	lwm2m_free
 255      00
 256              	.LVL23:
 123:/home/baikal/workspace/C50/Huawei_IoT_Agent_Tiny_SDK_Linux//lwm2m/core/list.c ****         lwm2m_list_free(nextP);
 257              		.loc 1 123 0
 258 000e 4889DF   		movq	%rbx, %rdi
GAS LISTING /tmp/ccoN3bUp.s 			page 8


 259 0011 E8000000 		call	lwm2m_list_free
 259      00
 260              	.LVL24:
 261              	.LBE2:
 124:/home/baikal/workspace/C50/Huawei_IoT_Agent_Tiny_SDK_Linux//lwm2m/core/list.c ****     }
 125:/home/baikal/workspace/C50/Huawei_IoT_Agent_Tiny_SDK_Linux//lwm2m/core/list.c **** }
 262              		.loc 1 125 0
 263 0016 5B       		popq	%rbx
 264              	.LCFI1:
 265              		.cfi_restore 3
 266              		.cfi_def_cfa_offset 8
 267              	.LVL25:
 268              	.L35:
 269 0017 F3C3     		rep ret
 270              		.cfi_endproc
 271              	.LFE67:
 273              		.text
 274              	.Letext0:
 275              		.file 2 "/usr/include/stdint.h"
 276              		.file 3 "/usr/lib/gcc/x86_64-linux-gnu/5/include/stddef.h"
 277              		.file 4 "/usr/include/x86_64-linux-gnu/bits/types.h"
 278              		.file 5 "/usr/include/libio.h"
 279              		.file 6 "/home/baikal/workspace/C50/Huawei_IoT_Agent_Tiny_SDK_Linux//lwm2m/core/liblwm2m.h"
 280              		.file 7 "/usr/include/stdio.h"
GAS LISTING /tmp/ccoN3bUp.s 			page 9


DEFINED SYMBOLS
                            *ABS*:0000000000000000 list.c
     /tmp/ccoN3bUp.s:7      .text.lwm2m_list_add:0000000000000000 lwm2m_list_add
     /tmp/ccoN3bUp.s:61     .text.lwm2m_list_find:0000000000000000 lwm2m_list_find
     /tmp/ccoN3bUp.s:110    .text.lwm2m_list_remove:0000000000000000 lwm2m_list_remove
     /tmp/ccoN3bUp.s:203    .text.lwm2m_list_newId:0000000000000000 lwm2m_list_newId
     /tmp/ccoN3bUp.s:237    .text.lwm2m_list_free:0000000000000000 lwm2m_list_free

UNDEFINED SYMBOLS
lwm2m_free
