GAS LISTING /tmp/ccM8uVjQ.s 			page 1


   1              		.file	"management.c"
   2              		.text
   3              	.Ltext0:
   4              		.section	.rodata.str1.1,"aMS",@progbits,1
   5              	.LC0:
   6 0000 706D696E 		.string	"pmin="
   6      3D00
   7              	.LC1:
   8 0006 706D6178 		.string	"pmax="
   8      3D00
   9              	.LC2:
  10 000c 67743D00 		.string	"gt="
  11              	.LC3:
  12 0010 6C743D00 		.string	"lt="
  13              	.LC4:
  14 0014 73743D00 		.string	"st="
  15              		.section	.text.prv_readAttributes,"ax",@progbits
  17              	prv_readAttributes:
  18              	.LFB71:
  19              		.file 1 "/home/baikal/workspace/C50/Huawei_IoT_Agent_Tiny_SDK_Linux//lwm2m/core/management.c"
   1:/home/baikal/workspace/C50/Huawei_IoT_Agent_Tiny_SDK_Linux//lwm2m/core/management.c **** /*----------------------------------------------------------------------------
   2:/home/baikal/workspace/C50/Huawei_IoT_Agent_Tiny_SDK_Linux//lwm2m/core/management.c ****  * Copyright (c) <2016-2018>, <Huawei Technologies Co., Ltd>
   3:/home/baikal/workspace/C50/Huawei_IoT_Agent_Tiny_SDK_Linux//lwm2m/core/management.c ****  * All rights reserved.
   4:/home/baikal/workspace/C50/Huawei_IoT_Agent_Tiny_SDK_Linux//lwm2m/core/management.c ****  * Redistribution and use in source and binary forms, with or without modification,
   5:/home/baikal/workspace/C50/Huawei_IoT_Agent_Tiny_SDK_Linux//lwm2m/core/management.c ****  * are permitted provided that the following conditions are met:
   6:/home/baikal/workspace/C50/Huawei_IoT_Agent_Tiny_SDK_Linux//lwm2m/core/management.c ****  * 1. Redistributions of source code must retain the above copyright notice, this list of
   7:/home/baikal/workspace/C50/Huawei_IoT_Agent_Tiny_SDK_Linux//lwm2m/core/management.c ****  * conditions and the following disclaimer.
   8:/home/baikal/workspace/C50/Huawei_IoT_Agent_Tiny_SDK_Linux//lwm2m/core/management.c ****  * 2. Redistributions in binary form must reproduce the above copyright notice, this list
   9:/home/baikal/workspace/C50/Huawei_IoT_Agent_Tiny_SDK_Linux//lwm2m/core/management.c ****  * of conditions and the following disclaimer in the documentation and/or other materials
  10:/home/baikal/workspace/C50/Huawei_IoT_Agent_Tiny_SDK_Linux//lwm2m/core/management.c ****  * provided with the distribution.
  11:/home/baikal/workspace/C50/Huawei_IoT_Agent_Tiny_SDK_Linux//lwm2m/core/management.c ****  * 3. Neither the name of the copyright holder nor the names of its contributors may be used
  12:/home/baikal/workspace/C50/Huawei_IoT_Agent_Tiny_SDK_Linux//lwm2m/core/management.c ****  * to endorse or promote products derived from this software without specific prior written
  13:/home/baikal/workspace/C50/Huawei_IoT_Agent_Tiny_SDK_Linux//lwm2m/core/management.c ****  * permission.
  14:/home/baikal/workspace/C50/Huawei_IoT_Agent_Tiny_SDK_Linux//lwm2m/core/management.c ****  * THIS SOFTWARE IS PROVIDED BY THE COPYRIGHT HOLDERS AND CONTRIBUTORS
  15:/home/baikal/workspace/C50/Huawei_IoT_Agent_Tiny_SDK_Linux//lwm2m/core/management.c ****  * "AS IS" AND ANY EXPRESS OR IMPLIED WARRANTIES, INCLUDING, BUT NOT LIMITED TO,
  16:/home/baikal/workspace/C50/Huawei_IoT_Agent_Tiny_SDK_Linux//lwm2m/core/management.c ****  * THE IMPLIED WARRANTIES OF MERCHANTABILITY AND FITNESS FOR A PARTICULAR
  17:/home/baikal/workspace/C50/Huawei_IoT_Agent_Tiny_SDK_Linux//lwm2m/core/management.c ****  * PURPOSE ARE DISCLAIMED. IN NO EVENT SHALL THE COPYRIGHT HOLDER OR
  18:/home/baikal/workspace/C50/Huawei_IoT_Agent_Tiny_SDK_Linux//lwm2m/core/management.c ****  * CONTRIBUTORS BE LIABLE FOR ANY DIRECT, INDIRECT, INCIDENTAL, SPECIAL,
  19:/home/baikal/workspace/C50/Huawei_IoT_Agent_Tiny_SDK_Linux//lwm2m/core/management.c ****  * EXEMPLARY, OR CONSEQUENTIAL DAMAGES (INCLUDING, BUT NOT LIMITED TO,
  20:/home/baikal/workspace/C50/Huawei_IoT_Agent_Tiny_SDK_Linux//lwm2m/core/management.c ****  * PROCUREMENT OF SUBSTITUTE GOODS OR SERVICES; LOSS OF USE, DATA, OR PROFITS;
  21:/home/baikal/workspace/C50/Huawei_IoT_Agent_Tiny_SDK_Linux//lwm2m/core/management.c ****  * OR BUSINESS INTERRUPTION) HOWEVER CAUSED AND ON ANY THEORY OF LIABILITY,
  22:/home/baikal/workspace/C50/Huawei_IoT_Agent_Tiny_SDK_Linux//lwm2m/core/management.c ****  * WHETHER IN CONTRACT, STRICT LIABILITY, OR TORT (INCLUDING NEGLIGENCE OR
  23:/home/baikal/workspace/C50/Huawei_IoT_Agent_Tiny_SDK_Linux//lwm2m/core/management.c ****  * OTHERWISE) ARISING IN ANY WAY OUT OF THE USE OF THIS SOFTWARE, EVEN IF
  24:/home/baikal/workspace/C50/Huawei_IoT_Agent_Tiny_SDK_Linux//lwm2m/core/management.c ****  * ADVISED OF THE POSSIBILITY OF SUCH DAMAGE.
  25:/home/baikal/workspace/C50/Huawei_IoT_Agent_Tiny_SDK_Linux//lwm2m/core/management.c ****  *---------------------------------------------------------------------------*/
  26:/home/baikal/workspace/C50/Huawei_IoT_Agent_Tiny_SDK_Linux//lwm2m/core/management.c **** /*----------------------------------------------------------------------------
  27:/home/baikal/workspace/C50/Huawei_IoT_Agent_Tiny_SDK_Linux//lwm2m/core/management.c ****  * Notice of Export Control Law
  28:/home/baikal/workspace/C50/Huawei_IoT_Agent_Tiny_SDK_Linux//lwm2m/core/management.c ****  * ===============================================
  29:/home/baikal/workspace/C50/Huawei_IoT_Agent_Tiny_SDK_Linux//lwm2m/core/management.c ****  * Huawei LiteOS may be subject to applicable export control laws and regulations, which might
  30:/home/baikal/workspace/C50/Huawei_IoT_Agent_Tiny_SDK_Linux//lwm2m/core/management.c ****  * include those applicable to Huawei LiteOS of U.S. and the country in which you are located.
  31:/home/baikal/workspace/C50/Huawei_IoT_Agent_Tiny_SDK_Linux//lwm2m/core/management.c ****  * Import, export and usage of Huawei LiteOS in any manner by you shall be in compliance with such
  32:/home/baikal/workspace/C50/Huawei_IoT_Agent_Tiny_SDK_Linux//lwm2m/core/management.c ****  * applicable export control laws and regulations.
  33:/home/baikal/workspace/C50/Huawei_IoT_Agent_Tiny_SDK_Linux//lwm2m/core/management.c ****  *---------------------------------------------------------------------------*/
  34:/home/baikal/workspace/C50/Huawei_IoT_Agent_Tiny_SDK_Linux//lwm2m/core/management.c **** 
  35:/home/baikal/workspace/C50/Huawei_IoT_Agent_Tiny_SDK_Linux//lwm2m/core/management.c **** /*******************************************************************************
  36:/home/baikal/workspace/C50/Huawei_IoT_Agent_Tiny_SDK_Linux//lwm2m/core/management.c ****  *
  37:/home/baikal/workspace/C50/Huawei_IoT_Agent_Tiny_SDK_Linux//lwm2m/core/management.c ****  * Copyright (c) 2013, 2014 Intel Corporation and others.
GAS LISTING /tmp/ccM8uVjQ.s 			page 2


  38:/home/baikal/workspace/C50/Huawei_IoT_Agent_Tiny_SDK_Linux//lwm2m/core/management.c ****  * All rights reserved. This program and the accompanying materials
  39:/home/baikal/workspace/C50/Huawei_IoT_Agent_Tiny_SDK_Linux//lwm2m/core/management.c ****  * are made available under the terms of the Eclipse Public License v1.0
  40:/home/baikal/workspace/C50/Huawei_IoT_Agent_Tiny_SDK_Linux//lwm2m/core/management.c ****  * and Eclipse Distribution License v1.0 which accompany this distribution.
  41:/home/baikal/workspace/C50/Huawei_IoT_Agent_Tiny_SDK_Linux//lwm2m/core/management.c ****  *
  42:/home/baikal/workspace/C50/Huawei_IoT_Agent_Tiny_SDK_Linux//lwm2m/core/management.c ****  * The Eclipse Public License is available at
  43:/home/baikal/workspace/C50/Huawei_IoT_Agent_Tiny_SDK_Linux//lwm2m/core/management.c ****  *    http://www.eclipse.org/legal/epl-v10.html
  44:/home/baikal/workspace/C50/Huawei_IoT_Agent_Tiny_SDK_Linux//lwm2m/core/management.c ****  * The Eclipse Distribution License is available at
  45:/home/baikal/workspace/C50/Huawei_IoT_Agent_Tiny_SDK_Linux//lwm2m/core/management.c ****  *    http://www.eclipse.org/org/documents/edl-v10.php.
  46:/home/baikal/workspace/C50/Huawei_IoT_Agent_Tiny_SDK_Linux//lwm2m/core/management.c ****  *
  47:/home/baikal/workspace/C50/Huawei_IoT_Agent_Tiny_SDK_Linux//lwm2m/core/management.c ****  * Contributors:
  48:/home/baikal/workspace/C50/Huawei_IoT_Agent_Tiny_SDK_Linux//lwm2m/core/management.c ****  *    David Navarro, Intel Corporation - initial API and implementation
  49:/home/baikal/workspace/C50/Huawei_IoT_Agent_Tiny_SDK_Linux//lwm2m/core/management.c ****  *    domedambrosio - Please refer to git log
  50:/home/baikal/workspace/C50/Huawei_IoT_Agent_Tiny_SDK_Linux//lwm2m/core/management.c ****  *    Toby Jaffey - Please refer to git log
  51:/home/baikal/workspace/C50/Huawei_IoT_Agent_Tiny_SDK_Linux//lwm2m/core/management.c ****  *    Bosch Software Innovations GmbH - Please refer to git log
  52:/home/baikal/workspace/C50/Huawei_IoT_Agent_Tiny_SDK_Linux//lwm2m/core/management.c ****  *    Pascal Rieux - Please refer to git log
  53:/home/baikal/workspace/C50/Huawei_IoT_Agent_Tiny_SDK_Linux//lwm2m/core/management.c ****  *
  54:/home/baikal/workspace/C50/Huawei_IoT_Agent_Tiny_SDK_Linux//lwm2m/core/management.c ****  *******************************************************************************/
  55:/home/baikal/workspace/C50/Huawei_IoT_Agent_Tiny_SDK_Linux//lwm2m/core/management.c **** /*
  56:/home/baikal/workspace/C50/Huawei_IoT_Agent_Tiny_SDK_Linux//lwm2m/core/management.c ****  Copyright (c) 2013, 2014 Intel Corporation
  57:/home/baikal/workspace/C50/Huawei_IoT_Agent_Tiny_SDK_Linux//lwm2m/core/management.c **** 
  58:/home/baikal/workspace/C50/Huawei_IoT_Agent_Tiny_SDK_Linux//lwm2m/core/management.c ****  Redistribution and use in source and binary forms, with or without modification,
  59:/home/baikal/workspace/C50/Huawei_IoT_Agent_Tiny_SDK_Linux//lwm2m/core/management.c ****  are permitted provided that the following conditions are met:
  60:/home/baikal/workspace/C50/Huawei_IoT_Agent_Tiny_SDK_Linux//lwm2m/core/management.c **** 
  61:/home/baikal/workspace/C50/Huawei_IoT_Agent_Tiny_SDK_Linux//lwm2m/core/management.c ****      * Redistributions of source code must retain the above copyright notice,
  62:/home/baikal/workspace/C50/Huawei_IoT_Agent_Tiny_SDK_Linux//lwm2m/core/management.c ****        this list of conditions and the following disclaimer.
  63:/home/baikal/workspace/C50/Huawei_IoT_Agent_Tiny_SDK_Linux//lwm2m/core/management.c ****      * Redistributions in binary form must reproduce the above copyright notice,
  64:/home/baikal/workspace/C50/Huawei_IoT_Agent_Tiny_SDK_Linux//lwm2m/core/management.c ****        this list of conditions and the following disclaimer in the documentation
  65:/home/baikal/workspace/C50/Huawei_IoT_Agent_Tiny_SDK_Linux//lwm2m/core/management.c ****        and/or other materials provided with the distribution.
  66:/home/baikal/workspace/C50/Huawei_IoT_Agent_Tiny_SDK_Linux//lwm2m/core/management.c ****      * Neither the name of Intel Corporation nor the names of its contributors
  67:/home/baikal/workspace/C50/Huawei_IoT_Agent_Tiny_SDK_Linux//lwm2m/core/management.c ****        may be used to endorse or promote products derived from this software
  68:/home/baikal/workspace/C50/Huawei_IoT_Agent_Tiny_SDK_Linux//lwm2m/core/management.c ****        without specific prior written permission.
  69:/home/baikal/workspace/C50/Huawei_IoT_Agent_Tiny_SDK_Linux//lwm2m/core/management.c **** 
  70:/home/baikal/workspace/C50/Huawei_IoT_Agent_Tiny_SDK_Linux//lwm2m/core/management.c ****  THIS SOFTWARE IS PROVIDED BY THE COPYRIGHT HOLDERS AND CONTRIBUTORS "AS IS" AND
  71:/home/baikal/workspace/C50/Huawei_IoT_Agent_Tiny_SDK_Linux//lwm2m/core/management.c ****  ANY EXPRESS OR IMPLIED WARRANTIES, INCLUDING, BUT NOT LIMITED TO, THE IMPLIED
  72:/home/baikal/workspace/C50/Huawei_IoT_Agent_Tiny_SDK_Linux//lwm2m/core/management.c ****  WARRANTIES OF MERCHANTABILITY AND FITNESS FOR A PARTICULAR PURPOSE ARE DISCLAIMED.
  73:/home/baikal/workspace/C50/Huawei_IoT_Agent_Tiny_SDK_Linux//lwm2m/core/management.c ****  IN NO EVENT SHALL THE COPYRIGHT OWNER OR CONTRIBUTORS BE LIABLE FOR ANY DIRECT,
  74:/home/baikal/workspace/C50/Huawei_IoT_Agent_Tiny_SDK_Linux//lwm2m/core/management.c ****  INDIRECT, INCIDENTAL, SPECIAL, EXEMPLARY, OR CONSEQUENTIAL DAMAGES (INCLUDING,
  75:/home/baikal/workspace/C50/Huawei_IoT_Agent_Tiny_SDK_Linux//lwm2m/core/management.c ****  BUT NOT LIMITED TO, PROCUREMENT OF SUBSTITUTE GOODS OR SERVICES; LOSS OF USE,
  76:/home/baikal/workspace/C50/Huawei_IoT_Agent_Tiny_SDK_Linux//lwm2m/core/management.c ****  DATA, OR PROFITS; OR BUSINESS INTERRUPTION) HOWEVER CAUSED AND ON ANY THEORY OF
  77:/home/baikal/workspace/C50/Huawei_IoT_Agent_Tiny_SDK_Linux//lwm2m/core/management.c ****  LIABILITY, WHETHER IN CONTRACT, STRICT LIABILITY, OR TORT (INCLUDING NEGLIGENCE OR
  78:/home/baikal/workspace/C50/Huawei_IoT_Agent_Tiny_SDK_Linux//lwm2m/core/management.c ****  OTHERWISE) ARISING IN ANY WAY OUT OF THE USE OF THIS SOFTWARE, EVEN IF ADVISED OF
  79:/home/baikal/workspace/C50/Huawei_IoT_Agent_Tiny_SDK_Linux//lwm2m/core/management.c ****  THE POSSIBILITY OF SUCH DAMAGE.
  80:/home/baikal/workspace/C50/Huawei_IoT_Agent_Tiny_SDK_Linux//lwm2m/core/management.c **** 
  81:/home/baikal/workspace/C50/Huawei_IoT_Agent_Tiny_SDK_Linux//lwm2m/core/management.c ****  David Navarro <david.navarro@intel.com>
  82:/home/baikal/workspace/C50/Huawei_IoT_Agent_Tiny_SDK_Linux//lwm2m/core/management.c **** 
  83:/home/baikal/workspace/C50/Huawei_IoT_Agent_Tiny_SDK_Linux//lwm2m/core/management.c **** */
  84:/home/baikal/workspace/C50/Huawei_IoT_Agent_Tiny_SDK_Linux//lwm2m/core/management.c **** 
  85:/home/baikal/workspace/C50/Huawei_IoT_Agent_Tiny_SDK_Linux//lwm2m/core/management.c **** #include "internals.h"
  86:/home/baikal/workspace/C50/Huawei_IoT_Agent_Tiny_SDK_Linux//lwm2m/core/management.c **** #include "object_comm.h"
  87:/home/baikal/workspace/C50/Huawei_IoT_Agent_Tiny_SDK_Linux//lwm2m/core/management.c **** #include <stdio.h>
  88:/home/baikal/workspace/C50/Huawei_IoT_Agent_Tiny_SDK_Linux//lwm2m/core/management.c **** 
  89:/home/baikal/workspace/C50/Huawei_IoT_Agent_Tiny_SDK_Linux//lwm2m/core/management.c **** 
  90:/home/baikal/workspace/C50/Huawei_IoT_Agent_Tiny_SDK_Linux//lwm2m/core/management.c **** #ifdef LWM2M_CLIENT_MODE
  91:/home/baikal/workspace/C50/Huawei_IoT_Agent_Tiny_SDK_Linux//lwm2m/core/management.c **** static int prv_readAttributes(multi_option_t *query,
  92:/home/baikal/workspace/C50/Huawei_IoT_Agent_Tiny_SDK_Linux//lwm2m/core/management.c ****                               lwm2m_attributes_t *attrP)
  93:/home/baikal/workspace/C50/Huawei_IoT_Agent_Tiny_SDK_Linux//lwm2m/core/management.c **** {
  20              		.loc 1 93 0
GAS LISTING /tmp/ccM8uVjQ.s 			page 3


  21              		.cfi_startproc
  22              	.LVL0:
  23 0000 55       		pushq	%rbp
  24              	.LCFI0:
  25              		.cfi_def_cfa_offset 16
  26              		.cfi_offset 6, -16
  27 0001 53       		pushq	%rbx
  28              	.LCFI1:
  29              		.cfi_def_cfa_offset 24
  30              		.cfi_offset 3, -24
  31 0002 4883EC18 		subq	$24, %rsp
  32              	.LCFI2:
  33              		.cfi_def_cfa_offset 48
  34 0006 4889FB   		movq	%rdi, %rbx
  35 0009 4889F5   		movq	%rsi, %rbp
  36              	.LVL1:
  37              	.LBB20:
  38              	.LBB21:
  39              		.file 2 "/usr/include/x86_64-linux-gnu/bits/string3.h"
   1:/usr/include/x86_64-linux-gnu/bits/string3.h **** /* Copyright (C) 2004-2016 Free Software Foundation, Inc.
   2:/usr/include/x86_64-linux-gnu/bits/string3.h ****    This file is part of the GNU C Library.
   3:/usr/include/x86_64-linux-gnu/bits/string3.h **** 
   4:/usr/include/x86_64-linux-gnu/bits/string3.h ****    The GNU C Library is free software; you can redistribute it and/or
   5:/usr/include/x86_64-linux-gnu/bits/string3.h ****    modify it under the terms of the GNU Lesser General Public
   6:/usr/include/x86_64-linux-gnu/bits/string3.h ****    License as published by the Free Software Foundation; either
   7:/usr/include/x86_64-linux-gnu/bits/string3.h ****    version 2.1 of the License, or (at your option) any later version.
   8:/usr/include/x86_64-linux-gnu/bits/string3.h **** 
   9:/usr/include/x86_64-linux-gnu/bits/string3.h ****    The GNU C Library is distributed in the hope that it will be useful,
  10:/usr/include/x86_64-linux-gnu/bits/string3.h ****    but WITHOUT ANY WARRANTY; without even the implied warranty of
  11:/usr/include/x86_64-linux-gnu/bits/string3.h ****    MERCHANTABILITY or FITNESS FOR A PARTICULAR PURPOSE.  See the GNU
  12:/usr/include/x86_64-linux-gnu/bits/string3.h ****    Lesser General Public License for more details.
  13:/usr/include/x86_64-linux-gnu/bits/string3.h **** 
  14:/usr/include/x86_64-linux-gnu/bits/string3.h ****    You should have received a copy of the GNU Lesser General Public
  15:/usr/include/x86_64-linux-gnu/bits/string3.h ****    License along with the GNU C Library; if not, see
  16:/usr/include/x86_64-linux-gnu/bits/string3.h ****    <http://www.gnu.org/licenses/>.  */
  17:/usr/include/x86_64-linux-gnu/bits/string3.h **** 
  18:/usr/include/x86_64-linux-gnu/bits/string3.h **** #ifndef _STRING_H
  19:/usr/include/x86_64-linux-gnu/bits/string3.h **** # error "Never use <bits/string3.h> directly; include <string.h> instead."
  20:/usr/include/x86_64-linux-gnu/bits/string3.h **** #endif
  21:/usr/include/x86_64-linux-gnu/bits/string3.h **** 
  22:/usr/include/x86_64-linux-gnu/bits/string3.h **** #if !__GNUC_PREREQ (5,0)
  23:/usr/include/x86_64-linux-gnu/bits/string3.h **** __warndecl (__warn_memset_zero_len,
  24:/usr/include/x86_64-linux-gnu/bits/string3.h **** 	    "memset used with constant zero length parameter; this could be due to transposed parameters")
  25:/usr/include/x86_64-linux-gnu/bits/string3.h **** #endif
  26:/usr/include/x86_64-linux-gnu/bits/string3.h **** 
  27:/usr/include/x86_64-linux-gnu/bits/string3.h **** #ifndef __cplusplus
  28:/usr/include/x86_64-linux-gnu/bits/string3.h **** /* XXX This is temporarily.  We should not redefine any of the symbols
  29:/usr/include/x86_64-linux-gnu/bits/string3.h ****    and instead integrate the error checking into the original
  30:/usr/include/x86_64-linux-gnu/bits/string3.h ****    definitions.  */
  31:/usr/include/x86_64-linux-gnu/bits/string3.h **** # undef memcpy
  32:/usr/include/x86_64-linux-gnu/bits/string3.h **** # undef memmove
  33:/usr/include/x86_64-linux-gnu/bits/string3.h **** # undef memset
  34:/usr/include/x86_64-linux-gnu/bits/string3.h **** # undef strcat
  35:/usr/include/x86_64-linux-gnu/bits/string3.h **** # undef strcpy
  36:/usr/include/x86_64-linux-gnu/bits/string3.h **** # undef strncat
  37:/usr/include/x86_64-linux-gnu/bits/string3.h **** # undef strncpy
  38:/usr/include/x86_64-linux-gnu/bits/string3.h **** # ifdef __USE_GNU
GAS LISTING /tmp/ccM8uVjQ.s 			page 4


  39:/usr/include/x86_64-linux-gnu/bits/string3.h **** #  undef mempcpy
  40:/usr/include/x86_64-linux-gnu/bits/string3.h **** #  undef stpcpy
  41:/usr/include/x86_64-linux-gnu/bits/string3.h **** # endif
  42:/usr/include/x86_64-linux-gnu/bits/string3.h **** # ifdef __USE_MISC
  43:/usr/include/x86_64-linux-gnu/bits/string3.h **** #  undef bcopy
  44:/usr/include/x86_64-linux-gnu/bits/string3.h **** #  undef bzero
  45:/usr/include/x86_64-linux-gnu/bits/string3.h **** # endif
  46:/usr/include/x86_64-linux-gnu/bits/string3.h **** #endif
  47:/usr/include/x86_64-linux-gnu/bits/string3.h **** 
  48:/usr/include/x86_64-linux-gnu/bits/string3.h **** 
  49:/usr/include/x86_64-linux-gnu/bits/string3.h **** __fortify_function void *
  50:/usr/include/x86_64-linux-gnu/bits/string3.h **** __NTH (memcpy (void *__restrict __dest, const void *__restrict __src,
  51:/usr/include/x86_64-linux-gnu/bits/string3.h **** 	       size_t __len))
  52:/usr/include/x86_64-linux-gnu/bits/string3.h **** {
  53:/usr/include/x86_64-linux-gnu/bits/string3.h ****   return __builtin___memcpy_chk (__dest, __src, __len, __bos0 (__dest));
  54:/usr/include/x86_64-linux-gnu/bits/string3.h **** }
  55:/usr/include/x86_64-linux-gnu/bits/string3.h **** 
  56:/usr/include/x86_64-linux-gnu/bits/string3.h **** __fortify_function void *
  57:/usr/include/x86_64-linux-gnu/bits/string3.h **** __NTH (memmove (void *__dest, const void *__src, size_t __len))
  58:/usr/include/x86_64-linux-gnu/bits/string3.h **** {
  59:/usr/include/x86_64-linux-gnu/bits/string3.h ****   return __builtin___memmove_chk (__dest, __src, __len, __bos0 (__dest));
  60:/usr/include/x86_64-linux-gnu/bits/string3.h **** }
  61:/usr/include/x86_64-linux-gnu/bits/string3.h **** 
  62:/usr/include/x86_64-linux-gnu/bits/string3.h **** #ifdef __USE_GNU
  63:/usr/include/x86_64-linux-gnu/bits/string3.h **** __fortify_function void *
  64:/usr/include/x86_64-linux-gnu/bits/string3.h **** __NTH (mempcpy (void *__restrict __dest, const void *__restrict __src,
  65:/usr/include/x86_64-linux-gnu/bits/string3.h **** 		size_t __len))
  66:/usr/include/x86_64-linux-gnu/bits/string3.h **** {
  67:/usr/include/x86_64-linux-gnu/bits/string3.h ****   return __builtin___mempcpy_chk (__dest, __src, __len, __bos0 (__dest));
  68:/usr/include/x86_64-linux-gnu/bits/string3.h **** }
  69:/usr/include/x86_64-linux-gnu/bits/string3.h **** #endif
  70:/usr/include/x86_64-linux-gnu/bits/string3.h **** 
  71:/usr/include/x86_64-linux-gnu/bits/string3.h **** 
  72:/usr/include/x86_64-linux-gnu/bits/string3.h **** /* The first two tests here help to catch a somewhat common problem
  73:/usr/include/x86_64-linux-gnu/bits/string3.h ****    where the second and third parameter are transposed.  This is
  74:/usr/include/x86_64-linux-gnu/bits/string3.h ****    especially problematic if the intended fill value is zero.  In this
  75:/usr/include/x86_64-linux-gnu/bits/string3.h ****    case no work is done at all.  We detect these problems by referring
  76:/usr/include/x86_64-linux-gnu/bits/string3.h ****    non-existing functions.  */
  77:/usr/include/x86_64-linux-gnu/bits/string3.h **** __fortify_function void *
  78:/usr/include/x86_64-linux-gnu/bits/string3.h **** __NTH (memset (void *__dest, int __ch, size_t __len))
  79:/usr/include/x86_64-linux-gnu/bits/string3.h **** {
  80:/usr/include/x86_64-linux-gnu/bits/string3.h ****   /* GCC-5.0 and newer implements these checks in the compiler, so we don't
  81:/usr/include/x86_64-linux-gnu/bits/string3.h ****      need them here.  */
  82:/usr/include/x86_64-linux-gnu/bits/string3.h **** #if !__GNUC_PREREQ (5,0)
  83:/usr/include/x86_64-linux-gnu/bits/string3.h ****   if (__builtin_constant_p (__len) && __len == 0
  84:/usr/include/x86_64-linux-gnu/bits/string3.h ****       && (!__builtin_constant_p (__ch) || __ch != 0))
  85:/usr/include/x86_64-linux-gnu/bits/string3.h ****     {
  86:/usr/include/x86_64-linux-gnu/bits/string3.h ****       __warn_memset_zero_len ();
  87:/usr/include/x86_64-linux-gnu/bits/string3.h ****       return __dest;
  88:/usr/include/x86_64-linux-gnu/bits/string3.h ****     }
  89:/usr/include/x86_64-linux-gnu/bits/string3.h **** #endif
  90:/usr/include/x86_64-linux-gnu/bits/string3.h ****   return __builtin___memset_chk (__dest, __ch, __len, __bos0 (__dest));
  40              		.loc 2 90 0
  41 000c 48C70600 		movq	$0, (%rsi)
  41      000000
  42 0013 48C74608 		movq	$0, 8(%rsi)
  42      00000000 
GAS LISTING /tmp/ccM8uVjQ.s 			page 5


  43 001b 48C74610 		movq	$0, 16(%rsi)
  43      00000000 
  44 0023 48C74618 		movq	$0, 24(%rsi)
  44      00000000 
  45 002b 48C74620 		movq	$0, 32(%rsi)
  45      00000000 
  46 0033 E9530300 		jmp	.L2
  46      00
  47              	.LVL2:
  48              	.L14:
  49              	.LBE21:
  50              	.LBE20:
  94:/home/baikal/workspace/C50/Huawei_IoT_Agent_Tiny_SDK_Linux//lwm2m/core/management.c ****     int64_t intValue;
  95:/home/baikal/workspace/C50/Huawei_IoT_Agent_Tiny_SDK_Linux//lwm2m/core/management.c ****     double floatValue;
  96:/home/baikal/workspace/C50/Huawei_IoT_Agent_Tiny_SDK_Linux//lwm2m/core/management.c **** 
  97:/home/baikal/workspace/C50/Huawei_IoT_Agent_Tiny_SDK_Linux//lwm2m/core/management.c ****     memset(attrP, 0, sizeof(lwm2m_attributes_t));
  98:/home/baikal/workspace/C50/Huawei_IoT_Agent_Tiny_SDK_Linux//lwm2m/core/management.c **** 
  99:/home/baikal/workspace/C50/Huawei_IoT_Agent_Tiny_SDK_Linux//lwm2m/core/management.c ****     while (query != NULL)
 100:/home/baikal/workspace/C50/Huawei_IoT_Agent_Tiny_SDK_Linux//lwm2m/core/management.c ****     {
 101:/home/baikal/workspace/C50/Huawei_IoT_Agent_Tiny_SDK_Linux//lwm2m/core/management.c ****         if (lwm2m_strncmp((char *)query->data, ATTR_MIN_PERIOD_STR, ATTR_MIN_PERIOD_LEN) == 0)
  51              		.loc 1 101 0
  52 0038 488B7B10 		movq	16(%rbx), %rdi
  53 003c BA050000 		movl	$5, %edx
  53      00
  54 0041 BE000000 		movl	$.LC0, %esi
  54      00
  55 0046 E8000000 		call	lwm2m_strncmp
  55      00
  56              	.LVL3:
  57 004b 85C0     		testl	%eax, %eax
  58 004d 755C     		jne	.L3
 102:/home/baikal/workspace/C50/Huawei_IoT_Agent_Tiny_SDK_Linux//lwm2m/core/management.c ****         {
 103:/home/baikal/workspace/C50/Huawei_IoT_Agent_Tiny_SDK_Linux//lwm2m/core/management.c ****             if (0 != ((attrP->toSet | attrP->toClear) & LWM2M_ATTR_FLAG_MIN_PERIOD)) return -1;
  59              		.loc 1 103 0
  60 004f 0FB64501 		movzbl	1(%rbp), %eax
  61 0053 0A4500   		orb	0(%rbp), %al
  62 0056 A801     		testb	$1, %al
  63 0058 0F854003 		jne	.L15
  63      0000
 104:/home/baikal/workspace/C50/Huawei_IoT_Agent_Tiny_SDK_Linux//lwm2m/core/management.c ****             if (query->len == ATTR_MIN_PERIOD_LEN) return -1;
  64              		.loc 1 104 0
  65 005e 0FB67309 		movzbl	9(%rbx), %esi
  66 0062 4080FE05 		cmpb	$5, %sil
  67 0066 0F843C03 		je	.L16
  67      0000
 105:/home/baikal/workspace/C50/Huawei_IoT_Agent_Tiny_SDK_Linux//lwm2m/core/management.c **** 
 106:/home/baikal/workspace/C50/Huawei_IoT_Agent_Tiny_SDK_Linux//lwm2m/core/management.c ****             if (1 != utils_textToInt(query->data + ATTR_MIN_PERIOD_LEN, query->len - ATTR_MIN_PERIO
  68              		.loc 1 106 0
  69 006c 400FB6F6 		movzbl	%sil, %esi
  70 0070 83EE05   		subl	$5, %esi
  71 0073 488B4310 		movq	16(%rbx), %rax
  72 0077 488D7805 		leaq	5(%rax), %rdi
  73 007b 488D5424 		leaq	8(%rsp), %rdx
  73      08
  74 0080 E8000000 		call	utils_textToInt
  74      00
  75              	.LVL4:
GAS LISTING /tmp/ccM8uVjQ.s 			page 6


  76 0085 83F801   		cmpl	$1, %eax
  77 0088 0F852403 		jne	.L17
  77      0000
 107:/home/baikal/workspace/C50/Huawei_IoT_Agent_Tiny_SDK_Linux//lwm2m/core/management.c ****             if (intValue < 0) return -1;
  78              		.loc 1 107 0
  79 008e 48837C24 		cmpq	$0, 8(%rsp)
  79      0800
  80 0094 0F882203 		js	.L18
  80      0000
 108:/home/baikal/workspace/C50/Huawei_IoT_Agent_Tiny_SDK_Linux//lwm2m/core/management.c **** 
 109:/home/baikal/workspace/C50/Huawei_IoT_Agent_Tiny_SDK_Linux//lwm2m/core/management.c ****             attrP->toSet |= LWM2M_ATTR_FLAG_MIN_PERIOD;
  81              		.loc 1 109 0
  82 009a 804D0001 		orb	$1, 0(%rbp)
 110:/home/baikal/workspace/C50/Huawei_IoT_Agent_Tiny_SDK_Linux//lwm2m/core/management.c ****             attrP->minPeriod = intValue;
  83              		.loc 1 110 0
  84 009e 488B4424 		movq	8(%rsp), %rax
  84      08
  85 00a3 894504   		movl	%eax, 4(%rbp)
  86 00a6 E9DD0200 		jmp	.L5
  86      00
  87              	.L3:
 111:/home/baikal/workspace/C50/Huawei_IoT_Agent_Tiny_SDK_Linux//lwm2m/core/management.c ****         }
 112:/home/baikal/workspace/C50/Huawei_IoT_Agent_Tiny_SDK_Linux//lwm2m/core/management.c ****         else if (lwm2m_strncmp((char *)query->data, ATTR_MIN_PERIOD_STR, ATTR_MIN_PERIOD_LEN - 1) =
  88              		.loc 1 112 0
  89 00ab 488B7B10 		movq	16(%rbx), %rdi
  90 00af BA040000 		movl	$4, %edx
  90      00
  91 00b4 BE000000 		movl	$.LC0, %esi
  91      00
  92 00b9 E8000000 		call	lwm2m_strncmp
  92      00
  93              	.LVL5:
  94 00be 85C0     		testl	%eax, %eax
  95 00c0 7527     		jne	.L6
 113:/home/baikal/workspace/C50/Huawei_IoT_Agent_Tiny_SDK_Linux//lwm2m/core/management.c ****         {
 114:/home/baikal/workspace/C50/Huawei_IoT_Agent_Tiny_SDK_Linux//lwm2m/core/management.c ****             if (0 != ((attrP->toSet | attrP->toClear) & LWM2M_ATTR_FLAG_MIN_PERIOD)) return -1;
  96              		.loc 1 114 0
  97 00c2 0FB64501 		movzbl	1(%rbp), %eax
  98 00c6 89C2     		movl	%eax, %edx
  99 00c8 0A5500   		orb	0(%rbp), %dl
 100 00cb F6C201   		testb	$1, %dl
 101 00ce 0F85F202 		jne	.L19
 101      0000
 115:/home/baikal/workspace/C50/Huawei_IoT_Agent_Tiny_SDK_Linux//lwm2m/core/management.c ****             if (query->len != ATTR_MIN_PERIOD_LEN - 1) return -1;
 102              		.loc 1 115 0
 103 00d4 807B0904 		cmpb	$4, 9(%rbx)
 104 00d8 0F85F202 		jne	.L20
 104      0000
 116:/home/baikal/workspace/C50/Huawei_IoT_Agent_Tiny_SDK_Linux//lwm2m/core/management.c **** 
 117:/home/baikal/workspace/C50/Huawei_IoT_Agent_Tiny_SDK_Linux//lwm2m/core/management.c ****             attrP->toClear |= LWM2M_ATTR_FLAG_MIN_PERIOD;
 105              		.loc 1 117 0
 106 00de 83C801   		orl	$1, %eax
 107 00e1 884501   		movb	%al, 1(%rbp)
 108 00e4 E99F0200 		jmp	.L5
 108      00
 109              	.L6:
 118:/home/baikal/workspace/C50/Huawei_IoT_Agent_Tiny_SDK_Linux//lwm2m/core/management.c ****         }
GAS LISTING /tmp/ccM8uVjQ.s 			page 7


 119:/home/baikal/workspace/C50/Huawei_IoT_Agent_Tiny_SDK_Linux//lwm2m/core/management.c ****         else if (lwm2m_strncmp((char *)query->data, ATTR_MAX_PERIOD_STR, ATTR_MAX_PERIOD_LEN) == 0)
 110              		.loc 1 119 0
 111 00e9 488B7B10 		movq	16(%rbx), %rdi
 112 00ed BA050000 		movl	$5, %edx
 112      00
 113 00f2 BE000000 		movl	$.LC1, %esi
 113      00
 114 00f7 E8000000 		call	lwm2m_strncmp
 114      00
 115              	.LVL6:
 116 00fc 85C0     		testl	%eax, %eax
 117 00fe 7559     		jne	.L7
 120:/home/baikal/workspace/C50/Huawei_IoT_Agent_Tiny_SDK_Linux//lwm2m/core/management.c ****         {
 121:/home/baikal/workspace/C50/Huawei_IoT_Agent_Tiny_SDK_Linux//lwm2m/core/management.c ****             if (0 != ((attrP->toSet | attrP->toClear) & LWM2M_ATTR_FLAG_MAX_PERIOD)) return -1;
 118              		.loc 1 121 0
 119 0100 0FB64501 		movzbl	1(%rbp), %eax
 120 0104 0A4500   		orb	0(%rbp), %al
 121 0107 A802     		testb	$2, %al
 122 0109 0F85CB02 		jne	.L21
 122      0000
 122:/home/baikal/workspace/C50/Huawei_IoT_Agent_Tiny_SDK_Linux//lwm2m/core/management.c ****             if (query->len == ATTR_MAX_PERIOD_LEN) return -1;
 123              		.loc 1 122 0
 124 010f 0FB64309 		movzbl	9(%rbx), %eax
 125 0113 3C05     		cmpb	$5, %al
 126 0115 0F84C902 		je	.L22
 126      0000
 123:/home/baikal/workspace/C50/Huawei_IoT_Agent_Tiny_SDK_Linux//lwm2m/core/management.c **** 
 124:/home/baikal/workspace/C50/Huawei_IoT_Agent_Tiny_SDK_Linux//lwm2m/core/management.c ****             if (1 != utils_textToInt(query->data + ATTR_MAX_PERIOD_LEN, query->len - ATTR_MAX_PERIO
 127              		.loc 1 124 0
 128 011b 0FB6C0   		movzbl	%al, %eax
 129 011e 8D70FB   		leal	-5(%rax), %esi
 130 0121 488B4310 		movq	16(%rbx), %rax
 131 0125 488D7805 		leaq	5(%rax), %rdi
 132 0129 488D5424 		leaq	8(%rsp), %rdx
 132      08
 133 012e E8000000 		call	utils_textToInt
 133      00
 134              	.LVL7:
 135 0133 83F801   		cmpl	$1, %eax
 136 0136 0F85B202 		jne	.L23
 136      0000
 125:/home/baikal/workspace/C50/Huawei_IoT_Agent_Tiny_SDK_Linux//lwm2m/core/management.c ****             if (intValue < 0) return -1;
 137              		.loc 1 125 0
 138 013c 48837C24 		cmpq	$0, 8(%rsp)
 138      0800
 139 0142 0F88B002 		js	.L24
 139      0000
 126:/home/baikal/workspace/C50/Huawei_IoT_Agent_Tiny_SDK_Linux//lwm2m/core/management.c **** 
 127:/home/baikal/workspace/C50/Huawei_IoT_Agent_Tiny_SDK_Linux//lwm2m/core/management.c ****             attrP->toSet |= LWM2M_ATTR_FLAG_MAX_PERIOD;
 140              		.loc 1 127 0
 141 0148 804D0002 		orb	$2, 0(%rbp)
 128:/home/baikal/workspace/C50/Huawei_IoT_Agent_Tiny_SDK_Linux//lwm2m/core/management.c ****             attrP->maxPeriod = intValue;
 142              		.loc 1 128 0
 143 014c 488B4424 		movq	8(%rsp), %rax
 143      08
 144 0151 894508   		movl	%eax, 8(%rbp)
 145 0154 E92F0200 		jmp	.L5
GAS LISTING /tmp/ccM8uVjQ.s 			page 8


 145      00
 146              	.L7:
 129:/home/baikal/workspace/C50/Huawei_IoT_Agent_Tiny_SDK_Linux//lwm2m/core/management.c ****         }
 130:/home/baikal/workspace/C50/Huawei_IoT_Agent_Tiny_SDK_Linux//lwm2m/core/management.c ****         else if (lwm2m_strncmp((char *)query->data, ATTR_MAX_PERIOD_STR, ATTR_MAX_PERIOD_LEN - 1) =
 147              		.loc 1 130 0
 148 0159 488B7B10 		movq	16(%rbx), %rdi
 149 015d BA040000 		movl	$4, %edx
 149      00
 150 0162 BE000000 		movl	$.LC1, %esi
 150      00
 151 0167 E8000000 		call	lwm2m_strncmp
 151      00
 152              	.LVL8:
 153 016c 85C0     		testl	%eax, %eax
 154 016e 7527     		jne	.L8
 131:/home/baikal/workspace/C50/Huawei_IoT_Agent_Tiny_SDK_Linux//lwm2m/core/management.c ****         {
 132:/home/baikal/workspace/C50/Huawei_IoT_Agent_Tiny_SDK_Linux//lwm2m/core/management.c ****             if (0 != ((attrP->toSet | attrP->toClear) & LWM2M_ATTR_FLAG_MAX_PERIOD)) return -1;
 155              		.loc 1 132 0
 156 0170 0FB64501 		movzbl	1(%rbp), %eax
 157 0174 89C2     		movl	%eax, %edx
 158 0176 0A5500   		orb	0(%rbp), %dl
 159 0179 F6C202   		testb	$2, %dl
 160 017c 0F858002 		jne	.L25
 160      0000
 133:/home/baikal/workspace/C50/Huawei_IoT_Agent_Tiny_SDK_Linux//lwm2m/core/management.c ****             if (query->len != ATTR_MAX_PERIOD_LEN - 1) return -1;
 161              		.loc 1 133 0
 162 0182 807B0904 		cmpb	$4, 9(%rbx)
 163 0186 0F857D02 		jne	.L26
 163      0000
 134:/home/baikal/workspace/C50/Huawei_IoT_Agent_Tiny_SDK_Linux//lwm2m/core/management.c **** 
 135:/home/baikal/workspace/C50/Huawei_IoT_Agent_Tiny_SDK_Linux//lwm2m/core/management.c ****             attrP->toClear |= LWM2M_ATTR_FLAG_MAX_PERIOD;
 164              		.loc 1 135 0
 165 018c 83C802   		orl	$2, %eax
 166 018f 884501   		movb	%al, 1(%rbp)
 167 0192 E9F10100 		jmp	.L5
 167      00
 168              	.L8:
 136:/home/baikal/workspace/C50/Huawei_IoT_Agent_Tiny_SDK_Linux//lwm2m/core/management.c ****         }
 137:/home/baikal/workspace/C50/Huawei_IoT_Agent_Tiny_SDK_Linux//lwm2m/core/management.c ****         else if (lwm2m_strncmp((char *)query->data, ATTR_GREATER_THAN_STR, ATTR_GREATER_THAN_LEN) =
 169              		.loc 1 137 0
 170 0197 488B7B10 		movq	16(%rbx), %rdi
 171 019b BA030000 		movl	$3, %edx
 171      00
 172 01a0 BE000000 		movl	$.LC2, %esi
 172      00
 173 01a5 E8000000 		call	lwm2m_strncmp
 173      00
 174              	.LVL9:
 175 01aa 85C0     		testl	%eax, %eax
 176 01ac 754D     		jne	.L9
 138:/home/baikal/workspace/C50/Huawei_IoT_Agent_Tiny_SDK_Linux//lwm2m/core/management.c ****         {
 139:/home/baikal/workspace/C50/Huawei_IoT_Agent_Tiny_SDK_Linux//lwm2m/core/management.c ****             if (0 != ((attrP->toSet | attrP->toClear) & LWM2M_ATTR_FLAG_GREATER_THAN)) return -1;
 177              		.loc 1 139 0
 178 01ae 0FB64501 		movzbl	1(%rbp), %eax
 179 01b2 0A4500   		orb	0(%rbp), %al
 180 01b5 A804     		testb	$4, %al
 181 01b7 0F855302 		jne	.L27
GAS LISTING /tmp/ccM8uVjQ.s 			page 9


 181      0000
 140:/home/baikal/workspace/C50/Huawei_IoT_Agent_Tiny_SDK_Linux//lwm2m/core/management.c ****             if (query->len == ATTR_GREATER_THAN_LEN) return -1;
 182              		.loc 1 140 0
 183 01bd 0FB64309 		movzbl	9(%rbx), %eax
 184 01c1 3C03     		cmpb	$3, %al
 185 01c3 0F844E02 		je	.L28
 185      0000
 141:/home/baikal/workspace/C50/Huawei_IoT_Agent_Tiny_SDK_Linux//lwm2m/core/management.c **** 
 142:/home/baikal/workspace/C50/Huawei_IoT_Agent_Tiny_SDK_Linux//lwm2m/core/management.c ****             if (1 != utils_textToFloat(query->data + ATTR_GREATER_THAN_LEN, query->len - ATTR_GREAT
 186              		.loc 1 142 0
 187 01c9 0FB6C0   		movzbl	%al, %eax
 188 01cc 8D70FD   		leal	-3(%rax), %esi
 189 01cf 488B4310 		movq	16(%rbx), %rax
 190 01d3 488D7803 		leaq	3(%rax), %rdi
 191 01d7 4889E2   		movq	%rsp, %rdx
 192 01da E8000000 		call	utils_textToFloat
 192      00
 193              	.LVL10:
 194 01df 83F801   		cmpl	$1, %eax
 195 01e2 0F853602 		jne	.L29
 195      0000
 143:/home/baikal/workspace/C50/Huawei_IoT_Agent_Tiny_SDK_Linux//lwm2m/core/management.c **** 
 144:/home/baikal/workspace/C50/Huawei_IoT_Agent_Tiny_SDK_Linux//lwm2m/core/management.c ****             attrP->toSet |= LWM2M_ATTR_FLAG_GREATER_THAN;
 196              		.loc 1 144 0
 197 01e8 804D0004 		orb	$4, 0(%rbp)
 145:/home/baikal/workspace/C50/Huawei_IoT_Agent_Tiny_SDK_Linux//lwm2m/core/management.c ****             attrP->greaterThan = floatValue;
 198              		.loc 1 145 0
 199 01ec F20F1004 		movsd	(%rsp), %xmm0
 199      24
 200 01f1 F20F1145 		movsd	%xmm0, 16(%rbp)
 200      10
 201 01f6 E98D0100 		jmp	.L5
 201      00
 202              	.L9:
 146:/home/baikal/workspace/C50/Huawei_IoT_Agent_Tiny_SDK_Linux//lwm2m/core/management.c ****         }
 147:/home/baikal/workspace/C50/Huawei_IoT_Agent_Tiny_SDK_Linux//lwm2m/core/management.c ****         else if (lwm2m_strncmp((char *)query->data, ATTR_GREATER_THAN_STR, ATTR_GREATER_THAN_LEN - 
 203              		.loc 1 147 0
 204 01fb 488B7B10 		movq	16(%rbx), %rdi
 205 01ff BA020000 		movl	$2, %edx
 205      00
 206 0204 BE000000 		movl	$.LC2, %esi
 206      00
 207 0209 E8000000 		call	lwm2m_strncmp
 207      00
 208              	.LVL11:
 209 020e 85C0     		testl	%eax, %eax
 210 0210 7527     		jne	.L10
 148:/home/baikal/workspace/C50/Huawei_IoT_Agent_Tiny_SDK_Linux//lwm2m/core/management.c ****         {
 149:/home/baikal/workspace/C50/Huawei_IoT_Agent_Tiny_SDK_Linux//lwm2m/core/management.c ****             if (0 != ((attrP->toSet | attrP->toClear) & LWM2M_ATTR_FLAG_GREATER_THAN)) return -1;
 211              		.loc 1 149 0
 212 0212 0FB64501 		movzbl	1(%rbp), %eax
 213 0216 89C2     		movl	%eax, %edx
 214 0218 0A5500   		orb	0(%rbp), %dl
 215 021b F6C204   		testb	$4, %dl
 216 021e 0F850102 		jne	.L30
 216      0000
 150:/home/baikal/workspace/C50/Huawei_IoT_Agent_Tiny_SDK_Linux//lwm2m/core/management.c ****             if (query->len != ATTR_GREATER_THAN_LEN - 1) return -1;
GAS LISTING /tmp/ccM8uVjQ.s 			page 10


 217              		.loc 1 150 0
 218 0224 807B0902 		cmpb	$2, 9(%rbx)
 219 0228 0F85FE01 		jne	.L31
 219      0000
 151:/home/baikal/workspace/C50/Huawei_IoT_Agent_Tiny_SDK_Linux//lwm2m/core/management.c **** 
 152:/home/baikal/workspace/C50/Huawei_IoT_Agent_Tiny_SDK_Linux//lwm2m/core/management.c ****             attrP->toClear |= LWM2M_ATTR_FLAG_GREATER_THAN;
 220              		.loc 1 152 0
 221 022e 83C804   		orl	$4, %eax
 222 0231 884501   		movb	%al, 1(%rbp)
 223 0234 E94F0100 		jmp	.L5
 223      00
 224              	.L10:
 153:/home/baikal/workspace/C50/Huawei_IoT_Agent_Tiny_SDK_Linux//lwm2m/core/management.c ****         }
 154:/home/baikal/workspace/C50/Huawei_IoT_Agent_Tiny_SDK_Linux//lwm2m/core/management.c ****         else if (lwm2m_strncmp((char *)query->data, ATTR_LESS_THAN_STR, ATTR_LESS_THAN_LEN) == 0)
 225              		.loc 1 154 0
 226 0239 488B7B10 		movq	16(%rbx), %rdi
 227 023d BA030000 		movl	$3, %edx
 227      00
 228 0242 BE000000 		movl	$.LC3, %esi
 228      00
 229 0247 E8000000 		call	lwm2m_strncmp
 229      00
 230              	.LVL12:
 231 024c 85C0     		testl	%eax, %eax
 232 024e 754D     		jne	.L11
 155:/home/baikal/workspace/C50/Huawei_IoT_Agent_Tiny_SDK_Linux//lwm2m/core/management.c ****         {
 156:/home/baikal/workspace/C50/Huawei_IoT_Agent_Tiny_SDK_Linux//lwm2m/core/management.c ****             if (0 != ((attrP->toSet | attrP->toClear) & LWM2M_ATTR_FLAG_LESS_THAN)) return -1;
 233              		.loc 1 156 0
 234 0250 0FB64501 		movzbl	1(%rbp), %eax
 235 0254 0A4500   		orb	0(%rbp), %al
 236 0257 A808     		testb	$8, %al
 237 0259 0F85D401 		jne	.L32
 237      0000
 157:/home/baikal/workspace/C50/Huawei_IoT_Agent_Tiny_SDK_Linux//lwm2m/core/management.c ****             if (query->len == ATTR_LESS_THAN_LEN) return -1;
 238              		.loc 1 157 0
 239 025f 0FB64309 		movzbl	9(%rbx), %eax
 240 0263 3C03     		cmpb	$3, %al
 241 0265 0F84CF01 		je	.L33
 241      0000
 158:/home/baikal/workspace/C50/Huawei_IoT_Agent_Tiny_SDK_Linux//lwm2m/core/management.c **** 
 159:/home/baikal/workspace/C50/Huawei_IoT_Agent_Tiny_SDK_Linux//lwm2m/core/management.c ****             if (1 != utils_textToFloat(query->data + ATTR_LESS_THAN_LEN, query->len - ATTR_LESS_THA
 242              		.loc 1 159 0
 243 026b 0FB6C0   		movzbl	%al, %eax
 244 026e 8D70FD   		leal	-3(%rax), %esi
 245 0271 488B4310 		movq	16(%rbx), %rax
 246 0275 488D7803 		leaq	3(%rax), %rdi
 247 0279 4889E2   		movq	%rsp, %rdx
 248 027c E8000000 		call	utils_textToFloat
 248      00
 249              	.LVL13:
 250 0281 83F801   		cmpl	$1, %eax
 251 0284 0F85B701 		jne	.L34
 251      0000
 160:/home/baikal/workspace/C50/Huawei_IoT_Agent_Tiny_SDK_Linux//lwm2m/core/management.c **** 
 161:/home/baikal/workspace/C50/Huawei_IoT_Agent_Tiny_SDK_Linux//lwm2m/core/management.c ****             attrP->toSet |= LWM2M_ATTR_FLAG_LESS_THAN;
 252              		.loc 1 161 0
 253 028a 804D0008 		orb	$8, 0(%rbp)
GAS LISTING /tmp/ccM8uVjQ.s 			page 11


 162:/home/baikal/workspace/C50/Huawei_IoT_Agent_Tiny_SDK_Linux//lwm2m/core/management.c ****             attrP->lessThan = floatValue;
 254              		.loc 1 162 0
 255 028e F20F1004 		movsd	(%rsp), %xmm0
 255      24
 256 0293 F20F1145 		movsd	%xmm0, 24(%rbp)
 256      18
 257 0298 E9EB0000 		jmp	.L5
 257      00
 258              	.L11:
 163:/home/baikal/workspace/C50/Huawei_IoT_Agent_Tiny_SDK_Linux//lwm2m/core/management.c ****         }
 164:/home/baikal/workspace/C50/Huawei_IoT_Agent_Tiny_SDK_Linux//lwm2m/core/management.c ****         else if (lwm2m_strncmp((char *)query->data, ATTR_LESS_THAN_STR, ATTR_LESS_THAN_LEN - 1) == 
 259              		.loc 1 164 0
 260 029d 488B7B10 		movq	16(%rbx), %rdi
 261 02a1 BA020000 		movl	$2, %edx
 261      00
 262 02a6 BE000000 		movl	$.LC3, %esi
 262      00
 263 02ab E8000000 		call	lwm2m_strncmp
 263      00
 264              	.LVL14:
 265 02b0 85C0     		testl	%eax, %eax
 266 02b2 7527     		jne	.L12
 165:/home/baikal/workspace/C50/Huawei_IoT_Agent_Tiny_SDK_Linux//lwm2m/core/management.c ****         {
 166:/home/baikal/workspace/C50/Huawei_IoT_Agent_Tiny_SDK_Linux//lwm2m/core/management.c ****             if (0 != ((attrP->toSet | attrP->toClear) & LWM2M_ATTR_FLAG_LESS_THAN)) return -1;
 267              		.loc 1 166 0
 268 02b4 0FB64501 		movzbl	1(%rbp), %eax
 269 02b8 89C2     		movl	%eax, %edx
 270 02ba 0A5500   		orb	0(%rbp), %dl
 271 02bd F6C208   		testb	$8, %dl
 272 02c0 0F858201 		jne	.L35
 272      0000
 167:/home/baikal/workspace/C50/Huawei_IoT_Agent_Tiny_SDK_Linux//lwm2m/core/management.c ****             if (query->len != ATTR_LESS_THAN_LEN - 1) return -1;
 273              		.loc 1 167 0
 274 02c6 807B0902 		cmpb	$2, 9(%rbx)
 275 02ca 0F857F01 		jne	.L36
 275      0000
 168:/home/baikal/workspace/C50/Huawei_IoT_Agent_Tiny_SDK_Linux//lwm2m/core/management.c **** 
 169:/home/baikal/workspace/C50/Huawei_IoT_Agent_Tiny_SDK_Linux//lwm2m/core/management.c ****             attrP->toClear |= LWM2M_ATTR_FLAG_LESS_THAN;
 276              		.loc 1 169 0
 277 02d0 83C808   		orl	$8, %eax
 278 02d3 884501   		movb	%al, 1(%rbp)
 279 02d6 E9AD0000 		jmp	.L5
 279      00
 280              	.L12:
 170:/home/baikal/workspace/C50/Huawei_IoT_Agent_Tiny_SDK_Linux//lwm2m/core/management.c ****         }
 171:/home/baikal/workspace/C50/Huawei_IoT_Agent_Tiny_SDK_Linux//lwm2m/core/management.c ****         else if (lwm2m_strncmp((char *)query->data, ATTR_STEP_STR, ATTR_STEP_LEN) == 0)
 281              		.loc 1 171 0
 282 02db 488B7B10 		movq	16(%rbx), %rdi
 283 02df BA030000 		movl	$3, %edx
 283      00
 284 02e4 BE000000 		movl	$.LC4, %esi
 284      00
 285 02e9 E8000000 		call	lwm2m_strncmp
 285      00
 286              	.LVL15:
 287 02ee 85C0     		testl	%eax, %eax
 288 02f0 7559     		jne	.L13
GAS LISTING /tmp/ccM8uVjQ.s 			page 12


 172:/home/baikal/workspace/C50/Huawei_IoT_Agent_Tiny_SDK_Linux//lwm2m/core/management.c ****         {
 173:/home/baikal/workspace/C50/Huawei_IoT_Agent_Tiny_SDK_Linux//lwm2m/core/management.c ****             if (0 != ((attrP->toSet | attrP->toClear) & LWM2M_ATTR_FLAG_STEP)) return -1;
 289              		.loc 1 173 0
 290 02f2 0FB64501 		movzbl	1(%rbp), %eax
 291 02f6 0A4500   		orb	0(%rbp), %al
 292 02f9 A810     		testb	$16, %al
 293 02fb 0F855501 		jne	.L37
 293      0000
 174:/home/baikal/workspace/C50/Huawei_IoT_Agent_Tiny_SDK_Linux//lwm2m/core/management.c ****             if (query->len == ATTR_STEP_LEN) return -1;
 294              		.loc 1 174 0
 295 0301 0FB64309 		movzbl	9(%rbx), %eax
 296 0305 3C03     		cmpb	$3, %al
 297 0307 0F845001 		je	.L38
 297      0000
 175:/home/baikal/workspace/C50/Huawei_IoT_Agent_Tiny_SDK_Linux//lwm2m/core/management.c **** 
 176:/home/baikal/workspace/C50/Huawei_IoT_Agent_Tiny_SDK_Linux//lwm2m/core/management.c ****             if (1 != utils_textToFloat(query->data + ATTR_STEP_LEN, query->len - ATTR_STEP_LEN, &fl
 298              		.loc 1 176 0
 299 030d 0FB6C0   		movzbl	%al, %eax
 300 0310 8D70FD   		leal	-3(%rax), %esi
 301 0313 488B4310 		movq	16(%rbx), %rax
 302 0317 488D7803 		leaq	3(%rax), %rdi
 303 031b 4889E2   		movq	%rsp, %rdx
 304 031e E8000000 		call	utils_textToFloat
 304      00
 305              	.LVL16:
 306 0323 83F801   		cmpl	$1, %eax
 307 0326 0F853801 		jne	.L39
 307      0000
 177:/home/baikal/workspace/C50/Huawei_IoT_Agent_Tiny_SDK_Linux//lwm2m/core/management.c ****             if (floatValue < 0) return -1;
 308              		.loc 1 177 0
 309 032c 660FEFC0 		pxor	%xmm0, %xmm0
 310 0330 660F2E04 		ucomisd	(%rsp), %xmm0
 310      24
 311 0335 0F873001 		ja	.L40
 311      0000
 178:/home/baikal/workspace/C50/Huawei_IoT_Agent_Tiny_SDK_Linux//lwm2m/core/management.c **** 
 179:/home/baikal/workspace/C50/Huawei_IoT_Agent_Tiny_SDK_Linux//lwm2m/core/management.c ****             attrP->toSet |= LWM2M_ATTR_FLAG_STEP;
 312              		.loc 1 179 0
 313 033b 804D0010 		orb	$16, 0(%rbp)
 180:/home/baikal/workspace/C50/Huawei_IoT_Agent_Tiny_SDK_Linux//lwm2m/core/management.c ****             attrP->step = floatValue;
 314              		.loc 1 180 0
 315 033f F20F1004 		movsd	(%rsp), %xmm0
 315      24
 316 0344 F20F1145 		movsd	%xmm0, 32(%rbp)
 316      20
 317 0349 EB3D     		jmp	.L5
 318              	.L13:
 181:/home/baikal/workspace/C50/Huawei_IoT_Agent_Tiny_SDK_Linux//lwm2m/core/management.c ****         }
 182:/home/baikal/workspace/C50/Huawei_IoT_Agent_Tiny_SDK_Linux//lwm2m/core/management.c ****         else if (lwm2m_strncmp((char *)query->data, ATTR_STEP_STR, ATTR_STEP_LEN - 1) == 0)
 319              		.loc 1 182 0
 320 034b 488B7B10 		movq	16(%rbx), %rdi
 321 034f BA020000 		movl	$2, %edx
 321      00
 322 0354 BE000000 		movl	$.LC4, %esi
 322      00
 323 0359 E8000000 		call	lwm2m_strncmp
 323      00
GAS LISTING /tmp/ccM8uVjQ.s 			page 13


 324              	.LVL17:
 325 035e 85C0     		testl	%eax, %eax
 326 0360 0F850C01 		jne	.L41
 326      0000
 183:/home/baikal/workspace/C50/Huawei_IoT_Agent_Tiny_SDK_Linux//lwm2m/core/management.c ****         {
 184:/home/baikal/workspace/C50/Huawei_IoT_Agent_Tiny_SDK_Linux//lwm2m/core/management.c ****             if (0 != ((attrP->toSet | attrP->toClear) & LWM2M_ATTR_FLAG_STEP)) return -1;
 327              		.loc 1 184 0
 328 0366 0FB64501 		movzbl	1(%rbp), %eax
 329 036a 89C2     		movl	%eax, %edx
 330 036c 0A5500   		orb	0(%rbp), %dl
 331 036f F6C210   		testb	$16, %dl
 332 0372 0F850101 		jne	.L42
 332      0000
 185:/home/baikal/workspace/C50/Huawei_IoT_Agent_Tiny_SDK_Linux//lwm2m/core/management.c ****             if (query->len != ATTR_STEP_LEN - 1) return -1;
 333              		.loc 1 185 0
 334 0378 807B0902 		cmpb	$2, 9(%rbx)
 335 037c 0F85FE00 		jne	.L43
 335      0000
 186:/home/baikal/workspace/C50/Huawei_IoT_Agent_Tiny_SDK_Linux//lwm2m/core/management.c **** 
 187:/home/baikal/workspace/C50/Huawei_IoT_Agent_Tiny_SDK_Linux//lwm2m/core/management.c ****             attrP->toClear |= LWM2M_ATTR_FLAG_STEP;
 336              		.loc 1 187 0
 337 0382 83C810   		orl	$16, %eax
 338 0385 884501   		movb	%al, 1(%rbp)
 339              	.L5:
 188:/home/baikal/workspace/C50/Huawei_IoT_Agent_Tiny_SDK_Linux//lwm2m/core/management.c ****         }
 189:/home/baikal/workspace/C50/Huawei_IoT_Agent_Tiny_SDK_Linux//lwm2m/core/management.c ****         else return -1;
 190:/home/baikal/workspace/C50/Huawei_IoT_Agent_Tiny_SDK_Linux//lwm2m/core/management.c **** 
 191:/home/baikal/workspace/C50/Huawei_IoT_Agent_Tiny_SDK_Linux//lwm2m/core/management.c ****         query = query->next;
 340              		.loc 1 191 0
 341 0388 488B1B   		movq	(%rbx), %rbx
 342              	.LVL18:
 343              	.L2:
  99:/home/baikal/workspace/C50/Huawei_IoT_Agent_Tiny_SDK_Linux//lwm2m/core/management.c ****     {
 344              		.loc 1 99 0
 345 038b 4885DB   		testq	%rbx, %rbx
 346 038e 0F85A4FC 		jne	.L14
 346      FFFF
 192:/home/baikal/workspace/C50/Huawei_IoT_Agent_Tiny_SDK_Linux//lwm2m/core/management.c ****     }
 193:/home/baikal/workspace/C50/Huawei_IoT_Agent_Tiny_SDK_Linux//lwm2m/core/management.c **** 
 194:/home/baikal/workspace/C50/Huawei_IoT_Agent_Tiny_SDK_Linux//lwm2m/core/management.c ****     return 0;
 347              		.loc 1 194 0
 348 0394 B8000000 		movl	$0, %eax
 348      00
 349 0399 E9E70000 		jmp	.L4
 349      00
 350              	.L15:
 103:/home/baikal/workspace/C50/Huawei_IoT_Agent_Tiny_SDK_Linux//lwm2m/core/management.c ****             if (query->len == ATTR_MIN_PERIOD_LEN) return -1;
 351              		.loc 1 103 0
 352 039e B8FFFFFF 		movl	$-1, %eax
 352      FF
 353 03a3 E9DD0000 		jmp	.L4
 353      00
 354              	.L16:
 104:/home/baikal/workspace/C50/Huawei_IoT_Agent_Tiny_SDK_Linux//lwm2m/core/management.c **** 
 355              		.loc 1 104 0
 356 03a8 B8FFFFFF 		movl	$-1, %eax
 356      FF
GAS LISTING /tmp/ccM8uVjQ.s 			page 14


 357 03ad E9D30000 		jmp	.L4
 357      00
 358              	.L17:
 106:/home/baikal/workspace/C50/Huawei_IoT_Agent_Tiny_SDK_Linux//lwm2m/core/management.c ****             if (intValue < 0) return -1;
 359              		.loc 1 106 0
 360 03b2 B8FFFFFF 		movl	$-1, %eax
 360      FF
 361 03b7 E9C90000 		jmp	.L4
 361      00
 362              	.L18:
 107:/home/baikal/workspace/C50/Huawei_IoT_Agent_Tiny_SDK_Linux//lwm2m/core/management.c **** 
 363              		.loc 1 107 0
 364 03bc B8FFFFFF 		movl	$-1, %eax
 364      FF
 365 03c1 E9BF0000 		jmp	.L4
 365      00
 366              	.L19:
 114:/home/baikal/workspace/C50/Huawei_IoT_Agent_Tiny_SDK_Linux//lwm2m/core/management.c ****             if (query->len != ATTR_MIN_PERIOD_LEN - 1) return -1;
 367              		.loc 1 114 0
 368 03c6 B8FFFFFF 		movl	$-1, %eax
 368      FF
 369 03cb E9B50000 		jmp	.L4
 369      00
 370              	.L20:
 115:/home/baikal/workspace/C50/Huawei_IoT_Agent_Tiny_SDK_Linux//lwm2m/core/management.c **** 
 371              		.loc 1 115 0
 372 03d0 B8FFFFFF 		movl	$-1, %eax
 372      FF
 373 03d5 E9AB0000 		jmp	.L4
 373      00
 374              	.L21:
 121:/home/baikal/workspace/C50/Huawei_IoT_Agent_Tiny_SDK_Linux//lwm2m/core/management.c ****             if (query->len == ATTR_MAX_PERIOD_LEN) return -1;
 375              		.loc 1 121 0
 376 03da B8FFFFFF 		movl	$-1, %eax
 376      FF
 377 03df E9A10000 		jmp	.L4
 377      00
 378              	.L22:
 122:/home/baikal/workspace/C50/Huawei_IoT_Agent_Tiny_SDK_Linux//lwm2m/core/management.c **** 
 379              		.loc 1 122 0
 380 03e4 B8FFFFFF 		movl	$-1, %eax
 380      FF
 381 03e9 E9970000 		jmp	.L4
 381      00
 382              	.L23:
 124:/home/baikal/workspace/C50/Huawei_IoT_Agent_Tiny_SDK_Linux//lwm2m/core/management.c ****             if (intValue < 0) return -1;
 383              		.loc 1 124 0
 384 03ee B8FFFFFF 		movl	$-1, %eax
 384      FF
 385 03f3 E98D0000 		jmp	.L4
 385      00
 386              	.L24:
 125:/home/baikal/workspace/C50/Huawei_IoT_Agent_Tiny_SDK_Linux//lwm2m/core/management.c **** 
 387              		.loc 1 125 0
 388 03f8 B8FFFFFF 		movl	$-1, %eax
 388      FF
 389 03fd E9830000 		jmp	.L4
GAS LISTING /tmp/ccM8uVjQ.s 			page 15


 389      00
 390              	.L25:
 132:/home/baikal/workspace/C50/Huawei_IoT_Agent_Tiny_SDK_Linux//lwm2m/core/management.c ****             if (query->len != ATTR_MAX_PERIOD_LEN - 1) return -1;
 391              		.loc 1 132 0
 392 0402 B8FFFFFF 		movl	$-1, %eax
 392      FF
 393 0407 EB7C     		jmp	.L4
 394              	.L26:
 133:/home/baikal/workspace/C50/Huawei_IoT_Agent_Tiny_SDK_Linux//lwm2m/core/management.c **** 
 395              		.loc 1 133 0
 396 0409 B8FFFFFF 		movl	$-1, %eax
 396      FF
 397 040e EB75     		jmp	.L4
 398              	.L27:
 139:/home/baikal/workspace/C50/Huawei_IoT_Agent_Tiny_SDK_Linux//lwm2m/core/management.c ****             if (query->len == ATTR_GREATER_THAN_LEN) return -1;
 399              		.loc 1 139 0
 400 0410 B8FFFFFF 		movl	$-1, %eax
 400      FF
 401 0415 EB6E     		jmp	.L4
 402              	.L28:
 140:/home/baikal/workspace/C50/Huawei_IoT_Agent_Tiny_SDK_Linux//lwm2m/core/management.c **** 
 403              		.loc 1 140 0
 404 0417 B8FFFFFF 		movl	$-1, %eax
 404      FF
 405 041c EB67     		jmp	.L4
 406              	.L29:
 142:/home/baikal/workspace/C50/Huawei_IoT_Agent_Tiny_SDK_Linux//lwm2m/core/management.c **** 
 407              		.loc 1 142 0
 408 041e B8FFFFFF 		movl	$-1, %eax
 408      FF
 409 0423 EB60     		jmp	.L4
 410              	.L30:
 149:/home/baikal/workspace/C50/Huawei_IoT_Agent_Tiny_SDK_Linux//lwm2m/core/management.c ****             if (query->len != ATTR_GREATER_THAN_LEN - 1) return -1;
 411              		.loc 1 149 0
 412 0425 B8FFFFFF 		movl	$-1, %eax
 412      FF
 413 042a EB59     		jmp	.L4
 414              	.L31:
 150:/home/baikal/workspace/C50/Huawei_IoT_Agent_Tiny_SDK_Linux//lwm2m/core/management.c **** 
 415              		.loc 1 150 0
 416 042c B8FFFFFF 		movl	$-1, %eax
 416      FF
 417 0431 EB52     		jmp	.L4
 418              	.L32:
 156:/home/baikal/workspace/C50/Huawei_IoT_Agent_Tiny_SDK_Linux//lwm2m/core/management.c ****             if (query->len == ATTR_LESS_THAN_LEN) return -1;
 419              		.loc 1 156 0
 420 0433 B8FFFFFF 		movl	$-1, %eax
 420      FF
 421 0438 EB4B     		jmp	.L4
 422              	.L33:
 157:/home/baikal/workspace/C50/Huawei_IoT_Agent_Tiny_SDK_Linux//lwm2m/core/management.c **** 
 423              		.loc 1 157 0
 424 043a B8FFFFFF 		movl	$-1, %eax
 424      FF
 425 043f EB44     		jmp	.L4
 426              	.L34:
 159:/home/baikal/workspace/C50/Huawei_IoT_Agent_Tiny_SDK_Linux//lwm2m/core/management.c **** 
GAS LISTING /tmp/ccM8uVjQ.s 			page 16


 427              		.loc 1 159 0
 428 0441 B8FFFFFF 		movl	$-1, %eax
 428      FF
 429 0446 EB3D     		jmp	.L4
 430              	.L35:
 166:/home/baikal/workspace/C50/Huawei_IoT_Agent_Tiny_SDK_Linux//lwm2m/core/management.c ****             if (query->len != ATTR_LESS_THAN_LEN - 1) return -1;
 431              		.loc 1 166 0
 432 0448 B8FFFFFF 		movl	$-1, %eax
 432      FF
 433 044d EB36     		jmp	.L4
 434              	.L36:
 167:/home/baikal/workspace/C50/Huawei_IoT_Agent_Tiny_SDK_Linux//lwm2m/core/management.c **** 
 435              		.loc 1 167 0
 436 044f B8FFFFFF 		movl	$-1, %eax
 436      FF
 437 0454 EB2F     		jmp	.L4
 438              	.L37:
 173:/home/baikal/workspace/C50/Huawei_IoT_Agent_Tiny_SDK_Linux//lwm2m/core/management.c ****             if (query->len == ATTR_STEP_LEN) return -1;
 439              		.loc 1 173 0
 440 0456 B8FFFFFF 		movl	$-1, %eax
 440      FF
 441 045b EB28     		jmp	.L4
 442              	.L38:
 174:/home/baikal/workspace/C50/Huawei_IoT_Agent_Tiny_SDK_Linux//lwm2m/core/management.c **** 
 443              		.loc 1 174 0
 444 045d B8FFFFFF 		movl	$-1, %eax
 444      FF
 445 0462 EB21     		jmp	.L4
 446              	.L39:
 176:/home/baikal/workspace/C50/Huawei_IoT_Agent_Tiny_SDK_Linux//lwm2m/core/management.c ****             if (floatValue < 0) return -1;
 447              		.loc 1 176 0
 448 0464 B8FFFFFF 		movl	$-1, %eax
 448      FF
 449 0469 EB1A     		jmp	.L4
 450              	.L40:
 177:/home/baikal/workspace/C50/Huawei_IoT_Agent_Tiny_SDK_Linux//lwm2m/core/management.c **** 
 451              		.loc 1 177 0
 452 046b B8FFFFFF 		movl	$-1, %eax
 452      FF
 453 0470 EB13     		jmp	.L4
 454              	.L41:
 189:/home/baikal/workspace/C50/Huawei_IoT_Agent_Tiny_SDK_Linux//lwm2m/core/management.c **** 
 455              		.loc 1 189 0
 456 0472 B8FFFFFF 		movl	$-1, %eax
 456      FF
 457 0477 EB0C     		jmp	.L4
 458              	.L42:
 184:/home/baikal/workspace/C50/Huawei_IoT_Agent_Tiny_SDK_Linux//lwm2m/core/management.c ****             if (query->len != ATTR_STEP_LEN - 1) return -1;
 459              		.loc 1 184 0
 460 0479 B8FFFFFF 		movl	$-1, %eax
 460      FF
 461 047e EB05     		jmp	.L4
 462              	.L43:
 185:/home/baikal/workspace/C50/Huawei_IoT_Agent_Tiny_SDK_Linux//lwm2m/core/management.c **** 
 463              		.loc 1 185 0
 464 0480 B8FFFFFF 		movl	$-1, %eax
 464      FF
GAS LISTING /tmp/ccM8uVjQ.s 			page 17


 465              	.L4:
 195:/home/baikal/workspace/C50/Huawei_IoT_Agent_Tiny_SDK_Linux//lwm2m/core/management.c **** }
 466              		.loc 1 195 0
 467 0485 4883C418 		addq	$24, %rsp
 468              	.LCFI3:
 469              		.cfi_def_cfa_offset 24
 470 0489 5B       		popq	%rbx
 471              	.LCFI4:
 472              		.cfi_def_cfa_offset 16
 473              	.LVL19:
 474 048a 5D       		popq	%rbp
 475              	.LCFI5:
 476              		.cfi_def_cfa_offset 8
 477              	.LVL20:
 478 048b C3       		ret
 479              		.cfi_endproc
 480              	.LFE71:
 482              		.section	.rodata.str1.1
 483              	.LC6:
 484 0018 2F25642F 		.string	"/%d/%d"
 484      256400
 485              		.section	.text.dm_handleRequest,"ax",@progbits
 486              		.globl	dm_handleRequest
 488              	dm_handleRequest:
 489              	.LFB72:
 196:/home/baikal/workspace/C50/Huawei_IoT_Agent_Tiny_SDK_Linux//lwm2m/core/management.c **** 
 197:/home/baikal/workspace/C50/Huawei_IoT_Agent_Tiny_SDK_Linux//lwm2m/core/management.c **** uint8_t dm_handleRequest(lwm2m_context_t *contextP,
 198:/home/baikal/workspace/C50/Huawei_IoT_Agent_Tiny_SDK_Linux//lwm2m/core/management.c ****                          lwm2m_uri_t *uriP,
 199:/home/baikal/workspace/C50/Huawei_IoT_Agent_Tiny_SDK_Linux//lwm2m/core/management.c ****                          lwm2m_server_t *serverP,
 200:/home/baikal/workspace/C50/Huawei_IoT_Agent_Tiny_SDK_Linux//lwm2m/core/management.c ****                          coap_packet_t *message,
 201:/home/baikal/workspace/C50/Huawei_IoT_Agent_Tiny_SDK_Linux//lwm2m/core/management.c ****                          coap_packet_t *response)
 202:/home/baikal/workspace/C50/Huawei_IoT_Agent_Tiny_SDK_Linux//lwm2m/core/management.c **** {
 490              		.loc 1 202 0
 491              		.cfi_startproc
 492              	.LVL21:
 493 0000 4157     		pushq	%r15
 494              	.LCFI6:
 495              		.cfi_def_cfa_offset 16
 496              		.cfi_offset 15, -16
 497 0002 4156     		pushq	%r14
 498              	.LCFI7:
 499              		.cfi_def_cfa_offset 24
 500              		.cfi_offset 14, -24
 501 0004 4155     		pushq	%r13
 502              	.LCFI8:
 503              		.cfi_def_cfa_offset 32
 504              		.cfi_offset 13, -32
 505 0006 4154     		pushq	%r12
 506              	.LCFI9:
 507              		.cfi_def_cfa_offset 40
 508              		.cfi_offset 12, -40
 509 0008 55       		pushq	%rbp
 510              	.LCFI10:
 511              		.cfi_def_cfa_offset 48
 512              		.cfi_offset 6, -48
 513 0009 53       		pushq	%rbx
 514              	.LCFI11:
GAS LISTING /tmp/ccM8uVjQ.s 			page 18


 515              		.cfi_def_cfa_offset 56
 516              		.cfi_offset 3, -56
 517 000a 4883EC58 		subq	$88, %rsp
 518              	.LCFI12:
 519              		.cfi_def_cfa_offset 144
 520 000e 4989FE   		movq	%rdi, %r14
 521 0011 4889F3   		movq	%rsi, %rbx
 522 0014 4989D5   		movq	%rdx, %r13
 523 0017 4889CD   		movq	%rcx, %rbp
 524 001a 4D89C7   		movq	%r8, %r15
 203:/home/baikal/workspace/C50/Huawei_IoT_Agent_Tiny_SDK_Linux//lwm2m/core/management.c ****     uint8_t result;
 204:/home/baikal/workspace/C50/Huawei_IoT_Agent_Tiny_SDK_Linux//lwm2m/core/management.c ****     lwm2m_media_type_t format;
 205:/home/baikal/workspace/C50/Huawei_IoT_Agent_Tiny_SDK_Linux//lwm2m/core/management.c **** 
 206:/home/baikal/workspace/C50/Huawei_IoT_Agent_Tiny_SDK_Linux//lwm2m/core/management.c ****     LOG_ARG("Code: %02X, server status: %s", message->code, STR_STATUS(serverP->status));
 207:/home/baikal/workspace/C50/Huawei_IoT_Agent_Tiny_SDK_Linux//lwm2m/core/management.c ****     LOG_URI(uriP);
 208:/home/baikal/workspace/C50/Huawei_IoT_Agent_Tiny_SDK_Linux//lwm2m/core/management.c **** 
 209:/home/baikal/workspace/C50/Huawei_IoT_Agent_Tiny_SDK_Linux//lwm2m/core/management.c ****     if (IS_OPTION(message, COAP_OPTION_CONTENT_TYPE))
 525              		.loc 1 209 0
 526 001d F6411510 		testb	$16, 21(%rcx)
 527 0021 740E     		je	.L46
 210:/home/baikal/workspace/C50/Huawei_IoT_Agent_Tiny_SDK_Linux//lwm2m/core/management.c ****     {
 211:/home/baikal/workspace/C50/Huawei_IoT_Agent_Tiny_SDK_Linux//lwm2m/core/management.c ****         format = utils_convertMediaType(message->content_type);
 528              		.loc 1 211 0
 529 0023 8B791C   		movl	28(%rcx), %edi
 530              	.LVL22:
 531 0026 E8000000 		call	utils_convertMediaType
 531      00
 532              	.LVL23:
 533 002b 8944244C 		movl	%eax, 76(%rsp)
 534 002f EB17     		jmp	.L47
 535              	.LVL24:
 536              	.L46:
 212:/home/baikal/workspace/C50/Huawei_IoT_Agent_Tiny_SDK_Linux//lwm2m/core/management.c ****     }
 213:/home/baikal/workspace/C50/Huawei_IoT_Agent_Tiny_SDK_Linux//lwm2m/core/management.c ****     else
 214:/home/baikal/workspace/C50/Huawei_IoT_Agent_Tiny_SDK_Linux//lwm2m/core/management.c ****     {
 215:/home/baikal/workspace/C50/Huawei_IoT_Agent_Tiny_SDK_Linux//lwm2m/core/management.c ****         format = (dm_isUriOpaqueHandle(uriP) ? LWM2M_CONTENT_OPAQUE : LWM2M_CONTENT_TLV);
 537              		.loc 1 215 0
 538 0031 66837E02 		cmpw	$19, 2(%rsi)
 538      13
 539 0036 7507     		jne	.L75
 540 0038 B82A0000 		movl	$42, %eax
 540      00
 541 003d EB05     		jmp	.L48
 542              	.L75:
 543 003f B8162D00 		movl	$11542, %eax
 543      00
 544              	.L48:
 545              		.loc 1 215 0 is_stmt 0 discriminator 4
 546 0044 8944244C 		movl	%eax, 76(%rsp)
 547              	.LVL25:
 548              	.L47:
 216:/home/baikal/workspace/C50/Huawei_IoT_Agent_Tiny_SDK_Linux//lwm2m/core/management.c **** 
 217:/home/baikal/workspace/C50/Huawei_IoT_Agent_Tiny_SDK_Linux//lwm2m/core/management.c ****     }
 218:/home/baikal/workspace/C50/Huawei_IoT_Agent_Tiny_SDK_Linux//lwm2m/core/management.c **** 
 219:/home/baikal/workspace/C50/Huawei_IoT_Agent_Tiny_SDK_Linux//lwm2m/core/management.c ****     if (uriP->objectId == LWM2M_SECURITY_OBJECT_ID)
 549              		.loc 1 219 0 is_stmt 1
 550 0048 66837B02 		cmpw	$0, 2(%rbx)
GAS LISTING /tmp/ccM8uVjQ.s 			page 19


 550      00
 551 004d 0F848804 		je	.L76
 551      0000
 220:/home/baikal/workspace/C50/Huawei_IoT_Agent_Tiny_SDK_Linux//lwm2m/core/management.c ****     {
 221:/home/baikal/workspace/C50/Huawei_IoT_Agent_Tiny_SDK_Linux//lwm2m/core/management.c ****         return COAP_404_NOT_FOUND;
 222:/home/baikal/workspace/C50/Huawei_IoT_Agent_Tiny_SDK_Linux//lwm2m/core/management.c ****     }
 223:/home/baikal/workspace/C50/Huawei_IoT_Agent_Tiny_SDK_Linux//lwm2m/core/management.c **** 
 224:/home/baikal/workspace/C50/Huawei_IoT_Agent_Tiny_SDK_Linux//lwm2m/core/management.c ****     if (serverP->status != STATE_REGISTERED
 552              		.loc 1 224 0
 553 0053 418B4530 		movl	48(%r13), %eax
 225:/home/baikal/workspace/C50/Huawei_IoT_Agent_Tiny_SDK_Linux//lwm2m/core/management.c ****             && serverP->status != STATE_REG_UPDATE_NEEDED
 554              		.loc 1 225 0
 555 0057 83F802   		cmpl	$2, %eax
 556 005a 0F95C1   		setne	%cl
 557 005d 83F805   		cmpl	$5, %eax
 558 0060 0F95C2   		setne	%dl
 224:/home/baikal/workspace/C50/Huawei_IoT_Agent_Tiny_SDK_Linux//lwm2m/core/management.c ****             && serverP->status != STATE_REG_UPDATE_NEEDED
 559              		.loc 1 224 0
 560 0063 84D1     		testb	%dl, %cl
 561 0065 740E     		je	.L50
 226:/home/baikal/workspace/C50/Huawei_IoT_Agent_Tiny_SDK_Linux//lwm2m/core/management.c ****             && serverP->status != STATE_REG_FULL_UPDATE_NEEDED
 562              		.loc 1 226 0
 563 0067 83F806   		cmpl	$6, %eax
 564 006a 7409     		je	.L50
 227:/home/baikal/workspace/C50/Huawei_IoT_Agent_Tiny_SDK_Linux//lwm2m/core/management.c ****             && serverP->status != STATE_REG_UPDATE_PENDING)
 565              		.loc 1 227 0
 566 006c 83F804   		cmpl	$4, %eax
 567 006f 0F856D04 		jne	.L77
 567      0000
 568              	.L50:
 228:/home/baikal/workspace/C50/Huawei_IoT_Agent_Tiny_SDK_Linux//lwm2m/core/management.c ****     {
 229:/home/baikal/workspace/C50/Huawei_IoT_Agent_Tiny_SDK_Linux//lwm2m/core/management.c ****         return COAP_IGNORE;
 230:/home/baikal/workspace/C50/Huawei_IoT_Agent_Tiny_SDK_Linux//lwm2m/core/management.c ****     }
 231:/home/baikal/workspace/C50/Huawei_IoT_Agent_Tiny_SDK_Linux//lwm2m/core/management.c **** 
 232:/home/baikal/workspace/C50/Huawei_IoT_Agent_Tiny_SDK_Linux//lwm2m/core/management.c ****     switch (message->code)
 569              		.loc 1 232 0
 570 0075 0FB64510 		movzbl	16(%rbp), %eax
 571 0079 3C02     		cmpb	$2, %al
 572 007b 0F842A02 		je	.L51
 572      0000
 573 0081 3C02     		cmpb	$2, %al
 574 0083 7709     		ja	.L52
 575 0085 3C01     		cmpb	$1, %al
 576 0087 741A     		je	.L53
 577 0089 E95B0400 		jmp	.L78
 577      00
 578              	.L52:
 579 008e 3C03     		cmpb	$3, %al
 580 0090 0F845B03 		je	.L54
 580      0000
 581 0096 3C04     		cmpb	$4, %al
 582 0098 0F84F303 		je	.L55
 582      0000
 583 009e E9460400 		jmp	.L78
 583      00
 584              	.L53:
 585              	.LBB22:
GAS LISTING /tmp/ccM8uVjQ.s 			page 20


 233:/home/baikal/workspace/C50/Huawei_IoT_Agent_Tiny_SDK_Linux//lwm2m/core/management.c ****     {
 234:/home/baikal/workspace/C50/Huawei_IoT_Agent_Tiny_SDK_Linux//lwm2m/core/management.c ****     case COAP_GET:
 235:/home/baikal/workspace/C50/Huawei_IoT_Agent_Tiny_SDK_Linux//lwm2m/core/management.c ****     {
 236:/home/baikal/workspace/C50/Huawei_IoT_Agent_Tiny_SDK_Linux//lwm2m/core/management.c ****         uint8_t *buffer = NULL;
 586              		.loc 1 236 0
 587 00a3 48C74424 		movq	$0, 16(%rsp)
 587      10000000 
 587      00
 237:/home/baikal/workspace/C50/Huawei_IoT_Agent_Tiny_SDK_Linux//lwm2m/core/management.c ****         size_t length = 0;
 588              		.loc 1 237 0
 589 00ac 48C74424 		movq	$0, 24(%rsp)
 589      18000000 
 589      00
 238:/home/baikal/workspace/C50/Huawei_IoT_Agent_Tiny_SDK_Linux//lwm2m/core/management.c ****         int res;
 239:/home/baikal/workspace/C50/Huawei_IoT_Agent_Tiny_SDK_Linux//lwm2m/core/management.c **** 
 240:/home/baikal/workspace/C50/Huawei_IoT_Agent_Tiny_SDK_Linux//lwm2m/core/management.c ****         if (IS_OPTION(message, COAP_OPTION_OBSERVE))
 590              		.loc 1 240 0
 591 00b5 F6451440 		testb	$64, 20(%rbp)
 592 00b9 0F840801 		je	.L56
 592      0000
 593              	.LBB23:
 241:/home/baikal/workspace/C50/Huawei_IoT_Agent_Tiny_SDK_Linux//lwm2m/core/management.c ****         {
 242:/home/baikal/workspace/C50/Huawei_IoT_Agent_Tiny_SDK_Linux//lwm2m/core/management.c ****             lwm2m_data_t *dataP = NULL;
 594              		.loc 1 242 0
 595 00bf 48C74424 		movq	$0, 32(%rsp)
 595      20000000 
 595      00
 243:/home/baikal/workspace/C50/Huawei_IoT_Agent_Tiny_SDK_Linux//lwm2m/core/management.c ****             int size = 0;
 596              		.loc 1 243 0
 597 00c8 C744240C 		movl	$0, 12(%rsp)
 597      00000000 
 244:/home/baikal/workspace/C50/Huawei_IoT_Agent_Tiny_SDK_Linux//lwm2m/core/management.c **** 
 245:/home/baikal/workspace/C50/Huawei_IoT_Agent_Tiny_SDK_Linux//lwm2m/core/management.c ****             if ((result = acc_auth_operate(contextP, uriP, OBJ_ACC_OBSERVE, serverP->shortID)) != C
 598              		.loc 1 245 0
 599 00d0 410FB74D 		movzwl	10(%r13), %ecx
 599      0A
 600 00d5 BA000000 		movl	$0, %edx
 600      00
 601 00da 4889DE   		movq	%rbx, %rsi
 602 00dd 4C89F7   		movq	%r14, %rdi
 603 00e0 E8000000 		call	acc_auth_operate
 603      00
 604              	.LVL26:
 605 00e5 84C0     		testb	%al, %al
 606 00e7 0F851304 		jne	.L49
 606      0000
 246:/home/baikal/workspace/C50/Huawei_IoT_Agent_Tiny_SDK_Linux//lwm2m/core/management.c ****             {
 247:/home/baikal/workspace/C50/Huawei_IoT_Agent_Tiny_SDK_Linux//lwm2m/core/management.c ****                 return result;
 248:/home/baikal/workspace/C50/Huawei_IoT_Agent_Tiny_SDK_Linux//lwm2m/core/management.c ****             }
 249:/home/baikal/workspace/C50/Huawei_IoT_Agent_Tiny_SDK_Linux//lwm2m/core/management.c **** 
 250:/home/baikal/workspace/C50/Huawei_IoT_Agent_Tiny_SDK_Linux//lwm2m/core/management.c ****             result = object_readData(contextP, uriP, &size, &dataP, NULL, serverP->shortID);
 607              		.loc 1 250 0
 608 00ed 450FB74D 		movzwl	10(%r13), %r9d
 608      0A
 609 00f2 41B80000 		movl	$0, %r8d
 609      0000
 610 00f8 488D4C24 		leaq	32(%rsp), %rcx
GAS LISTING /tmp/ccM8uVjQ.s 			page 21


 610      20
 611 00fd 488D5424 		leaq	12(%rsp), %rdx
 611      0C
 612 0102 4889DE   		movq	%rbx, %rsi
 613 0105 4C89F7   		movq	%r14, %rdi
 614 0108 E8000000 		call	object_readData
 614      00
 615              	.LVL27:
 616 010d 4189C4   		movl	%eax, %r12d
 617              	.LVL28:
 251:/home/baikal/workspace/C50/Huawei_IoT_Agent_Tiny_SDK_Linux//lwm2m/core/management.c ****             if (COAP_205_CONTENT == result)
 618              		.loc 1 251 0
 619 0110 3C45     		cmpb	$69, %al
 620 0112 0F855B01 		jne	.L64
 620      0000
 252:/home/baikal/workspace/C50/Huawei_IoT_Agent_Tiny_SDK_Linux//lwm2m/core/management.c ****             {
 253:/home/baikal/workspace/C50/Huawei_IoT_Agent_Tiny_SDK_Linux//lwm2m/core/management.c ****                 result = observe_handleRequest(contextP, uriP, serverP, size, dataP, message, respo
 621              		.loc 1 253 0
 622 0118 4883EC08 		subq	$8, %rsp
 623              	.LCFI13:
 624              		.cfi_def_cfa_offset 152
 625 011c 4157     		pushq	%r15
 626              	.LCFI14:
 627              		.cfi_def_cfa_offset 160
 628 011e 4989E9   		movq	%rbp, %r9
 629 0121 4C8B4424 		movq	48(%rsp), %r8
 629      30
 630 0126 8B4C241C 		movl	28(%rsp), %ecx
 631 012a 4C89EA   		movq	%r13, %rdx
 632 012d 4889DE   		movq	%rbx, %rsi
 633 0130 4C89F7   		movq	%r14, %rdi
 634 0133 E8000000 		call	observe_handleRequest
 634      00
 635              	.LVL29:
 636 0138 4189C4   		movl	%eax, %r12d
 637              	.LVL30:
 254:/home/baikal/workspace/C50/Huawei_IoT_Agent_Tiny_SDK_Linux//lwm2m/core/management.c ****                 if (COAP_205_CONTENT == result)
 638              		.loc 1 254 0
 639 013b 4883C410 		addq	$16, %rsp
 640              	.LCFI15:
 641              		.cfi_def_cfa_offset 144
 642 013f 3C45     		cmpb	$69, %al
 643 0141 7571     		jne	.L60
 255:/home/baikal/workspace/C50/Huawei_IoT_Agent_Tiny_SDK_Linux//lwm2m/core/management.c ****                 {
 256:/home/baikal/workspace/C50/Huawei_IoT_Agent_Tiny_SDK_Linux//lwm2m/core/management.c ****                     if (IS_OPTION(message, COAP_OPTION_ACCEPT))
 644              		.loc 1 256 0
 645 0143 F6451602 		testb	$2, 22(%rbp)
 646 0147 7412     		je	.L61
 257:/home/baikal/workspace/C50/Huawei_IoT_Agent_Tiny_SDK_Linux//lwm2m/core/management.c ****                     {
 258:/home/baikal/workspace/C50/Huawei_IoT_Agent_Tiny_SDK_Linux//lwm2m/core/management.c ****                         format = utils_convertMediaType((coap_content_type_t)message->accept[0]);
 647              		.loc 1 258 0
 648 0149 0FB7BD8E 		movzwl	142(%rbp), %edi
 648      000000
 649 0150 E8000000 		call	utils_convertMediaType
 649      00
 650              	.LVL31:
 651 0155 8944244C 		movl	%eax, 76(%rsp)
GAS LISTING /tmp/ccM8uVjQ.s 			page 22


 652 0159 EB08     		jmp	.L62
 653              	.LVL32:
 654              	.L61:
 259:/home/baikal/workspace/C50/Huawei_IoT_Agent_Tiny_SDK_Linux//lwm2m/core/management.c ****                     }
 260:/home/baikal/workspace/C50/Huawei_IoT_Agent_Tiny_SDK_Linux//lwm2m/core/management.c ****                     else
 261:/home/baikal/workspace/C50/Huawei_IoT_Agent_Tiny_SDK_Linux//lwm2m/core/management.c ****                     {
 262:/home/baikal/workspace/C50/Huawei_IoT_Agent_Tiny_SDK_Linux//lwm2m/core/management.c ****                         format = LWM2M_CONTENT_TLV;
 655              		.loc 1 262 0
 656 015b C744244C 		movl	$11542, 76(%rsp)
 656      162D0000 
 657              	.LVL33:
 658              	.L62:
 263:/home/baikal/workspace/C50/Huawei_IoT_Agent_Tiny_SDK_Linux//lwm2m/core/management.c ****                     }
 264:/home/baikal/workspace/C50/Huawei_IoT_Agent_Tiny_SDK_Linux//lwm2m/core/management.c **** 
 265:/home/baikal/workspace/C50/Huawei_IoT_Agent_Tiny_SDK_Linux//lwm2m/core/management.c ****                     if(dm_isUriOpaqueHandle(uriP))
 659              		.loc 1 265 0
 660 0163 66837B02 		cmpw	$19, 2(%rbx)
 660      13
 661 0168 751C     		jne	.L63
 266:/home/baikal/workspace/C50/Huawei_IoT_Agent_Tiny_SDK_Linux//lwm2m/core/management.c ****                     {
 267:/home/baikal/workspace/C50/Huawei_IoT_Agent_Tiny_SDK_Linux//lwm2m/core/management.c ****                         buffer = NULL;
 662              		.loc 1 267 0
 663 016a 48C74424 		movq	$0, 16(%rsp)
 663      10000000 
 663      00
 268:/home/baikal/workspace/C50/Huawei_IoT_Agent_Tiny_SDK_Linux//lwm2m/core/management.c ****                         length = 0;
 664              		.loc 1 268 0
 665 0173 48C74424 		movq	$0, 24(%rsp)
 665      18000000 
 665      00
 269:/home/baikal/workspace/C50/Huawei_IoT_Agent_Tiny_SDK_Linux//lwm2m/core/management.c ****                         format = LWM2M_CONTENT_OPAQUE;
 666              		.loc 1 269 0
 667 017c C744244C 		movl	$42, 76(%rsp)
 667      2A000000 
 668 0184 EB2E     		jmp	.L60
 669              	.L63:
 270:/home/baikal/workspace/C50/Huawei_IoT_Agent_Tiny_SDK_Linux//lwm2m/core/management.c ****                     }
 271:/home/baikal/workspace/C50/Huawei_IoT_Agent_Tiny_SDK_Linux//lwm2m/core/management.c ****                     else
 272:/home/baikal/workspace/C50/Huawei_IoT_Agent_Tiny_SDK_Linux//lwm2m/core/management.c ****                     {
 273:/home/baikal/workspace/C50/Huawei_IoT_Agent_Tiny_SDK_Linux//lwm2m/core/management.c ****                         res = lwm2m_data_serialize(uriP, size, dataP, &format, &buffer);
 670              		.loc 1 273 0
 671 0186 4C8D4424 		leaq	16(%rsp), %r8
 671      10
 672 018b 488D4C24 		leaq	76(%rsp), %rcx
 672      4C
 673 0190 488B5424 		movq	32(%rsp), %rdx
 673      20
 674 0195 8B74240C 		movl	12(%rsp), %esi
 675 0199 4889DF   		movq	%rbx, %rdi
 676 019c E8000000 		call	lwm2m_data_serialize
 676      00
 677              	.LVL34:
 274:/home/baikal/workspace/C50/Huawei_IoT_Agent_Tiny_SDK_Linux//lwm2m/core/management.c ****                         if (res < 0)
 678              		.loc 1 274 0
 679 01a1 85C0     		testl	%eax, %eax
 680 01a3 7809     		js	.L79
 275:/home/baikal/workspace/C50/Huawei_IoT_Agent_Tiny_SDK_Linux//lwm2m/core/management.c ****                         {
GAS LISTING /tmp/ccM8uVjQ.s 			page 23


 276:/home/baikal/workspace/C50/Huawei_IoT_Agent_Tiny_SDK_Linux//lwm2m/core/management.c ****                             result = COAP_500_INTERNAL_SERVER_ERROR;
 277:/home/baikal/workspace/C50/Huawei_IoT_Agent_Tiny_SDK_Linux//lwm2m/core/management.c ****                         }
 278:/home/baikal/workspace/C50/Huawei_IoT_Agent_Tiny_SDK_Linux//lwm2m/core/management.c ****                         else
 279:/home/baikal/workspace/C50/Huawei_IoT_Agent_Tiny_SDK_Linux//lwm2m/core/management.c ****                         {
 280:/home/baikal/workspace/C50/Huawei_IoT_Agent_Tiny_SDK_Linux//lwm2m/core/management.c ****                             length = (size_t)res;
 681              		.loc 1 280 0
 682 01a5 4898     		cltq
 683 01a7 48894424 		movq	%rax, 24(%rsp)
 683      18
 684 01ac EB06     		jmp	.L60
 685              	.L79:
 276:/home/baikal/workspace/C50/Huawei_IoT_Agent_Tiny_SDK_Linux//lwm2m/core/management.c ****                         }
 686              		.loc 1 276 0
 687 01ae 41BCA0FF 		movl	$-96, %r12d
 687      FFFF
 688              	.LVL35:
 689              	.L60:
 281:/home/baikal/workspace/C50/Huawei_IoT_Agent_Tiny_SDK_Linux//lwm2m/core/management.c ****                             LOG_ARG("Observe Request[/%d/%d/%d]: %.*s\n", uriP->objectId, uriP->ins
 282:/home/baikal/workspace/C50/Huawei_IoT_Agent_Tiny_SDK_Linux//lwm2m/core/management.c ****                         }
 283:/home/baikal/workspace/C50/Huawei_IoT_Agent_Tiny_SDK_Linux//lwm2m/core/management.c ****                     }
 284:/home/baikal/workspace/C50/Huawei_IoT_Agent_Tiny_SDK_Linux//lwm2m/core/management.c ****                 }
 285:/home/baikal/workspace/C50/Huawei_IoT_Agent_Tiny_SDK_Linux//lwm2m/core/management.c ****                 lwm2m_data_free(size, dataP);
 690              		.loc 1 285 0
 691 01b4 488B7424 		movq	32(%rsp), %rsi
 691      20
 692 01b9 8B7C240C 		movl	12(%rsp), %edi
 693 01bd E8000000 		call	lwm2m_data_free
 693      00
 694              	.LVL36:
 695 01c2 E9AC0000 		jmp	.L64
 695      00
 696              	.LVL37:
 697              	.L56:
 698              	.LBE23:
 286:/home/baikal/workspace/C50/Huawei_IoT_Agent_Tiny_SDK_Linux//lwm2m/core/management.c ****             }
 287:/home/baikal/workspace/C50/Huawei_IoT_Agent_Tiny_SDK_Linux//lwm2m/core/management.c ****         }
 288:/home/baikal/workspace/C50/Huawei_IoT_Agent_Tiny_SDK_Linux//lwm2m/core/management.c ****         else if (IS_OPTION(message, COAP_OPTION_ACCEPT)
 699              		.loc 1 288 0
 700 01c7 F6451602 		testb	$2, 22(%rbp)
 701 01cb 7451     		je	.L65
 289:/home/baikal/workspace/C50/Huawei_IoT_Agent_Tiny_SDK_Linux//lwm2m/core/management.c ****                  && message->accept_num == 1
 290:/home/baikal/workspace/C50/Huawei_IoT_Agent_Tiny_SDK_Linux//lwm2m/core/management.c ****                  && message->accept[0] == APPLICATION_LINK_FORMAT)
 702              		.loc 1 290 0
 703 01cd 8B858C00 		movl	140(%rbp), %eax
 703      0000
 704 01d3 B000     		movb	$0, %al
 705 01d5 3D000128 		cmpl	$2621696, %eax
 705      00
 706 01da 7542     		jne	.L65
 291:/home/baikal/workspace/C50/Huawei_IoT_Agent_Tiny_SDK_Linux//lwm2m/core/management.c ****         {
 292:/home/baikal/workspace/C50/Huawei_IoT_Agent_Tiny_SDK_Linux//lwm2m/core/management.c ****             if ((result = acc_auth_operate(contextP, uriP, OBJ_ACC_DISCOVER, serverP->shortID)) != 
 707              		.loc 1 292 0
 708 01dc 410FB74D 		movzwl	10(%r13), %ecx
 708      0A
 709 01e1 BA050000 		movl	$5, %edx
 709      00
 710 01e6 4889DE   		movq	%rbx, %rsi
GAS LISTING /tmp/ccM8uVjQ.s 			page 24


 711 01e9 4C89F7   		movq	%r14, %rdi
 712 01ec E8000000 		call	acc_auth_operate
 712      00
 713              	.LVL38:
 714 01f1 84C0     		testb	%al, %al
 715 01f3 0F850703 		jne	.L49
 715      0000
 293:/home/baikal/workspace/C50/Huawei_IoT_Agent_Tiny_SDK_Linux//lwm2m/core/management.c ****             {
 294:/home/baikal/workspace/C50/Huawei_IoT_Agent_Tiny_SDK_Linux//lwm2m/core/management.c ****                 return result;
 295:/home/baikal/workspace/C50/Huawei_IoT_Agent_Tiny_SDK_Linux//lwm2m/core/management.c ****             }
 296:/home/baikal/workspace/C50/Huawei_IoT_Agent_Tiny_SDK_Linux//lwm2m/core/management.c ****             format = LWM2M_CONTENT_LINK;
 716              		.loc 1 296 0
 717 01f9 C744244C 		movl	$40, 76(%rsp)
 717      28000000 
 297:/home/baikal/workspace/C50/Huawei_IoT_Agent_Tiny_SDK_Linux//lwm2m/core/management.c ****             result = object_discover(contextP, uriP, serverP, &buffer, &length);
 718              		.loc 1 297 0
 719 0201 4C8D4424 		leaq	24(%rsp), %r8
 719      18
 720 0206 488D4C24 		leaq	16(%rsp), %rcx
 720      10
 721 020b 4C89EA   		movq	%r13, %rdx
 722 020e 4889DE   		movq	%rbx, %rsi
 723 0211 4C89F7   		movq	%r14, %rdi
 724 0214 E8000000 		call	object_discover
 724      00
 725              	.LVL39:
 726 0219 4189C4   		movl	%eax, %r12d
 727              	.LVL40:
 728 021c EB55     		jmp	.L64
 729              	.LVL41:
 730              	.L65:
 298:/home/baikal/workspace/C50/Huawei_IoT_Agent_Tiny_SDK_Linux//lwm2m/core/management.c ****         }
 299:/home/baikal/workspace/C50/Huawei_IoT_Agent_Tiny_SDK_Linux//lwm2m/core/management.c ****         else
 300:/home/baikal/workspace/C50/Huawei_IoT_Agent_Tiny_SDK_Linux//lwm2m/core/management.c ****         {
 301:/home/baikal/workspace/C50/Huawei_IoT_Agent_Tiny_SDK_Linux//lwm2m/core/management.c ****             if ((result = acc_auth_operate(contextP, uriP, OBJ_ACC_READ, serverP->shortID)) != COAP
 731              		.loc 1 301 0
 732 021e 410FB74D 		movzwl	10(%r13), %ecx
 732      0A
 733 0223 BA000000 		movl	$0, %edx
 733      00
 734 0228 4889DE   		movq	%rbx, %rsi
 735 022b 4C89F7   		movq	%r14, %rdi
 736 022e E8000000 		call	acc_auth_operate
 736      00
 737              	.LVL42:
 738 0233 84C0     		testb	%al, %al
 739 0235 0F85C502 		jne	.L49
 739      0000
 302:/home/baikal/workspace/C50/Huawei_IoT_Agent_Tiny_SDK_Linux//lwm2m/core/management.c ****             {
 303:/home/baikal/workspace/C50/Huawei_IoT_Agent_Tiny_SDK_Linux//lwm2m/core/management.c ****                 return result;
 304:/home/baikal/workspace/C50/Huawei_IoT_Agent_Tiny_SDK_Linux//lwm2m/core/management.c ****             }
 305:/home/baikal/workspace/C50/Huawei_IoT_Agent_Tiny_SDK_Linux//lwm2m/core/management.c ****             if (IS_OPTION(message, COAP_OPTION_ACCEPT))
 740              		.loc 1 305 0
 741 023b F6451602 		testb	$2, 22(%rbp)
 742 023f 7410     		je	.L66
 306:/home/baikal/workspace/C50/Huawei_IoT_Agent_Tiny_SDK_Linux//lwm2m/core/management.c ****             {
 307:/home/baikal/workspace/C50/Huawei_IoT_Agent_Tiny_SDK_Linux//lwm2m/core/management.c ****                 format = utils_convertMediaType((coap_content_type_t)message->accept[0]);
GAS LISTING /tmp/ccM8uVjQ.s 			page 25


 743              		.loc 1 307 0
 744 0241 0FB7BD8E 		movzwl	142(%rbp), %edi
 744      000000
 745 0248 E8000000 		call	utils_convertMediaType
 745      00
 746              	.LVL43:
 747 024d 8944244C 		movl	%eax, 76(%rsp)
 748              	.L66:
 308:/home/baikal/workspace/C50/Huawei_IoT_Agent_Tiny_SDK_Linux//lwm2m/core/management.c ****             }
 309:/home/baikal/workspace/C50/Huawei_IoT_Agent_Tiny_SDK_Linux//lwm2m/core/management.c **** 
 310:/home/baikal/workspace/C50/Huawei_IoT_Agent_Tiny_SDK_Linux//lwm2m/core/management.c ****             result = object_read(contextP, uriP, &format, &buffer, &length, serverP->shortID);
 749              		.loc 1 310 0
 750 0251 450FB74D 		movzwl	10(%r13), %r9d
 750      0A
 751 0256 4C8D4424 		leaq	24(%rsp), %r8
 751      18
 752 025b 488D4C24 		leaq	16(%rsp), %rcx
 752      10
 753 0260 488D5424 		leaq	76(%rsp), %rdx
 753      4C
 754 0265 4889DE   		movq	%rbx, %rsi
 755 0268 4C89F7   		movq	%r14, %rdi
 756 026b E8000000 		call	object_read
 756      00
 757              	.LVL44:
 758 0270 4189C4   		movl	%eax, %r12d
 759              	.LVL45:
 760              	.L64:
 311:/home/baikal/workspace/C50/Huawei_IoT_Agent_Tiny_SDK_Linux//lwm2m/core/management.c ****         }
 312:/home/baikal/workspace/C50/Huawei_IoT_Agent_Tiny_SDK_Linux//lwm2m/core/management.c ****         if (COAP_205_CONTENT == result)
 761              		.loc 1 312 0
 762 0273 4180FC45 		cmpb	$69, %r12b
 763 0277 7520     		jne	.L67
 313:/home/baikal/workspace/C50/Huawei_IoT_Agent_Tiny_SDK_Linux//lwm2m/core/management.c ****         {
 314:/home/baikal/workspace/C50/Huawei_IoT_Agent_Tiny_SDK_Linux//lwm2m/core/management.c ****             coap_set_header_content_type(response, format);
 764              		.loc 1 314 0
 765 0279 8B74244C 		movl	76(%rsp), %esi
 766 027d 4C89FF   		movq	%r15, %rdi
 767 0280 E8000000 		call	coap_set_header_content_type
 767      00
 768              	.LVL46:
 315:/home/baikal/workspace/C50/Huawei_IoT_Agent_Tiny_SDK_Linux//lwm2m/core/management.c ****             coap_set_payload(response, buffer, length);
 769              		.loc 1 315 0
 770 0285 488B5424 		movq	24(%rsp), %rdx
 770      18
 771 028a 488B7424 		movq	16(%rsp), %rsi
 771      10
 772 028f 4C89FF   		movq	%r15, %rdi
 773 0292 E8000000 		call	coap_set_payload
 773      00
 774              	.LVL47:
 775 0297 EB0A     		jmp	.L68
 776              	.L67:
 316:/home/baikal/workspace/C50/Huawei_IoT_Agent_Tiny_SDK_Linux//lwm2m/core/management.c ****             // lwm2m_handle_packet will free buffer
 317:/home/baikal/workspace/C50/Huawei_IoT_Agent_Tiny_SDK_Linux//lwm2m/core/management.c ****         }
 318:/home/baikal/workspace/C50/Huawei_IoT_Agent_Tiny_SDK_Linux//lwm2m/core/management.c ****         else
 319:/home/baikal/workspace/C50/Huawei_IoT_Agent_Tiny_SDK_Linux//lwm2m/core/management.c ****         {
GAS LISTING /tmp/ccM8uVjQ.s 			page 26


 320:/home/baikal/workspace/C50/Huawei_IoT_Agent_Tiny_SDK_Linux//lwm2m/core/management.c ****             lwm2m_free(buffer);
 777              		.loc 1 320 0
 778 0299 488B7C24 		movq	16(%rsp), %rdi
 778      10
 779 029e E8000000 		call	lwm2m_free
 779      00
 780              	.LVL48:
 781              	.L68:
 782              	.LBE22:
 321:/home/baikal/workspace/C50/Huawei_IoT_Agent_Tiny_SDK_Linux//lwm2m/core/management.c ****         }
 322:/home/baikal/workspace/C50/Huawei_IoT_Agent_Tiny_SDK_Linux//lwm2m/core/management.c ****     }
 323:/home/baikal/workspace/C50/Huawei_IoT_Agent_Tiny_SDK_Linux//lwm2m/core/management.c ****     break;
 783              		.loc 1 323 0
 784 02a3 4489E0   		movl	%r12d, %eax
 785 02a6 E9550200 		jmp	.L49
 785      00
 786              	.LVL49:
 787              	.L51:
 324:/home/baikal/workspace/C50/Huawei_IoT_Agent_Tiny_SDK_Linux//lwm2m/core/management.c **** 
 325:/home/baikal/workspace/C50/Huawei_IoT_Agent_Tiny_SDK_Linux//lwm2m/core/management.c ****     case COAP_POST:
 326:/home/baikal/workspace/C50/Huawei_IoT_Agent_Tiny_SDK_Linux//lwm2m/core/management.c ****     {
 327:/home/baikal/workspace/C50/Huawei_IoT_Agent_Tiny_SDK_Linux//lwm2m/core/management.c ****         if (!LWM2M_URI_IS_SET_INSTANCE(uriP))
 788              		.loc 1 327 0
 789 02ab 0FB603   		movzbl	(%rbx), %eax
 790 02ae A802     		testb	$2, %al
 791 02b0 0F85BC00 		jne	.L69
 791      0000
 328:/home/baikal/workspace/C50/Huawei_IoT_Agent_Tiny_SDK_Linux//lwm2m/core/management.c ****         {
 329:/home/baikal/workspace/C50/Huawei_IoT_Agent_Tiny_SDK_Linux//lwm2m/core/management.c ****             if ((result = acc_auth_operate(contextP, uriP, OBJ_ACC_CREATE, serverP->shortID)) != CO
 792              		.loc 1 329 0
 793 02b6 410FB74D 		movzwl	10(%r13), %ecx
 793      0A
 794 02bb BA040000 		movl	$4, %edx
 794      00
 795 02c0 4889DE   		movq	%rbx, %rsi
 796 02c3 4C89F7   		movq	%r14, %rdi
 797 02c6 E8000000 		call	acc_auth_operate
 797      00
 798              	.LVL50:
 799 02cb 84C0     		testb	%al, %al
 800 02cd 0F852D02 		jne	.L49
 800      0000
 330:/home/baikal/workspace/C50/Huawei_IoT_Agent_Tiny_SDK_Linux//lwm2m/core/management.c ****             {
 331:/home/baikal/workspace/C50/Huawei_IoT_Agent_Tiny_SDK_Linux//lwm2m/core/management.c ****                 return result;
 332:/home/baikal/workspace/C50/Huawei_IoT_Agent_Tiny_SDK_Linux//lwm2m/core/management.c ****             }
 333:/home/baikal/workspace/C50/Huawei_IoT_Agent_Tiny_SDK_Linux//lwm2m/core/management.c ****             result = object_create(contextP, uriP, format, message->payload, message->payload_len);
 801              		.loc 1 333 0
 802 02d3 488B8DC8 		movq	200(%rbp), %rcx
 802      000000
 803 02da 440FB785 		movzwl	194(%rbp), %r8d
 803      C2000000 
 804 02e2 8B54244C 		movl	76(%rsp), %edx
 805 02e6 4889DE   		movq	%rbx, %rsi
 806 02e9 4C89F7   		movq	%r14, %rdi
 807 02ec E8000000 		call	object_create
 807      00
 808              	.LVL51:
GAS LISTING /tmp/ccM8uVjQ.s 			page 27


 809 02f1 89C5     		movl	%eax, %ebp
 810              	.LVL52:
 334:/home/baikal/workspace/C50/Huawei_IoT_Agent_Tiny_SDK_Linux//lwm2m/core/management.c ****             if (result == COAP_201_CREATED)
 811              		.loc 1 334 0
 812 02f3 3C41     		cmpb	$65, %al
 813 02f5 0F85F501 		jne	.L83
 813      0000
 814              	.LBB24:
 335:/home/baikal/workspace/C50/Huawei_IoT_Agent_Tiny_SDK_Linux//lwm2m/core/management.c ****             {
 336:/home/baikal/workspace/C50/Huawei_IoT_Agent_Tiny_SDK_Linux//lwm2m/core/management.c ****                 //longest uri is /65535/65535 = 12 + 1 (null) chars
 337:/home/baikal/workspace/C50/Huawei_IoT_Agent_Tiny_SDK_Linux//lwm2m/core/management.c ****                 char location_path[13] = "";
 815              		.loc 1 337 0
 816 02fb 48C74424 		movq	$0, 32(%rsp)
 816      20000000 
 816      00
 817 0304 C7442428 		movl	$0, 40(%rsp)
 817      00000000 
 818 030c C644242C 		movb	$0, 44(%rsp)
 818      00
 338:/home/baikal/workspace/C50/Huawei_IoT_Agent_Tiny_SDK_Linux//lwm2m/core/management.c ****                 //instanceId expected
 339:/home/baikal/workspace/C50/Huawei_IoT_Agent_Tiny_SDK_Linux//lwm2m/core/management.c ****                 if ((uriP->flag & LWM2M_URI_FLAG_INSTANCE_ID) == 0)
 819              		.loc 1 339 0
 820 0311 F60302   		testb	$2, (%rbx)
 821 0314 7452     		je	.L70
 822              	.LVL53:
 823              	.LBB25:
 824              	.LBB26:
 825              		.file 3 "/usr/include/x86_64-linux-gnu/bits/stdio2.h"
   1:/usr/include/x86_64-linux-gnu/bits/stdio2.h **** /* Checking macros for stdio functions.
   2:/usr/include/x86_64-linux-gnu/bits/stdio2.h ****    Copyright (C) 2004-2016 Free Software Foundation, Inc.
   3:/usr/include/x86_64-linux-gnu/bits/stdio2.h ****    This file is part of the GNU C Library.
   4:/usr/include/x86_64-linux-gnu/bits/stdio2.h **** 
   5:/usr/include/x86_64-linux-gnu/bits/stdio2.h ****    The GNU C Library is free software; you can redistribute it and/or
   6:/usr/include/x86_64-linux-gnu/bits/stdio2.h ****    modify it under the terms of the GNU Lesser General Public
   7:/usr/include/x86_64-linux-gnu/bits/stdio2.h ****    License as published by the Free Software Foundation; either
   8:/usr/include/x86_64-linux-gnu/bits/stdio2.h ****    version 2.1 of the License, or (at your option) any later version.
   9:/usr/include/x86_64-linux-gnu/bits/stdio2.h **** 
  10:/usr/include/x86_64-linux-gnu/bits/stdio2.h ****    The GNU C Library is distributed in the hope that it will be useful,
  11:/usr/include/x86_64-linux-gnu/bits/stdio2.h ****    but WITHOUT ANY WARRANTY; without even the implied warranty of
  12:/usr/include/x86_64-linux-gnu/bits/stdio2.h ****    MERCHANTABILITY or FITNESS FOR A PARTICULAR PURPOSE.  See the GNU
  13:/usr/include/x86_64-linux-gnu/bits/stdio2.h ****    Lesser General Public License for more details.
  14:/usr/include/x86_64-linux-gnu/bits/stdio2.h **** 
  15:/usr/include/x86_64-linux-gnu/bits/stdio2.h ****    You should have received a copy of the GNU Lesser General Public
  16:/usr/include/x86_64-linux-gnu/bits/stdio2.h ****    License along with the GNU C Library; if not, see
  17:/usr/include/x86_64-linux-gnu/bits/stdio2.h ****    <http://www.gnu.org/licenses/>.  */
  18:/usr/include/x86_64-linux-gnu/bits/stdio2.h **** 
  19:/usr/include/x86_64-linux-gnu/bits/stdio2.h **** #ifndef _STDIO_H
  20:/usr/include/x86_64-linux-gnu/bits/stdio2.h **** # error "Never include <bits/stdio2.h> directly; use <stdio.h> instead."
  21:/usr/include/x86_64-linux-gnu/bits/stdio2.h **** #endif
  22:/usr/include/x86_64-linux-gnu/bits/stdio2.h **** 
  23:/usr/include/x86_64-linux-gnu/bits/stdio2.h **** extern int __sprintf_chk (char *__restrict __s, int __flag, size_t __slen,
  24:/usr/include/x86_64-linux-gnu/bits/stdio2.h **** 			  const char *__restrict __format, ...) __THROW;
  25:/usr/include/x86_64-linux-gnu/bits/stdio2.h **** extern int __vsprintf_chk (char *__restrict __s, int __flag, size_t __slen,
  26:/usr/include/x86_64-linux-gnu/bits/stdio2.h **** 			   const char *__restrict __format,
  27:/usr/include/x86_64-linux-gnu/bits/stdio2.h **** 			   _G_va_list __ap) __THROW;
  28:/usr/include/x86_64-linux-gnu/bits/stdio2.h **** 
  29:/usr/include/x86_64-linux-gnu/bits/stdio2.h **** #ifdef __va_arg_pack
GAS LISTING /tmp/ccM8uVjQ.s 			page 28


  30:/usr/include/x86_64-linux-gnu/bits/stdio2.h **** __fortify_function int
  31:/usr/include/x86_64-linux-gnu/bits/stdio2.h **** __NTH (sprintf (char *__restrict __s, const char *__restrict __fmt, ...))
  32:/usr/include/x86_64-linux-gnu/bits/stdio2.h **** {
  33:/usr/include/x86_64-linux-gnu/bits/stdio2.h ****   return __builtin___sprintf_chk (__s, __USE_FORTIFY_LEVEL - 1,
 826              		.loc 3 33 0
 827 0316 440FB74B 		movzwl	4(%rbx), %r9d
 827      04
 828 031b 440FB743 		movzwl	2(%rbx), %r8d
 828      02
 829 0320 B9000000 		movl	$.LC6, %ecx
 829      00
 830 0325 BA0D0000 		movl	$13, %edx
 830      00
 831 032a BE010000 		movl	$1, %esi
 831      00
 832 032f 488D7C24 		leaq	32(%rsp), %rdi
 832      20
 833              	.LVL54:
 834 0334 B8000000 		movl	$0, %eax
 834      00
 835              	.LVL55:
 836 0339 E8000000 		call	__sprintf_chk
 836      00
 837              	.LVL56:
 838              	.LBE26:
 839              	.LBE25:
 340:/home/baikal/workspace/C50/Huawei_IoT_Agent_Tiny_SDK_Linux//lwm2m/core/management.c ****                 {
 341:/home/baikal/workspace/C50/Huawei_IoT_Agent_Tiny_SDK_Linux//lwm2m/core/management.c ****                     result = COAP_500_INTERNAL_SERVER_ERROR;
 342:/home/baikal/workspace/C50/Huawei_IoT_Agent_Tiny_SDK_Linux//lwm2m/core/management.c ****                     break;
 343:/home/baikal/workspace/C50/Huawei_IoT_Agent_Tiny_SDK_Linux//lwm2m/core/management.c ****                 }
 344:/home/baikal/workspace/C50/Huawei_IoT_Agent_Tiny_SDK_Linux//lwm2m/core/management.c **** 
 345:/home/baikal/workspace/C50/Huawei_IoT_Agent_Tiny_SDK_Linux//lwm2m/core/management.c ****                 if (sprintf(location_path, "/%d/%d", uriP->objectId, uriP->instanceId) < 0)
 840              		.loc 1 345 0
 841 033e 85C0     		testl	%eax, %eax
 842 0340 7826     		js	.L70
 346:/home/baikal/workspace/C50/Huawei_IoT_Agent_Tiny_SDK_Linux//lwm2m/core/management.c ****                 {
 347:/home/baikal/workspace/C50/Huawei_IoT_Agent_Tiny_SDK_Linux//lwm2m/core/management.c ****                     result = COAP_500_INTERNAL_SERVER_ERROR;
 348:/home/baikal/workspace/C50/Huawei_IoT_Agent_Tiny_SDK_Linux//lwm2m/core/management.c ****                     break;
 349:/home/baikal/workspace/C50/Huawei_IoT_Agent_Tiny_SDK_Linux//lwm2m/core/management.c ****                 }
 350:/home/baikal/workspace/C50/Huawei_IoT_Agent_Tiny_SDK_Linux//lwm2m/core/management.c ****                 coap_set_header_location_path(response, location_path);
 843              		.loc 1 350 0
 844 0342 488D7424 		leaq	32(%rsp), %rsi
 844      20
 845 0347 4C89FF   		movq	%r15, %rdi
 846 034a E8000000 		call	coap_set_header_location_path
 846      00
 847              	.LVL57:
 351:/home/baikal/workspace/C50/Huawei_IoT_Agent_Tiny_SDK_Linux//lwm2m/core/management.c **** 
 352:/home/baikal/workspace/C50/Huawei_IoT_Agent_Tiny_SDK_Linux//lwm2m/core/management.c ****                 lwm2m_update_registration(contextP, 0, true);
 848              		.loc 1 352 0
 849 034f BA010000 		movl	$1, %edx
 849      00
 850 0354 BE000000 		movl	$0, %esi
 850      00
 851 0359 4C89F7   		movq	%r14, %rdi
 852 035c E8000000 		call	lwm2m_update_registration
 852      00
GAS LISTING /tmp/ccM8uVjQ.s 			page 29


 853              	.LVL58:
 854              	.LBE24:
 333:/home/baikal/workspace/C50/Huawei_IoT_Agent_Tiny_SDK_Linux//lwm2m/core/management.c ****             if (result == COAP_201_CREATED)
 855              		.loc 1 333 0
 856 0361 89E8     		movl	%ebp, %eax
 857              	.LBB27:
 858 0363 E9980100 		jmp	.L49
 858      00
 859              	.L70:
 860              	.LVL59:
 342:/home/baikal/workspace/C50/Huawei_IoT_Agent_Tiny_SDK_Linux//lwm2m/core/management.c ****                 }
 861              		.loc 1 342 0
 862 0368 B8A0FFFF 		movl	$-96, %eax
 862      FF
 863 036d E98E0100 		jmp	.L49
 863      00
 864              	.LVL60:
 865              	.L69:
 866              	.LBE27:
 353:/home/baikal/workspace/C50/Huawei_IoT_Agent_Tiny_SDK_Linux//lwm2m/core/management.c ****             }
 354:/home/baikal/workspace/C50/Huawei_IoT_Agent_Tiny_SDK_Linux//lwm2m/core/management.c ****         }
 355:/home/baikal/workspace/C50/Huawei_IoT_Agent_Tiny_SDK_Linux//lwm2m/core/management.c ****         else if (!LWM2M_URI_IS_SET_RESOURCE(uriP))
 867              		.loc 1 355 0
 868 0372 A801     		testb	$1, %al
 869 0374 7540     		jne	.L71
 356:/home/baikal/workspace/C50/Huawei_IoT_Agent_Tiny_SDK_Linux//lwm2m/core/management.c ****         {
 357:/home/baikal/workspace/C50/Huawei_IoT_Agent_Tiny_SDK_Linux//lwm2m/core/management.c ****             if ((result = acc_auth_operate(contextP, uriP, OBJ_ACC_WRITE, serverP->shortID)) != COA
 870              		.loc 1 357 0
 871 0376 410FB74D 		movzwl	10(%r13), %ecx
 871      0A
 872 037b BA010000 		movl	$1, %edx
 872      00
 873 0380 4889DE   		movq	%rbx, %rsi
 874 0383 4C89F7   		movq	%r14, %rdi
 875 0386 E8000000 		call	acc_auth_operate
 875      00
 876              	.LVL61:
 877 038b 84C0     		testb	%al, %al
 878 038d 0F856D01 		jne	.L49
 878      0000
 358:/home/baikal/workspace/C50/Huawei_IoT_Agent_Tiny_SDK_Linux//lwm2m/core/management.c ****             {
 359:/home/baikal/workspace/C50/Huawei_IoT_Agent_Tiny_SDK_Linux//lwm2m/core/management.c ****                 return result;
 360:/home/baikal/workspace/C50/Huawei_IoT_Agent_Tiny_SDK_Linux//lwm2m/core/management.c ****             }
 361:/home/baikal/workspace/C50/Huawei_IoT_Agent_Tiny_SDK_Linux//lwm2m/core/management.c ****             result = object_write(contextP, uriP, format, message->payload, message->payload_len);
 879              		.loc 1 361 0
 880 0393 488B8DC8 		movq	200(%rbp), %rcx
 880      000000
 881 039a 440FB785 		movzwl	194(%rbp), %r8d
 881      C2000000 
 882 03a2 8B54244C 		movl	76(%rsp), %edx
 883 03a6 4889DE   		movq	%rbx, %rsi
 884 03a9 4C89F7   		movq	%r14, %rdi
 885 03ac E8000000 		call	object_write
 885      00
 886              	.LVL62:
 887 03b1 E94A0100 		jmp	.L49
 887      00
GAS LISTING /tmp/ccM8uVjQ.s 			page 30


 888              	.L71:
 362:/home/baikal/workspace/C50/Huawei_IoT_Agent_Tiny_SDK_Linux//lwm2m/core/management.c ****         }
 363:/home/baikal/workspace/C50/Huawei_IoT_Agent_Tiny_SDK_Linux//lwm2m/core/management.c ****         else
 364:/home/baikal/workspace/C50/Huawei_IoT_Agent_Tiny_SDK_Linux//lwm2m/core/management.c ****         {
 365:/home/baikal/workspace/C50/Huawei_IoT_Agent_Tiny_SDK_Linux//lwm2m/core/management.c ****             if ((result = acc_auth_operate(contextP, uriP, OBJ_ACC_EXCUTE, serverP->shortID)) != CO
 889              		.loc 1 365 0
 890 03b6 410FB74D 		movzwl	10(%r13), %ecx
 890      0A
 891 03bb BA020000 		movl	$2, %edx
 891      00
 892 03c0 4889DE   		movq	%rbx, %rsi
 893 03c3 4C89F7   		movq	%r14, %rdi
 894 03c6 E8000000 		call	acc_auth_operate
 894      00
 895              	.LVL63:
 896 03cb 84C0     		testb	%al, %al
 897 03cd 0F852D01 		jne	.L49
 897      0000
 366:/home/baikal/workspace/C50/Huawei_IoT_Agent_Tiny_SDK_Linux//lwm2m/core/management.c ****             {
 367:/home/baikal/workspace/C50/Huawei_IoT_Agent_Tiny_SDK_Linux//lwm2m/core/management.c ****                 return result;
 368:/home/baikal/workspace/C50/Huawei_IoT_Agent_Tiny_SDK_Linux//lwm2m/core/management.c ****             }
 369:/home/baikal/workspace/C50/Huawei_IoT_Agent_Tiny_SDK_Linux//lwm2m/core/management.c ****             result = object_execute(contextP, uriP, message->payload, message->payload_len);
 898              		.loc 1 369 0
 899 03d3 0FB78DC2 		movzwl	194(%rbp), %ecx
 899      000000
 900 03da 488B95C8 		movq	200(%rbp), %rdx
 900      000000
 901 03e1 4889DE   		movq	%rbx, %rsi
 902 03e4 4C89F7   		movq	%r14, %rdi
 903 03e7 E8000000 		call	object_execute
 903      00
 904              	.LVL64:
 905 03ec E90F0100 		jmp	.L49
 905      00
 906              	.L54:
 370:/home/baikal/workspace/C50/Huawei_IoT_Agent_Tiny_SDK_Linux//lwm2m/core/management.c ****         }
 371:/home/baikal/workspace/C50/Huawei_IoT_Agent_Tiny_SDK_Linux//lwm2m/core/management.c **** 
 372:/home/baikal/workspace/C50/Huawei_IoT_Agent_Tiny_SDK_Linux//lwm2m/core/management.c ****     }
 373:/home/baikal/workspace/C50/Huawei_IoT_Agent_Tiny_SDK_Linux//lwm2m/core/management.c ****     break;
 374:/home/baikal/workspace/C50/Huawei_IoT_Agent_Tiny_SDK_Linux//lwm2m/core/management.c **** 
 375:/home/baikal/workspace/C50/Huawei_IoT_Agent_Tiny_SDK_Linux//lwm2m/core/management.c ****     case COAP_PUT:
 376:/home/baikal/workspace/C50/Huawei_IoT_Agent_Tiny_SDK_Linux//lwm2m/core/management.c ****     {
 377:/home/baikal/workspace/C50/Huawei_IoT_Agent_Tiny_SDK_Linux//lwm2m/core/management.c ****         if (IS_OPTION(message, COAP_OPTION_URI_QUERY))
 907              		.loc 1 377 0
 908 03f1 807D1500 		cmpb	$0, 21(%rbp)
 909 03f5 7954     		jns	.L72
 910              	.LBB28:
 378:/home/baikal/workspace/C50/Huawei_IoT_Agent_Tiny_SDK_Linux//lwm2m/core/management.c ****         {
 379:/home/baikal/workspace/C50/Huawei_IoT_Agent_Tiny_SDK_Linux//lwm2m/core/management.c ****             lwm2m_attributes_t attr;
 380:/home/baikal/workspace/C50/Huawei_IoT_Agent_Tiny_SDK_Linux//lwm2m/core/management.c **** 
 381:/home/baikal/workspace/C50/Huawei_IoT_Agent_Tiny_SDK_Linux//lwm2m/core/management.c ****             if ((result = acc_auth_operate(contextP, uriP, OBJ_ACC_WRITE_ATTR, serverP->shortID)) !
 911              		.loc 1 381 0
 912 03f7 410FB74D 		movzwl	10(%r13), %ecx
 912      0A
 913 03fc BA000000 		movl	$0, %edx
 913      00
 914 0401 4889DE   		movq	%rbx, %rsi
GAS LISTING /tmp/ccM8uVjQ.s 			page 31


 915 0404 4C89F7   		movq	%r14, %rdi
 916 0407 E8000000 		call	acc_auth_operate
 916      00
 917              	.LVL65:
 918 040c 84C0     		testb	%al, %al
 919 040e 0F85EC00 		jne	.L49
 919      0000
 382:/home/baikal/workspace/C50/Huawei_IoT_Agent_Tiny_SDK_Linux//lwm2m/core/management.c ****             {
 383:/home/baikal/workspace/C50/Huawei_IoT_Agent_Tiny_SDK_Linux//lwm2m/core/management.c ****                 return result;
 384:/home/baikal/workspace/C50/Huawei_IoT_Agent_Tiny_SDK_Linux//lwm2m/core/management.c ****             }
 385:/home/baikal/workspace/C50/Huawei_IoT_Agent_Tiny_SDK_Linux//lwm2m/core/management.c ****             if (0 != prv_readAttributes(message->uri_query, &attr))
 920              		.loc 1 385 0
 921 0414 488BBDB8 		movq	184(%rbp), %rdi
 921      000000
 922 041b 488D7424 		leaq	32(%rsp), %rsi
 922      20
 923 0420 E8000000 		call	prv_readAttributes
 923      00
 924              	.LVL66:
 925 0425 85C0     		testl	%eax, %eax
 926 0427 7518     		jne	.L86
 386:/home/baikal/workspace/C50/Huawei_IoT_Agent_Tiny_SDK_Linux//lwm2m/core/management.c ****             {
 387:/home/baikal/workspace/C50/Huawei_IoT_Agent_Tiny_SDK_Linux//lwm2m/core/management.c ****                 result = COAP_400_BAD_REQUEST;
 388:/home/baikal/workspace/C50/Huawei_IoT_Agent_Tiny_SDK_Linux//lwm2m/core/management.c ****             }
 389:/home/baikal/workspace/C50/Huawei_IoT_Agent_Tiny_SDK_Linux//lwm2m/core/management.c ****             else
 390:/home/baikal/workspace/C50/Huawei_IoT_Agent_Tiny_SDK_Linux//lwm2m/core/management.c ****             {
 391:/home/baikal/workspace/C50/Huawei_IoT_Agent_Tiny_SDK_Linux//lwm2m/core/management.c ****                 result = observe_setParameters(contextP, uriP, serverP, &attr);
 927              		.loc 1 391 0
 928 0429 488D4C24 		leaq	32(%rsp), %rcx
 928      20
 929 042e 4C89EA   		movq	%r13, %rdx
 930 0431 4889DE   		movq	%rbx, %rsi
 931 0434 4C89F7   		movq	%r14, %rdi
 932 0437 E8000000 		call	observe_setParameters
 932      00
 933              	.LVL67:
 934 043c E9BF0000 		jmp	.L49
 934      00
 935              	.LVL68:
 936              	.L86:
 387:/home/baikal/workspace/C50/Huawei_IoT_Agent_Tiny_SDK_Linux//lwm2m/core/management.c ****             }
 937              		.loc 1 387 0
 938 0441 B880FFFF 		movl	$-128, %eax
 938      FF
 939              	.LVL69:
 940              	.LBE28:
 941 0446 E9B50000 		jmp	.L49
 941      00
 942              	.LVL70:
 943              	.L72:
 392:/home/baikal/workspace/C50/Huawei_IoT_Agent_Tiny_SDK_Linux//lwm2m/core/management.c ****             }
 393:/home/baikal/workspace/C50/Huawei_IoT_Agent_Tiny_SDK_Linux//lwm2m/core/management.c ****         }
 394:/home/baikal/workspace/C50/Huawei_IoT_Agent_Tiny_SDK_Linux//lwm2m/core/management.c ****         else if (LWM2M_URI_IS_SET_INSTANCE(uriP))
 944              		.loc 1 394 0
 945 044b F60302   		testb	$2, (%rbx)
 946 044e 0F849E00 		je	.L87
 946      0000
GAS LISTING /tmp/ccM8uVjQ.s 			page 32


 395:/home/baikal/workspace/C50/Huawei_IoT_Agent_Tiny_SDK_Linux//lwm2m/core/management.c ****         {
 396:/home/baikal/workspace/C50/Huawei_IoT_Agent_Tiny_SDK_Linux//lwm2m/core/management.c ****             if ((result = acc_auth_operate(contextP, uriP, OBJ_ACC_WRITE, serverP->shortID)) != COA
 947              		.loc 1 396 0
 948 0454 410FB74D 		movzwl	10(%r13), %ecx
 948      0A
 949 0459 BA010000 		movl	$1, %edx
 949      00
 950 045e 4889DE   		movq	%rbx, %rsi
 951 0461 4C89F7   		movq	%r14, %rdi
 952 0464 E8000000 		call	acc_auth_operate
 952      00
 953              	.LVL71:
 954 0469 84C0     		testb	%al, %al
 955 046b 0F858F00 		jne	.L49
 955      0000
 397:/home/baikal/workspace/C50/Huawei_IoT_Agent_Tiny_SDK_Linux//lwm2m/core/management.c ****             {
 398:/home/baikal/workspace/C50/Huawei_IoT_Agent_Tiny_SDK_Linux//lwm2m/core/management.c ****                 return result;
 399:/home/baikal/workspace/C50/Huawei_IoT_Agent_Tiny_SDK_Linux//lwm2m/core/management.c ****             }
 400:/home/baikal/workspace/C50/Huawei_IoT_Agent_Tiny_SDK_Linux//lwm2m/core/management.c ****             result = object_write(contextP, uriP, format, message->payload, message->payload_len);
 956              		.loc 1 400 0
 957 0471 488B8DC8 		movq	200(%rbp), %rcx
 957      000000
 958 0478 440FB785 		movzwl	194(%rbp), %r8d
 958      C2000000 
 959 0480 8B54244C 		movl	76(%rsp), %edx
 960 0484 4889DE   		movq	%rbx, %rsi
 961 0487 4C89F7   		movq	%r14, %rdi
 962 048a E8000000 		call	object_write
 962      00
 963              	.LVL72:
 964 048f EB6F     		jmp	.L49
 965              	.L55:
 401:/home/baikal/workspace/C50/Huawei_IoT_Agent_Tiny_SDK_Linux//lwm2m/core/management.c ****         }
 402:/home/baikal/workspace/C50/Huawei_IoT_Agent_Tiny_SDK_Linux//lwm2m/core/management.c ****         else
 403:/home/baikal/workspace/C50/Huawei_IoT_Agent_Tiny_SDK_Linux//lwm2m/core/management.c ****         {
 404:/home/baikal/workspace/C50/Huawei_IoT_Agent_Tiny_SDK_Linux//lwm2m/core/management.c ****             result = COAP_400_BAD_REQUEST;
 405:/home/baikal/workspace/C50/Huawei_IoT_Agent_Tiny_SDK_Linux//lwm2m/core/management.c ****         }
 406:/home/baikal/workspace/C50/Huawei_IoT_Agent_Tiny_SDK_Linux//lwm2m/core/management.c ****     }
 407:/home/baikal/workspace/C50/Huawei_IoT_Agent_Tiny_SDK_Linux//lwm2m/core/management.c ****     break;
 408:/home/baikal/workspace/C50/Huawei_IoT_Agent_Tiny_SDK_Linux//lwm2m/core/management.c **** 
 409:/home/baikal/workspace/C50/Huawei_IoT_Agent_Tiny_SDK_Linux//lwm2m/core/management.c ****     case COAP_DELETE:
 410:/home/baikal/workspace/C50/Huawei_IoT_Agent_Tiny_SDK_Linux//lwm2m/core/management.c ****     {
 411:/home/baikal/workspace/C50/Huawei_IoT_Agent_Tiny_SDK_Linux//lwm2m/core/management.c ****         if (!LWM2M_URI_IS_SET_INSTANCE(uriP) || LWM2M_URI_IS_SET_RESOURCE(uriP))
 966              		.loc 1 411 0
 967 0491 0FB603   		movzbl	(%rbx), %eax
 968 0494 83E003   		andl	$3, %eax
 969 0497 3C02     		cmpb	$2, %al
 970 0499 755E     		jne	.L89
 412:/home/baikal/workspace/C50/Huawei_IoT_Agent_Tiny_SDK_Linux//lwm2m/core/management.c ****         {
 413:/home/baikal/workspace/C50/Huawei_IoT_Agent_Tiny_SDK_Linux//lwm2m/core/management.c ****             result = COAP_400_BAD_REQUEST;
 414:/home/baikal/workspace/C50/Huawei_IoT_Agent_Tiny_SDK_Linux//lwm2m/core/management.c ****         }
 415:/home/baikal/workspace/C50/Huawei_IoT_Agent_Tiny_SDK_Linux//lwm2m/core/management.c ****         else
 416:/home/baikal/workspace/C50/Huawei_IoT_Agent_Tiny_SDK_Linux//lwm2m/core/management.c ****         {
 417:/home/baikal/workspace/C50/Huawei_IoT_Agent_Tiny_SDK_Linux//lwm2m/core/management.c ****             if ((result = acc_auth_operate(contextP, uriP, OBJ_ACC_DELETE, serverP->shortID)) != CO
 971              		.loc 1 417 0
 972 049b 410FB74D 		movzwl	10(%r13), %ecx
 972      0A
GAS LISTING /tmp/ccM8uVjQ.s 			page 33


 973 04a0 BA030000 		movl	$3, %edx
 973      00
 974 04a5 4889DE   		movq	%rbx, %rsi
 975 04a8 4C89F7   		movq	%r14, %rdi
 976 04ab E8000000 		call	acc_auth_operate
 976      00
 977              	.LVL73:
 978 04b0 84C0     		testb	%al, %al
 979 04b2 754C     		jne	.L49
 418:/home/baikal/workspace/C50/Huawei_IoT_Agent_Tiny_SDK_Linux//lwm2m/core/management.c ****             {
 419:/home/baikal/workspace/C50/Huawei_IoT_Agent_Tiny_SDK_Linux//lwm2m/core/management.c ****                 return result;
 420:/home/baikal/workspace/C50/Huawei_IoT_Agent_Tiny_SDK_Linux//lwm2m/core/management.c ****             }
 421:/home/baikal/workspace/C50/Huawei_IoT_Agent_Tiny_SDK_Linux//lwm2m/core/management.c ****             result = object_delete(contextP, uriP);
 980              		.loc 1 421 0
 981 04b4 4889DE   		movq	%rbx, %rsi
 982 04b7 4C89F7   		movq	%r14, %rdi
 983 04ba E8000000 		call	object_delete
 983      00
 984              	.LVL74:
 985 04bf 89C3     		movl	%eax, %ebx
 986              	.LVL75:
 422:/home/baikal/workspace/C50/Huawei_IoT_Agent_Tiny_SDK_Linux//lwm2m/core/management.c ****             if (result == COAP_202_DELETED)
 987              		.loc 1 422 0
 988 04c1 3C42     		cmpb	$66, %al
 989 04c3 753B     		jne	.L91
 423:/home/baikal/workspace/C50/Huawei_IoT_Agent_Tiny_SDK_Linux//lwm2m/core/management.c ****             {
 424:/home/baikal/workspace/C50/Huawei_IoT_Agent_Tiny_SDK_Linux//lwm2m/core/management.c ****                 lwm2m_update_registration(contextP, 0, true);
 990              		.loc 1 424 0
 991 04c5 BA010000 		movl	$1, %edx
 991      00
 992 04ca BE000000 		movl	$0, %esi
 992      00
 993 04cf 4C89F7   		movq	%r14, %rdi
 994 04d2 E8000000 		call	lwm2m_update_registration
 994      00
 995              	.LVL76:
 421:/home/baikal/workspace/C50/Huawei_IoT_Agent_Tiny_SDK_Linux//lwm2m/core/management.c ****             if (result == COAP_202_DELETED)
 996              		.loc 1 421 0
 997 04d7 89D8     		movl	%ebx, %eax
 998 04d9 EB25     		jmp	.L49
 999              	.LVL77:
 1000              	.L76:
 221:/home/baikal/workspace/C50/Huawei_IoT_Agent_Tiny_SDK_Linux//lwm2m/core/management.c ****     }
 1001              		.loc 1 221 0
 1002 04db B884FFFF 		movl	$-124, %eax
 1002      FF
 1003 04e0 EB1E     		jmp	.L49
 1004              	.L77:
 229:/home/baikal/workspace/C50/Huawei_IoT_Agent_Tiny_SDK_Linux//lwm2m/core/management.c ****     }
 1005              		.loc 1 229 0
 1006 04e2 B8010000 		movl	$1, %eax
 1006      00
 1007 04e7 EB17     		jmp	.L49
 1008              	.L78:
 425:/home/baikal/workspace/C50/Huawei_IoT_Agent_Tiny_SDK_Linux//lwm2m/core/management.c ****             }
 426:/home/baikal/workspace/C50/Huawei_IoT_Agent_Tiny_SDK_Linux//lwm2m/core/management.c ****         }
 427:/home/baikal/workspace/C50/Huawei_IoT_Agent_Tiny_SDK_Linux//lwm2m/core/management.c ****     }
GAS LISTING /tmp/ccM8uVjQ.s 			page 34


 428:/home/baikal/workspace/C50/Huawei_IoT_Agent_Tiny_SDK_Linux//lwm2m/core/management.c ****     break;
 429:/home/baikal/workspace/C50/Huawei_IoT_Agent_Tiny_SDK_Linux//lwm2m/core/management.c **** 
 430:/home/baikal/workspace/C50/Huawei_IoT_Agent_Tiny_SDK_Linux//lwm2m/core/management.c ****     default:
 431:/home/baikal/workspace/C50/Huawei_IoT_Agent_Tiny_SDK_Linux//lwm2m/core/management.c ****         result = COAP_400_BAD_REQUEST;
 1009              		.loc 1 431 0
 1010 04e9 B880FFFF 		movl	$-128, %eax
 1010      FF
 1011 04ee EB10     		jmp	.L49
 1012              	.LVL78:
 1013              	.L83:
 1014 04f0 EB0E     		jmp	.L49
 1015              	.LVL79:
 1016              	.L87:
 404:/home/baikal/workspace/C50/Huawei_IoT_Agent_Tiny_SDK_Linux//lwm2m/core/management.c ****         }
 1017              		.loc 1 404 0
 1018 04f2 B880FFFF 		movl	$-128, %eax
 1018      FF
 1019 04f7 EB07     		jmp	.L49
 1020              	.L89:
 413:/home/baikal/workspace/C50/Huawei_IoT_Agent_Tiny_SDK_Linux//lwm2m/core/management.c ****         }
 1021              		.loc 1 413 0
 1022 04f9 B880FFFF 		movl	$-128, %eax
 1022      FF
 1023 04fe EB00     		jmp	.L49
 1024              	.LVL80:
 1025              	.L91:
 1026              	.L49:
 432:/home/baikal/workspace/C50/Huawei_IoT_Agent_Tiny_SDK_Linux//lwm2m/core/management.c ****         break;
 433:/home/baikal/workspace/C50/Huawei_IoT_Agent_Tiny_SDK_Linux//lwm2m/core/management.c ****     }
 434:/home/baikal/workspace/C50/Huawei_IoT_Agent_Tiny_SDK_Linux//lwm2m/core/management.c **** 
 435:/home/baikal/workspace/C50/Huawei_IoT_Agent_Tiny_SDK_Linux//lwm2m/core/management.c ****     return result;
 436:/home/baikal/workspace/C50/Huawei_IoT_Agent_Tiny_SDK_Linux//lwm2m/core/management.c **** }
 1027              		.loc 1 436 0 discriminator 3
 1028 0500 4883C458 		addq	$88, %rsp
 1029              	.LCFI16:
 1030              		.cfi_def_cfa_offset 56
 1031 0504 5B       		popq	%rbx
 1032              	.LCFI17:
 1033              		.cfi_def_cfa_offset 48
 1034 0505 5D       		popq	%rbp
 1035              	.LCFI18:
 1036              		.cfi_def_cfa_offset 40
 1037 0506 415C     		popq	%r12
 1038              	.LCFI19:
 1039              		.cfi_def_cfa_offset 32
 1040 0508 415D     		popq	%r13
 1041              	.LCFI20:
 1042              		.cfi_def_cfa_offset 24
 1043              	.LVL81:
 1044 050a 415E     		popq	%r14
 1045              	.LCFI21:
 1046              		.cfi_def_cfa_offset 16
 1047              	.LVL82:
 1048 050c 415F     		popq	%r15
 1049              	.LCFI22:
 1050              		.cfi_def_cfa_offset 8
 1051              	.LVL83:
GAS LISTING /tmp/ccM8uVjQ.s 			page 35


 1052 050e C3       		ret
 1053              		.cfi_endproc
 1054              	.LFE72:
 1056              		.text
 1057              	.Letext0:
 1058              		.file 4 "/usr/include/stdint.h"
 1059              		.file 5 "/usr/lib/gcc/x86_64-linux-gnu/5/include/stddef.h"
 1060              		.file 6 "/usr/include/x86_64-linux-gnu/bits/types.h"
 1061              		.file 7 "/usr/include/time.h"
 1062              		.file 8 "/home/baikal/workspace/C50/Huawei_IoT_Agent_Tiny_SDK_Linux//lwm2m/core/er-coap-13/er-coap
 1063              		.file 9 "/usr/include/libio.h"
 1064              		.file 10 "/home/baikal/workspace/C50/Huawei_IoT_Agent_Tiny_SDK_Linux//lwm2m/core/liblwm2m.h"
 1065              		.file 11 "/home/baikal/workspace/C50/Huawei_IoT_Agent_Tiny_SDK_Linux//agent_tiny/lwm2m_client/obje
 1066              		.file 12 "/home/baikal/workspace/C50/Huawei_IoT_Agent_Tiny_SDK_Linux//lwm2m/core/internals.h"
 1067              		.file 13 "/usr/include/stdio.h"
 1068              		.file 14 "<built-in>"
GAS LISTING /tmp/ccM8uVjQ.s 			page 36

