GAS LISTING /tmp/ccOjtb1y.s 			page 1


   1              		.file	"object_access_control.c"
   2              		.text
   3              	.Ltext0:
   4              		.section	.text.prv_get_acc_instance,"ax",@progbits
   6              	prv_get_acc_instance:
   7              	.LFB82:
   8              		.file 1 "/home/baikal/workspace/C50/Huawei_IoT_Agent_Tiny_SDK_Linux//agent_tiny/lwm2m_client/objec
   1:/home/baikal/workspace/C50/Huawei_IoT_Agent_Tiny_SDK_Linux//agent_tiny/lwm2m_client/object_access_control.c **** /*----------------------------------------------------------------------------
   2:/home/baikal/workspace/C50/Huawei_IoT_Agent_Tiny_SDK_Linux//agent_tiny/lwm2m_client/object_access_control.c ****  * Copyright (c) <2016-2018>, <Huawei Technologies Co., Ltd>
   3:/home/baikal/workspace/C50/Huawei_IoT_Agent_Tiny_SDK_Linux//agent_tiny/lwm2m_client/object_access_control.c ****  * All rights reserved.
   4:/home/baikal/workspace/C50/Huawei_IoT_Agent_Tiny_SDK_Linux//agent_tiny/lwm2m_client/object_access_control.c ****  * Redistribution and use in source and binary forms, with or without modification,
   5:/home/baikal/workspace/C50/Huawei_IoT_Agent_Tiny_SDK_Linux//agent_tiny/lwm2m_client/object_access_control.c ****  * are permitted provided that the following conditions are met:
   6:/home/baikal/workspace/C50/Huawei_IoT_Agent_Tiny_SDK_Linux//agent_tiny/lwm2m_client/object_access_control.c ****  * 1. Redistributions of source code must retain the above copyright notice, this list of
   7:/home/baikal/workspace/C50/Huawei_IoT_Agent_Tiny_SDK_Linux//agent_tiny/lwm2m_client/object_access_control.c ****  * conditions and the following disclaimer.
   8:/home/baikal/workspace/C50/Huawei_IoT_Agent_Tiny_SDK_Linux//agent_tiny/lwm2m_client/object_access_control.c ****  * 2. Redistributions in binary form must reproduce the above copyright notice, this list
   9:/home/baikal/workspace/C50/Huawei_IoT_Agent_Tiny_SDK_Linux//agent_tiny/lwm2m_client/object_access_control.c ****  * of conditions and the following disclaimer in the documentation and/or other materials
  10:/home/baikal/workspace/C50/Huawei_IoT_Agent_Tiny_SDK_Linux//agent_tiny/lwm2m_client/object_access_control.c ****  * provided with the distribution.
  11:/home/baikal/workspace/C50/Huawei_IoT_Agent_Tiny_SDK_Linux//agent_tiny/lwm2m_client/object_access_control.c ****  * 3. Neither the name of the copyright holder nor the names of its contributors may be used
  12:/home/baikal/workspace/C50/Huawei_IoT_Agent_Tiny_SDK_Linux//agent_tiny/lwm2m_client/object_access_control.c ****  * to endorse or promote products derived from this software without specific prior written
  13:/home/baikal/workspace/C50/Huawei_IoT_Agent_Tiny_SDK_Linux//agent_tiny/lwm2m_client/object_access_control.c ****  * permission.
  14:/home/baikal/workspace/C50/Huawei_IoT_Agent_Tiny_SDK_Linux//agent_tiny/lwm2m_client/object_access_control.c ****  * THIS SOFTWARE IS PROVIDED BY THE COPYRIGHT HOLDERS AND CONTRIBUTORS
  15:/home/baikal/workspace/C50/Huawei_IoT_Agent_Tiny_SDK_Linux//agent_tiny/lwm2m_client/object_access_control.c ****  * "AS IS" AND ANY EXPRESS OR IMPLIED WARRANTIES, INCLUDING, BUT NOT LIMITED TO,
  16:/home/baikal/workspace/C50/Huawei_IoT_Agent_Tiny_SDK_Linux//agent_tiny/lwm2m_client/object_access_control.c ****  * THE IMPLIED WARRANTIES OF MERCHANTABILITY AND FITNESS FOR A PARTICULAR
  17:/home/baikal/workspace/C50/Huawei_IoT_Agent_Tiny_SDK_Linux//agent_tiny/lwm2m_client/object_access_control.c ****  * PURPOSE ARE DISCLAIMED. IN NO EVENT SHALL THE COPYRIGHT HOLDER OR
  18:/home/baikal/workspace/C50/Huawei_IoT_Agent_Tiny_SDK_Linux//agent_tiny/lwm2m_client/object_access_control.c ****  * CONTRIBUTORS BE LIABLE FOR ANY DIRECT, INDIRECT, INCIDENTAL, SPECIAL,
  19:/home/baikal/workspace/C50/Huawei_IoT_Agent_Tiny_SDK_Linux//agent_tiny/lwm2m_client/object_access_control.c ****  * EXEMPLARY, OR CONSEQUENTIAL DAMAGES (INCLUDING, BUT NOT LIMITED TO,
  20:/home/baikal/workspace/C50/Huawei_IoT_Agent_Tiny_SDK_Linux//agent_tiny/lwm2m_client/object_access_control.c ****  * PROCUREMENT OF SUBSTITUTE GOODS OR SERVICES; LOSS OF USE, DATA, OR PROFITS;
  21:/home/baikal/workspace/C50/Huawei_IoT_Agent_Tiny_SDK_Linux//agent_tiny/lwm2m_client/object_access_control.c ****  * OR BUSINESS INTERRUPTION) HOWEVER CAUSED AND ON ANY THEORY OF LIABILITY,
  22:/home/baikal/workspace/C50/Huawei_IoT_Agent_Tiny_SDK_Linux//agent_tiny/lwm2m_client/object_access_control.c ****  * WHETHER IN CONTRACT, STRICT LIABILITY, OR TORT (INCLUDING NEGLIGENCE OR
  23:/home/baikal/workspace/C50/Huawei_IoT_Agent_Tiny_SDK_Linux//agent_tiny/lwm2m_client/object_access_control.c ****  * OTHERWISE) ARISING IN ANY WAY OUT OF THE USE OF THIS SOFTWARE, EVEN IF
  24:/home/baikal/workspace/C50/Huawei_IoT_Agent_Tiny_SDK_Linux//agent_tiny/lwm2m_client/object_access_control.c ****  * ADVISED OF THE POSSIBILITY OF SUCH DAMAGE.
  25:/home/baikal/workspace/C50/Huawei_IoT_Agent_Tiny_SDK_Linux//agent_tiny/lwm2m_client/object_access_control.c ****  *---------------------------------------------------------------------------*/
  26:/home/baikal/workspace/C50/Huawei_IoT_Agent_Tiny_SDK_Linux//agent_tiny/lwm2m_client/object_access_control.c **** /*----------------------------------------------------------------------------
  27:/home/baikal/workspace/C50/Huawei_IoT_Agent_Tiny_SDK_Linux//agent_tiny/lwm2m_client/object_access_control.c ****  * Notice of Export Control Law
  28:/home/baikal/workspace/C50/Huawei_IoT_Agent_Tiny_SDK_Linux//agent_tiny/lwm2m_client/object_access_control.c ****  * ===============================================
  29:/home/baikal/workspace/C50/Huawei_IoT_Agent_Tiny_SDK_Linux//agent_tiny/lwm2m_client/object_access_control.c ****  * Huawei LiteOS may be subject to applicable export control laws and regulations, which might
  30:/home/baikal/workspace/C50/Huawei_IoT_Agent_Tiny_SDK_Linux//agent_tiny/lwm2m_client/object_access_control.c ****  * include those applicable to Huawei LiteOS of U.S. and the country in which you are located.
  31:/home/baikal/workspace/C50/Huawei_IoT_Agent_Tiny_SDK_Linux//agent_tiny/lwm2m_client/object_access_control.c ****  * Import, export and usage of Huawei LiteOS in any manner by you shall be in compliance with such
  32:/home/baikal/workspace/C50/Huawei_IoT_Agent_Tiny_SDK_Linux//agent_tiny/lwm2m_client/object_access_control.c ****  * applicable export control laws and regulations.
  33:/home/baikal/workspace/C50/Huawei_IoT_Agent_Tiny_SDK_Linux//agent_tiny/lwm2m_client/object_access_control.c ****  *---------------------------------------------------------------------------*/
  34:/home/baikal/workspace/C50/Huawei_IoT_Agent_Tiny_SDK_Linux//agent_tiny/lwm2m_client/object_access_control.c **** 
  35:/home/baikal/workspace/C50/Huawei_IoT_Agent_Tiny_SDK_Linux//agent_tiny/lwm2m_client/object_access_control.c **** /*******************************************************************************
  36:/home/baikal/workspace/C50/Huawei_IoT_Agent_Tiny_SDK_Linux//agent_tiny/lwm2m_client/object_access_control.c ****  *
  37:/home/baikal/workspace/C50/Huawei_IoT_Agent_Tiny_SDK_Linux//agent_tiny/lwm2m_client/object_access_control.c ****  * Copyright (c) 2015 Bosch Software Innovations GmbH Germany.
  38:/home/baikal/workspace/C50/Huawei_IoT_Agent_Tiny_SDK_Linux//agent_tiny/lwm2m_client/object_access_control.c ****  * All rights reserved. This program and the accompanying materials
  39:/home/baikal/workspace/C50/Huawei_IoT_Agent_Tiny_SDK_Linux//agent_tiny/lwm2m_client/object_access_control.c ****  * are made available under the terms of the Eclipse Public License v1.0
  40:/home/baikal/workspace/C50/Huawei_IoT_Agent_Tiny_SDK_Linux//agent_tiny/lwm2m_client/object_access_control.c ****  * and Eclipse Distribution License v1.0 which accompany this distribution.
  41:/home/baikal/workspace/C50/Huawei_IoT_Agent_Tiny_SDK_Linux//agent_tiny/lwm2m_client/object_access_control.c ****  *
  42:/home/baikal/workspace/C50/Huawei_IoT_Agent_Tiny_SDK_Linux//agent_tiny/lwm2m_client/object_access_control.c ****  * The Eclipse Public License is available at
  43:/home/baikal/workspace/C50/Huawei_IoT_Agent_Tiny_SDK_Linux//agent_tiny/lwm2m_client/object_access_control.c ****  *    http://www.eclipse.org/legal/epl-v10.html
  44:/home/baikal/workspace/C50/Huawei_IoT_Agent_Tiny_SDK_Linux//agent_tiny/lwm2m_client/object_access_control.c ****  * The Eclipse Distribution License is available at
  45:/home/baikal/workspace/C50/Huawei_IoT_Agent_Tiny_SDK_Linux//agent_tiny/lwm2m_client/object_access_control.c ****  *    http://www.eclipse.org/org/documents/edl-v10.php.
  46:/home/baikal/workspace/C50/Huawei_IoT_Agent_Tiny_SDK_Linux//agent_tiny/lwm2m_client/object_access_control.c ****  *
  47:/home/baikal/workspace/C50/Huawei_IoT_Agent_Tiny_SDK_Linux//agent_tiny/lwm2m_client/object_access_control.c ****  * Contributors:
  48:/home/baikal/workspace/C50/Huawei_IoT_Agent_Tiny_SDK_Linux//agent_tiny/lwm2m_client/object_access_control.c ****  *    Bosch Software Innovations GmbH - Please refer to git log
  49:/home/baikal/workspace/C50/Huawei_IoT_Agent_Tiny_SDK_Linux//agent_tiny/lwm2m_client/object_access_control.c ****  *    Pascal Rieux - please refer to git log
  50:/home/baikal/workspace/C50/Huawei_IoT_Agent_Tiny_SDK_Linux//agent_tiny/lwm2m_client/object_access_control.c ****  *
GAS LISTING /tmp/ccOjtb1y.s 			page 2


  51:/home/baikal/workspace/C50/Huawei_IoT_Agent_Tiny_SDK_Linux//agent_tiny/lwm2m_client/object_access_control.c ****  ******************************************************************************/
  52:/home/baikal/workspace/C50/Huawei_IoT_Agent_Tiny_SDK_Linux//agent_tiny/lwm2m_client/object_access_control.c **** 
  53:/home/baikal/workspace/C50/Huawei_IoT_Agent_Tiny_SDK_Linux//agent_tiny/lwm2m_client/object_access_control.c **** /*
  54:/home/baikal/workspace/C50/Huawei_IoT_Agent_Tiny_SDK_Linux//agent_tiny/lwm2m_client/object_access_control.c ****  * This "Access Control" object is optional and multiple instantiated
  55:/home/baikal/workspace/C50/Huawei_IoT_Agent_Tiny_SDK_Linux//agent_tiny/lwm2m_client/object_access_control.c ****  *
  56:/home/baikal/workspace/C50/Huawei_IoT_Agent_Tiny_SDK_Linux//agent_tiny/lwm2m_client/object_access_control.c ****  *  Resources:
  57:/home/baikal/workspace/C50/Huawei_IoT_Agent_Tiny_SDK_Linux//agent_tiny/lwm2m_client/object_access_control.c ****  *
  58:/home/baikal/workspace/C50/Huawei_IoT_Agent_Tiny_SDK_Linux//agent_tiny/lwm2m_client/object_access_control.c ****  *          Name         | ID | Oper. | Inst. | Mand.|  Type   | Range | Units |
  59:/home/baikal/workspace/C50/Huawei_IoT_Agent_Tiny_SDK_Linux//agent_tiny/lwm2m_client/object_access_control.c ****  *  ---------------------+----+-------+-------+------+---------+-------+-------+
  60:/home/baikal/workspace/C50/Huawei_IoT_Agent_Tiny_SDK_Linux//agent_tiny/lwm2m_client/object_access_control.c ****  *  Object ID            |  0 |   R   | Single|  Yes | Integer |1-65534|       |
  61:/home/baikal/workspace/C50/Huawei_IoT_Agent_Tiny_SDK_Linux//agent_tiny/lwm2m_client/object_access_control.c ****  *  Object instance ID   |  1 |   R   | Single|  Yes | Integer |0-65535|       |
  62:/home/baikal/workspace/C50/Huawei_IoT_Agent_Tiny_SDK_Linux//agent_tiny/lwm2m_client/object_access_control.c ****  *  ACL                  |  2 |   RW  | Multi.|  No  | Integer | 16bit |       |
  63:/home/baikal/workspace/C50/Huawei_IoT_Agent_Tiny_SDK_Linux//agent_tiny/lwm2m_client/object_access_control.c ****  *  Access Control Owner |  3 |   RW  | Single|  Yes | Integer |0-65535|       |
  64:/home/baikal/workspace/C50/Huawei_IoT_Agent_Tiny_SDK_Linux//agent_tiny/lwm2m_client/object_access_control.c ****  */
  65:/home/baikal/workspace/C50/Huawei_IoT_Agent_Tiny_SDK_Linux//agent_tiny/lwm2m_client/object_access_control.c **** 
  66:/home/baikal/workspace/C50/Huawei_IoT_Agent_Tiny_SDK_Linux//agent_tiny/lwm2m_client/object_access_control.c **** #include "internals.h"
  67:/home/baikal/workspace/C50/Huawei_IoT_Agent_Tiny_SDK_Linux//agent_tiny/lwm2m_client/object_access_control.c **** #include "object_comm.h"
  68:/home/baikal/workspace/C50/Huawei_IoT_Agent_Tiny_SDK_Linux//agent_tiny/lwm2m_client/object_access_control.c **** #include <string.h>
  69:/home/baikal/workspace/C50/Huawei_IoT_Agent_Tiny_SDK_Linux//agent_tiny/lwm2m_client/object_access_control.c **** 
  70:/home/baikal/workspace/C50/Huawei_IoT_Agent_Tiny_SDK_Linux//agent_tiny/lwm2m_client/object_access_control.c **** // Resource Id's:
  71:/home/baikal/workspace/C50/Huawei_IoT_Agent_Tiny_SDK_Linux//agent_tiny/lwm2m_client/object_access_control.c **** #define RES_M_OBJECT_ID             0
  72:/home/baikal/workspace/C50/Huawei_IoT_Agent_Tiny_SDK_Linux//agent_tiny/lwm2m_client/object_access_control.c **** #define RES_M_OBJECT_INSTANCE_ID    1
  73:/home/baikal/workspace/C50/Huawei_IoT_Agent_Tiny_SDK_Linux//agent_tiny/lwm2m_client/object_access_control.c **** #define RES_O_ACL                   2
  74:/home/baikal/workspace/C50/Huawei_IoT_Agent_Tiny_SDK_Linux//agent_tiny/lwm2m_client/object_access_control.c **** #define RES_M_ACCESS_CONTROL_OWNER  3
  75:/home/baikal/workspace/C50/Huawei_IoT_Agent_Tiny_SDK_Linux//agent_tiny/lwm2m_client/object_access_control.c **** 
  76:/home/baikal/workspace/C50/Huawei_IoT_Agent_Tiny_SDK_Linux//agent_tiny/lwm2m_client/object_access_control.c **** #define MAX_DATA_VAL 65535
  77:/home/baikal/workspace/C50/Huawei_IoT_Agent_Tiny_SDK_Linux//agent_tiny/lwm2m_client/object_access_control.c **** 
  78:/home/baikal/workspace/C50/Huawei_IoT_Agent_Tiny_SDK_Linux//agent_tiny/lwm2m_client/object_access_control.c **** typedef struct acc_ctrl_ri_s
  79:/home/baikal/workspace/C50/Huawei_IoT_Agent_Tiny_SDK_Linux//agent_tiny/lwm2m_client/object_access_control.c **** {
  80:/home/baikal/workspace/C50/Huawei_IoT_Agent_Tiny_SDK_Linux//agent_tiny/lwm2m_client/object_access_control.c ****     // linked list:
  81:/home/baikal/workspace/C50/Huawei_IoT_Agent_Tiny_SDK_Linux//agent_tiny/lwm2m_client/object_access_control.c ****     struct acc_ctrl_ri_s   *next;       // matches lwm2m_list_t::next
  82:/home/baikal/workspace/C50/Huawei_IoT_Agent_Tiny_SDK_Linux//agent_tiny/lwm2m_client/object_access_control.c ****     uint16_t                resInstId;  // matches lwm2m_list_t::id, ..serverID
  83:/home/baikal/workspace/C50/Huawei_IoT_Agent_Tiny_SDK_Linux//agent_tiny/lwm2m_client/object_access_control.c ****     // resource data:
  84:/home/baikal/workspace/C50/Huawei_IoT_Agent_Tiny_SDK_Linux//agent_tiny/lwm2m_client/object_access_control.c ****     uint16_t                accCtrlValue;
  85:/home/baikal/workspace/C50/Huawei_IoT_Agent_Tiny_SDK_Linux//agent_tiny/lwm2m_client/object_access_control.c **** } acc_ctrl_ri_t;
  86:/home/baikal/workspace/C50/Huawei_IoT_Agent_Tiny_SDK_Linux//agent_tiny/lwm2m_client/object_access_control.c **** 
  87:/home/baikal/workspace/C50/Huawei_IoT_Agent_Tiny_SDK_Linux//agent_tiny/lwm2m_client/object_access_control.c **** typedef struct acc_ctrl_oi_s
  88:/home/baikal/workspace/C50/Huawei_IoT_Agent_Tiny_SDK_Linux//agent_tiny/lwm2m_client/object_access_control.c **** {
  89:/home/baikal/workspace/C50/Huawei_IoT_Agent_Tiny_SDK_Linux//agent_tiny/lwm2m_client/object_access_control.c ****     //linked list:
  90:/home/baikal/workspace/C50/Huawei_IoT_Agent_Tiny_SDK_Linux//agent_tiny/lwm2m_client/object_access_control.c ****     struct acc_ctrl_oi_s   *next;       // matches lwm2m_list_t::next
  91:/home/baikal/workspace/C50/Huawei_IoT_Agent_Tiny_SDK_Linux//agent_tiny/lwm2m_client/object_access_control.c ****     uint16_t                objInstId;  // matches lwm2m_list_t::id
  92:/home/baikal/workspace/C50/Huawei_IoT_Agent_Tiny_SDK_Linux//agent_tiny/lwm2m_client/object_access_control.c ****     // resources
  93:/home/baikal/workspace/C50/Huawei_IoT_Agent_Tiny_SDK_Linux//agent_tiny/lwm2m_client/object_access_control.c ****     uint16_t                objectId;
  94:/home/baikal/workspace/C50/Huawei_IoT_Agent_Tiny_SDK_Linux//agent_tiny/lwm2m_client/object_access_control.c ****     uint16_t                objectInstId;
  95:/home/baikal/workspace/C50/Huawei_IoT_Agent_Tiny_SDK_Linux//agent_tiny/lwm2m_client/object_access_control.c ****     uint16_t                accCtrlOwner;
  96:/home/baikal/workspace/C50/Huawei_IoT_Agent_Tiny_SDK_Linux//agent_tiny/lwm2m_client/object_access_control.c ****     acc_ctrl_ri_t          *accCtrlValList;
  97:/home/baikal/workspace/C50/Huawei_IoT_Agent_Tiny_SDK_Linux//agent_tiny/lwm2m_client/object_access_control.c **** } acc_ctrl_oi_t;
  98:/home/baikal/workspace/C50/Huawei_IoT_Agent_Tiny_SDK_Linux//agent_tiny/lwm2m_client/object_access_control.c **** 
  99:/home/baikal/workspace/C50/Huawei_IoT_Agent_Tiny_SDK_Linux//agent_tiny/lwm2m_client/object_access_control.c **** 
 100:/home/baikal/workspace/C50/Huawei_IoT_Agent_Tiny_SDK_Linux//agent_tiny/lwm2m_client/object_access_control.c **** static uint8_t prv_set_tlv(lwm2m_data_t *dataP, acc_ctrl_oi_t *accCtrlOiP)
 101:/home/baikal/workspace/C50/Huawei_IoT_Agent_Tiny_SDK_Linux//agent_tiny/lwm2m_client/object_access_control.c **** {
 102:/home/baikal/workspace/C50/Huawei_IoT_Agent_Tiny_SDK_Linux//agent_tiny/lwm2m_client/object_access_control.c ****     switch (dataP->id)
 103:/home/baikal/workspace/C50/Huawei_IoT_Agent_Tiny_SDK_Linux//agent_tiny/lwm2m_client/object_access_control.c ****     {
 104:/home/baikal/workspace/C50/Huawei_IoT_Agent_Tiny_SDK_Linux//agent_tiny/lwm2m_client/object_access_control.c ****     case RES_M_OBJECT_ID:
 105:/home/baikal/workspace/C50/Huawei_IoT_Agent_Tiny_SDK_Linux//agent_tiny/lwm2m_client/object_access_control.c ****         lwm2m_data_encode_int(accCtrlOiP->objectId, dataP);
 106:/home/baikal/workspace/C50/Huawei_IoT_Agent_Tiny_SDK_Linux//agent_tiny/lwm2m_client/object_access_control.c ****         return COAP_205_CONTENT;
 107:/home/baikal/workspace/C50/Huawei_IoT_Agent_Tiny_SDK_Linux//agent_tiny/lwm2m_client/object_access_control.c ****     case RES_M_OBJECT_INSTANCE_ID:
GAS LISTING /tmp/ccOjtb1y.s 			page 3


 108:/home/baikal/workspace/C50/Huawei_IoT_Agent_Tiny_SDK_Linux//agent_tiny/lwm2m_client/object_access_control.c ****         lwm2m_data_encode_int(accCtrlOiP->objectInstId, dataP);
 109:/home/baikal/workspace/C50/Huawei_IoT_Agent_Tiny_SDK_Linux//agent_tiny/lwm2m_client/object_access_control.c ****         return COAP_205_CONTENT;
 110:/home/baikal/workspace/C50/Huawei_IoT_Agent_Tiny_SDK_Linux//agent_tiny/lwm2m_client/object_access_control.c ****     case RES_O_ACL:
 111:/home/baikal/workspace/C50/Huawei_IoT_Agent_Tiny_SDK_Linux//agent_tiny/lwm2m_client/object_access_control.c ****     {
 112:/home/baikal/workspace/C50/Huawei_IoT_Agent_Tiny_SDK_Linux//agent_tiny/lwm2m_client/object_access_control.c ****         int ri;
 113:/home/baikal/workspace/C50/Huawei_IoT_Agent_Tiny_SDK_Linux//agent_tiny/lwm2m_client/object_access_control.c ****         acc_ctrl_ri_t *accCtrlRiP;
 114:/home/baikal/workspace/C50/Huawei_IoT_Agent_Tiny_SDK_Linux//agent_tiny/lwm2m_client/object_access_control.c ****         for (accCtrlRiP = accCtrlOiP->accCtrlValList, ri = 0;
 115:/home/baikal/workspace/C50/Huawei_IoT_Agent_Tiny_SDK_Linux//agent_tiny/lwm2m_client/object_access_control.c ****                 accCtrlRiP != NULL;
 116:/home/baikal/workspace/C50/Huawei_IoT_Agent_Tiny_SDK_Linux//agent_tiny/lwm2m_client/object_access_control.c ****                 accCtrlRiP = accCtrlRiP->next, ri++);
 117:/home/baikal/workspace/C50/Huawei_IoT_Agent_Tiny_SDK_Linux//agent_tiny/lwm2m_client/object_access_control.c **** 
 118:/home/baikal/workspace/C50/Huawei_IoT_Agent_Tiny_SDK_Linux//agent_tiny/lwm2m_client/object_access_control.c ****         if (ri == 0) // no values!
 119:/home/baikal/workspace/C50/Huawei_IoT_Agent_Tiny_SDK_Linux//agent_tiny/lwm2m_client/object_access_control.c ****         {
 120:/home/baikal/workspace/C50/Huawei_IoT_Agent_Tiny_SDK_Linux//agent_tiny/lwm2m_client/object_access_control.c ****             return COAP_404_NOT_FOUND;
 121:/home/baikal/workspace/C50/Huawei_IoT_Agent_Tiny_SDK_Linux//agent_tiny/lwm2m_client/object_access_control.c ****         }
 122:/home/baikal/workspace/C50/Huawei_IoT_Agent_Tiny_SDK_Linux//agent_tiny/lwm2m_client/object_access_control.c ****         else
 123:/home/baikal/workspace/C50/Huawei_IoT_Agent_Tiny_SDK_Linux//agent_tiny/lwm2m_client/object_access_control.c ****         {
 124:/home/baikal/workspace/C50/Huawei_IoT_Agent_Tiny_SDK_Linux//agent_tiny/lwm2m_client/object_access_control.c ****             lwm2m_data_t *subTlvP = lwm2m_data_new(ri);
 125:/home/baikal/workspace/C50/Huawei_IoT_Agent_Tiny_SDK_Linux//agent_tiny/lwm2m_client/object_access_control.c ****             if (subTlvP == NULL) return COAP_500_INTERNAL_SERVER_ERROR;
 126:/home/baikal/workspace/C50/Huawei_IoT_Agent_Tiny_SDK_Linux//agent_tiny/lwm2m_client/object_access_control.c ****             for (accCtrlRiP = accCtrlOiP->accCtrlValList, ri = 0;
 127:/home/baikal/workspace/C50/Huawei_IoT_Agent_Tiny_SDK_Linux//agent_tiny/lwm2m_client/object_access_control.c ****                     accCtrlRiP != NULL;
 128:/home/baikal/workspace/C50/Huawei_IoT_Agent_Tiny_SDK_Linux//agent_tiny/lwm2m_client/object_access_control.c ****                     accCtrlRiP = accCtrlRiP->next, ri++)
 129:/home/baikal/workspace/C50/Huawei_IoT_Agent_Tiny_SDK_Linux//agent_tiny/lwm2m_client/object_access_control.c ****             {
 130:/home/baikal/workspace/C50/Huawei_IoT_Agent_Tiny_SDK_Linux//agent_tiny/lwm2m_client/object_access_control.c ****                 subTlvP[ri].id = accCtrlRiP->resInstId;
 131:/home/baikal/workspace/C50/Huawei_IoT_Agent_Tiny_SDK_Linux//agent_tiny/lwm2m_client/object_access_control.c ****                 lwm2m_data_encode_int(accCtrlRiP->accCtrlValue, &subTlvP[ri]);
 132:/home/baikal/workspace/C50/Huawei_IoT_Agent_Tiny_SDK_Linux//agent_tiny/lwm2m_client/object_access_control.c ****             }
 133:/home/baikal/workspace/C50/Huawei_IoT_Agent_Tiny_SDK_Linux//agent_tiny/lwm2m_client/object_access_control.c ****             lwm2m_data_encode_instances(subTlvP, ri, dataP);
 134:/home/baikal/workspace/C50/Huawei_IoT_Agent_Tiny_SDK_Linux//agent_tiny/lwm2m_client/object_access_control.c ****             return COAP_205_CONTENT;
 135:/home/baikal/workspace/C50/Huawei_IoT_Agent_Tiny_SDK_Linux//agent_tiny/lwm2m_client/object_access_control.c ****         }
 136:/home/baikal/workspace/C50/Huawei_IoT_Agent_Tiny_SDK_Linux//agent_tiny/lwm2m_client/object_access_control.c ****     }
 137:/home/baikal/workspace/C50/Huawei_IoT_Agent_Tiny_SDK_Linux//agent_tiny/lwm2m_client/object_access_control.c ****     case RES_M_ACCESS_CONTROL_OWNER:
 138:/home/baikal/workspace/C50/Huawei_IoT_Agent_Tiny_SDK_Linux//agent_tiny/lwm2m_client/object_access_control.c ****         lwm2m_data_encode_int(accCtrlOiP->accCtrlOwner, dataP);
 139:/home/baikal/workspace/C50/Huawei_IoT_Agent_Tiny_SDK_Linux//agent_tiny/lwm2m_client/object_access_control.c ****         return COAP_205_CONTENT;
 140:/home/baikal/workspace/C50/Huawei_IoT_Agent_Tiny_SDK_Linux//agent_tiny/lwm2m_client/object_access_control.c ****     default:
 141:/home/baikal/workspace/C50/Huawei_IoT_Agent_Tiny_SDK_Linux//agent_tiny/lwm2m_client/object_access_control.c ****         return COAP_404_NOT_FOUND ;
 142:/home/baikal/workspace/C50/Huawei_IoT_Agent_Tiny_SDK_Linux//agent_tiny/lwm2m_client/object_access_control.c ****     }
 143:/home/baikal/workspace/C50/Huawei_IoT_Agent_Tiny_SDK_Linux//agent_tiny/lwm2m_client/object_access_control.c **** }
 144:/home/baikal/workspace/C50/Huawei_IoT_Agent_Tiny_SDK_Linux//agent_tiny/lwm2m_client/object_access_control.c **** 
 145:/home/baikal/workspace/C50/Huawei_IoT_Agent_Tiny_SDK_Linux//agent_tiny/lwm2m_client/object_access_control.c **** static uint8_t prv_read(uint16_t instanceId, int *numDataP,
 146:/home/baikal/workspace/C50/Huawei_IoT_Agent_Tiny_SDK_Linux//agent_tiny/lwm2m_client/object_access_control.c ****                         lwm2m_data_t **dataArrayP, lwm2m_data_cfg_t *dataCfg, lwm2m_object_t *objec
 147:/home/baikal/workspace/C50/Huawei_IoT_Agent_Tiny_SDK_Linux//agent_tiny/lwm2m_client/object_access_control.c **** {
 148:/home/baikal/workspace/C50/Huawei_IoT_Agent_Tiny_SDK_Linux//agent_tiny/lwm2m_client/object_access_control.c ****     uint8_t result;
 149:/home/baikal/workspace/C50/Huawei_IoT_Agent_Tiny_SDK_Linux//agent_tiny/lwm2m_client/object_access_control.c ****     int     ri, ni;
 150:/home/baikal/workspace/C50/Huawei_IoT_Agent_Tiny_SDK_Linux//agent_tiny/lwm2m_client/object_access_control.c **** 
 151:/home/baikal/workspace/C50/Huawei_IoT_Agent_Tiny_SDK_Linux//agent_tiny/lwm2m_client/object_access_control.c ****     // multi-instance object: search instance
 152:/home/baikal/workspace/C50/Huawei_IoT_Agent_Tiny_SDK_Linux//agent_tiny/lwm2m_client/object_access_control.c ****     acc_ctrl_oi_t *accCtrlOiP =
 153:/home/baikal/workspace/C50/Huawei_IoT_Agent_Tiny_SDK_Linux//agent_tiny/lwm2m_client/object_access_control.c ****         (acc_ctrl_oi_t *)lwm2m_list_find(objectP->instanceList, instanceId);
 154:/home/baikal/workspace/C50/Huawei_IoT_Agent_Tiny_SDK_Linux//agent_tiny/lwm2m_client/object_access_control.c ****     if (accCtrlOiP == NULL)
 155:/home/baikal/workspace/C50/Huawei_IoT_Agent_Tiny_SDK_Linux//agent_tiny/lwm2m_client/object_access_control.c ****     {
 156:/home/baikal/workspace/C50/Huawei_IoT_Agent_Tiny_SDK_Linux//agent_tiny/lwm2m_client/object_access_control.c ****         return COAP_404_NOT_FOUND ;
 157:/home/baikal/workspace/C50/Huawei_IoT_Agent_Tiny_SDK_Linux//agent_tiny/lwm2m_client/object_access_control.c ****     }
 158:/home/baikal/workspace/C50/Huawei_IoT_Agent_Tiny_SDK_Linux//agent_tiny/lwm2m_client/object_access_control.c **** 
 159:/home/baikal/workspace/C50/Huawei_IoT_Agent_Tiny_SDK_Linux//agent_tiny/lwm2m_client/object_access_control.c ****     // is the server asking for the full object ?
 160:/home/baikal/workspace/C50/Huawei_IoT_Agent_Tiny_SDK_Linux//agent_tiny/lwm2m_client/object_access_control.c ****     if (*numDataP == 0)
 161:/home/baikal/workspace/C50/Huawei_IoT_Agent_Tiny_SDK_Linux//agent_tiny/lwm2m_client/object_access_control.c ****     {
 162:/home/baikal/workspace/C50/Huawei_IoT_Agent_Tiny_SDK_Linux//agent_tiny/lwm2m_client/object_access_control.c ****         uint16_t resList[] =
 163:/home/baikal/workspace/C50/Huawei_IoT_Agent_Tiny_SDK_Linux//agent_tiny/lwm2m_client/object_access_control.c ****         {
 164:/home/baikal/workspace/C50/Huawei_IoT_Agent_Tiny_SDK_Linux//agent_tiny/lwm2m_client/object_access_control.c ****             RES_M_OBJECT_ID,
GAS LISTING /tmp/ccOjtb1y.s 			page 4


 165:/home/baikal/workspace/C50/Huawei_IoT_Agent_Tiny_SDK_Linux//agent_tiny/lwm2m_client/object_access_control.c ****             RES_M_OBJECT_INSTANCE_ID,
 166:/home/baikal/workspace/C50/Huawei_IoT_Agent_Tiny_SDK_Linux//agent_tiny/lwm2m_client/object_access_control.c ****             RES_O_ACL,  // prv_set_tlv will return COAP_404_NOT_FOUND w/o values!
 167:/home/baikal/workspace/C50/Huawei_IoT_Agent_Tiny_SDK_Linux//agent_tiny/lwm2m_client/object_access_control.c ****             RES_M_ACCESS_CONTROL_OWNER
 168:/home/baikal/workspace/C50/Huawei_IoT_Agent_Tiny_SDK_Linux//agent_tiny/lwm2m_client/object_access_control.c ****         };
 169:/home/baikal/workspace/C50/Huawei_IoT_Agent_Tiny_SDK_Linux//agent_tiny/lwm2m_client/object_access_control.c ****         int nbRes = sizeof(resList) / sizeof(uint16_t);
 170:/home/baikal/workspace/C50/Huawei_IoT_Agent_Tiny_SDK_Linux//agent_tiny/lwm2m_client/object_access_control.c **** 
 171:/home/baikal/workspace/C50/Huawei_IoT_Agent_Tiny_SDK_Linux//agent_tiny/lwm2m_client/object_access_control.c ****         *dataArrayP = lwm2m_data_new(nbRes);
 172:/home/baikal/workspace/C50/Huawei_IoT_Agent_Tiny_SDK_Linux//agent_tiny/lwm2m_client/object_access_control.c ****         if (*dataArrayP == NULL)
 173:/home/baikal/workspace/C50/Huawei_IoT_Agent_Tiny_SDK_Linux//agent_tiny/lwm2m_client/object_access_control.c ****             return COAP_500_INTERNAL_SERVER_ERROR ;
 174:/home/baikal/workspace/C50/Huawei_IoT_Agent_Tiny_SDK_Linux//agent_tiny/lwm2m_client/object_access_control.c ****         *numDataP = nbRes;
 175:/home/baikal/workspace/C50/Huawei_IoT_Agent_Tiny_SDK_Linux//agent_tiny/lwm2m_client/object_access_control.c ****         for (ri = 0; ri < nbRes; ri++)
 176:/home/baikal/workspace/C50/Huawei_IoT_Agent_Tiny_SDK_Linux//agent_tiny/lwm2m_client/object_access_control.c ****         {
 177:/home/baikal/workspace/C50/Huawei_IoT_Agent_Tiny_SDK_Linux//agent_tiny/lwm2m_client/object_access_control.c ****             (*dataArrayP)[ri].id = resList[ri];
 178:/home/baikal/workspace/C50/Huawei_IoT_Agent_Tiny_SDK_Linux//agent_tiny/lwm2m_client/object_access_control.c ****         }
 179:/home/baikal/workspace/C50/Huawei_IoT_Agent_Tiny_SDK_Linux//agent_tiny/lwm2m_client/object_access_control.c ****     }
 180:/home/baikal/workspace/C50/Huawei_IoT_Agent_Tiny_SDK_Linux//agent_tiny/lwm2m_client/object_access_control.c **** 
 181:/home/baikal/workspace/C50/Huawei_IoT_Agent_Tiny_SDK_Linux//agent_tiny/lwm2m_client/object_access_control.c ****     ni = ri = 0;
 182:/home/baikal/workspace/C50/Huawei_IoT_Agent_Tiny_SDK_Linux//agent_tiny/lwm2m_client/object_access_control.c ****     do
 183:/home/baikal/workspace/C50/Huawei_IoT_Agent_Tiny_SDK_Linux//agent_tiny/lwm2m_client/object_access_control.c ****     {
 184:/home/baikal/workspace/C50/Huawei_IoT_Agent_Tiny_SDK_Linux//agent_tiny/lwm2m_client/object_access_control.c ****         result = prv_set_tlv((*dataArrayP) + ni, accCtrlOiP);
 185:/home/baikal/workspace/C50/Huawei_IoT_Agent_Tiny_SDK_Linux//agent_tiny/lwm2m_client/object_access_control.c ****         if (result == COAP_404_NOT_FOUND)
 186:/home/baikal/workspace/C50/Huawei_IoT_Agent_Tiny_SDK_Linux//agent_tiny/lwm2m_client/object_access_control.c ****         {
 187:/home/baikal/workspace/C50/Huawei_IoT_Agent_Tiny_SDK_Linux//agent_tiny/lwm2m_client/object_access_control.c ****             ri++;
 188:/home/baikal/workspace/C50/Huawei_IoT_Agent_Tiny_SDK_Linux//agent_tiny/lwm2m_client/object_access_control.c ****             if (*numDataP > 1) result = COAP_205_CONTENT;
 189:/home/baikal/workspace/C50/Huawei_IoT_Agent_Tiny_SDK_Linux//agent_tiny/lwm2m_client/object_access_control.c ****         }
 190:/home/baikal/workspace/C50/Huawei_IoT_Agent_Tiny_SDK_Linux//agent_tiny/lwm2m_client/object_access_control.c ****         else if (ri > 0)    // copy new one by ri skipped ones in front
 191:/home/baikal/workspace/C50/Huawei_IoT_Agent_Tiny_SDK_Linux//agent_tiny/lwm2m_client/object_access_control.c ****         {
 192:/home/baikal/workspace/C50/Huawei_IoT_Agent_Tiny_SDK_Linux//agent_tiny/lwm2m_client/object_access_control.c ****             (*dataArrayP)[ni - ri] = (*dataArrayP)[ni];
 193:/home/baikal/workspace/C50/Huawei_IoT_Agent_Tiny_SDK_Linux//agent_tiny/lwm2m_client/object_access_control.c ****         }
 194:/home/baikal/workspace/C50/Huawei_IoT_Agent_Tiny_SDK_Linux//agent_tiny/lwm2m_client/object_access_control.c ****         ni++;
 195:/home/baikal/workspace/C50/Huawei_IoT_Agent_Tiny_SDK_Linux//agent_tiny/lwm2m_client/object_access_control.c ****     }
 196:/home/baikal/workspace/C50/Huawei_IoT_Agent_Tiny_SDK_Linux//agent_tiny/lwm2m_client/object_access_control.c ****     while (ni < *numDataP && result == COAP_205_CONTENT);
 197:/home/baikal/workspace/C50/Huawei_IoT_Agent_Tiny_SDK_Linux//agent_tiny/lwm2m_client/object_access_control.c ****     *numDataP = ni - ri;
 198:/home/baikal/workspace/C50/Huawei_IoT_Agent_Tiny_SDK_Linux//agent_tiny/lwm2m_client/object_access_control.c **** 
 199:/home/baikal/workspace/C50/Huawei_IoT_Agent_Tiny_SDK_Linux//agent_tiny/lwm2m_client/object_access_control.c ****     return result;
 200:/home/baikal/workspace/C50/Huawei_IoT_Agent_Tiny_SDK_Linux//agent_tiny/lwm2m_client/object_access_control.c **** }
 201:/home/baikal/workspace/C50/Huawei_IoT_Agent_Tiny_SDK_Linux//agent_tiny/lwm2m_client/object_access_control.c **** 
 202:/home/baikal/workspace/C50/Huawei_IoT_Agent_Tiny_SDK_Linux//agent_tiny/lwm2m_client/object_access_control.c **** static bool prv_add_ac_val(acc_ctrl_oi_t *accCtrlOiP,
 203:/home/baikal/workspace/C50/Huawei_IoT_Agent_Tiny_SDK_Linux//agent_tiny/lwm2m_client/object_access_control.c ****                            uint16_t acResId, uint16_t acValue)
 204:/home/baikal/workspace/C50/Huawei_IoT_Agent_Tiny_SDK_Linux//agent_tiny/lwm2m_client/object_access_control.c **** {
 205:/home/baikal/workspace/C50/Huawei_IoT_Agent_Tiny_SDK_Linux//agent_tiny/lwm2m_client/object_access_control.c ****     bool ret = false;
 206:/home/baikal/workspace/C50/Huawei_IoT_Agent_Tiny_SDK_Linux//agent_tiny/lwm2m_client/object_access_control.c ****     acc_ctrl_ri_t *accCtrlRiP;
 207:/home/baikal/workspace/C50/Huawei_IoT_Agent_Tiny_SDK_Linux//agent_tiny/lwm2m_client/object_access_control.c ****     accCtrlRiP = (acc_ctrl_ri_t *)lwm2m_malloc(sizeof(acc_ctrl_ri_t));
 208:/home/baikal/workspace/C50/Huawei_IoT_Agent_Tiny_SDK_Linux//agent_tiny/lwm2m_client/object_access_control.c ****     if (accCtrlRiP == NULL)
 209:/home/baikal/workspace/C50/Huawei_IoT_Agent_Tiny_SDK_Linux//agent_tiny/lwm2m_client/object_access_control.c ****     {
 210:/home/baikal/workspace/C50/Huawei_IoT_Agent_Tiny_SDK_Linux//agent_tiny/lwm2m_client/object_access_control.c ****         return ret;
 211:/home/baikal/workspace/C50/Huawei_IoT_Agent_Tiny_SDK_Linux//agent_tiny/lwm2m_client/object_access_control.c ****     }
 212:/home/baikal/workspace/C50/Huawei_IoT_Agent_Tiny_SDK_Linux//agent_tiny/lwm2m_client/object_access_control.c ****     else
 213:/home/baikal/workspace/C50/Huawei_IoT_Agent_Tiny_SDK_Linux//agent_tiny/lwm2m_client/object_access_control.c ****     {
 214:/home/baikal/workspace/C50/Huawei_IoT_Agent_Tiny_SDK_Linux//agent_tiny/lwm2m_client/object_access_control.c ****         memset(accCtrlRiP, 0, sizeof(acc_ctrl_ri_t));
 215:/home/baikal/workspace/C50/Huawei_IoT_Agent_Tiny_SDK_Linux//agent_tiny/lwm2m_client/object_access_control.c ****         accCtrlRiP->resInstId      = acResId;
 216:/home/baikal/workspace/C50/Huawei_IoT_Agent_Tiny_SDK_Linux//agent_tiny/lwm2m_client/object_access_control.c ****         accCtrlRiP->accCtrlValue   = acValue;
 217:/home/baikal/workspace/C50/Huawei_IoT_Agent_Tiny_SDK_Linux//agent_tiny/lwm2m_client/object_access_control.c **** 
 218:/home/baikal/workspace/C50/Huawei_IoT_Agent_Tiny_SDK_Linux//agent_tiny/lwm2m_client/object_access_control.c ****         accCtrlOiP->accCtrlValList = (acc_ctrl_ri_t *)
 219:/home/baikal/workspace/C50/Huawei_IoT_Agent_Tiny_SDK_Linux//agent_tiny/lwm2m_client/object_access_control.c ****                                      LWM2M_LIST_ADD(accCtrlOiP->accCtrlValList, accCtrlRiP);
 220:/home/baikal/workspace/C50/Huawei_IoT_Agent_Tiny_SDK_Linux//agent_tiny/lwm2m_client/object_access_control.c ****         ret = true;
 221:/home/baikal/workspace/C50/Huawei_IoT_Agent_Tiny_SDK_Linux//agent_tiny/lwm2m_client/object_access_control.c ****     }
GAS LISTING /tmp/ccOjtb1y.s 			page 5


 222:/home/baikal/workspace/C50/Huawei_IoT_Agent_Tiny_SDK_Linux//agent_tiny/lwm2m_client/object_access_control.c ****     return ret;
 223:/home/baikal/workspace/C50/Huawei_IoT_Agent_Tiny_SDK_Linux//agent_tiny/lwm2m_client/object_access_control.c **** }
 224:/home/baikal/workspace/C50/Huawei_IoT_Agent_Tiny_SDK_Linux//agent_tiny/lwm2m_client/object_access_control.c **** 
 225:/home/baikal/workspace/C50/Huawei_IoT_Agent_Tiny_SDK_Linux//agent_tiny/lwm2m_client/object_access_control.c **** static uint8_t prv_write_resources(uint16_t instanceId, int numData,
 226:/home/baikal/workspace/C50/Huawei_IoT_Agent_Tiny_SDK_Linux//agent_tiny/lwm2m_client/object_access_control.c ****                                    lwm2m_data_t *tlvArray, lwm2m_object_t *objectP, bool doCreate)
 227:/home/baikal/workspace/C50/Huawei_IoT_Agent_Tiny_SDK_Linux//agent_tiny/lwm2m_client/object_access_control.c **** {
 228:/home/baikal/workspace/C50/Huawei_IoT_Agent_Tiny_SDK_Linux//agent_tiny/lwm2m_client/object_access_control.c ****     int i;
 229:/home/baikal/workspace/C50/Huawei_IoT_Agent_Tiny_SDK_Linux//agent_tiny/lwm2m_client/object_access_control.c ****     uint8_t result = COAP_NO_ERROR;
 230:/home/baikal/workspace/C50/Huawei_IoT_Agent_Tiny_SDK_Linux//agent_tiny/lwm2m_client/object_access_control.c ****     int64_t value;
 231:/home/baikal/workspace/C50/Huawei_IoT_Agent_Tiny_SDK_Linux//agent_tiny/lwm2m_client/object_access_control.c ****     lwm2m_data_t *subTlvArray;
 232:/home/baikal/workspace/C50/Huawei_IoT_Agent_Tiny_SDK_Linux//agent_tiny/lwm2m_client/object_access_control.c ****     int ri;
 233:/home/baikal/workspace/C50/Huawei_IoT_Agent_Tiny_SDK_Linux//agent_tiny/lwm2m_client/object_access_control.c **** 
 234:/home/baikal/workspace/C50/Huawei_IoT_Agent_Tiny_SDK_Linux//agent_tiny/lwm2m_client/object_access_control.c ****     acc_ctrl_oi_t *accCtrlOiP = (acc_ctrl_oi_t *)
 235:/home/baikal/workspace/C50/Huawei_IoT_Agent_Tiny_SDK_Linux//agent_tiny/lwm2m_client/object_access_control.c ****                                 lwm2m_list_find(objectP->instanceList, instanceId);
 236:/home/baikal/workspace/C50/Huawei_IoT_Agent_Tiny_SDK_Linux//agent_tiny/lwm2m_client/object_access_control.c ****     if (NULL == accCtrlOiP)
 237:/home/baikal/workspace/C50/Huawei_IoT_Agent_Tiny_SDK_Linux//agent_tiny/lwm2m_client/object_access_control.c ****         return COAP_404_NOT_FOUND ;
 238:/home/baikal/workspace/C50/Huawei_IoT_Agent_Tiny_SDK_Linux//agent_tiny/lwm2m_client/object_access_control.c **** 
 239:/home/baikal/workspace/C50/Huawei_IoT_Agent_Tiny_SDK_Linux//agent_tiny/lwm2m_client/object_access_control.c ****     i = 0;
 240:/home/baikal/workspace/C50/Huawei_IoT_Agent_Tiny_SDK_Linux//agent_tiny/lwm2m_client/object_access_control.c ****     do
 241:/home/baikal/workspace/C50/Huawei_IoT_Agent_Tiny_SDK_Linux//agent_tiny/lwm2m_client/object_access_control.c ****     {
 242:/home/baikal/workspace/C50/Huawei_IoT_Agent_Tiny_SDK_Linux//agent_tiny/lwm2m_client/object_access_control.c ****         switch (tlvArray[i].id)
 243:/home/baikal/workspace/C50/Huawei_IoT_Agent_Tiny_SDK_Linux//agent_tiny/lwm2m_client/object_access_control.c ****         {
 244:/home/baikal/workspace/C50/Huawei_IoT_Agent_Tiny_SDK_Linux//agent_tiny/lwm2m_client/object_access_control.c ****         case RES_M_OBJECT_ID:
 245:/home/baikal/workspace/C50/Huawei_IoT_Agent_Tiny_SDK_Linux//agent_tiny/lwm2m_client/object_access_control.c ****             if (doCreate == false)
 246:/home/baikal/workspace/C50/Huawei_IoT_Agent_Tiny_SDK_Linux//agent_tiny/lwm2m_client/object_access_control.c ****             {
 247:/home/baikal/workspace/C50/Huawei_IoT_Agent_Tiny_SDK_Linux//agent_tiny/lwm2m_client/object_access_control.c ****                 result = COAP_405_METHOD_NOT_ALLOWED;
 248:/home/baikal/workspace/C50/Huawei_IoT_Agent_Tiny_SDK_Linux//agent_tiny/lwm2m_client/object_access_control.c ****             }
 249:/home/baikal/workspace/C50/Huawei_IoT_Agent_Tiny_SDK_Linux//agent_tiny/lwm2m_client/object_access_control.c ****             else
 250:/home/baikal/workspace/C50/Huawei_IoT_Agent_Tiny_SDK_Linux//agent_tiny/lwm2m_client/object_access_control.c ****             {
 251:/home/baikal/workspace/C50/Huawei_IoT_Agent_Tiny_SDK_Linux//agent_tiny/lwm2m_client/object_access_control.c ****                 if (1 != lwm2m_data_decode_int(&tlvArray[i], &value))
 252:/home/baikal/workspace/C50/Huawei_IoT_Agent_Tiny_SDK_Linux//agent_tiny/lwm2m_client/object_access_control.c ****                 {
 253:/home/baikal/workspace/C50/Huawei_IoT_Agent_Tiny_SDK_Linux//agent_tiny/lwm2m_client/object_access_control.c ****                     result = COAP_400_BAD_REQUEST;
 254:/home/baikal/workspace/C50/Huawei_IoT_Agent_Tiny_SDK_Linux//agent_tiny/lwm2m_client/object_access_control.c ****                 }
 255:/home/baikal/workspace/C50/Huawei_IoT_Agent_Tiny_SDK_Linux//agent_tiny/lwm2m_client/object_access_control.c ****                 else if (value < 1 || value > 65534)
 256:/home/baikal/workspace/C50/Huawei_IoT_Agent_Tiny_SDK_Linux//agent_tiny/lwm2m_client/object_access_control.c ****                 {
 257:/home/baikal/workspace/C50/Huawei_IoT_Agent_Tiny_SDK_Linux//agent_tiny/lwm2m_client/object_access_control.c ****                     result = COAP_406_NOT_ACCEPTABLE;
 258:/home/baikal/workspace/C50/Huawei_IoT_Agent_Tiny_SDK_Linux//agent_tiny/lwm2m_client/object_access_control.c ****                 }
 259:/home/baikal/workspace/C50/Huawei_IoT_Agent_Tiny_SDK_Linux//agent_tiny/lwm2m_client/object_access_control.c ****                 else
 260:/home/baikal/workspace/C50/Huawei_IoT_Agent_Tiny_SDK_Linux//agent_tiny/lwm2m_client/object_access_control.c ****                 {
 261:/home/baikal/workspace/C50/Huawei_IoT_Agent_Tiny_SDK_Linux//agent_tiny/lwm2m_client/object_access_control.c ****                     accCtrlOiP->objectId = value;
 262:/home/baikal/workspace/C50/Huawei_IoT_Agent_Tiny_SDK_Linux//agent_tiny/lwm2m_client/object_access_control.c ****                     result = COAP_204_CHANGED;
 263:/home/baikal/workspace/C50/Huawei_IoT_Agent_Tiny_SDK_Linux//agent_tiny/lwm2m_client/object_access_control.c ****                 }
 264:/home/baikal/workspace/C50/Huawei_IoT_Agent_Tiny_SDK_Linux//agent_tiny/lwm2m_client/object_access_control.c ****             }
 265:/home/baikal/workspace/C50/Huawei_IoT_Agent_Tiny_SDK_Linux//agent_tiny/lwm2m_client/object_access_control.c ****             break;
 266:/home/baikal/workspace/C50/Huawei_IoT_Agent_Tiny_SDK_Linux//agent_tiny/lwm2m_client/object_access_control.c ****         case RES_M_OBJECT_INSTANCE_ID:
 267:/home/baikal/workspace/C50/Huawei_IoT_Agent_Tiny_SDK_Linux//agent_tiny/lwm2m_client/object_access_control.c ****             if (doCreate == false)
 268:/home/baikal/workspace/C50/Huawei_IoT_Agent_Tiny_SDK_Linux//agent_tiny/lwm2m_client/object_access_control.c ****             {
 269:/home/baikal/workspace/C50/Huawei_IoT_Agent_Tiny_SDK_Linux//agent_tiny/lwm2m_client/object_access_control.c ****                 result = COAP_405_METHOD_NOT_ALLOWED;
 270:/home/baikal/workspace/C50/Huawei_IoT_Agent_Tiny_SDK_Linux//agent_tiny/lwm2m_client/object_access_control.c ****             }
 271:/home/baikal/workspace/C50/Huawei_IoT_Agent_Tiny_SDK_Linux//agent_tiny/lwm2m_client/object_access_control.c ****             else
 272:/home/baikal/workspace/C50/Huawei_IoT_Agent_Tiny_SDK_Linux//agent_tiny/lwm2m_client/object_access_control.c ****             {
 273:/home/baikal/workspace/C50/Huawei_IoT_Agent_Tiny_SDK_Linux//agent_tiny/lwm2m_client/object_access_control.c ****                 if (1 != lwm2m_data_decode_int(&tlvArray[i], &value))
 274:/home/baikal/workspace/C50/Huawei_IoT_Agent_Tiny_SDK_Linux//agent_tiny/lwm2m_client/object_access_control.c ****                 {
 275:/home/baikal/workspace/C50/Huawei_IoT_Agent_Tiny_SDK_Linux//agent_tiny/lwm2m_client/object_access_control.c ****                     result = COAP_400_BAD_REQUEST;
 276:/home/baikal/workspace/C50/Huawei_IoT_Agent_Tiny_SDK_Linux//agent_tiny/lwm2m_client/object_access_control.c ****                 }
 277:/home/baikal/workspace/C50/Huawei_IoT_Agent_Tiny_SDK_Linux//agent_tiny/lwm2m_client/object_access_control.c ****                 else if (value < 0 || value > MAX_DATA_VAL)
 278:/home/baikal/workspace/C50/Huawei_IoT_Agent_Tiny_SDK_Linux//agent_tiny/lwm2m_client/object_access_control.c ****                 {
GAS LISTING /tmp/ccOjtb1y.s 			page 6


 279:/home/baikal/workspace/C50/Huawei_IoT_Agent_Tiny_SDK_Linux//agent_tiny/lwm2m_client/object_access_control.c ****                     result = COAP_406_NOT_ACCEPTABLE;
 280:/home/baikal/workspace/C50/Huawei_IoT_Agent_Tiny_SDK_Linux//agent_tiny/lwm2m_client/object_access_control.c ****                 }
 281:/home/baikal/workspace/C50/Huawei_IoT_Agent_Tiny_SDK_Linux//agent_tiny/lwm2m_client/object_access_control.c ****                 else
 282:/home/baikal/workspace/C50/Huawei_IoT_Agent_Tiny_SDK_Linux//agent_tiny/lwm2m_client/object_access_control.c ****                 {
 283:/home/baikal/workspace/C50/Huawei_IoT_Agent_Tiny_SDK_Linux//agent_tiny/lwm2m_client/object_access_control.c ****                     accCtrlOiP->objectInstId = value;
 284:/home/baikal/workspace/C50/Huawei_IoT_Agent_Tiny_SDK_Linux//agent_tiny/lwm2m_client/object_access_control.c ****                     result = COAP_204_CHANGED;
 285:/home/baikal/workspace/C50/Huawei_IoT_Agent_Tiny_SDK_Linux//agent_tiny/lwm2m_client/object_access_control.c ****                 }
 286:/home/baikal/workspace/C50/Huawei_IoT_Agent_Tiny_SDK_Linux//agent_tiny/lwm2m_client/object_access_control.c ****             }
 287:/home/baikal/workspace/C50/Huawei_IoT_Agent_Tiny_SDK_Linux//agent_tiny/lwm2m_client/object_access_control.c ****             break;
 288:/home/baikal/workspace/C50/Huawei_IoT_Agent_Tiny_SDK_Linux//agent_tiny/lwm2m_client/object_access_control.c ****         case RES_O_ACL:
 289:/home/baikal/workspace/C50/Huawei_IoT_Agent_Tiny_SDK_Linux//agent_tiny/lwm2m_client/object_access_control.c ****         {
 290:/home/baikal/workspace/C50/Huawei_IoT_Agent_Tiny_SDK_Linux//agent_tiny/lwm2m_client/object_access_control.c ****             if (tlvArray[i].type != LWM2M_TYPE_MULTIPLE_RESOURCE)
 291:/home/baikal/workspace/C50/Huawei_IoT_Agent_Tiny_SDK_Linux//agent_tiny/lwm2m_client/object_access_control.c ****             {
 292:/home/baikal/workspace/C50/Huawei_IoT_Agent_Tiny_SDK_Linux//agent_tiny/lwm2m_client/object_access_control.c ****                 result = COAP_400_BAD_REQUEST;
 293:/home/baikal/workspace/C50/Huawei_IoT_Agent_Tiny_SDK_Linux//agent_tiny/lwm2m_client/object_access_control.c ****             }
 294:/home/baikal/workspace/C50/Huawei_IoT_Agent_Tiny_SDK_Linux//agent_tiny/lwm2m_client/object_access_control.c ****             else
 295:/home/baikal/workspace/C50/Huawei_IoT_Agent_Tiny_SDK_Linux//agent_tiny/lwm2m_client/object_access_control.c ****             {
 296:/home/baikal/workspace/C50/Huawei_IoT_Agent_Tiny_SDK_Linux//agent_tiny/lwm2m_client/object_access_control.c ****                 // MR-Write: Replace-implementation variant only
 297:/home/baikal/workspace/C50/Huawei_IoT_Agent_Tiny_SDK_Linux//agent_tiny/lwm2m_client/object_access_control.c ****                 // see LWM2M-TS:5.4.3 (wakaama has no part-update switch)
 298:/home/baikal/workspace/C50/Huawei_IoT_Agent_Tiny_SDK_Linux//agent_tiny/lwm2m_client/object_access_control.c **** 
 299:/home/baikal/workspace/C50/Huawei_IoT_Agent_Tiny_SDK_Linux//agent_tiny/lwm2m_client/object_access_control.c ****                 // 1st: save accValueList!
 300:/home/baikal/workspace/C50/Huawei_IoT_Agent_Tiny_SDK_Linux//agent_tiny/lwm2m_client/object_access_control.c ****                 acc_ctrl_ri_t *acValListSave = accCtrlOiP->accCtrlValList;
 301:/home/baikal/workspace/C50/Huawei_IoT_Agent_Tiny_SDK_Linux//agent_tiny/lwm2m_client/object_access_control.c ****                 accCtrlOiP->accCtrlValList = NULL;
 302:/home/baikal/workspace/C50/Huawei_IoT_Agent_Tiny_SDK_Linux//agent_tiny/lwm2m_client/object_access_control.c **** 
 303:/home/baikal/workspace/C50/Huawei_IoT_Agent_Tiny_SDK_Linux//agent_tiny/lwm2m_client/object_access_control.c ****                 subTlvArray = tlvArray[i].value.asChildren.array;
 304:/home/baikal/workspace/C50/Huawei_IoT_Agent_Tiny_SDK_Linux//agent_tiny/lwm2m_client/object_access_control.c **** 
 305:/home/baikal/workspace/C50/Huawei_IoT_Agent_Tiny_SDK_Linux//agent_tiny/lwm2m_client/object_access_control.c ****                 if (tlvArray[i].value.asChildren.count == 0)
 306:/home/baikal/workspace/C50/Huawei_IoT_Agent_Tiny_SDK_Linux//agent_tiny/lwm2m_client/object_access_control.c ****                 {
 307:/home/baikal/workspace/C50/Huawei_IoT_Agent_Tiny_SDK_Linux//agent_tiny/lwm2m_client/object_access_control.c ****                     result = COAP_204_CHANGED;
 308:/home/baikal/workspace/C50/Huawei_IoT_Agent_Tiny_SDK_Linux//agent_tiny/lwm2m_client/object_access_control.c ****                 }
 309:/home/baikal/workspace/C50/Huawei_IoT_Agent_Tiny_SDK_Linux//agent_tiny/lwm2m_client/object_access_control.c ****                 else if (subTlvArray == NULL)
 310:/home/baikal/workspace/C50/Huawei_IoT_Agent_Tiny_SDK_Linux//agent_tiny/lwm2m_client/object_access_control.c ****                 {
 311:/home/baikal/workspace/C50/Huawei_IoT_Agent_Tiny_SDK_Linux//agent_tiny/lwm2m_client/object_access_control.c ****                     result = COAP_400_BAD_REQUEST;
 312:/home/baikal/workspace/C50/Huawei_IoT_Agent_Tiny_SDK_Linux//agent_tiny/lwm2m_client/object_access_control.c ****                 }
 313:/home/baikal/workspace/C50/Huawei_IoT_Agent_Tiny_SDK_Linux//agent_tiny/lwm2m_client/object_access_control.c ****                 else
 314:/home/baikal/workspace/C50/Huawei_IoT_Agent_Tiny_SDK_Linux//agent_tiny/lwm2m_client/object_access_control.c ****                 {
 315:/home/baikal/workspace/C50/Huawei_IoT_Agent_Tiny_SDK_Linux//agent_tiny/lwm2m_client/object_access_control.c ****                     for (ri = 0; ri < tlvArray[i].value.asChildren.count; ri++)
 316:/home/baikal/workspace/C50/Huawei_IoT_Agent_Tiny_SDK_Linux//agent_tiny/lwm2m_client/object_access_control.c ****                     {
 317:/home/baikal/workspace/C50/Huawei_IoT_Agent_Tiny_SDK_Linux//agent_tiny/lwm2m_client/object_access_control.c ****                         if (1 != lwm2m_data_decode_int(&subTlvArray[ri], &value))
 318:/home/baikal/workspace/C50/Huawei_IoT_Agent_Tiny_SDK_Linux//agent_tiny/lwm2m_client/object_access_control.c ****                         {
 319:/home/baikal/workspace/C50/Huawei_IoT_Agent_Tiny_SDK_Linux//agent_tiny/lwm2m_client/object_access_control.c ****                             result = COAP_400_BAD_REQUEST;
 320:/home/baikal/workspace/C50/Huawei_IoT_Agent_Tiny_SDK_Linux//agent_tiny/lwm2m_client/object_access_control.c ****                             break;
 321:/home/baikal/workspace/C50/Huawei_IoT_Agent_Tiny_SDK_Linux//agent_tiny/lwm2m_client/object_access_control.c ****                         }
 322:/home/baikal/workspace/C50/Huawei_IoT_Agent_Tiny_SDK_Linux//agent_tiny/lwm2m_client/object_access_control.c ****                         else if (value < 0 || value > 0xFFFF)
 323:/home/baikal/workspace/C50/Huawei_IoT_Agent_Tiny_SDK_Linux//agent_tiny/lwm2m_client/object_access_control.c ****                         {
 324:/home/baikal/workspace/C50/Huawei_IoT_Agent_Tiny_SDK_Linux//agent_tiny/lwm2m_client/object_access_control.c ****                             result = COAP_406_NOT_ACCEPTABLE;
 325:/home/baikal/workspace/C50/Huawei_IoT_Agent_Tiny_SDK_Linux//agent_tiny/lwm2m_client/object_access_control.c ****                             break;
 326:/home/baikal/workspace/C50/Huawei_IoT_Agent_Tiny_SDK_Linux//agent_tiny/lwm2m_client/object_access_control.c ****                         }
 327:/home/baikal/workspace/C50/Huawei_IoT_Agent_Tiny_SDK_Linux//agent_tiny/lwm2m_client/object_access_control.c ****                         else if (!prv_add_ac_val(accCtrlOiP, subTlvArray[ri].id,
 328:/home/baikal/workspace/C50/Huawei_IoT_Agent_Tiny_SDK_Linux//agent_tiny/lwm2m_client/object_access_control.c ****                                                  (uint16_t)value))
 329:/home/baikal/workspace/C50/Huawei_IoT_Agent_Tiny_SDK_Linux//agent_tiny/lwm2m_client/object_access_control.c ****                         {
 330:/home/baikal/workspace/C50/Huawei_IoT_Agent_Tiny_SDK_Linux//agent_tiny/lwm2m_client/object_access_control.c ****                             result = COAP_500_INTERNAL_SERVER_ERROR;
 331:/home/baikal/workspace/C50/Huawei_IoT_Agent_Tiny_SDK_Linux//agent_tiny/lwm2m_client/object_access_control.c ****                             break;
 332:/home/baikal/workspace/C50/Huawei_IoT_Agent_Tiny_SDK_Linux//agent_tiny/lwm2m_client/object_access_control.c ****                         }
 333:/home/baikal/workspace/C50/Huawei_IoT_Agent_Tiny_SDK_Linux//agent_tiny/lwm2m_client/object_access_control.c ****                         else
 334:/home/baikal/workspace/C50/Huawei_IoT_Agent_Tiny_SDK_Linux//agent_tiny/lwm2m_client/object_access_control.c ****                         {
 335:/home/baikal/workspace/C50/Huawei_IoT_Agent_Tiny_SDK_Linux//agent_tiny/lwm2m_client/object_access_control.c ****                             result = COAP_204_CHANGED;
GAS LISTING /tmp/ccOjtb1y.s 			page 7


 336:/home/baikal/workspace/C50/Huawei_IoT_Agent_Tiny_SDK_Linux//agent_tiny/lwm2m_client/object_access_control.c ****                         }
 337:/home/baikal/workspace/C50/Huawei_IoT_Agent_Tiny_SDK_Linux//agent_tiny/lwm2m_client/object_access_control.c ****                     }
 338:/home/baikal/workspace/C50/Huawei_IoT_Agent_Tiny_SDK_Linux//agent_tiny/lwm2m_client/object_access_control.c ****                 }
 339:/home/baikal/workspace/C50/Huawei_IoT_Agent_Tiny_SDK_Linux//agent_tiny/lwm2m_client/object_access_control.c **** 
 340:/home/baikal/workspace/C50/Huawei_IoT_Agent_Tiny_SDK_Linux//agent_tiny/lwm2m_client/object_access_control.c ****                 if (result != COAP_204_CHANGED)
 341:/home/baikal/workspace/C50/Huawei_IoT_Agent_Tiny_SDK_Linux//agent_tiny/lwm2m_client/object_access_control.c ****                 {
 342:/home/baikal/workspace/C50/Huawei_IoT_Agent_Tiny_SDK_Linux//agent_tiny/lwm2m_client/object_access_control.c ****                     // free pot. partial created new ones
 343:/home/baikal/workspace/C50/Huawei_IoT_Agent_Tiny_SDK_Linux//agent_tiny/lwm2m_client/object_access_control.c ****                     LWM2M_LIST_FREE(accCtrlOiP->accCtrlValList);
 344:/home/baikal/workspace/C50/Huawei_IoT_Agent_Tiny_SDK_Linux//agent_tiny/lwm2m_client/object_access_control.c ****                     // restore old values:
 345:/home/baikal/workspace/C50/Huawei_IoT_Agent_Tiny_SDK_Linux//agent_tiny/lwm2m_client/object_access_control.c ****                     accCtrlOiP->accCtrlValList = acValListSave;
 346:/home/baikal/workspace/C50/Huawei_IoT_Agent_Tiny_SDK_Linux//agent_tiny/lwm2m_client/object_access_control.c ****                 }
 347:/home/baikal/workspace/C50/Huawei_IoT_Agent_Tiny_SDK_Linux//agent_tiny/lwm2m_client/object_access_control.c ****                 else
 348:/home/baikal/workspace/C50/Huawei_IoT_Agent_Tiny_SDK_Linux//agent_tiny/lwm2m_client/object_access_control.c ****                 {
 349:/home/baikal/workspace/C50/Huawei_IoT_Agent_Tiny_SDK_Linux//agent_tiny/lwm2m_client/object_access_control.c ****                     // final free saved value list
 350:/home/baikal/workspace/C50/Huawei_IoT_Agent_Tiny_SDK_Linux//agent_tiny/lwm2m_client/object_access_control.c ****                     LWM2M_LIST_FREE(acValListSave);
 351:/home/baikal/workspace/C50/Huawei_IoT_Agent_Tiny_SDK_Linux//agent_tiny/lwm2m_client/object_access_control.c ****                 }
 352:/home/baikal/workspace/C50/Huawei_IoT_Agent_Tiny_SDK_Linux//agent_tiny/lwm2m_client/object_access_control.c ****             }
 353:/home/baikal/workspace/C50/Huawei_IoT_Agent_Tiny_SDK_Linux//agent_tiny/lwm2m_client/object_access_control.c ****         }
 354:/home/baikal/workspace/C50/Huawei_IoT_Agent_Tiny_SDK_Linux//agent_tiny/lwm2m_client/object_access_control.c ****         break;
 355:/home/baikal/workspace/C50/Huawei_IoT_Agent_Tiny_SDK_Linux//agent_tiny/lwm2m_client/object_access_control.c ****         case RES_M_ACCESS_CONTROL_OWNER:
 356:/home/baikal/workspace/C50/Huawei_IoT_Agent_Tiny_SDK_Linux//agent_tiny/lwm2m_client/object_access_control.c ****         {
 357:/home/baikal/workspace/C50/Huawei_IoT_Agent_Tiny_SDK_Linux//agent_tiny/lwm2m_client/object_access_control.c ****             if (1 == lwm2m_data_decode_int(tlvArray + i, &value))
 358:/home/baikal/workspace/C50/Huawei_IoT_Agent_Tiny_SDK_Linux//agent_tiny/lwm2m_client/object_access_control.c ****             {
 359:/home/baikal/workspace/C50/Huawei_IoT_Agent_Tiny_SDK_Linux//agent_tiny/lwm2m_client/object_access_control.c ****                 if (value >= 0 && value <= MAX_DATA_VAL)
 360:/home/baikal/workspace/C50/Huawei_IoT_Agent_Tiny_SDK_Linux//agent_tiny/lwm2m_client/object_access_control.c ****                 {
 361:/home/baikal/workspace/C50/Huawei_IoT_Agent_Tiny_SDK_Linux//agent_tiny/lwm2m_client/object_access_control.c ****                     accCtrlOiP->accCtrlOwner = value;
 362:/home/baikal/workspace/C50/Huawei_IoT_Agent_Tiny_SDK_Linux//agent_tiny/lwm2m_client/object_access_control.c ****                     result = COAP_204_CHANGED;
 363:/home/baikal/workspace/C50/Huawei_IoT_Agent_Tiny_SDK_Linux//agent_tiny/lwm2m_client/object_access_control.c ****                 }
 364:/home/baikal/workspace/C50/Huawei_IoT_Agent_Tiny_SDK_Linux//agent_tiny/lwm2m_client/object_access_control.c ****                 else
 365:/home/baikal/workspace/C50/Huawei_IoT_Agent_Tiny_SDK_Linux//agent_tiny/lwm2m_client/object_access_control.c ****                 {
 366:/home/baikal/workspace/C50/Huawei_IoT_Agent_Tiny_SDK_Linux//agent_tiny/lwm2m_client/object_access_control.c ****                     result = COAP_406_NOT_ACCEPTABLE;
 367:/home/baikal/workspace/C50/Huawei_IoT_Agent_Tiny_SDK_Linux//agent_tiny/lwm2m_client/object_access_control.c ****                 }
 368:/home/baikal/workspace/C50/Huawei_IoT_Agent_Tiny_SDK_Linux//agent_tiny/lwm2m_client/object_access_control.c ****             }
 369:/home/baikal/workspace/C50/Huawei_IoT_Agent_Tiny_SDK_Linux//agent_tiny/lwm2m_client/object_access_control.c ****             else
 370:/home/baikal/workspace/C50/Huawei_IoT_Agent_Tiny_SDK_Linux//agent_tiny/lwm2m_client/object_access_control.c ****             {
 371:/home/baikal/workspace/C50/Huawei_IoT_Agent_Tiny_SDK_Linux//agent_tiny/lwm2m_client/object_access_control.c ****                 result = COAP_400_BAD_REQUEST;
 372:/home/baikal/workspace/C50/Huawei_IoT_Agent_Tiny_SDK_Linux//agent_tiny/lwm2m_client/object_access_control.c ****             }
 373:/home/baikal/workspace/C50/Huawei_IoT_Agent_Tiny_SDK_Linux//agent_tiny/lwm2m_client/object_access_control.c ****         }
 374:/home/baikal/workspace/C50/Huawei_IoT_Agent_Tiny_SDK_Linux//agent_tiny/lwm2m_client/object_access_control.c ****         break;
 375:/home/baikal/workspace/C50/Huawei_IoT_Agent_Tiny_SDK_Linux//agent_tiny/lwm2m_client/object_access_control.c ****         default:
 376:/home/baikal/workspace/C50/Huawei_IoT_Agent_Tiny_SDK_Linux//agent_tiny/lwm2m_client/object_access_control.c ****             return COAP_404_NOT_FOUND ;
 377:/home/baikal/workspace/C50/Huawei_IoT_Agent_Tiny_SDK_Linux//agent_tiny/lwm2m_client/object_access_control.c ****         }
 378:/home/baikal/workspace/C50/Huawei_IoT_Agent_Tiny_SDK_Linux//agent_tiny/lwm2m_client/object_access_control.c ****         i++;
 379:/home/baikal/workspace/C50/Huawei_IoT_Agent_Tiny_SDK_Linux//agent_tiny/lwm2m_client/object_access_control.c ****     }
 380:/home/baikal/workspace/C50/Huawei_IoT_Agent_Tiny_SDK_Linux//agent_tiny/lwm2m_client/object_access_control.c ****     while (i < numData && result == COAP_204_CHANGED );
 381:/home/baikal/workspace/C50/Huawei_IoT_Agent_Tiny_SDK_Linux//agent_tiny/lwm2m_client/object_access_control.c **** 
 382:/home/baikal/workspace/C50/Huawei_IoT_Agent_Tiny_SDK_Linux//agent_tiny/lwm2m_client/object_access_control.c ****     return result;
 383:/home/baikal/workspace/C50/Huawei_IoT_Agent_Tiny_SDK_Linux//agent_tiny/lwm2m_client/object_access_control.c **** }
 384:/home/baikal/workspace/C50/Huawei_IoT_Agent_Tiny_SDK_Linux//agent_tiny/lwm2m_client/object_access_control.c **** 
 385:/home/baikal/workspace/C50/Huawei_IoT_Agent_Tiny_SDK_Linux//agent_tiny/lwm2m_client/object_access_control.c **** static uint8_t prv_write(uint16_t instanceId, int numData,
 386:/home/baikal/workspace/C50/Huawei_IoT_Agent_Tiny_SDK_Linux//agent_tiny/lwm2m_client/object_access_control.c ****                          lwm2m_data_t *tlvArray, lwm2m_object_t *objectP)
 387:/home/baikal/workspace/C50/Huawei_IoT_Agent_Tiny_SDK_Linux//agent_tiny/lwm2m_client/object_access_control.c **** {
 388:/home/baikal/workspace/C50/Huawei_IoT_Agent_Tiny_SDK_Linux//agent_tiny/lwm2m_client/object_access_control.c ****     return prv_write_resources(instanceId, numData, tlvArray, objectP, false);
 389:/home/baikal/workspace/C50/Huawei_IoT_Agent_Tiny_SDK_Linux//agent_tiny/lwm2m_client/object_access_control.c **** }
 390:/home/baikal/workspace/C50/Huawei_IoT_Agent_Tiny_SDK_Linux//agent_tiny/lwm2m_client/object_access_control.c **** 
 391:/home/baikal/workspace/C50/Huawei_IoT_Agent_Tiny_SDK_Linux//agent_tiny/lwm2m_client/object_access_control.c **** static uint8_t prv_delete(uint16_t id, lwm2m_object_t *objectP)
 392:/home/baikal/workspace/C50/Huawei_IoT_Agent_Tiny_SDK_Linux//agent_tiny/lwm2m_client/object_access_control.c **** {
GAS LISTING /tmp/ccOjtb1y.s 			page 8


 393:/home/baikal/workspace/C50/Huawei_IoT_Agent_Tiny_SDK_Linux//agent_tiny/lwm2m_client/object_access_control.c ****     acc_ctrl_oi_t *targetP;
 394:/home/baikal/workspace/C50/Huawei_IoT_Agent_Tiny_SDK_Linux//agent_tiny/lwm2m_client/object_access_control.c **** 
 395:/home/baikal/workspace/C50/Huawei_IoT_Agent_Tiny_SDK_Linux//agent_tiny/lwm2m_client/object_access_control.c ****     objectP->instanceList = lwm2m_list_remove(objectP->instanceList, id,
 396:/home/baikal/workspace/C50/Huawei_IoT_Agent_Tiny_SDK_Linux//agent_tiny/lwm2m_client/object_access_control.c ****                             (lwm2m_list_t **)&targetP);
 397:/home/baikal/workspace/C50/Huawei_IoT_Agent_Tiny_SDK_Linux//agent_tiny/lwm2m_client/object_access_control.c ****     if (NULL == targetP) return COAP_404_NOT_FOUND;
 398:/home/baikal/workspace/C50/Huawei_IoT_Agent_Tiny_SDK_Linux//agent_tiny/lwm2m_client/object_access_control.c **** 
 399:/home/baikal/workspace/C50/Huawei_IoT_Agent_Tiny_SDK_Linux//agent_tiny/lwm2m_client/object_access_control.c ****     LWM2M_LIST_FREE(targetP->accCtrlValList);
 400:/home/baikal/workspace/C50/Huawei_IoT_Agent_Tiny_SDK_Linux//agent_tiny/lwm2m_client/object_access_control.c ****     lwm2m_free(targetP);
 401:/home/baikal/workspace/C50/Huawei_IoT_Agent_Tiny_SDK_Linux//agent_tiny/lwm2m_client/object_access_control.c **** 
 402:/home/baikal/workspace/C50/Huawei_IoT_Agent_Tiny_SDK_Linux//agent_tiny/lwm2m_client/object_access_control.c ****     return COAP_202_DELETED;
 403:/home/baikal/workspace/C50/Huawei_IoT_Agent_Tiny_SDK_Linux//agent_tiny/lwm2m_client/object_access_control.c **** }
 404:/home/baikal/workspace/C50/Huawei_IoT_Agent_Tiny_SDK_Linux//agent_tiny/lwm2m_client/object_access_control.c **** 
 405:/home/baikal/workspace/C50/Huawei_IoT_Agent_Tiny_SDK_Linux//agent_tiny/lwm2m_client/object_access_control.c **** static uint8_t prv_create(uint16_t objInstId, int numData,
 406:/home/baikal/workspace/C50/Huawei_IoT_Agent_Tiny_SDK_Linux//agent_tiny/lwm2m_client/object_access_control.c ****                           lwm2m_data_t *tlvArray, lwm2m_object_t *objectP)
 407:/home/baikal/workspace/C50/Huawei_IoT_Agent_Tiny_SDK_Linux//agent_tiny/lwm2m_client/object_access_control.c **** {
 408:/home/baikal/workspace/C50/Huawei_IoT_Agent_Tiny_SDK_Linux//agent_tiny/lwm2m_client/object_access_control.c ****     acc_ctrl_oi_t *targetP;
 409:/home/baikal/workspace/C50/Huawei_IoT_Agent_Tiny_SDK_Linux//agent_tiny/lwm2m_client/object_access_control.c ****     uint8_t result;
 410:/home/baikal/workspace/C50/Huawei_IoT_Agent_Tiny_SDK_Linux//agent_tiny/lwm2m_client/object_access_control.c **** 
 411:/home/baikal/workspace/C50/Huawei_IoT_Agent_Tiny_SDK_Linux//agent_tiny/lwm2m_client/object_access_control.c ****     targetP = (acc_ctrl_oi_t *)lwm2m_malloc(sizeof(acc_ctrl_oi_t));
 412:/home/baikal/workspace/C50/Huawei_IoT_Agent_Tiny_SDK_Linux//agent_tiny/lwm2m_client/object_access_control.c ****     if (NULL == targetP) return COAP_500_INTERNAL_SERVER_ERROR;
 413:/home/baikal/workspace/C50/Huawei_IoT_Agent_Tiny_SDK_Linux//agent_tiny/lwm2m_client/object_access_control.c ****     memset(targetP, 0, sizeof(acc_ctrl_oi_t));
 414:/home/baikal/workspace/C50/Huawei_IoT_Agent_Tiny_SDK_Linux//agent_tiny/lwm2m_client/object_access_control.c **** 
 415:/home/baikal/workspace/C50/Huawei_IoT_Agent_Tiny_SDK_Linux//agent_tiny/lwm2m_client/object_access_control.c ****     targetP->objInstId    = objInstId;
 416:/home/baikal/workspace/C50/Huawei_IoT_Agent_Tiny_SDK_Linux//agent_tiny/lwm2m_client/object_access_control.c ****     objectP->instanceList = LWM2M_LIST_ADD(objectP->instanceList, targetP);
 417:/home/baikal/workspace/C50/Huawei_IoT_Agent_Tiny_SDK_Linux//agent_tiny/lwm2m_client/object_access_control.c **** 
 418:/home/baikal/workspace/C50/Huawei_IoT_Agent_Tiny_SDK_Linux//agent_tiny/lwm2m_client/object_access_control.c ****     result = prv_write_resources(objInstId, numData, tlvArray, objectP, true);
 419:/home/baikal/workspace/C50/Huawei_IoT_Agent_Tiny_SDK_Linux//agent_tiny/lwm2m_client/object_access_control.c **** 
 420:/home/baikal/workspace/C50/Huawei_IoT_Agent_Tiny_SDK_Linux//agent_tiny/lwm2m_client/object_access_control.c ****     if (result != COAP_204_CHANGED)
 421:/home/baikal/workspace/C50/Huawei_IoT_Agent_Tiny_SDK_Linux//agent_tiny/lwm2m_client/object_access_control.c ****     {
 422:/home/baikal/workspace/C50/Huawei_IoT_Agent_Tiny_SDK_Linux//agent_tiny/lwm2m_client/object_access_control.c ****         (void)prv_delete(objInstId, objectP);
 423:/home/baikal/workspace/C50/Huawei_IoT_Agent_Tiny_SDK_Linux//agent_tiny/lwm2m_client/object_access_control.c ****     }
 424:/home/baikal/workspace/C50/Huawei_IoT_Agent_Tiny_SDK_Linux//agent_tiny/lwm2m_client/object_access_control.c ****     else
 425:/home/baikal/workspace/C50/Huawei_IoT_Agent_Tiny_SDK_Linux//agent_tiny/lwm2m_client/object_access_control.c ****     {
 426:/home/baikal/workspace/C50/Huawei_IoT_Agent_Tiny_SDK_Linux//agent_tiny/lwm2m_client/object_access_control.c ****         result = COAP_201_CREATED;
 427:/home/baikal/workspace/C50/Huawei_IoT_Agent_Tiny_SDK_Linux//agent_tiny/lwm2m_client/object_access_control.c ****     }
 428:/home/baikal/workspace/C50/Huawei_IoT_Agent_Tiny_SDK_Linux//agent_tiny/lwm2m_client/object_access_control.c ****     return result;
 429:/home/baikal/workspace/C50/Huawei_IoT_Agent_Tiny_SDK_Linux//agent_tiny/lwm2m_client/object_access_control.c **** }
 430:/home/baikal/workspace/C50/Huawei_IoT_Agent_Tiny_SDK_Linux//agent_tiny/lwm2m_client/object_access_control.c **** 
 431:/home/baikal/workspace/C50/Huawei_IoT_Agent_Tiny_SDK_Linux//agent_tiny/lwm2m_client/object_access_control.c **** /*
 432:/home/baikal/workspace/C50/Huawei_IoT_Agent_Tiny_SDK_Linux//agent_tiny/lwm2m_client/object_access_control.c ****  * Create an empty multiple instance LWM2M Object: Access Control
 433:/home/baikal/workspace/C50/Huawei_IoT_Agent_Tiny_SDK_Linux//agent_tiny/lwm2m_client/object_access_control.c ****  */
 434:/home/baikal/workspace/C50/Huawei_IoT_Agent_Tiny_SDK_Linux//agent_tiny/lwm2m_client/object_access_control.c **** lwm2m_object_t *acc_ctrl_create_object(void)
 435:/home/baikal/workspace/C50/Huawei_IoT_Agent_Tiny_SDK_Linux//agent_tiny/lwm2m_client/object_access_control.c **** {
 436:/home/baikal/workspace/C50/Huawei_IoT_Agent_Tiny_SDK_Linux//agent_tiny/lwm2m_client/object_access_control.c ****     /*
 437:/home/baikal/workspace/C50/Huawei_IoT_Agent_Tiny_SDK_Linux//agent_tiny/lwm2m_client/object_access_control.c ****      * The acc_ctrl_create_object() function creates an empty object
 438:/home/baikal/workspace/C50/Huawei_IoT_Agent_Tiny_SDK_Linux//agent_tiny/lwm2m_client/object_access_control.c ****      * and returns a pointer to the structure that represents it.
 439:/home/baikal/workspace/C50/Huawei_IoT_Agent_Tiny_SDK_Linux//agent_tiny/lwm2m_client/object_access_control.c ****      */
 440:/home/baikal/workspace/C50/Huawei_IoT_Agent_Tiny_SDK_Linux//agent_tiny/lwm2m_client/object_access_control.c ****     lwm2m_object_t *accCtrlObj = NULL;
 441:/home/baikal/workspace/C50/Huawei_IoT_Agent_Tiny_SDK_Linux//agent_tiny/lwm2m_client/object_access_control.c **** 
 442:/home/baikal/workspace/C50/Huawei_IoT_Agent_Tiny_SDK_Linux//agent_tiny/lwm2m_client/object_access_control.c ****     accCtrlObj = (lwm2m_object_t *) lwm2m_malloc(sizeof(lwm2m_object_t));
 443:/home/baikal/workspace/C50/Huawei_IoT_Agent_Tiny_SDK_Linux//agent_tiny/lwm2m_client/object_access_control.c **** 
 444:/home/baikal/workspace/C50/Huawei_IoT_Agent_Tiny_SDK_Linux//agent_tiny/lwm2m_client/object_access_control.c ****     if (NULL != accCtrlObj)
 445:/home/baikal/workspace/C50/Huawei_IoT_Agent_Tiny_SDK_Linux//agent_tiny/lwm2m_client/object_access_control.c ****     {
 446:/home/baikal/workspace/C50/Huawei_IoT_Agent_Tiny_SDK_Linux//agent_tiny/lwm2m_client/object_access_control.c ****         memset(accCtrlObj, 0, sizeof(lwm2m_object_t));
 447:/home/baikal/workspace/C50/Huawei_IoT_Agent_Tiny_SDK_Linux//agent_tiny/lwm2m_client/object_access_control.c ****         /*
 448:/home/baikal/workspace/C50/Huawei_IoT_Agent_Tiny_SDK_Linux//agent_tiny/lwm2m_client/object_access_control.c ****          * It assign his unique object ID
 449:/home/baikal/workspace/C50/Huawei_IoT_Agent_Tiny_SDK_Linux//agent_tiny/lwm2m_client/object_access_control.c ****          * The 2 is the standard ID for the optional object "Access Control".
GAS LISTING /tmp/ccOjtb1y.s 			page 9


 450:/home/baikal/workspace/C50/Huawei_IoT_Agent_Tiny_SDK_Linux//agent_tiny/lwm2m_client/object_access_control.c ****          */
 451:/home/baikal/workspace/C50/Huawei_IoT_Agent_Tiny_SDK_Linux//agent_tiny/lwm2m_client/object_access_control.c ****         accCtrlObj->objID = LWM2M_ACL_OBJECT_ID;
 452:/home/baikal/workspace/C50/Huawei_IoT_Agent_Tiny_SDK_Linux//agent_tiny/lwm2m_client/object_access_control.c ****         // Init callbacks, empty instanceList!
 453:/home/baikal/workspace/C50/Huawei_IoT_Agent_Tiny_SDK_Linux//agent_tiny/lwm2m_client/object_access_control.c ****         accCtrlObj->readFunc    = prv_read;
 454:/home/baikal/workspace/C50/Huawei_IoT_Agent_Tiny_SDK_Linux//agent_tiny/lwm2m_client/object_access_control.c ****         accCtrlObj->writeFunc   = prv_write;
 455:/home/baikal/workspace/C50/Huawei_IoT_Agent_Tiny_SDK_Linux//agent_tiny/lwm2m_client/object_access_control.c ****         accCtrlObj->createFunc  = prv_create;
 456:/home/baikal/workspace/C50/Huawei_IoT_Agent_Tiny_SDK_Linux//agent_tiny/lwm2m_client/object_access_control.c ****         accCtrlObj->deleteFunc  = prv_delete;
 457:/home/baikal/workspace/C50/Huawei_IoT_Agent_Tiny_SDK_Linux//agent_tiny/lwm2m_client/object_access_control.c ****     }
 458:/home/baikal/workspace/C50/Huawei_IoT_Agent_Tiny_SDK_Linux//agent_tiny/lwm2m_client/object_access_control.c ****     return accCtrlObj;
 459:/home/baikal/workspace/C50/Huawei_IoT_Agent_Tiny_SDK_Linux//agent_tiny/lwm2m_client/object_access_control.c **** }
 460:/home/baikal/workspace/C50/Huawei_IoT_Agent_Tiny_SDK_Linux//agent_tiny/lwm2m_client/object_access_control.c **** 
 461:/home/baikal/workspace/C50/Huawei_IoT_Agent_Tiny_SDK_Linux//agent_tiny/lwm2m_client/object_access_control.c **** void acl_ctrl_free_object(lwm2m_object_t *objectP)
 462:/home/baikal/workspace/C50/Huawei_IoT_Agent_Tiny_SDK_Linux//agent_tiny/lwm2m_client/object_access_control.c **** {
 463:/home/baikal/workspace/C50/Huawei_IoT_Agent_Tiny_SDK_Linux//agent_tiny/lwm2m_client/object_access_control.c ****     acc_ctrl_oi_t *accCtrlOiT;
 464:/home/baikal/workspace/C50/Huawei_IoT_Agent_Tiny_SDK_Linux//agent_tiny/lwm2m_client/object_access_control.c ****     acc_ctrl_oi_t *accCtrlOiP = (acc_ctrl_oi_t *)objectP->instanceList;
 465:/home/baikal/workspace/C50/Huawei_IoT_Agent_Tiny_SDK_Linux//agent_tiny/lwm2m_client/object_access_control.c ****     while (accCtrlOiP != NULL)
 466:/home/baikal/workspace/C50/Huawei_IoT_Agent_Tiny_SDK_Linux//agent_tiny/lwm2m_client/object_access_control.c ****     {
 467:/home/baikal/workspace/C50/Huawei_IoT_Agent_Tiny_SDK_Linux//agent_tiny/lwm2m_client/object_access_control.c ****         // first free acl (multiple resource!):
 468:/home/baikal/workspace/C50/Huawei_IoT_Agent_Tiny_SDK_Linux//agent_tiny/lwm2m_client/object_access_control.c ****         LWM2M_LIST_FREE(accCtrlOiP->accCtrlValList);
 469:/home/baikal/workspace/C50/Huawei_IoT_Agent_Tiny_SDK_Linux//agent_tiny/lwm2m_client/object_access_control.c ****         accCtrlOiT = accCtrlOiP;
 470:/home/baikal/workspace/C50/Huawei_IoT_Agent_Tiny_SDK_Linux//agent_tiny/lwm2m_client/object_access_control.c ****         accCtrlOiP = accCtrlOiP->next;
 471:/home/baikal/workspace/C50/Huawei_IoT_Agent_Tiny_SDK_Linux//agent_tiny/lwm2m_client/object_access_control.c ****         lwm2m_free(accCtrlOiT);
 472:/home/baikal/workspace/C50/Huawei_IoT_Agent_Tiny_SDK_Linux//agent_tiny/lwm2m_client/object_access_control.c ****     }
 473:/home/baikal/workspace/C50/Huawei_IoT_Agent_Tiny_SDK_Linux//agent_tiny/lwm2m_client/object_access_control.c ****     lwm2m_free(objectP);
 474:/home/baikal/workspace/C50/Huawei_IoT_Agent_Tiny_SDK_Linux//agent_tiny/lwm2m_client/object_access_control.c **** }
 475:/home/baikal/workspace/C50/Huawei_IoT_Agent_Tiny_SDK_Linux//agent_tiny/lwm2m_client/object_access_control.c **** 
 476:/home/baikal/workspace/C50/Huawei_IoT_Agent_Tiny_SDK_Linux//agent_tiny/lwm2m_client/object_access_control.c **** bool  acc_ctrl_obj_add_inst (lwm2m_object_t *accCtrlObjP, uint16_t instId,
 477:/home/baikal/workspace/C50/Huawei_IoT_Agent_Tiny_SDK_Linux//agent_tiny/lwm2m_client/object_access_control.c ****                              uint16_t acObjectId, uint16_t acObjInstId, uint16_t acOwner)
 478:/home/baikal/workspace/C50/Huawei_IoT_Agent_Tiny_SDK_Linux//agent_tiny/lwm2m_client/object_access_control.c **** {
 479:/home/baikal/workspace/C50/Huawei_IoT_Agent_Tiny_SDK_Linux//agent_tiny/lwm2m_client/object_access_control.c ****     bool ret = false;
 480:/home/baikal/workspace/C50/Huawei_IoT_Agent_Tiny_SDK_Linux//agent_tiny/lwm2m_client/object_access_control.c **** 
 481:/home/baikal/workspace/C50/Huawei_IoT_Agent_Tiny_SDK_Linux//agent_tiny/lwm2m_client/object_access_control.c ****     if (NULL == accCtrlObjP)
 482:/home/baikal/workspace/C50/Huawei_IoT_Agent_Tiny_SDK_Linux//agent_tiny/lwm2m_client/object_access_control.c ****     {
 483:/home/baikal/workspace/C50/Huawei_IoT_Agent_Tiny_SDK_Linux//agent_tiny/lwm2m_client/object_access_control.c ****         return ret;
 484:/home/baikal/workspace/C50/Huawei_IoT_Agent_Tiny_SDK_Linux//agent_tiny/lwm2m_client/object_access_control.c ****     }
 485:/home/baikal/workspace/C50/Huawei_IoT_Agent_Tiny_SDK_Linux//agent_tiny/lwm2m_client/object_access_control.c ****     else
 486:/home/baikal/workspace/C50/Huawei_IoT_Agent_Tiny_SDK_Linux//agent_tiny/lwm2m_client/object_access_control.c ****     {
 487:/home/baikal/workspace/C50/Huawei_IoT_Agent_Tiny_SDK_Linux//agent_tiny/lwm2m_client/object_access_control.c ****         // create an access control object instance
 488:/home/baikal/workspace/C50/Huawei_IoT_Agent_Tiny_SDK_Linux//agent_tiny/lwm2m_client/object_access_control.c ****         acc_ctrl_oi_t *accCtrlOiP;
 489:/home/baikal/workspace/C50/Huawei_IoT_Agent_Tiny_SDK_Linux//agent_tiny/lwm2m_client/object_access_control.c ****         accCtrlOiP = (acc_ctrl_oi_t *)lwm2m_malloc(sizeof(acc_ctrl_oi_t));
 490:/home/baikal/workspace/C50/Huawei_IoT_Agent_Tiny_SDK_Linux//agent_tiny/lwm2m_client/object_access_control.c ****         if (NULL == accCtrlOiP)
 491:/home/baikal/workspace/C50/Huawei_IoT_Agent_Tiny_SDK_Linux//agent_tiny/lwm2m_client/object_access_control.c ****         {
 492:/home/baikal/workspace/C50/Huawei_IoT_Agent_Tiny_SDK_Linux//agent_tiny/lwm2m_client/object_access_control.c ****             return ret;
 493:/home/baikal/workspace/C50/Huawei_IoT_Agent_Tiny_SDK_Linux//agent_tiny/lwm2m_client/object_access_control.c ****         }
 494:/home/baikal/workspace/C50/Huawei_IoT_Agent_Tiny_SDK_Linux//agent_tiny/lwm2m_client/object_access_control.c ****         else
 495:/home/baikal/workspace/C50/Huawei_IoT_Agent_Tiny_SDK_Linux//agent_tiny/lwm2m_client/object_access_control.c ****         {
 496:/home/baikal/workspace/C50/Huawei_IoT_Agent_Tiny_SDK_Linux//agent_tiny/lwm2m_client/object_access_control.c ****             memset(accCtrlOiP, 0, sizeof(acc_ctrl_oi_t));
 497:/home/baikal/workspace/C50/Huawei_IoT_Agent_Tiny_SDK_Linux//agent_tiny/lwm2m_client/object_access_control.c ****             // list: key
 498:/home/baikal/workspace/C50/Huawei_IoT_Agent_Tiny_SDK_Linux//agent_tiny/lwm2m_client/object_access_control.c ****             accCtrlOiP->objInstId    = instId;
 499:/home/baikal/workspace/C50/Huawei_IoT_Agent_Tiny_SDK_Linux//agent_tiny/lwm2m_client/object_access_control.c ****             // object instance data:
 500:/home/baikal/workspace/C50/Huawei_IoT_Agent_Tiny_SDK_Linux//agent_tiny/lwm2m_client/object_access_control.c ****             accCtrlOiP->objectId     = acObjectId;
 501:/home/baikal/workspace/C50/Huawei_IoT_Agent_Tiny_SDK_Linux//agent_tiny/lwm2m_client/object_access_control.c ****             accCtrlOiP->objectInstId = acObjInstId;
 502:/home/baikal/workspace/C50/Huawei_IoT_Agent_Tiny_SDK_Linux//agent_tiny/lwm2m_client/object_access_control.c ****             accCtrlOiP->accCtrlOwner = acOwner;
 503:/home/baikal/workspace/C50/Huawei_IoT_Agent_Tiny_SDK_Linux//agent_tiny/lwm2m_client/object_access_control.c **** 
 504:/home/baikal/workspace/C50/Huawei_IoT_Agent_Tiny_SDK_Linux//agent_tiny/lwm2m_client/object_access_control.c ****             accCtrlObjP->instanceList =
 505:/home/baikal/workspace/C50/Huawei_IoT_Agent_Tiny_SDK_Linux//agent_tiny/lwm2m_client/object_access_control.c ****                 LWM2M_LIST_ADD(accCtrlObjP->instanceList, accCtrlOiP);
 506:/home/baikal/workspace/C50/Huawei_IoT_Agent_Tiny_SDK_Linux//agent_tiny/lwm2m_client/object_access_control.c ****             ret = true;
GAS LISTING /tmp/ccOjtb1y.s 			page 10


 507:/home/baikal/workspace/C50/Huawei_IoT_Agent_Tiny_SDK_Linux//agent_tiny/lwm2m_client/object_access_control.c ****         }
 508:/home/baikal/workspace/C50/Huawei_IoT_Agent_Tiny_SDK_Linux//agent_tiny/lwm2m_client/object_access_control.c ****     }
 509:/home/baikal/workspace/C50/Huawei_IoT_Agent_Tiny_SDK_Linux//agent_tiny/lwm2m_client/object_access_control.c ****     return ret;
 510:/home/baikal/workspace/C50/Huawei_IoT_Agent_Tiny_SDK_Linux//agent_tiny/lwm2m_client/object_access_control.c **** }
 511:/home/baikal/workspace/C50/Huawei_IoT_Agent_Tiny_SDK_Linux//agent_tiny/lwm2m_client/object_access_control.c **** 
 512:/home/baikal/workspace/C50/Huawei_IoT_Agent_Tiny_SDK_Linux//agent_tiny/lwm2m_client/object_access_control.c **** bool acc_ctrl_oi_add_ac_val (lwm2m_object_t *accCtrlObjP, uint16_t instId,
 513:/home/baikal/workspace/C50/Huawei_IoT_Agent_Tiny_SDK_Linux//agent_tiny/lwm2m_client/object_access_control.c ****                              uint16_t acResId, uint16_t acValue)
 514:/home/baikal/workspace/C50/Huawei_IoT_Agent_Tiny_SDK_Linux//agent_tiny/lwm2m_client/object_access_control.c **** {
 515:/home/baikal/workspace/C50/Huawei_IoT_Agent_Tiny_SDK_Linux//agent_tiny/lwm2m_client/object_access_control.c ****     bool ret = false;
 516:/home/baikal/workspace/C50/Huawei_IoT_Agent_Tiny_SDK_Linux//agent_tiny/lwm2m_client/object_access_control.c **** 
 517:/home/baikal/workspace/C50/Huawei_IoT_Agent_Tiny_SDK_Linux//agent_tiny/lwm2m_client/object_access_control.c ****     acc_ctrl_oi_t *accCtrlOiP = (acc_ctrl_oi_t *)
 518:/home/baikal/workspace/C50/Huawei_IoT_Agent_Tiny_SDK_Linux//agent_tiny/lwm2m_client/object_access_control.c ****                                 lwm2m_list_find(accCtrlObjP->instanceList, instId);
 519:/home/baikal/workspace/C50/Huawei_IoT_Agent_Tiny_SDK_Linux//agent_tiny/lwm2m_client/object_access_control.c ****     if (NULL == accCtrlOiP)
 520:/home/baikal/workspace/C50/Huawei_IoT_Agent_Tiny_SDK_Linux//agent_tiny/lwm2m_client/object_access_control.c ****         return ret;
 521:/home/baikal/workspace/C50/Huawei_IoT_Agent_Tiny_SDK_Linux//agent_tiny/lwm2m_client/object_access_control.c **** 
 522:/home/baikal/workspace/C50/Huawei_IoT_Agent_Tiny_SDK_Linux//agent_tiny/lwm2m_client/object_access_control.c ****     return prv_add_ac_val (accCtrlOiP, acResId, acValue);
 523:/home/baikal/workspace/C50/Huawei_IoT_Agent_Tiny_SDK_Linux//agent_tiny/lwm2m_client/object_access_control.c **** }
 524:/home/baikal/workspace/C50/Huawei_IoT_Agent_Tiny_SDK_Linux//agent_tiny/lwm2m_client/object_access_control.c **** 
 525:/home/baikal/workspace/C50/Huawei_IoT_Agent_Tiny_SDK_Linux//agent_tiny/lwm2m_client/object_access_control.c **** static acc_ctrl_oi_t *prv_get_acc_instance(acc_ctrl_oi_t *accCtrlOiP, uint16_t objId, uint16_t inst
 526:/home/baikal/workspace/C50/Huawei_IoT_Agent_Tiny_SDK_Linux//agent_tiny/lwm2m_client/object_access_control.c **** {
   9              		.loc 1 526 0
  10              		.cfi_startproc
  11              	.LVL0:
 527:/home/baikal/workspace/C50/Huawei_IoT_Agent_Tiny_SDK_Linux//agent_tiny/lwm2m_client/object_access_control.c ****     acc_ctrl_oi_t *itor = accCtrlOiP;
 528:/home/baikal/workspace/C50/Huawei_IoT_Agent_Tiny_SDK_Linux//agent_tiny/lwm2m_client/object_access_control.c **** 
 529:/home/baikal/workspace/C50/Huawei_IoT_Agent_Tiny_SDK_Linux//agent_tiny/lwm2m_client/object_access_control.c ****     while (itor)
  12              		.loc 1 529 0
  13 0000 EB0F     		jmp	.L2
  14              	.LVL1:
  15              	.L5:
 530:/home/baikal/workspace/C50/Huawei_IoT_Agent_Tiny_SDK_Linux//agent_tiny/lwm2m_client/object_access_control.c ****     {
 531:/home/baikal/workspace/C50/Huawei_IoT_Agent_Tiny_SDK_Linux//agent_tiny/lwm2m_client/object_access_control.c ****         if (itor->objectId == objId && itor->objectInstId == instId)
  16              		.loc 1 531 0
  17 0002 6639770A 		cmpw	%si, 10(%rdi)
  18 0006 7506     		jne	.L3
  19              		.loc 1 531 0 is_stmt 0 discriminator 1
  20 0008 6639570C 		cmpw	%dx, 12(%rdi)
  21 000c 740E     		je	.L6
  22              	.L3:
 532:/home/baikal/workspace/C50/Huawei_IoT_Agent_Tiny_SDK_Linux//agent_tiny/lwm2m_client/object_access_control.c ****         {
 533:/home/baikal/workspace/C50/Huawei_IoT_Agent_Tiny_SDK_Linux//agent_tiny/lwm2m_client/object_access_control.c ****             return itor;
 534:/home/baikal/workspace/C50/Huawei_IoT_Agent_Tiny_SDK_Linux//agent_tiny/lwm2m_client/object_access_control.c ****         }
 535:/home/baikal/workspace/C50/Huawei_IoT_Agent_Tiny_SDK_Linux//agent_tiny/lwm2m_client/object_access_control.c ****         itor = itor->next;
  23              		.loc 1 535 0 is_stmt 1
  24 000e 488B3F   		movq	(%rdi), %rdi
  25              	.LVL2:
  26              	.L2:
 529:/home/baikal/workspace/C50/Huawei_IoT_Agent_Tiny_SDK_Linux//agent_tiny/lwm2m_client/object_access_control.c ****     {
  27              		.loc 1 529 0
  28 0011 4885FF   		testq	%rdi, %rdi
  29 0014 75EC     		jne	.L5
 536:/home/baikal/workspace/C50/Huawei_IoT_Agent_Tiny_SDK_Linux//agent_tiny/lwm2m_client/object_access_control.c ****     }
 537:/home/baikal/workspace/C50/Huawei_IoT_Agent_Tiny_SDK_Linux//agent_tiny/lwm2m_client/object_access_control.c **** 
 538:/home/baikal/workspace/C50/Huawei_IoT_Agent_Tiny_SDK_Linux//agent_tiny/lwm2m_client/object_access_control.c ****     return NULL;
  30              		.loc 1 538 0
  31 0016 B8000000 		movl	$0, %eax
  31      00
GAS LISTING /tmp/ccOjtb1y.s 			page 11


  32 001b C3       		ret
  33              	.L6:
 533:/home/baikal/workspace/C50/Huawei_IoT_Agent_Tiny_SDK_Linux//agent_tiny/lwm2m_client/object_access_control.c ****         }
  34              		.loc 1 533 0
  35 001c 4889F8   		movq	%rdi, %rax
 539:/home/baikal/workspace/C50/Huawei_IoT_Agent_Tiny_SDK_Linux//agent_tiny/lwm2m_client/object_access_control.c **** }
  36              		.loc 1 539 0
  37 001f C3       		ret
  38              		.cfi_endproc
  39              	.LFE82:
  41              		.section	.text.prv_post_action_check,"ax",@progbits
  43              	prv_post_action_check:
  44              	.LFB88:
 540:/home/baikal/workspace/C50/Huawei_IoT_Agent_Tiny_SDK_Linux//agent_tiny/lwm2m_client/object_access_control.c **** 
 541:/home/baikal/workspace/C50/Huawei_IoT_Agent_Tiny_SDK_Linux//agent_tiny/lwm2m_client/object_access_control.c **** static acc_ctrl_ri_t *prv_get_acl_instance(acc_ctrl_ri_t *accCtrlRiP, uint16_t serverId)
 542:/home/baikal/workspace/C50/Huawei_IoT_Agent_Tiny_SDK_Linux//agent_tiny/lwm2m_client/object_access_control.c **** {
 543:/home/baikal/workspace/C50/Huawei_IoT_Agent_Tiny_SDK_Linux//agent_tiny/lwm2m_client/object_access_control.c ****     acc_ctrl_ri_t *targetP;
 544:/home/baikal/workspace/C50/Huawei_IoT_Agent_Tiny_SDK_Linux//agent_tiny/lwm2m_client/object_access_control.c **** 
 545:/home/baikal/workspace/C50/Huawei_IoT_Agent_Tiny_SDK_Linux//agent_tiny/lwm2m_client/object_access_control.c ****     targetP = (acc_ctrl_ri_t *)LWM2M_LIST_FIND(accCtrlRiP, serverId);
 546:/home/baikal/workspace/C50/Huawei_IoT_Agent_Tiny_SDK_Linux//agent_tiny/lwm2m_client/object_access_control.c ****     if (NULL == targetP)
 547:/home/baikal/workspace/C50/Huawei_IoT_Agent_Tiny_SDK_Linux//agent_tiny/lwm2m_client/object_access_control.c ****     {
 548:/home/baikal/workspace/C50/Huawei_IoT_Agent_Tiny_SDK_Linux//agent_tiny/lwm2m_client/object_access_control.c ****         targetP = (acc_ctrl_ri_t *)LWM2M_LIST_FIND(accCtrlRiP, 0);
 549:/home/baikal/workspace/C50/Huawei_IoT_Agent_Tiny_SDK_Linux//agent_tiny/lwm2m_client/object_access_control.c ****     }
 550:/home/baikal/workspace/C50/Huawei_IoT_Agent_Tiny_SDK_Linux//agent_tiny/lwm2m_client/object_access_control.c **** 
 551:/home/baikal/workspace/C50/Huawei_IoT_Agent_Tiny_SDK_Linux//agent_tiny/lwm2m_client/object_access_control.c ****     return targetP;
 552:/home/baikal/workspace/C50/Huawei_IoT_Agent_Tiny_SDK_Linux//agent_tiny/lwm2m_client/object_access_control.c **** }
 553:/home/baikal/workspace/C50/Huawei_IoT_Agent_Tiny_SDK_Linux//agent_tiny/lwm2m_client/object_access_control.c **** 
 554:/home/baikal/workspace/C50/Huawei_IoT_Agent_Tiny_SDK_Linux//agent_tiny/lwm2m_client/object_access_control.c **** static inline bool prv_auth_match(OBJ_ACC_OPERATE op, uint16_t auth_op)
 555:/home/baikal/workspace/C50/Huawei_IoT_Agent_Tiny_SDK_Linux//agent_tiny/lwm2m_client/object_access_control.c **** {
 556:/home/baikal/workspace/C50/Huawei_IoT_Agent_Tiny_SDK_Linux//agent_tiny/lwm2m_client/object_access_control.c ****     return auth_op & (0x01 << op);
 557:/home/baikal/workspace/C50/Huawei_IoT_Agent_Tiny_SDK_Linux//agent_tiny/lwm2m_client/object_access_control.c **** }
 558:/home/baikal/workspace/C50/Huawei_IoT_Agent_Tiny_SDK_Linux//agent_tiny/lwm2m_client/object_access_control.c **** 
 559:/home/baikal/workspace/C50/Huawei_IoT_Agent_Tiny_SDK_Linux//agent_tiny/lwm2m_client/object_access_control.c **** static bool prv_check_instance_auth(acc_ctrl_oi_t *accCtrlOiP, uint16_t objId, uint16_t instId,
 560:/home/baikal/workspace/C50/Huawei_IoT_Agent_Tiny_SDK_Linux//agent_tiny/lwm2m_client/object_access_control.c ****                                     uint16_t serverId, OBJ_ACC_OPERATE op)
 561:/home/baikal/workspace/C50/Huawei_IoT_Agent_Tiny_SDK_Linux//agent_tiny/lwm2m_client/object_access_control.c **** {
 562:/home/baikal/workspace/C50/Huawei_IoT_Agent_Tiny_SDK_Linux//agent_tiny/lwm2m_client/object_access_control.c ****     acc_ctrl_oi_t *targetP;
 563:/home/baikal/workspace/C50/Huawei_IoT_Agent_Tiny_SDK_Linux//agent_tiny/lwm2m_client/object_access_control.c ****     acc_ctrl_ri_t *accCtrlRiP;
 564:/home/baikal/workspace/C50/Huawei_IoT_Agent_Tiny_SDK_Linux//agent_tiny/lwm2m_client/object_access_control.c **** 
 565:/home/baikal/workspace/C50/Huawei_IoT_Agent_Tiny_SDK_Linux//agent_tiny/lwm2m_client/object_access_control.c ****     targetP = prv_get_acc_instance(accCtrlOiP, objId, instId);
 566:/home/baikal/workspace/C50/Huawei_IoT_Agent_Tiny_SDK_Linux//agent_tiny/lwm2m_client/object_access_control.c ****     if (NULL == targetP)
 567:/home/baikal/workspace/C50/Huawei_IoT_Agent_Tiny_SDK_Linux//agent_tiny/lwm2m_client/object_access_control.c ****     {
 568:/home/baikal/workspace/C50/Huawei_IoT_Agent_Tiny_SDK_Linux//agent_tiny/lwm2m_client/object_access_control.c ****         return false;
 569:/home/baikal/workspace/C50/Huawei_IoT_Agent_Tiny_SDK_Linux//agent_tiny/lwm2m_client/object_access_control.c ****     }
 570:/home/baikal/workspace/C50/Huawei_IoT_Agent_Tiny_SDK_Linux//agent_tiny/lwm2m_client/object_access_control.c ****     accCtrlRiP = prv_get_acl_instance(targetP->accCtrlValList, serverId);
 571:/home/baikal/workspace/C50/Huawei_IoT_Agent_Tiny_SDK_Linux//agent_tiny/lwm2m_client/object_access_control.c ****     if (NULL == accCtrlRiP)
 572:/home/baikal/workspace/C50/Huawei_IoT_Agent_Tiny_SDK_Linux//agent_tiny/lwm2m_client/object_access_control.c ****     {
 573:/home/baikal/workspace/C50/Huawei_IoT_Agent_Tiny_SDK_Linux//agent_tiny/lwm2m_client/object_access_control.c ****         return targetP->accCtrlOwner == serverId;
 574:/home/baikal/workspace/C50/Huawei_IoT_Agent_Tiny_SDK_Linux//agent_tiny/lwm2m_client/object_access_control.c ****     }
 575:/home/baikal/workspace/C50/Huawei_IoT_Agent_Tiny_SDK_Linux//agent_tiny/lwm2m_client/object_access_control.c ****     return prv_auth_match(op, accCtrlRiP->accCtrlValue);
 576:/home/baikal/workspace/C50/Huawei_IoT_Agent_Tiny_SDK_Linux//agent_tiny/lwm2m_client/object_access_control.c **** }
 577:/home/baikal/workspace/C50/Huawei_IoT_Agent_Tiny_SDK_Linux//agent_tiny/lwm2m_client/object_access_control.c **** 
 578:/home/baikal/workspace/C50/Huawei_IoT_Agent_Tiny_SDK_Linux//agent_tiny/lwm2m_client/object_access_control.c **** static uint8_t prv_acc_self_auth_check(acc_ctrl_oi_t *accCtrlOiP, lwm2m_uri_t *uri,
 579:/home/baikal/workspace/C50/Huawei_IoT_Agent_Tiny_SDK_Linux//agent_tiny/lwm2m_client/object_access_control.c ****                                        OBJ_ACC_OPERATE op, uint16_t serverId)
 580:/home/baikal/workspace/C50/Huawei_IoT_Agent_Tiny_SDK_Linux//agent_tiny/lwm2m_client/object_access_control.c **** {
 581:/home/baikal/workspace/C50/Huawei_IoT_Agent_Tiny_SDK_Linux//agent_tiny/lwm2m_client/object_access_control.c ****     acc_ctrl_oi_t *targetP;
 582:/home/baikal/workspace/C50/Huawei_IoT_Agent_Tiny_SDK_Linux//agent_tiny/lwm2m_client/object_access_control.c **** 
 583:/home/baikal/workspace/C50/Huawei_IoT_Agent_Tiny_SDK_Linux//agent_tiny/lwm2m_client/object_access_control.c ****     if (LWM2M_URI_IS_SET_INSTANCE(uri))
GAS LISTING /tmp/ccOjtb1y.s 			page 12


 584:/home/baikal/workspace/C50/Huawei_IoT_Agent_Tiny_SDK_Linux//agent_tiny/lwm2m_client/object_access_control.c ****     {
 585:/home/baikal/workspace/C50/Huawei_IoT_Agent_Tiny_SDK_Linux//agent_tiny/lwm2m_client/object_access_control.c ****         targetP = (acc_ctrl_oi_t *)LWM2M_LIST_FIND(accCtrlOiP, uri->instanceId);
 586:/home/baikal/workspace/C50/Huawei_IoT_Agent_Tiny_SDK_Linux//agent_tiny/lwm2m_client/object_access_control.c ****         if (NULL != targetP && targetP->accCtrlOwner == serverId)
 587:/home/baikal/workspace/C50/Huawei_IoT_Agent_Tiny_SDK_Linux//agent_tiny/lwm2m_client/object_access_control.c ****         {
 588:/home/baikal/workspace/C50/Huawei_IoT_Agent_Tiny_SDK_Linux//agent_tiny/lwm2m_client/object_access_control.c ****             return COAP_NO_ERROR;
 589:/home/baikal/workspace/C50/Huawei_IoT_Agent_Tiny_SDK_Linux//agent_tiny/lwm2m_client/object_access_control.c ****         }
 590:/home/baikal/workspace/C50/Huawei_IoT_Agent_Tiny_SDK_Linux//agent_tiny/lwm2m_client/object_access_control.c ****         else
 591:/home/baikal/workspace/C50/Huawei_IoT_Agent_Tiny_SDK_Linux//agent_tiny/lwm2m_client/object_access_control.c ****         {
 592:/home/baikal/workspace/C50/Huawei_IoT_Agent_Tiny_SDK_Linux//agent_tiny/lwm2m_client/object_access_control.c ****             return COAP_401_UNAUTHORIZED;
 593:/home/baikal/workspace/C50/Huawei_IoT_Agent_Tiny_SDK_Linux//agent_tiny/lwm2m_client/object_access_control.c ****         }
 594:/home/baikal/workspace/C50/Huawei_IoT_Agent_Tiny_SDK_Linux//agent_tiny/lwm2m_client/object_access_control.c ****     }
 595:/home/baikal/workspace/C50/Huawei_IoT_Agent_Tiny_SDK_Linux//agent_tiny/lwm2m_client/object_access_control.c ****     else
 596:/home/baikal/workspace/C50/Huawei_IoT_Agent_Tiny_SDK_Linux//agent_tiny/lwm2m_client/object_access_control.c ****     {
 597:/home/baikal/workspace/C50/Huawei_IoT_Agent_Tiny_SDK_Linux//agent_tiny/lwm2m_client/object_access_control.c ****         targetP = accCtrlOiP;
 598:/home/baikal/workspace/C50/Huawei_IoT_Agent_Tiny_SDK_Linux//agent_tiny/lwm2m_client/object_access_control.c ****         while (targetP)
 599:/home/baikal/workspace/C50/Huawei_IoT_Agent_Tiny_SDK_Linux//agent_tiny/lwm2m_client/object_access_control.c ****         {
 600:/home/baikal/workspace/C50/Huawei_IoT_Agent_Tiny_SDK_Linux//agent_tiny/lwm2m_client/object_access_control.c ****             if (targetP->accCtrlOwner != serverId)
 601:/home/baikal/workspace/C50/Huawei_IoT_Agent_Tiny_SDK_Linux//agent_tiny/lwm2m_client/object_access_control.c ****             {
 602:/home/baikal/workspace/C50/Huawei_IoT_Agent_Tiny_SDK_Linux//agent_tiny/lwm2m_client/object_access_control.c ****                 return COAP_401_UNAUTHORIZED;
 603:/home/baikal/workspace/C50/Huawei_IoT_Agent_Tiny_SDK_Linux//agent_tiny/lwm2m_client/object_access_control.c ****             }
 604:/home/baikal/workspace/C50/Huawei_IoT_Agent_Tiny_SDK_Linux//agent_tiny/lwm2m_client/object_access_control.c ****             targetP = targetP->next;
 605:/home/baikal/workspace/C50/Huawei_IoT_Agent_Tiny_SDK_Linux//agent_tiny/lwm2m_client/object_access_control.c ****         }
 606:/home/baikal/workspace/C50/Huawei_IoT_Agent_Tiny_SDK_Linux//agent_tiny/lwm2m_client/object_access_control.c ****         return COAP_NO_ERROR;
 607:/home/baikal/workspace/C50/Huawei_IoT_Agent_Tiny_SDK_Linux//agent_tiny/lwm2m_client/object_access_control.c ****     }
 608:/home/baikal/workspace/C50/Huawei_IoT_Agent_Tiny_SDK_Linux//agent_tiny/lwm2m_client/object_access_control.c **** }
 609:/home/baikal/workspace/C50/Huawei_IoT_Agent_Tiny_SDK_Linux//agent_tiny/lwm2m_client/object_access_control.c **** 
 610:/home/baikal/workspace/C50/Huawei_IoT_Agent_Tiny_SDK_Linux//agent_tiny/lwm2m_client/object_access_control.c **** static uint8_t prv_pre_auth_check(acc_ctrl_oi_t *accCtrlOiP, lwm2m_uri_t *uri,
 611:/home/baikal/workspace/C50/Huawei_IoT_Agent_Tiny_SDK_Linux//agent_tiny/lwm2m_client/object_access_control.c ****                                   OBJ_ACC_OPERATE op, uint16_t serverId)
 612:/home/baikal/workspace/C50/Huawei_IoT_Agent_Tiny_SDK_Linux//agent_tiny/lwm2m_client/object_access_control.c **** {
 613:/home/baikal/workspace/C50/Huawei_IoT_Agent_Tiny_SDK_Linux//agent_tiny/lwm2m_client/object_access_control.c ****     if (OBJ_ACC_CREATE == op)
 614:/home/baikal/workspace/C50/Huawei_IoT_Agent_Tiny_SDK_Linux//agent_tiny/lwm2m_client/object_access_control.c ****     {
 615:/home/baikal/workspace/C50/Huawei_IoT_Agent_Tiny_SDK_Linux//agent_tiny/lwm2m_client/object_access_control.c ****         if (!prv_check_instance_auth(accCtrlOiP, uri->objectId, MAX_DATA_VAL, serverId, op))
 616:/home/baikal/workspace/C50/Huawei_IoT_Agent_Tiny_SDK_Linux//agent_tiny/lwm2m_client/object_access_control.c ****         {
 617:/home/baikal/workspace/C50/Huawei_IoT_Agent_Tiny_SDK_Linux//agent_tiny/lwm2m_client/object_access_control.c ****             return COAP_401_UNAUTHORIZED;
 618:/home/baikal/workspace/C50/Huawei_IoT_Agent_Tiny_SDK_Linux//agent_tiny/lwm2m_client/object_access_control.c ****         }
 619:/home/baikal/workspace/C50/Huawei_IoT_Agent_Tiny_SDK_Linux//agent_tiny/lwm2m_client/object_access_control.c **** 
 620:/home/baikal/workspace/C50/Huawei_IoT_Agent_Tiny_SDK_Linux//agent_tiny/lwm2m_client/object_access_control.c ****         return COAP_NO_ERROR;
 621:/home/baikal/workspace/C50/Huawei_IoT_Agent_Tiny_SDK_Linux//agent_tiny/lwm2m_client/object_access_control.c ****     }
 622:/home/baikal/workspace/C50/Huawei_IoT_Agent_Tiny_SDK_Linux//agent_tiny/lwm2m_client/object_access_control.c ****     else if (OBJ_ACC_DISCOVER == op)
 623:/home/baikal/workspace/C50/Huawei_IoT_Agent_Tiny_SDK_Linux//agent_tiny/lwm2m_client/object_access_control.c ****     {
 624:/home/baikal/workspace/C50/Huawei_IoT_Agent_Tiny_SDK_Linux//agent_tiny/lwm2m_client/object_access_control.c ****         return COAP_NO_ERROR;
 625:/home/baikal/workspace/C50/Huawei_IoT_Agent_Tiny_SDK_Linux//agent_tiny/lwm2m_client/object_access_control.c ****     }
 626:/home/baikal/workspace/C50/Huawei_IoT_Agent_Tiny_SDK_Linux//agent_tiny/lwm2m_client/object_access_control.c ****     else if (uri->objectId == LWM2M_ACL_OBJECT_ID)
 627:/home/baikal/workspace/C50/Huawei_IoT_Agent_Tiny_SDK_Linux//agent_tiny/lwm2m_client/object_access_control.c ****     {
 628:/home/baikal/workspace/C50/Huawei_IoT_Agent_Tiny_SDK_Linux//agent_tiny/lwm2m_client/object_access_control.c ****         return prv_acc_self_auth_check(accCtrlOiP, uri, op, serverId);
 629:/home/baikal/workspace/C50/Huawei_IoT_Agent_Tiny_SDK_Linux//agent_tiny/lwm2m_client/object_access_control.c ****     }
 630:/home/baikal/workspace/C50/Huawei_IoT_Agent_Tiny_SDK_Linux//agent_tiny/lwm2m_client/object_access_control.c ****     else
 631:/home/baikal/workspace/C50/Huawei_IoT_Agent_Tiny_SDK_Linux//agent_tiny/lwm2m_client/object_access_control.c ****     {
 632:/home/baikal/workspace/C50/Huawei_IoT_Agent_Tiny_SDK_Linux//agent_tiny/lwm2m_client/object_access_control.c ****         if (LWM2M_URI_IS_SET_INSTANCE(uri))
 633:/home/baikal/workspace/C50/Huawei_IoT_Agent_Tiny_SDK_Linux//agent_tiny/lwm2m_client/object_access_control.c ****         {
 634:/home/baikal/workspace/C50/Huawei_IoT_Agent_Tiny_SDK_Linux//agent_tiny/lwm2m_client/object_access_control.c ****             if (!prv_check_instance_auth(accCtrlOiP, uri->objectId, uri->instanceId, serverId, op))
 635:/home/baikal/workspace/C50/Huawei_IoT_Agent_Tiny_SDK_Linux//agent_tiny/lwm2m_client/object_access_control.c ****             {
 636:/home/baikal/workspace/C50/Huawei_IoT_Agent_Tiny_SDK_Linux//agent_tiny/lwm2m_client/object_access_control.c ****                 return COAP_401_UNAUTHORIZED;
 637:/home/baikal/workspace/C50/Huawei_IoT_Agent_Tiny_SDK_Linux//agent_tiny/lwm2m_client/object_access_control.c ****             }
 638:/home/baikal/workspace/C50/Huawei_IoT_Agent_Tiny_SDK_Linux//agent_tiny/lwm2m_client/object_access_control.c ****         }
 639:/home/baikal/workspace/C50/Huawei_IoT_Agent_Tiny_SDK_Linux//agent_tiny/lwm2m_client/object_access_control.c ****     }
 640:/home/baikal/workspace/C50/Huawei_IoT_Agent_Tiny_SDK_Linux//agent_tiny/lwm2m_client/object_access_control.c **** 
GAS LISTING /tmp/ccOjtb1y.s 			page 13


 641:/home/baikal/workspace/C50/Huawei_IoT_Agent_Tiny_SDK_Linux//agent_tiny/lwm2m_client/object_access_control.c ****     return COAP_NO_ERROR;
 642:/home/baikal/workspace/C50/Huawei_IoT_Agent_Tiny_SDK_Linux//agent_tiny/lwm2m_client/object_access_control.c **** }
 643:/home/baikal/workspace/C50/Huawei_IoT_Agent_Tiny_SDK_Linux//agent_tiny/lwm2m_client/object_access_control.c **** 
 644:/home/baikal/workspace/C50/Huawei_IoT_Agent_Tiny_SDK_Linux//agent_tiny/lwm2m_client/object_access_control.c **** static uint8_t prv_post_action_check(lwm2m_uri_t *uri, OBJ_ACC_OPERATE op)
 645:/home/baikal/workspace/C50/Huawei_IoT_Agent_Tiny_SDK_Linux//agent_tiny/lwm2m_client/object_access_control.c **** {
  45              		.loc 1 645 0
  46              		.cfi_startproc
  47              	.LVL3:
 646:/home/baikal/workspace/C50/Huawei_IoT_Agent_Tiny_SDK_Linux//agent_tiny/lwm2m_client/object_access_control.c ****     if (LWM2M_URI_IS_SET_RESOURCE(uri))
  48              		.loc 1 646 0
  49 0000 0FB617   		movzbl	(%rdi), %edx
  50 0003 89D0     		movl	%edx, %eax
  51 0005 83E001   		andl	$1, %eax
  52 0008 7526     		jne	.L10
 647:/home/baikal/workspace/C50/Huawei_IoT_Agent_Tiny_SDK_Linux//agent_tiny/lwm2m_client/object_access_control.c ****     {
 648:/home/baikal/workspace/C50/Huawei_IoT_Agent_Tiny_SDK_Linux//agent_tiny/lwm2m_client/object_access_control.c ****         return COAP_NO_ERROR;
 649:/home/baikal/workspace/C50/Huawei_IoT_Agent_Tiny_SDK_Linux//agent_tiny/lwm2m_client/object_access_control.c ****     }
 650:/home/baikal/workspace/C50/Huawei_IoT_Agent_Tiny_SDK_Linux//agent_tiny/lwm2m_client/object_access_control.c ****     else if (LWM2M_URI_IS_SET_INSTANCE(uri))
  53              		.loc 1 650 0
  54 000a 83E202   		andl	$2, %edx
  55 000d 740B     		je	.L9
 651:/home/baikal/workspace/C50/Huawei_IoT_Agent_Tiny_SDK_Linux//agent_tiny/lwm2m_client/object_access_control.c ****     {
 652:/home/baikal/workspace/C50/Huawei_IoT_Agent_Tiny_SDK_Linux//agent_tiny/lwm2m_client/object_access_control.c ****         if (OBJ_ACC_EXCUTE == op)
  56              		.loc 1 652 0
  57 000f 83FE02   		cmpl	$2, %esi
  58 0012 752A     		jne	.L8
 653:/home/baikal/workspace/C50/Huawei_IoT_Agent_Tiny_SDK_Linux//agent_tiny/lwm2m_client/object_access_control.c ****         {
 654:/home/baikal/workspace/C50/Huawei_IoT_Agent_Tiny_SDK_Linux//agent_tiny/lwm2m_client/object_access_control.c ****             return COAP_405_METHOD_NOT_ALLOWED;
  59              		.loc 1 654 0
  60 0014 B885FFFF 		movl	$-123, %eax
  60      FF
  61 0019 C3       		ret
  62              	.L9:
 655:/home/baikal/workspace/C50/Huawei_IoT_Agent_Tiny_SDK_Linux//agent_tiny/lwm2m_client/object_access_control.c ****         }
 656:/home/baikal/workspace/C50/Huawei_IoT_Agent_Tiny_SDK_Linux//agent_tiny/lwm2m_client/object_access_control.c ****         else
 657:/home/baikal/workspace/C50/Huawei_IoT_Agent_Tiny_SDK_Linux//agent_tiny/lwm2m_client/object_access_control.c ****         {
 658:/home/baikal/workspace/C50/Huawei_IoT_Agent_Tiny_SDK_Linux//agent_tiny/lwm2m_client/object_access_control.c ****             /*
 659:/home/baikal/workspace/C50/Huawei_IoT_Agent_Tiny_SDK_Linux//agent_tiny/lwm2m_client/object_access_control.c ****              * For the write operation, check whether the resources
 660:/home/baikal/workspace/C50/Huawei_IoT_Agent_Tiny_SDK_Linux//agent_tiny/lwm2m_client/object_access_control.c ****              * can be written or not, is in the write operation of
 661:/home/baikal/workspace/C50/Huawei_IoT_Agent_Tiny_SDK_Linux//agent_tiny/lwm2m_client/object_access_control.c ****              * the specific object.
 662:/home/baikal/workspace/C50/Huawei_IoT_Agent_Tiny_SDK_Linux//agent_tiny/lwm2m_client/object_access_control.c ****              */
 663:/home/baikal/workspace/C50/Huawei_IoT_Agent_Tiny_SDK_Linux//agent_tiny/lwm2m_client/object_access_control.c ****             return COAP_NO_ERROR;
 664:/home/baikal/workspace/C50/Huawei_IoT_Agent_Tiny_SDK_Linux//agent_tiny/lwm2m_client/object_access_control.c ****         }
 665:/home/baikal/workspace/C50/Huawei_IoT_Agent_Tiny_SDK_Linux//agent_tiny/lwm2m_client/object_access_control.c ****     }
 666:/home/baikal/workspace/C50/Huawei_IoT_Agent_Tiny_SDK_Linux//agent_tiny/lwm2m_client/object_access_control.c ****     else
 667:/home/baikal/workspace/C50/Huawei_IoT_Agent_Tiny_SDK_Linux//agent_tiny/lwm2m_client/object_access_control.c ****     {
 668:/home/baikal/workspace/C50/Huawei_IoT_Agent_Tiny_SDK_Linux//agent_tiny/lwm2m_client/object_access_control.c ****         if (OBJ_ACC_WRITE_ATTR == op || OBJ_ACC_CREATE == op)
  63              		.loc 1 668 0
  64 001a 85F6     		testl	%esi, %esi
  65 001c 0F94C1   		sete	%cl
  66 001f 83FE04   		cmpl	$4, %esi
  67 0022 0F94C0   		sete	%al
  68 0025 08C1     		orb	%al, %cl
  69 0027 750D     		jne	.L11
 669:/home/baikal/workspace/C50/Huawei_IoT_Agent_Tiny_SDK_Linux//agent_tiny/lwm2m_client/object_access_control.c ****         {
 670:/home/baikal/workspace/C50/Huawei_IoT_Agent_Tiny_SDK_Linux//agent_tiny/lwm2m_client/object_access_control.c ****             return COAP_NO_ERROR;
 671:/home/baikal/workspace/C50/Huawei_IoT_Agent_Tiny_SDK_Linux//agent_tiny/lwm2m_client/object_access_control.c ****         }
GAS LISTING /tmp/ccOjtb1y.s 			page 14


 672:/home/baikal/workspace/C50/Huawei_IoT_Agent_Tiny_SDK_Linux//agent_tiny/lwm2m_client/object_access_control.c ****         else if (OBJ_ACC_NOTIFY == op
  70              		.loc 1 672 0
  71 0029 85F6     		testl	%esi, %esi
  72 002b 750C     		jne	.L12
 673:/home/baikal/workspace/C50/Huawei_IoT_Agent_Tiny_SDK_Linux//agent_tiny/lwm2m_client/object_access_control.c ****                  || OBJ_ACC_READ == op || OBJ_ACC_OBSERVE == op)
 674:/home/baikal/workspace/C50/Huawei_IoT_Agent_Tiny_SDK_Linux//agent_tiny/lwm2m_client/object_access_control.c ****         {
 675:/home/baikal/workspace/C50/Huawei_IoT_Agent_Tiny_SDK_Linux//agent_tiny/lwm2m_client/object_access_control.c ****             /*
 676:/home/baikal/workspace/C50/Huawei_IoT_Agent_Tiny_SDK_Linux//agent_tiny/lwm2m_client/object_access_control.c ****              * We should do the auth check in object_read interface
 677:/home/baikal/workspace/C50/Huawei_IoT_Agent_Tiny_SDK_Linux//agent_tiny/lwm2m_client/object_access_control.c ****              * and just ignore here.
 678:/home/baikal/workspace/C50/Huawei_IoT_Agent_Tiny_SDK_Linux//agent_tiny/lwm2m_client/object_access_control.c ****              */
 679:/home/baikal/workspace/C50/Huawei_IoT_Agent_Tiny_SDK_Linux//agent_tiny/lwm2m_client/object_access_control.c ****             return COAP_NO_ERROR;
  73              		.loc 1 679 0
  74 002d 89D0     		movl	%edx, %eax
  75 002f C3       		ret
  76              	.L10:
 648:/home/baikal/workspace/C50/Huawei_IoT_Agent_Tiny_SDK_Linux//agent_tiny/lwm2m_client/object_access_control.c ****     }
  77              		.loc 1 648 0
  78 0030 B8000000 		movl	$0, %eax
  78      00
  79 0035 C3       		ret
  80              	.L11:
 670:/home/baikal/workspace/C50/Huawei_IoT_Agent_Tiny_SDK_Linux//agent_tiny/lwm2m_client/object_access_control.c ****         }
  81              		.loc 1 670 0
  82 0036 89D0     		movl	%edx, %eax
  83 0038 C3       		ret
  84              	.L12:
 680:/home/baikal/workspace/C50/Huawei_IoT_Agent_Tiny_SDK_Linux//agent_tiny/lwm2m_client/object_access_control.c ****         }
 681:/home/baikal/workspace/C50/Huawei_IoT_Agent_Tiny_SDK_Linux//agent_tiny/lwm2m_client/object_access_control.c ****         else
 682:/home/baikal/workspace/C50/Huawei_IoT_Agent_Tiny_SDK_Linux//agent_tiny/lwm2m_client/object_access_control.c ****         {
 683:/home/baikal/workspace/C50/Huawei_IoT_Agent_Tiny_SDK_Linux//agent_tiny/lwm2m_client/object_access_control.c ****             return COAP_405_METHOD_NOT_ALLOWED;
  85              		.loc 1 683 0
  86 0039 B885FFFF 		movl	$-123, %eax
  86      FF
  87              	.L8:
 684:/home/baikal/workspace/C50/Huawei_IoT_Agent_Tiny_SDK_Linux//agent_tiny/lwm2m_client/object_access_control.c ****         }
 685:/home/baikal/workspace/C50/Huawei_IoT_Agent_Tiny_SDK_Linux//agent_tiny/lwm2m_client/object_access_control.c ****     }
 686:/home/baikal/workspace/C50/Huawei_IoT_Agent_Tiny_SDK_Linux//agent_tiny/lwm2m_client/object_access_control.c **** }
  88              		.loc 1 686 0
  89 003e F3C3     		rep ret
  90              		.cfi_endproc
  91              	.LFE88:
  93              		.section	.text.prv_get_srv_cnt,"ax",@progbits
  95              	prv_get_srv_cnt:
  96              	.LFB89:
 687:/home/baikal/workspace/C50/Huawei_IoT_Agent_Tiny_SDK_Linux//agent_tiny/lwm2m_client/object_access_control.c **** 
 688:/home/baikal/workspace/C50/Huawei_IoT_Agent_Tiny_SDK_Linux//agent_tiny/lwm2m_client/object_access_control.c **** static int prv_get_srv_cnt(lwm2m_server_t *serverP)
 689:/home/baikal/workspace/C50/Huawei_IoT_Agent_Tiny_SDK_Linux//agent_tiny/lwm2m_client/object_access_control.c **** {
  97              		.loc 1 689 0
  98              		.cfi_startproc
  99              	.LVL4:
 690:/home/baikal/workspace/C50/Huawei_IoT_Agent_Tiny_SDK_Linux//agent_tiny/lwm2m_client/object_access_control.c ****     lwm2m_server_t *itor = serverP;
 691:/home/baikal/workspace/C50/Huawei_IoT_Agent_Tiny_SDK_Linux//agent_tiny/lwm2m_client/object_access_control.c ****     int cnt = 0;
 100              		.loc 1 691 0
 101 0000 B8000000 		movl	$0, %eax
 101      00
 692:/home/baikal/workspace/C50/Huawei_IoT_Agent_Tiny_SDK_Linux//agent_tiny/lwm2m_client/object_access_control.c **** 
 693:/home/baikal/workspace/C50/Huawei_IoT_Agent_Tiny_SDK_Linux//agent_tiny/lwm2m_client/object_access_control.c ****     while (itor)
GAS LISTING /tmp/ccOjtb1y.s 			page 15


 102              		.loc 1 693 0
 103 0005 EB0C     		jmp	.L14
 104              	.LVL5:
 105              	.L16:
 694:/home/baikal/workspace/C50/Huawei_IoT_Agent_Tiny_SDK_Linux//agent_tiny/lwm2m_client/object_access_control.c ****     {
 695:/home/baikal/workspace/C50/Huawei_IoT_Agent_Tiny_SDK_Linux//agent_tiny/lwm2m_client/object_access_control.c ****         if (!itor->dirty)
 106              		.loc 1 695 0
 107 0007 807F4000 		cmpb	$0, 64(%rdi)
 108 000b 7503     		jne	.L15
 696:/home/baikal/workspace/C50/Huawei_IoT_Agent_Tiny_SDK_Linux//agent_tiny/lwm2m_client/object_access_control.c ****         {
 697:/home/baikal/workspace/C50/Huawei_IoT_Agent_Tiny_SDK_Linux//agent_tiny/lwm2m_client/object_access_control.c ****             ++cnt;
 109              		.loc 1 697 0
 110 000d 83C001   		addl	$1, %eax
 111              	.LVL6:
 112              	.L15:
 698:/home/baikal/workspace/C50/Huawei_IoT_Agent_Tiny_SDK_Linux//agent_tiny/lwm2m_client/object_access_control.c ****         }
 699:/home/baikal/workspace/C50/Huawei_IoT_Agent_Tiny_SDK_Linux//agent_tiny/lwm2m_client/object_access_control.c ****         itor = itor->next;
 113              		.loc 1 699 0
 114 0010 488B3F   		movq	(%rdi), %rdi
 115              	.LVL7:
 116              	.L14:
 693:/home/baikal/workspace/C50/Huawei_IoT_Agent_Tiny_SDK_Linux//agent_tiny/lwm2m_client/object_access_control.c ****     {
 117              		.loc 1 693 0
 118 0013 4885FF   		testq	%rdi, %rdi
 119 0016 75EF     		jne	.L16
 700:/home/baikal/workspace/C50/Huawei_IoT_Agent_Tiny_SDK_Linux//agent_tiny/lwm2m_client/object_access_control.c ****     }
 701:/home/baikal/workspace/C50/Huawei_IoT_Agent_Tiny_SDK_Linux//agent_tiny/lwm2m_client/object_access_control.c **** 
 702:/home/baikal/workspace/C50/Huawei_IoT_Agent_Tiny_SDK_Linux//agent_tiny/lwm2m_client/object_access_control.c ****     return cnt;
 703:/home/baikal/workspace/C50/Huawei_IoT_Agent_Tiny_SDK_Linux//agent_tiny/lwm2m_client/object_access_control.c **** }
 120              		.loc 1 703 0
 121 0018 F3C3     		rep ret
 122              		.cfi_endproc
 123              	.LFE89:
 125              		.section	.text.prv_delete,"ax",@progbits
 127              	prv_delete:
 128              	.LFB76:
 392:/home/baikal/workspace/C50/Huawei_IoT_Agent_Tiny_SDK_Linux//agent_tiny/lwm2m_client/object_access_control.c ****     acc_ctrl_oi_t *targetP;
 129              		.loc 1 392 0
 130              		.cfi_startproc
 131              	.LVL8:
 132 0000 53       		pushq	%rbx
 133              	.LCFI0:
 134              		.cfi_def_cfa_offset 16
 135              		.cfi_offset 3, -16
 136 0001 4883EC10 		subq	$16, %rsp
 137              	.LCFI1:
 138              		.cfi_def_cfa_offset 32
 139 0005 4889F3   		movq	%rsi, %rbx
 395:/home/baikal/workspace/C50/Huawei_IoT_Agent_Tiny_SDK_Linux//agent_tiny/lwm2m_client/object_access_control.c ****                             (lwm2m_list_t **)&targetP);
 140              		.loc 1 395 0
 141 0008 0FB7F7   		movzwl	%di, %esi
 142              	.LVL9:
 143 000b 488B7B10 		movq	16(%rbx), %rdi
 144              	.LVL10:
 145 000f 488D5424 		leaq	8(%rsp), %rdx
 145      08
 146 0014 E8000000 		call	lwm2m_list_remove
GAS LISTING /tmp/ccOjtb1y.s 			page 16


 146      00
 147              	.LVL11:
 148 0019 48894310 		movq	%rax, 16(%rbx)
 397:/home/baikal/workspace/C50/Huawei_IoT_Agent_Tiny_SDK_Linux//agent_tiny/lwm2m_client/object_access_control.c **** 
 149              		.loc 1 397 0
 150 001d 488B4424 		movq	8(%rsp), %rax
 150      08
 151 0022 4885C0   		testq	%rax, %rax
 152 0025 741A     		je	.L19
 399:/home/baikal/workspace/C50/Huawei_IoT_Agent_Tiny_SDK_Linux//agent_tiny/lwm2m_client/object_access_control.c ****     lwm2m_free(targetP);
 153              		.loc 1 399 0
 154 0027 488B7810 		movq	16(%rax), %rdi
 155 002b E8000000 		call	lwm2m_list_free
 155      00
 156              	.LVL12:
 400:/home/baikal/workspace/C50/Huawei_IoT_Agent_Tiny_SDK_Linux//agent_tiny/lwm2m_client/object_access_control.c **** 
 157              		.loc 1 400 0
 158 0030 488B7C24 		movq	8(%rsp), %rdi
 158      08
 159 0035 E8000000 		call	lwm2m_free
 159      00
 160              	.LVL13:
 402:/home/baikal/workspace/C50/Huawei_IoT_Agent_Tiny_SDK_Linux//agent_tiny/lwm2m_client/object_access_control.c **** }
 161              		.loc 1 402 0
 162 003a B8420000 		movl	$66, %eax
 162      00
 163 003f EB05     		jmp	.L18
 164              	.L19:
 397:/home/baikal/workspace/C50/Huawei_IoT_Agent_Tiny_SDK_Linux//agent_tiny/lwm2m_client/object_access_control.c **** 
 165              		.loc 1 397 0
 166 0041 B884FFFF 		movl	$-124, %eax
 166      FF
 167              	.L18:
 403:/home/baikal/workspace/C50/Huawei_IoT_Agent_Tiny_SDK_Linux//agent_tiny/lwm2m_client/object_access_control.c **** 
 168              		.loc 1 403 0
 169 0046 4883C410 		addq	$16, %rsp
 170              	.LCFI2:
 171              		.cfi_def_cfa_offset 16
 172 004a 5B       		popq	%rbx
 173              	.LCFI3:
 174              		.cfi_def_cfa_offset 8
 175              	.LVL14:
 176 004b C3       		ret
 177              		.cfi_endproc
 178              	.LFE76:
 180              		.section	.text.prv_acc_self_auth_check,"ax",@progbits
 182              	prv_acc_self_auth_check:
 183              	.LFB86:
 580:/home/baikal/workspace/C50/Huawei_IoT_Agent_Tiny_SDK_Linux//agent_tiny/lwm2m_client/object_access_control.c ****     acc_ctrl_oi_t *targetP;
 184              		.loc 1 580 0
 185              		.cfi_startproc
 186              	.LVL15:
 187 0000 89CA     		movl	%ecx, %edx
 188              	.LVL16:
 583:/home/baikal/workspace/C50/Huawei_IoT_Agent_Tiny_SDK_Linux//agent_tiny/lwm2m_client/object_access_control.c ****     {
 189              		.loc 1 583 0
 190 0002 0FB606   		movzbl	(%rsi), %eax
GAS LISTING /tmp/ccOjtb1y.s 			page 17


 191 0005 83E002   		andl	$2, %eax
 192 0008 7427     		je	.L22
 580:/home/baikal/workspace/C50/Huawei_IoT_Agent_Tiny_SDK_Linux//agent_tiny/lwm2m_client/object_access_control.c ****     acc_ctrl_oi_t *targetP;
 193              		.loc 1 580 0
 194 000a 53       		pushq	%rbx
 195              	.LCFI4:
 196              		.cfi_def_cfa_offset 16
 197              		.cfi_offset 3, -16
 198 000b 89CB     		movl	%ecx, %ebx
 585:/home/baikal/workspace/C50/Huawei_IoT_Agent_Tiny_SDK_Linux//agent_tiny/lwm2m_client/object_access_control.c ****         if (NULL != targetP && targetP->accCtrlOwner == serverId)
 199              		.loc 1 585 0
 200 000d 0FB77604 		movzwl	4(%rsi), %esi
 201              	.LVL17:
 202 0011 E8000000 		call	lwm2m_list_find
 202      00
 203              	.LVL18:
 586:/home/baikal/workspace/C50/Huawei_IoT_Agent_Tiny_SDK_Linux//agent_tiny/lwm2m_client/object_access_control.c ****         {
 204              		.loc 1 586 0
 205 0016 4885C0   		testq	%rax, %rax
 206 0019 741D     		je	.L25
 586:/home/baikal/workspace/C50/Huawei_IoT_Agent_Tiny_SDK_Linux//agent_tiny/lwm2m_client/object_access_control.c ****         {
 207              		.loc 1 586 0 is_stmt 0 discriminator 1
 208 001b 6639580E 		cmpw	%bx, 14(%rax)
 209 001f 741E     		je	.L26
 592:/home/baikal/workspace/C50/Huawei_IoT_Agent_Tiny_SDK_Linux//agent_tiny/lwm2m_client/object_access_control.c ****         }
 210              		.loc 1 592 0 is_stmt 1
 211 0021 B881FFFF 		movl	$-127, %eax
 211      FF
 212              	.LVL19:
 213 0026 EB24     		jmp	.L23
 214              	.LVL20:
 215              	.L24:
 216              	.LCFI5:
 217              		.cfi_def_cfa_offset 8
 218              		.cfi_restore 3
 600:/home/baikal/workspace/C50/Huawei_IoT_Agent_Tiny_SDK_Linux//agent_tiny/lwm2m_client/object_access_control.c ****             {
 219              		.loc 1 600 0
 220 0028 663B570E 		cmpw	14(%rdi), %dx
 221 002c 7518     		jne	.L27
 604:/home/baikal/workspace/C50/Huawei_IoT_Agent_Tiny_SDK_Linux//agent_tiny/lwm2m_client/object_access_control.c ****         }
 222              		.loc 1 604 0
 223 002e 488B3F   		movq	(%rdi), %rdi
 224              	.LVL21:
 225              	.L22:
 598:/home/baikal/workspace/C50/Huawei_IoT_Agent_Tiny_SDK_Linux//agent_tiny/lwm2m_client/object_access_control.c ****         {
 226              		.loc 1 598 0
 227 0031 4885FF   		testq	%rdi, %rdi
 228 0034 75F2     		jne	.L24
 608:/home/baikal/workspace/C50/Huawei_IoT_Agent_Tiny_SDK_Linux//agent_tiny/lwm2m_client/object_access_control.c **** 
 229              		.loc 1 608 0
 230 0036 F3C3     		rep ret
 231              	.LVL22:
 232              	.L25:
 233              	.LCFI6:
 234              		.cfi_def_cfa_offset 16
 235              		.cfi_offset 3, -16
 592:/home/baikal/workspace/C50/Huawei_IoT_Agent_Tiny_SDK_Linux//agent_tiny/lwm2m_client/object_access_control.c ****         }
GAS LISTING /tmp/ccOjtb1y.s 			page 18


 236              		.loc 1 592 0
 237 0038 B881FFFF 		movl	$-127, %eax
 237      FF
 238              	.LVL23:
 239 003d EB0D     		jmp	.L23
 240              	.LVL24:
 241              	.L26:
 588:/home/baikal/workspace/C50/Huawei_IoT_Agent_Tiny_SDK_Linux//agent_tiny/lwm2m_client/object_access_control.c ****         }
 242              		.loc 1 588 0
 243 003f B8000000 		movl	$0, %eax
 243      00
 244              	.LVL25:
 245 0044 EB06     		jmp	.L23
 246              	.LVL26:
 247              	.L27:
 248              	.LCFI7:
 249              		.cfi_def_cfa_offset 8
 250              		.cfi_restore 3
 602:/home/baikal/workspace/C50/Huawei_IoT_Agent_Tiny_SDK_Linux//agent_tiny/lwm2m_client/object_access_control.c ****             }
 251              		.loc 1 602 0
 252 0046 B881FFFF 		movl	$-127, %eax
 252      FF
 253 004b C3       		ret
 254              	.LVL27:
 255              	.L23:
 256              	.LCFI8:
 257              		.cfi_def_cfa_offset 16
 258              		.cfi_offset 3, -16
 608:/home/baikal/workspace/C50/Huawei_IoT_Agent_Tiny_SDK_Linux//agent_tiny/lwm2m_client/object_access_control.c **** 
 259              		.loc 1 608 0
 260 004c 5B       		popq	%rbx
 261              	.LCFI9:
 262              		.cfi_restore 3
 263              		.cfi_def_cfa_offset 8
 264 004d C3       		ret
 265              		.cfi_endproc
 266              	.LFE86:
 268              		.section	.text.prv_get_acl_instance,"ax",@progbits
 270              	prv_get_acl_instance:
 271              	.LFB83:
 542:/home/baikal/workspace/C50/Huawei_IoT_Agent_Tiny_SDK_Linux//agent_tiny/lwm2m_client/object_access_control.c ****     acc_ctrl_ri_t *targetP;
 272              		.loc 1 542 0
 273              		.cfi_startproc
 274              	.LVL28:
 275 0000 53       		pushq	%rbx
 276              	.LCFI10:
 277              		.cfi_def_cfa_offset 16
 278              		.cfi_offset 3, -16
 279 0001 4889FB   		movq	%rdi, %rbx
 545:/home/baikal/workspace/C50/Huawei_IoT_Agent_Tiny_SDK_Linux//agent_tiny/lwm2m_client/object_access_control.c ****     if (NULL == targetP)
 280              		.loc 1 545 0
 281 0004 0FB7F6   		movzwl	%si, %esi
 282 0007 E8000000 		call	lwm2m_list_find
 282      00
 283              	.LVL29:
 546:/home/baikal/workspace/C50/Huawei_IoT_Agent_Tiny_SDK_Linux//agent_tiny/lwm2m_client/object_access_control.c ****     {
 284              		.loc 1 546 0
GAS LISTING /tmp/ccOjtb1y.s 			page 19


 285 000c 4885C0   		testq	%rax, %rax
 286 000f 750D     		jne	.L31
 548:/home/baikal/workspace/C50/Huawei_IoT_Agent_Tiny_SDK_Linux//agent_tiny/lwm2m_client/object_access_control.c ****     }
 287              		.loc 1 548 0
 288 0011 BE000000 		movl	$0, %esi
 288      00
 289 0016 4889DF   		movq	%rbx, %rdi
 290 0019 E8000000 		call	lwm2m_list_find
 290      00
 291              	.LVL30:
 292              	.L31:
 552:/home/baikal/workspace/C50/Huawei_IoT_Agent_Tiny_SDK_Linux//agent_tiny/lwm2m_client/object_access_control.c **** 
 293              		.loc 1 552 0
 294 001e 5B       		popq	%rbx
 295              	.LCFI11:
 296              		.cfi_def_cfa_offset 8
 297              	.LVL31:
 298 001f C3       		ret
 299              		.cfi_endproc
 300              	.LFE83:
 302              		.section	.text.prv_check_instance_auth,"ax",@progbits
 304              	prv_check_instance_auth:
 305              	.LFB85:
 561:/home/baikal/workspace/C50/Huawei_IoT_Agent_Tiny_SDK_Linux//agent_tiny/lwm2m_client/object_access_control.c ****     acc_ctrl_oi_t *targetP;
 306              		.loc 1 561 0
 307              		.cfi_startproc
 308              	.LVL32:
 309 0000 4154     		pushq	%r12
 310              	.LCFI12:
 311              		.cfi_def_cfa_offset 16
 312              		.cfi_offset 12, -16
 313 0002 55       		pushq	%rbp
 314              	.LCFI13:
 315              		.cfi_def_cfa_offset 24
 316              		.cfi_offset 6, -24
 317 0003 53       		pushq	%rbx
 318              	.LCFI14:
 319              		.cfi_def_cfa_offset 32
 320              		.cfi_offset 3, -32
 321 0004 89CB     		movl	%ecx, %ebx
 322 0006 4489C5   		movl	%r8d, %ebp
 565:/home/baikal/workspace/C50/Huawei_IoT_Agent_Tiny_SDK_Linux//agent_tiny/lwm2m_client/object_access_control.c ****     if (NULL == targetP)
 323              		.loc 1 565 0
 324 0009 0FB7D2   		movzwl	%dx, %edx
 325 000c 0FB7F6   		movzwl	%si, %esi
 326 000f E8000000 		call	prv_get_acc_instance
 326      00
 327              	.LVL33:
 566:/home/baikal/workspace/C50/Huawei_IoT_Agent_Tiny_SDK_Linux//agent_tiny/lwm2m_client/object_access_control.c ****     {
 328              		.loc 1 566 0
 329 0014 4885C0   		testq	%rax, %rax
 330 0017 7433     		je	.L36
 331 0019 4989C4   		movq	%rax, %r12
 570:/home/baikal/workspace/C50/Huawei_IoT_Agent_Tiny_SDK_Linux//agent_tiny/lwm2m_client/object_access_control.c ****     if (NULL == accCtrlRiP)
 332              		.loc 1 570 0
 333 001c 0FB7F3   		movzwl	%bx, %esi
 334 001f 488B7810 		movq	16(%rax), %rdi
GAS LISTING /tmp/ccOjtb1y.s 			page 20


 335 0023 E8000000 		call	prv_get_acl_instance
 335      00
 336              	.LVL34:
 571:/home/baikal/workspace/C50/Huawei_IoT_Agent_Tiny_SDK_Linux//agent_tiny/lwm2m_client/object_access_control.c ****     {
 337              		.loc 1 571 0
 338 0028 4885C0   		testq	%rax, %rax
 339 002b 750B     		jne	.L35
 573:/home/baikal/workspace/C50/Huawei_IoT_Agent_Tiny_SDK_Linux//agent_tiny/lwm2m_client/object_access_control.c ****     }
 340              		.loc 1 573 0
 341 002d 6641395C 		cmpw	%bx, 14(%r12)
 341      240E
 342 0033 0F94C0   		sete	%al
 343              	.LVL35:
 344 0036 EB19     		jmp	.L34
 345              	.LVL36:
 346              	.L35:
 347              	.LBB13:
 348              	.LBB14:
 556:/home/baikal/workspace/C50/Huawei_IoT_Agent_Tiny_SDK_Linux//agent_tiny/lwm2m_client/object_access_control.c **** }
 349              		.loc 1 556 0
 350 0038 BA010000 		movl	$1, %edx
 350      00
 351 003d 89E9     		movl	%ebp, %ecx
 352 003f D3E2     		sall	%cl, %edx
 353 0041 0FB7400A 		movzwl	10(%rax), %eax
 354              	.LVL37:
 355 0045 85D0     		testl	%edx, %eax
 356 0047 0F95C0   		setne	%al
 357              	.LVL38:
 358              	.LBE14:
 359              	.LBE13:
 575:/home/baikal/workspace/C50/Huawei_IoT_Agent_Tiny_SDK_Linux//agent_tiny/lwm2m_client/object_access_control.c **** }
 360              		.loc 1 575 0
 361 004a EB05     		jmp	.L34
 362              	.LVL39:
 363              	.L36:
 568:/home/baikal/workspace/C50/Huawei_IoT_Agent_Tiny_SDK_Linux//agent_tiny/lwm2m_client/object_access_control.c ****     }
 364              		.loc 1 568 0
 365 004c B8000000 		movl	$0, %eax
 365      00
 366              	.LVL40:
 367              	.L34:
 576:/home/baikal/workspace/C50/Huawei_IoT_Agent_Tiny_SDK_Linux//agent_tiny/lwm2m_client/object_access_control.c **** 
 368              		.loc 1 576 0
 369 0051 5B       		popq	%rbx
 370              	.LCFI15:
 371              		.cfi_def_cfa_offset 24
 372 0052 5D       		popq	%rbp
 373              	.LCFI16:
 374              		.cfi_def_cfa_offset 16
 375              	.LVL41:
 376 0053 415C     		popq	%r12
 377              	.LCFI17:
 378              		.cfi_def_cfa_offset 8
 379 0055 C3       		ret
 380              		.cfi_endproc
 381              	.LFE85:
GAS LISTING /tmp/ccOjtb1y.s 			page 21


 383              		.section	.text.prv_pre_auth_check,"ax",@progbits
 385              	prv_pre_auth_check:
 386              	.LFB87:
 612:/home/baikal/workspace/C50/Huawei_IoT_Agent_Tiny_SDK_Linux//agent_tiny/lwm2m_client/object_access_control.c ****     if (OBJ_ACC_CREATE == op)
 387              		.loc 1 612 0
 388              		.cfi_startproc
 389              	.LVL42:
 390 0000 4883EC08 		subq	$8, %rsp
 391              	.LCFI18:
 392              		.cfi_def_cfa_offset 16
 613:/home/baikal/workspace/C50/Huawei_IoT_Agent_Tiny_SDK_Linux//agent_tiny/lwm2m_client/object_access_control.c ****     {
 393              		.loc 1 613 0
 394 0004 83FA04   		cmpl	$4, %edx
 395 0007 751F     		jne	.L39
 615:/home/baikal/workspace/C50/Huawei_IoT_Agent_Tiny_SDK_Linux//agent_tiny/lwm2m_client/object_access_control.c ****         {
 396              		.loc 1 615 0
 397 0009 0FB7C9   		movzwl	%cx, %ecx
 398 000c 0FB77602 		movzwl	2(%rsi), %esi
 399              	.LVL43:
 400 0010 4189D0   		movl	%edx, %r8d
 401 0013 BAFFFF00 		movl	$65535, %edx
 401      00
 402              	.LVL44:
 403 0018 E8000000 		call	prv_check_instance_auth
 403      00
 404              	.LVL45:
 405 001d 84C0     		testb	%al, %al
 406 001f 754A     		jne	.L42
 617:/home/baikal/workspace/C50/Huawei_IoT_Agent_Tiny_SDK_Linux//agent_tiny/lwm2m_client/object_access_control.c ****         }
 407              		.loc 1 617 0
 408 0021 B881FFFF 		movl	$-127, %eax
 408      FF
 409 0026 EB56     		jmp	.L40
 410              	.LVL46:
 411              	.L39:
 622:/home/baikal/workspace/C50/Huawei_IoT_Agent_Tiny_SDK_Linux//agent_tiny/lwm2m_client/object_access_control.c ****     {
 412              		.loc 1 622 0
 413 0028 83FA05   		cmpl	$5, %edx
 414 002b 7445     		je	.L43
 626:/home/baikal/workspace/C50/Huawei_IoT_Agent_Tiny_SDK_Linux//agent_tiny/lwm2m_client/object_access_control.c ****     {
 415              		.loc 1 626 0
 416 002d 440FB746 		movzwl	2(%rsi), %r8d
 416      02
 417 0032 664183F8 		cmpw	$2, %r8w
 417      02
 418 0037 750A     		jne	.L41
 628:/home/baikal/workspace/C50/Huawei_IoT_Agent_Tiny_SDK_Linux//agent_tiny/lwm2m_client/object_access_control.c ****     }
 419              		.loc 1 628 0
 420 0039 0FB7C9   		movzwl	%cx, %ecx
 421 003c E8000000 		call	prv_acc_self_auth_check
 421      00
 422              	.LVL47:
 423 0041 EB3B     		jmp	.L40
 424              	.LVL48:
 425              	.L41:
 632:/home/baikal/workspace/C50/Huawei_IoT_Agent_Tiny_SDK_Linux//agent_tiny/lwm2m_client/object_access_control.c ****         {
 426              		.loc 1 632 0
GAS LISTING /tmp/ccOjtb1y.s 			page 22


 427 0043 0FB606   		movzbl	(%rsi), %eax
 428 0046 83E002   		andl	$2, %eax
 429 0049 7433     		je	.L40
 634:/home/baikal/workspace/C50/Huawei_IoT_Agent_Tiny_SDK_Linux//agent_tiny/lwm2m_client/object_access_control.c ****             {
 430              		.loc 1 634 0
 431 004b 0FB7C9   		movzwl	%cx, %ecx
 432 004e 0FB74604 		movzwl	4(%rsi), %eax
 433 0052 410FB7F0 		movzwl	%r8w, %esi
 434              	.LVL49:
 435 0056 4189D0   		movl	%edx, %r8d
 436 0059 89C2     		movl	%eax, %edx
 437              	.LVL50:
 438 005b E8000000 		call	prv_check_instance_auth
 438      00
 439              	.LVL51:
 440 0060 84C0     		testb	%al, %al
 441 0062 7515     		jne	.L44
 636:/home/baikal/workspace/C50/Huawei_IoT_Agent_Tiny_SDK_Linux//agent_tiny/lwm2m_client/object_access_control.c ****             }
 442              		.loc 1 636 0
 443 0064 B881FFFF 		movl	$-127, %eax
 443      FF
 444 0069 EB13     		jmp	.L40
 445              	.L42:
 620:/home/baikal/workspace/C50/Huawei_IoT_Agent_Tiny_SDK_Linux//agent_tiny/lwm2m_client/object_access_control.c ****     }
 446              		.loc 1 620 0
 447 006b B8000000 		movl	$0, %eax
 447      00
 448 0070 EB0C     		jmp	.L40
 449              	.LVL52:
 450              	.L43:
 624:/home/baikal/workspace/C50/Huawei_IoT_Agent_Tiny_SDK_Linux//agent_tiny/lwm2m_client/object_access_control.c ****     }
 451              		.loc 1 624 0
 452 0072 B8000000 		movl	$0, %eax
 452      00
 453 0077 EB05     		jmp	.L40
 454              	.LVL53:
 455              	.L44:
 641:/home/baikal/workspace/C50/Huawei_IoT_Agent_Tiny_SDK_Linux//agent_tiny/lwm2m_client/object_access_control.c **** }
 456              		.loc 1 641 0
 457 0079 B8000000 		movl	$0, %eax
 457      00
 458              	.L40:
 642:/home/baikal/workspace/C50/Huawei_IoT_Agent_Tiny_SDK_Linux//agent_tiny/lwm2m_client/object_access_control.c **** 
 459              		.loc 1 642 0
 460 007e 4883C408 		addq	$8, %rsp
 461              	.LCFI19:
 462              		.cfi_def_cfa_offset 8
 463 0082 C3       		ret
 464              		.cfi_endproc
 465              	.LFE87:
 467              		.section	.text.prv_set_tlv,"ax",@progbits
 469              	prv_set_tlv:
 470              	.LFB71:
 101:/home/baikal/workspace/C50/Huawei_IoT_Agent_Tiny_SDK_Linux//agent_tiny/lwm2m_client/object_access_control.c ****     switch (dataP->id)
 471              		.loc 1 101 0
 472              		.cfi_startproc
 473              	.LVL54:
GAS LISTING /tmp/ccOjtb1y.s 			page 23


 474 0000 4155     		pushq	%r13
 475              	.LCFI20:
 476              		.cfi_def_cfa_offset 16
 477              		.cfi_offset 13, -16
 478 0002 4154     		pushq	%r12
 479              	.LCFI21:
 480              		.cfi_def_cfa_offset 24
 481              		.cfi_offset 12, -24
 482 0004 55       		pushq	%rbp
 483              	.LCFI22:
 484              		.cfi_def_cfa_offset 32
 485              		.cfi_offset 6, -32
 486 0005 53       		pushq	%rbx
 487              	.LCFI23:
 488              		.cfi_def_cfa_offset 40
 489              		.cfi_offset 3, -40
 490 0006 4883EC08 		subq	$8, %rsp
 491              	.LCFI24:
 492              		.cfi_def_cfa_offset 48
 493 000a 4889FB   		movq	%rdi, %rbx
 494 000d 4889F5   		movq	%rsi, %rbp
 102:/home/baikal/workspace/C50/Huawei_IoT_Agent_Tiny_SDK_Linux//agent_tiny/lwm2m_client/object_access_control.c ****     {
 495              		.loc 1 102 0
 496 0010 0FB74704 		movzwl	4(%rdi), %eax
 497 0014 6683F801 		cmpw	$1, %ax
 498 0018 7431     		je	.L48
 499 001a 6683F801 		cmpw	$1, %ax
 500 001e 7215     		jb	.L49
 501 0020 6683F802 		cmpw	$2, %ax
 502 0024 743B     		je	.L50
 503 0026 6683F803 		cmpw	$3, %ax
 504 002a 0F84A900 		je	.L51
 504      0000
 505 0030 E9B70000 		jmp	.L59
 505      00
 506              	.L49:
 105:/home/baikal/workspace/C50/Huawei_IoT_Agent_Tiny_SDK_Linux//agent_tiny/lwm2m_client/object_access_control.c ****         return COAP_205_CONTENT;
 507              		.loc 1 105 0
 508 0035 0FB77E0A 		movzwl	10(%rsi), %edi
 509              	.LVL55:
 510 0039 4889DE   		movq	%rbx, %rsi
 511              	.LVL56:
 512 003c E8000000 		call	lwm2m_data_encode_int
 512      00
 513              	.LVL57:
 106:/home/baikal/workspace/C50/Huawei_IoT_Agent_Tiny_SDK_Linux//agent_tiny/lwm2m_client/object_access_control.c ****     case RES_M_OBJECT_INSTANCE_ID:
 514              		.loc 1 106 0
 515 0041 B8450000 		movl	$69, %eax
 515      00
 516 0046 E9B40000 		jmp	.L47
 516      00
 517              	.LVL58:
 518              	.L48:
 108:/home/baikal/workspace/C50/Huawei_IoT_Agent_Tiny_SDK_Linux//agent_tiny/lwm2m_client/object_access_control.c ****         return COAP_205_CONTENT;
 519              		.loc 1 108 0
 520 004b 0FB77E0C 		movzwl	12(%rsi), %edi
 521 004f 4889DE   		movq	%rbx, %rsi
GAS LISTING /tmp/ccOjtb1y.s 			page 24


 522              	.LVL59:
 523 0052 E8000000 		call	lwm2m_data_encode_int
 523      00
 524              	.LVL60:
 109:/home/baikal/workspace/C50/Huawei_IoT_Agent_Tiny_SDK_Linux//agent_tiny/lwm2m_client/object_access_control.c ****     case RES_O_ACL:
 525              		.loc 1 109 0
 526 0057 B8450000 		movl	$69, %eax
 526      00
 527 005c E99E0000 		jmp	.L47
 527      00
 528              	.LVL61:
 529              	.L50:
 530              	.LBB15:
 114:/home/baikal/workspace/C50/Huawei_IoT_Agent_Tiny_SDK_Linux//agent_tiny/lwm2m_client/object_access_control.c ****                 accCtrlRiP != NULL;
 531              		.loc 1 114 0
 532 0061 488B4610 		movq	16(%rsi), %rax
 533              	.LVL62:
 534 0065 BF000000 		movl	$0, %edi
 534      00
 535 006a EB06     		jmp	.L52
 536              	.LVL63:
 537              	.L53:
 116:/home/baikal/workspace/C50/Huawei_IoT_Agent_Tiny_SDK_Linux//agent_tiny/lwm2m_client/object_access_control.c **** 
 538              		.loc 1 116 0
 539 006c 488B00   		movq	(%rax), %rax
 540              	.LVL64:
 541 006f 83C701   		addl	$1, %edi
 542              	.LVL65:
 543              	.L52:
 114:/home/baikal/workspace/C50/Huawei_IoT_Agent_Tiny_SDK_Linux//agent_tiny/lwm2m_client/object_access_control.c ****                 accCtrlRiP != NULL;
 544              		.loc 1 114 0 discriminator 1
 545 0072 4885C0   		testq	%rax, %rax
 546 0075 75F5     		jne	.L53
 118:/home/baikal/workspace/C50/Huawei_IoT_Agent_Tiny_SDK_Linux//agent_tiny/lwm2m_client/object_access_control.c ****         {
 547              		.loc 1 118 0
 548 0077 85FF     		testl	%edi, %edi
 549 0079 7478     		je	.L57
 550              	.LBB16:
 124:/home/baikal/workspace/C50/Huawei_IoT_Agent_Tiny_SDK_Linux//agent_tiny/lwm2m_client/object_access_control.c ****             if (subTlvP == NULL) return COAP_500_INTERNAL_SERVER_ERROR;
 551              		.loc 1 124 0
 552 007b E8000000 		call	lwm2m_data_new
 552      00
 553              	.LVL66:
 554 0080 4989C5   		movq	%rax, %r13
 555              	.LVL67:
 125:/home/baikal/workspace/C50/Huawei_IoT_Agent_Tiny_SDK_Linux//agent_tiny/lwm2m_client/object_access_control.c ****             for (accCtrlRiP = accCtrlOiP->accCtrlValList, ri = 0;
 556              		.loc 1 125 0
 557 0083 4885C0   		testq	%rax, %rax
 558 0086 7472     		je	.L58
 126:/home/baikal/workspace/C50/Huawei_IoT_Agent_Tiny_SDK_Linux//agent_tiny/lwm2m_client/object_access_control.c ****                     accCtrlRiP != NULL;
 559              		.loc 1 126 0
 560 0088 488B6D10 		movq	16(%rbp), %rbp
 561              	.LVL68:
 562 008c 41BC0000 		movl	$0, %r12d
 562      0000
 563 0092 EB2B     		jmp	.L54
 564              	.LVL69:
GAS LISTING /tmp/ccOjtb1y.s 			page 25


 565              	.L55:
 130:/home/baikal/workspace/C50/Huawei_IoT_Agent_Tiny_SDK_Linux//agent_tiny/lwm2m_client/object_access_control.c ****                 lwm2m_data_encode_int(accCtrlRiP->accCtrlValue, &subTlvP[ri]);
 566              		.loc 1 130 0
 567 0094 4963C4   		movslq	%r12d, %rax
 568 0097 488D0440 		leaq	(%rax,%rax,2), %rax
 569 009b 488D34C5 		leaq	0(,%rax,8), %rsi
 569      00000000 
 570 00a3 4C01EE   		addq	%r13, %rsi
 571 00a6 0FB74508 		movzwl	8(%rbp), %eax
 572 00aa 66894604 		movw	%ax, 4(%rsi)
 131:/home/baikal/workspace/C50/Huawei_IoT_Agent_Tiny_SDK_Linux//agent_tiny/lwm2m_client/object_access_control.c ****             }
 573              		.loc 1 131 0
 574 00ae 0FB77D0A 		movzwl	10(%rbp), %edi
 575 00b2 E8000000 		call	lwm2m_data_encode_int
 575      00
 576              	.LVL70:
 128:/home/baikal/workspace/C50/Huawei_IoT_Agent_Tiny_SDK_Linux//agent_tiny/lwm2m_client/object_access_control.c ****             {
 577              		.loc 1 128 0
 578 00b7 488B6D00 		movq	0(%rbp), %rbp
 579              	.LVL71:
 580 00bb 4183C401 		addl	$1, %r12d
 581              	.LVL72:
 582              	.L54:
 126:/home/baikal/workspace/C50/Huawei_IoT_Agent_Tiny_SDK_Linux//agent_tiny/lwm2m_client/object_access_control.c ****                     accCtrlRiP != NULL;
 583              		.loc 1 126 0 discriminator 1
 584 00bf 4885ED   		testq	%rbp, %rbp
 585 00c2 75D0     		jne	.L55
 133:/home/baikal/workspace/C50/Huawei_IoT_Agent_Tiny_SDK_Linux//agent_tiny/lwm2m_client/object_access_control.c ****             return COAP_205_CONTENT;
 586              		.loc 1 133 0
 587 00c4 4963F4   		movslq	%r12d, %rsi
 588 00c7 4889DA   		movq	%rbx, %rdx
 589 00ca 4C89EF   		movq	%r13, %rdi
 590 00cd E8000000 		call	lwm2m_data_encode_instances
 590      00
 591              	.LVL73:
 134:/home/baikal/workspace/C50/Huawei_IoT_Agent_Tiny_SDK_Linux//agent_tiny/lwm2m_client/object_access_control.c ****         }
 592              		.loc 1 134 0
 593 00d2 B8450000 		movl	$69, %eax
 593      00
 594 00d7 EB26     		jmp	.L47
 595              	.LVL74:
 596              	.L51:
 597              	.LBE16:
 598              	.LBE15:
 138:/home/baikal/workspace/C50/Huawei_IoT_Agent_Tiny_SDK_Linux//agent_tiny/lwm2m_client/object_access_control.c ****         return COAP_205_CONTENT;
 599              		.loc 1 138 0
 600 00d9 0FB77E0E 		movzwl	14(%rsi), %edi
 601 00dd 4889DE   		movq	%rbx, %rsi
 602              	.LVL75:
 603 00e0 E8000000 		call	lwm2m_data_encode_int
 603      00
 604              	.LVL76:
 139:/home/baikal/workspace/C50/Huawei_IoT_Agent_Tiny_SDK_Linux//agent_tiny/lwm2m_client/object_access_control.c ****     default:
 605              		.loc 1 139 0
 606 00e5 B8450000 		movl	$69, %eax
 606      00
 607 00ea EB13     		jmp	.L47
GAS LISTING /tmp/ccOjtb1y.s 			page 26


 608              	.LVL77:
 609              	.L59:
 141:/home/baikal/workspace/C50/Huawei_IoT_Agent_Tiny_SDK_Linux//agent_tiny/lwm2m_client/object_access_control.c ****     }
 610              		.loc 1 141 0
 611 00ec B884FFFF 		movl	$-124, %eax
 611      FF
 612 00f1 EB0C     		jmp	.L47
 613              	.LVL78:
 614              	.L57:
 615              	.LBB18:
 120:/home/baikal/workspace/C50/Huawei_IoT_Agent_Tiny_SDK_Linux//agent_tiny/lwm2m_client/object_access_control.c ****         }
 616              		.loc 1 120 0
 617 00f3 B884FFFF 		movl	$-124, %eax
 617      FF
 618              	.LVL79:
 619 00f8 EB05     		jmp	.L47
 620              	.LVL80:
 621              	.L58:
 622              	.LBB17:
 125:/home/baikal/workspace/C50/Huawei_IoT_Agent_Tiny_SDK_Linux//agent_tiny/lwm2m_client/object_access_control.c ****             for (accCtrlRiP = accCtrlOiP->accCtrlValList, ri = 0;
 623              		.loc 1 125 0
 624 00fa B8A0FFFF 		movl	$-96, %eax
 624      FF
 625              	.LVL81:
 626              	.L47:
 627              	.LBE17:
 628              	.LBE18:
 143:/home/baikal/workspace/C50/Huawei_IoT_Agent_Tiny_SDK_Linux//agent_tiny/lwm2m_client/object_access_control.c **** 
 629              		.loc 1 143 0
 630 00ff 4883C408 		addq	$8, %rsp
 631              	.LCFI25:
 632              		.cfi_def_cfa_offset 40
 633 0103 5B       		popq	%rbx
 634              	.LCFI26:
 635              		.cfi_def_cfa_offset 32
 636              	.LVL82:
 637 0104 5D       		popq	%rbp
 638              	.LCFI27:
 639              		.cfi_def_cfa_offset 24
 640 0105 415C     		popq	%r12
 641              	.LCFI28:
 642              		.cfi_def_cfa_offset 16
 643 0107 415D     		popq	%r13
 644              	.LCFI29:
 645              		.cfi_def_cfa_offset 8
 646 0109 C3       		ret
 647              		.cfi_endproc
 648              	.LFE71:
 650              		.section	.text.prv_read,"ax",@progbits
 652              	prv_read:
 653              	.LFB72:
 147:/home/baikal/workspace/C50/Huawei_IoT_Agent_Tiny_SDK_Linux//agent_tiny/lwm2m_client/object_access_control.c ****     uint8_t result;
 654              		.loc 1 147 0
 655              		.cfi_startproc
 656              	.LVL83:
 657 0000 4157     		pushq	%r15
 658              	.LCFI30:
GAS LISTING /tmp/ccOjtb1y.s 			page 27


 659              		.cfi_def_cfa_offset 16
 660              		.cfi_offset 15, -16
 661 0002 4156     		pushq	%r14
 662              	.LCFI31:
 663              		.cfi_def_cfa_offset 24
 664              		.cfi_offset 14, -24
 665 0004 4155     		pushq	%r13
 666              	.LCFI32:
 667              		.cfi_def_cfa_offset 32
 668              		.cfi_offset 13, -32
 669 0006 4154     		pushq	%r12
 670              	.LCFI33:
 671              		.cfi_def_cfa_offset 40
 672              		.cfi_offset 12, -40
 673 0008 55       		pushq	%rbp
 674              	.LCFI34:
 675              		.cfi_def_cfa_offset 48
 676              		.cfi_offset 6, -48
 677 0009 53       		pushq	%rbx
 678              	.LCFI35:
 679              		.cfi_def_cfa_offset 56
 680              		.cfi_offset 3, -56
 681 000a 4883EC18 		subq	$24, %rsp
 682              	.LCFI36:
 683              		.cfi_def_cfa_offset 80
 684 000e 4989F6   		movq	%rsi, %r14
 685 0011 4989D5   		movq	%rdx, %r13
 153:/home/baikal/workspace/C50/Huawei_IoT_Agent_Tiny_SDK_Linux//agent_tiny/lwm2m_client/object_access_control.c ****     if (accCtrlOiP == NULL)
 686              		.loc 1 153 0
 687 0014 0FB7F7   		movzwl	%di, %esi
 688              	.LVL84:
 689 0017 498B7810 		movq	16(%r8), %rdi
 690              	.LVL85:
 152:/home/baikal/workspace/C50/Huawei_IoT_Agent_Tiny_SDK_Linux//agent_tiny/lwm2m_client/object_access_control.c ****         (acc_ctrl_oi_t *)lwm2m_list_find(objectP->instanceList, instanceId);
 691              		.loc 1 152 0
 692 001b E8000000 		call	lwm2m_list_find
 692      00
 693              	.LVL86:
 154:/home/baikal/workspace/C50/Huawei_IoT_Agent_Tiny_SDK_Linux//agent_tiny/lwm2m_client/object_access_control.c ****     {
 694              		.loc 1 154 0
 695 0020 4885C0   		testq	%rax, %rax
 696 0023 0F84FF00 		je	.L71
 696      0000
 697 0029 4989C7   		movq	%rax, %r15
 160:/home/baikal/workspace/C50/Huawei_IoT_Agent_Tiny_SDK_Linux//agent_tiny/lwm2m_client/object_access_control.c ****     {
 698              		.loc 1 160 0
 699 002c 41833E00 		cmpl	$0, (%r14)
 700 0030 7569     		jne	.L63
 701              	.LBB19:
 162:/home/baikal/workspace/C50/Huawei_IoT_Agent_Tiny_SDK_Linux//agent_tiny/lwm2m_client/object_access_control.c ****         {
 702              		.loc 1 162 0
 703 0032 66C70424 		movw	$0, (%rsp)
 703      0000
 704 0038 66C74424 		movw	$1, 2(%rsp)
 704      020100
 705 003f 66C74424 		movw	$2, 4(%rsp)
 705      040200
GAS LISTING /tmp/ccOjtb1y.s 			page 28


 706 0046 66C74424 		movw	$3, 6(%rsp)
 706      060300
 707              	.LVL87:
 171:/home/baikal/workspace/C50/Huawei_IoT_Agent_Tiny_SDK_Linux//agent_tiny/lwm2m_client/object_access_control.c ****         if (*dataArrayP == NULL)
 708              		.loc 1 171 0
 709 004d BF040000 		movl	$4, %edi
 709      00
 710 0052 E8000000 		call	lwm2m_data_new
 710      00
 711              	.LVL88:
 712 0057 49894500 		movq	%rax, 0(%r13)
 172:/home/baikal/workspace/C50/Huawei_IoT_Agent_Tiny_SDK_Linux//agent_tiny/lwm2m_client/object_access_control.c ****             return COAP_500_INTERNAL_SERVER_ERROR ;
 713              		.loc 1 172 0
 714 005b 4885C0   		testq	%rax, %rax
 715 005e 750A     		jne	.L64
 173:/home/baikal/workspace/C50/Huawei_IoT_Agent_Tiny_SDK_Linux//agent_tiny/lwm2m_client/object_access_control.c ****         *numDataP = nbRes;
 716              		.loc 1 173 0
 717 0060 B8A0FFFF 		movl	$-96, %eax
 717      FF
 718 0065 E9C30000 		jmp	.L62
 718      00
 719              	.L64:
 174:/home/baikal/workspace/C50/Huawei_IoT_Agent_Tiny_SDK_Linux//agent_tiny/lwm2m_client/object_access_control.c ****         for (ri = 0; ri < nbRes; ri++)
 720              		.loc 1 174 0
 721 006a 41C70604 		movl	$4, (%r14)
 721      000000
 722              	.LVL89:
 175:/home/baikal/workspace/C50/Huawei_IoT_Agent_Tiny_SDK_Linux//agent_tiny/lwm2m_client/object_access_control.c ****         {
 723              		.loc 1 175 0
 724 0071 BA000000 		movl	$0, %edx
 724      00
 725 0076 EB1E     		jmp	.L65
 726              	.LVL90:
 727              	.L66:
 177:/home/baikal/workspace/C50/Huawei_IoT_Agent_Tiny_SDK_Linux//agent_tiny/lwm2m_client/object_access_control.c ****         }
 728              		.loc 1 177 0 discriminator 3
 729 0078 4863CA   		movslq	%edx, %rcx
 730 007b 488D3449 		leaq	(%rcx,%rcx,2), %rsi
 731 007f 488D04F5 		leaq	0(,%rsi,8), %rax
 731      00000000 
 732 0087 49034500 		addq	0(%r13), %rax
 733 008b 0FB70C4C 		movzwl	(%rsp,%rcx,2), %ecx
 734 008f 66894804 		movw	%cx, 4(%rax)
 175:/home/baikal/workspace/C50/Huawei_IoT_Agent_Tiny_SDK_Linux//agent_tiny/lwm2m_client/object_access_control.c ****         {
 735              		.loc 1 175 0 discriminator 3
 736 0093 83C201   		addl	$1, %edx
 737              	.LVL91:
 738              	.L65:
 175:/home/baikal/workspace/C50/Huawei_IoT_Agent_Tiny_SDK_Linux//agent_tiny/lwm2m_client/object_access_control.c ****         {
 739              		.loc 1 175 0 is_stmt 0 discriminator 1
 740 0096 83FA03   		cmpl	$3, %edx
 741 0099 7EDD     		jle	.L66
 742              	.LVL92:
 743              	.L63:
 175:/home/baikal/workspace/C50/Huawei_IoT_Agent_Tiny_SDK_Linux//agent_tiny/lwm2m_client/object_access_control.c ****         {
 744              		.loc 1 175 0
 745 009b BD000000 		movl	$0, %ebp
GAS LISTING /tmp/ccOjtb1y.s 			page 29


 745      00
 746 00a0 41BC0000 		movl	$0, %r12d
 746      0000
 747              	.L70:
 748              	.LVL93:
 749              	.LBE19:
 184:/home/baikal/workspace/C50/Huawei_IoT_Agent_Tiny_SDK_Linux//agent_tiny/lwm2m_client/object_access_control.c ****         if (result == COAP_404_NOT_FOUND)
 750              		.loc 1 184 0 is_stmt 1
 751 00a6 4863C5   		movslq	%ebp, %rax
 752 00a9 488D0440 		leaq	(%rax,%rax,2), %rax
 753 00ad 488D1CC5 		leaq	0(,%rax,8), %rbx
 753      00000000 
 754 00b5 4889DF   		movq	%rbx, %rdi
 755 00b8 49037D00 		addq	0(%r13), %rdi
 756 00bc 4C89FE   		movq	%r15, %rsi
 757 00bf E8000000 		call	prv_set_tlv
 757      00
 758              	.LVL94:
 185:/home/baikal/workspace/C50/Huawei_IoT_Agent_Tiny_SDK_Linux//agent_tiny/lwm2m_client/object_access_control.c ****         {
 759              		.loc 1 185 0
 760 00c4 3C84     		cmpb	$-124, %al
 761 00c6 750C     		jne	.L67
 187:/home/baikal/workspace/C50/Huawei_IoT_Agent_Tiny_SDK_Linux//agent_tiny/lwm2m_client/object_access_control.c ****             if (*numDataP > 1) result = COAP_205_CONTENT;
 762              		.loc 1 187 0
 763 00c8 4183C401 		addl	$1, %r12d
 764              	.LVL95:
 188:/home/baikal/workspace/C50/Huawei_IoT_Agent_Tiny_SDK_Linux//agent_tiny/lwm2m_client/object_access_control.c ****         }
 765              		.loc 1 188 0
 766 00cc 41833E01 		cmpl	$1, (%r14)
 767 00d0 7F3D     		jg	.L72
 768 00d2 EB40     		jmp	.L68
 769              	.L67:
 190:/home/baikal/workspace/C50/Huawei_IoT_Agent_Tiny_SDK_Linux//agent_tiny/lwm2m_client/object_access_control.c ****         {
 770              		.loc 1 190 0
 771 00d4 4585E4   		testl	%r12d, %r12d
 772 00d7 7E3B     		jle	.L68
 192:/home/baikal/workspace/C50/Huawei_IoT_Agent_Tiny_SDK_Linux//agent_tiny/lwm2m_client/object_access_control.c ****         }
 773              		.loc 1 192 0
 774 00d9 498B4D00 		movq	0(%r13), %rcx
 775 00dd 89EA     		movl	%ebp, %edx
 776 00df 4429E2   		subl	%r12d, %edx
 777 00e2 4863D2   		movslq	%edx, %rdx
 778 00e5 488D3452 		leaq	(%rdx,%rdx,2), %rsi
 779 00e9 488D14F5 		leaq	0(,%rsi,8), %rdx
 779      00000000 
 780 00f1 4801CA   		addq	%rcx, %rdx
 781 00f4 4801CB   		addq	%rcx, %rbx
 782 00f7 488B0B   		movq	(%rbx), %rcx
 783 00fa 48890A   		movq	%rcx, (%rdx)
 784 00fd 488B4B08 		movq	8(%rbx), %rcx
 785 0101 48894A08 		movq	%rcx, 8(%rdx)
 786 0105 488B4B10 		movq	16(%rbx), %rcx
 787 0109 48894A10 		movq	%rcx, 16(%rdx)
 788 010d EB05     		jmp	.L68
 789              	.L72:
 188:/home/baikal/workspace/C50/Huawei_IoT_Agent_Tiny_SDK_Linux//agent_tiny/lwm2m_client/object_access_control.c ****         }
 790              		.loc 1 188 0
GAS LISTING /tmp/ccOjtb1y.s 			page 30


 791 010f B8450000 		movl	$69, %eax
 791      00
 792              	.LVL96:
 793              	.L68:
 194:/home/baikal/workspace/C50/Huawei_IoT_Agent_Tiny_SDK_Linux//agent_tiny/lwm2m_client/object_access_control.c ****     }
 794              		.loc 1 194 0
 795 0114 83C501   		addl	$1, %ebp
 796              	.LVL97:
 196:/home/baikal/workspace/C50/Huawei_IoT_Agent_Tiny_SDK_Linux//agent_tiny/lwm2m_client/object_access_control.c ****     *numDataP = ni - ri;
 797              		.loc 1 196 0
 798 0117 413B2E   		cmpl	(%r14), %ebp
 799 011a 7D04     		jge	.L69
 196:/home/baikal/workspace/C50/Huawei_IoT_Agent_Tiny_SDK_Linux//agent_tiny/lwm2m_client/object_access_control.c ****     *numDataP = ni - ri;
 800              		.loc 1 196 0 is_stmt 0 discriminator 1
 801 011c 3C45     		cmpb	$69, %al
 802 011e 7486     		je	.L70
 803              	.L69:
 197:/home/baikal/workspace/C50/Huawei_IoT_Agent_Tiny_SDK_Linux//agent_tiny/lwm2m_client/object_access_control.c **** 
 804              		.loc 1 197 0 is_stmt 1
 805 0120 4429E5   		subl	%r12d, %ebp
 806              	.LVL98:
 807 0123 41892E   		movl	%ebp, (%r14)
 199:/home/baikal/workspace/C50/Huawei_IoT_Agent_Tiny_SDK_Linux//agent_tiny/lwm2m_client/object_access_control.c **** }
 808              		.loc 1 199 0
 809 0126 EB05     		jmp	.L62
 810              	.LVL99:
 811              	.L71:
 156:/home/baikal/workspace/C50/Huawei_IoT_Agent_Tiny_SDK_Linux//agent_tiny/lwm2m_client/object_access_control.c ****     }
 812              		.loc 1 156 0
 813 0128 B884FFFF 		movl	$-124, %eax
 813      FF
 814              	.LVL100:
 815              	.L62:
 200:/home/baikal/workspace/C50/Huawei_IoT_Agent_Tiny_SDK_Linux//agent_tiny/lwm2m_client/object_access_control.c **** 
 816              		.loc 1 200 0
 817 012d 4883C418 		addq	$24, %rsp
 818              	.LCFI37:
 819              		.cfi_def_cfa_offset 56
 820 0131 5B       		popq	%rbx
 821              	.LCFI38:
 822              		.cfi_def_cfa_offset 48
 823 0132 5D       		popq	%rbp
 824              	.LCFI39:
 825              		.cfi_def_cfa_offset 40
 826 0133 415C     		popq	%r12
 827              	.LCFI40:
 828              		.cfi_def_cfa_offset 32
 829 0135 415D     		popq	%r13
 830              	.LCFI41:
 831              		.cfi_def_cfa_offset 24
 832              	.LVL101:
 833 0137 415E     		popq	%r14
 834              	.LCFI42:
 835              		.cfi_def_cfa_offset 16
 836              	.LVL102:
 837 0139 415F     		popq	%r15
 838              	.LCFI43:
GAS LISTING /tmp/ccOjtb1y.s 			page 31


 839              		.cfi_def_cfa_offset 8
 840 013b C3       		ret
 841              		.cfi_endproc
 842              	.LFE72:
 844              		.section	.text.prv_add_ac_val,"ax",@progbits
 846              	prv_add_ac_val:
 847              	.LFB73:
 204:/home/baikal/workspace/C50/Huawei_IoT_Agent_Tiny_SDK_Linux//agent_tiny/lwm2m_client/object_access_control.c ****     bool ret = false;
 848              		.loc 1 204 0
 849              		.cfi_startproc
 850              	.LVL103:
 851 0000 4154     		pushq	%r12
 852              	.LCFI44:
 853              		.cfi_def_cfa_offset 16
 854              		.cfi_offset 12, -16
 855 0002 55       		pushq	%rbp
 856              	.LCFI45:
 857              		.cfi_def_cfa_offset 24
 858              		.cfi_offset 6, -24
 859 0003 53       		pushq	%rbx
 860              	.LCFI46:
 861              		.cfi_def_cfa_offset 32
 862              		.cfi_offset 3, -32
 863 0004 4889FB   		movq	%rdi, %rbx
 864 0007 4189F4   		movl	%esi, %r12d
 865 000a 89D5     		movl	%edx, %ebp
 866              	.LVL104:
 207:/home/baikal/workspace/C50/Huawei_IoT_Agent_Tiny_SDK_Linux//agent_tiny/lwm2m_client/object_access_control.c ****     if (accCtrlRiP == NULL)
 867              		.loc 1 207 0
 868 000c BF100000 		movl	$16, %edi
 868      00
 869              	.LVL105:
 870 0011 E8000000 		call	lwm2m_malloc
 870      00
 871              	.LVL106:
 208:/home/baikal/workspace/C50/Huawei_IoT_Agent_Tiny_SDK_Linux//agent_tiny/lwm2m_client/object_access_control.c ****     {
 872              		.loc 1 208 0
 873 0016 4885C0   		testq	%rax, %rax
 874 0019 742F     		je	.L76
 875              	.LVL107:
 876              	.LBB20:
 877              	.LBB21:
 878              		.file 2 "/usr/include/x86_64-linux-gnu/bits/string3.h"
   1:/usr/include/x86_64-linux-gnu/bits/string3.h **** /* Copyright (C) 2004-2016 Free Software Foundation, Inc.
   2:/usr/include/x86_64-linux-gnu/bits/string3.h ****    This file is part of the GNU C Library.
   3:/usr/include/x86_64-linux-gnu/bits/string3.h **** 
   4:/usr/include/x86_64-linux-gnu/bits/string3.h ****    The GNU C Library is free software; you can redistribute it and/or
   5:/usr/include/x86_64-linux-gnu/bits/string3.h ****    modify it under the terms of the GNU Lesser General Public
   6:/usr/include/x86_64-linux-gnu/bits/string3.h ****    License as published by the Free Software Foundation; either
   7:/usr/include/x86_64-linux-gnu/bits/string3.h ****    version 2.1 of the License, or (at your option) any later version.
   8:/usr/include/x86_64-linux-gnu/bits/string3.h **** 
   9:/usr/include/x86_64-linux-gnu/bits/string3.h ****    The GNU C Library is distributed in the hope that it will be useful,
  10:/usr/include/x86_64-linux-gnu/bits/string3.h ****    but WITHOUT ANY WARRANTY; without even the implied warranty of
  11:/usr/include/x86_64-linux-gnu/bits/string3.h ****    MERCHANTABILITY or FITNESS FOR A PARTICULAR PURPOSE.  See the GNU
  12:/usr/include/x86_64-linux-gnu/bits/string3.h ****    Lesser General Public License for more details.
  13:/usr/include/x86_64-linux-gnu/bits/string3.h **** 
  14:/usr/include/x86_64-linux-gnu/bits/string3.h ****    You should have received a copy of the GNU Lesser General Public
GAS LISTING /tmp/ccOjtb1y.s 			page 32


  15:/usr/include/x86_64-linux-gnu/bits/string3.h ****    License along with the GNU C Library; if not, see
  16:/usr/include/x86_64-linux-gnu/bits/string3.h ****    <http://www.gnu.org/licenses/>.  */
  17:/usr/include/x86_64-linux-gnu/bits/string3.h **** 
  18:/usr/include/x86_64-linux-gnu/bits/string3.h **** #ifndef _STRING_H
  19:/usr/include/x86_64-linux-gnu/bits/string3.h **** # error "Never use <bits/string3.h> directly; include <string.h> instead."
  20:/usr/include/x86_64-linux-gnu/bits/string3.h **** #endif
  21:/usr/include/x86_64-linux-gnu/bits/string3.h **** 
  22:/usr/include/x86_64-linux-gnu/bits/string3.h **** #if !__GNUC_PREREQ (5,0)
  23:/usr/include/x86_64-linux-gnu/bits/string3.h **** __warndecl (__warn_memset_zero_len,
  24:/usr/include/x86_64-linux-gnu/bits/string3.h **** 	    "memset used with constant zero length parameter; this could be due to transposed parameters")
  25:/usr/include/x86_64-linux-gnu/bits/string3.h **** #endif
  26:/usr/include/x86_64-linux-gnu/bits/string3.h **** 
  27:/usr/include/x86_64-linux-gnu/bits/string3.h **** #ifndef __cplusplus
  28:/usr/include/x86_64-linux-gnu/bits/string3.h **** /* XXX This is temporarily.  We should not redefine any of the symbols
  29:/usr/include/x86_64-linux-gnu/bits/string3.h ****    and instead integrate the error checking into the original
  30:/usr/include/x86_64-linux-gnu/bits/string3.h ****    definitions.  */
  31:/usr/include/x86_64-linux-gnu/bits/string3.h **** # undef memcpy
  32:/usr/include/x86_64-linux-gnu/bits/string3.h **** # undef memmove
  33:/usr/include/x86_64-linux-gnu/bits/string3.h **** # undef memset
  34:/usr/include/x86_64-linux-gnu/bits/string3.h **** # undef strcat
  35:/usr/include/x86_64-linux-gnu/bits/string3.h **** # undef strcpy
  36:/usr/include/x86_64-linux-gnu/bits/string3.h **** # undef strncat
  37:/usr/include/x86_64-linux-gnu/bits/string3.h **** # undef strncpy
  38:/usr/include/x86_64-linux-gnu/bits/string3.h **** # ifdef __USE_GNU
  39:/usr/include/x86_64-linux-gnu/bits/string3.h **** #  undef mempcpy
  40:/usr/include/x86_64-linux-gnu/bits/string3.h **** #  undef stpcpy
  41:/usr/include/x86_64-linux-gnu/bits/string3.h **** # endif
  42:/usr/include/x86_64-linux-gnu/bits/string3.h **** # ifdef __USE_MISC
  43:/usr/include/x86_64-linux-gnu/bits/string3.h **** #  undef bcopy
  44:/usr/include/x86_64-linux-gnu/bits/string3.h **** #  undef bzero
  45:/usr/include/x86_64-linux-gnu/bits/string3.h **** # endif
  46:/usr/include/x86_64-linux-gnu/bits/string3.h **** #endif
  47:/usr/include/x86_64-linux-gnu/bits/string3.h **** 
  48:/usr/include/x86_64-linux-gnu/bits/string3.h **** 
  49:/usr/include/x86_64-linux-gnu/bits/string3.h **** __fortify_function void *
  50:/usr/include/x86_64-linux-gnu/bits/string3.h **** __NTH (memcpy (void *__restrict __dest, const void *__restrict __src,
  51:/usr/include/x86_64-linux-gnu/bits/string3.h **** 	       size_t __len))
  52:/usr/include/x86_64-linux-gnu/bits/string3.h **** {
  53:/usr/include/x86_64-linux-gnu/bits/string3.h ****   return __builtin___memcpy_chk (__dest, __src, __len, __bos0 (__dest));
  54:/usr/include/x86_64-linux-gnu/bits/string3.h **** }
  55:/usr/include/x86_64-linux-gnu/bits/string3.h **** 
  56:/usr/include/x86_64-linux-gnu/bits/string3.h **** __fortify_function void *
  57:/usr/include/x86_64-linux-gnu/bits/string3.h **** __NTH (memmove (void *__dest, const void *__src, size_t __len))
  58:/usr/include/x86_64-linux-gnu/bits/string3.h **** {
  59:/usr/include/x86_64-linux-gnu/bits/string3.h ****   return __builtin___memmove_chk (__dest, __src, __len, __bos0 (__dest));
  60:/usr/include/x86_64-linux-gnu/bits/string3.h **** }
  61:/usr/include/x86_64-linux-gnu/bits/string3.h **** 
  62:/usr/include/x86_64-linux-gnu/bits/string3.h **** #ifdef __USE_GNU
  63:/usr/include/x86_64-linux-gnu/bits/string3.h **** __fortify_function void *
  64:/usr/include/x86_64-linux-gnu/bits/string3.h **** __NTH (mempcpy (void *__restrict __dest, const void *__restrict __src,
  65:/usr/include/x86_64-linux-gnu/bits/string3.h **** 		size_t __len))
  66:/usr/include/x86_64-linux-gnu/bits/string3.h **** {
  67:/usr/include/x86_64-linux-gnu/bits/string3.h ****   return __builtin___mempcpy_chk (__dest, __src, __len, __bos0 (__dest));
  68:/usr/include/x86_64-linux-gnu/bits/string3.h **** }
  69:/usr/include/x86_64-linux-gnu/bits/string3.h **** #endif
  70:/usr/include/x86_64-linux-gnu/bits/string3.h **** 
  71:/usr/include/x86_64-linux-gnu/bits/string3.h **** 
GAS LISTING /tmp/ccOjtb1y.s 			page 33


  72:/usr/include/x86_64-linux-gnu/bits/string3.h **** /* The first two tests here help to catch a somewhat common problem
  73:/usr/include/x86_64-linux-gnu/bits/string3.h ****    where the second and third parameter are transposed.  This is
  74:/usr/include/x86_64-linux-gnu/bits/string3.h ****    especially problematic if the intended fill value is zero.  In this
  75:/usr/include/x86_64-linux-gnu/bits/string3.h ****    case no work is done at all.  We detect these problems by referring
  76:/usr/include/x86_64-linux-gnu/bits/string3.h ****    non-existing functions.  */
  77:/usr/include/x86_64-linux-gnu/bits/string3.h **** __fortify_function void *
  78:/usr/include/x86_64-linux-gnu/bits/string3.h **** __NTH (memset (void *__dest, int __ch, size_t __len))
  79:/usr/include/x86_64-linux-gnu/bits/string3.h **** {
  80:/usr/include/x86_64-linux-gnu/bits/string3.h ****   /* GCC-5.0 and newer implements these checks in the compiler, so we don't
  81:/usr/include/x86_64-linux-gnu/bits/string3.h ****      need them here.  */
  82:/usr/include/x86_64-linux-gnu/bits/string3.h **** #if !__GNUC_PREREQ (5,0)
  83:/usr/include/x86_64-linux-gnu/bits/string3.h ****   if (__builtin_constant_p (__len) && __len == 0
  84:/usr/include/x86_64-linux-gnu/bits/string3.h ****       && (!__builtin_constant_p (__ch) || __ch != 0))
  85:/usr/include/x86_64-linux-gnu/bits/string3.h ****     {
  86:/usr/include/x86_64-linux-gnu/bits/string3.h ****       __warn_memset_zero_len ();
  87:/usr/include/x86_64-linux-gnu/bits/string3.h ****       return __dest;
  88:/usr/include/x86_64-linux-gnu/bits/string3.h ****     }
  89:/usr/include/x86_64-linux-gnu/bits/string3.h **** #endif
  90:/usr/include/x86_64-linux-gnu/bits/string3.h ****   return __builtin___memset_chk (__dest, __ch, __len, __bos0 (__dest));
 879              		.loc 2 90 0
 880 001b 48C70000 		movq	$0, (%rax)
 880      000000
 881 0022 48C74008 		movq	$0, 8(%rax)
 881      00000000 
 882              	.LVL108:
 883              	.LBE21:
 884              	.LBE20:
 215:/home/baikal/workspace/C50/Huawei_IoT_Agent_Tiny_SDK_Linux//agent_tiny/lwm2m_client/object_access_control.c ****         accCtrlRiP->accCtrlValue   = acValue;
 885              		.loc 1 215 0
 886 002a 66448960 		movw	%r12w, 8(%rax)
 886      08
 216:/home/baikal/workspace/C50/Huawei_IoT_Agent_Tiny_SDK_Linux//agent_tiny/lwm2m_client/object_access_control.c **** 
 887              		.loc 1 216 0
 888 002f 6689680A 		movw	%bp, 10(%rax)
 219:/home/baikal/workspace/C50/Huawei_IoT_Agent_Tiny_SDK_Linux//agent_tiny/lwm2m_client/object_access_control.c ****         ret = true;
 889              		.loc 1 219 0
 890 0033 488B7B10 		movq	16(%rbx), %rdi
 891 0037 4889C6   		movq	%rax, %rsi
 892 003a E8000000 		call	lwm2m_list_add
 892      00
 893              	.LVL109:
 218:/home/baikal/workspace/C50/Huawei_IoT_Agent_Tiny_SDK_Linux//agent_tiny/lwm2m_client/object_access_control.c ****                                      LWM2M_LIST_ADD(accCtrlOiP->accCtrlValList, accCtrlRiP);
 894              		.loc 1 218 0
 895 003f 48894310 		movq	%rax, 16(%rbx)
 896              	.LVL110:
 222:/home/baikal/workspace/C50/Huawei_IoT_Agent_Tiny_SDK_Linux//agent_tiny/lwm2m_client/object_access_control.c **** }
 897              		.loc 1 222 0
 898 0043 B8010000 		movl	$1, %eax
 898      00
 899 0048 EB05     		jmp	.L75
 900              	.LVL111:
 901              	.L76:
 210:/home/baikal/workspace/C50/Huawei_IoT_Agent_Tiny_SDK_Linux//agent_tiny/lwm2m_client/object_access_control.c ****     }
 902              		.loc 1 210 0
 903 004a B8000000 		movl	$0, %eax
 903      00
 904              	.LVL112:
GAS LISTING /tmp/ccOjtb1y.s 			page 34


 905              	.L75:
 223:/home/baikal/workspace/C50/Huawei_IoT_Agent_Tiny_SDK_Linux//agent_tiny/lwm2m_client/object_access_control.c **** 
 906              		.loc 1 223 0
 907 004f 5B       		popq	%rbx
 908              	.LCFI47:
 909              		.cfi_def_cfa_offset 24
 910              	.LVL113:
 911 0050 5D       		popq	%rbp
 912              	.LCFI48:
 913              		.cfi_def_cfa_offset 16
 914 0051 415C     		popq	%r12
 915              	.LCFI49:
 916              		.cfi_def_cfa_offset 8
 917 0053 C3       		ret
 918              		.cfi_endproc
 919              	.LFE73:
 921              		.section	.text.prv_write_resources,"ax",@progbits
 923              	prv_write_resources:
 924              	.LFB74:
 227:/home/baikal/workspace/C50/Huawei_IoT_Agent_Tiny_SDK_Linux//agent_tiny/lwm2m_client/object_access_control.c ****     int i;
 925              		.loc 1 227 0
 926              		.cfi_startproc
 927              	.LVL114:
 928 0000 4157     		pushq	%r15
 929              	.LCFI50:
 930              		.cfi_def_cfa_offset 16
 931              		.cfi_offset 15, -16
 932 0002 4156     		pushq	%r14
 933              	.LCFI51:
 934              		.cfi_def_cfa_offset 24
 935              		.cfi_offset 14, -24
 936 0004 4155     		pushq	%r13
 937              	.LCFI52:
 938              		.cfi_def_cfa_offset 32
 939              		.cfi_offset 13, -32
 940 0006 4154     		pushq	%r12
 941              	.LCFI53:
 942              		.cfi_def_cfa_offset 40
 943              		.cfi_offset 12, -40
 944 0008 55       		pushq	%rbp
 945              	.LCFI54:
 946              		.cfi_def_cfa_offset 48
 947              		.cfi_offset 6, -48
 948 0009 53       		pushq	%rbx
 949              	.LCFI55:
 950              		.cfi_def_cfa_offset 56
 951              		.cfi_offset 3, -56
 952 000a 4883EC38 		subq	$56, %rsp
 953              	.LCFI56:
 954              		.cfi_def_cfa_offset 112
 955 000e 4189F7   		movl	%esi, %r15d
 956 0011 4989D5   		movq	%rdx, %r13
 957 0014 44884424 		movb	%r8b, 11(%rsp)
 957      0B
 958              	.LVL115:
 235:/home/baikal/workspace/C50/Huawei_IoT_Agent_Tiny_SDK_Linux//agent_tiny/lwm2m_client/object_access_control.c ****     if (NULL == accCtrlOiP)
 959              		.loc 1 235 0
GAS LISTING /tmp/ccOjtb1y.s 			page 35


 960 0019 0FB7F7   		movzwl	%di, %esi
 961              	.LVL116:
 962 001c 488B7910 		movq	16(%rcx), %rdi
 963              	.LVL117:
 234:/home/baikal/workspace/C50/Huawei_IoT_Agent_Tiny_SDK_Linux//agent_tiny/lwm2m_client/object_access_control.c ****                                 lwm2m_list_find(objectP->instanceList, instanceId);
 964              		.loc 1 234 0
 965 0020 E8000000 		call	lwm2m_list_find
 965      00
 966              	.LVL118:
 236:/home/baikal/workspace/C50/Huawei_IoT_Agent_Tiny_SDK_Linux//agent_tiny/lwm2m_client/object_access_control.c ****         return COAP_404_NOT_FOUND ;
 967              		.loc 1 236 0
 968 0025 4885C0   		testq	%rax, %rax
 969 0028 0F844402 		je	.L90
 969      0000
 970 002e 4989C6   		movq	%rax, %r14
 971 0031 41BC0000 		movl	$0, %r12d
 971      0000
 972 0037 BD000000 		movl	$0, %ebp
 972      00
 973              	.LVL119:
 974              	.L89:
 242:/home/baikal/workspace/C50/Huawei_IoT_Agent_Tiny_SDK_Linux//agent_tiny/lwm2m_client/object_access_control.c ****         {
 975              		.loc 1 242 0
 976 003c 4863C5   		movslq	%ebp, %rax
 977 003f 488D0440 		leaq	(%rax,%rax,2), %rax
 978 0043 488D1CC5 		leaq	0(,%rax,8), %rbx
 978      00000000 
 979 004b 4C01EB   		addq	%r13, %rbx
 980 004e 0FB74304 		movzwl	4(%rbx), %eax
 981 0052 6683F801 		cmpw	$1, %ax
 982 0056 7466     		je	.L80
 983 0058 6683F801 		cmpw	$1, %ax
 984 005c 7219     		jb	.L81
 985 005e 6683F802 		cmpw	$2, %ax
 986 0062 0F849800 		je	.L82
 986      0000
 987 0068 6683F803 		cmpw	$3, %ax
 988 006c 0F847101 		je	.L83
 988      0000
 989 0072 E9020200 		jmp	.L106
 989      00
 990              	.L81:
 245:/home/baikal/workspace/C50/Huawei_IoT_Agent_Tiny_SDK_Linux//agent_tiny/lwm2m_client/object_access_control.c ****             {
 991              		.loc 1 245 0
 992 0077 807C240B 		cmpb	$0, 11(%rsp)
 992      00
 993 007c 0F848D01 		je	.L92
 993      0000
 251:/home/baikal/workspace/C50/Huawei_IoT_Agent_Tiny_SDK_Linux//agent_tiny/lwm2m_client/object_access_control.c ****                 {
 994              		.loc 1 251 0
 995 0082 488D7424 		leaq	40(%rsp), %rsi
 995      28
 996 0087 4889DF   		movq	%rbx, %rdi
 997 008a E8000000 		call	lwm2m_data_decode_int
 997      00
 998              	.LVL120:
 999 008f 83F801   		cmpl	$1, %eax
GAS LISTING /tmp/ccOjtb1y.s 			page 36


 1000 0092 0F857F01 		jne	.L93
 1000      0000
 255:/home/baikal/workspace/C50/Huawei_IoT_Agent_Tiny_SDK_Linux//agent_tiny/lwm2m_client/object_access_control.c ****                 {
 1001              		.loc 1 255 0
 1002 0098 488B4424 		movq	40(%rsp), %rax
 1002      28
 1003 009d 488D50FF 		leaq	-1(%rax), %rdx
 1004 00a1 4881FAFD 		cmpq	$65533, %rdx
 1004      FF0000
 1005 00a8 0F877101 		ja	.L94
 1005      0000
 261:/home/baikal/workspace/C50/Huawei_IoT_Agent_Tiny_SDK_Linux//agent_tiny/lwm2m_client/object_access_control.c ****                     result = COAP_204_CHANGED;
 1006              		.loc 1 261 0
 1007 00ae 66418946 		movw	%ax, 10(%r14)
 1007      0A
 1008              	.LVL121:
 262:/home/baikal/workspace/C50/Huawei_IoT_Agent_Tiny_SDK_Linux//agent_tiny/lwm2m_client/object_access_control.c ****                 }
 1009              		.loc 1 262 0
 1010 00b3 41BC4400 		movl	$68, %r12d
 1010      0000
 1011 00b9 E9970100 		jmp	.L84
 1011      00
 1012              	.LVL122:
 1013              	.L80:
 267:/home/baikal/workspace/C50/Huawei_IoT_Agent_Tiny_SDK_Linux//agent_tiny/lwm2m_client/object_access_control.c ****             {
 1014              		.loc 1 267 0
 1015 00be 807C240B 		cmpb	$0, 11(%rsp)
 1015      00
 1016 00c3 0F845E01 		je	.L95
 1016      0000
 273:/home/baikal/workspace/C50/Huawei_IoT_Agent_Tiny_SDK_Linux//agent_tiny/lwm2m_client/object_access_control.c ****                 {
 1017              		.loc 1 273 0
 1018 00c9 488D7424 		leaq	40(%rsp), %rsi
 1018      28
 1019 00ce 4889DF   		movq	%rbx, %rdi
 1020 00d1 E8000000 		call	lwm2m_data_decode_int
 1020      00
 1021              	.LVL123:
 1022 00d6 83F801   		cmpl	$1, %eax
 1023 00d9 0F855001 		jne	.L96
 1023      0000
 277:/home/baikal/workspace/C50/Huawei_IoT_Agent_Tiny_SDK_Linux//agent_tiny/lwm2m_client/object_access_control.c ****                 {
 1024              		.loc 1 277 0
 1025 00df 488B4424 		movq	40(%rsp), %rax
 1025      28
 1026 00e4 483DFFFF 		cmpq	$65535, %rax
 1026      0000
 1027 00ea 0F874701 		ja	.L97
 1027      0000
 283:/home/baikal/workspace/C50/Huawei_IoT_Agent_Tiny_SDK_Linux//agent_tiny/lwm2m_client/object_access_control.c ****                     result = COAP_204_CHANGED;
 1028              		.loc 1 283 0
 1029 00f0 66418946 		movw	%ax, 12(%r14)
 1029      0C
 1030              	.LVL124:
 284:/home/baikal/workspace/C50/Huawei_IoT_Agent_Tiny_SDK_Linux//agent_tiny/lwm2m_client/object_access_control.c ****                 }
 1031              		.loc 1 284 0
 1032 00f5 41BC4400 		movl	$68, %r12d
GAS LISTING /tmp/ccOjtb1y.s 			page 37


 1032      0000
 1033 00fb E9550100 		jmp	.L84
 1033      00
 1034              	.LVL125:
 1035              	.L82:
 290:/home/baikal/workspace/C50/Huawei_IoT_Agent_Tiny_SDK_Linux//agent_tiny/lwm2m_client/object_access_control.c ****             {
 1036              		.loc 1 290 0
 1037 0100 833B03   		cmpl	$3, (%rbx)
 1038 0103 0F853601 		jne	.L98
 1038      0000
 1039              	.LBB22:
 300:/home/baikal/workspace/C50/Huawei_IoT_Agent_Tiny_SDK_Linux//agent_tiny/lwm2m_client/object_access_control.c ****                 accCtrlOiP->accCtrlValList = NULL;
 1040              		.loc 1 300 0
 1041 0109 498B4610 		movq	16(%r14), %rax
 1042 010d 48894424 		movq	%rax, 24(%rsp)
 1042      18
 1043              	.LVL126:
 301:/home/baikal/workspace/C50/Huawei_IoT_Agent_Tiny_SDK_Linux//agent_tiny/lwm2m_client/object_access_control.c **** 
 1044              		.loc 1 301 0
 1045 0112 49C74610 		movq	$0, 16(%r14)
 1045      00000000 
 303:/home/baikal/workspace/C50/Huawei_IoT_Agent_Tiny_SDK_Linux//agent_tiny/lwm2m_client/object_access_control.c **** 
 1046              		.loc 1 303 0
 1047 011a 488B4310 		movq	16(%rbx), %rax
 1048              	.LVL127:
 1049 011e 48894424 		movq	%rax, 16(%rsp)
 1049      10
 1050              	.LVL128:
 305:/home/baikal/workspace/C50/Huawei_IoT_Agent_Tiny_SDK_Linux//agent_tiny/lwm2m_client/object_access_control.c ****                 {
 1051              		.loc 1 305 0
 1052 0123 48837B08 		cmpq	$0, 8(%rbx)
 1052      00
 1053 0128 746D     		je	.L99
 309:/home/baikal/workspace/C50/Huawei_IoT_Agent_Tiny_SDK_Linux//agent_tiny/lwm2m_client/object_access_control.c ****                 {
 1054              		.loc 1 309 0
 1055 012a 4885C0   		testq	%rax, %rax
 1056 012d 7470     		je	.L100
 1057 012f C744240C 		movl	$0, 12(%rsp)
 1057      00000000 
 1058 0137 EB51     		jmp	.L86
 1059              	.LVL129:
 1060              	.L87:
 317:/home/baikal/workspace/C50/Huawei_IoT_Agent_Tiny_SDK_Linux//agent_tiny/lwm2m_client/object_access_control.c ****                         {
 1061              		.loc 1 317 0
 1062 0139 488D0440 		leaq	(%rax,%rax,2), %rax
 1063 013d 4C8D24C5 		leaq	0(,%rax,8), %r12
 1063      00000000 
 1064              	.LVL130:
 1065 0145 4C036424 		addq	16(%rsp), %r12
 1065      10
 1066 014a 488D7424 		leaq	40(%rsp), %rsi
 1066      28
 1067 014f 4C89E7   		movq	%r12, %rdi
 1068 0152 E8000000 		call	lwm2m_data_decode_int
 1068      00
 1069              	.LVL131:
 1070 0157 83F801   		cmpl	$1, %eax
GAS LISTING /tmp/ccOjtb1y.s 			page 38


 1071 015a 754B     		jne	.L101
 322:/home/baikal/workspace/C50/Huawei_IoT_Agent_Tiny_SDK_Linux//agent_tiny/lwm2m_client/object_access_control.c ****                         {
 1072              		.loc 1 322 0
 1073 015c 488B5424 		movq	40(%rsp), %rdx
 1073      28
 1074 0161 4881FAFF 		cmpq	$65535, %rdx
 1074      FF0000
 1075 0168 7745     		ja	.L102
 327:/home/baikal/workspace/C50/Huawei_IoT_Agent_Tiny_SDK_Linux//agent_tiny/lwm2m_client/object_access_control.c ****                                                  (uint16_t)value))
 1076              		.loc 1 327 0
 1077 016a 0FB7D2   		movzwl	%dx, %edx
 1078 016d 410FB774 		movzwl	4(%r12), %esi
 1078      2404
 1079 0173 4C89F7   		movq	%r14, %rdi
 1080 0176 E8000000 		call	prv_add_ac_val
 1080      00
 1081              	.LVL132:
 1082 017b 84C0     		testb	%al, %al
 1083 017d 7438     		je	.L103
 1084              	.LVL133:
 315:/home/baikal/workspace/C50/Huawei_IoT_Agent_Tiny_SDK_Linux//agent_tiny/lwm2m_client/object_access_control.c ****                     {
 1085              		.loc 1 315 0 discriminator 2
 1086 017f 8344240C 		addl	$1, 12(%rsp)
 1086      01
 1087              	.LVL134:
 335:/home/baikal/workspace/C50/Huawei_IoT_Agent_Tiny_SDK_Linux//agent_tiny/lwm2m_client/object_access_control.c ****                         }
 1088              		.loc 1 335 0 discriminator 2
 1089 0184 41BC4400 		movl	$68, %r12d
 1089      0000
 1090              	.LVL135:
 1091              	.L86:
 315:/home/baikal/workspace/C50/Huawei_IoT_Agent_Tiny_SDK_Linux//agent_tiny/lwm2m_client/object_access_control.c ****                     {
 1092              		.loc 1 315 0 discriminator 1
 1093 018a 48634424 		movslq	12(%rsp), %rax
 1093      0C
 1094 018f 483B4308 		cmpq	8(%rbx), %rax
 1095 0193 72A4     		jb	.L87
 1096 0195 EB26     		jmp	.L85
 1097              	.LVL136:
 1098              	.L99:
 307:/home/baikal/workspace/C50/Huawei_IoT_Agent_Tiny_SDK_Linux//agent_tiny/lwm2m_client/object_access_control.c ****                 }
 1099              		.loc 1 307 0
 1100 0197 41BC4400 		movl	$68, %r12d
 1100      0000
 1101              	.LVL137:
 1102 019d EB1E     		jmp	.L85
 1103              	.LVL138:
 1104              	.L100:
 311:/home/baikal/workspace/C50/Huawei_IoT_Agent_Tiny_SDK_Linux//agent_tiny/lwm2m_client/object_access_control.c ****                 }
 1105              		.loc 1 311 0
 1106 019f 41BC80FF 		movl	$-128, %r12d
 1106      FFFF
 1107              	.LVL139:
 1108 01a5 EB16     		jmp	.L85
 1109              	.LVL140:
 1110              	.L101:
 319:/home/baikal/workspace/C50/Huawei_IoT_Agent_Tiny_SDK_Linux//agent_tiny/lwm2m_client/object_access_control.c ****                             break;
GAS LISTING /tmp/ccOjtb1y.s 			page 39


 1111              		.loc 1 319 0
 1112 01a7 41BC80FF 		movl	$-128, %r12d
 1112      FFFF
 1113 01ad EB0E     		jmp	.L85
 1114              	.L102:
 324:/home/baikal/workspace/C50/Huawei_IoT_Agent_Tiny_SDK_Linux//agent_tiny/lwm2m_client/object_access_control.c ****                             break;
 1115              		.loc 1 324 0
 1116 01af 41BC86FF 		movl	$-122, %r12d
 1116      FFFF
 1117 01b5 EB06     		jmp	.L85
 1118              	.L103:
 330:/home/baikal/workspace/C50/Huawei_IoT_Agent_Tiny_SDK_Linux//agent_tiny/lwm2m_client/object_access_control.c ****                             break;
 1119              		.loc 1 330 0
 1120 01b7 41BCA0FF 		movl	$-96, %r12d
 1120      FFFF
 1121              	.LVL141:
 1122              	.L85:
 340:/home/baikal/workspace/C50/Huawei_IoT_Agent_Tiny_SDK_Linux//agent_tiny/lwm2m_client/object_access_control.c ****                 {
 1123              		.loc 1 340 0
 1124 01bd 4180FC44 		cmpb	$68, %r12b
 1125 01c1 7414     		je	.L88
 343:/home/baikal/workspace/C50/Huawei_IoT_Agent_Tiny_SDK_Linux//agent_tiny/lwm2m_client/object_access_control.c ****                     // restore old values:
 1126              		.loc 1 343 0
 1127 01c3 498B7E10 		movq	16(%r14), %rdi
 1128 01c7 E8000000 		call	lwm2m_list_free
 1128      00
 1129              	.LVL142:
 345:/home/baikal/workspace/C50/Huawei_IoT_Agent_Tiny_SDK_Linux//agent_tiny/lwm2m_client/object_access_control.c ****                 }
 1130              		.loc 1 345 0
 1131 01cc 488B4424 		movq	24(%rsp), %rax
 1131      18
 1132 01d1 49894610 		movq	%rax, 16(%r14)
 1133 01d5 EB7E     		jmp	.L84
 1134              	.L88:
 350:/home/baikal/workspace/C50/Huawei_IoT_Agent_Tiny_SDK_Linux//agent_tiny/lwm2m_client/object_access_control.c ****                 }
 1135              		.loc 1 350 0
 1136 01d7 488B7C24 		movq	24(%rsp), %rdi
 1136      18
 1137 01dc E8000000 		call	lwm2m_list_free
 1137      00
 1138              	.LVL143:
 1139 01e1 EB72     		jmp	.L84
 1140              	.LVL144:
 1141              	.L83:
 1142              	.LBE22:
 357:/home/baikal/workspace/C50/Huawei_IoT_Agent_Tiny_SDK_Linux//agent_tiny/lwm2m_client/object_access_control.c ****             {
 1143              		.loc 1 357 0
 1144 01e3 488D7424 		leaq	40(%rsp), %rsi
 1144      28
 1145 01e8 4889DF   		movq	%rbx, %rdi
 1146 01eb E8000000 		call	lwm2m_data_decode_int
 1146      00
 1147              	.LVL145:
 1148 01f0 83F801   		cmpl	$1, %eax
 1149 01f3 7552     		jne	.L104
 359:/home/baikal/workspace/C50/Huawei_IoT_Agent_Tiny_SDK_Linux//agent_tiny/lwm2m_client/object_access_control.c ****                 {
 1150              		.loc 1 359 0
GAS LISTING /tmp/ccOjtb1y.s 			page 40


 1151 01f5 488B4424 		movq	40(%rsp), %rax
 1151      28
 1152 01fa 483DFFFF 		cmpq	$65535, %rax
 1152      0000
 1153 0200 774D     		ja	.L105
 361:/home/baikal/workspace/C50/Huawei_IoT_Agent_Tiny_SDK_Linux//agent_tiny/lwm2m_client/object_access_control.c ****                     result = COAP_204_CHANGED;
 1154              		.loc 1 361 0
 1155 0202 66418946 		movw	%ax, 14(%r14)
 1155      0E
 1156              	.LVL146:
 362:/home/baikal/workspace/C50/Huawei_IoT_Agent_Tiny_SDK_Linux//agent_tiny/lwm2m_client/object_access_control.c ****                 }
 1157              		.loc 1 362 0
 1158 0207 41BC4400 		movl	$68, %r12d
 1158      0000
 1159 020d EB46     		jmp	.L84
 1160              	.LVL147:
 1161              	.L92:
 247:/home/baikal/workspace/C50/Huawei_IoT_Agent_Tiny_SDK_Linux//agent_tiny/lwm2m_client/object_access_control.c ****             }
 1162              		.loc 1 247 0
 1163 020f 41BC85FF 		movl	$-123, %r12d
 1163      FFFF
 1164              	.LVL148:
 1165 0215 EB3E     		jmp	.L84
 1166              	.LVL149:
 1167              	.L93:
 253:/home/baikal/workspace/C50/Huawei_IoT_Agent_Tiny_SDK_Linux//agent_tiny/lwm2m_client/object_access_control.c ****                 }
 1168              		.loc 1 253 0
 1169 0217 41BC80FF 		movl	$-128, %r12d
 1169      FFFF
 1170              	.LVL150:
 1171 021d EB36     		jmp	.L84
 1172              	.LVL151:
 1173              	.L94:
 257:/home/baikal/workspace/C50/Huawei_IoT_Agent_Tiny_SDK_Linux//agent_tiny/lwm2m_client/object_access_control.c ****                 }
 1174              		.loc 1 257 0
 1175 021f 41BC86FF 		movl	$-122, %r12d
 1175      FFFF
 1176              	.LVL152:
 1177 0225 EB2E     		jmp	.L84
 1178              	.LVL153:
 1179              	.L95:
 269:/home/baikal/workspace/C50/Huawei_IoT_Agent_Tiny_SDK_Linux//agent_tiny/lwm2m_client/object_access_control.c ****             }
 1180              		.loc 1 269 0
 1181 0227 41BC85FF 		movl	$-123, %r12d
 1181      FFFF
 1182              	.LVL154:
 1183 022d EB26     		jmp	.L84
 1184              	.LVL155:
 1185              	.L96:
 275:/home/baikal/workspace/C50/Huawei_IoT_Agent_Tiny_SDK_Linux//agent_tiny/lwm2m_client/object_access_control.c ****                 }
 1186              		.loc 1 275 0
 1187 022f 41BC80FF 		movl	$-128, %r12d
 1187      FFFF
 1188              	.LVL156:
 1189 0235 EB1E     		jmp	.L84
 1190              	.LVL157:
 1191              	.L97:
GAS LISTING /tmp/ccOjtb1y.s 			page 41


 279:/home/baikal/workspace/C50/Huawei_IoT_Agent_Tiny_SDK_Linux//agent_tiny/lwm2m_client/object_access_control.c ****                 }
 1192              		.loc 1 279 0
 1193 0237 41BC86FF 		movl	$-122, %r12d
 1193      FFFF
 1194              	.LVL158:
 1195 023d EB16     		jmp	.L84
 1196              	.LVL159:
 1197              	.L98:
 292:/home/baikal/workspace/C50/Huawei_IoT_Agent_Tiny_SDK_Linux//agent_tiny/lwm2m_client/object_access_control.c ****             }
 1198              		.loc 1 292 0
 1199 023f 41BC80FF 		movl	$-128, %r12d
 1199      FFFF
 1200              	.LVL160:
 1201 0245 EB0E     		jmp	.L84
 1202              	.LVL161:
 1203              	.L104:
 371:/home/baikal/workspace/C50/Huawei_IoT_Agent_Tiny_SDK_Linux//agent_tiny/lwm2m_client/object_access_control.c ****             }
 1204              		.loc 1 371 0
 1205 0247 41BC80FF 		movl	$-128, %r12d
 1205      FFFF
 1206              	.LVL162:
 1207 024d EB06     		jmp	.L84
 1208              	.LVL163:
 1209              	.L105:
 366:/home/baikal/workspace/C50/Huawei_IoT_Agent_Tiny_SDK_Linux//agent_tiny/lwm2m_client/object_access_control.c ****                 }
 1210              		.loc 1 366 0
 1211 024f 41BC86FF 		movl	$-122, %r12d
 1211      FFFF
 1212              	.LVL164:
 1213              	.L84:
 378:/home/baikal/workspace/C50/Huawei_IoT_Agent_Tiny_SDK_Linux//agent_tiny/lwm2m_client/object_access_control.c ****     }
 1214              		.loc 1 378 0
 1215 0255 83C501   		addl	$1, %ebp
 1216              	.LVL165:
 380:/home/baikal/workspace/C50/Huawei_IoT_Agent_Tiny_SDK_Linux//agent_tiny/lwm2m_client/object_access_control.c **** 
 1217              		.loc 1 380 0
 1218 0258 4439FD   		cmpl	%r15d, %ebp
 1219 025b 0F9CC2   		setl	%dl
 1220 025e 4180FC44 		cmpb	$68, %r12b
 1221 0262 0F94C0   		sete	%al
 1222 0265 84C2     		testb	%al, %dl
 1223 0267 0F85CFFD 		jne	.L89
 1223      FFFF
 382:/home/baikal/workspace/C50/Huawei_IoT_Agent_Tiny_SDK_Linux//agent_tiny/lwm2m_client/object_access_control.c **** }
 1224              		.loc 1 382 0
 1225 026d 4489E0   		movl	%r12d, %eax
 1226 0270 EB0C     		jmp	.L79
 1227              	.LVL166:
 1228              	.L90:
 237:/home/baikal/workspace/C50/Huawei_IoT_Agent_Tiny_SDK_Linux//agent_tiny/lwm2m_client/object_access_control.c **** 
 1229              		.loc 1 237 0
 1230 0272 B884FFFF 		movl	$-124, %eax
 1230      FF
 1231              	.LVL167:
 1232 0277 EB05     		jmp	.L79
 1233              	.LVL168:
 1234              	.L106:
GAS LISTING /tmp/ccOjtb1y.s 			page 42


 376:/home/baikal/workspace/C50/Huawei_IoT_Agent_Tiny_SDK_Linux//agent_tiny/lwm2m_client/object_access_control.c ****         }
 1235              		.loc 1 376 0
 1236 0279 B884FFFF 		movl	$-124, %eax
 1236      FF
 1237              	.LVL169:
 1238              	.L79:
 383:/home/baikal/workspace/C50/Huawei_IoT_Agent_Tiny_SDK_Linux//agent_tiny/lwm2m_client/object_access_control.c **** 
 1239              		.loc 1 383 0
 1240 027e 4883C438 		addq	$56, %rsp
 1241              	.LCFI57:
 1242              		.cfi_def_cfa_offset 56
 1243 0282 5B       		popq	%rbx
 1244              	.LCFI58:
 1245              		.cfi_def_cfa_offset 48
 1246 0283 5D       		popq	%rbp
 1247              	.LCFI59:
 1248              		.cfi_def_cfa_offset 40
 1249 0284 415C     		popq	%r12
 1250              	.LCFI60:
 1251              		.cfi_def_cfa_offset 32
 1252 0286 415D     		popq	%r13
 1253              	.LCFI61:
 1254              		.cfi_def_cfa_offset 24
 1255              	.LVL170:
 1256 0288 415E     		popq	%r14
 1257              	.LCFI62:
 1258              		.cfi_def_cfa_offset 16
 1259 028a 415F     		popq	%r15
 1260              	.LCFI63:
 1261              		.cfi_def_cfa_offset 8
 1262              	.LVL171:
 1263 028c C3       		ret
 1264              		.cfi_endproc
 1265              	.LFE74:
 1267              		.section	.text.prv_write,"ax",@progbits
 1269              	prv_write:
 1270              	.LFB75:
 387:/home/baikal/workspace/C50/Huawei_IoT_Agent_Tiny_SDK_Linux//agent_tiny/lwm2m_client/object_access_control.c ****     return prv_write_resources(instanceId, numData, tlvArray, objectP, false);
 1271              		.loc 1 387 0
 1272              		.cfi_startproc
 1273              	.LVL172:
 1274 0000 4883EC08 		subq	$8, %rsp
 1275              	.LCFI64:
 1276              		.cfi_def_cfa_offset 16
 388:/home/baikal/workspace/C50/Huawei_IoT_Agent_Tiny_SDK_Linux//agent_tiny/lwm2m_client/object_access_control.c **** }
 1277              		.loc 1 388 0
 1278 0004 0FB7FF   		movzwl	%di, %edi
 1279 0007 41B80000 		movl	$0, %r8d
 1279      0000
 1280 000d E8000000 		call	prv_write_resources
 1280      00
 1281              	.LVL173:
 389:/home/baikal/workspace/C50/Huawei_IoT_Agent_Tiny_SDK_Linux//agent_tiny/lwm2m_client/object_access_control.c **** 
 1282              		.loc 1 389 0
 1283 0012 4883C408 		addq	$8, %rsp
 1284              	.LCFI65:
 1285              		.cfi_def_cfa_offset 8
GAS LISTING /tmp/ccOjtb1y.s 			page 43


 1286 0016 C3       		ret
 1287              		.cfi_endproc
 1288              	.LFE75:
 1290              		.section	.text.prv_create,"ax",@progbits
 1292              	prv_create:
 1293              	.LFB77:
 407:/home/baikal/workspace/C50/Huawei_IoT_Agent_Tiny_SDK_Linux//agent_tiny/lwm2m_client/object_access_control.c ****     acc_ctrl_oi_t *targetP;
 1294              		.loc 1 407 0
 1295              		.cfi_startproc
 1296              	.LVL174:
 1297 0000 4155     		pushq	%r13
 1298              	.LCFI66:
 1299              		.cfi_def_cfa_offset 16
 1300              		.cfi_offset 13, -16
 1301 0002 4154     		pushq	%r12
 1302              	.LCFI67:
 1303              		.cfi_def_cfa_offset 24
 1304              		.cfi_offset 12, -24
 1305 0004 55       		pushq	%rbp
 1306              	.LCFI68:
 1307              		.cfi_def_cfa_offset 32
 1308              		.cfi_offset 6, -32
 1309 0005 53       		pushq	%rbx
 1310              	.LCFI69:
 1311              		.cfi_def_cfa_offset 40
 1312              		.cfi_offset 3, -40
 1313 0006 4883EC08 		subq	$8, %rsp
 1314              	.LCFI70:
 1315              		.cfi_def_cfa_offset 48
 1316 000a 89FB     		movl	%edi, %ebx
 1317 000c 89F5     		movl	%esi, %ebp
 1318 000e 4989D5   		movq	%rdx, %r13
 1319 0011 4989CC   		movq	%rcx, %r12
 411:/home/baikal/workspace/C50/Huawei_IoT_Agent_Tiny_SDK_Linux//agent_tiny/lwm2m_client/object_access_control.c ****     if (NULL == targetP) return COAP_500_INTERNAL_SERVER_ERROR;
 1320              		.loc 1 411 0
 1321 0014 BF180000 		movl	$24, %edi
 1321      00
 1322              	.LVL175:
 1323 0019 E8000000 		call	lwm2m_malloc
 1323      00
 1324              	.LVL176:
 412:/home/baikal/workspace/C50/Huawei_IoT_Agent_Tiny_SDK_Linux//agent_tiny/lwm2m_client/object_access_control.c ****     memset(targetP, 0, sizeof(acc_ctrl_oi_t));
 1325              		.loc 1 412 0
 1326 001e 4885C0   		testq	%rax, %rax
 1327 0021 7459     		je	.L112
 1328              	.LVL177:
 1329              	.LBB23:
 1330              	.LBB24:
 1331              		.loc 2 90 0
 1332 0023 48C70000 		movq	$0, (%rax)
 1332      000000
 1333 002a 48C74008 		movq	$0, 8(%rax)
 1333      00000000 
 1334 0032 48C74010 		movq	$0, 16(%rax)
 1334      00000000 
 1335              	.LVL178:
 1336              	.LBE24:
GAS LISTING /tmp/ccOjtb1y.s 			page 44


 1337              	.LBE23:
 415:/home/baikal/workspace/C50/Huawei_IoT_Agent_Tiny_SDK_Linux//agent_tiny/lwm2m_client/object_access_control.c ****     objectP->instanceList = LWM2M_LIST_ADD(objectP->instanceList, targetP);
 1338              		.loc 1 415 0
 1339 003a 66895808 		movw	%bx, 8(%rax)
 416:/home/baikal/workspace/C50/Huawei_IoT_Agent_Tiny_SDK_Linux//agent_tiny/lwm2m_client/object_access_control.c **** 
 1340              		.loc 1 416 0
 1341 003e 498B7C24 		movq	16(%r12), %rdi
 1341      10
 1342 0043 4889C6   		movq	%rax, %rsi
 1343 0046 E8000000 		call	lwm2m_list_add
 1343      00
 1344              	.LVL179:
 1345 004b 49894424 		movq	%rax, 16(%r12)
 1345      10
 418:/home/baikal/workspace/C50/Huawei_IoT_Agent_Tiny_SDK_Linux//agent_tiny/lwm2m_client/object_access_control.c **** 
 1346              		.loc 1 418 0
 1347 0050 0FB7DB   		movzwl	%bx, %ebx
 1348 0053 41B80100 		movl	$1, %r8d
 1348      0000
 1349 0059 4C89E1   		movq	%r12, %rcx
 1350 005c 4C89EA   		movq	%r13, %rdx
 1351 005f 89EE     		movl	%ebp, %esi
 1352 0061 89DF     		movl	%ebx, %edi
 1353 0063 E8000000 		call	prv_write_resources
 1353      00
 1354              	.LVL180:
 1355 0068 89C5     		movl	%eax, %ebp
 1356              	.LVL181:
 420:/home/baikal/workspace/C50/Huawei_IoT_Agent_Tiny_SDK_Linux//agent_tiny/lwm2m_client/object_access_control.c ****     {
 1357              		.loc 1 420 0
 1358 006a 3C44     		cmpb	$68, %al
 1359 006c 7415     		je	.L113
 422:/home/baikal/workspace/C50/Huawei_IoT_Agent_Tiny_SDK_Linux//agent_tiny/lwm2m_client/object_access_control.c ****     }
 1360              		.loc 1 422 0
 1361 006e 4C89E6   		movq	%r12, %rsi
 1362 0071 89DF     		movl	%ebx, %edi
 1363 0073 E8000000 		call	prv_delete
 1363      00
 1364              	.LVL182:
 418:/home/baikal/workspace/C50/Huawei_IoT_Agent_Tiny_SDK_Linux//agent_tiny/lwm2m_client/object_access_control.c **** 
 1365              		.loc 1 418 0
 1366 0078 89E8     		movl	%ebp, %eax
 1367 007a EB0C     		jmp	.L111
 1368              	.LVL183:
 1369              	.L112:
 412:/home/baikal/workspace/C50/Huawei_IoT_Agent_Tiny_SDK_Linux//agent_tiny/lwm2m_client/object_access_control.c ****     memset(targetP, 0, sizeof(acc_ctrl_oi_t));
 1370              		.loc 1 412 0
 1371 007c B8A0FFFF 		movl	$-96, %eax
 1371      FF
 1372              	.LVL184:
 1373 0081 EB05     		jmp	.L111
 1374              	.LVL185:
 1375              	.L113:
 426:/home/baikal/workspace/C50/Huawei_IoT_Agent_Tiny_SDK_Linux//agent_tiny/lwm2m_client/object_access_control.c ****     }
 1376              		.loc 1 426 0
 1377 0083 B8410000 		movl	$65, %eax
 1377      00
GAS LISTING /tmp/ccOjtb1y.s 			page 45


 1378              	.LVL186:
 1379              	.L111:
 429:/home/baikal/workspace/C50/Huawei_IoT_Agent_Tiny_SDK_Linux//agent_tiny/lwm2m_client/object_access_control.c **** 
 1380              		.loc 1 429 0
 1381 0088 4883C408 		addq	$8, %rsp
 1382              	.LCFI71:
 1383              		.cfi_def_cfa_offset 40
 1384 008c 5B       		popq	%rbx
 1385              	.LCFI72:
 1386              		.cfi_def_cfa_offset 32
 1387 008d 5D       		popq	%rbp
 1388              	.LCFI73:
 1389              		.cfi_def_cfa_offset 24
 1390 008e 415C     		popq	%r12
 1391              	.LCFI74:
 1392              		.cfi_def_cfa_offset 16
 1393              	.LVL187:
 1394 0090 415D     		popq	%r13
 1395              	.LCFI75:
 1396              		.cfi_def_cfa_offset 8
 1397              	.LVL188:
 1398 0092 C3       		ret
 1399              		.cfi_endproc
 1400              	.LFE77:
 1402              		.section	.text.acc_ctrl_create_object,"ax",@progbits
 1403              		.globl	acc_ctrl_create_object
 1405              	acc_ctrl_create_object:
 1406              	.LFB78:
 435:/home/baikal/workspace/C50/Huawei_IoT_Agent_Tiny_SDK_Linux//agent_tiny/lwm2m_client/object_access_control.c ****     /*
 1407              		.loc 1 435 0
 1408              		.cfi_startproc
 1409 0000 4883EC08 		subq	$8, %rsp
 1410              	.LCFI76:
 1411              		.cfi_def_cfa_offset 16
 1412              	.LVL189:
 442:/home/baikal/workspace/C50/Huawei_IoT_Agent_Tiny_SDK_Linux//agent_tiny/lwm2m_client/object_access_control.c **** 
 1413              		.loc 1 442 0
 1414 0004 BF580000 		movl	$88, %edi
 1414      00
 1415 0009 E8000000 		call	lwm2m_malloc
 1415      00
 1416              	.LVL190:
 1417 000e 4889C2   		movq	%rax, %rdx
 1418              	.LVL191:
 444:/home/baikal/workspace/C50/Huawei_IoT_Agent_Tiny_SDK_Linux//agent_tiny/lwm2m_client/object_access_control.c ****     {
 1419              		.loc 1 444 0
 1420 0011 4885C0   		testq	%rax, %rax
 1421 0014 7453     		je	.L116
 1422              	.LVL192:
 1423              	.LBB25:
 1424              	.LBB26:
 1425              		.loc 2 90 0
 1426 0016 48C70000 		movq	$0, (%rax)
 1426      000000
 1427 001d 48C74050 		movq	$0, 80(%rax)
 1427      00000000 
 1428 0025 488D7808 		leaq	8(%rax), %rdi
GAS LISTING /tmp/ccOjtb1y.s 			page 46


 1429 0029 4883E7F8 		andq	$-8, %rdi
 1430 002d 4889C1   		movq	%rax, %rcx
 1431 0030 4829F9   		subq	%rdi, %rcx
 1432 0033 83C158   		addl	$88, %ecx
 1433 0036 C1E903   		shrl	$3, %ecx
 1434 0039 89C9     		movl	%ecx, %ecx
 1435 003b B8000000 		movl	$0, %eax
 1435      00
 1436              	.LVL193:
 1437 0040 F348AB   		rep stosq
 1438              	.LVL194:
 1439              	.LBE26:
 1440              	.LBE25:
 451:/home/baikal/workspace/C50/Huawei_IoT_Agent_Tiny_SDK_Linux//agent_tiny/lwm2m_client/object_access_control.c ****         // Init callbacks, empty instanceList!
 1441              		.loc 1 451 0
 1442 0043 66C74208 		movw	$2, 8(%rdx)
 1442      0200
 453:/home/baikal/workspace/C50/Huawei_IoT_Agent_Tiny_SDK_Linux//agent_tiny/lwm2m_client/object_access_control.c ****         accCtrlObj->writeFunc   = prv_write;
 1443              		.loc 1 453 0
 1444 0049 48C74218 		movq	$prv_read, 24(%rdx)
 1444      00000000 
 454:/home/baikal/workspace/C50/Huawei_IoT_Agent_Tiny_SDK_Linux//agent_tiny/lwm2m_client/object_access_control.c ****         accCtrlObj->createFunc  = prv_create;
 1445              		.loc 1 454 0
 1446 0051 48C74220 		movq	$prv_write, 32(%rdx)
 1446      00000000 
 455:/home/baikal/workspace/C50/Huawei_IoT_Agent_Tiny_SDK_Linux//agent_tiny/lwm2m_client/object_access_control.c ****         accCtrlObj->deleteFunc  = prv_delete;
 1447              		.loc 1 455 0
 1448 0059 48C74238 		movq	$prv_create, 56(%rdx)
 1448      00000000 
 456:/home/baikal/workspace/C50/Huawei_IoT_Agent_Tiny_SDK_Linux//agent_tiny/lwm2m_client/object_access_control.c ****     }
 1449              		.loc 1 456 0
 1450 0061 48C74240 		movq	$prv_delete, 64(%rdx)
 1450      00000000 
 1451              	.L116:
 459:/home/baikal/workspace/C50/Huawei_IoT_Agent_Tiny_SDK_Linux//agent_tiny/lwm2m_client/object_access_control.c **** 
 1452              		.loc 1 459 0
 1453 0069 4889D0   		movq	%rdx, %rax
 1454 006c 4883C408 		addq	$8, %rsp
 1455              	.LCFI77:
 1456              		.cfi_def_cfa_offset 8
 1457 0070 C3       		ret
 1458              		.cfi_endproc
 1459              	.LFE78:
 1461              		.section	.text.acl_ctrl_free_object,"ax",@progbits
 1462              		.globl	acl_ctrl_free_object
 1464              	acl_ctrl_free_object:
 1465              	.LFB79:
 462:/home/baikal/workspace/C50/Huawei_IoT_Agent_Tiny_SDK_Linux//agent_tiny/lwm2m_client/object_access_control.c ****     acc_ctrl_oi_t *accCtrlOiT;
 1466              		.loc 1 462 0
 1467              		.cfi_startproc
 1468              	.LVL195:
 1469 0000 4154     		pushq	%r12
 1470              	.LCFI78:
 1471              		.cfi_def_cfa_offset 16
 1472              		.cfi_offset 12, -16
 1473 0002 55       		pushq	%rbp
 1474              	.LCFI79:
GAS LISTING /tmp/ccOjtb1y.s 			page 47


 1475              		.cfi_def_cfa_offset 24
 1476              		.cfi_offset 6, -24
 1477 0003 53       		pushq	%rbx
 1478              	.LCFI80:
 1479              		.cfi_def_cfa_offset 32
 1480              		.cfi_offset 3, -32
 1481 0004 4989FC   		movq	%rdi, %r12
 464:/home/baikal/workspace/C50/Huawei_IoT_Agent_Tiny_SDK_Linux//agent_tiny/lwm2m_client/object_access_control.c ****     while (accCtrlOiP != NULL)
 1482              		.loc 1 464 0
 1483 0007 488B5F10 		movq	16(%rdi), %rbx
 1484              	.LVL196:
 465:/home/baikal/workspace/C50/Huawei_IoT_Agent_Tiny_SDK_Linux//agent_tiny/lwm2m_client/object_access_control.c ****     {
 1485              		.loc 1 465 0
 1486 000b EB17     		jmp	.L119
 1487              	.LVL197:
 1488              	.L120:
 468:/home/baikal/workspace/C50/Huawei_IoT_Agent_Tiny_SDK_Linux//agent_tiny/lwm2m_client/object_access_control.c ****         accCtrlOiT = accCtrlOiP;
 1489              		.loc 1 468 0
 1490 000d 488B7B10 		movq	16(%rbx), %rdi
 1491 0011 E8000000 		call	lwm2m_list_free
 1491      00
 1492              	.LVL198:
 470:/home/baikal/workspace/C50/Huawei_IoT_Agent_Tiny_SDK_Linux//agent_tiny/lwm2m_client/object_access_control.c ****         lwm2m_free(accCtrlOiT);
 1493              		.loc 1 470 0
 1494 0016 488B2B   		movq	(%rbx), %rbp
 1495              	.LVL199:
 471:/home/baikal/workspace/C50/Huawei_IoT_Agent_Tiny_SDK_Linux//agent_tiny/lwm2m_client/object_access_control.c ****     }
 1496              		.loc 1 471 0
 1497 0019 4889DF   		movq	%rbx, %rdi
 1498 001c E8000000 		call	lwm2m_free
 1498      00
 1499              	.LVL200:
 470:/home/baikal/workspace/C50/Huawei_IoT_Agent_Tiny_SDK_Linux//agent_tiny/lwm2m_client/object_access_control.c ****         lwm2m_free(accCtrlOiT);
 1500              		.loc 1 470 0
 1501 0021 4889EB   		movq	%rbp, %rbx
 1502              	.LVL201:
 1503              	.L119:
 465:/home/baikal/workspace/C50/Huawei_IoT_Agent_Tiny_SDK_Linux//agent_tiny/lwm2m_client/object_access_control.c ****     {
 1504              		.loc 1 465 0
 1505 0024 4885DB   		testq	%rbx, %rbx
 1506 0027 75E4     		jne	.L120
 473:/home/baikal/workspace/C50/Huawei_IoT_Agent_Tiny_SDK_Linux//agent_tiny/lwm2m_client/object_access_control.c **** }
 1507              		.loc 1 473 0
 1508 0029 4C89E7   		movq	%r12, %rdi
 1509 002c E8000000 		call	lwm2m_free
 1509      00
 1510              	.LVL202:
 474:/home/baikal/workspace/C50/Huawei_IoT_Agent_Tiny_SDK_Linux//agent_tiny/lwm2m_client/object_access_control.c **** 
 1511              		.loc 1 474 0
 1512 0031 5B       		popq	%rbx
 1513              	.LCFI81:
 1514              		.cfi_def_cfa_offset 24
 1515              	.LVL203:
 1516 0032 5D       		popq	%rbp
 1517              	.LCFI82:
 1518              		.cfi_def_cfa_offset 16
 1519 0033 415C     		popq	%r12
GAS LISTING /tmp/ccOjtb1y.s 			page 48


 1520              	.LCFI83:
 1521              		.cfi_def_cfa_offset 8
 1522              	.LVL204:
 1523 0035 C3       		ret
 1524              		.cfi_endproc
 1525              	.LFE79:
 1527              		.section	.text.acc_ctrl_obj_add_inst,"ax",@progbits
 1528              		.globl	acc_ctrl_obj_add_inst
 1530              	acc_ctrl_obj_add_inst:
 1531              	.LFB80:
 478:/home/baikal/workspace/C50/Huawei_IoT_Agent_Tiny_SDK_Linux//agent_tiny/lwm2m_client/object_access_control.c ****     bool ret = false;
 1532              		.loc 1 478 0
 1533              		.cfi_startproc
 1534              	.LVL205:
 481:/home/baikal/workspace/C50/Huawei_IoT_Agent_Tiny_SDK_Linux//agent_tiny/lwm2m_client/object_access_control.c ****     {
 1535              		.loc 1 481 0
 1536 0000 4885FF   		testq	%rdi, %rdi
 1537 0003 745D     		je	.L124
 478:/home/baikal/workspace/C50/Huawei_IoT_Agent_Tiny_SDK_Linux//agent_tiny/lwm2m_client/object_access_control.c ****     bool ret = false;
 1538              		.loc 1 478 0
 1539 0005 4156     		pushq	%r14
 1540              	.LCFI84:
 1541              		.cfi_def_cfa_offset 16
 1542              		.cfi_offset 14, -16
 1543 0007 4155     		pushq	%r13
 1544              	.LCFI85:
 1545              		.cfi_def_cfa_offset 24
 1546              		.cfi_offset 13, -24
 1547 0009 4154     		pushq	%r12
 1548              	.LCFI86:
 1549              		.cfi_def_cfa_offset 32
 1550              		.cfi_offset 12, -32
 1551 000b 55       		pushq	%rbp
 1552              	.LCFI87:
 1553              		.cfi_def_cfa_offset 40
 1554              		.cfi_offset 6, -40
 1555 000c 53       		pushq	%rbx
 1556              	.LCFI88:
 1557              		.cfi_def_cfa_offset 48
 1558              		.cfi_offset 3, -48
 1559 000d 4489C3   		movl	%r8d, %ebx
 1560 0010 89CD     		movl	%ecx, %ebp
 1561 0012 4189D4   		movl	%edx, %r12d
 1562 0015 4189F5   		movl	%esi, %r13d
 1563 0018 4989FE   		movq	%rdi, %r14
 1564              	.LBB27:
 489:/home/baikal/workspace/C50/Huawei_IoT_Agent_Tiny_SDK_Linux//agent_tiny/lwm2m_client/object_access_control.c ****         if (NULL == accCtrlOiP)
 1565              		.loc 1 489 0
 1566 001b BF180000 		movl	$24, %edi
 1566      00
 1567              	.LVL206:
 1568 0020 E8000000 		call	lwm2m_malloc
 1568      00
 1569              	.LVL207:
 490:/home/baikal/workspace/C50/Huawei_IoT_Agent_Tiny_SDK_Linux//agent_tiny/lwm2m_client/object_access_control.c ****         {
 1570              		.loc 1 490 0
 1571 0025 4885C0   		testq	%rax, %rax
GAS LISTING /tmp/ccOjtb1y.s 			page 49


 1572 0028 743E     		je	.L125
 1573              	.LVL208:
 1574              	.LBB28:
 1575              	.LBB29:
 1576              		.loc 2 90 0
 1577 002a 48C70000 		movq	$0, (%rax)
 1577      000000
 1578 0031 48C74010 		movq	$0, 16(%rax)
 1578      00000000 
 1579              	.LVL209:
 1580              	.LBE29:
 1581              	.LBE28:
 498:/home/baikal/workspace/C50/Huawei_IoT_Agent_Tiny_SDK_Linux//agent_tiny/lwm2m_client/object_access_control.c ****             // object instance data:
 1582              		.loc 1 498 0
 1583 0039 66448968 		movw	%r13w, 8(%rax)
 1583      08
 500:/home/baikal/workspace/C50/Huawei_IoT_Agent_Tiny_SDK_Linux//agent_tiny/lwm2m_client/object_access_control.c ****             accCtrlOiP->objectInstId = acObjInstId;
 1584              		.loc 1 500 0
 1585 003e 66448960 		movw	%r12w, 10(%rax)
 1585      0A
 501:/home/baikal/workspace/C50/Huawei_IoT_Agent_Tiny_SDK_Linux//agent_tiny/lwm2m_client/object_access_control.c ****             accCtrlOiP->accCtrlOwner = acOwner;
 1586              		.loc 1 501 0
 1587 0043 6689680C 		movw	%bp, 12(%rax)
 502:/home/baikal/workspace/C50/Huawei_IoT_Agent_Tiny_SDK_Linux//agent_tiny/lwm2m_client/object_access_control.c **** 
 1588              		.loc 1 502 0
 1589 0047 6689580E 		movw	%bx, 14(%rax)
 505:/home/baikal/workspace/C50/Huawei_IoT_Agent_Tiny_SDK_Linux//agent_tiny/lwm2m_client/object_access_control.c ****             ret = true;
 1590              		.loc 1 505 0
 1591 004b 498B7E10 		movq	16(%r14), %rdi
 1592 004f 4889C6   		movq	%rax, %rsi
 1593 0052 E8000000 		call	lwm2m_list_add
 1593      00
 1594              	.LVL210:
 504:/home/baikal/workspace/C50/Huawei_IoT_Agent_Tiny_SDK_Linux//agent_tiny/lwm2m_client/object_access_control.c ****                 LWM2M_LIST_ADD(accCtrlObjP->instanceList, accCtrlOiP);
 1595              		.loc 1 504 0
 1596 0057 49894610 		movq	%rax, 16(%r14)
 1597              	.LVL211:
 1598              	.LBE27:
 509:/home/baikal/workspace/C50/Huawei_IoT_Agent_Tiny_SDK_Linux//agent_tiny/lwm2m_client/object_access_control.c **** }
 1599              		.loc 1 509 0
 1600 005b B8010000 		movl	$1, %eax
 1600      00
 1601 0060 EB0B     		jmp	.L123
 1602              	.LVL212:
 1603              	.L124:
 1604              	.LCFI89:
 1605              		.cfi_def_cfa_offset 8
 1606              		.cfi_restore 3
 1607              		.cfi_restore 6
 1608              		.cfi_restore 12
 1609              		.cfi_restore 13
 1610              		.cfi_restore 14
 483:/home/baikal/workspace/C50/Huawei_IoT_Agent_Tiny_SDK_Linux//agent_tiny/lwm2m_client/object_access_control.c ****     }
 1611              		.loc 1 483 0
 1612 0062 B8000000 		movl	$0, %eax
 1612      00
 510:/home/baikal/workspace/C50/Huawei_IoT_Agent_Tiny_SDK_Linux//agent_tiny/lwm2m_client/object_access_control.c **** 
GAS LISTING /tmp/ccOjtb1y.s 			page 50


 1613              		.loc 1 510 0
 1614 0067 C3       		ret
 1615              	.LVL213:
 1616              	.L125:
 1617              	.LCFI90:
 1618              		.cfi_def_cfa_offset 48
 1619              		.cfi_offset 3, -48
 1620              		.cfi_offset 6, -40
 1621              		.cfi_offset 12, -32
 1622              		.cfi_offset 13, -24
 1623              		.cfi_offset 14, -16
 1624              	.LBB30:
 492:/home/baikal/workspace/C50/Huawei_IoT_Agent_Tiny_SDK_Linux//agent_tiny/lwm2m_client/object_access_control.c ****         }
 1625              		.loc 1 492 0
 1626 0068 B8000000 		movl	$0, %eax
 1626      00
 1627              	.LVL214:
 1628              	.L123:
 1629              	.LBE30:
 510:/home/baikal/workspace/C50/Huawei_IoT_Agent_Tiny_SDK_Linux//agent_tiny/lwm2m_client/object_access_control.c **** 
 1630              		.loc 1 510 0
 1631 006d 5B       		popq	%rbx
 1632              	.LCFI91:
 1633              		.cfi_restore 3
 1634              		.cfi_def_cfa_offset 40
 1635 006e 5D       		popq	%rbp
 1636              	.LCFI92:
 1637              		.cfi_restore 6
 1638              		.cfi_def_cfa_offset 32
 1639 006f 415C     		popq	%r12
 1640              	.LCFI93:
 1641              		.cfi_restore 12
 1642              		.cfi_def_cfa_offset 24
 1643 0071 415D     		popq	%r13
 1644              	.LCFI94:
 1645              		.cfi_restore 13
 1646              		.cfi_def_cfa_offset 16
 1647 0073 415E     		popq	%r14
 1648              	.LCFI95:
 1649              		.cfi_restore 14
 1650              		.cfi_def_cfa_offset 8
 1651              	.LVL215:
 1652 0075 C3       		ret
 1653              		.cfi_endproc
 1654              	.LFE80:
 1656              		.section	.text.acc_ctrl_oi_add_ac_val,"ax",@progbits
 1657              		.globl	acc_ctrl_oi_add_ac_val
 1659              	acc_ctrl_oi_add_ac_val:
 1660              	.LFB81:
 514:/home/baikal/workspace/C50/Huawei_IoT_Agent_Tiny_SDK_Linux//agent_tiny/lwm2m_client/object_access_control.c ****     bool ret = false;
 1661              		.loc 1 514 0
 1662              		.cfi_startproc
 1663              	.LVL216:
 1664 0000 55       		pushq	%rbp
 1665              	.LCFI96:
 1666              		.cfi_def_cfa_offset 16
 1667              		.cfi_offset 6, -16
GAS LISTING /tmp/ccOjtb1y.s 			page 51


 1668 0001 53       		pushq	%rbx
 1669              	.LCFI97:
 1670              		.cfi_def_cfa_offset 24
 1671              		.cfi_offset 3, -24
 1672 0002 4883EC08 		subq	$8, %rsp
 1673              	.LCFI98:
 1674              		.cfi_def_cfa_offset 32
 1675 0006 89D3     		movl	%edx, %ebx
 1676 0008 89CD     		movl	%ecx, %ebp
 1677              	.LVL217:
 518:/home/baikal/workspace/C50/Huawei_IoT_Agent_Tiny_SDK_Linux//agent_tiny/lwm2m_client/object_access_control.c ****     if (NULL == accCtrlOiP)
 1678              		.loc 1 518 0
 1679 000a 0FB7F6   		movzwl	%si, %esi
 1680 000d 488B7F10 		movq	16(%rdi), %rdi
 1681              	.LVL218:
 517:/home/baikal/workspace/C50/Huawei_IoT_Agent_Tiny_SDK_Linux//agent_tiny/lwm2m_client/object_access_control.c ****                                 lwm2m_list_find(accCtrlObjP->instanceList, instId);
 1682              		.loc 1 517 0
 1683 0011 E8000000 		call	lwm2m_list_find
 1683      00
 1684              	.LVL219:
 519:/home/baikal/workspace/C50/Huawei_IoT_Agent_Tiny_SDK_Linux//agent_tiny/lwm2m_client/object_access_control.c ****         return ret;
 1685              		.loc 1 519 0
 1686 0016 4885C0   		testq	%rax, %rax
 1687 0019 7410     		je	.L129
 522:/home/baikal/workspace/C50/Huawei_IoT_Agent_Tiny_SDK_Linux//agent_tiny/lwm2m_client/object_access_control.c **** }
 1688              		.loc 1 522 0
 1689 001b 0FB7D5   		movzwl	%bp, %edx
 1690 001e 0FB7F3   		movzwl	%bx, %esi
 1691 0021 4889C7   		movq	%rax, %rdi
 1692 0024 E8000000 		call	prv_add_ac_val
 1692      00
 1693              	.LVL220:
 1694 0029 EB05     		jmp	.L128
 1695              	.LVL221:
 1696              	.L129:
 520:/home/baikal/workspace/C50/Huawei_IoT_Agent_Tiny_SDK_Linux//agent_tiny/lwm2m_client/object_access_control.c **** 
 1697              		.loc 1 520 0
 1698 002b B8000000 		movl	$0, %eax
 1698      00
 1699              	.LVL222:
 1700              	.L128:
 523:/home/baikal/workspace/C50/Huawei_IoT_Agent_Tiny_SDK_Linux//agent_tiny/lwm2m_client/object_access_control.c **** 
 1701              		.loc 1 523 0
 1702 0030 4883C408 		addq	$8, %rsp
 1703              	.LCFI99:
 1704              		.cfi_def_cfa_offset 24
 1705 0034 5B       		popq	%rbx
 1706              	.LCFI100:
 1707              		.cfi_def_cfa_offset 16
 1708 0035 5D       		popq	%rbp
 1709              	.LCFI101:
 1710              		.cfi_def_cfa_offset 8
 1711 0036 C3       		ret
 1712              		.cfi_endproc
 1713              	.LFE81:
 1715              		.section	.text.acc_auth_operate,"ax",@progbits
 1716              		.globl	acc_auth_operate
GAS LISTING /tmp/ccOjtb1y.s 			page 52


 1718              	acc_auth_operate:
 1719              	.LFB90:
 704:/home/baikal/workspace/C50/Huawei_IoT_Agent_Tiny_SDK_Linux//agent_tiny/lwm2m_client/object_access_control.c **** 
 705:/home/baikal/workspace/C50/Huawei_IoT_Agent_Tiny_SDK_Linux//agent_tiny/lwm2m_client/object_access_control.c **** uint8_t acc_auth_operate(lwm2m_context_t *contextP, lwm2m_uri_t *uri,
 706:/home/baikal/workspace/C50/Huawei_IoT_Agent_Tiny_SDK_Linux//agent_tiny/lwm2m_client/object_access_control.c ****                          OBJ_ACC_OPERATE op, uint16_t serverId)
 707:/home/baikal/workspace/C50/Huawei_IoT_Agent_Tiny_SDK_Linux//agent_tiny/lwm2m_client/object_access_control.c **** {
 1720              		.loc 1 707 0
 1721              		.cfi_startproc
 1722              	.LVL223:
 1723 0000 4155     		pushq	%r13
 1724              	.LCFI102:
 1725              		.cfi_def_cfa_offset 16
 1726              		.cfi_offset 13, -16
 1727 0002 4154     		pushq	%r12
 1728              	.LCFI103:
 1729              		.cfi_def_cfa_offset 24
 1730              		.cfi_offset 12, -24
 1731 0004 55       		pushq	%rbp
 1732              	.LCFI104:
 1733              		.cfi_def_cfa_offset 32
 1734              		.cfi_offset 6, -32
 1735 0005 53       		pushq	%rbx
 1736              	.LCFI105:
 1737              		.cfi_def_cfa_offset 40
 1738              		.cfi_offset 3, -40
 1739 0006 4883EC08 		subq	$8, %rsp
 1740              	.LCFI106:
 1741              		.cfi_def_cfa_offset 48
 1742 000a 4889FB   		movq	%rdi, %rbx
 1743 000d 4989F4   		movq	%rsi, %r12
 1744 0010 4189D5   		movl	%edx, %r13d
 1745 0013 89CD     		movl	%ecx, %ebp
 708:/home/baikal/workspace/C50/Huawei_IoT_Agent_Tiny_SDK_Linux//agent_tiny/lwm2m_client/object_access_control.c ****     uint8_t ret;
 709:/home/baikal/workspace/C50/Huawei_IoT_Agent_Tiny_SDK_Linux//agent_tiny/lwm2m_client/object_access_control.c ****     lwm2m_object_t *accCtrlObjP;
 710:/home/baikal/workspace/C50/Huawei_IoT_Agent_Tiny_SDK_Linux//agent_tiny/lwm2m_client/object_access_control.c ****     acc_ctrl_oi_t *accCtrlOiP;
 711:/home/baikal/workspace/C50/Huawei_IoT_Agent_Tiny_SDK_Linux//agent_tiny/lwm2m_client/object_access_control.c **** 
 712:/home/baikal/workspace/C50/Huawei_IoT_Agent_Tiny_SDK_Linux//agent_tiny/lwm2m_client/object_access_control.c ****     if (prv_get_srv_cnt(contextP->serverList) <= 1)
 1746              		.loc 1 712 0
 1747 0015 488B7F30 		movq	48(%rdi), %rdi
 1748              	.LVL224:
 1749 0019 E8000000 		call	prv_get_srv_cnt
 1749      00
 1750              	.LVL225:
 1751 001e 83F801   		cmpl	$1, %eax
 1752 0021 7E40     		jle	.L133
 713:/home/baikal/workspace/C50/Huawei_IoT_Agent_Tiny_SDK_Linux//agent_tiny/lwm2m_client/object_access_control.c ****     {
 714:/home/baikal/workspace/C50/Huawei_IoT_Agent_Tiny_SDK_Linux//agent_tiny/lwm2m_client/object_access_control.c ****         return COAP_NO_ERROR;
 715:/home/baikal/workspace/C50/Huawei_IoT_Agent_Tiny_SDK_Linux//agent_tiny/lwm2m_client/object_access_control.c ****     }
 716:/home/baikal/workspace/C50/Huawei_IoT_Agent_Tiny_SDK_Linux//agent_tiny/lwm2m_client/object_access_control.c **** 
 717:/home/baikal/workspace/C50/Huawei_IoT_Agent_Tiny_SDK_Linux//agent_tiny/lwm2m_client/object_access_control.c ****     if (0 == serverId)
 1753              		.loc 1 717 0
 1754 0023 6685ED   		testw	%bp, %bp
 1755 0026 7442     		je	.L134
 718:/home/baikal/workspace/C50/Huawei_IoT_Agent_Tiny_SDK_Linux//agent_tiny/lwm2m_client/object_access_control.c ****     {
 719:/home/baikal/workspace/C50/Huawei_IoT_Agent_Tiny_SDK_Linux//agent_tiny/lwm2m_client/object_access_control.c ****         return COAP_NO_ERROR;
 720:/home/baikal/workspace/C50/Huawei_IoT_Agent_Tiny_SDK_Linux//agent_tiny/lwm2m_client/object_access_control.c ****     }
 721:/home/baikal/workspace/C50/Huawei_IoT_Agent_Tiny_SDK_Linux//agent_tiny/lwm2m_client/object_access_control.c **** 
GAS LISTING /tmp/ccOjtb1y.s 			page 53


 722:/home/baikal/workspace/C50/Huawei_IoT_Agent_Tiny_SDK_Linux//agent_tiny/lwm2m_client/object_access_control.c ****     accCtrlObjP = (lwm2m_object_t *)LWM2M_LIST_FIND(contextP->objectList, LWM2M_ACL_OBJECT_ID);
 1756              		.loc 1 722 0
 1757 0028 488B7B38 		movq	56(%rbx), %rdi
 1758 002c BE020000 		movl	$2, %esi
 1758      00
 1759 0031 E8000000 		call	lwm2m_list_find
 1759      00
 1760              	.LVL226:
 723:/home/baikal/workspace/C50/Huawei_IoT_Agent_Tiny_SDK_Linux//agent_tiny/lwm2m_client/object_access_control.c **** 
 724:/home/baikal/workspace/C50/Huawei_IoT_Agent_Tiny_SDK_Linux//agent_tiny/lwm2m_client/object_access_control.c ****     if (NULL == accCtrlObjP)
 1761              		.loc 1 724 0
 1762 0036 4885C0   		testq	%rax, %rax
 1763 0039 7436     		je	.L135
 725:/home/baikal/workspace/C50/Huawei_IoT_Agent_Tiny_SDK_Linux//agent_tiny/lwm2m_client/object_access_control.c ****     {
 726:/home/baikal/workspace/C50/Huawei_IoT_Agent_Tiny_SDK_Linux//agent_tiny/lwm2m_client/object_access_control.c ****         return COAP_401_UNAUTHORIZED;
 727:/home/baikal/workspace/C50/Huawei_IoT_Agent_Tiny_SDK_Linux//agent_tiny/lwm2m_client/object_access_control.c ****     }
 728:/home/baikal/workspace/C50/Huawei_IoT_Agent_Tiny_SDK_Linux//agent_tiny/lwm2m_client/object_access_control.c **** 
 729:/home/baikal/workspace/C50/Huawei_IoT_Agent_Tiny_SDK_Linux//agent_tiny/lwm2m_client/object_access_control.c ****     accCtrlOiP = (acc_ctrl_oi_t *)(accCtrlObjP->instanceList);
 1764              		.loc 1 729 0
 1765 003b 488B7810 		movq	16(%rax), %rdi
 1766              	.LVL227:
 730:/home/baikal/workspace/C50/Huawei_IoT_Agent_Tiny_SDK_Linux//agent_tiny/lwm2m_client/object_access_control.c **** 
 731:/home/baikal/workspace/C50/Huawei_IoT_Agent_Tiny_SDK_Linux//agent_tiny/lwm2m_client/object_access_control.c ****     if (NULL == accCtrlOiP)
 1767              		.loc 1 731 0
 1768 003f 4885FF   		testq	%rdi, %rdi
 1769 0042 7434     		je	.L136
 732:/home/baikal/workspace/C50/Huawei_IoT_Agent_Tiny_SDK_Linux//agent_tiny/lwm2m_client/object_access_control.c ****     {
 733:/home/baikal/workspace/C50/Huawei_IoT_Agent_Tiny_SDK_Linux//agent_tiny/lwm2m_client/object_access_control.c ****         return COAP_401_UNAUTHORIZED;
 734:/home/baikal/workspace/C50/Huawei_IoT_Agent_Tiny_SDK_Linux//agent_tiny/lwm2m_client/object_access_control.c ****     }
 735:/home/baikal/workspace/C50/Huawei_IoT_Agent_Tiny_SDK_Linux//agent_tiny/lwm2m_client/object_access_control.c **** 
 736:/home/baikal/workspace/C50/Huawei_IoT_Agent_Tiny_SDK_Linux//agent_tiny/lwm2m_client/object_access_control.c ****     if ((ret = prv_pre_auth_check(accCtrlOiP, uri, op, serverId)) != COAP_NO_ERROR)
 1770              		.loc 1 736 0
 1771 0044 0FB7CD   		movzwl	%bp, %ecx
 1772 0047 4489EA   		movl	%r13d, %edx
 1773 004a 4C89E6   		movq	%r12, %rsi
 1774 004d E8000000 		call	prv_pre_auth_check
 1774      00
 1775              	.LVL228:
 1776 0052 84C0     		testb	%al, %al
 1777 0054 7527     		jne	.L132
 737:/home/baikal/workspace/C50/Huawei_IoT_Agent_Tiny_SDK_Linux//agent_tiny/lwm2m_client/object_access_control.c ****     {
 738:/home/baikal/workspace/C50/Huawei_IoT_Agent_Tiny_SDK_Linux//agent_tiny/lwm2m_client/object_access_control.c ****         return ret;
 739:/home/baikal/workspace/C50/Huawei_IoT_Agent_Tiny_SDK_Linux//agent_tiny/lwm2m_client/object_access_control.c ****     }
 740:/home/baikal/workspace/C50/Huawei_IoT_Agent_Tiny_SDK_Linux//agent_tiny/lwm2m_client/object_access_control.c **** 
 741:/home/baikal/workspace/C50/Huawei_IoT_Agent_Tiny_SDK_Linux//agent_tiny/lwm2m_client/object_access_control.c ****     if ((ret = prv_post_action_check(uri, op)) != COAP_NO_ERROR)
 1778              		.loc 1 741 0
 1779 0056 4489EE   		movl	%r13d, %esi
 1780 0059 4C89E7   		movq	%r12, %rdi
 1781 005c E8000000 		call	prv_post_action_check
 1781      00
 1782              	.LVL229:
 1783 0061 EB1A     		jmp	.L132
 1784              	.LVL230:
 1785              	.L133:
 714:/home/baikal/workspace/C50/Huawei_IoT_Agent_Tiny_SDK_Linux//agent_tiny/lwm2m_client/object_access_control.c ****     }
 1786              		.loc 1 714 0
 1787 0063 B8000000 		movl	$0, %eax
GAS LISTING /tmp/ccOjtb1y.s 			page 54


 1787      00
 1788 0068 EB13     		jmp	.L132
 1789              	.L134:
 719:/home/baikal/workspace/C50/Huawei_IoT_Agent_Tiny_SDK_Linux//agent_tiny/lwm2m_client/object_access_control.c ****     }
 1790              		.loc 1 719 0
 1791 006a B8000000 		movl	$0, %eax
 1791      00
 1792 006f EB0C     		jmp	.L132
 1793              	.LVL231:
 1794              	.L135:
 726:/home/baikal/workspace/C50/Huawei_IoT_Agent_Tiny_SDK_Linux//agent_tiny/lwm2m_client/object_access_control.c ****     }
 1795              		.loc 1 726 0
 1796 0071 B881FFFF 		movl	$-127, %eax
 1796      FF
 1797              	.LVL232:
 1798 0076 EB05     		jmp	.L132
 1799              	.LVL233:
 1800              	.L136:
 733:/home/baikal/workspace/C50/Huawei_IoT_Agent_Tiny_SDK_Linux//agent_tiny/lwm2m_client/object_access_control.c ****     }
 1801              		.loc 1 733 0
 1802 0078 B881FFFF 		movl	$-127, %eax
 1802      FF
 1803              	.LVL234:
 1804              	.L132:
 742:/home/baikal/workspace/C50/Huawei_IoT_Agent_Tiny_SDK_Linux//agent_tiny/lwm2m_client/object_access_control.c ****     {
 743:/home/baikal/workspace/C50/Huawei_IoT_Agent_Tiny_SDK_Linux//agent_tiny/lwm2m_client/object_access_control.c ****         return ret;
 744:/home/baikal/workspace/C50/Huawei_IoT_Agent_Tiny_SDK_Linux//agent_tiny/lwm2m_client/object_access_control.c ****     }
 745:/home/baikal/workspace/C50/Huawei_IoT_Agent_Tiny_SDK_Linux//agent_tiny/lwm2m_client/object_access_control.c **** 
 746:/home/baikal/workspace/C50/Huawei_IoT_Agent_Tiny_SDK_Linux//agent_tiny/lwm2m_client/object_access_control.c ****     return COAP_NO_ERROR;
 747:/home/baikal/workspace/C50/Huawei_IoT_Agent_Tiny_SDK_Linux//agent_tiny/lwm2m_client/object_access_control.c **** }
 1805              		.loc 1 747 0
 1806 007d 4883C408 		addq	$8, %rsp
 1807              	.LCFI107:
 1808              		.cfi_def_cfa_offset 40
 1809 0081 5B       		popq	%rbx
 1810              	.LCFI108:
 1811              		.cfi_def_cfa_offset 32
 1812              	.LVL235:
 1813 0082 5D       		popq	%rbp
 1814              	.LCFI109:
 1815              		.cfi_def_cfa_offset 24
 1816 0083 415C     		popq	%r12
 1817              	.LCFI110:
 1818              		.cfi_def_cfa_offset 16
 1819              	.LVL236:
 1820 0085 415D     		popq	%r13
 1821              	.LCFI111:
 1822              		.cfi_def_cfa_offset 8
 1823              	.LVL237:
 1824 0087 C3       		ret
 1825              		.cfi_endproc
 1826              	.LFE90:
 1828              		.text
 1829              	.Letext0:
 1830              		.file 3 "/usr/include/stdint.h"
 1831              		.file 4 "/usr/lib/gcc/x86_64-linux-gnu/5/include/stddef.h"
 1832              		.file 5 "/usr/include/x86_64-linux-gnu/bits/types.h"
GAS LISTING /tmp/ccOjtb1y.s 			page 55


 1833              		.file 6 "/usr/include/time.h"
 1834              		.file 7 "/home/baikal/workspace/C50/Huawei_IoT_Agent_Tiny_SDK_Linux//lwm2m/core/er-coap-13/er-coap
 1835              		.file 8 "/usr/include/libio.h"
 1836              		.file 9 "/home/baikal/workspace/C50/Huawei_IoT_Agent_Tiny_SDK_Linux//lwm2m/core/liblwm2m.h"
 1837              		.file 10 "/home/baikal/workspace/C50/Huawei_IoT_Agent_Tiny_SDK_Linux//agent_tiny/lwm2m_client/obje
 1838              		.file 11 "/usr/include/stdio.h"
GAS LISTING /tmp/ccOjtb1y.s 			page 56


DEFINED SYMBOLS
                            *ABS*:0000000000000000 object_access_control.c
     /tmp/ccOjtb1y.s:6      .text.prv_get_acc_instance:0000000000000000 prv_get_acc_instance
     /tmp/ccOjtb1y.s:43     .text.prv_post_action_check:0000000000000000 prv_post_action_check
     /tmp/ccOjtb1y.s:95     .text.prv_get_srv_cnt:0000000000000000 prv_get_srv_cnt
     /tmp/ccOjtb1y.s:127    .text.prv_delete:0000000000000000 prv_delete
     /tmp/ccOjtb1y.s:182    .text.prv_acc_self_auth_check:0000000000000000 prv_acc_self_auth_check
     /tmp/ccOjtb1y.s:270    .text.prv_get_acl_instance:0000000000000000 prv_get_acl_instance
     /tmp/ccOjtb1y.s:304    .text.prv_check_instance_auth:0000000000000000 prv_check_instance_auth
     /tmp/ccOjtb1y.s:385    .text.prv_pre_auth_check:0000000000000000 prv_pre_auth_check
     /tmp/ccOjtb1y.s:469    .text.prv_set_tlv:0000000000000000 prv_set_tlv
     /tmp/ccOjtb1y.s:652    .text.prv_read:0000000000000000 prv_read
     /tmp/ccOjtb1y.s:846    .text.prv_add_ac_val:0000000000000000 prv_add_ac_val
     /tmp/ccOjtb1y.s:923    .text.prv_write_resources:0000000000000000 prv_write_resources
     /tmp/ccOjtb1y.s:1269   .text.prv_write:0000000000000000 prv_write
     /tmp/ccOjtb1y.s:1292   .text.prv_create:0000000000000000 prv_create
     /tmp/ccOjtb1y.s:1405   .text.acc_ctrl_create_object:0000000000000000 acc_ctrl_create_object
     /tmp/ccOjtb1y.s:1464   .text.acl_ctrl_free_object:0000000000000000 acl_ctrl_free_object
     /tmp/ccOjtb1y.s:1530   .text.acc_ctrl_obj_add_inst:0000000000000000 acc_ctrl_obj_add_inst
     /tmp/ccOjtb1y.s:1659   .text.acc_ctrl_oi_add_ac_val:0000000000000000 acc_ctrl_oi_add_ac_val
     /tmp/ccOjtb1y.s:1718   .text.acc_auth_operate:0000000000000000 acc_auth_operate

UNDEFINED SYMBOLS
lwm2m_list_remove
lwm2m_list_free
lwm2m_free
lwm2m_list_find
lwm2m_data_encode_int
lwm2m_data_new
lwm2m_data_encode_instances
lwm2m_malloc
lwm2m_list_add
lwm2m_data_decode_int
