GAS LISTING /tmp/ccTB4Y6B.s 			page 1


   1              		.file	"object_device.c"
   2              		.text
   3              	.Ltext0:
   4              		.section	.text.prv_check_time_offset,"ax",@progbits
   6              	prv_check_time_offset:
   7              	.LFB71:
   8              		.file 1 "/home/baikal/workspace/C50/Huawei_IoT_Agent_Tiny_SDK_Linux//agent_tiny/lwm2m_client/objec
   1:/home/baikal/workspace/C50/Huawei_IoT_Agent_Tiny_SDK_Linux//agent_tiny/lwm2m_client/object_device.c **** /*----------------------------------------------------------------------------
   2:/home/baikal/workspace/C50/Huawei_IoT_Agent_Tiny_SDK_Linux//agent_tiny/lwm2m_client/object_device.c ****  * Copyright (c) <2016-2018>, <Huawei Technologies Co., Ltd>
   3:/home/baikal/workspace/C50/Huawei_IoT_Agent_Tiny_SDK_Linux//agent_tiny/lwm2m_client/object_device.c ****  * All rights reserved.
   4:/home/baikal/workspace/C50/Huawei_IoT_Agent_Tiny_SDK_Linux//agent_tiny/lwm2m_client/object_device.c ****  * Redistribution and use in source and binary forms, with or without modification,
   5:/home/baikal/workspace/C50/Huawei_IoT_Agent_Tiny_SDK_Linux//agent_tiny/lwm2m_client/object_device.c ****  * are permitted provided that the following conditions are met:
   6:/home/baikal/workspace/C50/Huawei_IoT_Agent_Tiny_SDK_Linux//agent_tiny/lwm2m_client/object_device.c ****  * 1. Redistributions of source code must retain the above copyright notice, this list of
   7:/home/baikal/workspace/C50/Huawei_IoT_Agent_Tiny_SDK_Linux//agent_tiny/lwm2m_client/object_device.c ****  * conditions and the following disclaimer.
   8:/home/baikal/workspace/C50/Huawei_IoT_Agent_Tiny_SDK_Linux//agent_tiny/lwm2m_client/object_device.c ****  * 2. Redistributions in binary form must reproduce the above copyright notice, this list
   9:/home/baikal/workspace/C50/Huawei_IoT_Agent_Tiny_SDK_Linux//agent_tiny/lwm2m_client/object_device.c ****  * of conditions and the following disclaimer in the documentation and/or other materials
  10:/home/baikal/workspace/C50/Huawei_IoT_Agent_Tiny_SDK_Linux//agent_tiny/lwm2m_client/object_device.c ****  * provided with the distribution.
  11:/home/baikal/workspace/C50/Huawei_IoT_Agent_Tiny_SDK_Linux//agent_tiny/lwm2m_client/object_device.c ****  * 3. Neither the name of the copyright holder nor the names of its contributors may be used
  12:/home/baikal/workspace/C50/Huawei_IoT_Agent_Tiny_SDK_Linux//agent_tiny/lwm2m_client/object_device.c ****  * to endorse or promote products derived from this software without specific prior written
  13:/home/baikal/workspace/C50/Huawei_IoT_Agent_Tiny_SDK_Linux//agent_tiny/lwm2m_client/object_device.c ****  * permission.
  14:/home/baikal/workspace/C50/Huawei_IoT_Agent_Tiny_SDK_Linux//agent_tiny/lwm2m_client/object_device.c ****  * THIS SOFTWARE IS PROVIDED BY THE COPYRIGHT HOLDERS AND CONTRIBUTORS
  15:/home/baikal/workspace/C50/Huawei_IoT_Agent_Tiny_SDK_Linux//agent_tiny/lwm2m_client/object_device.c ****  * "AS IS" AND ANY EXPRESS OR IMPLIED WARRANTIES, INCLUDING, BUT NOT LIMITED TO,
  16:/home/baikal/workspace/C50/Huawei_IoT_Agent_Tiny_SDK_Linux//agent_tiny/lwm2m_client/object_device.c ****  * THE IMPLIED WARRANTIES OF MERCHANTABILITY AND FITNESS FOR A PARTICULAR
  17:/home/baikal/workspace/C50/Huawei_IoT_Agent_Tiny_SDK_Linux//agent_tiny/lwm2m_client/object_device.c ****  * PURPOSE ARE DISCLAIMED. IN NO EVENT SHALL THE COPYRIGHT HOLDER OR
  18:/home/baikal/workspace/C50/Huawei_IoT_Agent_Tiny_SDK_Linux//agent_tiny/lwm2m_client/object_device.c ****  * CONTRIBUTORS BE LIABLE FOR ANY DIRECT, INDIRECT, INCIDENTAL, SPECIAL,
  19:/home/baikal/workspace/C50/Huawei_IoT_Agent_Tiny_SDK_Linux//agent_tiny/lwm2m_client/object_device.c ****  * EXEMPLARY, OR CONSEQUENTIAL DAMAGES (INCLUDING, BUT NOT LIMITED TO,
  20:/home/baikal/workspace/C50/Huawei_IoT_Agent_Tiny_SDK_Linux//agent_tiny/lwm2m_client/object_device.c ****  * PROCUREMENT OF SUBSTITUTE GOODS OR SERVICES; LOSS OF USE, DATA, OR PROFITS;
  21:/home/baikal/workspace/C50/Huawei_IoT_Agent_Tiny_SDK_Linux//agent_tiny/lwm2m_client/object_device.c ****  * OR BUSINESS INTERRUPTION) HOWEVER CAUSED AND ON ANY THEORY OF LIABILITY,
  22:/home/baikal/workspace/C50/Huawei_IoT_Agent_Tiny_SDK_Linux//agent_tiny/lwm2m_client/object_device.c ****  * WHETHER IN CONTRACT, STRICT LIABILITY, OR TORT (INCLUDING NEGLIGENCE OR
  23:/home/baikal/workspace/C50/Huawei_IoT_Agent_Tiny_SDK_Linux//agent_tiny/lwm2m_client/object_device.c ****  * OTHERWISE) ARISING IN ANY WAY OUT OF THE USE OF THIS SOFTWARE, EVEN IF
  24:/home/baikal/workspace/C50/Huawei_IoT_Agent_Tiny_SDK_Linux//agent_tiny/lwm2m_client/object_device.c ****  * ADVISED OF THE POSSIBILITY OF SUCH DAMAGE.
  25:/home/baikal/workspace/C50/Huawei_IoT_Agent_Tiny_SDK_Linux//agent_tiny/lwm2m_client/object_device.c ****  *---------------------------------------------------------------------------*/
  26:/home/baikal/workspace/C50/Huawei_IoT_Agent_Tiny_SDK_Linux//agent_tiny/lwm2m_client/object_device.c **** /*----------------------------------------------------------------------------
  27:/home/baikal/workspace/C50/Huawei_IoT_Agent_Tiny_SDK_Linux//agent_tiny/lwm2m_client/object_device.c ****  * Notice of Export Control Law
  28:/home/baikal/workspace/C50/Huawei_IoT_Agent_Tiny_SDK_Linux//agent_tiny/lwm2m_client/object_device.c ****  * ===============================================
  29:/home/baikal/workspace/C50/Huawei_IoT_Agent_Tiny_SDK_Linux//agent_tiny/lwm2m_client/object_device.c ****  * Huawei LiteOS may be subject to applicable export control laws and regulations, which might
  30:/home/baikal/workspace/C50/Huawei_IoT_Agent_Tiny_SDK_Linux//agent_tiny/lwm2m_client/object_device.c ****  * include those applicable to Huawei LiteOS of U.S. and the country in which you are located.
  31:/home/baikal/workspace/C50/Huawei_IoT_Agent_Tiny_SDK_Linux//agent_tiny/lwm2m_client/object_device.c ****  * Import, export and usage of Huawei LiteOS in any manner by you shall be in compliance with such
  32:/home/baikal/workspace/C50/Huawei_IoT_Agent_Tiny_SDK_Linux//agent_tiny/lwm2m_client/object_device.c ****  * applicable export control laws and regulations.
  33:/home/baikal/workspace/C50/Huawei_IoT_Agent_Tiny_SDK_Linux//agent_tiny/lwm2m_client/object_device.c ****  *---------------------------------------------------------------------------*/
  34:/home/baikal/workspace/C50/Huawei_IoT_Agent_Tiny_SDK_Linux//agent_tiny/lwm2m_client/object_device.c **** 
  35:/home/baikal/workspace/C50/Huawei_IoT_Agent_Tiny_SDK_Linux//agent_tiny/lwm2m_client/object_device.c **** /*******************************************************************************
  36:/home/baikal/workspace/C50/Huawei_IoT_Agent_Tiny_SDK_Linux//agent_tiny/lwm2m_client/object_device.c ****  *
  37:/home/baikal/workspace/C50/Huawei_IoT_Agent_Tiny_SDK_Linux//agent_tiny/lwm2m_client/object_device.c ****  * Copyright (c) 2013, 2014 Intel Corporation and others.
  38:/home/baikal/workspace/C50/Huawei_IoT_Agent_Tiny_SDK_Linux//agent_tiny/lwm2m_client/object_device.c ****  * All rights reserved. This program and the accompanying materials
  39:/home/baikal/workspace/C50/Huawei_IoT_Agent_Tiny_SDK_Linux//agent_tiny/lwm2m_client/object_device.c ****  * are made available under the terms of the Eclipse Public License v1.0
  40:/home/baikal/workspace/C50/Huawei_IoT_Agent_Tiny_SDK_Linux//agent_tiny/lwm2m_client/object_device.c ****  * and Eclipse Distribution License v1.0 which accompany this distribution.
  41:/home/baikal/workspace/C50/Huawei_IoT_Agent_Tiny_SDK_Linux//agent_tiny/lwm2m_client/object_device.c ****  *
  42:/home/baikal/workspace/C50/Huawei_IoT_Agent_Tiny_SDK_Linux//agent_tiny/lwm2m_client/object_device.c ****  * The Eclipse Public License is available at
  43:/home/baikal/workspace/C50/Huawei_IoT_Agent_Tiny_SDK_Linux//agent_tiny/lwm2m_client/object_device.c ****  *    http://www.eclipse.org/legal/epl-v10.html
  44:/home/baikal/workspace/C50/Huawei_IoT_Agent_Tiny_SDK_Linux//agent_tiny/lwm2m_client/object_device.c ****  * The Eclipse Distribution License is available at
  45:/home/baikal/workspace/C50/Huawei_IoT_Agent_Tiny_SDK_Linux//agent_tiny/lwm2m_client/object_device.c ****  *    http://www.eclipse.org/org/documents/edl-v10.php.
  46:/home/baikal/workspace/C50/Huawei_IoT_Agent_Tiny_SDK_Linux//agent_tiny/lwm2m_client/object_device.c ****  *
  47:/home/baikal/workspace/C50/Huawei_IoT_Agent_Tiny_SDK_Linux//agent_tiny/lwm2m_client/object_device.c ****  * Contributors:
  48:/home/baikal/workspace/C50/Huawei_IoT_Agent_Tiny_SDK_Linux//agent_tiny/lwm2m_client/object_device.c ****  *    David Navarro, Intel Corporation - initial API and implementation
  49:/home/baikal/workspace/C50/Huawei_IoT_Agent_Tiny_SDK_Linux//agent_tiny/lwm2m_client/object_device.c ****  *    domedambrosio - Please refer to git log
  50:/home/baikal/workspace/C50/Huawei_IoT_Agent_Tiny_SDK_Linux//agent_tiny/lwm2m_client/object_device.c ****  *    Fabien Fleutot - Please refer to git log
GAS LISTING /tmp/ccTB4Y6B.s 			page 2


  51:/home/baikal/workspace/C50/Huawei_IoT_Agent_Tiny_SDK_Linux//agent_tiny/lwm2m_client/object_device.c ****  *    Axel Lorente - Please refer to git log
  52:/home/baikal/workspace/C50/Huawei_IoT_Agent_Tiny_SDK_Linux//agent_tiny/lwm2m_client/object_device.c ****  *    Bosch Software Innovations GmbH - Please refer to git log
  53:/home/baikal/workspace/C50/Huawei_IoT_Agent_Tiny_SDK_Linux//agent_tiny/lwm2m_client/object_device.c ****  *    Pascal Rieux - Please refer to git log
  54:/home/baikal/workspace/C50/Huawei_IoT_Agent_Tiny_SDK_Linux//agent_tiny/lwm2m_client/object_device.c ****  *
  55:/home/baikal/workspace/C50/Huawei_IoT_Agent_Tiny_SDK_Linux//agent_tiny/lwm2m_client/object_device.c ****  *******************************************************************************/
  56:/home/baikal/workspace/C50/Huawei_IoT_Agent_Tiny_SDK_Linux//agent_tiny/lwm2m_client/object_device.c **** 
  57:/home/baikal/workspace/C50/Huawei_IoT_Agent_Tiny_SDK_Linux//agent_tiny/lwm2m_client/object_device.c **** /*
  58:/home/baikal/workspace/C50/Huawei_IoT_Agent_Tiny_SDK_Linux//agent_tiny/lwm2m_client/object_device.c ****  Copyright (c) 2013, 2014 Intel Corporation
  59:/home/baikal/workspace/C50/Huawei_IoT_Agent_Tiny_SDK_Linux//agent_tiny/lwm2m_client/object_device.c **** 
  60:/home/baikal/workspace/C50/Huawei_IoT_Agent_Tiny_SDK_Linux//agent_tiny/lwm2m_client/object_device.c ****  Redistribution and use in source and binary forms, with or without modification,
  61:/home/baikal/workspace/C50/Huawei_IoT_Agent_Tiny_SDK_Linux//agent_tiny/lwm2m_client/object_device.c ****  are permitted provided that the following conditions are met:
  62:/home/baikal/workspace/C50/Huawei_IoT_Agent_Tiny_SDK_Linux//agent_tiny/lwm2m_client/object_device.c **** 
  63:/home/baikal/workspace/C50/Huawei_IoT_Agent_Tiny_SDK_Linux//agent_tiny/lwm2m_client/object_device.c ****      * Redistributions of source code must retain the above copyright notice,
  64:/home/baikal/workspace/C50/Huawei_IoT_Agent_Tiny_SDK_Linux//agent_tiny/lwm2m_client/object_device.c ****        this list of conditions and the following disclaimer.
  65:/home/baikal/workspace/C50/Huawei_IoT_Agent_Tiny_SDK_Linux//agent_tiny/lwm2m_client/object_device.c ****      * Redistributions in binary form must reproduce the above copyright notice,
  66:/home/baikal/workspace/C50/Huawei_IoT_Agent_Tiny_SDK_Linux//agent_tiny/lwm2m_client/object_device.c ****        this list of conditions and the following disclaimer in the documentation
  67:/home/baikal/workspace/C50/Huawei_IoT_Agent_Tiny_SDK_Linux//agent_tiny/lwm2m_client/object_device.c ****        and/or other materials provided with the distribution.
  68:/home/baikal/workspace/C50/Huawei_IoT_Agent_Tiny_SDK_Linux//agent_tiny/lwm2m_client/object_device.c ****      * Neither the name of Intel Corporation nor the names of its contributors
  69:/home/baikal/workspace/C50/Huawei_IoT_Agent_Tiny_SDK_Linux//agent_tiny/lwm2m_client/object_device.c ****        may be used to endorse or promote products derived from this software
  70:/home/baikal/workspace/C50/Huawei_IoT_Agent_Tiny_SDK_Linux//agent_tiny/lwm2m_client/object_device.c ****        without specific prior written permission.
  71:/home/baikal/workspace/C50/Huawei_IoT_Agent_Tiny_SDK_Linux//agent_tiny/lwm2m_client/object_device.c **** 
  72:/home/baikal/workspace/C50/Huawei_IoT_Agent_Tiny_SDK_Linux//agent_tiny/lwm2m_client/object_device.c ****  THIS SOFTWARE IS PROVIDED BY THE COPYRIGHT HOLDERS AND CONTRIBUTORS "AS IS" AND
  73:/home/baikal/workspace/C50/Huawei_IoT_Agent_Tiny_SDK_Linux//agent_tiny/lwm2m_client/object_device.c ****  ANY EXPRESS OR IMPLIED WARRANTIES, INCLUDING, BUT NOT LIMITED TO, THE IMPLIED
  74:/home/baikal/workspace/C50/Huawei_IoT_Agent_Tiny_SDK_Linux//agent_tiny/lwm2m_client/object_device.c ****  WARRANTIES OF MERCHANTABILITY AND FITNESS FOR A PARTICULAR PURPOSE ARE DISCLAIMED.
  75:/home/baikal/workspace/C50/Huawei_IoT_Agent_Tiny_SDK_Linux//agent_tiny/lwm2m_client/object_device.c ****  IN NO EVENT SHALL THE COPYRIGHT OWNER OR CONTRIBUTORS BE LIABLE FOR ANY DIRECT,
  76:/home/baikal/workspace/C50/Huawei_IoT_Agent_Tiny_SDK_Linux//agent_tiny/lwm2m_client/object_device.c ****  INDIRECT, INCIDENTAL, SPECIAL, EXEMPLARY, OR CONSEQUENTIAL DAMAGES (INCLUDING,
  77:/home/baikal/workspace/C50/Huawei_IoT_Agent_Tiny_SDK_Linux//agent_tiny/lwm2m_client/object_device.c ****  BUT NOT LIMITED TO, PROCUREMENT OF SUBSTITUTE GOODS OR SERVICES; LOSS OF USE,
  78:/home/baikal/workspace/C50/Huawei_IoT_Agent_Tiny_SDK_Linux//agent_tiny/lwm2m_client/object_device.c ****  DATA, OR PROFITS; OR BUSINESS INTERRUPTION) HOWEVER CAUSED AND ON ANY THEORY OF
  79:/home/baikal/workspace/C50/Huawei_IoT_Agent_Tiny_SDK_Linux//agent_tiny/lwm2m_client/object_device.c ****  LIABILITY, WHETHER IN CONTRACT, STRICT LIABILITY, OR TORT (INCLUDING NEGLIGENCE OR
  80:/home/baikal/workspace/C50/Huawei_IoT_Agent_Tiny_SDK_Linux//agent_tiny/lwm2m_client/object_device.c ****  OTHERWISE) ARISING IN ANY WAY OUT OF THE USE OF THIS SOFTWARE, EVEN IF ADVISED OF
  81:/home/baikal/workspace/C50/Huawei_IoT_Agent_Tiny_SDK_Linux//agent_tiny/lwm2m_client/object_device.c ****  THE POSSIBILITY OF SUCH DAMAGE.
  82:/home/baikal/workspace/C50/Huawei_IoT_Agent_Tiny_SDK_Linux//agent_tiny/lwm2m_client/object_device.c **** 
  83:/home/baikal/workspace/C50/Huawei_IoT_Agent_Tiny_SDK_Linux//agent_tiny/lwm2m_client/object_device.c ****  David Navarro <david.navarro@intel.com>
  84:/home/baikal/workspace/C50/Huawei_IoT_Agent_Tiny_SDK_Linux//agent_tiny/lwm2m_client/object_device.c **** 
  85:/home/baikal/workspace/C50/Huawei_IoT_Agent_Tiny_SDK_Linux//agent_tiny/lwm2m_client/object_device.c **** */
  86:/home/baikal/workspace/C50/Huawei_IoT_Agent_Tiny_SDK_Linux//agent_tiny/lwm2m_client/object_device.c **** 
  87:/home/baikal/workspace/C50/Huawei_IoT_Agent_Tiny_SDK_Linux//agent_tiny/lwm2m_client/object_device.c **** /*
  88:/home/baikal/workspace/C50/Huawei_IoT_Agent_Tiny_SDK_Linux//agent_tiny/lwm2m_client/object_device.c ****  * This object is single instance only, and is mandatory to all LWM2M device as it describe the obj
  89:/home/baikal/workspace/C50/Huawei_IoT_Agent_Tiny_SDK_Linux//agent_tiny/lwm2m_client/object_device.c ****  * manufacturer, model, etc...
  90:/home/baikal/workspace/C50/Huawei_IoT_Agent_Tiny_SDK_Linux//agent_tiny/lwm2m_client/object_device.c ****  */
  91:/home/baikal/workspace/C50/Huawei_IoT_Agent_Tiny_SDK_Linux//agent_tiny/lwm2m_client/object_device.c **** 
  92:/home/baikal/workspace/C50/Huawei_IoT_Agent_Tiny_SDK_Linux//agent_tiny/lwm2m_client/object_device.c **** #include "object_comm.h"
  93:/home/baikal/workspace/C50/Huawei_IoT_Agent_Tiny_SDK_Linux//agent_tiny/lwm2m_client/object_device.c **** 
  94:/home/baikal/workspace/C50/Huawei_IoT_Agent_Tiny_SDK_Linux//agent_tiny/lwm2m_client/object_device.c **** #define PRV_OFFSET_MAXLEN   7 //+HH:MM\0 at max
  95:/home/baikal/workspace/C50/Huawei_IoT_Agent_Tiny_SDK_Linux//agent_tiny/lwm2m_client/object_device.c **** #define PRV_TIMEZONE_MAXLEN 25
  96:/home/baikal/workspace/C50/Huawei_IoT_Agent_Tiny_SDK_Linux//agent_tiny/lwm2m_client/object_device.c **** #define MAX_STRING_LEN  64
  97:/home/baikal/workspace/C50/Huawei_IoT_Agent_Tiny_SDK_Linux//agent_tiny/lwm2m_client/object_device.c **** 
  98:/home/baikal/workspace/C50/Huawei_IoT_Agent_Tiny_SDK_Linux//agent_tiny/lwm2m_client/object_device.c **** // Resource Id's:
  99:/home/baikal/workspace/C50/Huawei_IoT_Agent_Tiny_SDK_Linux//agent_tiny/lwm2m_client/object_device.c **** #define RES_O_MANUFACTURER          0
 100:/home/baikal/workspace/C50/Huawei_IoT_Agent_Tiny_SDK_Linux//agent_tiny/lwm2m_client/object_device.c **** #define RES_O_MODEL_NUMBER          1
 101:/home/baikal/workspace/C50/Huawei_IoT_Agent_Tiny_SDK_Linux//agent_tiny/lwm2m_client/object_device.c **** #define RES_O_SERIAL_NUMBER         2
 102:/home/baikal/workspace/C50/Huawei_IoT_Agent_Tiny_SDK_Linux//agent_tiny/lwm2m_client/object_device.c **** #define RES_O_FIRMWARE_VERSION      3
 103:/home/baikal/workspace/C50/Huawei_IoT_Agent_Tiny_SDK_Linux//agent_tiny/lwm2m_client/object_device.c **** #define RES_M_REBOOT                4
 104:/home/baikal/workspace/C50/Huawei_IoT_Agent_Tiny_SDK_Linux//agent_tiny/lwm2m_client/object_device.c **** #define RES_O_FACTORY_RESET         5
 105:/home/baikal/workspace/C50/Huawei_IoT_Agent_Tiny_SDK_Linux//agent_tiny/lwm2m_client/object_device.c **** #define RES_O_AVL_POWER_SOURCES     6
 106:/home/baikal/workspace/C50/Huawei_IoT_Agent_Tiny_SDK_Linux//agent_tiny/lwm2m_client/object_device.c **** #define RES_O_POWER_SOURCE_VOLTAGE  7
 107:/home/baikal/workspace/C50/Huawei_IoT_Agent_Tiny_SDK_Linux//agent_tiny/lwm2m_client/object_device.c **** #define RES_O_POWER_SOURCE_CURRENT  8
GAS LISTING /tmp/ccTB4Y6B.s 			page 3


 108:/home/baikal/workspace/C50/Huawei_IoT_Agent_Tiny_SDK_Linux//agent_tiny/lwm2m_client/object_device.c **** #define RES_O_BATTERY_LEVEL         9
 109:/home/baikal/workspace/C50/Huawei_IoT_Agent_Tiny_SDK_Linux//agent_tiny/lwm2m_client/object_device.c **** #define RES_O_MEMORY_FREE           10
 110:/home/baikal/workspace/C50/Huawei_IoT_Agent_Tiny_SDK_Linux//agent_tiny/lwm2m_client/object_device.c **** #define RES_M_ERROR_CODE            11
 111:/home/baikal/workspace/C50/Huawei_IoT_Agent_Tiny_SDK_Linux//agent_tiny/lwm2m_client/object_device.c **** #define RES_O_RESET_ERROR_CODE      12
 112:/home/baikal/workspace/C50/Huawei_IoT_Agent_Tiny_SDK_Linux//agent_tiny/lwm2m_client/object_device.c **** #define RES_O_CURRENT_TIME          13
 113:/home/baikal/workspace/C50/Huawei_IoT_Agent_Tiny_SDK_Linux//agent_tiny/lwm2m_client/object_device.c **** #define RES_O_UTC_OFFSET            14
 114:/home/baikal/workspace/C50/Huawei_IoT_Agent_Tiny_SDK_Linux//agent_tiny/lwm2m_client/object_device.c **** #define RES_O_TIMEZONE              15
 115:/home/baikal/workspace/C50/Huawei_IoT_Agent_Tiny_SDK_Linux//agent_tiny/lwm2m_client/object_device.c **** #define RES_M_BINDING_MODES         16
 116:/home/baikal/workspace/C50/Huawei_IoT_Agent_Tiny_SDK_Linux//agent_tiny/lwm2m_client/object_device.c **** // since TS 20141126-C:
 117:/home/baikal/workspace/C50/Huawei_IoT_Agent_Tiny_SDK_Linux//agent_tiny/lwm2m_client/object_device.c **** #define RES_O_DEVICE_TYPE           17
 118:/home/baikal/workspace/C50/Huawei_IoT_Agent_Tiny_SDK_Linux//agent_tiny/lwm2m_client/object_device.c **** #define RES_O_HARDWARE_VERSION      18
 119:/home/baikal/workspace/C50/Huawei_IoT_Agent_Tiny_SDK_Linux//agent_tiny/lwm2m_client/object_device.c **** #define RES_O_SOFTWARE_VERSION      19
 120:/home/baikal/workspace/C50/Huawei_IoT_Agent_Tiny_SDK_Linux//agent_tiny/lwm2m_client/object_device.c **** #define RES_O_BATTERY_STATUS        20
 121:/home/baikal/workspace/C50/Huawei_IoT_Agent_Tiny_SDK_Linux//agent_tiny/lwm2m_client/object_device.c **** #define RES_O_MEMORY_TOTAL          21
 122:/home/baikal/workspace/C50/Huawei_IoT_Agent_Tiny_SDK_Linux//agent_tiny/lwm2m_client/object_device.c **** 
 123:/home/baikal/workspace/C50/Huawei_IoT_Agent_Tiny_SDK_Linux//agent_tiny/lwm2m_client/object_device.c **** // basic check that the time offset value is at ISO 8601 format
 124:/home/baikal/workspace/C50/Huawei_IoT_Agent_Tiny_SDK_Linux//agent_tiny/lwm2m_client/object_device.c **** // bug: +12:30 is considered a valid value by this function
 125:/home/baikal/workspace/C50/Huawei_IoT_Agent_Tiny_SDK_Linux//agent_tiny/lwm2m_client/object_device.c **** static int prv_check_time_offset(char *buffer,
 126:/home/baikal/workspace/C50/Huawei_IoT_Agent_Tiny_SDK_Linux//agent_tiny/lwm2m_client/object_device.c ****                                  int length)
 127:/home/baikal/workspace/C50/Huawei_IoT_Agent_Tiny_SDK_Linux//agent_tiny/lwm2m_client/object_device.c **** {
   9              		.loc 1 127 0
  10              		.cfi_startproc
  11              	.LVL0:
 128:/home/baikal/workspace/C50/Huawei_IoT_Agent_Tiny_SDK_Linux//agent_tiny/lwm2m_client/object_device.c ****     int min_index;
 129:/home/baikal/workspace/C50/Huawei_IoT_Agent_Tiny_SDK_Linux//agent_tiny/lwm2m_client/object_device.c **** 
 130:/home/baikal/workspace/C50/Huawei_IoT_Agent_Tiny_SDK_Linux//agent_tiny/lwm2m_client/object_device.c ****     if (length != 3 && length != 5 && length != 6) return 0;
  12              		.loc 1 130 0
  13 0000 83FE03   		cmpl	$3, %esi
  14 0003 0F95C2   		setne	%dl
  15 0006 83FE05   		cmpl	$5, %esi
  16 0009 0F95C0   		setne	%al
  17 000c 84C2     		testb	%al, %dl
  18 000e 7405     		je	.L2
  19              		.loc 1 130 0 is_stmt 0 discriminator 1
  20 0010 83FE06   		cmpl	$6, %esi
  21 0013 757E     		jne	.L10
  22              	.L2:
 131:/home/baikal/workspace/C50/Huawei_IoT_Agent_Tiny_SDK_Linux//agent_tiny/lwm2m_client/object_device.c ****     if (buffer[0] != '-' && buffer[0] != '+') return 0;
  23              		.loc 1 131 0 is_stmt 1
  24 0015 0FB607   		movzbl	(%rdi), %eax
  25 0018 3C2D     		cmpb	$45, %al
  26 001a 0F95C2   		setne	%dl
  27 001d 3C2B     		cmpb	$43, %al
  28 001f 0F95C0   		setne	%al
  29 0022 84C2     		testb	%al, %dl
  30 0024 7573     		jne	.L11
 132:/home/baikal/workspace/C50/Huawei_IoT_Agent_Tiny_SDK_Linux//agent_tiny/lwm2m_client/object_device.c ****     switch (buffer[1])
  31              		.loc 1 132 0
  32 0026 0FB64701 		movzbl	1(%rdi), %eax
  33 002a 3C30     		cmpb	$48, %al
  34 002c 7406     		je	.L4
  35 002e 3C31     		cmpb	$49, %al
  36 0030 740F     		je	.L5
  37 0032 EB6B     		jmp	.L20
  38              	.L4:
 133:/home/baikal/workspace/C50/Huawei_IoT_Agent_Tiny_SDK_Linux//agent_tiny/lwm2m_client/object_device.c ****     {
 134:/home/baikal/workspace/C50/Huawei_IoT_Agent_Tiny_SDK_Linux//agent_tiny/lwm2m_client/object_device.c ****     case '0':
GAS LISTING /tmp/ccTB4Y6B.s 			page 4


 135:/home/baikal/workspace/C50/Huawei_IoT_Agent_Tiny_SDK_Linux//agent_tiny/lwm2m_client/object_device.c ****         if (buffer[2] < '0' || buffer[2] > '9') return 0;
  39              		.loc 1 135 0
  40 0034 0FB64702 		movzbl	2(%rdi), %eax
  41 0038 83E830   		subl	$48, %eax
  42 003b 3C09     		cmpb	$9, %al
  43 003d 760D     		jbe	.L6
  44 003f EB64     		jmp	.L13
  45              	.L5:
 136:/home/baikal/workspace/C50/Huawei_IoT_Agent_Tiny_SDK_Linux//agent_tiny/lwm2m_client/object_device.c ****         break;
 137:/home/baikal/workspace/C50/Huawei_IoT_Agent_Tiny_SDK_Linux//agent_tiny/lwm2m_client/object_device.c ****     case '1':
 138:/home/baikal/workspace/C50/Huawei_IoT_Agent_Tiny_SDK_Linux//agent_tiny/lwm2m_client/object_device.c ****         if (buffer[2] < '0' || buffer[2] > '2') return 0;
  46              		.loc 1 138 0
  47 0041 0FB64702 		movzbl	2(%rdi), %eax
  48 0045 83E830   		subl	$48, %eax
  49 0048 3C02     		cmpb	$2, %al
  50 004a 775F     		ja	.L14
  51              	.L6:
 139:/home/baikal/workspace/C50/Huawei_IoT_Agent_Tiny_SDK_Linux//agent_tiny/lwm2m_client/object_device.c ****         break;
 140:/home/baikal/workspace/C50/Huawei_IoT_Agent_Tiny_SDK_Linux//agent_tiny/lwm2m_client/object_device.c ****     default:
 141:/home/baikal/workspace/C50/Huawei_IoT_Agent_Tiny_SDK_Linux//agent_tiny/lwm2m_client/object_device.c ****         return 0;
 142:/home/baikal/workspace/C50/Huawei_IoT_Agent_Tiny_SDK_Linux//agent_tiny/lwm2m_client/object_device.c ****     }
 143:/home/baikal/workspace/C50/Huawei_IoT_Agent_Tiny_SDK_Linux//agent_tiny/lwm2m_client/object_device.c ****     switch (length)
  52              		.loc 1 143 0
  53 004c 83FE05   		cmpl	$5, %esi
  54 004f 741D     		je	.L16
  55 0051 83FE06   		cmpl	$6, %esi
  56 0054 740B     		je	.L8
  57 0056 83FE03   		cmpl	$3, %esi
  58 0059 7556     		jne	.L21
 144:/home/baikal/workspace/C50/Huawei_IoT_Agent_Tiny_SDK_Linux//agent_tiny/lwm2m_client/object_device.c ****     {
 145:/home/baikal/workspace/C50/Huawei_IoT_Agent_Tiny_SDK_Linux//agent_tiny/lwm2m_client/object_device.c ****     case 3:
 146:/home/baikal/workspace/C50/Huawei_IoT_Agent_Tiny_SDK_Linux//agent_tiny/lwm2m_client/object_device.c ****         return 1;
  59              		.loc 1 146 0
  60 005b B8010000 		movl	$1, %eax
  60      00
  61 0060 C3       		ret
  62              	.L8:
 147:/home/baikal/workspace/C50/Huawei_IoT_Agent_Tiny_SDK_Linux//agent_tiny/lwm2m_client/object_device.c ****     case 5:
 148:/home/baikal/workspace/C50/Huawei_IoT_Agent_Tiny_SDK_Linux//agent_tiny/lwm2m_client/object_device.c ****         min_index = 3;
 149:/home/baikal/workspace/C50/Huawei_IoT_Agent_Tiny_SDK_Linux//agent_tiny/lwm2m_client/object_device.c ****         break;
 150:/home/baikal/workspace/C50/Huawei_IoT_Agent_Tiny_SDK_Linux//agent_tiny/lwm2m_client/object_device.c ****     case 6:
 151:/home/baikal/workspace/C50/Huawei_IoT_Agent_Tiny_SDK_Linux//agent_tiny/lwm2m_client/object_device.c ****         if (buffer[3] != ':') return 0;
  63              		.loc 1 151 0
  64 0061 807F033A 		cmpb	$58, 3(%rdi)
  65 0065 7550     		jne	.L17
 152:/home/baikal/workspace/C50/Huawei_IoT_Agent_Tiny_SDK_Linux//agent_tiny/lwm2m_client/object_device.c ****         min_index = 4;
  66              		.loc 1 152 0
  67 0067 B8040000 		movl	$4, %eax
  67      00
  68 006c EB05     		jmp	.L7
  69              	.L16:
 148:/home/baikal/workspace/C50/Huawei_IoT_Agent_Tiny_SDK_Linux//agent_tiny/lwm2m_client/object_device.c ****         break;
  70              		.loc 1 148 0
  71 006e B8030000 		movl	$3, %eax
  71      00
  72              	.L7:
  73              	.LVL1:
GAS LISTING /tmp/ccTB4Y6B.s 			page 5


 153:/home/baikal/workspace/C50/Huawei_IoT_Agent_Tiny_SDK_Linux//agent_tiny/lwm2m_client/object_device.c ****         break;
 154:/home/baikal/workspace/C50/Huawei_IoT_Agent_Tiny_SDK_Linux//agent_tiny/lwm2m_client/object_device.c ****     default:
 155:/home/baikal/workspace/C50/Huawei_IoT_Agent_Tiny_SDK_Linux//agent_tiny/lwm2m_client/object_device.c ****         // never happen
 156:/home/baikal/workspace/C50/Huawei_IoT_Agent_Tiny_SDK_Linux//agent_tiny/lwm2m_client/object_device.c ****         return 0;
 157:/home/baikal/workspace/C50/Huawei_IoT_Agent_Tiny_SDK_Linux//agent_tiny/lwm2m_client/object_device.c ****     }
 158:/home/baikal/workspace/C50/Huawei_IoT_Agent_Tiny_SDK_Linux//agent_tiny/lwm2m_client/object_device.c ****     if (buffer[min_index] < '0' || buffer[min_index] > '5') return 0;
  74              		.loc 1 158 0
  75 0073 4898     		cltq
  76 0075 0FB60C07 		movzbl	(%rdi,%rax), %ecx
  77 0079 8D51D0   		leal	-48(%rcx), %edx
  78 007c 80FA05   		cmpb	$5, %dl
  79 007f 773C     		ja	.L18
 159:/home/baikal/workspace/C50/Huawei_IoT_Agent_Tiny_SDK_Linux//agent_tiny/lwm2m_client/object_device.c ****     if (buffer[min_index + 1] < '0' || buffer[min_index + 1] > '9') return 0;
  80              		.loc 1 159 0
  81 0081 0FB64407 		movzbl	1(%rdi,%rax), %eax
  81      01
  82              	.LVL2:
  83 0086 83E830   		subl	$48, %eax
  84 0089 3C09     		cmpb	$9, %al
  85 008b 7636     		jbe	.L19
  86 008d B8000000 		movl	$0, %eax
  86      00
  87 0092 C3       		ret
  88              	.L10:
 130:/home/baikal/workspace/C50/Huawei_IoT_Agent_Tiny_SDK_Linux//agent_tiny/lwm2m_client/object_device.c ****     if (buffer[0] != '-' && buffer[0] != '+') return 0;
  89              		.loc 1 130 0
  90 0093 B8000000 		movl	$0, %eax
  90      00
  91 0098 C3       		ret
  92              	.L11:
 131:/home/baikal/workspace/C50/Huawei_IoT_Agent_Tiny_SDK_Linux//agent_tiny/lwm2m_client/object_device.c ****     switch (buffer[1])
  93              		.loc 1 131 0
  94 0099 B8000000 		movl	$0, %eax
  94      00
  95 009e C3       		ret
  96              	.L20:
 141:/home/baikal/workspace/C50/Huawei_IoT_Agent_Tiny_SDK_Linux//agent_tiny/lwm2m_client/object_device.c ****     }
  97              		.loc 1 141 0
  98 009f B8000000 		movl	$0, %eax
  98      00
  99 00a4 C3       		ret
 100              	.L13:
 135:/home/baikal/workspace/C50/Huawei_IoT_Agent_Tiny_SDK_Linux//agent_tiny/lwm2m_client/object_device.c ****         break;
 101              		.loc 1 135 0
 102 00a5 B8000000 		movl	$0, %eax
 102      00
 103 00aa C3       		ret
 104              	.L14:
 138:/home/baikal/workspace/C50/Huawei_IoT_Agent_Tiny_SDK_Linux//agent_tiny/lwm2m_client/object_device.c ****         break;
 105              		.loc 1 138 0
 106 00ab B8000000 		movl	$0, %eax
 106      00
 107 00b0 C3       		ret
 108              	.L21:
 156:/home/baikal/workspace/C50/Huawei_IoT_Agent_Tiny_SDK_Linux//agent_tiny/lwm2m_client/object_device.c ****     }
 109              		.loc 1 156 0
 110 00b1 B8000000 		movl	$0, %eax
GAS LISTING /tmp/ccTB4Y6B.s 			page 6


 110      00
 111 00b6 C3       		ret
 112              	.L17:
 151:/home/baikal/workspace/C50/Huawei_IoT_Agent_Tiny_SDK_Linux//agent_tiny/lwm2m_client/object_device.c ****         min_index = 4;
 113              		.loc 1 151 0
 114 00b7 B8000000 		movl	$0, %eax
 114      00
 115 00bc C3       		ret
 116              	.LVL3:
 117              	.L18:
 158:/home/baikal/workspace/C50/Huawei_IoT_Agent_Tiny_SDK_Linux//agent_tiny/lwm2m_client/object_device.c ****     if (buffer[min_index + 1] < '0' || buffer[min_index + 1] > '9') return 0;
 118              		.loc 1 158 0
 119 00bd B8000000 		movl	$0, %eax
 119      00
 120              	.LVL4:
 121 00c2 C3       		ret
 122              	.L19:
 160:/home/baikal/workspace/C50/Huawei_IoT_Agent_Tiny_SDK_Linux//agent_tiny/lwm2m_client/object_device.c **** 
 161:/home/baikal/workspace/C50/Huawei_IoT_Agent_Tiny_SDK_Linux//agent_tiny/lwm2m_client/object_device.c ****     return 1;
 123              		.loc 1 161 0
 124 00c3 B8010000 		movl	$1, %eax
 124      00
 162:/home/baikal/workspace/C50/Huawei_IoT_Agent_Tiny_SDK_Linux//agent_tiny/lwm2m_client/object_device.c **** }
 125              		.loc 1 162 0
 126 00c8 C3       		ret
 127              		.cfi_endproc
 128              	.LFE71:
 130              		.section	.text.prv_device_execute,"ax",@progbits
 132              	prv_device_execute:
 133              	.LFB76:
 163:/home/baikal/workspace/C50/Huawei_IoT_Agent_Tiny_SDK_Linux//agent_tiny/lwm2m_client/object_device.c **** 
 164:/home/baikal/workspace/C50/Huawei_IoT_Agent_Tiny_SDK_Linux//agent_tiny/lwm2m_client/object_device.c **** static uint8_t prv_set_value(lwm2m_data_t *dataP)
 165:/home/baikal/workspace/C50/Huawei_IoT_Agent_Tiny_SDK_Linux//agent_tiny/lwm2m_client/object_device.c **** {
 166:/home/baikal/workspace/C50/Huawei_IoT_Agent_Tiny_SDK_Linux//agent_tiny/lwm2m_client/object_device.c ****     char str[MAX_STRING_LEN + 1] = {0};
 167:/home/baikal/workspace/C50/Huawei_IoT_Agent_Tiny_SDK_Linux//agent_tiny/lwm2m_client/object_device.c ****     int64_t current_time;
 168:/home/baikal/workspace/C50/Huawei_IoT_Agent_Tiny_SDK_Linux//agent_tiny/lwm2m_client/object_device.c ****     char UTC_offset[PRV_OFFSET_MAXLEN];
 169:/home/baikal/workspace/C50/Huawei_IoT_Agent_Tiny_SDK_Linux//agent_tiny/lwm2m_client/object_device.c ****     char timezone[PRV_TIMEZONE_MAXLEN];
 170:/home/baikal/workspace/C50/Huawei_IoT_Agent_Tiny_SDK_Linux//agent_tiny/lwm2m_client/object_device.c ****     lwm2m_data_t *subTlvP;
 171:/home/baikal/workspace/C50/Huawei_IoT_Agent_Tiny_SDK_Linux//agent_tiny/lwm2m_client/object_device.c ****     int power;
 172:/home/baikal/workspace/C50/Huawei_IoT_Agent_Tiny_SDK_Linux//agent_tiny/lwm2m_client/object_device.c ****     int voltage;
 173:/home/baikal/workspace/C50/Huawei_IoT_Agent_Tiny_SDK_Linux//agent_tiny/lwm2m_client/object_device.c ****     int battery_level;
 174:/home/baikal/workspace/C50/Huawei_IoT_Agent_Tiny_SDK_Linux//agent_tiny/lwm2m_client/object_device.c ****     int free_memory;
 175:/home/baikal/workspace/C50/Huawei_IoT_Agent_Tiny_SDK_Linux//agent_tiny/lwm2m_client/object_device.c ****     int err;
 176:/home/baikal/workspace/C50/Huawei_IoT_Agent_Tiny_SDK_Linux//agent_tiny/lwm2m_client/object_device.c ****     int result;
 177:/home/baikal/workspace/C50/Huawei_IoT_Agent_Tiny_SDK_Linux//agent_tiny/lwm2m_client/object_device.c ****     // a simple switch structure is used to respond at the specified resource asked
 178:/home/baikal/workspace/C50/Huawei_IoT_Agent_Tiny_SDK_Linux//agent_tiny/lwm2m_client/object_device.c ****     switch (dataP->id)
 179:/home/baikal/workspace/C50/Huawei_IoT_Agent_Tiny_SDK_Linux//agent_tiny/lwm2m_client/object_device.c ****     {
 180:/home/baikal/workspace/C50/Huawei_IoT_Agent_Tiny_SDK_Linux//agent_tiny/lwm2m_client/object_device.c ****     case RES_O_MANUFACTURER:
 181:/home/baikal/workspace/C50/Huawei_IoT_Agent_Tiny_SDK_Linux//agent_tiny/lwm2m_client/object_device.c ****         result = atiny_cmd_ioctl(ATINY_GET_MANUFACTURER, str, MAX_STRING_LEN);
 182:/home/baikal/workspace/C50/Huawei_IoT_Agent_Tiny_SDK_Linux//agent_tiny/lwm2m_client/object_device.c ****         if(result == ATINY_OK)
 183:/home/baikal/workspace/C50/Huawei_IoT_Agent_Tiny_SDK_Linux//agent_tiny/lwm2m_client/object_device.c ****         {
 184:/home/baikal/workspace/C50/Huawei_IoT_Agent_Tiny_SDK_Linux//agent_tiny/lwm2m_client/object_device.c ****             lwm2m_data_encode_string(str, dataP);
 185:/home/baikal/workspace/C50/Huawei_IoT_Agent_Tiny_SDK_Linux//agent_tiny/lwm2m_client/object_device.c ****             return COAP_205_CONTENT;
 186:/home/baikal/workspace/C50/Huawei_IoT_Agent_Tiny_SDK_Linux//agent_tiny/lwm2m_client/object_device.c ****         }
 187:/home/baikal/workspace/C50/Huawei_IoT_Agent_Tiny_SDK_Linux//agent_tiny/lwm2m_client/object_device.c ****         else
 188:/home/baikal/workspace/C50/Huawei_IoT_Agent_Tiny_SDK_Linux//agent_tiny/lwm2m_client/object_device.c ****         {
 189:/home/baikal/workspace/C50/Huawei_IoT_Agent_Tiny_SDK_Linux//agent_tiny/lwm2m_client/object_device.c ****             return COAP_400_BAD_REQUEST;
GAS LISTING /tmp/ccTB4Y6B.s 			page 7


 190:/home/baikal/workspace/C50/Huawei_IoT_Agent_Tiny_SDK_Linux//agent_tiny/lwm2m_client/object_device.c ****         }
 191:/home/baikal/workspace/C50/Huawei_IoT_Agent_Tiny_SDK_Linux//agent_tiny/lwm2m_client/object_device.c **** 
 192:/home/baikal/workspace/C50/Huawei_IoT_Agent_Tiny_SDK_Linux//agent_tiny/lwm2m_client/object_device.c ****     case RES_O_MODEL_NUMBER:
 193:/home/baikal/workspace/C50/Huawei_IoT_Agent_Tiny_SDK_Linux//agent_tiny/lwm2m_client/object_device.c ****         result = atiny_cmd_ioctl(ATINY_GET_MODEL_NUMBER, str, MAX_STRING_LEN);
 194:/home/baikal/workspace/C50/Huawei_IoT_Agent_Tiny_SDK_Linux//agent_tiny/lwm2m_client/object_device.c ****         if(result == ATINY_OK)
 195:/home/baikal/workspace/C50/Huawei_IoT_Agent_Tiny_SDK_Linux//agent_tiny/lwm2m_client/object_device.c ****         {
 196:/home/baikal/workspace/C50/Huawei_IoT_Agent_Tiny_SDK_Linux//agent_tiny/lwm2m_client/object_device.c ****             lwm2m_data_encode_string(str, dataP);
 197:/home/baikal/workspace/C50/Huawei_IoT_Agent_Tiny_SDK_Linux//agent_tiny/lwm2m_client/object_device.c ****             return COAP_205_CONTENT;
 198:/home/baikal/workspace/C50/Huawei_IoT_Agent_Tiny_SDK_Linux//agent_tiny/lwm2m_client/object_device.c ****         }
 199:/home/baikal/workspace/C50/Huawei_IoT_Agent_Tiny_SDK_Linux//agent_tiny/lwm2m_client/object_device.c ****         else
 200:/home/baikal/workspace/C50/Huawei_IoT_Agent_Tiny_SDK_Linux//agent_tiny/lwm2m_client/object_device.c ****         {
 201:/home/baikal/workspace/C50/Huawei_IoT_Agent_Tiny_SDK_Linux//agent_tiny/lwm2m_client/object_device.c ****             return COAP_400_BAD_REQUEST;
 202:/home/baikal/workspace/C50/Huawei_IoT_Agent_Tiny_SDK_Linux//agent_tiny/lwm2m_client/object_device.c ****         }
 203:/home/baikal/workspace/C50/Huawei_IoT_Agent_Tiny_SDK_Linux//agent_tiny/lwm2m_client/object_device.c **** 
 204:/home/baikal/workspace/C50/Huawei_IoT_Agent_Tiny_SDK_Linux//agent_tiny/lwm2m_client/object_device.c ****     case RES_O_SERIAL_NUMBER:
 205:/home/baikal/workspace/C50/Huawei_IoT_Agent_Tiny_SDK_Linux//agent_tiny/lwm2m_client/object_device.c ****         result = atiny_cmd_ioctl(ATINY_GET_SERIAL_NUMBER, str, MAX_STRING_LEN);
 206:/home/baikal/workspace/C50/Huawei_IoT_Agent_Tiny_SDK_Linux//agent_tiny/lwm2m_client/object_device.c ****         if(result == ATINY_OK)
 207:/home/baikal/workspace/C50/Huawei_IoT_Agent_Tiny_SDK_Linux//agent_tiny/lwm2m_client/object_device.c ****         {
 208:/home/baikal/workspace/C50/Huawei_IoT_Agent_Tiny_SDK_Linux//agent_tiny/lwm2m_client/object_device.c ****             lwm2m_data_encode_string(str, dataP);
 209:/home/baikal/workspace/C50/Huawei_IoT_Agent_Tiny_SDK_Linux//agent_tiny/lwm2m_client/object_device.c ****             return COAP_205_CONTENT;
 210:/home/baikal/workspace/C50/Huawei_IoT_Agent_Tiny_SDK_Linux//agent_tiny/lwm2m_client/object_device.c ****         }
 211:/home/baikal/workspace/C50/Huawei_IoT_Agent_Tiny_SDK_Linux//agent_tiny/lwm2m_client/object_device.c ****         else
 212:/home/baikal/workspace/C50/Huawei_IoT_Agent_Tiny_SDK_Linux//agent_tiny/lwm2m_client/object_device.c ****         {
 213:/home/baikal/workspace/C50/Huawei_IoT_Agent_Tiny_SDK_Linux//agent_tiny/lwm2m_client/object_device.c ****             return COAP_400_BAD_REQUEST;
 214:/home/baikal/workspace/C50/Huawei_IoT_Agent_Tiny_SDK_Linux//agent_tiny/lwm2m_client/object_device.c ****         }
 215:/home/baikal/workspace/C50/Huawei_IoT_Agent_Tiny_SDK_Linux//agent_tiny/lwm2m_client/object_device.c **** 
 216:/home/baikal/workspace/C50/Huawei_IoT_Agent_Tiny_SDK_Linux//agent_tiny/lwm2m_client/object_device.c ****     case RES_O_FIRMWARE_VERSION:
 217:/home/baikal/workspace/C50/Huawei_IoT_Agent_Tiny_SDK_Linux//agent_tiny/lwm2m_client/object_device.c ****         result = atiny_cmd_ioctl(ATINY_GET_FIRMWARE_VER, str, MAX_STRING_LEN);
 218:/home/baikal/workspace/C50/Huawei_IoT_Agent_Tiny_SDK_Linux//agent_tiny/lwm2m_client/object_device.c ****         if(result == ATINY_OK)
 219:/home/baikal/workspace/C50/Huawei_IoT_Agent_Tiny_SDK_Linux//agent_tiny/lwm2m_client/object_device.c ****         {
 220:/home/baikal/workspace/C50/Huawei_IoT_Agent_Tiny_SDK_Linux//agent_tiny/lwm2m_client/object_device.c ****             lwm2m_data_encode_string(str, dataP);
 221:/home/baikal/workspace/C50/Huawei_IoT_Agent_Tiny_SDK_Linux//agent_tiny/lwm2m_client/object_device.c ****             return COAP_205_CONTENT;
 222:/home/baikal/workspace/C50/Huawei_IoT_Agent_Tiny_SDK_Linux//agent_tiny/lwm2m_client/object_device.c ****         }
 223:/home/baikal/workspace/C50/Huawei_IoT_Agent_Tiny_SDK_Linux//agent_tiny/lwm2m_client/object_device.c ****         else
 224:/home/baikal/workspace/C50/Huawei_IoT_Agent_Tiny_SDK_Linux//agent_tiny/lwm2m_client/object_device.c ****         {
 225:/home/baikal/workspace/C50/Huawei_IoT_Agent_Tiny_SDK_Linux//agent_tiny/lwm2m_client/object_device.c ****             return COAP_400_BAD_REQUEST;
 226:/home/baikal/workspace/C50/Huawei_IoT_Agent_Tiny_SDK_Linux//agent_tiny/lwm2m_client/object_device.c ****         }
 227:/home/baikal/workspace/C50/Huawei_IoT_Agent_Tiny_SDK_Linux//agent_tiny/lwm2m_client/object_device.c **** 
 228:/home/baikal/workspace/C50/Huawei_IoT_Agent_Tiny_SDK_Linux//agent_tiny/lwm2m_client/object_device.c ****     case RES_M_REBOOT:
 229:/home/baikal/workspace/C50/Huawei_IoT_Agent_Tiny_SDK_Linux//agent_tiny/lwm2m_client/object_device.c ****         return COAP_405_METHOD_NOT_ALLOWED;
 230:/home/baikal/workspace/C50/Huawei_IoT_Agent_Tiny_SDK_Linux//agent_tiny/lwm2m_client/object_device.c **** 
 231:/home/baikal/workspace/C50/Huawei_IoT_Agent_Tiny_SDK_Linux//agent_tiny/lwm2m_client/object_device.c ****     case RES_O_FACTORY_RESET:
 232:/home/baikal/workspace/C50/Huawei_IoT_Agent_Tiny_SDK_Linux//agent_tiny/lwm2m_client/object_device.c ****         return COAP_405_METHOD_NOT_ALLOWED;
 233:/home/baikal/workspace/C50/Huawei_IoT_Agent_Tiny_SDK_Linux//agent_tiny/lwm2m_client/object_device.c **** 
 234:/home/baikal/workspace/C50/Huawei_IoT_Agent_Tiny_SDK_Linux//agent_tiny/lwm2m_client/object_device.c ****     case RES_O_AVL_POWER_SOURCES:
 235:/home/baikal/workspace/C50/Huawei_IoT_Agent_Tiny_SDK_Linux//agent_tiny/lwm2m_client/object_device.c ****     {
 236:/home/baikal/workspace/C50/Huawei_IoT_Agent_Tiny_SDK_Linux//agent_tiny/lwm2m_client/object_device.c ****         subTlvP = lwm2m_data_new(1);
 237:/home/baikal/workspace/C50/Huawei_IoT_Agent_Tiny_SDK_Linux//agent_tiny/lwm2m_client/object_device.c ****         if (subTlvP == NULL) return COAP_500_INTERNAL_SERVER_ERROR;
 238:/home/baikal/workspace/C50/Huawei_IoT_Agent_Tiny_SDK_Linux//agent_tiny/lwm2m_client/object_device.c ****         subTlvP[0].id = 0;
 239:/home/baikal/workspace/C50/Huawei_IoT_Agent_Tiny_SDK_Linux//agent_tiny/lwm2m_client/object_device.c ****         result = atiny_cmd_ioctl(ATINY_GET_POWER_SOURCE, (char *)&power, sizeof(int));
 240:/home/baikal/workspace/C50/Huawei_IoT_Agent_Tiny_SDK_Linux//agent_tiny/lwm2m_client/object_device.c ****         if(result == ATINY_OK)
 241:/home/baikal/workspace/C50/Huawei_IoT_Agent_Tiny_SDK_Linux//agent_tiny/lwm2m_client/object_device.c ****         {
 242:/home/baikal/workspace/C50/Huawei_IoT_Agent_Tiny_SDK_Linux//agent_tiny/lwm2m_client/object_device.c ****             lwm2m_data_encode_int(power, subTlvP);
 243:/home/baikal/workspace/C50/Huawei_IoT_Agent_Tiny_SDK_Linux//agent_tiny/lwm2m_client/object_device.c ****             lwm2m_data_encode_instances(subTlvP, 1, dataP);
 244:/home/baikal/workspace/C50/Huawei_IoT_Agent_Tiny_SDK_Linux//agent_tiny/lwm2m_client/object_device.c ****             return COAP_205_CONTENT;
 245:/home/baikal/workspace/C50/Huawei_IoT_Agent_Tiny_SDK_Linux//agent_tiny/lwm2m_client/object_device.c ****         }
 246:/home/baikal/workspace/C50/Huawei_IoT_Agent_Tiny_SDK_Linux//agent_tiny/lwm2m_client/object_device.c ****         else
GAS LISTING /tmp/ccTB4Y6B.s 			page 8


 247:/home/baikal/workspace/C50/Huawei_IoT_Agent_Tiny_SDK_Linux//agent_tiny/lwm2m_client/object_device.c ****         {
 248:/home/baikal/workspace/C50/Huawei_IoT_Agent_Tiny_SDK_Linux//agent_tiny/lwm2m_client/object_device.c ****             lwm2m_free(subTlvP);
 249:/home/baikal/workspace/C50/Huawei_IoT_Agent_Tiny_SDK_Linux//agent_tiny/lwm2m_client/object_device.c ****             return COAP_400_BAD_REQUEST;
 250:/home/baikal/workspace/C50/Huawei_IoT_Agent_Tiny_SDK_Linux//agent_tiny/lwm2m_client/object_device.c ****         }
 251:/home/baikal/workspace/C50/Huawei_IoT_Agent_Tiny_SDK_Linux//agent_tiny/lwm2m_client/object_device.c ****     }
 252:/home/baikal/workspace/C50/Huawei_IoT_Agent_Tiny_SDK_Linux//agent_tiny/lwm2m_client/object_device.c **** 
 253:/home/baikal/workspace/C50/Huawei_IoT_Agent_Tiny_SDK_Linux//agent_tiny/lwm2m_client/object_device.c ****     case RES_O_POWER_SOURCE_VOLTAGE:
 254:/home/baikal/workspace/C50/Huawei_IoT_Agent_Tiny_SDK_Linux//agent_tiny/lwm2m_client/object_device.c ****     {
 255:/home/baikal/workspace/C50/Huawei_IoT_Agent_Tiny_SDK_Linux//agent_tiny/lwm2m_client/object_device.c ****         subTlvP = lwm2m_data_new(1);
 256:/home/baikal/workspace/C50/Huawei_IoT_Agent_Tiny_SDK_Linux//agent_tiny/lwm2m_client/object_device.c ****         if (subTlvP == NULL) return COAP_500_INTERNAL_SERVER_ERROR;
 257:/home/baikal/workspace/C50/Huawei_IoT_Agent_Tiny_SDK_Linux//agent_tiny/lwm2m_client/object_device.c ****         subTlvP[0].id = 0;
 258:/home/baikal/workspace/C50/Huawei_IoT_Agent_Tiny_SDK_Linux//agent_tiny/lwm2m_client/object_device.c ****         result = atiny_cmd_ioctl(ATINY_GET_SOURCE_VOLTAGE, (char *)&voltage, sizeof(int));
 259:/home/baikal/workspace/C50/Huawei_IoT_Agent_Tiny_SDK_Linux//agent_tiny/lwm2m_client/object_device.c ****         if(result == ATINY_OK)
 260:/home/baikal/workspace/C50/Huawei_IoT_Agent_Tiny_SDK_Linux//agent_tiny/lwm2m_client/object_device.c ****         {
 261:/home/baikal/workspace/C50/Huawei_IoT_Agent_Tiny_SDK_Linux//agent_tiny/lwm2m_client/object_device.c ****             lwm2m_data_encode_int(voltage, subTlvP);
 262:/home/baikal/workspace/C50/Huawei_IoT_Agent_Tiny_SDK_Linux//agent_tiny/lwm2m_client/object_device.c ****             lwm2m_data_encode_instances(subTlvP, 1, dataP);
 263:/home/baikal/workspace/C50/Huawei_IoT_Agent_Tiny_SDK_Linux//agent_tiny/lwm2m_client/object_device.c ****             return COAP_205_CONTENT;
 264:/home/baikal/workspace/C50/Huawei_IoT_Agent_Tiny_SDK_Linux//agent_tiny/lwm2m_client/object_device.c ****         }
 265:/home/baikal/workspace/C50/Huawei_IoT_Agent_Tiny_SDK_Linux//agent_tiny/lwm2m_client/object_device.c ****         else
 266:/home/baikal/workspace/C50/Huawei_IoT_Agent_Tiny_SDK_Linux//agent_tiny/lwm2m_client/object_device.c ****         {
 267:/home/baikal/workspace/C50/Huawei_IoT_Agent_Tiny_SDK_Linux//agent_tiny/lwm2m_client/object_device.c ****             lwm2m_free(subTlvP);
 268:/home/baikal/workspace/C50/Huawei_IoT_Agent_Tiny_SDK_Linux//agent_tiny/lwm2m_client/object_device.c ****             return COAP_400_BAD_REQUEST;
 269:/home/baikal/workspace/C50/Huawei_IoT_Agent_Tiny_SDK_Linux//agent_tiny/lwm2m_client/object_device.c ****         }
 270:/home/baikal/workspace/C50/Huawei_IoT_Agent_Tiny_SDK_Linux//agent_tiny/lwm2m_client/object_device.c ****     }
 271:/home/baikal/workspace/C50/Huawei_IoT_Agent_Tiny_SDK_Linux//agent_tiny/lwm2m_client/object_device.c **** 
 272:/home/baikal/workspace/C50/Huawei_IoT_Agent_Tiny_SDK_Linux//agent_tiny/lwm2m_client/object_device.c ****     case RES_O_POWER_SOURCE_CURRENT:
 273:/home/baikal/workspace/C50/Huawei_IoT_Agent_Tiny_SDK_Linux//agent_tiny/lwm2m_client/object_device.c ****     {
 274:/home/baikal/workspace/C50/Huawei_IoT_Agent_Tiny_SDK_Linux//agent_tiny/lwm2m_client/object_device.c ****         subTlvP = lwm2m_data_new(1);
 275:/home/baikal/workspace/C50/Huawei_IoT_Agent_Tiny_SDK_Linux//agent_tiny/lwm2m_client/object_device.c ****         if (subTlvP == NULL) return COAP_500_INTERNAL_SERVER_ERROR;
 276:/home/baikal/workspace/C50/Huawei_IoT_Agent_Tiny_SDK_Linux//agent_tiny/lwm2m_client/object_device.c ****         subTlvP[0].id = 0;
 277:/home/baikal/workspace/C50/Huawei_IoT_Agent_Tiny_SDK_Linux//agent_tiny/lwm2m_client/object_device.c ****         result = atiny_cmd_ioctl(ATINY_GET_POWER_CURRENT, (char *)&power, sizeof(int));
 278:/home/baikal/workspace/C50/Huawei_IoT_Agent_Tiny_SDK_Linux//agent_tiny/lwm2m_client/object_device.c ****         if(result == ATINY_OK)
 279:/home/baikal/workspace/C50/Huawei_IoT_Agent_Tiny_SDK_Linux//agent_tiny/lwm2m_client/object_device.c ****         {
 280:/home/baikal/workspace/C50/Huawei_IoT_Agent_Tiny_SDK_Linux//agent_tiny/lwm2m_client/object_device.c ****             lwm2m_data_encode_int(power, &subTlvP[0]);
 281:/home/baikal/workspace/C50/Huawei_IoT_Agent_Tiny_SDK_Linux//agent_tiny/lwm2m_client/object_device.c ****             lwm2m_data_encode_instances(subTlvP, 1, dataP);
 282:/home/baikal/workspace/C50/Huawei_IoT_Agent_Tiny_SDK_Linux//agent_tiny/lwm2m_client/object_device.c ****             return COAP_205_CONTENT;
 283:/home/baikal/workspace/C50/Huawei_IoT_Agent_Tiny_SDK_Linux//agent_tiny/lwm2m_client/object_device.c ****         }
 284:/home/baikal/workspace/C50/Huawei_IoT_Agent_Tiny_SDK_Linux//agent_tiny/lwm2m_client/object_device.c ****         else
 285:/home/baikal/workspace/C50/Huawei_IoT_Agent_Tiny_SDK_Linux//agent_tiny/lwm2m_client/object_device.c ****         {
 286:/home/baikal/workspace/C50/Huawei_IoT_Agent_Tiny_SDK_Linux//agent_tiny/lwm2m_client/object_device.c ****             lwm2m_free(subTlvP);
 287:/home/baikal/workspace/C50/Huawei_IoT_Agent_Tiny_SDK_Linux//agent_tiny/lwm2m_client/object_device.c ****             return COAP_400_BAD_REQUEST;
 288:/home/baikal/workspace/C50/Huawei_IoT_Agent_Tiny_SDK_Linux//agent_tiny/lwm2m_client/object_device.c ****         }
 289:/home/baikal/workspace/C50/Huawei_IoT_Agent_Tiny_SDK_Linux//agent_tiny/lwm2m_client/object_device.c ****     }
 290:/home/baikal/workspace/C50/Huawei_IoT_Agent_Tiny_SDK_Linux//agent_tiny/lwm2m_client/object_device.c **** 
 291:/home/baikal/workspace/C50/Huawei_IoT_Agent_Tiny_SDK_Linux//agent_tiny/lwm2m_client/object_device.c ****     case RES_O_BATTERY_LEVEL:
 292:/home/baikal/workspace/C50/Huawei_IoT_Agent_Tiny_SDK_Linux//agent_tiny/lwm2m_client/object_device.c ****     {
 293:/home/baikal/workspace/C50/Huawei_IoT_Agent_Tiny_SDK_Linux//agent_tiny/lwm2m_client/object_device.c ****         result = atiny_cmd_ioctl(ATINY_GET_BATERRY_LEVEL, (char *)&battery_level, sizeof(int));
 294:/home/baikal/workspace/C50/Huawei_IoT_Agent_Tiny_SDK_Linux//agent_tiny/lwm2m_client/object_device.c ****         if(result == ATINY_OK)
 295:/home/baikal/workspace/C50/Huawei_IoT_Agent_Tiny_SDK_Linux//agent_tiny/lwm2m_client/object_device.c ****         {
 296:/home/baikal/workspace/C50/Huawei_IoT_Agent_Tiny_SDK_Linux//agent_tiny/lwm2m_client/object_device.c ****             lwm2m_data_encode_int(battery_level, dataP);
 297:/home/baikal/workspace/C50/Huawei_IoT_Agent_Tiny_SDK_Linux//agent_tiny/lwm2m_client/object_device.c ****             return COAP_205_CONTENT;
 298:/home/baikal/workspace/C50/Huawei_IoT_Agent_Tiny_SDK_Linux//agent_tiny/lwm2m_client/object_device.c ****         }
 299:/home/baikal/workspace/C50/Huawei_IoT_Agent_Tiny_SDK_Linux//agent_tiny/lwm2m_client/object_device.c ****         else
 300:/home/baikal/workspace/C50/Huawei_IoT_Agent_Tiny_SDK_Linux//agent_tiny/lwm2m_client/object_device.c ****         {
 301:/home/baikal/workspace/C50/Huawei_IoT_Agent_Tiny_SDK_Linux//agent_tiny/lwm2m_client/object_device.c ****             return COAP_400_BAD_REQUEST;
 302:/home/baikal/workspace/C50/Huawei_IoT_Agent_Tiny_SDK_Linux//agent_tiny/lwm2m_client/object_device.c ****         }
 303:/home/baikal/workspace/C50/Huawei_IoT_Agent_Tiny_SDK_Linux//agent_tiny/lwm2m_client/object_device.c ****     }
GAS LISTING /tmp/ccTB4Y6B.s 			page 9


 304:/home/baikal/workspace/C50/Huawei_IoT_Agent_Tiny_SDK_Linux//agent_tiny/lwm2m_client/object_device.c **** 
 305:/home/baikal/workspace/C50/Huawei_IoT_Agent_Tiny_SDK_Linux//agent_tiny/lwm2m_client/object_device.c ****     case RES_O_MEMORY_FREE:
 306:/home/baikal/workspace/C50/Huawei_IoT_Agent_Tiny_SDK_Linux//agent_tiny/lwm2m_client/object_device.c ****     {
 307:/home/baikal/workspace/C50/Huawei_IoT_Agent_Tiny_SDK_Linux//agent_tiny/lwm2m_client/object_device.c ****         result = atiny_cmd_ioctl(ATINY_GET_MEMORY_FREE, (char *)&free_memory, sizeof(int));
 308:/home/baikal/workspace/C50/Huawei_IoT_Agent_Tiny_SDK_Linux//agent_tiny/lwm2m_client/object_device.c ****         if(result == ATINY_OK)
 309:/home/baikal/workspace/C50/Huawei_IoT_Agent_Tiny_SDK_Linux//agent_tiny/lwm2m_client/object_device.c ****         {
 310:/home/baikal/workspace/C50/Huawei_IoT_Agent_Tiny_SDK_Linux//agent_tiny/lwm2m_client/object_device.c ****             lwm2m_data_encode_int(free_memory, dataP);
 311:/home/baikal/workspace/C50/Huawei_IoT_Agent_Tiny_SDK_Linux//agent_tiny/lwm2m_client/object_device.c ****             return COAP_205_CONTENT;
 312:/home/baikal/workspace/C50/Huawei_IoT_Agent_Tiny_SDK_Linux//agent_tiny/lwm2m_client/object_device.c ****         }
 313:/home/baikal/workspace/C50/Huawei_IoT_Agent_Tiny_SDK_Linux//agent_tiny/lwm2m_client/object_device.c ****         else
 314:/home/baikal/workspace/C50/Huawei_IoT_Agent_Tiny_SDK_Linux//agent_tiny/lwm2m_client/object_device.c ****         {
 315:/home/baikal/workspace/C50/Huawei_IoT_Agent_Tiny_SDK_Linux//agent_tiny/lwm2m_client/object_device.c ****             return COAP_400_BAD_REQUEST;
 316:/home/baikal/workspace/C50/Huawei_IoT_Agent_Tiny_SDK_Linux//agent_tiny/lwm2m_client/object_device.c ****         }
 317:/home/baikal/workspace/C50/Huawei_IoT_Agent_Tiny_SDK_Linux//agent_tiny/lwm2m_client/object_device.c ****     }
 318:/home/baikal/workspace/C50/Huawei_IoT_Agent_Tiny_SDK_Linux//agent_tiny/lwm2m_client/object_device.c **** 
 319:/home/baikal/workspace/C50/Huawei_IoT_Agent_Tiny_SDK_Linux//agent_tiny/lwm2m_client/object_device.c ****     case RES_M_ERROR_CODE:
 320:/home/baikal/workspace/C50/Huawei_IoT_Agent_Tiny_SDK_Linux//agent_tiny/lwm2m_client/object_device.c ****     {
 321:/home/baikal/workspace/C50/Huawei_IoT_Agent_Tiny_SDK_Linux//agent_tiny/lwm2m_client/object_device.c ****         subTlvP = lwm2m_data_new(1);
 322:/home/baikal/workspace/C50/Huawei_IoT_Agent_Tiny_SDK_Linux//agent_tiny/lwm2m_client/object_device.c ****         if (subTlvP == NULL) return COAP_500_INTERNAL_SERVER_ERROR;
 323:/home/baikal/workspace/C50/Huawei_IoT_Agent_Tiny_SDK_Linux//agent_tiny/lwm2m_client/object_device.c ****         subTlvP[0].id = 0;
 324:/home/baikal/workspace/C50/Huawei_IoT_Agent_Tiny_SDK_Linux//agent_tiny/lwm2m_client/object_device.c ****         result = atiny_cmd_ioctl(ATINY_GET_DEV_ERR, (char *)&err, sizeof(int));
 325:/home/baikal/workspace/C50/Huawei_IoT_Agent_Tiny_SDK_Linux//agent_tiny/lwm2m_client/object_device.c ****         if(result == ATINY_OK)
 326:/home/baikal/workspace/C50/Huawei_IoT_Agent_Tiny_SDK_Linux//agent_tiny/lwm2m_client/object_device.c ****         {
 327:/home/baikal/workspace/C50/Huawei_IoT_Agent_Tiny_SDK_Linux//agent_tiny/lwm2m_client/object_device.c ****             lwm2m_data_encode_int(err, subTlvP);
 328:/home/baikal/workspace/C50/Huawei_IoT_Agent_Tiny_SDK_Linux//agent_tiny/lwm2m_client/object_device.c ****             lwm2m_data_encode_instances(subTlvP, 1, dataP);
 329:/home/baikal/workspace/C50/Huawei_IoT_Agent_Tiny_SDK_Linux//agent_tiny/lwm2m_client/object_device.c ****             return COAP_205_CONTENT;
 330:/home/baikal/workspace/C50/Huawei_IoT_Agent_Tiny_SDK_Linux//agent_tiny/lwm2m_client/object_device.c ****         }
 331:/home/baikal/workspace/C50/Huawei_IoT_Agent_Tiny_SDK_Linux//agent_tiny/lwm2m_client/object_device.c ****         else
 332:/home/baikal/workspace/C50/Huawei_IoT_Agent_Tiny_SDK_Linux//agent_tiny/lwm2m_client/object_device.c ****         {
 333:/home/baikal/workspace/C50/Huawei_IoT_Agent_Tiny_SDK_Linux//agent_tiny/lwm2m_client/object_device.c ****             lwm2m_free(subTlvP);
 334:/home/baikal/workspace/C50/Huawei_IoT_Agent_Tiny_SDK_Linux//agent_tiny/lwm2m_client/object_device.c ****             return COAP_400_BAD_REQUEST;
 335:/home/baikal/workspace/C50/Huawei_IoT_Agent_Tiny_SDK_Linux//agent_tiny/lwm2m_client/object_device.c ****         }
 336:/home/baikal/workspace/C50/Huawei_IoT_Agent_Tiny_SDK_Linux//agent_tiny/lwm2m_client/object_device.c ****     }
 337:/home/baikal/workspace/C50/Huawei_IoT_Agent_Tiny_SDK_Linux//agent_tiny/lwm2m_client/object_device.c ****     case RES_O_RESET_ERROR_CODE:
 338:/home/baikal/workspace/C50/Huawei_IoT_Agent_Tiny_SDK_Linux//agent_tiny/lwm2m_client/object_device.c ****         return COAP_405_METHOD_NOT_ALLOWED;
 339:/home/baikal/workspace/C50/Huawei_IoT_Agent_Tiny_SDK_Linux//agent_tiny/lwm2m_client/object_device.c **** 
 340:/home/baikal/workspace/C50/Huawei_IoT_Agent_Tiny_SDK_Linux//agent_tiny/lwm2m_client/object_device.c ****     case RES_O_CURRENT_TIME:
 341:/home/baikal/workspace/C50/Huawei_IoT_Agent_Tiny_SDK_Linux//agent_tiny/lwm2m_client/object_device.c ****         result = atiny_cmd_ioctl(ATINY_GET_CURRENT_TIME, (char *)&current_time, sizeof(int64_t));
 342:/home/baikal/workspace/C50/Huawei_IoT_Agent_Tiny_SDK_Linux//agent_tiny/lwm2m_client/object_device.c ****         if(result == ATINY_OK)
 343:/home/baikal/workspace/C50/Huawei_IoT_Agent_Tiny_SDK_Linux//agent_tiny/lwm2m_client/object_device.c ****         {
 344:/home/baikal/workspace/C50/Huawei_IoT_Agent_Tiny_SDK_Linux//agent_tiny/lwm2m_client/object_device.c ****             lwm2m_data_encode_int(current_time, dataP);
 345:/home/baikal/workspace/C50/Huawei_IoT_Agent_Tiny_SDK_Linux//agent_tiny/lwm2m_client/object_device.c ****             return COAP_205_CONTENT;
 346:/home/baikal/workspace/C50/Huawei_IoT_Agent_Tiny_SDK_Linux//agent_tiny/lwm2m_client/object_device.c ****         }
 347:/home/baikal/workspace/C50/Huawei_IoT_Agent_Tiny_SDK_Linux//agent_tiny/lwm2m_client/object_device.c ****         else
 348:/home/baikal/workspace/C50/Huawei_IoT_Agent_Tiny_SDK_Linux//agent_tiny/lwm2m_client/object_device.c ****         {
 349:/home/baikal/workspace/C50/Huawei_IoT_Agent_Tiny_SDK_Linux//agent_tiny/lwm2m_client/object_device.c ****             return COAP_400_BAD_REQUEST;
 350:/home/baikal/workspace/C50/Huawei_IoT_Agent_Tiny_SDK_Linux//agent_tiny/lwm2m_client/object_device.c ****         }
 351:/home/baikal/workspace/C50/Huawei_IoT_Agent_Tiny_SDK_Linux//agent_tiny/lwm2m_client/object_device.c **** 
 352:/home/baikal/workspace/C50/Huawei_IoT_Agent_Tiny_SDK_Linux//agent_tiny/lwm2m_client/object_device.c ****     case RES_O_UTC_OFFSET:
 353:/home/baikal/workspace/C50/Huawei_IoT_Agent_Tiny_SDK_Linux//agent_tiny/lwm2m_client/object_device.c ****         result = atiny_cmd_ioctl(ATINY_GET_UTC_OFFSET, UTC_offset, PRV_OFFSET_MAXLEN);
 354:/home/baikal/workspace/C50/Huawei_IoT_Agent_Tiny_SDK_Linux//agent_tiny/lwm2m_client/object_device.c ****         if(result == ATINY_OK)
 355:/home/baikal/workspace/C50/Huawei_IoT_Agent_Tiny_SDK_Linux//agent_tiny/lwm2m_client/object_device.c ****         {
 356:/home/baikal/workspace/C50/Huawei_IoT_Agent_Tiny_SDK_Linux//agent_tiny/lwm2m_client/object_device.c ****             lwm2m_data_encode_string(UTC_offset, dataP);
 357:/home/baikal/workspace/C50/Huawei_IoT_Agent_Tiny_SDK_Linux//agent_tiny/lwm2m_client/object_device.c ****             return COAP_205_CONTENT;
 358:/home/baikal/workspace/C50/Huawei_IoT_Agent_Tiny_SDK_Linux//agent_tiny/lwm2m_client/object_device.c ****         }
 359:/home/baikal/workspace/C50/Huawei_IoT_Agent_Tiny_SDK_Linux//agent_tiny/lwm2m_client/object_device.c ****         else
 360:/home/baikal/workspace/C50/Huawei_IoT_Agent_Tiny_SDK_Linux//agent_tiny/lwm2m_client/object_device.c ****         {
GAS LISTING /tmp/ccTB4Y6B.s 			page 10


 361:/home/baikal/workspace/C50/Huawei_IoT_Agent_Tiny_SDK_Linux//agent_tiny/lwm2m_client/object_device.c ****             return COAP_400_BAD_REQUEST;
 362:/home/baikal/workspace/C50/Huawei_IoT_Agent_Tiny_SDK_Linux//agent_tiny/lwm2m_client/object_device.c ****         }
 363:/home/baikal/workspace/C50/Huawei_IoT_Agent_Tiny_SDK_Linux//agent_tiny/lwm2m_client/object_device.c **** 
 364:/home/baikal/workspace/C50/Huawei_IoT_Agent_Tiny_SDK_Linux//agent_tiny/lwm2m_client/object_device.c ****     case RES_O_TIMEZONE:
 365:/home/baikal/workspace/C50/Huawei_IoT_Agent_Tiny_SDK_Linux//agent_tiny/lwm2m_client/object_device.c ****         result = atiny_cmd_ioctl(ATINY_GET_TIMEZONE, timezone, PRV_TIMEZONE_MAXLEN);
 366:/home/baikal/workspace/C50/Huawei_IoT_Agent_Tiny_SDK_Linux//agent_tiny/lwm2m_client/object_device.c ****         if(result == ATINY_OK)
 367:/home/baikal/workspace/C50/Huawei_IoT_Agent_Tiny_SDK_Linux//agent_tiny/lwm2m_client/object_device.c ****         {
 368:/home/baikal/workspace/C50/Huawei_IoT_Agent_Tiny_SDK_Linux//agent_tiny/lwm2m_client/object_device.c ****             lwm2m_data_encode_string(timezone, dataP);
 369:/home/baikal/workspace/C50/Huawei_IoT_Agent_Tiny_SDK_Linux//agent_tiny/lwm2m_client/object_device.c ****             return COAP_205_CONTENT;
 370:/home/baikal/workspace/C50/Huawei_IoT_Agent_Tiny_SDK_Linux//agent_tiny/lwm2m_client/object_device.c ****         }
 371:/home/baikal/workspace/C50/Huawei_IoT_Agent_Tiny_SDK_Linux//agent_tiny/lwm2m_client/object_device.c ****         else
 372:/home/baikal/workspace/C50/Huawei_IoT_Agent_Tiny_SDK_Linux//agent_tiny/lwm2m_client/object_device.c ****         {
 373:/home/baikal/workspace/C50/Huawei_IoT_Agent_Tiny_SDK_Linux//agent_tiny/lwm2m_client/object_device.c ****             return COAP_400_BAD_REQUEST;
 374:/home/baikal/workspace/C50/Huawei_IoT_Agent_Tiny_SDK_Linux//agent_tiny/lwm2m_client/object_device.c ****         }
 375:/home/baikal/workspace/C50/Huawei_IoT_Agent_Tiny_SDK_Linux//agent_tiny/lwm2m_client/object_device.c **** 
 376:/home/baikal/workspace/C50/Huawei_IoT_Agent_Tiny_SDK_Linux//agent_tiny/lwm2m_client/object_device.c ****     case RES_M_BINDING_MODES:
 377:/home/baikal/workspace/C50/Huawei_IoT_Agent_Tiny_SDK_Linux//agent_tiny/lwm2m_client/object_device.c ****         result = atiny_cmd_ioctl(ATINY_GET_BINDING_MODES, str, MAX_STRING_LEN);
 378:/home/baikal/workspace/C50/Huawei_IoT_Agent_Tiny_SDK_Linux//agent_tiny/lwm2m_client/object_device.c ****         if(result == ATINY_OK)
 379:/home/baikal/workspace/C50/Huawei_IoT_Agent_Tiny_SDK_Linux//agent_tiny/lwm2m_client/object_device.c ****         {
 380:/home/baikal/workspace/C50/Huawei_IoT_Agent_Tiny_SDK_Linux//agent_tiny/lwm2m_client/object_device.c ****             lwm2m_data_encode_string(str, dataP);
 381:/home/baikal/workspace/C50/Huawei_IoT_Agent_Tiny_SDK_Linux//agent_tiny/lwm2m_client/object_device.c ****             return COAP_205_CONTENT;
 382:/home/baikal/workspace/C50/Huawei_IoT_Agent_Tiny_SDK_Linux//agent_tiny/lwm2m_client/object_device.c ****         }
 383:/home/baikal/workspace/C50/Huawei_IoT_Agent_Tiny_SDK_Linux//agent_tiny/lwm2m_client/object_device.c ****         else
 384:/home/baikal/workspace/C50/Huawei_IoT_Agent_Tiny_SDK_Linux//agent_tiny/lwm2m_client/object_device.c ****         {
 385:/home/baikal/workspace/C50/Huawei_IoT_Agent_Tiny_SDK_Linux//agent_tiny/lwm2m_client/object_device.c ****             return COAP_400_BAD_REQUEST;
 386:/home/baikal/workspace/C50/Huawei_IoT_Agent_Tiny_SDK_Linux//agent_tiny/lwm2m_client/object_device.c ****         }
 387:/home/baikal/workspace/C50/Huawei_IoT_Agent_Tiny_SDK_Linux//agent_tiny/lwm2m_client/object_device.c ****     default:
 388:/home/baikal/workspace/C50/Huawei_IoT_Agent_Tiny_SDK_Linux//agent_tiny/lwm2m_client/object_device.c ****         return COAP_404_NOT_FOUND;
 389:/home/baikal/workspace/C50/Huawei_IoT_Agent_Tiny_SDK_Linux//agent_tiny/lwm2m_client/object_device.c ****     }
 390:/home/baikal/workspace/C50/Huawei_IoT_Agent_Tiny_SDK_Linux//agent_tiny/lwm2m_client/object_device.c **** }
 391:/home/baikal/workspace/C50/Huawei_IoT_Agent_Tiny_SDK_Linux//agent_tiny/lwm2m_client/object_device.c **** 
 392:/home/baikal/workspace/C50/Huawei_IoT_Agent_Tiny_SDK_Linux//agent_tiny/lwm2m_client/object_device.c **** static uint8_t prv_device_read(uint16_t instanceId,
 393:/home/baikal/workspace/C50/Huawei_IoT_Agent_Tiny_SDK_Linux//agent_tiny/lwm2m_client/object_device.c ****                                int *numDataP,
 394:/home/baikal/workspace/C50/Huawei_IoT_Agent_Tiny_SDK_Linux//agent_tiny/lwm2m_client/object_device.c ****                                lwm2m_data_t **dataArrayP,
 395:/home/baikal/workspace/C50/Huawei_IoT_Agent_Tiny_SDK_Linux//agent_tiny/lwm2m_client/object_device.c ****                                lwm2m_data_cfg_t *dataCfg,
 396:/home/baikal/workspace/C50/Huawei_IoT_Agent_Tiny_SDK_Linux//agent_tiny/lwm2m_client/object_device.c ****                                lwm2m_object_t *objectP)
 397:/home/baikal/workspace/C50/Huawei_IoT_Agent_Tiny_SDK_Linux//agent_tiny/lwm2m_client/object_device.c **** {
 398:/home/baikal/workspace/C50/Huawei_IoT_Agent_Tiny_SDK_Linux//agent_tiny/lwm2m_client/object_device.c ****     uint8_t result;
 399:/home/baikal/workspace/C50/Huawei_IoT_Agent_Tiny_SDK_Linux//agent_tiny/lwm2m_client/object_device.c ****     int i;
 400:/home/baikal/workspace/C50/Huawei_IoT_Agent_Tiny_SDK_Linux//agent_tiny/lwm2m_client/object_device.c **** 
 401:/home/baikal/workspace/C50/Huawei_IoT_Agent_Tiny_SDK_Linux//agent_tiny/lwm2m_client/object_device.c ****     // this is a single instance object
 402:/home/baikal/workspace/C50/Huawei_IoT_Agent_Tiny_SDK_Linux//agent_tiny/lwm2m_client/object_device.c ****     if (instanceId != 0)
 403:/home/baikal/workspace/C50/Huawei_IoT_Agent_Tiny_SDK_Linux//agent_tiny/lwm2m_client/object_device.c ****     {
 404:/home/baikal/workspace/C50/Huawei_IoT_Agent_Tiny_SDK_Linux//agent_tiny/lwm2m_client/object_device.c ****         return COAP_404_NOT_FOUND;
 405:/home/baikal/workspace/C50/Huawei_IoT_Agent_Tiny_SDK_Linux//agent_tiny/lwm2m_client/object_device.c ****     }
 406:/home/baikal/workspace/C50/Huawei_IoT_Agent_Tiny_SDK_Linux//agent_tiny/lwm2m_client/object_device.c **** 
 407:/home/baikal/workspace/C50/Huawei_IoT_Agent_Tiny_SDK_Linux//agent_tiny/lwm2m_client/object_device.c ****     // is the server asking for the full object ?
 408:/home/baikal/workspace/C50/Huawei_IoT_Agent_Tiny_SDK_Linux//agent_tiny/lwm2m_client/object_device.c ****     if (*numDataP == 0)
 409:/home/baikal/workspace/C50/Huawei_IoT_Agent_Tiny_SDK_Linux//agent_tiny/lwm2m_client/object_device.c ****     {
 410:/home/baikal/workspace/C50/Huawei_IoT_Agent_Tiny_SDK_Linux//agent_tiny/lwm2m_client/object_device.c ****         uint16_t resList[] =
 411:/home/baikal/workspace/C50/Huawei_IoT_Agent_Tiny_SDK_Linux//agent_tiny/lwm2m_client/object_device.c ****         {
 412:/home/baikal/workspace/C50/Huawei_IoT_Agent_Tiny_SDK_Linux//agent_tiny/lwm2m_client/object_device.c ****             RES_O_MANUFACTURER,
 413:/home/baikal/workspace/C50/Huawei_IoT_Agent_Tiny_SDK_Linux//agent_tiny/lwm2m_client/object_device.c ****             RES_O_MODEL_NUMBER,
 414:/home/baikal/workspace/C50/Huawei_IoT_Agent_Tiny_SDK_Linux//agent_tiny/lwm2m_client/object_device.c ****             RES_O_SERIAL_NUMBER,
 415:/home/baikal/workspace/C50/Huawei_IoT_Agent_Tiny_SDK_Linux//agent_tiny/lwm2m_client/object_device.c ****             RES_O_FIRMWARE_VERSION,
 416:/home/baikal/workspace/C50/Huawei_IoT_Agent_Tiny_SDK_Linux//agent_tiny/lwm2m_client/object_device.c ****             //E: RES_M_REBOOT,
 417:/home/baikal/workspace/C50/Huawei_IoT_Agent_Tiny_SDK_Linux//agent_tiny/lwm2m_client/object_device.c ****             //E: RES_O_FACTORY_RESET,
GAS LISTING /tmp/ccTB4Y6B.s 			page 11


 418:/home/baikal/workspace/C50/Huawei_IoT_Agent_Tiny_SDK_Linux//agent_tiny/lwm2m_client/object_device.c ****             RES_O_AVL_POWER_SOURCES,
 419:/home/baikal/workspace/C50/Huawei_IoT_Agent_Tiny_SDK_Linux//agent_tiny/lwm2m_client/object_device.c ****             RES_O_POWER_SOURCE_VOLTAGE,
 420:/home/baikal/workspace/C50/Huawei_IoT_Agent_Tiny_SDK_Linux//agent_tiny/lwm2m_client/object_device.c ****             RES_O_POWER_SOURCE_CURRENT,
 421:/home/baikal/workspace/C50/Huawei_IoT_Agent_Tiny_SDK_Linux//agent_tiny/lwm2m_client/object_device.c ****             RES_O_BATTERY_LEVEL,
 422:/home/baikal/workspace/C50/Huawei_IoT_Agent_Tiny_SDK_Linux//agent_tiny/lwm2m_client/object_device.c ****             RES_O_MEMORY_FREE,
 423:/home/baikal/workspace/C50/Huawei_IoT_Agent_Tiny_SDK_Linux//agent_tiny/lwm2m_client/object_device.c ****             RES_M_ERROR_CODE,
 424:/home/baikal/workspace/C50/Huawei_IoT_Agent_Tiny_SDK_Linux//agent_tiny/lwm2m_client/object_device.c ****             //E: RES_O_RESET_ERROR_CODE,
 425:/home/baikal/workspace/C50/Huawei_IoT_Agent_Tiny_SDK_Linux//agent_tiny/lwm2m_client/object_device.c ****             RES_O_CURRENT_TIME,
 426:/home/baikal/workspace/C50/Huawei_IoT_Agent_Tiny_SDK_Linux//agent_tiny/lwm2m_client/object_device.c ****             RES_O_UTC_OFFSET,
 427:/home/baikal/workspace/C50/Huawei_IoT_Agent_Tiny_SDK_Linux//agent_tiny/lwm2m_client/object_device.c ****             RES_O_TIMEZONE,
 428:/home/baikal/workspace/C50/Huawei_IoT_Agent_Tiny_SDK_Linux//agent_tiny/lwm2m_client/object_device.c ****             RES_M_BINDING_MODES
 429:/home/baikal/workspace/C50/Huawei_IoT_Agent_Tiny_SDK_Linux//agent_tiny/lwm2m_client/object_device.c ****         };
 430:/home/baikal/workspace/C50/Huawei_IoT_Agent_Tiny_SDK_Linux//agent_tiny/lwm2m_client/object_device.c ****         int nbRes = sizeof(resList) / sizeof(uint16_t);
 431:/home/baikal/workspace/C50/Huawei_IoT_Agent_Tiny_SDK_Linux//agent_tiny/lwm2m_client/object_device.c **** 
 432:/home/baikal/workspace/C50/Huawei_IoT_Agent_Tiny_SDK_Linux//agent_tiny/lwm2m_client/object_device.c ****         *dataArrayP = lwm2m_data_new(nbRes);
 433:/home/baikal/workspace/C50/Huawei_IoT_Agent_Tiny_SDK_Linux//agent_tiny/lwm2m_client/object_device.c ****         if (*dataArrayP == NULL) return COAP_500_INTERNAL_SERVER_ERROR;
 434:/home/baikal/workspace/C50/Huawei_IoT_Agent_Tiny_SDK_Linux//agent_tiny/lwm2m_client/object_device.c ****         *numDataP = nbRes;
 435:/home/baikal/workspace/C50/Huawei_IoT_Agent_Tiny_SDK_Linux//agent_tiny/lwm2m_client/object_device.c ****         for (i = 0 ; i < nbRes ; i++)
 436:/home/baikal/workspace/C50/Huawei_IoT_Agent_Tiny_SDK_Linux//agent_tiny/lwm2m_client/object_device.c ****         {
 437:/home/baikal/workspace/C50/Huawei_IoT_Agent_Tiny_SDK_Linux//agent_tiny/lwm2m_client/object_device.c ****             (*dataArrayP)[i].id = resList[i];
 438:/home/baikal/workspace/C50/Huawei_IoT_Agent_Tiny_SDK_Linux//agent_tiny/lwm2m_client/object_device.c ****         }
 439:/home/baikal/workspace/C50/Huawei_IoT_Agent_Tiny_SDK_Linux//agent_tiny/lwm2m_client/object_device.c ****     }
 440:/home/baikal/workspace/C50/Huawei_IoT_Agent_Tiny_SDK_Linux//agent_tiny/lwm2m_client/object_device.c **** 
 441:/home/baikal/workspace/C50/Huawei_IoT_Agent_Tiny_SDK_Linux//agent_tiny/lwm2m_client/object_device.c ****     i = 0;
 442:/home/baikal/workspace/C50/Huawei_IoT_Agent_Tiny_SDK_Linux//agent_tiny/lwm2m_client/object_device.c ****     do
 443:/home/baikal/workspace/C50/Huawei_IoT_Agent_Tiny_SDK_Linux//agent_tiny/lwm2m_client/object_device.c ****     {
 444:/home/baikal/workspace/C50/Huawei_IoT_Agent_Tiny_SDK_Linux//agent_tiny/lwm2m_client/object_device.c ****         result = prv_set_value((*dataArrayP) + i);
 445:/home/baikal/workspace/C50/Huawei_IoT_Agent_Tiny_SDK_Linux//agent_tiny/lwm2m_client/object_device.c ****         i++;
 446:/home/baikal/workspace/C50/Huawei_IoT_Agent_Tiny_SDK_Linux//agent_tiny/lwm2m_client/object_device.c ****     }
 447:/home/baikal/workspace/C50/Huawei_IoT_Agent_Tiny_SDK_Linux//agent_tiny/lwm2m_client/object_device.c ****     while (i < *numDataP && result == COAP_205_CONTENT);
 448:/home/baikal/workspace/C50/Huawei_IoT_Agent_Tiny_SDK_Linux//agent_tiny/lwm2m_client/object_device.c **** 
 449:/home/baikal/workspace/C50/Huawei_IoT_Agent_Tiny_SDK_Linux//agent_tiny/lwm2m_client/object_device.c ****     return result;
 450:/home/baikal/workspace/C50/Huawei_IoT_Agent_Tiny_SDK_Linux//agent_tiny/lwm2m_client/object_device.c **** }
 451:/home/baikal/workspace/C50/Huawei_IoT_Agent_Tiny_SDK_Linux//agent_tiny/lwm2m_client/object_device.c **** 
 452:/home/baikal/workspace/C50/Huawei_IoT_Agent_Tiny_SDK_Linux//agent_tiny/lwm2m_client/object_device.c **** static uint8_t prv_device_discover(uint16_t instanceId,
 453:/home/baikal/workspace/C50/Huawei_IoT_Agent_Tiny_SDK_Linux//agent_tiny/lwm2m_client/object_device.c ****                                    int *numDataP,
 454:/home/baikal/workspace/C50/Huawei_IoT_Agent_Tiny_SDK_Linux//agent_tiny/lwm2m_client/object_device.c ****                                    lwm2m_data_t **dataArrayP,
 455:/home/baikal/workspace/C50/Huawei_IoT_Agent_Tiny_SDK_Linux//agent_tiny/lwm2m_client/object_device.c ****                                    lwm2m_object_t *objectP)
 456:/home/baikal/workspace/C50/Huawei_IoT_Agent_Tiny_SDK_Linux//agent_tiny/lwm2m_client/object_device.c **** {
 457:/home/baikal/workspace/C50/Huawei_IoT_Agent_Tiny_SDK_Linux//agent_tiny/lwm2m_client/object_device.c ****     uint8_t result;
 458:/home/baikal/workspace/C50/Huawei_IoT_Agent_Tiny_SDK_Linux//agent_tiny/lwm2m_client/object_device.c ****     int i;
 459:/home/baikal/workspace/C50/Huawei_IoT_Agent_Tiny_SDK_Linux//agent_tiny/lwm2m_client/object_device.c **** 
 460:/home/baikal/workspace/C50/Huawei_IoT_Agent_Tiny_SDK_Linux//agent_tiny/lwm2m_client/object_device.c ****     // this is a single instance object
 461:/home/baikal/workspace/C50/Huawei_IoT_Agent_Tiny_SDK_Linux//agent_tiny/lwm2m_client/object_device.c ****     if (instanceId != 0)
 462:/home/baikal/workspace/C50/Huawei_IoT_Agent_Tiny_SDK_Linux//agent_tiny/lwm2m_client/object_device.c ****     {
 463:/home/baikal/workspace/C50/Huawei_IoT_Agent_Tiny_SDK_Linux//agent_tiny/lwm2m_client/object_device.c ****         return COAP_404_NOT_FOUND;
 464:/home/baikal/workspace/C50/Huawei_IoT_Agent_Tiny_SDK_Linux//agent_tiny/lwm2m_client/object_device.c ****     }
 465:/home/baikal/workspace/C50/Huawei_IoT_Agent_Tiny_SDK_Linux//agent_tiny/lwm2m_client/object_device.c **** 
 466:/home/baikal/workspace/C50/Huawei_IoT_Agent_Tiny_SDK_Linux//agent_tiny/lwm2m_client/object_device.c ****     result = COAP_205_CONTENT;
 467:/home/baikal/workspace/C50/Huawei_IoT_Agent_Tiny_SDK_Linux//agent_tiny/lwm2m_client/object_device.c **** 
 468:/home/baikal/workspace/C50/Huawei_IoT_Agent_Tiny_SDK_Linux//agent_tiny/lwm2m_client/object_device.c ****     // is the server asking for the full object ?
 469:/home/baikal/workspace/C50/Huawei_IoT_Agent_Tiny_SDK_Linux//agent_tiny/lwm2m_client/object_device.c ****     if (*numDataP == 0)
 470:/home/baikal/workspace/C50/Huawei_IoT_Agent_Tiny_SDK_Linux//agent_tiny/lwm2m_client/object_device.c ****     {
 471:/home/baikal/workspace/C50/Huawei_IoT_Agent_Tiny_SDK_Linux//agent_tiny/lwm2m_client/object_device.c ****         uint16_t resList[] =
 472:/home/baikal/workspace/C50/Huawei_IoT_Agent_Tiny_SDK_Linux//agent_tiny/lwm2m_client/object_device.c ****         {
 473:/home/baikal/workspace/C50/Huawei_IoT_Agent_Tiny_SDK_Linux//agent_tiny/lwm2m_client/object_device.c ****             RES_O_MANUFACTURER,
 474:/home/baikal/workspace/C50/Huawei_IoT_Agent_Tiny_SDK_Linux//agent_tiny/lwm2m_client/object_device.c ****             RES_O_MODEL_NUMBER,
GAS LISTING /tmp/ccTB4Y6B.s 			page 12


 475:/home/baikal/workspace/C50/Huawei_IoT_Agent_Tiny_SDK_Linux//agent_tiny/lwm2m_client/object_device.c ****             RES_O_SERIAL_NUMBER,
 476:/home/baikal/workspace/C50/Huawei_IoT_Agent_Tiny_SDK_Linux//agent_tiny/lwm2m_client/object_device.c ****             RES_O_FIRMWARE_VERSION,
 477:/home/baikal/workspace/C50/Huawei_IoT_Agent_Tiny_SDK_Linux//agent_tiny/lwm2m_client/object_device.c ****             RES_M_REBOOT,
 478:/home/baikal/workspace/C50/Huawei_IoT_Agent_Tiny_SDK_Linux//agent_tiny/lwm2m_client/object_device.c ****             RES_O_FACTORY_RESET,
 479:/home/baikal/workspace/C50/Huawei_IoT_Agent_Tiny_SDK_Linux//agent_tiny/lwm2m_client/object_device.c ****             RES_O_AVL_POWER_SOURCES,
 480:/home/baikal/workspace/C50/Huawei_IoT_Agent_Tiny_SDK_Linux//agent_tiny/lwm2m_client/object_device.c ****             RES_O_POWER_SOURCE_VOLTAGE,
 481:/home/baikal/workspace/C50/Huawei_IoT_Agent_Tiny_SDK_Linux//agent_tiny/lwm2m_client/object_device.c ****             RES_O_POWER_SOURCE_CURRENT,
 482:/home/baikal/workspace/C50/Huawei_IoT_Agent_Tiny_SDK_Linux//agent_tiny/lwm2m_client/object_device.c ****             RES_O_BATTERY_LEVEL,
 483:/home/baikal/workspace/C50/Huawei_IoT_Agent_Tiny_SDK_Linux//agent_tiny/lwm2m_client/object_device.c ****             RES_O_MEMORY_FREE,
 484:/home/baikal/workspace/C50/Huawei_IoT_Agent_Tiny_SDK_Linux//agent_tiny/lwm2m_client/object_device.c ****             RES_M_ERROR_CODE,
 485:/home/baikal/workspace/C50/Huawei_IoT_Agent_Tiny_SDK_Linux//agent_tiny/lwm2m_client/object_device.c ****             RES_O_RESET_ERROR_CODE,
 486:/home/baikal/workspace/C50/Huawei_IoT_Agent_Tiny_SDK_Linux//agent_tiny/lwm2m_client/object_device.c ****             RES_O_CURRENT_TIME,
 487:/home/baikal/workspace/C50/Huawei_IoT_Agent_Tiny_SDK_Linux//agent_tiny/lwm2m_client/object_device.c ****             RES_O_UTC_OFFSET,
 488:/home/baikal/workspace/C50/Huawei_IoT_Agent_Tiny_SDK_Linux//agent_tiny/lwm2m_client/object_device.c ****             RES_O_TIMEZONE,
 489:/home/baikal/workspace/C50/Huawei_IoT_Agent_Tiny_SDK_Linux//agent_tiny/lwm2m_client/object_device.c ****             RES_M_BINDING_MODES
 490:/home/baikal/workspace/C50/Huawei_IoT_Agent_Tiny_SDK_Linux//agent_tiny/lwm2m_client/object_device.c ****         };
 491:/home/baikal/workspace/C50/Huawei_IoT_Agent_Tiny_SDK_Linux//agent_tiny/lwm2m_client/object_device.c ****         int nbRes = sizeof(resList) / sizeof(uint16_t);
 492:/home/baikal/workspace/C50/Huawei_IoT_Agent_Tiny_SDK_Linux//agent_tiny/lwm2m_client/object_device.c **** 
 493:/home/baikal/workspace/C50/Huawei_IoT_Agent_Tiny_SDK_Linux//agent_tiny/lwm2m_client/object_device.c ****         *dataArrayP = lwm2m_data_new(nbRes);
 494:/home/baikal/workspace/C50/Huawei_IoT_Agent_Tiny_SDK_Linux//agent_tiny/lwm2m_client/object_device.c ****         if (*dataArrayP == NULL) return COAP_500_INTERNAL_SERVER_ERROR;
 495:/home/baikal/workspace/C50/Huawei_IoT_Agent_Tiny_SDK_Linux//agent_tiny/lwm2m_client/object_device.c ****         *numDataP = nbRes;
 496:/home/baikal/workspace/C50/Huawei_IoT_Agent_Tiny_SDK_Linux//agent_tiny/lwm2m_client/object_device.c ****         for (i = 0; i < nbRes; i++)
 497:/home/baikal/workspace/C50/Huawei_IoT_Agent_Tiny_SDK_Linux//agent_tiny/lwm2m_client/object_device.c ****         {
 498:/home/baikal/workspace/C50/Huawei_IoT_Agent_Tiny_SDK_Linux//agent_tiny/lwm2m_client/object_device.c ****             (*dataArrayP)[i].id = resList[i];
 499:/home/baikal/workspace/C50/Huawei_IoT_Agent_Tiny_SDK_Linux//agent_tiny/lwm2m_client/object_device.c ****         }
 500:/home/baikal/workspace/C50/Huawei_IoT_Agent_Tiny_SDK_Linux//agent_tiny/lwm2m_client/object_device.c ****     }
 501:/home/baikal/workspace/C50/Huawei_IoT_Agent_Tiny_SDK_Linux//agent_tiny/lwm2m_client/object_device.c ****     else
 502:/home/baikal/workspace/C50/Huawei_IoT_Agent_Tiny_SDK_Linux//agent_tiny/lwm2m_client/object_device.c ****     {
 503:/home/baikal/workspace/C50/Huawei_IoT_Agent_Tiny_SDK_Linux//agent_tiny/lwm2m_client/object_device.c ****         for (i = 0; i < *numDataP && result == COAP_205_CONTENT; i++)
 504:/home/baikal/workspace/C50/Huawei_IoT_Agent_Tiny_SDK_Linux//agent_tiny/lwm2m_client/object_device.c ****         {
 505:/home/baikal/workspace/C50/Huawei_IoT_Agent_Tiny_SDK_Linux//agent_tiny/lwm2m_client/object_device.c ****             switch ((*dataArrayP)[i].id)
 506:/home/baikal/workspace/C50/Huawei_IoT_Agent_Tiny_SDK_Linux//agent_tiny/lwm2m_client/object_device.c ****             {
 507:/home/baikal/workspace/C50/Huawei_IoT_Agent_Tiny_SDK_Linux//agent_tiny/lwm2m_client/object_device.c ****             case RES_O_MANUFACTURER:
 508:/home/baikal/workspace/C50/Huawei_IoT_Agent_Tiny_SDK_Linux//agent_tiny/lwm2m_client/object_device.c ****             case RES_O_MODEL_NUMBER:
 509:/home/baikal/workspace/C50/Huawei_IoT_Agent_Tiny_SDK_Linux//agent_tiny/lwm2m_client/object_device.c ****             case RES_O_SERIAL_NUMBER:
 510:/home/baikal/workspace/C50/Huawei_IoT_Agent_Tiny_SDK_Linux//agent_tiny/lwm2m_client/object_device.c ****             case RES_O_FIRMWARE_VERSION:
 511:/home/baikal/workspace/C50/Huawei_IoT_Agent_Tiny_SDK_Linux//agent_tiny/lwm2m_client/object_device.c ****             case RES_M_REBOOT:
 512:/home/baikal/workspace/C50/Huawei_IoT_Agent_Tiny_SDK_Linux//agent_tiny/lwm2m_client/object_device.c ****             case RES_O_FACTORY_RESET:
 513:/home/baikal/workspace/C50/Huawei_IoT_Agent_Tiny_SDK_Linux//agent_tiny/lwm2m_client/object_device.c ****             case RES_O_AVL_POWER_SOURCES:
 514:/home/baikal/workspace/C50/Huawei_IoT_Agent_Tiny_SDK_Linux//agent_tiny/lwm2m_client/object_device.c ****             case RES_O_POWER_SOURCE_VOLTAGE:
 515:/home/baikal/workspace/C50/Huawei_IoT_Agent_Tiny_SDK_Linux//agent_tiny/lwm2m_client/object_device.c ****             case RES_O_POWER_SOURCE_CURRENT:
 516:/home/baikal/workspace/C50/Huawei_IoT_Agent_Tiny_SDK_Linux//agent_tiny/lwm2m_client/object_device.c ****             case RES_O_BATTERY_LEVEL:
 517:/home/baikal/workspace/C50/Huawei_IoT_Agent_Tiny_SDK_Linux//agent_tiny/lwm2m_client/object_device.c ****             case RES_O_MEMORY_FREE:
 518:/home/baikal/workspace/C50/Huawei_IoT_Agent_Tiny_SDK_Linux//agent_tiny/lwm2m_client/object_device.c ****             case RES_M_ERROR_CODE:
 519:/home/baikal/workspace/C50/Huawei_IoT_Agent_Tiny_SDK_Linux//agent_tiny/lwm2m_client/object_device.c ****             case RES_O_RESET_ERROR_CODE:
 520:/home/baikal/workspace/C50/Huawei_IoT_Agent_Tiny_SDK_Linux//agent_tiny/lwm2m_client/object_device.c ****             case RES_O_CURRENT_TIME:
 521:/home/baikal/workspace/C50/Huawei_IoT_Agent_Tiny_SDK_Linux//agent_tiny/lwm2m_client/object_device.c ****             case RES_O_UTC_OFFSET:
 522:/home/baikal/workspace/C50/Huawei_IoT_Agent_Tiny_SDK_Linux//agent_tiny/lwm2m_client/object_device.c ****             case RES_O_TIMEZONE:
 523:/home/baikal/workspace/C50/Huawei_IoT_Agent_Tiny_SDK_Linux//agent_tiny/lwm2m_client/object_device.c ****             case RES_M_BINDING_MODES:
 524:/home/baikal/workspace/C50/Huawei_IoT_Agent_Tiny_SDK_Linux//agent_tiny/lwm2m_client/object_device.c ****                 break;
 525:/home/baikal/workspace/C50/Huawei_IoT_Agent_Tiny_SDK_Linux//agent_tiny/lwm2m_client/object_device.c ****             default:
 526:/home/baikal/workspace/C50/Huawei_IoT_Agent_Tiny_SDK_Linux//agent_tiny/lwm2m_client/object_device.c ****                 result = COAP_404_NOT_FOUND;
 527:/home/baikal/workspace/C50/Huawei_IoT_Agent_Tiny_SDK_Linux//agent_tiny/lwm2m_client/object_device.c ****             }
 528:/home/baikal/workspace/C50/Huawei_IoT_Agent_Tiny_SDK_Linux//agent_tiny/lwm2m_client/object_device.c ****         }
 529:/home/baikal/workspace/C50/Huawei_IoT_Agent_Tiny_SDK_Linux//agent_tiny/lwm2m_client/object_device.c ****     }
 530:/home/baikal/workspace/C50/Huawei_IoT_Agent_Tiny_SDK_Linux//agent_tiny/lwm2m_client/object_device.c **** 
 531:/home/baikal/workspace/C50/Huawei_IoT_Agent_Tiny_SDK_Linux//agent_tiny/lwm2m_client/object_device.c ****     return result;
GAS LISTING /tmp/ccTB4Y6B.s 			page 13


 532:/home/baikal/workspace/C50/Huawei_IoT_Agent_Tiny_SDK_Linux//agent_tiny/lwm2m_client/object_device.c **** }
 533:/home/baikal/workspace/C50/Huawei_IoT_Agent_Tiny_SDK_Linux//agent_tiny/lwm2m_client/object_device.c **** 
 534:/home/baikal/workspace/C50/Huawei_IoT_Agent_Tiny_SDK_Linux//agent_tiny/lwm2m_client/object_device.c **** static uint8_t prv_device_write(uint16_t instanceId,
 535:/home/baikal/workspace/C50/Huawei_IoT_Agent_Tiny_SDK_Linux//agent_tiny/lwm2m_client/object_device.c ****                                 int numData,
 536:/home/baikal/workspace/C50/Huawei_IoT_Agent_Tiny_SDK_Linux//agent_tiny/lwm2m_client/object_device.c ****                                 lwm2m_data_t *dataArray,
 537:/home/baikal/workspace/C50/Huawei_IoT_Agent_Tiny_SDK_Linux//agent_tiny/lwm2m_client/object_device.c ****                                 lwm2m_object_t *objectP)
 538:/home/baikal/workspace/C50/Huawei_IoT_Agent_Tiny_SDK_Linux//agent_tiny/lwm2m_client/object_device.c **** {
 539:/home/baikal/workspace/C50/Huawei_IoT_Agent_Tiny_SDK_Linux//agent_tiny/lwm2m_client/object_device.c ****     int i;
 540:/home/baikal/workspace/C50/Huawei_IoT_Agent_Tiny_SDK_Linux//agent_tiny/lwm2m_client/object_device.c ****     uint8_t result;
 541:/home/baikal/workspace/C50/Huawei_IoT_Agent_Tiny_SDK_Linux//agent_tiny/lwm2m_client/object_device.c ****     int64_t current_time;
 542:/home/baikal/workspace/C50/Huawei_IoT_Agent_Tiny_SDK_Linux//agent_tiny/lwm2m_client/object_device.c **** 
 543:/home/baikal/workspace/C50/Huawei_IoT_Agent_Tiny_SDK_Linux//agent_tiny/lwm2m_client/object_device.c ****     // this is a single instance object
 544:/home/baikal/workspace/C50/Huawei_IoT_Agent_Tiny_SDK_Linux//agent_tiny/lwm2m_client/object_device.c ****     if (instanceId != 0)
 545:/home/baikal/workspace/C50/Huawei_IoT_Agent_Tiny_SDK_Linux//agent_tiny/lwm2m_client/object_device.c ****     {
 546:/home/baikal/workspace/C50/Huawei_IoT_Agent_Tiny_SDK_Linux//agent_tiny/lwm2m_client/object_device.c ****         return COAP_404_NOT_FOUND;
 547:/home/baikal/workspace/C50/Huawei_IoT_Agent_Tiny_SDK_Linux//agent_tiny/lwm2m_client/object_device.c ****     }
 548:/home/baikal/workspace/C50/Huawei_IoT_Agent_Tiny_SDK_Linux//agent_tiny/lwm2m_client/object_device.c **** 
 549:/home/baikal/workspace/C50/Huawei_IoT_Agent_Tiny_SDK_Linux//agent_tiny/lwm2m_client/object_device.c ****     i = 0;
 550:/home/baikal/workspace/C50/Huawei_IoT_Agent_Tiny_SDK_Linux//agent_tiny/lwm2m_client/object_device.c **** 
 551:/home/baikal/workspace/C50/Huawei_IoT_Agent_Tiny_SDK_Linux//agent_tiny/lwm2m_client/object_device.c ****     do
 552:/home/baikal/workspace/C50/Huawei_IoT_Agent_Tiny_SDK_Linux//agent_tiny/lwm2m_client/object_device.c ****     {
 553:/home/baikal/workspace/C50/Huawei_IoT_Agent_Tiny_SDK_Linux//agent_tiny/lwm2m_client/object_device.c ****         switch (dataArray[i].id)
 554:/home/baikal/workspace/C50/Huawei_IoT_Agent_Tiny_SDK_Linux//agent_tiny/lwm2m_client/object_device.c ****         {
 555:/home/baikal/workspace/C50/Huawei_IoT_Agent_Tiny_SDK_Linux//agent_tiny/lwm2m_client/object_device.c ****         case RES_O_CURRENT_TIME:
 556:/home/baikal/workspace/C50/Huawei_IoT_Agent_Tiny_SDK_Linux//agent_tiny/lwm2m_client/object_device.c ****             if (1 == lwm2m_data_decode_int(dataArray + i, &current_time))
 557:/home/baikal/workspace/C50/Huawei_IoT_Agent_Tiny_SDK_Linux//agent_tiny/lwm2m_client/object_device.c ****             {
 558:/home/baikal/workspace/C50/Huawei_IoT_Agent_Tiny_SDK_Linux//agent_tiny/lwm2m_client/object_device.c ****                 result = atiny_cmd_ioctl(ATINY_SET_CURRENT_TIME, (char *)&current_time, sizeof(int6
 559:/home/baikal/workspace/C50/Huawei_IoT_Agent_Tiny_SDK_Linux//agent_tiny/lwm2m_client/object_device.c ****                 if(result == ATINY_OK)
 560:/home/baikal/workspace/C50/Huawei_IoT_Agent_Tiny_SDK_Linux//agent_tiny/lwm2m_client/object_device.c ****                 {
 561:/home/baikal/workspace/C50/Huawei_IoT_Agent_Tiny_SDK_Linux//agent_tiny/lwm2m_client/object_device.c ****                     return COAP_204_CHANGED;
 562:/home/baikal/workspace/C50/Huawei_IoT_Agent_Tiny_SDK_Linux//agent_tiny/lwm2m_client/object_device.c ****                 }
 563:/home/baikal/workspace/C50/Huawei_IoT_Agent_Tiny_SDK_Linux//agent_tiny/lwm2m_client/object_device.c ****                 else
 564:/home/baikal/workspace/C50/Huawei_IoT_Agent_Tiny_SDK_Linux//agent_tiny/lwm2m_client/object_device.c ****                 {
 565:/home/baikal/workspace/C50/Huawei_IoT_Agent_Tiny_SDK_Linux//agent_tiny/lwm2m_client/object_device.c ****                     return COAP_400_BAD_REQUEST;
 566:/home/baikal/workspace/C50/Huawei_IoT_Agent_Tiny_SDK_Linux//agent_tiny/lwm2m_client/object_device.c ****                 }
 567:/home/baikal/workspace/C50/Huawei_IoT_Agent_Tiny_SDK_Linux//agent_tiny/lwm2m_client/object_device.c ****             }
 568:/home/baikal/workspace/C50/Huawei_IoT_Agent_Tiny_SDK_Linux//agent_tiny/lwm2m_client/object_device.c ****             else
 569:/home/baikal/workspace/C50/Huawei_IoT_Agent_Tiny_SDK_Linux//agent_tiny/lwm2m_client/object_device.c ****             {
 570:/home/baikal/workspace/C50/Huawei_IoT_Agent_Tiny_SDK_Linux//agent_tiny/lwm2m_client/object_device.c ****                 result = COAP_400_BAD_REQUEST;
 571:/home/baikal/workspace/C50/Huawei_IoT_Agent_Tiny_SDK_Linux//agent_tiny/lwm2m_client/object_device.c ****             }
 572:/home/baikal/workspace/C50/Huawei_IoT_Agent_Tiny_SDK_Linux//agent_tiny/lwm2m_client/object_device.c ****             break;
 573:/home/baikal/workspace/C50/Huawei_IoT_Agent_Tiny_SDK_Linux//agent_tiny/lwm2m_client/object_device.c **** 
 574:/home/baikal/workspace/C50/Huawei_IoT_Agent_Tiny_SDK_Linux//agent_tiny/lwm2m_client/object_device.c ****         case RES_O_UTC_OFFSET:
 575:/home/baikal/workspace/C50/Huawei_IoT_Agent_Tiny_SDK_Linux//agent_tiny/lwm2m_client/object_device.c ****             if (1 == prv_check_time_offset((char *)dataArray[i].value.asBuffer.buffer, dataArray[i]
 576:/home/baikal/workspace/C50/Huawei_IoT_Agent_Tiny_SDK_Linux//agent_tiny/lwm2m_client/object_device.c ****             {
 577:/home/baikal/workspace/C50/Huawei_IoT_Agent_Tiny_SDK_Linux//agent_tiny/lwm2m_client/object_device.c ****                 result = atiny_cmd_ioctl(ATINY_SET_UTC_OFFSET, (char *)dataArray[i].value.asBuffer.
 578:/home/baikal/workspace/C50/Huawei_IoT_Agent_Tiny_SDK_Linux//agent_tiny/lwm2m_client/object_device.c ****                 if(result == ATINY_OK)
 579:/home/baikal/workspace/C50/Huawei_IoT_Agent_Tiny_SDK_Linux//agent_tiny/lwm2m_client/object_device.c ****                 {
 580:/home/baikal/workspace/C50/Huawei_IoT_Agent_Tiny_SDK_Linux//agent_tiny/lwm2m_client/object_device.c ****                     return COAP_204_CHANGED;
 581:/home/baikal/workspace/C50/Huawei_IoT_Agent_Tiny_SDK_Linux//agent_tiny/lwm2m_client/object_device.c ****                 }
 582:/home/baikal/workspace/C50/Huawei_IoT_Agent_Tiny_SDK_Linux//agent_tiny/lwm2m_client/object_device.c ****                 else
 583:/home/baikal/workspace/C50/Huawei_IoT_Agent_Tiny_SDK_Linux//agent_tiny/lwm2m_client/object_device.c ****                 {
 584:/home/baikal/workspace/C50/Huawei_IoT_Agent_Tiny_SDK_Linux//agent_tiny/lwm2m_client/object_device.c ****                     return COAP_400_BAD_REQUEST;
 585:/home/baikal/workspace/C50/Huawei_IoT_Agent_Tiny_SDK_Linux//agent_tiny/lwm2m_client/object_device.c ****                 }
 586:/home/baikal/workspace/C50/Huawei_IoT_Agent_Tiny_SDK_Linux//agent_tiny/lwm2m_client/object_device.c ****             }
 587:/home/baikal/workspace/C50/Huawei_IoT_Agent_Tiny_SDK_Linux//agent_tiny/lwm2m_client/object_device.c ****             else
 588:/home/baikal/workspace/C50/Huawei_IoT_Agent_Tiny_SDK_Linux//agent_tiny/lwm2m_client/object_device.c ****             {
GAS LISTING /tmp/ccTB4Y6B.s 			page 14


 589:/home/baikal/workspace/C50/Huawei_IoT_Agent_Tiny_SDK_Linux//agent_tiny/lwm2m_client/object_device.c ****                 result = COAP_400_BAD_REQUEST;
 590:/home/baikal/workspace/C50/Huawei_IoT_Agent_Tiny_SDK_Linux//agent_tiny/lwm2m_client/object_device.c ****             }
 591:/home/baikal/workspace/C50/Huawei_IoT_Agent_Tiny_SDK_Linux//agent_tiny/lwm2m_client/object_device.c ****             break;
 592:/home/baikal/workspace/C50/Huawei_IoT_Agent_Tiny_SDK_Linux//agent_tiny/lwm2m_client/object_device.c **** 
 593:/home/baikal/workspace/C50/Huawei_IoT_Agent_Tiny_SDK_Linux//agent_tiny/lwm2m_client/object_device.c ****         case RES_O_TIMEZONE:
 594:/home/baikal/workspace/C50/Huawei_IoT_Agent_Tiny_SDK_Linux//agent_tiny/lwm2m_client/object_device.c ****             result = atiny_cmd_ioctl(ATINY_SET_TIMEZONE, (char *)dataArray[i].value.asBuffer.buffer
 595:/home/baikal/workspace/C50/Huawei_IoT_Agent_Tiny_SDK_Linux//agent_tiny/lwm2m_client/object_device.c ****             if(result == ATINY_OK)
 596:/home/baikal/workspace/C50/Huawei_IoT_Agent_Tiny_SDK_Linux//agent_tiny/lwm2m_client/object_device.c ****             {
 597:/home/baikal/workspace/C50/Huawei_IoT_Agent_Tiny_SDK_Linux//agent_tiny/lwm2m_client/object_device.c ****                 return COAP_204_CHANGED;
 598:/home/baikal/workspace/C50/Huawei_IoT_Agent_Tiny_SDK_Linux//agent_tiny/lwm2m_client/object_device.c ****             }
 599:/home/baikal/workspace/C50/Huawei_IoT_Agent_Tiny_SDK_Linux//agent_tiny/lwm2m_client/object_device.c ****             else
 600:/home/baikal/workspace/C50/Huawei_IoT_Agent_Tiny_SDK_Linux//agent_tiny/lwm2m_client/object_device.c ****             {
 601:/home/baikal/workspace/C50/Huawei_IoT_Agent_Tiny_SDK_Linux//agent_tiny/lwm2m_client/object_device.c ****                 return COAP_400_BAD_REQUEST;
 602:/home/baikal/workspace/C50/Huawei_IoT_Agent_Tiny_SDK_Linux//agent_tiny/lwm2m_client/object_device.c ****             }
 603:/home/baikal/workspace/C50/Huawei_IoT_Agent_Tiny_SDK_Linux//agent_tiny/lwm2m_client/object_device.c ****         //break;
 604:/home/baikal/workspace/C50/Huawei_IoT_Agent_Tiny_SDK_Linux//agent_tiny/lwm2m_client/object_device.c **** 
 605:/home/baikal/workspace/C50/Huawei_IoT_Agent_Tiny_SDK_Linux//agent_tiny/lwm2m_client/object_device.c ****         default:
 606:/home/baikal/workspace/C50/Huawei_IoT_Agent_Tiny_SDK_Linux//agent_tiny/lwm2m_client/object_device.c ****             result = COAP_405_METHOD_NOT_ALLOWED;
 607:/home/baikal/workspace/C50/Huawei_IoT_Agent_Tiny_SDK_Linux//agent_tiny/lwm2m_client/object_device.c ****         }
 608:/home/baikal/workspace/C50/Huawei_IoT_Agent_Tiny_SDK_Linux//agent_tiny/lwm2m_client/object_device.c **** 
 609:/home/baikal/workspace/C50/Huawei_IoT_Agent_Tiny_SDK_Linux//agent_tiny/lwm2m_client/object_device.c ****         i++;
 610:/home/baikal/workspace/C50/Huawei_IoT_Agent_Tiny_SDK_Linux//agent_tiny/lwm2m_client/object_device.c ****     }
 611:/home/baikal/workspace/C50/Huawei_IoT_Agent_Tiny_SDK_Linux//agent_tiny/lwm2m_client/object_device.c ****     while (i < numData && result == COAP_204_CHANGED);
 612:/home/baikal/workspace/C50/Huawei_IoT_Agent_Tiny_SDK_Linux//agent_tiny/lwm2m_client/object_device.c **** 
 613:/home/baikal/workspace/C50/Huawei_IoT_Agent_Tiny_SDK_Linux//agent_tiny/lwm2m_client/object_device.c ****     return result;
 614:/home/baikal/workspace/C50/Huawei_IoT_Agent_Tiny_SDK_Linux//agent_tiny/lwm2m_client/object_device.c **** }
 615:/home/baikal/workspace/C50/Huawei_IoT_Agent_Tiny_SDK_Linux//agent_tiny/lwm2m_client/object_device.c **** 
 616:/home/baikal/workspace/C50/Huawei_IoT_Agent_Tiny_SDK_Linux//agent_tiny/lwm2m_client/object_device.c **** static uint8_t prv_device_execute(uint16_t instanceId,
 617:/home/baikal/workspace/C50/Huawei_IoT_Agent_Tiny_SDK_Linux//agent_tiny/lwm2m_client/object_device.c ****                                   uint16_t resourceId,
 618:/home/baikal/workspace/C50/Huawei_IoT_Agent_Tiny_SDK_Linux//agent_tiny/lwm2m_client/object_device.c ****                                   uint8_t *buffer,
 619:/home/baikal/workspace/C50/Huawei_IoT_Agent_Tiny_SDK_Linux//agent_tiny/lwm2m_client/object_device.c ****                                   int length,
 620:/home/baikal/workspace/C50/Huawei_IoT_Agent_Tiny_SDK_Linux//agent_tiny/lwm2m_client/object_device.c ****                                   lwm2m_object_t *objectP)
 621:/home/baikal/workspace/C50/Huawei_IoT_Agent_Tiny_SDK_Linux//agent_tiny/lwm2m_client/object_device.c **** {
 134              		.loc 1 621 0
 135              		.cfi_startproc
 136              	.LVL5:
 137 0000 4883EC08 		subq	$8, %rsp
 138              	.LCFI0:
 139              		.cfi_def_cfa_offset 16
 622:/home/baikal/workspace/C50/Huawei_IoT_Agent_Tiny_SDK_Linux//agent_tiny/lwm2m_client/object_device.c ****     int result;
 623:/home/baikal/workspace/C50/Huawei_IoT_Agent_Tiny_SDK_Linux//agent_tiny/lwm2m_client/object_device.c ****     // this is a single instance object
 624:/home/baikal/workspace/C50/Huawei_IoT_Agent_Tiny_SDK_Linux//agent_tiny/lwm2m_client/object_device.c ****     if (instanceId != 0)
 140              		.loc 1 624 0
 141 0004 6685FF   		testw	%di, %di
 142 0007 7565     		jne	.L27
 625:/home/baikal/workspace/C50/Huawei_IoT_Agent_Tiny_SDK_Linux//agent_tiny/lwm2m_client/object_device.c ****     {
 626:/home/baikal/workspace/C50/Huawei_IoT_Agent_Tiny_SDK_Linux//agent_tiny/lwm2m_client/object_device.c ****         return COAP_404_NOT_FOUND;
 627:/home/baikal/workspace/C50/Huawei_IoT_Agent_Tiny_SDK_Linux//agent_tiny/lwm2m_client/object_device.c ****     }
 628:/home/baikal/workspace/C50/Huawei_IoT_Agent_Tiny_SDK_Linux//agent_tiny/lwm2m_client/object_device.c **** 
 629:/home/baikal/workspace/C50/Huawei_IoT_Agent_Tiny_SDK_Linux//agent_tiny/lwm2m_client/object_device.c ****     if (length != 0) return COAP_400_BAD_REQUEST;
 143              		.loc 1 629 0
 144 0009 85C9     		testl	%ecx, %ecx
 145 000b 7568     		jne	.L28
 630:/home/baikal/workspace/C50/Huawei_IoT_Agent_Tiny_SDK_Linux//agent_tiny/lwm2m_client/object_device.c **** 
 631:/home/baikal/workspace/C50/Huawei_IoT_Agent_Tiny_SDK_Linux//agent_tiny/lwm2m_client/object_device.c ****     switch (resourceId)
 146              		.loc 1 631 0
 147 000d 6683FE05 		cmpw	$5, %si
GAS LISTING /tmp/ccTB4Y6B.s 			page 15


 148 0011 741D     		je	.L24
 149 0013 6683FE0C 		cmpw	$12, %si
 150 0017 7436     		je	.L25
 151 0019 6683FE04 		cmpw	$4, %si
 152 001d 755D     		jne	.L32
 632:/home/baikal/workspace/C50/Huawei_IoT_Agent_Tiny_SDK_Linux//agent_tiny/lwm2m_client/object_device.c ****     {
 633:/home/baikal/workspace/C50/Huawei_IoT_Agent_Tiny_SDK_Linux//agent_tiny/lwm2m_client/object_device.c ****     case RES_M_REBOOT:
 634:/home/baikal/workspace/C50/Huawei_IoT_Agent_Tiny_SDK_Linux//agent_tiny/lwm2m_client/object_device.c ****         g_reboot = 1;
 153              		.loc 1 634 0
 154 001f C7050000 		movl	$1, g_reboot(%rip)
 154      00000100 
 154      0000
 635:/home/baikal/workspace/C50/Huawei_IoT_Agent_Tiny_SDK_Linux//agent_tiny/lwm2m_client/object_device.c ****         return COAP_204_CHANGED;
 155              		.loc 1 635 0
 156 0029 B8440000 		movl	$68, %eax
 156      00
 157 002e EB5F     		jmp	.L23
 158              	.L24:
 636:/home/baikal/workspace/C50/Huawei_IoT_Agent_Tiny_SDK_Linux//agent_tiny/lwm2m_client/object_device.c ****     case RES_O_FACTORY_RESET:
 637:/home/baikal/workspace/C50/Huawei_IoT_Agent_Tiny_SDK_Linux//agent_tiny/lwm2m_client/object_device.c ****         result = atiny_cmd_ioctl(ATINY_DO_FACTORY_RESET, NULL, 0);
 159              		.loc 1 637 0
 160 0030 BA000000 		movl	$0, %edx
 160      00
 161              	.LVL6:
 162 0035 BE000000 		movl	$0, %esi
 162      00
 163              	.LVL7:
 164 003a BF050000 		movl	$5, %edi
 164      00
 165              	.LVL8:
 166 003f E8000000 		call	atiny_cmd_ioctl
 166      00
 167              	.LVL9:
 638:/home/baikal/workspace/C50/Huawei_IoT_Agent_Tiny_SDK_Linux//agent_tiny/lwm2m_client/object_device.c ****         if(result == ATINY_OK)
 168              		.loc 1 638 0
 169 0044 85C0     		testl	%eax, %eax
 170 0046 753B     		jne	.L30
 639:/home/baikal/workspace/C50/Huawei_IoT_Agent_Tiny_SDK_Linux//agent_tiny/lwm2m_client/object_device.c ****         {
 640:/home/baikal/workspace/C50/Huawei_IoT_Agent_Tiny_SDK_Linux//agent_tiny/lwm2m_client/object_device.c ****             return COAP_204_CHANGED;
 171              		.loc 1 640 0
 172 0048 B8440000 		movl	$68, %eax
 172      00
 173              	.LVL10:
 174 004d EB40     		jmp	.L23
 175              	.LVL11:
 176              	.L25:
 641:/home/baikal/workspace/C50/Huawei_IoT_Agent_Tiny_SDK_Linux//agent_tiny/lwm2m_client/object_device.c ****         }
 642:/home/baikal/workspace/C50/Huawei_IoT_Agent_Tiny_SDK_Linux//agent_tiny/lwm2m_client/object_device.c ****         else
 643:/home/baikal/workspace/C50/Huawei_IoT_Agent_Tiny_SDK_Linux//agent_tiny/lwm2m_client/object_device.c ****         {
 644:/home/baikal/workspace/C50/Huawei_IoT_Agent_Tiny_SDK_Linux//agent_tiny/lwm2m_client/object_device.c ****             return COAP_503_SERVICE_UNAVAILABLE;
 645:/home/baikal/workspace/C50/Huawei_IoT_Agent_Tiny_SDK_Linux//agent_tiny/lwm2m_client/object_device.c ****         }
 646:/home/baikal/workspace/C50/Huawei_IoT_Agent_Tiny_SDK_Linux//agent_tiny/lwm2m_client/object_device.c ****     case RES_O_RESET_ERROR_CODE:
 647:/home/baikal/workspace/C50/Huawei_IoT_Agent_Tiny_SDK_Linux//agent_tiny/lwm2m_client/object_device.c ****         result = atiny_cmd_ioctl(ATINY_DO_RESET_DEV_ERR, NULL, 0);
 177              		.loc 1 647 0
 178 004f BA000000 		movl	$0, %edx
 178      00
 179              	.LVL12:
GAS LISTING /tmp/ccTB4Y6B.s 			page 16


 180 0054 BE000000 		movl	$0, %esi
 180      00
 181              	.LVL13:
 182 0059 BF0C0000 		movl	$12, %edi
 182      00
 183              	.LVL14:
 184 005e E8000000 		call	atiny_cmd_ioctl
 184      00
 185              	.LVL15:
 648:/home/baikal/workspace/C50/Huawei_IoT_Agent_Tiny_SDK_Linux//agent_tiny/lwm2m_client/object_device.c ****         if(result == ATINY_OK)
 186              		.loc 1 648 0
 187 0063 85C0     		testl	%eax, %eax
 188 0065 7523     		jne	.L31
 649:/home/baikal/workspace/C50/Huawei_IoT_Agent_Tiny_SDK_Linux//agent_tiny/lwm2m_client/object_device.c ****         {
 650:/home/baikal/workspace/C50/Huawei_IoT_Agent_Tiny_SDK_Linux//agent_tiny/lwm2m_client/object_device.c ****             return COAP_204_CHANGED;
 189              		.loc 1 650 0
 190 0067 B8440000 		movl	$68, %eax
 190      00
 191              	.LVL16:
 192 006c EB21     		jmp	.L23
 193              	.LVL17:
 194              	.L27:
 626:/home/baikal/workspace/C50/Huawei_IoT_Agent_Tiny_SDK_Linux//agent_tiny/lwm2m_client/object_device.c ****     }
 195              		.loc 1 626 0
 196 006e B884FFFF 		movl	$-124, %eax
 196      FF
 197 0073 EB1A     		jmp	.L23
 198              	.L28:
 629:/home/baikal/workspace/C50/Huawei_IoT_Agent_Tiny_SDK_Linux//agent_tiny/lwm2m_client/object_device.c **** 
 199              		.loc 1 629 0
 200 0075 B880FFFF 		movl	$-128, %eax
 200      FF
 201 007a EB13     		jmp	.L23
 202              	.L32:
 651:/home/baikal/workspace/C50/Huawei_IoT_Agent_Tiny_SDK_Linux//agent_tiny/lwm2m_client/object_device.c ****         }
 652:/home/baikal/workspace/C50/Huawei_IoT_Agent_Tiny_SDK_Linux//agent_tiny/lwm2m_client/object_device.c ****         else
 653:/home/baikal/workspace/C50/Huawei_IoT_Agent_Tiny_SDK_Linux//agent_tiny/lwm2m_client/object_device.c ****         {
 654:/home/baikal/workspace/C50/Huawei_IoT_Agent_Tiny_SDK_Linux//agent_tiny/lwm2m_client/object_device.c ****             return COAP_503_SERVICE_UNAVAILABLE;
 655:/home/baikal/workspace/C50/Huawei_IoT_Agent_Tiny_SDK_Linux//agent_tiny/lwm2m_client/object_device.c ****         }
 656:/home/baikal/workspace/C50/Huawei_IoT_Agent_Tiny_SDK_Linux//agent_tiny/lwm2m_client/object_device.c ****     default:
 657:/home/baikal/workspace/C50/Huawei_IoT_Agent_Tiny_SDK_Linux//agent_tiny/lwm2m_client/object_device.c ****         return COAP_405_METHOD_NOT_ALLOWED;
 203              		.loc 1 657 0
 204 007c B885FFFF 		movl	$-123, %eax
 204      FF
 205 0081 EB0C     		jmp	.L23
 206              	.LVL18:
 207              	.L30:
 644:/home/baikal/workspace/C50/Huawei_IoT_Agent_Tiny_SDK_Linux//agent_tiny/lwm2m_client/object_device.c ****         }
 208              		.loc 1 644 0
 209 0083 B8A3FFFF 		movl	$-93, %eax
 209      FF
 210              	.LVL19:
 211 0088 EB05     		jmp	.L23
 212              	.LVL20:
 213              	.L31:
 654:/home/baikal/workspace/C50/Huawei_IoT_Agent_Tiny_SDK_Linux//agent_tiny/lwm2m_client/object_device.c ****         }
 214              		.loc 1 654 0
GAS LISTING /tmp/ccTB4Y6B.s 			page 17


 215 008a B8A3FFFF 		movl	$-93, %eax
 215      FF
 216              	.LVL21:
 217              	.L23:
 658:/home/baikal/workspace/C50/Huawei_IoT_Agent_Tiny_SDK_Linux//agent_tiny/lwm2m_client/object_device.c ****     }
 659:/home/baikal/workspace/C50/Huawei_IoT_Agent_Tiny_SDK_Linux//agent_tiny/lwm2m_client/object_device.c **** }
 218              		.loc 1 659 0
 219 008f 4883C408 		addq	$8, %rsp
 220              	.LCFI1:
 221              		.cfi_def_cfa_offset 8
 222 0093 C3       		ret
 223              		.cfi_endproc
 224              	.LFE76:
 226              		.section	.text.prv_device_write,"ax",@progbits
 228              	prv_device_write:
 229              	.LFB75:
 538:/home/baikal/workspace/C50/Huawei_IoT_Agent_Tiny_SDK_Linux//agent_tiny/lwm2m_client/object_device.c ****     int i;
 230              		.loc 1 538 0
 231              		.cfi_startproc
 232              	.LVL22:
 544:/home/baikal/workspace/C50/Huawei_IoT_Agent_Tiny_SDK_Linux//agent_tiny/lwm2m_client/object_device.c ****     {
 233              		.loc 1 544 0
 234 0000 6685FF   		testw	%di, %di
 235 0003 0F85F300 		jne	.L41
 235      0000
 538:/home/baikal/workspace/C50/Huawei_IoT_Agent_Tiny_SDK_Linux//agent_tiny/lwm2m_client/object_device.c ****     int i;
 236              		.loc 1 538 0
 237 0009 4156     		pushq	%r14
 238              	.LCFI2:
 239              		.cfi_def_cfa_offset 16
 240              		.cfi_offset 14, -16
 241 000b 4155     		pushq	%r13
 242              	.LCFI3:
 243              		.cfi_def_cfa_offset 24
 244              		.cfi_offset 13, -24
 245 000d 4154     		pushq	%r12
 246              	.LCFI4:
 247              		.cfi_def_cfa_offset 32
 248              		.cfi_offset 12, -32
 249 000f 55       		pushq	%rbp
 250              	.LCFI5:
 251              		.cfi_def_cfa_offset 40
 252              		.cfi_offset 6, -40
 253 0010 53       		pushq	%rbx
 254              	.LCFI6:
 255              		.cfi_def_cfa_offset 48
 256              		.cfi_offset 3, -48
 257 0011 4883EC10 		subq	$16, %rsp
 258              	.LCFI7:
 259              		.cfi_def_cfa_offset 64
 260 0015 4889D5   		movq	%rdx, %rbp
 261 0018 4189F4   		movl	%esi, %r12d
 262 001b BB000000 		movl	$0, %ebx
 262      00
 263              	.LVL23:
 264              	.L40:
 553:/home/baikal/workspace/C50/Huawei_IoT_Agent_Tiny_SDK_Linux//agent_tiny/lwm2m_client/object_device.c ****         {
GAS LISTING /tmp/ccTB4Y6B.s 			page 18


 265              		.loc 1 553 0
 266 0020 4863C3   		movslq	%ebx, %rax
 267 0023 488D0440 		leaq	(%rax,%rax,2), %rax
 268 0027 488D3CC5 		leaq	0(,%rax,8), %rdi
 268      00000000 
 269 002f 4801EF   		addq	%rbp, %rdi
 270 0032 0FB74704 		movzwl	4(%rdi), %eax
 271 0036 6683F80E 		cmpw	$14, %ax
 272 003a 7445     		je	.L37
 273 003c 6683F80F 		cmpw	$15, %ax
 274 0040 7472     		je	.L38
 275 0042 6683F80D 		cmpw	$13, %ax
 276 0046 0F858500 		jne	.L48
 276      0000
 556:/home/baikal/workspace/C50/Huawei_IoT_Agent_Tiny_SDK_Linux//agent_tiny/lwm2m_client/object_device.c ****             {
 277              		.loc 1 556 0
 278 004c 488D7424 		leaq	8(%rsp), %rsi
 278      08
 279 0051 E8000000 		call	lwm2m_data_decode_int
 279      00
 280              	.LVL24:
 281 0056 83F801   		cmpl	$1, %eax
 282 0059 757D     		jne	.L43
 558:/home/baikal/workspace/C50/Huawei_IoT_Agent_Tiny_SDK_Linux//agent_tiny/lwm2m_client/object_device.c ****                 if(result == ATINY_OK)
 283              		.loc 1 558 0
 284 005b BA080000 		movl	$8, %edx
 284      00
 285 0060 488D7424 		leaq	8(%rsp), %rsi
 285      08
 286 0065 BF0E0000 		movl	$14, %edi
 286      00
 287 006a E8000000 		call	atiny_cmd_ioctl
 287      00
 288              	.LVL25:
 559:/home/baikal/workspace/C50/Huawei_IoT_Agent_Tiny_SDK_Linux//agent_tiny/lwm2m_client/object_device.c ****                 {
 289              		.loc 1 559 0
 290 006f 84C0     		testb	%al, %al
 291 0071 0F858B00 		jne	.L44
 291      0000
 561:/home/baikal/workspace/C50/Huawei_IoT_Agent_Tiny_SDK_Linux//agent_tiny/lwm2m_client/object_device.c ****                 }
 292              		.loc 1 561 0
 293 0077 B8440000 		movl	$68, %eax
 293      00
 294              	.LVL26:
 295 007c E9940000 		jmp	.L35
 295      00
 296              	.L37:
 575:/home/baikal/workspace/C50/Huawei_IoT_Agent_Tiny_SDK_Linux//agent_tiny/lwm2m_client/object_device.c ****             {
 297              		.loc 1 575 0
 298 0081 488B7708 		movq	8(%rdi), %rsi
 299 0085 4189F5   		movl	%esi, %r13d
 300 0088 4C8B7710 		movq	16(%rdi), %r14
 301 008c 4C89F7   		movq	%r14, %rdi
 302 008f E8000000 		call	prv_check_time_offset
 302      00
 303              	.LVL27:
 304 0094 83F801   		cmpl	$1, %eax
GAS LISTING /tmp/ccTB4Y6B.s 			page 19


 305 0097 7546     		jne	.L45
 577:/home/baikal/workspace/C50/Huawei_IoT_Agent_Tiny_SDK_Linux//agent_tiny/lwm2m_client/object_device.c ****                 if(result == ATINY_OK)
 306              		.loc 1 577 0
 307 0099 4489EA   		movl	%r13d, %edx
 308 009c 4C89F6   		movq	%r14, %rsi
 309 009f BF100000 		movl	$16, %edi
 309      00
 310 00a4 E8000000 		call	atiny_cmd_ioctl
 310      00
 311              	.LVL28:
 578:/home/baikal/workspace/C50/Huawei_IoT_Agent_Tiny_SDK_Linux//agent_tiny/lwm2m_client/object_device.c ****                 {
 312              		.loc 1 578 0
 313 00a9 84C0     		testb	%al, %al
 314 00ab 755C     		jne	.L46
 580:/home/baikal/workspace/C50/Huawei_IoT_Agent_Tiny_SDK_Linux//agent_tiny/lwm2m_client/object_device.c ****                 }
 315              		.loc 1 580 0
 316 00ad B8440000 		movl	$68, %eax
 316      00
 317              	.LVL29:
 318 00b2 EB61     		jmp	.L35
 319              	.L38:
 594:/home/baikal/workspace/C50/Huawei_IoT_Agent_Tiny_SDK_Linux//agent_tiny/lwm2m_client/object_device.c ****             if(result == ATINY_OK)
 320              		.loc 1 594 0
 321 00b4 488B5708 		movq	8(%rdi), %rdx
 322 00b8 488B7710 		movq	16(%rdi), %rsi
 323 00bc BF120000 		movl	$18, %edi
 323      00
 324 00c1 E8000000 		call	atiny_cmd_ioctl
 324      00
 325              	.LVL30:
 595:/home/baikal/workspace/C50/Huawei_IoT_Agent_Tiny_SDK_Linux//agent_tiny/lwm2m_client/object_device.c ****             {
 326              		.loc 1 595 0
 327 00c6 84C0     		testb	%al, %al
 328 00c8 7546     		jne	.L47
 597:/home/baikal/workspace/C50/Huawei_IoT_Agent_Tiny_SDK_Linux//agent_tiny/lwm2m_client/object_device.c ****             }
 329              		.loc 1 597 0
 330 00ca B8440000 		movl	$68, %eax
 330      00
 331              	.LVL31:
 332 00cf EB44     		jmp	.L35
 333              	.L48:
 606:/home/baikal/workspace/C50/Huawei_IoT_Agent_Tiny_SDK_Linux//agent_tiny/lwm2m_client/object_device.c ****         }
 334              		.loc 1 606 0
 335 00d1 B885FFFF 		movl	$-123, %eax
 335      FF
 336 00d6 EB0C     		jmp	.L36
 337              	.L43:
 570:/home/baikal/workspace/C50/Huawei_IoT_Agent_Tiny_SDK_Linux//agent_tiny/lwm2m_client/object_device.c ****             }
 338              		.loc 1 570 0
 339 00d8 B880FFFF 		movl	$-128, %eax
 339      FF
 340 00dd EB05     		jmp	.L36
 341              	.L45:
 589:/home/baikal/workspace/C50/Huawei_IoT_Agent_Tiny_SDK_Linux//agent_tiny/lwm2m_client/object_device.c ****             }
 342              		.loc 1 589 0
 343 00df B880FFFF 		movl	$-128, %eax
 343      FF
GAS LISTING /tmp/ccTB4Y6B.s 			page 20


 344              	.L36:
 345              	.LVL32:
 609:/home/baikal/workspace/C50/Huawei_IoT_Agent_Tiny_SDK_Linux//agent_tiny/lwm2m_client/object_device.c ****     }
 346              		.loc 1 609 0
 347 00e4 83C301   		addl	$1, %ebx
 348              	.LVL33:
 611:/home/baikal/workspace/C50/Huawei_IoT_Agent_Tiny_SDK_Linux//agent_tiny/lwm2m_client/object_device.c **** 
 349              		.loc 1 611 0
 350 00e7 4439E3   		cmpl	%r12d, %ebx
 351 00ea 0F9CC1   		setl	%cl
 352 00ed 3C44     		cmpb	$68, %al
 353 00ef 0F94C2   		sete	%dl
 354 00f2 84D1     		testb	%dl, %cl
 355 00f4 0F8526FF 		jne	.L40
 355      FFFF
 356 00fa EB19     		jmp	.L35
 357              	.LVL34:
 358              	.L41:
 359              	.LCFI8:
 360              		.cfi_def_cfa_offset 8
 361              		.cfi_restore 3
 362              		.cfi_restore 6
 363              		.cfi_restore 12
 364              		.cfi_restore 13
 365              		.cfi_restore 14
 546:/home/baikal/workspace/C50/Huawei_IoT_Agent_Tiny_SDK_Linux//agent_tiny/lwm2m_client/object_device.c ****     }
 366              		.loc 1 546 0
 367 00fc B884FFFF 		movl	$-124, %eax
 367      FF
 614:/home/baikal/workspace/C50/Huawei_IoT_Agent_Tiny_SDK_Linux//agent_tiny/lwm2m_client/object_device.c **** 
 368              		.loc 1 614 0
 369 0101 C3       		ret
 370              	.LVL35:
 371              	.L44:
 372              	.LCFI9:
 373              		.cfi_def_cfa_offset 64
 374              		.cfi_offset 3, -48
 375              		.cfi_offset 6, -40
 376              		.cfi_offset 12, -32
 377              		.cfi_offset 13, -24
 378              		.cfi_offset 14, -16
 565:/home/baikal/workspace/C50/Huawei_IoT_Agent_Tiny_SDK_Linux//agent_tiny/lwm2m_client/object_device.c ****                 }
 379              		.loc 1 565 0
 380 0102 B880FFFF 		movl	$-128, %eax
 380      FF
 381              	.LVL36:
 382 0107 EB0C     		jmp	.L35
 383              	.LVL37:
 384              	.L46:
 584:/home/baikal/workspace/C50/Huawei_IoT_Agent_Tiny_SDK_Linux//agent_tiny/lwm2m_client/object_device.c ****                 }
 385              		.loc 1 584 0
 386 0109 B880FFFF 		movl	$-128, %eax
 386      FF
 387              	.LVL38:
 388 010e EB05     		jmp	.L35
 389              	.LVL39:
 390              	.L47:
GAS LISTING /tmp/ccTB4Y6B.s 			page 21


 601:/home/baikal/workspace/C50/Huawei_IoT_Agent_Tiny_SDK_Linux//agent_tiny/lwm2m_client/object_device.c ****             }
 391              		.loc 1 601 0
 392 0110 B880FFFF 		movl	$-128, %eax
 392      FF
 393              	.LVL40:
 394              	.L35:
 614:/home/baikal/workspace/C50/Huawei_IoT_Agent_Tiny_SDK_Linux//agent_tiny/lwm2m_client/object_device.c **** 
 395              		.loc 1 614 0
 396 0115 4883C410 		addq	$16, %rsp
 397              	.LCFI10:
 398              		.cfi_def_cfa_offset 48
 399 0119 5B       		popq	%rbx
 400              	.LCFI11:
 401              		.cfi_restore 3
 402              		.cfi_def_cfa_offset 40
 403              	.LVL41:
 404 011a 5D       		popq	%rbp
 405              	.LCFI12:
 406              		.cfi_restore 6
 407              		.cfi_def_cfa_offset 32
 408              	.LVL42:
 409 011b 415C     		popq	%r12
 410              	.LCFI13:
 411              		.cfi_restore 12
 412              		.cfi_def_cfa_offset 24
 413              	.LVL43:
 414 011d 415D     		popq	%r13
 415              	.LCFI14:
 416              		.cfi_restore 13
 417              		.cfi_def_cfa_offset 16
 418 011f 415E     		popq	%r14
 419              	.LCFI15:
 420              		.cfi_restore 14
 421              		.cfi_def_cfa_offset 8
 422 0121 C3       		ret
 423              		.cfi_endproc
 424              	.LFE75:
 426              		.section	.text.prv_device_discover,"ax",@progbits
 428              	prv_device_discover:
 429              	.LFB74:
 456:/home/baikal/workspace/C50/Huawei_IoT_Agent_Tiny_SDK_Linux//agent_tiny/lwm2m_client/object_device.c ****     uint8_t result;
 430              		.loc 1 456 0
 431              		.cfi_startproc
 432              	.LVL44:
 461:/home/baikal/workspace/C50/Huawei_IoT_Agent_Tiny_SDK_Linux//agent_tiny/lwm2m_client/object_device.c ****     {
 433              		.loc 1 461 0
 434 0000 6685FF   		testw	%di, %di
 435 0003 0F851601 		jne	.L59
 435      0000
 436              	.LVL45:
 469:/home/baikal/workspace/C50/Huawei_IoT_Agent_Tiny_SDK_Linux//agent_tiny/lwm2m_client/object_device.c ****     {
 437              		.loc 1 469 0
 438 0009 448B06   		movl	(%rsi), %r8d
 439 000c 4585C0   		testl	%r8d, %r8d
 440 000f 0F85F500 		jne	.L60
 440      0000
 456:/home/baikal/workspace/C50/Huawei_IoT_Agent_Tiny_SDK_Linux//agent_tiny/lwm2m_client/object_device.c ****     uint8_t result;
GAS LISTING /tmp/ccTB4Y6B.s 			page 22


 441              		.loc 1 456 0
 442 0015 55       		pushq	%rbp
 443              	.LCFI16:
 444              		.cfi_def_cfa_offset 16
 445              		.cfi_offset 6, -16
 446 0016 53       		pushq	%rbx
 447              	.LCFI17:
 448              		.cfi_def_cfa_offset 24
 449              		.cfi_offset 3, -24
 450 0017 4883EC38 		subq	$56, %rsp
 451              	.LCFI18:
 452              		.cfi_def_cfa_offset 80
 453 001b 4889D3   		movq	%rdx, %rbx
 454 001e 4889F5   		movq	%rsi, %rbp
 455              	.LBB6:
 471:/home/baikal/workspace/C50/Huawei_IoT_Agent_Tiny_SDK_Linux//agent_tiny/lwm2m_client/object_device.c ****         {
 456              		.loc 1 471 0
 457 0021 66C70424 		movw	$0, (%rsp)
 457      0000
 458 0027 66C74424 		movw	$1, 2(%rsp)
 458      020100
 459 002e 66C74424 		movw	$2, 4(%rsp)
 459      040200
 460 0035 66C74424 		movw	$3, 6(%rsp)
 460      060300
 461 003c 66C74424 		movw	$4, 8(%rsp)
 461      080400
 462 0043 66C74424 		movw	$5, 10(%rsp)
 462      0A0500
 463 004a 66C74424 		movw	$6, 12(%rsp)
 463      0C0600
 464 0051 66C74424 		movw	$7, 14(%rsp)
 464      0E0700
 465 0058 66C74424 		movw	$8, 16(%rsp)
 465      100800
 466 005f 66C74424 		movw	$9, 18(%rsp)
 466      120900
 467 0066 66C74424 		movw	$10, 20(%rsp)
 467      140A00
 468 006d 66C74424 		movw	$11, 22(%rsp)
 468      160B00
 469 0074 66C74424 		movw	$12, 24(%rsp)
 469      180C00
 470 007b 66C74424 		movw	$13, 26(%rsp)
 470      1A0D00
 471 0082 66C74424 		movw	$14, 28(%rsp)
 471      1C0E00
 472 0089 66C74424 		movw	$15, 30(%rsp)
 472      1E0F00
 473 0090 66C74424 		movw	$16, 32(%rsp)
 473      201000
 474              	.LVL46:
 493:/home/baikal/workspace/C50/Huawei_IoT_Agent_Tiny_SDK_Linux//agent_tiny/lwm2m_client/object_device.c ****         if (*dataArrayP == NULL) return COAP_500_INTERNAL_SERVER_ERROR;
 475              		.loc 1 493 0
 476 0097 BF110000 		movl	$17, %edi
 476      00
 477              	.LVL47:
GAS LISTING /tmp/ccTB4Y6B.s 			page 23


 478 009c E8000000 		call	lwm2m_data_new
 478      00
 479              	.LVL48:
 480 00a1 488903   		movq	%rax, (%rbx)
 494:/home/baikal/workspace/C50/Huawei_IoT_Agent_Tiny_SDK_Linux//agent_tiny/lwm2m_client/object_device.c ****         *numDataP = nbRes;
 481              		.loc 1 494 0
 482 00a4 4885C0   		testq	%rax, %rax
 483 00a7 7507     		jne	.L53
 494:/home/baikal/workspace/C50/Huawei_IoT_Agent_Tiny_SDK_Linux//agent_tiny/lwm2m_client/object_device.c ****         *numDataP = nbRes;
 484              		.loc 1 494 0 is_stmt 0 discriminator 1
 485 00a9 B8A0FFFF 		movl	$-96, %eax
 485      FF
 486 00ae EB75     		jmp	.L51
 487              	.L53:
 495:/home/baikal/workspace/C50/Huawei_IoT_Agent_Tiny_SDK_Linux//agent_tiny/lwm2m_client/object_device.c ****         for (i = 0; i < nbRes; i++)
 488              		.loc 1 495 0 is_stmt 1
 489 00b0 C7450011 		movl	$17, 0(%rbp)
 489      000000
 490              	.LVL49:
 496:/home/baikal/workspace/C50/Huawei_IoT_Agent_Tiny_SDK_Linux//agent_tiny/lwm2m_client/object_device.c ****         {
 491              		.loc 1 496 0
 492 00b7 B9000000 		movl	$0, %ecx
 492      00
 493 00bc EB1D     		jmp	.L54
 494              	.LVL50:
 495              	.L55:
 498:/home/baikal/workspace/C50/Huawei_IoT_Agent_Tiny_SDK_Linux//agent_tiny/lwm2m_client/object_device.c ****         }
 496              		.loc 1 498 0 discriminator 3
 497 00be 4863F1   		movslq	%ecx, %rsi
 498 00c1 488D1476 		leaq	(%rsi,%rsi,2), %rdx
 499 00c5 488D04D5 		leaq	0(,%rdx,8), %rax
 499      00000000 
 500 00cd 480303   		addq	(%rbx), %rax
 501 00d0 0FB71474 		movzwl	(%rsp,%rsi,2), %edx
 502 00d4 66895004 		movw	%dx, 4(%rax)
 496:/home/baikal/workspace/C50/Huawei_IoT_Agent_Tiny_SDK_Linux//agent_tiny/lwm2m_client/object_device.c ****         {
 503              		.loc 1 496 0 discriminator 3
 504 00d8 83C101   		addl	$1, %ecx
 505              	.LVL51:
 506              	.L54:
 496:/home/baikal/workspace/C50/Huawei_IoT_Agent_Tiny_SDK_Linux//agent_tiny/lwm2m_client/object_device.c ****         {
 507              		.loc 1 496 0 is_stmt 0 discriminator 1
 508 00db 83F910   		cmpl	$16, %ecx
 509 00de 7EDE     		jle	.L55
 510              	.LBE6:
 466:/home/baikal/workspace/C50/Huawei_IoT_Agent_Tiny_SDK_Linux//agent_tiny/lwm2m_client/object_device.c **** 
 511              		.loc 1 466 0 is_stmt 1
 512 00e0 B8450000 		movl	$69, %eax
 512      00
 513 00e5 EB3E     		jmp	.L51
 514              	.LVL52:
 515              	.L58:
 516              	.LCFI19:
 517              		.cfi_def_cfa_offset 8
 518              		.cfi_restore 3
 519              		.cfi_restore 6
 505:/home/baikal/workspace/C50/Huawei_IoT_Agent_Tiny_SDK_Linux//agent_tiny/lwm2m_client/object_device.c ****             {
GAS LISTING /tmp/ccTB4Y6B.s 			page 24


 520              		.loc 1 505 0
 521 00e7 4863CE   		movslq	%esi, %rcx
 522 00ea 488D3C49 		leaq	(%rcx,%rcx,2), %rdi
 523 00ee 488D0CFD 		leaq	0(,%rdi,8), %rcx
 523      00000000 
 524 00f6 48030A   		addq	(%rdx), %rcx
 525 00f9 66837904 		cmpw	$16, 4(%rcx)
 525      10
 526 00fe 7605     		jbe	.L56
 526:/home/baikal/workspace/C50/Huawei_IoT_Agent_Tiny_SDK_Linux//agent_tiny/lwm2m_client/object_device.c ****             }
 527              		.loc 1 526 0
 528 0100 B884FFFF 		movl	$-124, %eax
 528      FF
 529              	.LVL53:
 530              	.L56:
 503:/home/baikal/workspace/C50/Huawei_IoT_Agent_Tiny_SDK_Linux//agent_tiny/lwm2m_client/object_device.c ****         {
 531              		.loc 1 503 0 discriminator 2
 532 0105 83C601   		addl	$1, %esi
 533              	.LVL54:
 534 0108 EB0A     		jmp	.L52
 535              	.LVL55:
 536              	.L60:
 537 010a BE000000 		movl	$0, %esi
 537      00
 538              	.LVL56:
 539 010f B8450000 		movl	$69, %eax
 539      00
 540              	.LVL57:
 541              	.L52:
 503:/home/baikal/workspace/C50/Huawei_IoT_Agent_Tiny_SDK_Linux//agent_tiny/lwm2m_client/object_device.c ****         {
 542              		.loc 1 503 0 is_stmt 0 discriminator 1
 543 0114 4439C6   		cmpl	%r8d, %esi
 544 0117 7D12     		jge	.L65
 503:/home/baikal/workspace/C50/Huawei_IoT_Agent_Tiny_SDK_Linux//agent_tiny/lwm2m_client/object_device.c ****         {
 545              		.loc 1 503 0 discriminator 3
 546 0119 3C45     		cmpb	$69, %al
 547 011b 74CA     		je	.L58
 532:/home/baikal/workspace/C50/Huawei_IoT_Agent_Tiny_SDK_Linux//agent_tiny/lwm2m_client/object_device.c **** 
 548              		.loc 1 532 0 is_stmt 1
 549 011d F3C3     		rep ret
 550              	.LVL58:
 551              	.L59:
 463:/home/baikal/workspace/C50/Huawei_IoT_Agent_Tiny_SDK_Linux//agent_tiny/lwm2m_client/object_device.c ****     }
 552              		.loc 1 463 0
 553 011f B884FFFF 		movl	$-124, %eax
 553      FF
 554 0124 C3       		ret
 555              	.LVL59:
 556              	.L51:
 557              	.LCFI20:
 558              		.cfi_def_cfa_offset 80
 559              		.cfi_offset 3, -24
 560              		.cfi_offset 6, -16
 532:/home/baikal/workspace/C50/Huawei_IoT_Agent_Tiny_SDK_Linux//agent_tiny/lwm2m_client/object_device.c **** 
 561              		.loc 1 532 0
 562 0125 4883C438 		addq	$56, %rsp
 563              	.LCFI21:
GAS LISTING /tmp/ccTB4Y6B.s 			page 25


 564              		.cfi_def_cfa_offset 24
 565 0129 5B       		popq	%rbx
 566              	.LCFI22:
 567              		.cfi_restore 3
 568              		.cfi_def_cfa_offset 16
 569              	.LVL60:
 570 012a 5D       		popq	%rbp
 571              	.LCFI23:
 572              		.cfi_restore 6
 573              		.cfi_def_cfa_offset 8
 574              	.LVL61:
 575              	.L65:
 576 012b F3C3     		rep ret
 577              		.cfi_endproc
 578              	.LFE74:
 580              		.section	.text.prv_set_value,"ax",@progbits
 582              	prv_set_value:
 583              	.LFB72:
 165:/home/baikal/workspace/C50/Huawei_IoT_Agent_Tiny_SDK_Linux//agent_tiny/lwm2m_client/object_device.c ****     char str[MAX_STRING_LEN + 1] = {0};
 584              		.loc 1 165 0
 585              		.cfi_startproc
 586              	.LVL62:
 587 0000 55       		pushq	%rbp
 588              	.LCFI24:
 589              		.cfi_def_cfa_offset 16
 590              		.cfi_offset 6, -16
 591 0001 53       		pushq	%rbx
 592              	.LCFI25:
 593              		.cfi_def_cfa_offset 24
 594              		.cfi_offset 3, -24
 595 0002 4881ECA8 		subq	$168, %rsp
 595      000000
 596              	.LCFI26:
 597              		.cfi_def_cfa_offset 192
 598 0009 4889FE   		movq	%rdi, %rsi
 166:/home/baikal/workspace/C50/Huawei_IoT_Agent_Tiny_SDK_Linux//agent_tiny/lwm2m_client/object_device.c ****     int64_t current_time;
 599              		.loc 1 166 0
 600 000c 488D7C24 		leaq	80(%rsp), %rdi
 600      50
 601              	.LVL63:
 602 0011 B9080000 		movl	$8, %ecx
 602      00
 603 0016 B8000000 		movl	$0, %eax
 603      00
 604 001b F348AB   		rep stosq
 605 001e C60700   		movb	$0, (%rdi)
 178:/home/baikal/workspace/C50/Huawei_IoT_Agent_Tiny_SDK_Linux//agent_tiny/lwm2m_client/object_device.c ****     {
 606              		.loc 1 178 0
 607 0021 0FB74604 		movzwl	4(%rsi), %eax
 608 0025 6683F810 		cmpw	$16, %ax
 609 0029 0F87C203 		ja	.L88
 609      0000
 610 002f 4889F3   		movq	%rsi, %rbx
 611 0032 0FB7C0   		movzwl	%ax, %eax
 612 0035 FF24C500 		jmp	*.L69(,%rax,8)
 612      000000
 613              		.section	.rodata.prv_set_value,"a",@progbits
GAS LISTING /tmp/ccTB4Y6B.s 			page 26


 614              		.align 8
 615              		.align 4
 616              	.L69:
 617 0000 00000000 		.quad	.L68
 617      00000000 
 618 0008 00000000 		.quad	.L70
 618      00000000 
 619 0010 00000000 		.quad	.L71
 619      00000000 
 620 0018 00000000 		.quad	.L72
 620      00000000 
 621 0020 00000000 		.quad	.L73
 621      00000000 
 622 0028 00000000 		.quad	.L73
 622      00000000 
 623 0030 00000000 		.quad	.L74
 623      00000000 
 624 0038 00000000 		.quad	.L75
 624      00000000 
 625 0040 00000000 		.quad	.L76
 625      00000000 
 626 0048 00000000 		.quad	.L77
 626      00000000 
 627 0050 00000000 		.quad	.L78
 627      00000000 
 628 0058 00000000 		.quad	.L79
 628      00000000 
 629 0060 00000000 		.quad	.L73
 629      00000000 
 630 0068 00000000 		.quad	.L80
 630      00000000 
 631 0070 00000000 		.quad	.L81
 631      00000000 
 632 0078 00000000 		.quad	.L82
 632      00000000 
 633 0080 00000000 		.quad	.L83
 633      00000000 
 634              		.section	.text.prv_set_value
 635              	.L73:
 229:/home/baikal/workspace/C50/Huawei_IoT_Agent_Tiny_SDK_Linux//agent_tiny/lwm2m_client/object_device.c **** 
 636              		.loc 1 229 0
 637 003c B885FFFF 		movl	$-123, %eax
 637      FF
 638 0041 E9120400 		jmp	.L67
 638      00
 639              	.L68:
 181:/home/baikal/workspace/C50/Huawei_IoT_Agent_Tiny_SDK_Linux//agent_tiny/lwm2m_client/object_device.c ****         if(result == ATINY_OK)
 640              		.loc 1 181 0
 641 0046 BA400000 		movl	$64, %edx
 641      00
 642 004b 488D7424 		leaq	80(%rsp), %rsi
 642      50
 643              	.LVL64:
 644 0050 BF000000 		movl	$0, %edi
 644      00
 645 0055 E8000000 		call	atiny_cmd_ioctl
 645      00
GAS LISTING /tmp/ccTB4Y6B.s 			page 27


 646              	.LVL65:
 182:/home/baikal/workspace/C50/Huawei_IoT_Agent_Tiny_SDK_Linux//agent_tiny/lwm2m_client/object_device.c ****         {
 647              		.loc 1 182 0
 648 005a 85C0     		testl	%eax, %eax
 649 005c 0F859603 		jne	.L89
 649      0000
 184:/home/baikal/workspace/C50/Huawei_IoT_Agent_Tiny_SDK_Linux//agent_tiny/lwm2m_client/object_device.c ****             return COAP_205_CONTENT;
 650              		.loc 1 184 0
 651 0062 4889DE   		movq	%rbx, %rsi
 652 0065 488D7C24 		leaq	80(%rsp), %rdi
 652      50
 653 006a E8000000 		call	lwm2m_data_encode_string
 653      00
 654              	.LVL66:
 185:/home/baikal/workspace/C50/Huawei_IoT_Agent_Tiny_SDK_Linux//agent_tiny/lwm2m_client/object_device.c ****         }
 655              		.loc 1 185 0
 656 006f B8450000 		movl	$69, %eax
 656      00
 657 0074 E9DF0300 		jmp	.L67
 657      00
 658              	.L70:
 193:/home/baikal/workspace/C50/Huawei_IoT_Agent_Tiny_SDK_Linux//agent_tiny/lwm2m_client/object_device.c ****         if(result == ATINY_OK)
 659              		.loc 1 193 0
 660 0079 BA400000 		movl	$64, %edx
 660      00
 661 007e 488D7424 		leaq	80(%rsp), %rsi
 661      50
 662 0083 BF010000 		movl	$1, %edi
 662      00
 663 0088 E8000000 		call	atiny_cmd_ioctl
 663      00
 664              	.LVL67:
 194:/home/baikal/workspace/C50/Huawei_IoT_Agent_Tiny_SDK_Linux//agent_tiny/lwm2m_client/object_device.c ****         {
 665              		.loc 1 194 0
 666 008d 85C0     		testl	%eax, %eax
 667 008f 0F856A03 		jne	.L90
 667      0000
 196:/home/baikal/workspace/C50/Huawei_IoT_Agent_Tiny_SDK_Linux//agent_tiny/lwm2m_client/object_device.c ****             return COAP_205_CONTENT;
 668              		.loc 1 196 0
 669 0095 4889DE   		movq	%rbx, %rsi
 670 0098 488D7C24 		leaq	80(%rsp), %rdi
 670      50
 671 009d E8000000 		call	lwm2m_data_encode_string
 671      00
 672              	.LVL68:
 197:/home/baikal/workspace/C50/Huawei_IoT_Agent_Tiny_SDK_Linux//agent_tiny/lwm2m_client/object_device.c ****         }
 673              		.loc 1 197 0
 674 00a2 B8450000 		movl	$69, %eax
 674      00
 675 00a7 E9AC0300 		jmp	.L67
 675      00
 676              	.L71:
 205:/home/baikal/workspace/C50/Huawei_IoT_Agent_Tiny_SDK_Linux//agent_tiny/lwm2m_client/object_device.c ****         if(result == ATINY_OK)
 677              		.loc 1 205 0
 678 00ac BA400000 		movl	$64, %edx
 678      00
 679 00b1 488D7424 		leaq	80(%rsp), %rsi
GAS LISTING /tmp/ccTB4Y6B.s 			page 28


 679      50
 680 00b6 BF020000 		movl	$2, %edi
 680      00
 681 00bb E8000000 		call	atiny_cmd_ioctl
 681      00
 682              	.LVL69:
 206:/home/baikal/workspace/C50/Huawei_IoT_Agent_Tiny_SDK_Linux//agent_tiny/lwm2m_client/object_device.c ****         {
 683              		.loc 1 206 0
 684 00c0 85C0     		testl	%eax, %eax
 685 00c2 0F853E03 		jne	.L91
 685      0000
 208:/home/baikal/workspace/C50/Huawei_IoT_Agent_Tiny_SDK_Linux//agent_tiny/lwm2m_client/object_device.c ****             return COAP_205_CONTENT;
 686              		.loc 1 208 0
 687 00c8 4889DE   		movq	%rbx, %rsi
 688 00cb 488D7C24 		leaq	80(%rsp), %rdi
 688      50
 689 00d0 E8000000 		call	lwm2m_data_encode_string
 689      00
 690              	.LVL70:
 209:/home/baikal/workspace/C50/Huawei_IoT_Agent_Tiny_SDK_Linux//agent_tiny/lwm2m_client/object_device.c ****         }
 691              		.loc 1 209 0
 692 00d5 B8450000 		movl	$69, %eax
 692      00
 693 00da E9790300 		jmp	.L67
 693      00
 694              	.L72:
 217:/home/baikal/workspace/C50/Huawei_IoT_Agent_Tiny_SDK_Linux//agent_tiny/lwm2m_client/object_device.c ****         if(result == ATINY_OK)
 695              		.loc 1 217 0
 696 00df BA400000 		movl	$64, %edx
 696      00
 697 00e4 488D7424 		leaq	80(%rsp), %rsi
 697      50
 698 00e9 BF030000 		movl	$3, %edi
 698      00
 699 00ee E8000000 		call	atiny_cmd_ioctl
 699      00
 700              	.LVL71:
 218:/home/baikal/workspace/C50/Huawei_IoT_Agent_Tiny_SDK_Linux//agent_tiny/lwm2m_client/object_device.c ****         {
 701              		.loc 1 218 0
 702 00f3 85C0     		testl	%eax, %eax
 703 00f5 0F851203 		jne	.L92
 703      0000
 220:/home/baikal/workspace/C50/Huawei_IoT_Agent_Tiny_SDK_Linux//agent_tiny/lwm2m_client/object_device.c ****             return COAP_205_CONTENT;
 704              		.loc 1 220 0
 705 00fb 4889DE   		movq	%rbx, %rsi
 706 00fe 488D7C24 		leaq	80(%rsp), %rdi
 706      50
 707 0103 E8000000 		call	lwm2m_data_encode_string
 707      00
 708              	.LVL72:
 221:/home/baikal/workspace/C50/Huawei_IoT_Agent_Tiny_SDK_Linux//agent_tiny/lwm2m_client/object_device.c ****         }
 709              		.loc 1 221 0
 710 0108 B8450000 		movl	$69, %eax
 710      00
 711 010d E9460300 		jmp	.L67
 711      00
 712              	.L74:
GAS LISTING /tmp/ccTB4Y6B.s 			page 29


 236:/home/baikal/workspace/C50/Huawei_IoT_Agent_Tiny_SDK_Linux//agent_tiny/lwm2m_client/object_device.c ****         if (subTlvP == NULL) return COAP_500_INTERNAL_SERVER_ERROR;
 713              		.loc 1 236 0
 714 0112 BF010000 		movl	$1, %edi
 714      00
 715 0117 E8000000 		call	lwm2m_data_new
 715      00
 716              	.LVL73:
 717 011c 4889C5   		movq	%rax, %rbp
 718              	.LVL74:
 237:/home/baikal/workspace/C50/Huawei_IoT_Agent_Tiny_SDK_Linux//agent_tiny/lwm2m_client/object_device.c ****         subTlvP[0].id = 0;
 719              		.loc 1 237 0
 720 011f 4885C0   		testq	%rax, %rax
 721 0122 0F84EC02 		je	.L93
 721      0000
 238:/home/baikal/workspace/C50/Huawei_IoT_Agent_Tiny_SDK_Linux//agent_tiny/lwm2m_client/object_device.c ****         result = atiny_cmd_ioctl(ATINY_GET_POWER_SOURCE, (char *)&power, sizeof(int));
 722              		.loc 1 238 0
 723 0128 66C74004 		movw	$0, 4(%rax)
 723      0000
 239:/home/baikal/workspace/C50/Huawei_IoT_Agent_Tiny_SDK_Linux//agent_tiny/lwm2m_client/object_device.c ****         if(result == ATINY_OK)
 724              		.loc 1 239 0
 725 012e BA040000 		movl	$4, %edx
 725      00
 726 0133 488D7424 		leaq	28(%rsp), %rsi
 726      1C
 727 0138 BF060000 		movl	$6, %edi
 727      00
 728 013d E8000000 		call	atiny_cmd_ioctl
 728      00
 729              	.LVL75:
 240:/home/baikal/workspace/C50/Huawei_IoT_Agent_Tiny_SDK_Linux//agent_tiny/lwm2m_client/object_device.c ****         {
 730              		.loc 1 240 0
 731 0142 85C0     		testl	%eax, %eax
 732 0144 7527     		jne	.L84
 242:/home/baikal/workspace/C50/Huawei_IoT_Agent_Tiny_SDK_Linux//agent_tiny/lwm2m_client/object_device.c ****             lwm2m_data_encode_instances(subTlvP, 1, dataP);
 733              		.loc 1 242 0
 734 0146 48637C24 		movslq	28(%rsp), %rdi
 734      1C
 735 014b 4889EE   		movq	%rbp, %rsi
 736 014e E8000000 		call	lwm2m_data_encode_int
 736      00
 737              	.LVL76:
 243:/home/baikal/workspace/C50/Huawei_IoT_Agent_Tiny_SDK_Linux//agent_tiny/lwm2m_client/object_device.c ****             return COAP_205_CONTENT;
 738              		.loc 1 243 0
 739 0153 4889DA   		movq	%rbx, %rdx
 740 0156 BE010000 		movl	$1, %esi
 740      00
 741 015b 4889EF   		movq	%rbp, %rdi
 742 015e E8000000 		call	lwm2m_data_encode_instances
 742      00
 743              	.LVL77:
 244:/home/baikal/workspace/C50/Huawei_IoT_Agent_Tiny_SDK_Linux//agent_tiny/lwm2m_client/object_device.c ****         }
 744              		.loc 1 244 0
 745 0163 B8450000 		movl	$69, %eax
 745      00
 746 0168 E9EB0200 		jmp	.L67
 746      00
 747              	.LVL78:
GAS LISTING /tmp/ccTB4Y6B.s 			page 30


 748              	.L84:
 248:/home/baikal/workspace/C50/Huawei_IoT_Agent_Tiny_SDK_Linux//agent_tiny/lwm2m_client/object_device.c ****             return COAP_400_BAD_REQUEST;
 749              		.loc 1 248 0
 750 016d 4889EF   		movq	%rbp, %rdi
 751 0170 E8000000 		call	lwm2m_free
 751      00
 752              	.LVL79:
 249:/home/baikal/workspace/C50/Huawei_IoT_Agent_Tiny_SDK_Linux//agent_tiny/lwm2m_client/object_device.c ****         }
 753              		.loc 1 249 0
 754 0175 B880FFFF 		movl	$-128, %eax
 754      FF
 755 017a E9D90200 		jmp	.L67
 755      00
 756              	.LVL80:
 757              	.L75:
 255:/home/baikal/workspace/C50/Huawei_IoT_Agent_Tiny_SDK_Linux//agent_tiny/lwm2m_client/object_device.c ****         if (subTlvP == NULL) return COAP_500_INTERNAL_SERVER_ERROR;
 758              		.loc 1 255 0
 759 017f BF010000 		movl	$1, %edi
 759      00
 760 0184 E8000000 		call	lwm2m_data_new
 760      00
 761              	.LVL81:
 762 0189 4889C5   		movq	%rax, %rbp
 763              	.LVL82:
 256:/home/baikal/workspace/C50/Huawei_IoT_Agent_Tiny_SDK_Linux//agent_tiny/lwm2m_client/object_device.c ****         subTlvP[0].id = 0;
 764              		.loc 1 256 0
 765 018c 4885C0   		testq	%rax, %rax
 766 018f 0F848602 		je	.L94
 766      0000
 257:/home/baikal/workspace/C50/Huawei_IoT_Agent_Tiny_SDK_Linux//agent_tiny/lwm2m_client/object_device.c ****         result = atiny_cmd_ioctl(ATINY_GET_SOURCE_VOLTAGE, (char *)&voltage, sizeof(int));
 767              		.loc 1 257 0
 768 0195 66C74004 		movw	$0, 4(%rax)
 768      0000
 258:/home/baikal/workspace/C50/Huawei_IoT_Agent_Tiny_SDK_Linux//agent_tiny/lwm2m_client/object_device.c ****         if(result == ATINY_OK)
 769              		.loc 1 258 0
 770 019b BA040000 		movl	$4, %edx
 770      00
 771 01a0 488D7424 		leaq	24(%rsp), %rsi
 771      18
 772 01a5 BF070000 		movl	$7, %edi
 772      00
 773 01aa E8000000 		call	atiny_cmd_ioctl
 773      00
 774              	.LVL83:
 259:/home/baikal/workspace/C50/Huawei_IoT_Agent_Tiny_SDK_Linux//agent_tiny/lwm2m_client/object_device.c ****         {
 775              		.loc 1 259 0
 776 01af 85C0     		testl	%eax, %eax
 777 01b1 7527     		jne	.L85
 261:/home/baikal/workspace/C50/Huawei_IoT_Agent_Tiny_SDK_Linux//agent_tiny/lwm2m_client/object_device.c ****             lwm2m_data_encode_instances(subTlvP, 1, dataP);
 778              		.loc 1 261 0
 779 01b3 48637C24 		movslq	24(%rsp), %rdi
 779      18
 780 01b8 4889EE   		movq	%rbp, %rsi
 781 01bb E8000000 		call	lwm2m_data_encode_int
 781      00
 782              	.LVL84:
 262:/home/baikal/workspace/C50/Huawei_IoT_Agent_Tiny_SDK_Linux//agent_tiny/lwm2m_client/object_device.c ****             return COAP_205_CONTENT;
GAS LISTING /tmp/ccTB4Y6B.s 			page 31


 783              		.loc 1 262 0
 784 01c0 4889DA   		movq	%rbx, %rdx
 785 01c3 BE010000 		movl	$1, %esi
 785      00
 786 01c8 4889EF   		movq	%rbp, %rdi
 787 01cb E8000000 		call	lwm2m_data_encode_instances
 787      00
 788              	.LVL85:
 263:/home/baikal/workspace/C50/Huawei_IoT_Agent_Tiny_SDK_Linux//agent_tiny/lwm2m_client/object_device.c ****         }
 789              		.loc 1 263 0
 790 01d0 B8450000 		movl	$69, %eax
 790      00
 791 01d5 E97E0200 		jmp	.L67
 791      00
 792              	.LVL86:
 793              	.L85:
 267:/home/baikal/workspace/C50/Huawei_IoT_Agent_Tiny_SDK_Linux//agent_tiny/lwm2m_client/object_device.c ****             return COAP_400_BAD_REQUEST;
 794              		.loc 1 267 0
 795 01da 4889EF   		movq	%rbp, %rdi
 796 01dd E8000000 		call	lwm2m_free
 796      00
 797              	.LVL87:
 268:/home/baikal/workspace/C50/Huawei_IoT_Agent_Tiny_SDK_Linux//agent_tiny/lwm2m_client/object_device.c ****         }
 798              		.loc 1 268 0
 799 01e2 B880FFFF 		movl	$-128, %eax
 799      FF
 800 01e7 E96C0200 		jmp	.L67
 800      00
 801              	.LVL88:
 802              	.L76:
 274:/home/baikal/workspace/C50/Huawei_IoT_Agent_Tiny_SDK_Linux//agent_tiny/lwm2m_client/object_device.c ****         if (subTlvP == NULL) return COAP_500_INTERNAL_SERVER_ERROR;
 803              		.loc 1 274 0
 804 01ec BF010000 		movl	$1, %edi
 804      00
 805 01f1 E8000000 		call	lwm2m_data_new
 805      00
 806              	.LVL89:
 807 01f6 4889C5   		movq	%rax, %rbp
 808              	.LVL90:
 275:/home/baikal/workspace/C50/Huawei_IoT_Agent_Tiny_SDK_Linux//agent_tiny/lwm2m_client/object_device.c ****         subTlvP[0].id = 0;
 809              		.loc 1 275 0
 810 01f9 4885C0   		testq	%rax, %rax
 811 01fc 0F842002 		je	.L95
 811      0000
 276:/home/baikal/workspace/C50/Huawei_IoT_Agent_Tiny_SDK_Linux//agent_tiny/lwm2m_client/object_device.c ****         result = atiny_cmd_ioctl(ATINY_GET_POWER_CURRENT, (char *)&power, sizeof(int));
 812              		.loc 1 276 0
 813 0202 66C74004 		movw	$0, 4(%rax)
 813      0000
 277:/home/baikal/workspace/C50/Huawei_IoT_Agent_Tiny_SDK_Linux//agent_tiny/lwm2m_client/object_device.c ****         if(result == ATINY_OK)
 814              		.loc 1 277 0
 815 0208 BA040000 		movl	$4, %edx
 815      00
 816 020d 488D7424 		leaq	28(%rsp), %rsi
 816      1C
 817 0212 BF080000 		movl	$8, %edi
 817      00
 818 0217 E8000000 		call	atiny_cmd_ioctl
GAS LISTING /tmp/ccTB4Y6B.s 			page 32


 818      00
 819              	.LVL91:
 278:/home/baikal/workspace/C50/Huawei_IoT_Agent_Tiny_SDK_Linux//agent_tiny/lwm2m_client/object_device.c ****         {
 820              		.loc 1 278 0
 821 021c 85C0     		testl	%eax, %eax
 822 021e 7527     		jne	.L86
 280:/home/baikal/workspace/C50/Huawei_IoT_Agent_Tiny_SDK_Linux//agent_tiny/lwm2m_client/object_device.c ****             lwm2m_data_encode_instances(subTlvP, 1, dataP);
 823              		.loc 1 280 0
 824 0220 48637C24 		movslq	28(%rsp), %rdi
 824      1C
 825 0225 4889EE   		movq	%rbp, %rsi
 826 0228 E8000000 		call	lwm2m_data_encode_int
 826      00
 827              	.LVL92:
 281:/home/baikal/workspace/C50/Huawei_IoT_Agent_Tiny_SDK_Linux//agent_tiny/lwm2m_client/object_device.c ****             return COAP_205_CONTENT;
 828              		.loc 1 281 0
 829 022d 4889DA   		movq	%rbx, %rdx
 830 0230 BE010000 		movl	$1, %esi
 830      00
 831 0235 4889EF   		movq	%rbp, %rdi
 832 0238 E8000000 		call	lwm2m_data_encode_instances
 832      00
 833              	.LVL93:
 282:/home/baikal/workspace/C50/Huawei_IoT_Agent_Tiny_SDK_Linux//agent_tiny/lwm2m_client/object_device.c ****         }
 834              		.loc 1 282 0
 835 023d B8450000 		movl	$69, %eax
 835      00
 836 0242 E9110200 		jmp	.L67
 836      00
 837              	.LVL94:
 838              	.L86:
 286:/home/baikal/workspace/C50/Huawei_IoT_Agent_Tiny_SDK_Linux//agent_tiny/lwm2m_client/object_device.c ****             return COAP_400_BAD_REQUEST;
 839              		.loc 1 286 0
 840 0247 4889EF   		movq	%rbp, %rdi
 841 024a E8000000 		call	lwm2m_free
 841      00
 842              	.LVL95:
 287:/home/baikal/workspace/C50/Huawei_IoT_Agent_Tiny_SDK_Linux//agent_tiny/lwm2m_client/object_device.c ****         }
 843              		.loc 1 287 0
 844 024f B880FFFF 		movl	$-128, %eax
 844      FF
 845 0254 E9FF0100 		jmp	.L67
 845      00
 846              	.LVL96:
 847              	.L77:
 293:/home/baikal/workspace/C50/Huawei_IoT_Agent_Tiny_SDK_Linux//agent_tiny/lwm2m_client/object_device.c ****         if(result == ATINY_OK)
 848              		.loc 1 293 0
 849 0259 BA040000 		movl	$4, %edx
 849      00
 850 025e 488D7424 		leaq	20(%rsp), %rsi
 850      14
 851 0263 BF090000 		movl	$9, %edi
 851      00
 852 0268 E8000000 		call	atiny_cmd_ioctl
 852      00
 853              	.LVL97:
 294:/home/baikal/workspace/C50/Huawei_IoT_Agent_Tiny_SDK_Linux//agent_tiny/lwm2m_client/object_device.c ****         {
GAS LISTING /tmp/ccTB4Y6B.s 			page 33


 854              		.loc 1 294 0
 855 026d 85C0     		testl	%eax, %eax
 856 026f 0F85B401 		jne	.L96
 856      0000
 296:/home/baikal/workspace/C50/Huawei_IoT_Agent_Tiny_SDK_Linux//agent_tiny/lwm2m_client/object_device.c ****             return COAP_205_CONTENT;
 857              		.loc 1 296 0
 858 0275 48637C24 		movslq	20(%rsp), %rdi
 858      14
 859 027a 4889DE   		movq	%rbx, %rsi
 860 027d E8000000 		call	lwm2m_data_encode_int
 860      00
 861              	.LVL98:
 297:/home/baikal/workspace/C50/Huawei_IoT_Agent_Tiny_SDK_Linux//agent_tiny/lwm2m_client/object_device.c ****         }
 862              		.loc 1 297 0
 863 0282 B8450000 		movl	$69, %eax
 863      00
 864 0287 E9CC0100 		jmp	.L67
 864      00
 865              	.L78:
 307:/home/baikal/workspace/C50/Huawei_IoT_Agent_Tiny_SDK_Linux//agent_tiny/lwm2m_client/object_device.c ****         if(result == ATINY_OK)
 866              		.loc 1 307 0
 867 028c BA040000 		movl	$4, %edx
 867      00
 868 0291 488D7424 		leaq	16(%rsp), %rsi
 868      10
 869 0296 BF0A0000 		movl	$10, %edi
 869      00
 870 029b E8000000 		call	atiny_cmd_ioctl
 870      00
 871              	.LVL99:
 308:/home/baikal/workspace/C50/Huawei_IoT_Agent_Tiny_SDK_Linux//agent_tiny/lwm2m_client/object_device.c ****         {
 872              		.loc 1 308 0
 873 02a0 85C0     		testl	%eax, %eax
 874 02a2 0F858801 		jne	.L97
 874      0000
 310:/home/baikal/workspace/C50/Huawei_IoT_Agent_Tiny_SDK_Linux//agent_tiny/lwm2m_client/object_device.c ****             return COAP_205_CONTENT;
 875              		.loc 1 310 0
 876 02a8 48637C24 		movslq	16(%rsp), %rdi
 876      10
 877 02ad 4889DE   		movq	%rbx, %rsi
 878 02b0 E8000000 		call	lwm2m_data_encode_int
 878      00
 879              	.LVL100:
 311:/home/baikal/workspace/C50/Huawei_IoT_Agent_Tiny_SDK_Linux//agent_tiny/lwm2m_client/object_device.c ****         }
 880              		.loc 1 311 0
 881 02b5 B8450000 		movl	$69, %eax
 881      00
 882 02ba E9990100 		jmp	.L67
 882      00
 883              	.L79:
 321:/home/baikal/workspace/C50/Huawei_IoT_Agent_Tiny_SDK_Linux//agent_tiny/lwm2m_client/object_device.c ****         if (subTlvP == NULL) return COAP_500_INTERNAL_SERVER_ERROR;
 884              		.loc 1 321 0
 885 02bf BF010000 		movl	$1, %edi
 885      00
 886 02c4 E8000000 		call	lwm2m_data_new
 886      00
 887              	.LVL101:
GAS LISTING /tmp/ccTB4Y6B.s 			page 34


 888 02c9 4889C5   		movq	%rax, %rbp
 889              	.LVL102:
 322:/home/baikal/workspace/C50/Huawei_IoT_Agent_Tiny_SDK_Linux//agent_tiny/lwm2m_client/object_device.c ****         subTlvP[0].id = 0;
 890              		.loc 1 322 0
 891 02cc 4885C0   		testq	%rax, %rax
 892 02cf 0F846201 		je	.L98
 892      0000
 323:/home/baikal/workspace/C50/Huawei_IoT_Agent_Tiny_SDK_Linux//agent_tiny/lwm2m_client/object_device.c ****         result = atiny_cmd_ioctl(ATINY_GET_DEV_ERR, (char *)&err, sizeof(int));
 893              		.loc 1 323 0
 894 02d5 66C74004 		movw	$0, 4(%rax)
 894      0000
 324:/home/baikal/workspace/C50/Huawei_IoT_Agent_Tiny_SDK_Linux//agent_tiny/lwm2m_client/object_device.c ****         if(result == ATINY_OK)
 895              		.loc 1 324 0
 896 02db BA040000 		movl	$4, %edx
 896      00
 897 02e0 488D7424 		leaq	12(%rsp), %rsi
 897      0C
 898 02e5 BF0B0000 		movl	$11, %edi
 898      00
 899 02ea E8000000 		call	atiny_cmd_ioctl
 899      00
 900              	.LVL103:
 325:/home/baikal/workspace/C50/Huawei_IoT_Agent_Tiny_SDK_Linux//agent_tiny/lwm2m_client/object_device.c ****         {
 901              		.loc 1 325 0
 902 02ef 85C0     		testl	%eax, %eax
 903 02f1 7527     		jne	.L87
 327:/home/baikal/workspace/C50/Huawei_IoT_Agent_Tiny_SDK_Linux//agent_tiny/lwm2m_client/object_device.c ****             lwm2m_data_encode_instances(subTlvP, 1, dataP);
 904              		.loc 1 327 0
 905 02f3 48637C24 		movslq	12(%rsp), %rdi
 905      0C
 906 02f8 4889EE   		movq	%rbp, %rsi
 907 02fb E8000000 		call	lwm2m_data_encode_int
 907      00
 908              	.LVL104:
 328:/home/baikal/workspace/C50/Huawei_IoT_Agent_Tiny_SDK_Linux//agent_tiny/lwm2m_client/object_device.c ****             return COAP_205_CONTENT;
 909              		.loc 1 328 0
 910 0300 4889DA   		movq	%rbx, %rdx
 911 0303 BE010000 		movl	$1, %esi
 911      00
 912 0308 4889EF   		movq	%rbp, %rdi
 913 030b E8000000 		call	lwm2m_data_encode_instances
 913      00
 914              	.LVL105:
 329:/home/baikal/workspace/C50/Huawei_IoT_Agent_Tiny_SDK_Linux//agent_tiny/lwm2m_client/object_device.c ****         }
 915              		.loc 1 329 0
 916 0310 B8450000 		movl	$69, %eax
 916      00
 917 0315 E93E0100 		jmp	.L67
 917      00
 918              	.LVL106:
 919              	.L87:
 333:/home/baikal/workspace/C50/Huawei_IoT_Agent_Tiny_SDK_Linux//agent_tiny/lwm2m_client/object_device.c ****             return COAP_400_BAD_REQUEST;
 920              		.loc 1 333 0
 921 031a 4889EF   		movq	%rbp, %rdi
 922 031d E8000000 		call	lwm2m_free
 922      00
 923              	.LVL107:
GAS LISTING /tmp/ccTB4Y6B.s 			page 35


 334:/home/baikal/workspace/C50/Huawei_IoT_Agent_Tiny_SDK_Linux//agent_tiny/lwm2m_client/object_device.c ****         }
 924              		.loc 1 334 0
 925 0322 B880FFFF 		movl	$-128, %eax
 925      FF
 926 0327 E92C0100 		jmp	.L67
 926      00
 927              	.LVL108:
 928              	.L80:
 341:/home/baikal/workspace/C50/Huawei_IoT_Agent_Tiny_SDK_Linux//agent_tiny/lwm2m_client/object_device.c ****         if(result == ATINY_OK)
 929              		.loc 1 341 0
 930 032c BA080000 		movl	$8, %edx
 930      00
 931 0331 488D7424 		leaq	72(%rsp), %rsi
 931      48
 932 0336 BF0D0000 		movl	$13, %edi
 932      00
 933 033b E8000000 		call	atiny_cmd_ioctl
 933      00
 934              	.LVL109:
 342:/home/baikal/workspace/C50/Huawei_IoT_Agent_Tiny_SDK_Linux//agent_tiny/lwm2m_client/object_device.c ****         {
 935              		.loc 1 342 0
 936 0340 85C0     		testl	%eax, %eax
 937 0342 0F85F600 		jne	.L99
 937      0000
 344:/home/baikal/workspace/C50/Huawei_IoT_Agent_Tiny_SDK_Linux//agent_tiny/lwm2m_client/object_device.c ****             return COAP_205_CONTENT;
 938              		.loc 1 344 0
 939 0348 4889DE   		movq	%rbx, %rsi
 940 034b 488B7C24 		movq	72(%rsp), %rdi
 940      48
 941 0350 E8000000 		call	lwm2m_data_encode_int
 941      00
 942              	.LVL110:
 345:/home/baikal/workspace/C50/Huawei_IoT_Agent_Tiny_SDK_Linux//agent_tiny/lwm2m_client/object_device.c ****         }
 943              		.loc 1 345 0
 944 0355 B8450000 		movl	$69, %eax
 944      00
 945 035a E9F90000 		jmp	.L67
 945      00
 946              	.L81:
 353:/home/baikal/workspace/C50/Huawei_IoT_Agent_Tiny_SDK_Linux//agent_tiny/lwm2m_client/object_device.c ****         if(result == ATINY_OK)
 947              		.loc 1 353 0
 948 035f BA070000 		movl	$7, %edx
 948      00
 949 0364 488D7424 		leaq	64(%rsp), %rsi
 949      40
 950 0369 BF0F0000 		movl	$15, %edi
 950      00
 951 036e E8000000 		call	atiny_cmd_ioctl
 951      00
 952              	.LVL111:
 354:/home/baikal/workspace/C50/Huawei_IoT_Agent_Tiny_SDK_Linux//agent_tiny/lwm2m_client/object_device.c ****         {
 953              		.loc 1 354 0
 954 0373 85C0     		testl	%eax, %eax
 955 0375 0F85CA00 		jne	.L100
 955      0000
 356:/home/baikal/workspace/C50/Huawei_IoT_Agent_Tiny_SDK_Linux//agent_tiny/lwm2m_client/object_device.c ****             return COAP_205_CONTENT;
 956              		.loc 1 356 0
GAS LISTING /tmp/ccTB4Y6B.s 			page 36


 957 037b 4889DE   		movq	%rbx, %rsi
 958 037e 488D7C24 		leaq	64(%rsp), %rdi
 958      40
 959 0383 E8000000 		call	lwm2m_data_encode_string
 959      00
 960              	.LVL112:
 357:/home/baikal/workspace/C50/Huawei_IoT_Agent_Tiny_SDK_Linux//agent_tiny/lwm2m_client/object_device.c ****         }
 961              		.loc 1 357 0
 962 0388 B8450000 		movl	$69, %eax
 962      00
 963 038d E9C60000 		jmp	.L67
 963      00
 964              	.L82:
 365:/home/baikal/workspace/C50/Huawei_IoT_Agent_Tiny_SDK_Linux//agent_tiny/lwm2m_client/object_device.c ****         if(result == ATINY_OK)
 965              		.loc 1 365 0
 966 0392 BA190000 		movl	$25, %edx
 966      00
 967 0397 488D7424 		leaq	32(%rsp), %rsi
 967      20
 968 039c BF110000 		movl	$17, %edi
 968      00
 969 03a1 E8000000 		call	atiny_cmd_ioctl
 969      00
 970              	.LVL113:
 366:/home/baikal/workspace/C50/Huawei_IoT_Agent_Tiny_SDK_Linux//agent_tiny/lwm2m_client/object_device.c ****         {
 971              		.loc 1 366 0
 972 03a6 85C0     		testl	%eax, %eax
 973 03a8 0F859E00 		jne	.L101
 973      0000
 368:/home/baikal/workspace/C50/Huawei_IoT_Agent_Tiny_SDK_Linux//agent_tiny/lwm2m_client/object_device.c ****             return COAP_205_CONTENT;
 974              		.loc 1 368 0
 975 03ae 4889DE   		movq	%rbx, %rsi
 976 03b1 488D7C24 		leaq	32(%rsp), %rdi
 976      20
 977 03b6 E8000000 		call	lwm2m_data_encode_string
 977      00
 978              	.LVL114:
 369:/home/baikal/workspace/C50/Huawei_IoT_Agent_Tiny_SDK_Linux//agent_tiny/lwm2m_client/object_device.c ****         }
 979              		.loc 1 369 0
 980 03bb B8450000 		movl	$69, %eax
 980      00
 981 03c0 E9930000 		jmp	.L67
 981      00
 982              	.L83:
 377:/home/baikal/workspace/C50/Huawei_IoT_Agent_Tiny_SDK_Linux//agent_tiny/lwm2m_client/object_device.c ****         if(result == ATINY_OK)
 983              		.loc 1 377 0
 984 03c5 BA400000 		movl	$64, %edx
 984      00
 985 03ca 488D7424 		leaq	80(%rsp), %rsi
 985      50
 986 03cf BF130000 		movl	$19, %edi
 986      00
 987 03d4 E8000000 		call	atiny_cmd_ioctl
 987      00
 988              	.LVL115:
 378:/home/baikal/workspace/C50/Huawei_IoT_Agent_Tiny_SDK_Linux//agent_tiny/lwm2m_client/object_device.c ****         {
 989              		.loc 1 378 0
GAS LISTING /tmp/ccTB4Y6B.s 			page 37


 990 03d9 85C0     		testl	%eax, %eax
 991 03db 7576     		jne	.L102
 380:/home/baikal/workspace/C50/Huawei_IoT_Agent_Tiny_SDK_Linux//agent_tiny/lwm2m_client/object_device.c ****             return COAP_205_CONTENT;
 992              		.loc 1 380 0
 993 03dd 4889DE   		movq	%rbx, %rsi
 994 03e0 488D7C24 		leaq	80(%rsp), %rdi
 994      50
 995 03e5 E8000000 		call	lwm2m_data_encode_string
 995      00
 996              	.LVL116:
 381:/home/baikal/workspace/C50/Huawei_IoT_Agent_Tiny_SDK_Linux//agent_tiny/lwm2m_client/object_device.c ****         }
 997              		.loc 1 381 0
 998 03ea B8450000 		movl	$69, %eax
 998      00
 999 03ef EB67     		jmp	.L67
 1000              	.LVL117:
 1001              	.L88:
 388:/home/baikal/workspace/C50/Huawei_IoT_Agent_Tiny_SDK_Linux//agent_tiny/lwm2m_client/object_device.c ****     }
 1002              		.loc 1 388 0
 1003 03f1 B884FFFF 		movl	$-124, %eax
 1003      FF
 1004 03f6 EB60     		jmp	.L67
 1005              	.LVL118:
 1006              	.L89:
 189:/home/baikal/workspace/C50/Huawei_IoT_Agent_Tiny_SDK_Linux//agent_tiny/lwm2m_client/object_device.c ****         }
 1007              		.loc 1 189 0
 1008 03f8 B880FFFF 		movl	$-128, %eax
 1008      FF
 1009              	.LVL119:
 1010 03fd EB59     		jmp	.L67
 1011              	.LVL120:
 1012              	.L90:
 201:/home/baikal/workspace/C50/Huawei_IoT_Agent_Tiny_SDK_Linux//agent_tiny/lwm2m_client/object_device.c ****         }
 1013              		.loc 1 201 0
 1014 03ff B880FFFF 		movl	$-128, %eax
 1014      FF
 1015              	.LVL121:
 1016 0404 EB52     		jmp	.L67
 1017              	.LVL122:
 1018              	.L91:
 213:/home/baikal/workspace/C50/Huawei_IoT_Agent_Tiny_SDK_Linux//agent_tiny/lwm2m_client/object_device.c ****         }
 1019              		.loc 1 213 0
 1020 0406 B880FFFF 		movl	$-128, %eax
 1020      FF
 1021              	.LVL123:
 1022 040b EB4B     		jmp	.L67
 1023              	.LVL124:
 1024              	.L92:
 225:/home/baikal/workspace/C50/Huawei_IoT_Agent_Tiny_SDK_Linux//agent_tiny/lwm2m_client/object_device.c ****         }
 1025              		.loc 1 225 0
 1026 040d B880FFFF 		movl	$-128, %eax
 1026      FF
 1027              	.LVL125:
 1028 0412 EB44     		jmp	.L67
 1029              	.LVL126:
 1030              	.L93:
 237:/home/baikal/workspace/C50/Huawei_IoT_Agent_Tiny_SDK_Linux//agent_tiny/lwm2m_client/object_device.c ****         subTlvP[0].id = 0;
GAS LISTING /tmp/ccTB4Y6B.s 			page 38


 1031              		.loc 1 237 0
 1032 0414 B8A0FFFF 		movl	$-96, %eax
 1032      FF
 1033              	.LVL127:
 1034 0419 EB3D     		jmp	.L67
 1035              	.LVL128:
 1036              	.L94:
 256:/home/baikal/workspace/C50/Huawei_IoT_Agent_Tiny_SDK_Linux//agent_tiny/lwm2m_client/object_device.c ****         subTlvP[0].id = 0;
 1037              		.loc 1 256 0
 1038 041b B8A0FFFF 		movl	$-96, %eax
 1038      FF
 1039              	.LVL129:
 1040 0420 EB36     		jmp	.L67
 1041              	.LVL130:
 1042              	.L95:
 275:/home/baikal/workspace/C50/Huawei_IoT_Agent_Tiny_SDK_Linux//agent_tiny/lwm2m_client/object_device.c ****         subTlvP[0].id = 0;
 1043              		.loc 1 275 0
 1044 0422 B8A0FFFF 		movl	$-96, %eax
 1044      FF
 1045              	.LVL131:
 1046 0427 EB2F     		jmp	.L67
 1047              	.LVL132:
 1048              	.L96:
 301:/home/baikal/workspace/C50/Huawei_IoT_Agent_Tiny_SDK_Linux//agent_tiny/lwm2m_client/object_device.c ****         }
 1049              		.loc 1 301 0
 1050 0429 B880FFFF 		movl	$-128, %eax
 1050      FF
 1051              	.LVL133:
 1052 042e EB28     		jmp	.L67
 1053              	.LVL134:
 1054              	.L97:
 315:/home/baikal/workspace/C50/Huawei_IoT_Agent_Tiny_SDK_Linux//agent_tiny/lwm2m_client/object_device.c ****         }
 1055              		.loc 1 315 0
 1056 0430 B880FFFF 		movl	$-128, %eax
 1056      FF
 1057              	.LVL135:
 1058 0435 EB21     		jmp	.L67
 1059              	.LVL136:
 1060              	.L98:
 322:/home/baikal/workspace/C50/Huawei_IoT_Agent_Tiny_SDK_Linux//agent_tiny/lwm2m_client/object_device.c ****         subTlvP[0].id = 0;
 1061              		.loc 1 322 0
 1062 0437 B8A0FFFF 		movl	$-96, %eax
 1062      FF
 1063              	.LVL137:
 1064 043c EB1A     		jmp	.L67
 1065              	.LVL138:
 1066              	.L99:
 349:/home/baikal/workspace/C50/Huawei_IoT_Agent_Tiny_SDK_Linux//agent_tiny/lwm2m_client/object_device.c ****         }
 1067              		.loc 1 349 0
 1068 043e B880FFFF 		movl	$-128, %eax
 1068      FF
 1069              	.LVL139:
 1070 0443 EB13     		jmp	.L67
 1071              	.LVL140:
 1072              	.L100:
 361:/home/baikal/workspace/C50/Huawei_IoT_Agent_Tiny_SDK_Linux//agent_tiny/lwm2m_client/object_device.c ****         }
 1073              		.loc 1 361 0
GAS LISTING /tmp/ccTB4Y6B.s 			page 39


 1074 0445 B880FFFF 		movl	$-128, %eax
 1074      FF
 1075              	.LVL141:
 1076 044a EB0C     		jmp	.L67
 1077              	.LVL142:
 1078              	.L101:
 373:/home/baikal/workspace/C50/Huawei_IoT_Agent_Tiny_SDK_Linux//agent_tiny/lwm2m_client/object_device.c ****         }
 1079              		.loc 1 373 0
 1080 044c B880FFFF 		movl	$-128, %eax
 1080      FF
 1081              	.LVL143:
 1082 0451 EB05     		jmp	.L67
 1083              	.LVL144:
 1084              	.L102:
 385:/home/baikal/workspace/C50/Huawei_IoT_Agent_Tiny_SDK_Linux//agent_tiny/lwm2m_client/object_device.c ****         }
 1085              		.loc 1 385 0
 1086 0453 B880FFFF 		movl	$-128, %eax
 1086      FF
 1087              	.LVL145:
 1088              	.L67:
 390:/home/baikal/workspace/C50/Huawei_IoT_Agent_Tiny_SDK_Linux//agent_tiny/lwm2m_client/object_device.c **** 
 1089              		.loc 1 390 0
 1090 0458 4881C4A8 		addq	$168, %rsp
 1090      000000
 1091              	.LCFI27:
 1092              		.cfi_def_cfa_offset 24
 1093 045f 5B       		popq	%rbx
 1094              	.LCFI28:
 1095              		.cfi_def_cfa_offset 16
 1096 0460 5D       		popq	%rbp
 1097              	.LCFI29:
 1098              		.cfi_def_cfa_offset 8
 1099 0461 C3       		ret
 1100              		.cfi_endproc
 1101              	.LFE72:
 1103              		.section	.text.prv_device_read,"ax",@progbits
 1105              	prv_device_read:
 1106              	.LFB73:
 397:/home/baikal/workspace/C50/Huawei_IoT_Agent_Tiny_SDK_Linux//agent_tiny/lwm2m_client/object_device.c ****     uint8_t result;
 1107              		.loc 1 397 0
 1108              		.cfi_startproc
 1109              	.LVL146:
 402:/home/baikal/workspace/C50/Huawei_IoT_Agent_Tiny_SDK_Linux//agent_tiny/lwm2m_client/object_device.c ****     {
 1110              		.loc 1 402 0
 1111 0000 6685FF   		testw	%di, %di
 1112 0003 0F85F000 		jne	.L111
 1112      0000
 397:/home/baikal/workspace/C50/Huawei_IoT_Agent_Tiny_SDK_Linux//agent_tiny/lwm2m_client/object_device.c ****     uint8_t result;
 1113              		.loc 1 397 0
 1114 0009 4154     		pushq	%r12
 1115              	.LCFI30:
 1116              		.cfi_def_cfa_offset 16
 1117              		.cfi_offset 12, -16
 1118 000b 55       		pushq	%rbp
 1119              	.LCFI31:
 1120              		.cfi_def_cfa_offset 24
 1121              		.cfi_offset 6, -24
GAS LISTING /tmp/ccTB4Y6B.s 			page 40


 1122 000c 53       		pushq	%rbx
 1123              	.LCFI32:
 1124              		.cfi_def_cfa_offset 32
 1125              		.cfi_offset 3, -32
 1126 000d 4883EC20 		subq	$32, %rsp
 1127              	.LCFI33:
 1128              		.cfi_def_cfa_offset 64
 1129 0011 4889D5   		movq	%rdx, %rbp
 1130 0014 4989F4   		movq	%rsi, %r12
 408:/home/baikal/workspace/C50/Huawei_IoT_Agent_Tiny_SDK_Linux//agent_tiny/lwm2m_client/object_device.c ****     {
 1131              		.loc 1 408 0
 1132 0017 833E00   		cmpl	$0, (%rsi)
 1133 001a 0F85AD00 		jne	.L106
 1133      0000
 1134              	.LBB7:
 410:/home/baikal/workspace/C50/Huawei_IoT_Agent_Tiny_SDK_Linux//agent_tiny/lwm2m_client/object_device.c ****         {
 1135              		.loc 1 410 0
 1136 0020 66C70424 		movw	$0, (%rsp)
 1136      0000
 1137 0026 66C74424 		movw	$1, 2(%rsp)
 1137      020100
 1138 002d 66C74424 		movw	$2, 4(%rsp)
 1138      040200
 1139 0034 66C74424 		movw	$3, 6(%rsp)
 1139      060300
 1140 003b 66C74424 		movw	$6, 8(%rsp)
 1140      080600
 1141 0042 66C74424 		movw	$7, 10(%rsp)
 1141      0A0700
 1142 0049 66C74424 		movw	$8, 12(%rsp)
 1142      0C0800
 1143 0050 66C74424 		movw	$9, 14(%rsp)
 1143      0E0900
 1144 0057 66C74424 		movw	$10, 16(%rsp)
 1144      100A00
 1145 005e 66C74424 		movw	$11, 18(%rsp)
 1145      120B00
 1146 0065 66C74424 		movw	$13, 20(%rsp)
 1146      140D00
 1147 006c 66C74424 		movw	$14, 22(%rsp)
 1147      160E00
 1148 0073 66C74424 		movw	$15, 24(%rsp)
 1148      180F00
 1149 007a 66C74424 		movw	$16, 26(%rsp)
 1149      1A1000
 1150              	.LVL147:
 432:/home/baikal/workspace/C50/Huawei_IoT_Agent_Tiny_SDK_Linux//agent_tiny/lwm2m_client/object_device.c ****         if (*dataArrayP == NULL) return COAP_500_INTERNAL_SERVER_ERROR;
 1151              		.loc 1 432 0
 1152 0081 BF0E0000 		movl	$14, %edi
 1152      00
 1153              	.LVL148:
 1154 0086 E8000000 		call	lwm2m_data_new
 1154      00
 1155              	.LVL149:
 1156 008b 48894500 		movq	%rax, 0(%rbp)
 433:/home/baikal/workspace/C50/Huawei_IoT_Agent_Tiny_SDK_Linux//agent_tiny/lwm2m_client/object_device.c ****         *numDataP = nbRes;
 1157              		.loc 1 433 0
GAS LISTING /tmp/ccTB4Y6B.s 			page 41


 1158 008f 4885C0   		testq	%rax, %rax
 1159 0092 7507     		jne	.L107
 433:/home/baikal/workspace/C50/Huawei_IoT_Agent_Tiny_SDK_Linux//agent_tiny/lwm2m_client/object_device.c ****         *numDataP = nbRes;
 1160              		.loc 1 433 0 is_stmt 0 discriminator 1
 1161 0094 B8A0FFFF 		movl	$-96, %eax
 1161      FF
 1162 0099 EB64     		jmp	.L105
 1163              	.L107:
 434:/home/baikal/workspace/C50/Huawei_IoT_Agent_Tiny_SDK_Linux//agent_tiny/lwm2m_client/object_device.c ****         for (i = 0 ; i < nbRes ; i++)
 1164              		.loc 1 434 0 is_stmt 1
 1165 009b 41C70424 		movl	$14, (%r12)
 1165      0E000000 
 1166              	.LVL150:
 435:/home/baikal/workspace/C50/Huawei_IoT_Agent_Tiny_SDK_Linux//agent_tiny/lwm2m_client/object_device.c ****         {
 1167              		.loc 1 435 0
 1168 00a3 BA000000 		movl	$0, %edx
 1168      00
 1169 00a8 EB1E     		jmp	.L108
 1170              	.LVL151:
 1171              	.L109:
 437:/home/baikal/workspace/C50/Huawei_IoT_Agent_Tiny_SDK_Linux//agent_tiny/lwm2m_client/object_device.c ****         }
 1172              		.loc 1 437 0 discriminator 3
 1173 00aa 4863CA   		movslq	%edx, %rcx
 1174 00ad 488D3449 		leaq	(%rcx,%rcx,2), %rsi
 1175 00b1 488D04F5 		leaq	0(,%rsi,8), %rax
 1175      00000000 
 1176 00b9 48034500 		addq	0(%rbp), %rax
 1177 00bd 0FB70C4C 		movzwl	(%rsp,%rcx,2), %ecx
 1178 00c1 66894804 		movw	%cx, 4(%rax)
 435:/home/baikal/workspace/C50/Huawei_IoT_Agent_Tiny_SDK_Linux//agent_tiny/lwm2m_client/object_device.c ****         {
 1179              		.loc 1 435 0 discriminator 3
 1180 00c5 83C201   		addl	$1, %edx
 1181              	.LVL152:
 1182              	.L108:
 435:/home/baikal/workspace/C50/Huawei_IoT_Agent_Tiny_SDK_Linux//agent_tiny/lwm2m_client/object_device.c ****         {
 1183              		.loc 1 435 0 is_stmt 0 discriminator 1
 1184 00c8 83FA0D   		cmpl	$13, %edx
 1185 00cb 7EDD     		jle	.L109
 1186              	.LVL153:
 1187              	.L106:
 435:/home/baikal/workspace/C50/Huawei_IoT_Agent_Tiny_SDK_Linux//agent_tiny/lwm2m_client/object_device.c ****         {
 1188              		.loc 1 435 0 discriminator 2
 1189 00cd BB000000 		movl	$0, %ebx
 1189      00
 1190              	.L110:
 1191              	.LVL154:
 1192              	.LBE7:
 444:/home/baikal/workspace/C50/Huawei_IoT_Agent_Tiny_SDK_Linux//agent_tiny/lwm2m_client/object_device.c ****         i++;
 1193              		.loc 1 444 0 is_stmt 1 discriminator 2
 1194 00d2 4863C3   		movslq	%ebx, %rax
 1195 00d5 488D0440 		leaq	(%rax,%rax,2), %rax
 1196 00d9 488D3CC5 		leaq	0(,%rax,8), %rdi
 1196      00000000 
 1197 00e1 48037D00 		addq	0(%rbp), %rdi
 1198 00e5 E8000000 		call	prv_set_value
 1198      00
 1199              	.LVL155:
GAS LISTING /tmp/ccTB4Y6B.s 			page 42


 445:/home/baikal/workspace/C50/Huawei_IoT_Agent_Tiny_SDK_Linux//agent_tiny/lwm2m_client/object_device.c ****     }
 1200              		.loc 1 445 0 discriminator 2
 1201 00ea 83C301   		addl	$1, %ebx
 1202              	.LVL156:
 447:/home/baikal/workspace/C50/Huawei_IoT_Agent_Tiny_SDK_Linux//agent_tiny/lwm2m_client/object_device.c **** 
 1203              		.loc 1 447 0 discriminator 2
 1204 00ed 413B1C24 		cmpl	(%r12), %ebx
 1205 00f1 7D0C     		jge	.L105
 447:/home/baikal/workspace/C50/Huawei_IoT_Agent_Tiny_SDK_Linux//agent_tiny/lwm2m_client/object_device.c **** 
 1206              		.loc 1 447 0 is_stmt 0 discriminator 1
 1207 00f3 3C45     		cmpb	$69, %al
 1208 00f5 74DB     		je	.L110
 1209 00f7 EB06     		jmp	.L105
 1210              	.LVL157:
 1211              	.L111:
 1212              	.LCFI34:
 1213              		.cfi_def_cfa_offset 8
 1214              		.cfi_restore 3
 1215              		.cfi_restore 6
 1216              		.cfi_restore 12
 404:/home/baikal/workspace/C50/Huawei_IoT_Agent_Tiny_SDK_Linux//agent_tiny/lwm2m_client/object_device.c ****     }
 1217              		.loc 1 404 0 is_stmt 1
 1218 00f9 B884FFFF 		movl	$-124, %eax
 1218      FF
 1219 00fe C3       		ret
 1220              	.LVL158:
 1221              	.L105:
 1222              	.LCFI35:
 1223              		.cfi_def_cfa_offset 64
 1224              		.cfi_offset 3, -32
 1225              		.cfi_offset 6, -24
 1226              		.cfi_offset 12, -16
 450:/home/baikal/workspace/C50/Huawei_IoT_Agent_Tiny_SDK_Linux//agent_tiny/lwm2m_client/object_device.c **** 
 1227              		.loc 1 450 0
 1228 00ff 4883C420 		addq	$32, %rsp
 1229              	.LCFI36:
 1230              		.cfi_def_cfa_offset 32
 1231 0103 5B       		popq	%rbx
 1232              	.LCFI37:
 1233              		.cfi_restore 3
 1234              		.cfi_def_cfa_offset 24
 1235 0104 5D       		popq	%rbp
 1236              	.LCFI38:
 1237              		.cfi_restore 6
 1238              		.cfi_def_cfa_offset 16
 1239              	.LVL159:
 1240 0105 415C     		popq	%r12
 1241              	.LCFI39:
 1242              		.cfi_restore 12
 1243              		.cfi_def_cfa_offset 8
 1244              	.LVL160:
 1245 0107 C3       		ret
 1246              		.cfi_endproc
 1247              	.LFE73:
 1249              		.section	.text.display_device_object,"ax",@progbits
 1250              		.globl	display_device_object
 1252              	display_device_object:
GAS LISTING /tmp/ccTB4Y6B.s 			page 43


 1253              	.LFB77:
 660:/home/baikal/workspace/C50/Huawei_IoT_Agent_Tiny_SDK_Linux//agent_tiny/lwm2m_client/object_device.c **** 
 661:/home/baikal/workspace/C50/Huawei_IoT_Agent_Tiny_SDK_Linux//agent_tiny/lwm2m_client/object_device.c **** void display_device_object(lwm2m_object_t *object)
 662:/home/baikal/workspace/C50/Huawei_IoT_Agent_Tiny_SDK_Linux//agent_tiny/lwm2m_client/object_device.c **** {
 1254              		.loc 1 662 0
 1255              		.cfi_startproc
 1256              	.LVL161:
 1257 0000 F3C3     		rep ret
 1258              		.cfi_endproc
 1259              	.LFE77:
 1261              		.section	.text.get_object_device,"ax",@progbits
 1262              		.globl	get_object_device
 1264              	get_object_device:
 1265              	.LFB78:
 663:/home/baikal/workspace/C50/Huawei_IoT_Agent_Tiny_SDK_Linux//agent_tiny/lwm2m_client/object_device.c **** #ifdef WITH_LOGS
 664:/home/baikal/workspace/C50/Huawei_IoT_Agent_Tiny_SDK_Linux//agent_tiny/lwm2m_client/object_device.c **** 
 665:/home/baikal/workspace/C50/Huawei_IoT_Agent_Tiny_SDK_Linux//agent_tiny/lwm2m_client/object_device.c **** #endif
 666:/home/baikal/workspace/C50/Huawei_IoT_Agent_Tiny_SDK_Linux//agent_tiny/lwm2m_client/object_device.c **** }
 667:/home/baikal/workspace/C50/Huawei_IoT_Agent_Tiny_SDK_Linux//agent_tiny/lwm2m_client/object_device.c **** 
 668:/home/baikal/workspace/C50/Huawei_IoT_Agent_Tiny_SDK_Linux//agent_tiny/lwm2m_client/object_device.c **** 
 669:/home/baikal/workspace/C50/Huawei_IoT_Agent_Tiny_SDK_Linux//agent_tiny/lwm2m_client/object_device.c **** lwm2m_object_t *get_object_device(atiny_param_t *atiny_params, const char *manufacturer)
 670:/home/baikal/workspace/C50/Huawei_IoT_Agent_Tiny_SDK_Linux//agent_tiny/lwm2m_client/object_device.c **** {
 1266              		.loc 1 670 0
 1267              		.cfi_startproc
 1268              	.LVL162:
 1269              		.loc 1 670 0
 1270 0000 53       		pushq	%rbx
 1271              	.LCFI40:
 1272              		.cfi_def_cfa_offset 16
 1273              		.cfi_offset 3, -16
 671:/home/baikal/workspace/C50/Huawei_IoT_Agent_Tiny_SDK_Linux//agent_tiny/lwm2m_client/object_device.c ****     /*
 672:/home/baikal/workspace/C50/Huawei_IoT_Agent_Tiny_SDK_Linux//agent_tiny/lwm2m_client/object_device.c ****      * The get_object_device function create the object itself and return a pointer to the structur
 673:/home/baikal/workspace/C50/Huawei_IoT_Agent_Tiny_SDK_Linux//agent_tiny/lwm2m_client/object_device.c ****      */
 674:/home/baikal/workspace/C50/Huawei_IoT_Agent_Tiny_SDK_Linux//agent_tiny/lwm2m_client/object_device.c ****     lwm2m_object_t *deviceObj;
 675:/home/baikal/workspace/C50/Huawei_IoT_Agent_Tiny_SDK_Linux//agent_tiny/lwm2m_client/object_device.c **** 
 676:/home/baikal/workspace/C50/Huawei_IoT_Agent_Tiny_SDK_Linux//agent_tiny/lwm2m_client/object_device.c ****     deviceObj = (lwm2m_object_t *)lwm2m_malloc(sizeof(lwm2m_object_t));
 1274              		.loc 1 676 0
 1275 0001 BF580000 		movl	$88, %edi
 1275      00
 1276              	.LVL163:
 1277 0006 E8000000 		call	lwm2m_malloc
 1277      00
 1278              	.LVL164:
 1279 000b 4889C3   		movq	%rax, %rbx
 1280              	.LVL165:
 677:/home/baikal/workspace/C50/Huawei_IoT_Agent_Tiny_SDK_Linux//agent_tiny/lwm2m_client/object_device.c **** 
 678:/home/baikal/workspace/C50/Huawei_IoT_Agent_Tiny_SDK_Linux//agent_tiny/lwm2m_client/object_device.c ****     if (NULL != deviceObj)
 1281              		.loc 1 678 0
 1282 000e 4885C0   		testq	%rax, %rax
 1283 0011 0F848900 		je	.L119
 1283      0000
 1284              	.LVL166:
 1285              	.LBB8:
 1286              	.LBB9:
 1287              		.file 2 "/usr/include/x86_64-linux-gnu/bits/string3.h"
   1:/usr/include/x86_64-linux-gnu/bits/string3.h **** /* Copyright (C) 2004-2016 Free Software Foundation, Inc.
   2:/usr/include/x86_64-linux-gnu/bits/string3.h ****    This file is part of the GNU C Library.
GAS LISTING /tmp/ccTB4Y6B.s 			page 44


   3:/usr/include/x86_64-linux-gnu/bits/string3.h **** 
   4:/usr/include/x86_64-linux-gnu/bits/string3.h ****    The GNU C Library is free software; you can redistribute it and/or
   5:/usr/include/x86_64-linux-gnu/bits/string3.h ****    modify it under the terms of the GNU Lesser General Public
   6:/usr/include/x86_64-linux-gnu/bits/string3.h ****    License as published by the Free Software Foundation; either
   7:/usr/include/x86_64-linux-gnu/bits/string3.h ****    version 2.1 of the License, or (at your option) any later version.
   8:/usr/include/x86_64-linux-gnu/bits/string3.h **** 
   9:/usr/include/x86_64-linux-gnu/bits/string3.h ****    The GNU C Library is distributed in the hope that it will be useful,
  10:/usr/include/x86_64-linux-gnu/bits/string3.h ****    but WITHOUT ANY WARRANTY; without even the implied warranty of
  11:/usr/include/x86_64-linux-gnu/bits/string3.h ****    MERCHANTABILITY or FITNESS FOR A PARTICULAR PURPOSE.  See the GNU
  12:/usr/include/x86_64-linux-gnu/bits/string3.h ****    Lesser General Public License for more details.
  13:/usr/include/x86_64-linux-gnu/bits/string3.h **** 
  14:/usr/include/x86_64-linux-gnu/bits/string3.h ****    You should have received a copy of the GNU Lesser General Public
  15:/usr/include/x86_64-linux-gnu/bits/string3.h ****    License along with the GNU C Library; if not, see
  16:/usr/include/x86_64-linux-gnu/bits/string3.h ****    <http://www.gnu.org/licenses/>.  */
  17:/usr/include/x86_64-linux-gnu/bits/string3.h **** 
  18:/usr/include/x86_64-linux-gnu/bits/string3.h **** #ifndef _STRING_H
  19:/usr/include/x86_64-linux-gnu/bits/string3.h **** # error "Never use <bits/string3.h> directly; include <string.h> instead."
  20:/usr/include/x86_64-linux-gnu/bits/string3.h **** #endif
  21:/usr/include/x86_64-linux-gnu/bits/string3.h **** 
  22:/usr/include/x86_64-linux-gnu/bits/string3.h **** #if !__GNUC_PREREQ (5,0)
  23:/usr/include/x86_64-linux-gnu/bits/string3.h **** __warndecl (__warn_memset_zero_len,
  24:/usr/include/x86_64-linux-gnu/bits/string3.h **** 	    "memset used with constant zero length parameter; this could be due to transposed parameters")
  25:/usr/include/x86_64-linux-gnu/bits/string3.h **** #endif
  26:/usr/include/x86_64-linux-gnu/bits/string3.h **** 
  27:/usr/include/x86_64-linux-gnu/bits/string3.h **** #ifndef __cplusplus
  28:/usr/include/x86_64-linux-gnu/bits/string3.h **** /* XXX This is temporarily.  We should not redefine any of the symbols
  29:/usr/include/x86_64-linux-gnu/bits/string3.h ****    and instead integrate the error checking into the original
  30:/usr/include/x86_64-linux-gnu/bits/string3.h ****    definitions.  */
  31:/usr/include/x86_64-linux-gnu/bits/string3.h **** # undef memcpy
  32:/usr/include/x86_64-linux-gnu/bits/string3.h **** # undef memmove
  33:/usr/include/x86_64-linux-gnu/bits/string3.h **** # undef memset
  34:/usr/include/x86_64-linux-gnu/bits/string3.h **** # undef strcat
  35:/usr/include/x86_64-linux-gnu/bits/string3.h **** # undef strcpy
  36:/usr/include/x86_64-linux-gnu/bits/string3.h **** # undef strncat
  37:/usr/include/x86_64-linux-gnu/bits/string3.h **** # undef strncpy
  38:/usr/include/x86_64-linux-gnu/bits/string3.h **** # ifdef __USE_GNU
  39:/usr/include/x86_64-linux-gnu/bits/string3.h **** #  undef mempcpy
  40:/usr/include/x86_64-linux-gnu/bits/string3.h **** #  undef stpcpy
  41:/usr/include/x86_64-linux-gnu/bits/string3.h **** # endif
  42:/usr/include/x86_64-linux-gnu/bits/string3.h **** # ifdef __USE_MISC
  43:/usr/include/x86_64-linux-gnu/bits/string3.h **** #  undef bcopy
  44:/usr/include/x86_64-linux-gnu/bits/string3.h **** #  undef bzero
  45:/usr/include/x86_64-linux-gnu/bits/string3.h **** # endif
  46:/usr/include/x86_64-linux-gnu/bits/string3.h **** #endif
  47:/usr/include/x86_64-linux-gnu/bits/string3.h **** 
  48:/usr/include/x86_64-linux-gnu/bits/string3.h **** 
  49:/usr/include/x86_64-linux-gnu/bits/string3.h **** __fortify_function void *
  50:/usr/include/x86_64-linux-gnu/bits/string3.h **** __NTH (memcpy (void *__restrict __dest, const void *__restrict __src,
  51:/usr/include/x86_64-linux-gnu/bits/string3.h **** 	       size_t __len))
  52:/usr/include/x86_64-linux-gnu/bits/string3.h **** {
  53:/usr/include/x86_64-linux-gnu/bits/string3.h ****   return __builtin___memcpy_chk (__dest, __src, __len, __bos0 (__dest));
  54:/usr/include/x86_64-linux-gnu/bits/string3.h **** }
  55:/usr/include/x86_64-linux-gnu/bits/string3.h **** 
  56:/usr/include/x86_64-linux-gnu/bits/string3.h **** __fortify_function void *
  57:/usr/include/x86_64-linux-gnu/bits/string3.h **** __NTH (memmove (void *__dest, const void *__src, size_t __len))
  58:/usr/include/x86_64-linux-gnu/bits/string3.h **** {
  59:/usr/include/x86_64-linux-gnu/bits/string3.h ****   return __builtin___memmove_chk (__dest, __src, __len, __bos0 (__dest));
GAS LISTING /tmp/ccTB4Y6B.s 			page 45


  60:/usr/include/x86_64-linux-gnu/bits/string3.h **** }
  61:/usr/include/x86_64-linux-gnu/bits/string3.h **** 
  62:/usr/include/x86_64-linux-gnu/bits/string3.h **** #ifdef __USE_GNU
  63:/usr/include/x86_64-linux-gnu/bits/string3.h **** __fortify_function void *
  64:/usr/include/x86_64-linux-gnu/bits/string3.h **** __NTH (mempcpy (void *__restrict __dest, const void *__restrict __src,
  65:/usr/include/x86_64-linux-gnu/bits/string3.h **** 		size_t __len))
  66:/usr/include/x86_64-linux-gnu/bits/string3.h **** {
  67:/usr/include/x86_64-linux-gnu/bits/string3.h ****   return __builtin___mempcpy_chk (__dest, __src, __len, __bos0 (__dest));
  68:/usr/include/x86_64-linux-gnu/bits/string3.h **** }
  69:/usr/include/x86_64-linux-gnu/bits/string3.h **** #endif
  70:/usr/include/x86_64-linux-gnu/bits/string3.h **** 
  71:/usr/include/x86_64-linux-gnu/bits/string3.h **** 
  72:/usr/include/x86_64-linux-gnu/bits/string3.h **** /* The first two tests here help to catch a somewhat common problem
  73:/usr/include/x86_64-linux-gnu/bits/string3.h ****    where the second and third parameter are transposed.  This is
  74:/usr/include/x86_64-linux-gnu/bits/string3.h ****    especially problematic if the intended fill value is zero.  In this
  75:/usr/include/x86_64-linux-gnu/bits/string3.h ****    case no work is done at all.  We detect these problems by referring
  76:/usr/include/x86_64-linux-gnu/bits/string3.h ****    non-existing functions.  */
  77:/usr/include/x86_64-linux-gnu/bits/string3.h **** __fortify_function void *
  78:/usr/include/x86_64-linux-gnu/bits/string3.h **** __NTH (memset (void *__dest, int __ch, size_t __len))
  79:/usr/include/x86_64-linux-gnu/bits/string3.h **** {
  80:/usr/include/x86_64-linux-gnu/bits/string3.h ****   /* GCC-5.0 and newer implements these checks in the compiler, so we don't
  81:/usr/include/x86_64-linux-gnu/bits/string3.h ****      need them here.  */
  82:/usr/include/x86_64-linux-gnu/bits/string3.h **** #if !__GNUC_PREREQ (5,0)
  83:/usr/include/x86_64-linux-gnu/bits/string3.h ****   if (__builtin_constant_p (__len) && __len == 0
  84:/usr/include/x86_64-linux-gnu/bits/string3.h ****       && (!__builtin_constant_p (__ch) || __ch != 0))
  85:/usr/include/x86_64-linux-gnu/bits/string3.h ****     {
  86:/usr/include/x86_64-linux-gnu/bits/string3.h ****       __warn_memset_zero_len ();
  87:/usr/include/x86_64-linux-gnu/bits/string3.h ****       return __dest;
  88:/usr/include/x86_64-linux-gnu/bits/string3.h ****     }
  89:/usr/include/x86_64-linux-gnu/bits/string3.h **** #endif
  90:/usr/include/x86_64-linux-gnu/bits/string3.h ****   return __builtin___memset_chk (__dest, __ch, __len, __bos0 (__dest));
 1288              		.loc 2 90 0
 1289 0017 48C70000 		movq	$0, (%rax)
 1289      000000
 1290 001e 48C74050 		movq	$0, 80(%rax)
 1290      00000000 
 1291 0026 488D7808 		leaq	8(%rax), %rdi
 1292 002a 4883E7F8 		andq	$-8, %rdi
 1293 002e 4889C1   		movq	%rax, %rcx
 1294 0031 4829F9   		subq	%rdi, %rcx
 1295 0034 83C158   		addl	$88, %ecx
 1296 0037 C1E903   		shrl	$3, %ecx
 1297 003a 89C9     		movl	%ecx, %ecx
 1298 003c B8000000 		movl	$0, %eax
 1298      00
 1299              	.LVL167:
 1300 0041 F348AB   		rep stosq
 1301              	.LVL168:
 1302              	.LBE9:
 1303              	.LBE8:
 679:/home/baikal/workspace/C50/Huawei_IoT_Agent_Tiny_SDK_Linux//agent_tiny/lwm2m_client/object_device.c ****     {
 680:/home/baikal/workspace/C50/Huawei_IoT_Agent_Tiny_SDK_Linux//agent_tiny/lwm2m_client/object_device.c ****         memset(deviceObj, 0, sizeof(lwm2m_object_t));
 681:/home/baikal/workspace/C50/Huawei_IoT_Agent_Tiny_SDK_Linux//agent_tiny/lwm2m_client/object_device.c **** 
 682:/home/baikal/workspace/C50/Huawei_IoT_Agent_Tiny_SDK_Linux//agent_tiny/lwm2m_client/object_device.c ****         /*
 683:/home/baikal/workspace/C50/Huawei_IoT_Agent_Tiny_SDK_Linux//agent_tiny/lwm2m_client/object_device.c ****          * It assigns his unique ID
 684:/home/baikal/workspace/C50/Huawei_IoT_Agent_Tiny_SDK_Linux//agent_tiny/lwm2m_client/object_device.c ****          * The 3 is the standard ID for the mandatory object "Object device".
 685:/home/baikal/workspace/C50/Huawei_IoT_Agent_Tiny_SDK_Linux//agent_tiny/lwm2m_client/object_device.c ****          */
GAS LISTING /tmp/ccTB4Y6B.s 			page 46


 686:/home/baikal/workspace/C50/Huawei_IoT_Agent_Tiny_SDK_Linux//agent_tiny/lwm2m_client/object_device.c ****         deviceObj->objID = LWM2M_DEVICE_OBJECT_ID;
 1304              		.loc 1 686 0
 1305 0044 66C74308 		movw	$3, 8(%rbx)
 1305      0300
 687:/home/baikal/workspace/C50/Huawei_IoT_Agent_Tiny_SDK_Linux//agent_tiny/lwm2m_client/object_device.c **** 
 688:/home/baikal/workspace/C50/Huawei_IoT_Agent_Tiny_SDK_Linux//agent_tiny/lwm2m_client/object_device.c ****         /*
 689:/home/baikal/workspace/C50/Huawei_IoT_Agent_Tiny_SDK_Linux//agent_tiny/lwm2m_client/object_device.c ****          * and its unique instance
 690:/home/baikal/workspace/C50/Huawei_IoT_Agent_Tiny_SDK_Linux//agent_tiny/lwm2m_client/object_device.c ****          *
 691:/home/baikal/workspace/C50/Huawei_IoT_Agent_Tiny_SDK_Linux//agent_tiny/lwm2m_client/object_device.c ****          */
 692:/home/baikal/workspace/C50/Huawei_IoT_Agent_Tiny_SDK_Linux//agent_tiny/lwm2m_client/object_device.c ****         deviceObj->instanceList = (lwm2m_list_t *)lwm2m_malloc(sizeof(lwm2m_list_t));
 1306              		.loc 1 692 0
 1307 004a BF100000 		movl	$16, %edi
 1307      00
 1308 004f E8000000 		call	lwm2m_malloc
 1308      00
 1309              	.LVL169:
 1310 0054 48894310 		movq	%rax, 16(%rbx)
 693:/home/baikal/workspace/C50/Huawei_IoT_Agent_Tiny_SDK_Linux//agent_tiny/lwm2m_client/object_device.c ****         if (NULL != deviceObj->instanceList)
 1311              		.loc 1 693 0
 1312 0058 4885C0   		testq	%rax, %rax
 1313 005b 7434     		je	.L118
 1314              	.LVL170:
 1315              	.LBB10:
 1316              	.LBB11:
 1317              		.loc 2 90 0
 1318 005d 48C70000 		movq	$0, (%rax)
 1318      000000
 1319 0064 48C74008 		movq	$0, 8(%rax)
 1319      00000000 
 1320              	.LVL171:
 1321              	.LBE11:
 1322              	.LBE10:
 694:/home/baikal/workspace/C50/Huawei_IoT_Agent_Tiny_SDK_Linux//agent_tiny/lwm2m_client/object_device.c ****         {
 695:/home/baikal/workspace/C50/Huawei_IoT_Agent_Tiny_SDK_Linux//agent_tiny/lwm2m_client/object_device.c ****             memset(deviceObj->instanceList, 0, sizeof(lwm2m_list_t));
 696:/home/baikal/workspace/C50/Huawei_IoT_Agent_Tiny_SDK_Linux//agent_tiny/lwm2m_client/object_device.c ****         }
 697:/home/baikal/workspace/C50/Huawei_IoT_Agent_Tiny_SDK_Linux//agent_tiny/lwm2m_client/object_device.c ****         else
 698:/home/baikal/workspace/C50/Huawei_IoT_Agent_Tiny_SDK_Linux//agent_tiny/lwm2m_client/object_device.c ****         {
 699:/home/baikal/workspace/C50/Huawei_IoT_Agent_Tiny_SDK_Linux//agent_tiny/lwm2m_client/object_device.c ****             lwm2m_free(deviceObj);
 700:/home/baikal/workspace/C50/Huawei_IoT_Agent_Tiny_SDK_Linux//agent_tiny/lwm2m_client/object_device.c ****             return NULL;
 701:/home/baikal/workspace/C50/Huawei_IoT_Agent_Tiny_SDK_Linux//agent_tiny/lwm2m_client/object_device.c ****         }
 702:/home/baikal/workspace/C50/Huawei_IoT_Agent_Tiny_SDK_Linux//agent_tiny/lwm2m_client/object_device.c **** 
 703:/home/baikal/workspace/C50/Huawei_IoT_Agent_Tiny_SDK_Linux//agent_tiny/lwm2m_client/object_device.c ****         /*
 704:/home/baikal/workspace/C50/Huawei_IoT_Agent_Tiny_SDK_Linux//agent_tiny/lwm2m_client/object_device.c ****          * And the private function that will access the object.
 705:/home/baikal/workspace/C50/Huawei_IoT_Agent_Tiny_SDK_Linux//agent_tiny/lwm2m_client/object_device.c ****          * Those function will be called when a read/write/execute query is made by the server. In 
 706:/home/baikal/workspace/C50/Huawei_IoT_Agent_Tiny_SDK_Linux//agent_tiny/lwm2m_client/object_device.c ****          * know the resources of the object, only the server does.
 707:/home/baikal/workspace/C50/Huawei_IoT_Agent_Tiny_SDK_Linux//agent_tiny/lwm2m_client/object_device.c ****          */
 708:/home/baikal/workspace/C50/Huawei_IoT_Agent_Tiny_SDK_Linux//agent_tiny/lwm2m_client/object_device.c ****         deviceObj->readFunc     = prv_device_read;
 1323              		.loc 1 708 0
 1324 006c 48C74318 		movq	$prv_device_read, 24(%rbx)
 1324      00000000 
 709:/home/baikal/workspace/C50/Huawei_IoT_Agent_Tiny_SDK_Linux//agent_tiny/lwm2m_client/object_device.c ****         deviceObj->discoverFunc = prv_device_discover;
 1325              		.loc 1 709 0
 1326 0074 48C74348 		movq	$prv_device_discover, 72(%rbx)
 1326      00000000 
 710:/home/baikal/workspace/C50/Huawei_IoT_Agent_Tiny_SDK_Linux//agent_tiny/lwm2m_client/object_device.c ****         deviceObj->writeFunc    = prv_device_write;
 1327              		.loc 1 710 0
 1328 007c 48C74320 		movq	$prv_device_write, 32(%rbx)
GAS LISTING /tmp/ccTB4Y6B.s 			page 47


 1328      00000000 
 711:/home/baikal/workspace/C50/Huawei_IoT_Agent_Tiny_SDK_Linux//agent_tiny/lwm2m_client/object_device.c ****         deviceObj->executeFunc  = prv_device_execute;
 1329              		.loc 1 711 0
 1330 0084 48C74328 		movq	$prv_device_execute, 40(%rbx)
 1330      00000000 
 712:/home/baikal/workspace/C50/Huawei_IoT_Agent_Tiny_SDK_Linux//agent_tiny/lwm2m_client/object_device.c ****     }
 713:/home/baikal/workspace/C50/Huawei_IoT_Agent_Tiny_SDK_Linux//agent_tiny/lwm2m_client/object_device.c **** 
 714:/home/baikal/workspace/C50/Huawei_IoT_Agent_Tiny_SDK_Linux//agent_tiny/lwm2m_client/object_device.c ****     return deviceObj;
 1331              		.loc 1 714 0
 1332 008c 4889D8   		movq	%rbx, %rax
 1333 008f EB0F     		jmp	.L117
 1334              	.L118:
 699:/home/baikal/workspace/C50/Huawei_IoT_Agent_Tiny_SDK_Linux//agent_tiny/lwm2m_client/object_device.c ****             return NULL;
 1335              		.loc 1 699 0
 1336 0091 4889DF   		movq	%rbx, %rdi
 1337 0094 E8000000 		call	lwm2m_free
 1337      00
 1338              	.LVL172:
 700:/home/baikal/workspace/C50/Huawei_IoT_Agent_Tiny_SDK_Linux//agent_tiny/lwm2m_client/object_device.c ****         }
 1339              		.loc 1 700 0
 1340 0099 B8000000 		movl	$0, %eax
 1340      00
 1341 009e EB00     		jmp	.L117
 1342              	.LVL173:
 1343              	.L119:
 1344              	.L117:
 715:/home/baikal/workspace/C50/Huawei_IoT_Agent_Tiny_SDK_Linux//agent_tiny/lwm2m_client/object_device.c **** }
 1345              		.loc 1 715 0
 1346 00a0 5B       		popq	%rbx
 1347              	.LCFI41:
 1348              		.cfi_def_cfa_offset 8
 1349              	.LVL174:
 1350 00a1 C3       		ret
 1351              		.cfi_endproc
 1352              	.LFE78:
 1354              		.section	.text.free_object_device,"ax",@progbits
 1355              		.globl	free_object_device
 1357              	free_object_device:
 1358              	.LFB79:
 716:/home/baikal/workspace/C50/Huawei_IoT_Agent_Tiny_SDK_Linux//agent_tiny/lwm2m_client/object_device.c **** 
 717:/home/baikal/workspace/C50/Huawei_IoT_Agent_Tiny_SDK_Linux//agent_tiny/lwm2m_client/object_device.c **** void free_object_device(lwm2m_object_t *objectP)
 718:/home/baikal/workspace/C50/Huawei_IoT_Agent_Tiny_SDK_Linux//agent_tiny/lwm2m_client/object_device.c **** {
 1359              		.loc 1 718 0
 1360              		.cfi_startproc
 1361              	.LVL175:
 1362 0000 53       		pushq	%rbx
 1363              	.LCFI42:
 1364              		.cfi_def_cfa_offset 16
 1365              		.cfi_offset 3, -16
 1366 0001 4889FB   		movq	%rdi, %rbx
 719:/home/baikal/workspace/C50/Huawei_IoT_Agent_Tiny_SDK_Linux//agent_tiny/lwm2m_client/object_device.c ****     if (NULL != objectP->userData)
 1367              		.loc 1 719 0
 1368 0004 488B7F50 		movq	80(%rdi), %rdi
 1369              	.LVL176:
 1370 0008 4885FF   		testq	%rdi, %rdi
 1371 000b 740D     		je	.L122
 720:/home/baikal/workspace/C50/Huawei_IoT_Agent_Tiny_SDK_Linux//agent_tiny/lwm2m_client/object_device.c ****     {
GAS LISTING /tmp/ccTB4Y6B.s 			page 48


 721:/home/baikal/workspace/C50/Huawei_IoT_Agent_Tiny_SDK_Linux//agent_tiny/lwm2m_client/object_device.c ****         lwm2m_free(objectP->userData);
 1372              		.loc 1 721 0
 1373 000d E8000000 		call	lwm2m_free
 1373      00
 1374              	.LVL177:
 722:/home/baikal/workspace/C50/Huawei_IoT_Agent_Tiny_SDK_Linux//agent_tiny/lwm2m_client/object_device.c ****         objectP->userData = NULL;
 1375              		.loc 1 722 0
 1376 0012 48C74350 		movq	$0, 80(%rbx)
 1376      00000000 
 1377              	.L122:
 723:/home/baikal/workspace/C50/Huawei_IoT_Agent_Tiny_SDK_Linux//agent_tiny/lwm2m_client/object_device.c ****     }
 724:/home/baikal/workspace/C50/Huawei_IoT_Agent_Tiny_SDK_Linux//agent_tiny/lwm2m_client/object_device.c ****     if (NULL != objectP->instanceList)
 1378              		.loc 1 724 0
 1379 001a 488B7B10 		movq	16(%rbx), %rdi
 1380 001e 4885FF   		testq	%rdi, %rdi
 1381 0021 740D     		je	.L123
 725:/home/baikal/workspace/C50/Huawei_IoT_Agent_Tiny_SDK_Linux//agent_tiny/lwm2m_client/object_device.c ****     {
 726:/home/baikal/workspace/C50/Huawei_IoT_Agent_Tiny_SDK_Linux//agent_tiny/lwm2m_client/object_device.c ****         lwm2m_list_free(objectP->instanceList);
 1382              		.loc 1 726 0
 1383 0023 E8000000 		call	lwm2m_list_free
 1383      00
 1384              	.LVL178:
 727:/home/baikal/workspace/C50/Huawei_IoT_Agent_Tiny_SDK_Linux//agent_tiny/lwm2m_client/object_device.c ****         objectP->instanceList = NULL;
 1385              		.loc 1 727 0
 1386 0028 48C74310 		movq	$0, 16(%rbx)
 1386      00000000 
 1387              	.L123:
 728:/home/baikal/workspace/C50/Huawei_IoT_Agent_Tiny_SDK_Linux//agent_tiny/lwm2m_client/object_device.c ****     }
 729:/home/baikal/workspace/C50/Huawei_IoT_Agent_Tiny_SDK_Linux//agent_tiny/lwm2m_client/object_device.c **** 
 730:/home/baikal/workspace/C50/Huawei_IoT_Agent_Tiny_SDK_Linux//agent_tiny/lwm2m_client/object_device.c ****     lwm2m_free(objectP);
 1388              		.loc 1 730 0
 1389 0030 4889DF   		movq	%rbx, %rdi
 1390 0033 E8000000 		call	lwm2m_free
 1390      00
 1391              	.LVL179:
 731:/home/baikal/workspace/C50/Huawei_IoT_Agent_Tiny_SDK_Linux//agent_tiny/lwm2m_client/object_device.c **** }
 1392              		.loc 1 731 0
 1393 0038 5B       		popq	%rbx
 1394              	.LCFI43:
 1395              		.cfi_def_cfa_offset 8
 1396              	.LVL180:
 1397 0039 C3       		ret
 1398              		.cfi_endproc
 1399              	.LFE79:
 1401              		.text
 1402              	.Letext0:
 1403              		.file 3 "/usr/include/stdint.h"
 1404              		.file 4 "/usr/lib/gcc/x86_64-linux-gnu/5/include/stddef.h"
 1405              		.file 5 "/usr/include/x86_64-linux-gnu/bits/types.h"
 1406              		.file 6 "/usr/include/libio.h"
 1407              		.file 7 "/home/baikal/workspace/C50/Huawei_IoT_Agent_Tiny_SDK_Linux//lwm2m/core/liblwm2m.h"
 1408              		.file 8 "/home/baikal/workspace/C50/Huawei_IoT_Agent_Tiny_SDK_Linux//agent_tiny/lwm2m_client/agent
 1409              		.file 9 "/usr/include/stdio.h"
 1410              		.file 10 "/home/baikal/workspace/C50/Huawei_IoT_Agent_Tiny_SDK_Linux//agent_tiny/lwm2m_client/obje
GAS LISTING /tmp/ccTB4Y6B.s 			page 49


DEFINED SYMBOLS
                            *ABS*:0000000000000000 object_device.c
     /tmp/ccTB4Y6B.s:6      .text.prv_check_time_offset:0000000000000000 prv_check_time_offset
     /tmp/ccTB4Y6B.s:132    .text.prv_device_execute:0000000000000000 prv_device_execute
     /tmp/ccTB4Y6B.s:228    .text.prv_device_write:0000000000000000 prv_device_write
     /tmp/ccTB4Y6B.s:428    .text.prv_device_discover:0000000000000000 prv_device_discover
     /tmp/ccTB4Y6B.s:582    .text.prv_set_value:0000000000000000 prv_set_value
     /tmp/ccTB4Y6B.s:1105   .text.prv_device_read:0000000000000000 prv_device_read
     /tmp/ccTB4Y6B.s:1252   .text.display_device_object:0000000000000000 display_device_object
     /tmp/ccTB4Y6B.s:1264   .text.get_object_device:0000000000000000 get_object_device
     /tmp/ccTB4Y6B.s:1357   .text.free_object_device:0000000000000000 free_object_device

UNDEFINED SYMBOLS
g_reboot
atiny_cmd_ioctl
lwm2m_data_decode_int
lwm2m_data_new
lwm2m_data_encode_string
lwm2m_data_encode_int
lwm2m_data_encode_instances
lwm2m_free
lwm2m_malloc
lwm2m_list_free
