GAS LISTING /tmp/cc68p2p6.s 			page 1


   1              		.file	"object_binary_app_data_container.c"
   2              		.text
   3              	.Ltext0:
   4              		.section	.text.prv_destroy_data_buf,"ax",@progbits
   6              	prv_destroy_data_buf:
   7              	.LFB75:
   8              		.file 1 "/home/baikal/workspace/C50/Huawei_IoT_Agent_Tiny_SDK_Linux//agent_tiny/lwm2m_client/objec
   1:/home/baikal/workspace/C50/Huawei_IoT_Agent_Tiny_SDK_Linux//agent_tiny/lwm2m_client/object_binary_app_data_container.c **** /*----------------------------------------------------------------------------
   2:/home/baikal/workspace/C50/Huawei_IoT_Agent_Tiny_SDK_Linux//agent_tiny/lwm2m_client/object_binary_app_data_container.c ****  * Copyright (c) <2016-2018>, <Huawei Technologies Co., Ltd>
   3:/home/baikal/workspace/C50/Huawei_IoT_Agent_Tiny_SDK_Linux//agent_tiny/lwm2m_client/object_binary_app_data_container.c ****  * All rights reserved.
   4:/home/baikal/workspace/C50/Huawei_IoT_Agent_Tiny_SDK_Linux//agent_tiny/lwm2m_client/object_binary_app_data_container.c ****  * Redistribution and use in source and binary forms, with or without modification,
   5:/home/baikal/workspace/C50/Huawei_IoT_Agent_Tiny_SDK_Linux//agent_tiny/lwm2m_client/object_binary_app_data_container.c ****  * are permitted provided that the following conditions are met:
   6:/home/baikal/workspace/C50/Huawei_IoT_Agent_Tiny_SDK_Linux//agent_tiny/lwm2m_client/object_binary_app_data_container.c ****  * 1. Redistributions of source code must retain the above copyright notice, this list of
   7:/home/baikal/workspace/C50/Huawei_IoT_Agent_Tiny_SDK_Linux//agent_tiny/lwm2m_client/object_binary_app_data_container.c ****  * conditions and the following disclaimer.
   8:/home/baikal/workspace/C50/Huawei_IoT_Agent_Tiny_SDK_Linux//agent_tiny/lwm2m_client/object_binary_app_data_container.c ****  * 2. Redistributions in binary form must reproduce the above copyright notice, this list
   9:/home/baikal/workspace/C50/Huawei_IoT_Agent_Tiny_SDK_Linux//agent_tiny/lwm2m_client/object_binary_app_data_container.c ****  * of conditions and the following disclaimer in the documentation and/or other materials
  10:/home/baikal/workspace/C50/Huawei_IoT_Agent_Tiny_SDK_Linux//agent_tiny/lwm2m_client/object_binary_app_data_container.c ****  * provided with the distribution.
  11:/home/baikal/workspace/C50/Huawei_IoT_Agent_Tiny_SDK_Linux//agent_tiny/lwm2m_client/object_binary_app_data_container.c ****  * 3. Neither the name of the copyright holder nor the names of its contributors may be used
  12:/home/baikal/workspace/C50/Huawei_IoT_Agent_Tiny_SDK_Linux//agent_tiny/lwm2m_client/object_binary_app_data_container.c ****  * to endorse or promote products derived from this software without specific prior written
  13:/home/baikal/workspace/C50/Huawei_IoT_Agent_Tiny_SDK_Linux//agent_tiny/lwm2m_client/object_binary_app_data_container.c ****  * permission.
  14:/home/baikal/workspace/C50/Huawei_IoT_Agent_Tiny_SDK_Linux//agent_tiny/lwm2m_client/object_binary_app_data_container.c ****  * THIS SOFTWARE IS PROVIDED BY THE COPYRIGHT HOLDERS AND CONTRIBUTORS
  15:/home/baikal/workspace/C50/Huawei_IoT_Agent_Tiny_SDK_Linux//agent_tiny/lwm2m_client/object_binary_app_data_container.c ****  * "AS IS" AND ANY EXPRESS OR IMPLIED WARRANTIES, INCLUDING, BUT NOT LIMITED TO,
  16:/home/baikal/workspace/C50/Huawei_IoT_Agent_Tiny_SDK_Linux//agent_tiny/lwm2m_client/object_binary_app_data_container.c ****  * THE IMPLIED WARRANTIES OF MERCHANTABILITY AND FITNESS FOR A PARTICULAR
  17:/home/baikal/workspace/C50/Huawei_IoT_Agent_Tiny_SDK_Linux//agent_tiny/lwm2m_client/object_binary_app_data_container.c ****  * PURPOSE ARE DISCLAIMED. IN NO EVENT SHALL THE COPYRIGHT HOLDER OR
  18:/home/baikal/workspace/C50/Huawei_IoT_Agent_Tiny_SDK_Linux//agent_tiny/lwm2m_client/object_binary_app_data_container.c ****  * CONTRIBUTORS BE LIABLE FOR ANY DIRECT, INDIRECT, INCIDENTAL, SPECIAL,
  19:/home/baikal/workspace/C50/Huawei_IoT_Agent_Tiny_SDK_Linux//agent_tiny/lwm2m_client/object_binary_app_data_container.c ****  * EXEMPLARY, OR CONSEQUENTIAL DAMAGES (INCLUDING, BUT NOT LIMITED TO,
  20:/home/baikal/workspace/C50/Huawei_IoT_Agent_Tiny_SDK_Linux//agent_tiny/lwm2m_client/object_binary_app_data_container.c ****  * PROCUREMENT OF SUBSTITUTE GOODS OR SERVICES; LOSS OF USE, DATA, OR PROFITS;
  21:/home/baikal/workspace/C50/Huawei_IoT_Agent_Tiny_SDK_Linux//agent_tiny/lwm2m_client/object_binary_app_data_container.c ****  * OR BUSINESS INTERRUPTION) HOWEVER CAUSED AND ON ANY THEORY OF LIABILITY,
  22:/home/baikal/workspace/C50/Huawei_IoT_Agent_Tiny_SDK_Linux//agent_tiny/lwm2m_client/object_binary_app_data_container.c ****  * WHETHER IN CONTRACT, STRICT LIABILITY, OR TORT (INCLUDING NEGLIGENCE OR
  23:/home/baikal/workspace/C50/Huawei_IoT_Agent_Tiny_SDK_Linux//agent_tiny/lwm2m_client/object_binary_app_data_container.c ****  * OTHERWISE) ARISING IN ANY WAY OUT OF THE USE OF THIS SOFTWARE, EVEN IF
  24:/home/baikal/workspace/C50/Huawei_IoT_Agent_Tiny_SDK_Linux//agent_tiny/lwm2m_client/object_binary_app_data_container.c ****  * ADVISED OF THE POSSIBILITY OF SUCH DAMAGE.
  25:/home/baikal/workspace/C50/Huawei_IoT_Agent_Tiny_SDK_Linux//agent_tiny/lwm2m_client/object_binary_app_data_container.c ****  *---------------------------------------------------------------------------*/
  26:/home/baikal/workspace/C50/Huawei_IoT_Agent_Tiny_SDK_Linux//agent_tiny/lwm2m_client/object_binary_app_data_container.c **** /*----------------------------------------------------------------------------
  27:/home/baikal/workspace/C50/Huawei_IoT_Agent_Tiny_SDK_Linux//agent_tiny/lwm2m_client/object_binary_app_data_container.c ****  * Notice of Export Control Law
  28:/home/baikal/workspace/C50/Huawei_IoT_Agent_Tiny_SDK_Linux//agent_tiny/lwm2m_client/object_binary_app_data_container.c ****  * ===============================================
  29:/home/baikal/workspace/C50/Huawei_IoT_Agent_Tiny_SDK_Linux//agent_tiny/lwm2m_client/object_binary_app_data_container.c ****  * Huawei LiteOS may be subject to applicable export control laws and regulations, which might
  30:/home/baikal/workspace/C50/Huawei_IoT_Agent_Tiny_SDK_Linux//agent_tiny/lwm2m_client/object_binary_app_data_container.c ****  * include those applicable to Huawei LiteOS of U.S. and the country in which you are located.
  31:/home/baikal/workspace/C50/Huawei_IoT_Agent_Tiny_SDK_Linux//agent_tiny/lwm2m_client/object_binary_app_data_container.c ****  * Import, export and usage of Huawei LiteOS in any manner by you shall be in compliance with such
  32:/home/baikal/workspace/C50/Huawei_IoT_Agent_Tiny_SDK_Linux//agent_tiny/lwm2m_client/object_binary_app_data_container.c ****  * applicable export control laws and regulations.
  33:/home/baikal/workspace/C50/Huawei_IoT_Agent_Tiny_SDK_Linux//agent_tiny/lwm2m_client/object_binary_app_data_container.c ****  *---------------------------------------------------------------------------*/
  34:/home/baikal/workspace/C50/Huawei_IoT_Agent_Tiny_SDK_Linux//agent_tiny/lwm2m_client/object_binary_app_data_container.c **** 
  35:/home/baikal/workspace/C50/Huawei_IoT_Agent_Tiny_SDK_Linux//agent_tiny/lwm2m_client/object_binary_app_data_container.c **** /*
  36:/home/baikal/workspace/C50/Huawei_IoT_Agent_Tiny_SDK_Linux//agent_tiny/lwm2m_client/object_binary_app_data_container.c ****  * Implements an object for binary_app_data_container purpose
  37:/home/baikal/workspace/C50/Huawei_IoT_Agent_Tiny_SDK_Linux//agent_tiny/lwm2m_client/object_binary_app_data_container.c ****  *
  38:/home/baikal/workspace/C50/Huawei_IoT_Agent_Tiny_SDK_Linux//agent_tiny/lwm2m_client/object_binary_app_data_container.c ****  *                  Multiple
  39:/home/baikal/workspace/C50/Huawei_IoT_Agent_Tiny_SDK_Linux//agent_tiny/lwm2m_client/object_binary_app_data_container.c ****  * Object                      |  ID   | Instances | Mandatoty |
  40:/home/baikal/workspace/C50/Huawei_IoT_Agent_Tiny_SDK_Linux//agent_tiny/lwm2m_client/object_binary_app_data_container.c ****  * binary_app_data_container   |  19   |    Yes    |    No     |
  41:/home/baikal/workspace/C50/Huawei_IoT_Agent_Tiny_SDK_Linux//agent_tiny/lwm2m_client/object_binary_app_data_container.c ****  *
  42:/home/baikal/workspace/C50/Huawei_IoT_Agent_Tiny_SDK_Linux//agent_tiny/lwm2m_client/object_binary_app_data_container.c ****  *  Resources:
  43:/home/baikal/workspace/C50/Huawei_IoT_Agent_Tiny_SDK_Linux//agent_tiny/lwm2m_client/object_binary_app_data_container.c ****  *              Supported    Multiple
  44:/home/baikal/workspace/C50/Huawei_IoT_Agent_Tiny_SDK_Linux//agent_tiny/lwm2m_client/object_binary_app_data_container.c ****  *  Name | ID | Operations | Instances | Mandatory |  Type   | Range | Units | Description |
  45:/home/baikal/workspace/C50/Huawei_IoT_Agent_Tiny_SDK_Linux//agent_tiny/lwm2m_client/object_binary_app_data_container.c ****  *  Data |  0 |    R/W     |    No     |    Yes    | Opaque  |       |       |             |
  46:/home/baikal/workspace/C50/Huawei_IoT_Agent_Tiny_SDK_Linux//agent_tiny/lwm2m_client/object_binary_app_data_container.c ****  *
  47:/home/baikal/workspace/C50/Huawei_IoT_Agent_Tiny_SDK_Linux//agent_tiny/lwm2m_client/object_binary_app_data_container.c ****  */
  48:/home/baikal/workspace/C50/Huawei_IoT_Agent_Tiny_SDK_Linux//agent_tiny/lwm2m_client/object_binary_app_data_container.c **** #include "object_comm.h"
  49:/home/baikal/workspace/C50/Huawei_IoT_Agent_Tiny_SDK_Linux//agent_tiny/lwm2m_client/object_binary_app_data_container.c **** #include "atiny_log.h"
  50:/home/baikal/workspace/C50/Huawei_IoT_Agent_Tiny_SDK_Linux//agent_tiny/lwm2m_client/object_binary_app_data_container.c **** #include "atiny_rpt.h"
GAS LISTING /tmp/cc68p2p6.s 			page 2


  51:/home/baikal/workspace/C50/Huawei_IoT_Agent_Tiny_SDK_Linux//agent_tiny/lwm2m_client/object_binary_app_data_container.c **** 
  52:/home/baikal/workspace/C50/Huawei_IoT_Agent_Tiny_SDK_Linux//agent_tiny/lwm2m_client/object_binary_app_data_container.c **** 
  53:/home/baikal/workspace/C50/Huawei_IoT_Agent_Tiny_SDK_Linux//agent_tiny/lwm2m_client/object_binary_app_data_container.c **** #define PRV_TLV_BUFFER_SIZE 64
  54:/home/baikal/workspace/C50/Huawei_IoT_Agent_Tiny_SDK_Linux//agent_tiny/lwm2m_client/object_binary_app_data_container.c **** 
  55:/home/baikal/workspace/C50/Huawei_IoT_Agent_Tiny_SDK_Linux//agent_tiny/lwm2m_client/object_binary_app_data_container.c **** #define MIN_SAVE_CNT 1
  56:/home/baikal/workspace/C50/Huawei_IoT_Agent_Tiny_SDK_Linux//agent_tiny/lwm2m_client/object_binary_app_data_container.c **** #define BINARY_APP_DATA_OBJECT_INSTANCE_NUM 2
  57:/home/baikal/workspace/C50/Huawei_IoT_Agent_Tiny_SDK_Linux//agent_tiny/lwm2m_client/object_binary_app_data_container.c **** 
  58:/home/baikal/workspace/C50/Huawei_IoT_Agent_Tiny_SDK_Linux//agent_tiny/lwm2m_client/object_binary_app_data_container.c **** 
  59:/home/baikal/workspace/C50/Huawei_IoT_Agent_Tiny_SDK_Linux//agent_tiny/lwm2m_client/object_binary_app_data_container.c **** /*
  60:/home/baikal/workspace/C50/Huawei_IoT_Agent_Tiny_SDK_Linux//agent_tiny/lwm2m_client/object_binary_app_data_container.c ****  * Multiple instance objects can use userdata to store data that will be shared between the differe
  61:/home/baikal/workspace/C50/Huawei_IoT_Agent_Tiny_SDK_Linux//agent_tiny/lwm2m_client/object_binary_app_data_container.c ****  * The lwm2m_object_t object structure - which represent every object of the liblwm2m as seen in th
  62:/home/baikal/workspace/C50/Huawei_IoT_Agent_Tiny_SDK_Linux//agent_tiny/lwm2m_client/object_binary_app_data_container.c ****  * object - contain a chained list called instanceList with the object specific structure plat_inst
  63:/home/baikal/workspace/C50/Huawei_IoT_Agent_Tiny_SDK_Linux//agent_tiny/lwm2m_client/object_binary_app_data_container.c ****  */
  64:/home/baikal/workspace/C50/Huawei_IoT_Agent_Tiny_SDK_Linux//agent_tiny/lwm2m_client/object_binary_app_data_container.c **** typedef struct _prv_instance_
  65:/home/baikal/workspace/C50/Huawei_IoT_Agent_Tiny_SDK_Linux//agent_tiny/lwm2m_client/object_binary_app_data_container.c **** {
  66:/home/baikal/workspace/C50/Huawei_IoT_Agent_Tiny_SDK_Linux//agent_tiny/lwm2m_client/object_binary_app_data_container.c ****     /*
  67:/home/baikal/workspace/C50/Huawei_IoT_Agent_Tiny_SDK_Linux//agent_tiny/lwm2m_client/object_binary_app_data_container.c ****      * The first two are mandatories and represent the pointer to the next instance and the ID of t
  68:/home/baikal/workspace/C50/Huawei_IoT_Agent_Tiny_SDK_Linux//agent_tiny/lwm2m_client/object_binary_app_data_container.c ****      * is the instance scope user data (uint8_t test in this case)
  69:/home/baikal/workspace/C50/Huawei_IoT_Agent_Tiny_SDK_Linux//agent_tiny/lwm2m_client/object_binary_app_data_container.c ****      */
  70:/home/baikal/workspace/C50/Huawei_IoT_Agent_Tiny_SDK_Linux//agent_tiny/lwm2m_client/object_binary_app_data_container.c ****     struct _prv_instance_ *next;    // matches lwm2m_list_t::next
  71:/home/baikal/workspace/C50/Huawei_IoT_Agent_Tiny_SDK_Linux//agent_tiny/lwm2m_client/object_binary_app_data_container.c ****     uint16_t shortID;               // matches lwm2m_list_t::id
  72:/home/baikal/workspace/C50/Huawei_IoT_Agent_Tiny_SDK_Linux//agent_tiny/lwm2m_client/object_binary_app_data_container.c ****     rpt_list_t header;
  73:/home/baikal/workspace/C50/Huawei_IoT_Agent_Tiny_SDK_Linux//agent_tiny/lwm2m_client/object_binary_app_data_container.c ****     uint8_t  test;
  74:/home/baikal/workspace/C50/Huawei_IoT_Agent_Tiny_SDK_Linux//agent_tiny/lwm2m_client/object_binary_app_data_container.c ****     double   dec;
  75:/home/baikal/workspace/C50/Huawei_IoT_Agent_Tiny_SDK_Linux//agent_tiny/lwm2m_client/object_binary_app_data_container.c **** #define OPAR_NUM 5
  76:/home/baikal/workspace/C50/Huawei_IoT_Agent_Tiny_SDK_Linux//agent_tiny/lwm2m_client/object_binary_app_data_container.c ****     uint8_t  opaq[OPAR_NUM];
  77:/home/baikal/workspace/C50/Huawei_IoT_Agent_Tiny_SDK_Linux//agent_tiny/lwm2m_client/object_binary_app_data_container.c **** } plat_instance_t;
  78:/home/baikal/workspace/C50/Huawei_IoT_Agent_Tiny_SDK_Linux//agent_tiny/lwm2m_client/object_binary_app_data_container.c **** 
  79:/home/baikal/workspace/C50/Huawei_IoT_Agent_Tiny_SDK_Linux//agent_tiny/lwm2m_client/object_binary_app_data_container.c **** #define ARRAY_MAXNUM  16
  80:/home/baikal/workspace/C50/Huawei_IoT_Agent_Tiny_SDK_Linux//agent_tiny/lwm2m_client/object_binary_app_data_container.c **** static void prv_output_buffer(uint8_t *buffer,
  81:/home/baikal/workspace/C50/Huawei_IoT_Agent_Tiny_SDK_Linux//agent_tiny/lwm2m_client/object_binary_app_data_container.c ****                               int length)
  82:/home/baikal/workspace/C50/Huawei_IoT_Agent_Tiny_SDK_Linux//agent_tiny/lwm2m_client/object_binary_app_data_container.c **** {
  83:/home/baikal/workspace/C50/Huawei_IoT_Agent_Tiny_SDK_Linux//agent_tiny/lwm2m_client/object_binary_app_data_container.c ****     int i;
  84:/home/baikal/workspace/C50/Huawei_IoT_Agent_Tiny_SDK_Linux//agent_tiny/lwm2m_client/object_binary_app_data_container.c ****     uint8_t array[ARRAY_MAXNUM];
  85:/home/baikal/workspace/C50/Huawei_IoT_Agent_Tiny_SDK_Linux//agent_tiny/lwm2m_client/object_binary_app_data_container.c **** 
  86:/home/baikal/workspace/C50/Huawei_IoT_Agent_Tiny_SDK_Linux//agent_tiny/lwm2m_client/object_binary_app_data_container.c ****     i = 0;
  87:/home/baikal/workspace/C50/Huawei_IoT_Agent_Tiny_SDK_Linux//agent_tiny/lwm2m_client/object_binary_app_data_container.c ****     while (i < length)
  88:/home/baikal/workspace/C50/Huawei_IoT_Agent_Tiny_SDK_Linux//agent_tiny/lwm2m_client/object_binary_app_data_container.c ****     {
  89:/home/baikal/workspace/C50/Huawei_IoT_Agent_Tiny_SDK_Linux//agent_tiny/lwm2m_client/object_binary_app_data_container.c ****         int j;
  90:/home/baikal/workspace/C50/Huawei_IoT_Agent_Tiny_SDK_Linux//agent_tiny/lwm2m_client/object_binary_app_data_container.c ****         fprintf(stderr, "  ");
  91:/home/baikal/workspace/C50/Huawei_IoT_Agent_Tiny_SDK_Linux//agent_tiny/lwm2m_client/object_binary_app_data_container.c **** 
  92:/home/baikal/workspace/C50/Huawei_IoT_Agent_Tiny_SDK_Linux//agent_tiny/lwm2m_client/object_binary_app_data_container.c ****         memcpy(array, buffer + i, ARRAY_MAXNUM);
  93:/home/baikal/workspace/C50/Huawei_IoT_Agent_Tiny_SDK_Linux//agent_tiny/lwm2m_client/object_binary_app_data_container.c **** 
  94:/home/baikal/workspace/C50/Huawei_IoT_Agent_Tiny_SDK_Linux//agent_tiny/lwm2m_client/object_binary_app_data_container.c ****         for (j = 0 ; j < ARRAY_MAXNUM && i + j < length; j++)
  95:/home/baikal/workspace/C50/Huawei_IoT_Agent_Tiny_SDK_Linux//agent_tiny/lwm2m_client/object_binary_app_data_container.c ****         {
  96:/home/baikal/workspace/C50/Huawei_IoT_Agent_Tiny_SDK_Linux//agent_tiny/lwm2m_client/object_binary_app_data_container.c ****             fprintf(stderr, "%02X ", array[j]);
  97:/home/baikal/workspace/C50/Huawei_IoT_Agent_Tiny_SDK_Linux//agent_tiny/lwm2m_client/object_binary_app_data_container.c ****         }
  98:/home/baikal/workspace/C50/Huawei_IoT_Agent_Tiny_SDK_Linux//agent_tiny/lwm2m_client/object_binary_app_data_container.c ****         while (j < ARRAY_MAXNUM)
  99:/home/baikal/workspace/C50/Huawei_IoT_Agent_Tiny_SDK_Linux//agent_tiny/lwm2m_client/object_binary_app_data_container.c ****         {
 100:/home/baikal/workspace/C50/Huawei_IoT_Agent_Tiny_SDK_Linux//agent_tiny/lwm2m_client/object_binary_app_data_container.c ****             fprintf(stderr, "   ");
 101:/home/baikal/workspace/C50/Huawei_IoT_Agent_Tiny_SDK_Linux//agent_tiny/lwm2m_client/object_binary_app_data_container.c ****             j++;
 102:/home/baikal/workspace/C50/Huawei_IoT_Agent_Tiny_SDK_Linux//agent_tiny/lwm2m_client/object_binary_app_data_container.c ****         }
 103:/home/baikal/workspace/C50/Huawei_IoT_Agent_Tiny_SDK_Linux//agent_tiny/lwm2m_client/object_binary_app_data_container.c ****         fprintf(stderr, "  ");
 104:/home/baikal/workspace/C50/Huawei_IoT_Agent_Tiny_SDK_Linux//agent_tiny/lwm2m_client/object_binary_app_data_container.c ****         for (j = 0 ; j < ARRAY_MAXNUM && i + j < length; j++)
 105:/home/baikal/workspace/C50/Huawei_IoT_Agent_Tiny_SDK_Linux//agent_tiny/lwm2m_client/object_binary_app_data_container.c ****         {
 106:/home/baikal/workspace/C50/Huawei_IoT_Agent_Tiny_SDK_Linux//agent_tiny/lwm2m_client/object_binary_app_data_container.c ****             if (isprint(array[j]))
 107:/home/baikal/workspace/C50/Huawei_IoT_Agent_Tiny_SDK_Linux//agent_tiny/lwm2m_client/object_binary_app_data_container.c ****                 fprintf(stderr, "%c ", array[j]);
GAS LISTING /tmp/cc68p2p6.s 			page 3


 108:/home/baikal/workspace/C50/Huawei_IoT_Agent_Tiny_SDK_Linux//agent_tiny/lwm2m_client/object_binary_app_data_container.c ****             else
 109:/home/baikal/workspace/C50/Huawei_IoT_Agent_Tiny_SDK_Linux//agent_tiny/lwm2m_client/object_binary_app_data_container.c ****                 fprintf(stderr, ". ");
 110:/home/baikal/workspace/C50/Huawei_IoT_Agent_Tiny_SDK_Linux//agent_tiny/lwm2m_client/object_binary_app_data_container.c ****         }
 111:/home/baikal/workspace/C50/Huawei_IoT_Agent_Tiny_SDK_Linux//agent_tiny/lwm2m_client/object_binary_app_data_container.c ****         fprintf(stderr, "\n");
 112:/home/baikal/workspace/C50/Huawei_IoT_Agent_Tiny_SDK_Linux//agent_tiny/lwm2m_client/object_binary_app_data_container.c **** 
 113:/home/baikal/workspace/C50/Huawei_IoT_Agent_Tiny_SDK_Linux//agent_tiny/lwm2m_client/object_binary_app_data_container.c ****         i += ARRAY_MAXNUM;
 114:/home/baikal/workspace/C50/Huawei_IoT_Agent_Tiny_SDK_Linux//agent_tiny/lwm2m_client/object_binary_app_data_container.c ****     }
 115:/home/baikal/workspace/C50/Huawei_IoT_Agent_Tiny_SDK_Linux//agent_tiny/lwm2m_client/object_binary_app_data_container.c **** }
 116:/home/baikal/workspace/C50/Huawei_IoT_Agent_Tiny_SDK_Linux//agent_tiny/lwm2m_client/object_binary_app_data_container.c **** 
 117:/home/baikal/workspace/C50/Huawei_IoT_Agent_Tiny_SDK_Linux//agent_tiny/lwm2m_client/object_binary_app_data_container.c **** static uint8_t prv_read_data(plat_instance_t *targetP,
 118:/home/baikal/workspace/C50/Huawei_IoT_Agent_Tiny_SDK_Linux//agent_tiny/lwm2m_client/object_binary_app_data_container.c ****                              int data_number,
 119:/home/baikal/workspace/C50/Huawei_IoT_Agent_Tiny_SDK_Linux//agent_tiny/lwm2m_client/object_binary_app_data_container.c ****                              lwm2m_data_t *dataArrayP,
 120:/home/baikal/workspace/C50/Huawei_IoT_Agent_Tiny_SDK_Linux//agent_tiny/lwm2m_client/object_binary_app_data_container.c ****                              lwm2m_data_cfg_t *dataCfg)
 121:/home/baikal/workspace/C50/Huawei_IoT_Agent_Tiny_SDK_Linux//agent_tiny/lwm2m_client/object_binary_app_data_container.c **** {
 122:/home/baikal/workspace/C50/Huawei_IoT_Agent_Tiny_SDK_Linux//agent_tiny/lwm2m_client/object_binary_app_data_container.c ****     int i;
 123:/home/baikal/workspace/C50/Huawei_IoT_Agent_Tiny_SDK_Linux//agent_tiny/lwm2m_client/object_binary_app_data_container.c ****     data_report_t data;
 124:/home/baikal/workspace/C50/Huawei_IoT_Agent_Tiny_SDK_Linux//agent_tiny/lwm2m_client/object_binary_app_data_container.c ****     int ret;
 125:/home/baikal/workspace/C50/Huawei_IoT_Agent_Tiny_SDK_Linux//agent_tiny/lwm2m_client/object_binary_app_data_container.c **** 
 126:/home/baikal/workspace/C50/Huawei_IoT_Agent_Tiny_SDK_Linux//agent_tiny/lwm2m_client/object_binary_app_data_container.c ****     for (i = 0 ; i < data_number ; i++)
 127:/home/baikal/workspace/C50/Huawei_IoT_Agent_Tiny_SDK_Linux//agent_tiny/lwm2m_client/object_binary_app_data_container.c ****     {
 128:/home/baikal/workspace/C50/Huawei_IoT_Agent_Tiny_SDK_Linux//agent_tiny/lwm2m_client/object_binary_app_data_container.c ****         switch (dataArrayP[i].id)
 129:/home/baikal/workspace/C50/Huawei_IoT_Agent_Tiny_SDK_Linux//agent_tiny/lwm2m_client/object_binary_app_data_container.c ****         {
 130:/home/baikal/workspace/C50/Huawei_IoT_Agent_Tiny_SDK_Linux//agent_tiny/lwm2m_client/object_binary_app_data_container.c ****         case 0:
 131:/home/baikal/workspace/C50/Huawei_IoT_Agent_Tiny_SDK_Linux//agent_tiny/lwm2m_client/object_binary_app_data_container.c ****             //printf("19/0/0 read\r\n");
 132:/home/baikal/workspace/C50/Huawei_IoT_Agent_Tiny_SDK_Linux//agent_tiny/lwm2m_client/object_binary_app_data_container.c ****             if(NULL == dataCfg)
 133:/home/baikal/workspace/C50/Huawei_IoT_Agent_Tiny_SDK_Linux//agent_tiny/lwm2m_client/object_binary_app_data_container.c ****             {
 134:/home/baikal/workspace/C50/Huawei_IoT_Agent_Tiny_SDK_Linux//agent_tiny/lwm2m_client/object_binary_app_data_container.c ****                 uint8_t *buf = lwm2m_malloc(sizeof(*buf));
 135:/home/baikal/workspace/C50/Huawei_IoT_Agent_Tiny_SDK_Linux//agent_tiny/lwm2m_client/object_binary_app_data_container.c ****                 if(NULL == buf)
 136:/home/baikal/workspace/C50/Huawei_IoT_Agent_Tiny_SDK_Linux//agent_tiny/lwm2m_client/object_binary_app_data_container.c ****                 {
 137:/home/baikal/workspace/C50/Huawei_IoT_Agent_Tiny_SDK_Linux//agent_tiny/lwm2m_client/object_binary_app_data_container.c ****                     ATINY_LOG(LOG_ERR, "malloc null");
 138:/home/baikal/workspace/C50/Huawei_IoT_Agent_Tiny_SDK_Linux//agent_tiny/lwm2m_client/object_binary_app_data_container.c ****                     return COAP_404_NOT_FOUND;
 139:/home/baikal/workspace/C50/Huawei_IoT_Agent_Tiny_SDK_Linux//agent_tiny/lwm2m_client/object_binary_app_data_container.c ****                 }
 140:/home/baikal/workspace/C50/Huawei_IoT_Agent_Tiny_SDK_Linux//agent_tiny/lwm2m_client/object_binary_app_data_container.c ****                 *buf = 0;
 141:/home/baikal/workspace/C50/Huawei_IoT_Agent_Tiny_SDK_Linux//agent_tiny/lwm2m_client/object_binary_app_data_container.c ****                 dataArrayP[i].id = 0;
 142:/home/baikal/workspace/C50/Huawei_IoT_Agent_Tiny_SDK_Linux//agent_tiny/lwm2m_client/object_binary_app_data_container.c ****                 dataArrayP[i].type = LWM2M_TYPE_OPAQUE;
 143:/home/baikal/workspace/C50/Huawei_IoT_Agent_Tiny_SDK_Linux//agent_tiny/lwm2m_client/object_binary_app_data_container.c ****                 dataArrayP[i].value.asBuffer.buffer = buf;
 144:/home/baikal/workspace/C50/Huawei_IoT_Agent_Tiny_SDK_Linux//agent_tiny/lwm2m_client/object_binary_app_data_container.c ****                 dataArrayP[i].value.asBuffer.length = 1;
 145:/home/baikal/workspace/C50/Huawei_IoT_Agent_Tiny_SDK_Linux//agent_tiny/lwm2m_client/object_binary_app_data_container.c ****             }
 146:/home/baikal/workspace/C50/Huawei_IoT_Agent_Tiny_SDK_Linux//agent_tiny/lwm2m_client/object_binary_app_data_container.c ****             else
 147:/home/baikal/workspace/C50/Huawei_IoT_Agent_Tiny_SDK_Linux//agent_tiny/lwm2m_client/object_binary_app_data_container.c ****             {
 148:/home/baikal/workspace/C50/Huawei_IoT_Agent_Tiny_SDK_Linux//agent_tiny/lwm2m_client/object_binary_app_data_container.c ****                 ret = atiny_dequeue_rpt_data((targetP->header), &data);
 149:/home/baikal/workspace/C50/Huawei_IoT_Agent_Tiny_SDK_Linux//agent_tiny/lwm2m_client/object_binary_app_data_container.c ****                 if (ret != ATINY_OK)
 150:/home/baikal/workspace/C50/Huawei_IoT_Agent_Tiny_SDK_Linux//agent_tiny/lwm2m_client/object_binary_app_data_container.c ****                 {
 151:/home/baikal/workspace/C50/Huawei_IoT_Agent_Tiny_SDK_Linux//agent_tiny/lwm2m_client/object_binary_app_data_container.c ****                     ATINY_LOG(LOG_INFO, "atiny_dequeue_rpt_data fail,ret=%d", ret);
 152:/home/baikal/workspace/C50/Huawei_IoT_Agent_Tiny_SDK_Linux//agent_tiny/lwm2m_client/object_binary_app_data_container.c ****                     return COAP_404_NOT_FOUND;
 153:/home/baikal/workspace/C50/Huawei_IoT_Agent_Tiny_SDK_Linux//agent_tiny/lwm2m_client/object_binary_app_data_container.c ****                 }
 154:/home/baikal/workspace/C50/Huawei_IoT_Agent_Tiny_SDK_Linux//agent_tiny/lwm2m_client/object_binary_app_data_container.c ****                 else
 155:/home/baikal/workspace/C50/Huawei_IoT_Agent_Tiny_SDK_Linux//agent_tiny/lwm2m_client/object_binary_app_data_container.c ****                 {
 156:/home/baikal/workspace/C50/Huawei_IoT_Agent_Tiny_SDK_Linux//agent_tiny/lwm2m_client/object_binary_app_data_container.c ****                     ATINY_LOG(LOG_DEBUG, "atiny_dequeue_rpt_data sucessfully");
 157:/home/baikal/workspace/C50/Huawei_IoT_Agent_Tiny_SDK_Linux//agent_tiny/lwm2m_client/object_binary_app_data_container.c ****                 }
 158:/home/baikal/workspace/C50/Huawei_IoT_Agent_Tiny_SDK_Linux//agent_tiny/lwm2m_client/object_binary_app_data_container.c **** 
 159:/home/baikal/workspace/C50/Huawei_IoT_Agent_Tiny_SDK_Linux//agent_tiny/lwm2m_client/object_binary_app_data_container.c ****                 dataArrayP[i].id = 0;
 160:/home/baikal/workspace/C50/Huawei_IoT_Agent_Tiny_SDK_Linux//agent_tiny/lwm2m_client/object_binary_app_data_container.c ****                 dataArrayP[i].type = LWM2M_TYPE_OPAQUE;
 161:/home/baikal/workspace/C50/Huawei_IoT_Agent_Tiny_SDK_Linux//agent_tiny/lwm2m_client/object_binary_app_data_container.c ****                 dataArrayP[i].value.asBuffer.buffer = data.buf;
 162:/home/baikal/workspace/C50/Huawei_IoT_Agent_Tiny_SDK_Linux//agent_tiny/lwm2m_client/object_binary_app_data_container.c ****                 dataArrayP[i].value.asBuffer.length = data.len;
 163:/home/baikal/workspace/C50/Huawei_IoT_Agent_Tiny_SDK_Linux//agent_tiny/lwm2m_client/object_binary_app_data_container.c ****                 dataCfg->type = data.type;
 164:/home/baikal/workspace/C50/Huawei_IoT_Agent_Tiny_SDK_Linux//agent_tiny/lwm2m_client/object_binary_app_data_container.c ****                 dataCfg->cookie = data.cookie;
GAS LISTING /tmp/cc68p2p6.s 			page 4


 165:/home/baikal/workspace/C50/Huawei_IoT_Agent_Tiny_SDK_Linux//agent_tiny/lwm2m_client/object_binary_app_data_container.c ****                 dataCfg->callback = (lwm2m_data_process)data.callback;
 166:/home/baikal/workspace/C50/Huawei_IoT_Agent_Tiny_SDK_Linux//agent_tiny/lwm2m_client/object_binary_app_data_container.c ****             }
 167:/home/baikal/workspace/C50/Huawei_IoT_Agent_Tiny_SDK_Linux//agent_tiny/lwm2m_client/object_binary_app_data_container.c ****             break;
 168:/home/baikal/workspace/C50/Huawei_IoT_Agent_Tiny_SDK_Linux//agent_tiny/lwm2m_client/object_binary_app_data_container.c ****         default:
 169:/home/baikal/workspace/C50/Huawei_IoT_Agent_Tiny_SDK_Linux//agent_tiny/lwm2m_client/object_binary_app_data_container.c ****             return COAP_404_NOT_FOUND;
 170:/home/baikal/workspace/C50/Huawei_IoT_Agent_Tiny_SDK_Linux//agent_tiny/lwm2m_client/object_binary_app_data_container.c ****         }
 171:/home/baikal/workspace/C50/Huawei_IoT_Agent_Tiny_SDK_Linux//agent_tiny/lwm2m_client/object_binary_app_data_container.c ****     }
 172:/home/baikal/workspace/C50/Huawei_IoT_Agent_Tiny_SDK_Linux//agent_tiny/lwm2m_client/object_binary_app_data_container.c **** 
 173:/home/baikal/workspace/C50/Huawei_IoT_Agent_Tiny_SDK_Linux//agent_tiny/lwm2m_client/object_binary_app_data_container.c ****     return COAP_205_CONTENT;
 174:/home/baikal/workspace/C50/Huawei_IoT_Agent_Tiny_SDK_Linux//agent_tiny/lwm2m_client/object_binary_app_data_container.c **** }
 175:/home/baikal/workspace/C50/Huawei_IoT_Agent_Tiny_SDK_Linux//agent_tiny/lwm2m_client/object_binary_app_data_container.c **** 
 176:/home/baikal/workspace/C50/Huawei_IoT_Agent_Tiny_SDK_Linux//agent_tiny/lwm2m_client/object_binary_app_data_container.c **** static void prv_destroy_data_buf(int data_number, lwm2m_data_t *data_array)
 177:/home/baikal/workspace/C50/Huawei_IoT_Agent_Tiny_SDK_Linux//agent_tiny/lwm2m_client/object_binary_app_data_container.c **** {
   9              		.loc 1 177 0
  10              		.cfi_startproc
  11              	.LVL0:
  12 0000 4155     		pushq	%r13
  13              	.LCFI0:
  14              		.cfi_def_cfa_offset 16
  15              		.cfi_offset 13, -16
  16 0002 4154     		pushq	%r12
  17              	.LCFI1:
  18              		.cfi_def_cfa_offset 24
  19              		.cfi_offset 12, -24
  20 0004 55       		pushq	%rbp
  21              	.LCFI2:
  22              		.cfi_def_cfa_offset 32
  23              		.cfi_offset 6, -32
  24 0005 53       		pushq	%rbx
  25              	.LCFI3:
  26              		.cfi_def_cfa_offset 40
  27              		.cfi_offset 3, -40
  28 0006 4883EC08 		subq	$8, %rsp
  29              	.LCFI4:
  30              		.cfi_def_cfa_offset 48
  31 000a 4189FC   		movl	%edi, %r12d
  32 000d 4989F5   		movq	%rsi, %r13
  33              	.LVL1:
 178:/home/baikal/workspace/C50/Huawei_IoT_Agent_Tiny_SDK_Linux//agent_tiny/lwm2m_client/object_binary_app_data_container.c ****     int i;
 179:/home/baikal/workspace/C50/Huawei_IoT_Agent_Tiny_SDK_Linux//agent_tiny/lwm2m_client/object_binary_app_data_container.c ****     for (i = 0 ; i < data_number; i++)
  34              		.loc 1 179 0
  35 0010 BD000000 		movl	$0, %ebp
  35      00
  36 0015 EB3A     		jmp	.L2
  37              	.LVL2:
  38              	.L5:
 180:/home/baikal/workspace/C50/Huawei_IoT_Agent_Tiny_SDK_Linux//agent_tiny/lwm2m_client/object_binary_app_data_container.c ****     {
 181:/home/baikal/workspace/C50/Huawei_IoT_Agent_Tiny_SDK_Linux//agent_tiny/lwm2m_client/object_binary_app_data_container.c ****         switch (data_array[i].id)
  39              		.loc 1 181 0
  40 0017 4863C5   		movslq	%ebp, %rax
  41 001a 488D0440 		leaq	(%rax,%rax,2), %rax
  42 001e 488D1CC5 		leaq	0(,%rax,8), %rbx
  42      00000000 
  43 0026 4C01EB   		addq	%r13, %rbx
  44 0029 66837B04 		cmpw	$0, 4(%rbx)
  44      00
  45 002e 751E     		jne	.L3
GAS LISTING /tmp/cc68p2p6.s 			page 5


 182:/home/baikal/workspace/C50/Huawei_IoT_Agent_Tiny_SDK_Linux//agent_tiny/lwm2m_client/object_binary_app_data_container.c ****         {
 183:/home/baikal/workspace/C50/Huawei_IoT_Agent_Tiny_SDK_Linux//agent_tiny/lwm2m_client/object_binary_app_data_container.c ****         case 0:
 184:/home/baikal/workspace/C50/Huawei_IoT_Agent_Tiny_SDK_Linux//agent_tiny/lwm2m_client/object_binary_app_data_container.c ****             if(data_array[i].value.asBuffer.buffer != NULL)
  46              		.loc 1 184 0
  47 0030 488B7B10 		movq	16(%rbx), %rdi
  48 0034 4885FF   		testq	%rdi, %rdi
  49 0037 7415     		je	.L3
 185:/home/baikal/workspace/C50/Huawei_IoT_Agent_Tiny_SDK_Linux//agent_tiny/lwm2m_client/object_binary_app_data_container.c ****             {
 186:/home/baikal/workspace/C50/Huawei_IoT_Agent_Tiny_SDK_Linux//agent_tiny/lwm2m_client/object_binary_app_data_container.c ****                 lwm2m_free(data_array[i].value.asBuffer.buffer);
  50              		.loc 1 186 0
  51 0039 E8000000 		call	lwm2m_free
  51      00
  52              	.LVL3:
 187:/home/baikal/workspace/C50/Huawei_IoT_Agent_Tiny_SDK_Linux//agent_tiny/lwm2m_client/object_binary_app_data_container.c ****                 data_array[i].value.asBuffer.buffer = NULL;
  53              		.loc 1 187 0
  54 003e 48C74310 		movq	$0, 16(%rbx)
  54      00000000 
 188:/home/baikal/workspace/C50/Huawei_IoT_Agent_Tiny_SDK_Linux//agent_tiny/lwm2m_client/object_binary_app_data_container.c ****                 data_array[i].value.asBuffer.length = 0;
  55              		.loc 1 188 0
  56 0046 48C74308 		movq	$0, 8(%rbx)
  56      00000000 
  57              	.L3:
 179:/home/baikal/workspace/C50/Huawei_IoT_Agent_Tiny_SDK_Linux//agent_tiny/lwm2m_client/object_binary_app_data_container.c ****     {
  58              		.loc 1 179 0 discriminator 2
  59 004e 83C501   		addl	$1, %ebp
  60              	.LVL4:
  61              	.L2:
 179:/home/baikal/workspace/C50/Huawei_IoT_Agent_Tiny_SDK_Linux//agent_tiny/lwm2m_client/object_binary_app_data_container.c ****     {
  62              		.loc 1 179 0 is_stmt 0 discriminator 1
  63 0051 4439E5   		cmpl	%r12d, %ebp
  64 0054 7CC1     		jl	.L5
 189:/home/baikal/workspace/C50/Huawei_IoT_Agent_Tiny_SDK_Linux//agent_tiny/lwm2m_client/object_binary_app_data_container.c ****             }
 190:/home/baikal/workspace/C50/Huawei_IoT_Agent_Tiny_SDK_Linux//agent_tiny/lwm2m_client/object_binary_app_data_container.c ****             break;
 191:/home/baikal/workspace/C50/Huawei_IoT_Agent_Tiny_SDK_Linux//agent_tiny/lwm2m_client/object_binary_app_data_container.c ****         default:
 192:/home/baikal/workspace/C50/Huawei_IoT_Agent_Tiny_SDK_Linux//agent_tiny/lwm2m_client/object_binary_app_data_container.c ****             break;
 193:/home/baikal/workspace/C50/Huawei_IoT_Agent_Tiny_SDK_Linux//agent_tiny/lwm2m_client/object_binary_app_data_container.c ****         }
 194:/home/baikal/workspace/C50/Huawei_IoT_Agent_Tiny_SDK_Linux//agent_tiny/lwm2m_client/object_binary_app_data_container.c **** 
 195:/home/baikal/workspace/C50/Huawei_IoT_Agent_Tiny_SDK_Linux//agent_tiny/lwm2m_client/object_binary_app_data_container.c ****     }
 196:/home/baikal/workspace/C50/Huawei_IoT_Agent_Tiny_SDK_Linux//agent_tiny/lwm2m_client/object_binary_app_data_container.c **** 
 197:/home/baikal/workspace/C50/Huawei_IoT_Agent_Tiny_SDK_Linux//agent_tiny/lwm2m_client/object_binary_app_data_container.c **** }
  65              		.loc 1 197 0 is_stmt 1
  66 0056 4883C408 		addq	$8, %rsp
  67              	.LCFI5:
  68              		.cfi_def_cfa_offset 40
  69 005a 5B       		popq	%rbx
  70              	.LCFI6:
  71              		.cfi_def_cfa_offset 32
  72 005b 5D       		popq	%rbp
  73              	.LCFI7:
  74              		.cfi_def_cfa_offset 24
  75              	.LVL5:
  76 005c 415C     		popq	%r12
  77              	.LCFI8:
  78              		.cfi_def_cfa_offset 16
  79              	.LVL6:
  80 005e 415D     		popq	%r13
  81              	.LCFI9:
GAS LISTING /tmp/cc68p2p6.s 			page 6


  82              		.cfi_def_cfa_offset 8
  83              	.LVL7:
  84 0060 C3       		ret
  85              		.cfi_endproc
  86              	.LFE75:
  88              		.section	.text.prv_delete,"ax",@progbits
  90              	prv_delete:
  91              	.LFB79:
 198:/home/baikal/workspace/C50/Huawei_IoT_Agent_Tiny_SDK_Linux//agent_tiny/lwm2m_client/object_binary_app_data_container.c **** 
 199:/home/baikal/workspace/C50/Huawei_IoT_Agent_Tiny_SDK_Linux//agent_tiny/lwm2m_client/object_binary_app_data_container.c **** static uint8_t prv_read(uint16_t instanceId,
 200:/home/baikal/workspace/C50/Huawei_IoT_Agent_Tiny_SDK_Linux//agent_tiny/lwm2m_client/object_binary_app_data_container.c ****                         int *numDataP,
 201:/home/baikal/workspace/C50/Huawei_IoT_Agent_Tiny_SDK_Linux//agent_tiny/lwm2m_client/object_binary_app_data_container.c ****                         lwm2m_data_t **dataArrayP,
 202:/home/baikal/workspace/C50/Huawei_IoT_Agent_Tiny_SDK_Linux//agent_tiny/lwm2m_client/object_binary_app_data_container.c ****                         lwm2m_data_cfg_t *dataCfg,
 203:/home/baikal/workspace/C50/Huawei_IoT_Agent_Tiny_SDK_Linux//agent_tiny/lwm2m_client/object_binary_app_data_container.c ****                         lwm2m_object_t *objectP)
 204:/home/baikal/workspace/C50/Huawei_IoT_Agent_Tiny_SDK_Linux//agent_tiny/lwm2m_client/object_binary_app_data_container.c **** {
 205:/home/baikal/workspace/C50/Huawei_IoT_Agent_Tiny_SDK_Linux//agent_tiny/lwm2m_client/object_binary_app_data_container.c ****     plat_instance_t *targetP;
 206:/home/baikal/workspace/C50/Huawei_IoT_Agent_Tiny_SDK_Linux//agent_tiny/lwm2m_client/object_binary_app_data_container.c ****     uint8_t ret;
 207:/home/baikal/workspace/C50/Huawei_IoT_Agent_Tiny_SDK_Linux//agent_tiny/lwm2m_client/object_binary_app_data_container.c ****     int new_data_flag = false;
 208:/home/baikal/workspace/C50/Huawei_IoT_Agent_Tiny_SDK_Linux//agent_tiny/lwm2m_client/object_binary_app_data_container.c **** 
 209:/home/baikal/workspace/C50/Huawei_IoT_Agent_Tiny_SDK_Linux//agent_tiny/lwm2m_client/object_binary_app_data_container.c **** 
 210:/home/baikal/workspace/C50/Huawei_IoT_Agent_Tiny_SDK_Linux//agent_tiny/lwm2m_client/object_binary_app_data_container.c ****     targetP = (plat_instance_t *)lwm2m_list_find(objectP->instanceList, instanceId);
 211:/home/baikal/workspace/C50/Huawei_IoT_Agent_Tiny_SDK_Linux//agent_tiny/lwm2m_client/object_binary_app_data_container.c ****     if (NULL == targetP)
 212:/home/baikal/workspace/C50/Huawei_IoT_Agent_Tiny_SDK_Linux//agent_tiny/lwm2m_client/object_binary_app_data_container.c ****     {
 213:/home/baikal/workspace/C50/Huawei_IoT_Agent_Tiny_SDK_Linux//agent_tiny/lwm2m_client/object_binary_app_data_container.c ****         ATINY_LOG(LOG_ERR, "plat inst not found %d", instanceId);
 214:/home/baikal/workspace/C50/Huawei_IoT_Agent_Tiny_SDK_Linux//agent_tiny/lwm2m_client/object_binary_app_data_container.c ****         return COAP_404_NOT_FOUND;
 215:/home/baikal/workspace/C50/Huawei_IoT_Agent_Tiny_SDK_Linux//agent_tiny/lwm2m_client/object_binary_app_data_container.c ****     }
 216:/home/baikal/workspace/C50/Huawei_IoT_Agent_Tiny_SDK_Linux//agent_tiny/lwm2m_client/object_binary_app_data_container.c **** 
 217:/home/baikal/workspace/C50/Huawei_IoT_Agent_Tiny_SDK_Linux//agent_tiny/lwm2m_client/object_binary_app_data_container.c ****     if (*numDataP == 0)
 218:/home/baikal/workspace/C50/Huawei_IoT_Agent_Tiny_SDK_Linux//agent_tiny/lwm2m_client/object_binary_app_data_container.c ****     {
 219:/home/baikal/workspace/C50/Huawei_IoT_Agent_Tiny_SDK_Linux//agent_tiny/lwm2m_client/object_binary_app_data_container.c ****         *dataArrayP = lwm2m_data_new(1);
 220:/home/baikal/workspace/C50/Huawei_IoT_Agent_Tiny_SDK_Linux//agent_tiny/lwm2m_client/object_binary_app_data_container.c ****         if (*dataArrayP == NULL)
 221:/home/baikal/workspace/C50/Huawei_IoT_Agent_Tiny_SDK_Linux//agent_tiny/lwm2m_client/object_binary_app_data_container.c ****         {
 222:/home/baikal/workspace/C50/Huawei_IoT_Agent_Tiny_SDK_Linux//agent_tiny/lwm2m_client/object_binary_app_data_container.c ****             ATINY_LOG(LOG_ERR, "lwm2m_data_new null");
 223:/home/baikal/workspace/C50/Huawei_IoT_Agent_Tiny_SDK_Linux//agent_tiny/lwm2m_client/object_binary_app_data_container.c ****             return COAP_500_INTERNAL_SERVER_ERROR;
 224:/home/baikal/workspace/C50/Huawei_IoT_Agent_Tiny_SDK_Linux//agent_tiny/lwm2m_client/object_binary_app_data_container.c ****         }
 225:/home/baikal/workspace/C50/Huawei_IoT_Agent_Tiny_SDK_Linux//agent_tiny/lwm2m_client/object_binary_app_data_container.c **** 
 226:/home/baikal/workspace/C50/Huawei_IoT_Agent_Tiny_SDK_Linux//agent_tiny/lwm2m_client/object_binary_app_data_container.c ****         *numDataP = 1;
 227:/home/baikal/workspace/C50/Huawei_IoT_Agent_Tiny_SDK_Linux//agent_tiny/lwm2m_client/object_binary_app_data_container.c ****         (*dataArrayP)[0].id = 0;
 228:/home/baikal/workspace/C50/Huawei_IoT_Agent_Tiny_SDK_Linux//agent_tiny/lwm2m_client/object_binary_app_data_container.c ****         new_data_flag = true;
 229:/home/baikal/workspace/C50/Huawei_IoT_Agent_Tiny_SDK_Linux//agent_tiny/lwm2m_client/object_binary_app_data_container.c ****     }
 230:/home/baikal/workspace/C50/Huawei_IoT_Agent_Tiny_SDK_Linux//agent_tiny/lwm2m_client/object_binary_app_data_container.c **** 
 231:/home/baikal/workspace/C50/Huawei_IoT_Agent_Tiny_SDK_Linux//agent_tiny/lwm2m_client/object_binary_app_data_container.c ****     ret = prv_read_data(targetP, *numDataP, *dataArrayP, dataCfg);
 232:/home/baikal/workspace/C50/Huawei_IoT_Agent_Tiny_SDK_Linux//agent_tiny/lwm2m_client/object_binary_app_data_container.c ****     if(ret != COAP_205_CONTENT)
 233:/home/baikal/workspace/C50/Huawei_IoT_Agent_Tiny_SDK_Linux//agent_tiny/lwm2m_client/object_binary_app_data_container.c ****     {
 234:/home/baikal/workspace/C50/Huawei_IoT_Agent_Tiny_SDK_Linux//agent_tiny/lwm2m_client/object_binary_app_data_container.c **** 
 235:/home/baikal/workspace/C50/Huawei_IoT_Agent_Tiny_SDK_Linux//agent_tiny/lwm2m_client/object_binary_app_data_container.c ****         prv_destroy_data_buf(*numDataP, *dataArrayP);
 236:/home/baikal/workspace/C50/Huawei_IoT_Agent_Tiny_SDK_Linux//agent_tiny/lwm2m_client/object_binary_app_data_container.c ****         if(new_data_flag)
 237:/home/baikal/workspace/C50/Huawei_IoT_Agent_Tiny_SDK_Linux//agent_tiny/lwm2m_client/object_binary_app_data_container.c ****         {
 238:/home/baikal/workspace/C50/Huawei_IoT_Agent_Tiny_SDK_Linux//agent_tiny/lwm2m_client/object_binary_app_data_container.c ****             lwm2m_free(*dataArrayP);
 239:/home/baikal/workspace/C50/Huawei_IoT_Agent_Tiny_SDK_Linux//agent_tiny/lwm2m_client/object_binary_app_data_container.c ****             *dataArrayP = NULL;
 240:/home/baikal/workspace/C50/Huawei_IoT_Agent_Tiny_SDK_Linux//agent_tiny/lwm2m_client/object_binary_app_data_container.c ****         }
 241:/home/baikal/workspace/C50/Huawei_IoT_Agent_Tiny_SDK_Linux//agent_tiny/lwm2m_client/object_binary_app_data_container.c ****     }
 242:/home/baikal/workspace/C50/Huawei_IoT_Agent_Tiny_SDK_Linux//agent_tiny/lwm2m_client/object_binary_app_data_container.c **** 
 243:/home/baikal/workspace/C50/Huawei_IoT_Agent_Tiny_SDK_Linux//agent_tiny/lwm2m_client/object_binary_app_data_container.c ****     return ret;
 244:/home/baikal/workspace/C50/Huawei_IoT_Agent_Tiny_SDK_Linux//agent_tiny/lwm2m_client/object_binary_app_data_container.c **** }
 245:/home/baikal/workspace/C50/Huawei_IoT_Agent_Tiny_SDK_Linux//agent_tiny/lwm2m_client/object_binary_app_data_container.c **** 
 246:/home/baikal/workspace/C50/Huawei_IoT_Agent_Tiny_SDK_Linux//agent_tiny/lwm2m_client/object_binary_app_data_container.c **** static uint8_t prv_discover(uint16_t instanceId,
GAS LISTING /tmp/cc68p2p6.s 			page 7


 247:/home/baikal/workspace/C50/Huawei_IoT_Agent_Tiny_SDK_Linux//agent_tiny/lwm2m_client/object_binary_app_data_container.c ****                             int *numDataP,
 248:/home/baikal/workspace/C50/Huawei_IoT_Agent_Tiny_SDK_Linux//agent_tiny/lwm2m_client/object_binary_app_data_container.c ****                             lwm2m_data_t **dataArrayP,
 249:/home/baikal/workspace/C50/Huawei_IoT_Agent_Tiny_SDK_Linux//agent_tiny/lwm2m_client/object_binary_app_data_container.c ****                             lwm2m_object_t *objectP)
 250:/home/baikal/workspace/C50/Huawei_IoT_Agent_Tiny_SDK_Linux//agent_tiny/lwm2m_client/object_binary_app_data_container.c **** {
 251:/home/baikal/workspace/C50/Huawei_IoT_Agent_Tiny_SDK_Linux//agent_tiny/lwm2m_client/object_binary_app_data_container.c ****     int i;
 252:/home/baikal/workspace/C50/Huawei_IoT_Agent_Tiny_SDK_Linux//agent_tiny/lwm2m_client/object_binary_app_data_container.c **** 
 253:/home/baikal/workspace/C50/Huawei_IoT_Agent_Tiny_SDK_Linux//agent_tiny/lwm2m_client/object_binary_app_data_container.c ****     // is the server asking for the full object ?
 254:/home/baikal/workspace/C50/Huawei_IoT_Agent_Tiny_SDK_Linux//agent_tiny/lwm2m_client/object_binary_app_data_container.c ****     if (*numDataP == 0)
 255:/home/baikal/workspace/C50/Huawei_IoT_Agent_Tiny_SDK_Linux//agent_tiny/lwm2m_client/object_binary_app_data_container.c ****     {
 256:/home/baikal/workspace/C50/Huawei_IoT_Agent_Tiny_SDK_Linux//agent_tiny/lwm2m_client/object_binary_app_data_container.c ****         *dataArrayP = lwm2m_data_new(3);
 257:/home/baikal/workspace/C50/Huawei_IoT_Agent_Tiny_SDK_Linux//agent_tiny/lwm2m_client/object_binary_app_data_container.c ****         if (*dataArrayP == NULL) return COAP_500_INTERNAL_SERVER_ERROR;
 258:/home/baikal/workspace/C50/Huawei_IoT_Agent_Tiny_SDK_Linux//agent_tiny/lwm2m_client/object_binary_app_data_container.c ****         *numDataP = 3;
 259:/home/baikal/workspace/C50/Huawei_IoT_Agent_Tiny_SDK_Linux//agent_tiny/lwm2m_client/object_binary_app_data_container.c ****         (*dataArrayP)[0].id = 1;
 260:/home/baikal/workspace/C50/Huawei_IoT_Agent_Tiny_SDK_Linux//agent_tiny/lwm2m_client/object_binary_app_data_container.c ****         (*dataArrayP)[1].id = 2;
 261:/home/baikal/workspace/C50/Huawei_IoT_Agent_Tiny_SDK_Linux//agent_tiny/lwm2m_client/object_binary_app_data_container.c ****         (*dataArrayP)[2].id = 3;
 262:/home/baikal/workspace/C50/Huawei_IoT_Agent_Tiny_SDK_Linux//agent_tiny/lwm2m_client/object_binary_app_data_container.c ****     }
 263:/home/baikal/workspace/C50/Huawei_IoT_Agent_Tiny_SDK_Linux//agent_tiny/lwm2m_client/object_binary_app_data_container.c ****     else
 264:/home/baikal/workspace/C50/Huawei_IoT_Agent_Tiny_SDK_Linux//agent_tiny/lwm2m_client/object_binary_app_data_container.c ****     {
 265:/home/baikal/workspace/C50/Huawei_IoT_Agent_Tiny_SDK_Linux//agent_tiny/lwm2m_client/object_binary_app_data_container.c ****         for (i = 0; i < *numDataP; i++)
 266:/home/baikal/workspace/C50/Huawei_IoT_Agent_Tiny_SDK_Linux//agent_tiny/lwm2m_client/object_binary_app_data_container.c ****         {
 267:/home/baikal/workspace/C50/Huawei_IoT_Agent_Tiny_SDK_Linux//agent_tiny/lwm2m_client/object_binary_app_data_container.c ****             switch ((*dataArrayP)[i].id)
 268:/home/baikal/workspace/C50/Huawei_IoT_Agent_Tiny_SDK_Linux//agent_tiny/lwm2m_client/object_binary_app_data_container.c ****             {
 269:/home/baikal/workspace/C50/Huawei_IoT_Agent_Tiny_SDK_Linux//agent_tiny/lwm2m_client/object_binary_app_data_container.c ****             case 1:
 270:/home/baikal/workspace/C50/Huawei_IoT_Agent_Tiny_SDK_Linux//agent_tiny/lwm2m_client/object_binary_app_data_container.c ****             case 2:
 271:/home/baikal/workspace/C50/Huawei_IoT_Agent_Tiny_SDK_Linux//agent_tiny/lwm2m_client/object_binary_app_data_container.c ****             case 3:
 272:/home/baikal/workspace/C50/Huawei_IoT_Agent_Tiny_SDK_Linux//agent_tiny/lwm2m_client/object_binary_app_data_container.c ****                 break;
 273:/home/baikal/workspace/C50/Huawei_IoT_Agent_Tiny_SDK_Linux//agent_tiny/lwm2m_client/object_binary_app_data_container.c ****             default:
 274:/home/baikal/workspace/C50/Huawei_IoT_Agent_Tiny_SDK_Linux//agent_tiny/lwm2m_client/object_binary_app_data_container.c ****                 return COAP_404_NOT_FOUND;
 275:/home/baikal/workspace/C50/Huawei_IoT_Agent_Tiny_SDK_Linux//agent_tiny/lwm2m_client/object_binary_app_data_container.c ****             }
 276:/home/baikal/workspace/C50/Huawei_IoT_Agent_Tiny_SDK_Linux//agent_tiny/lwm2m_client/object_binary_app_data_container.c ****         }
 277:/home/baikal/workspace/C50/Huawei_IoT_Agent_Tiny_SDK_Linux//agent_tiny/lwm2m_client/object_binary_app_data_container.c ****     }
 278:/home/baikal/workspace/C50/Huawei_IoT_Agent_Tiny_SDK_Linux//agent_tiny/lwm2m_client/object_binary_app_data_container.c **** 
 279:/home/baikal/workspace/C50/Huawei_IoT_Agent_Tiny_SDK_Linux//agent_tiny/lwm2m_client/object_binary_app_data_container.c ****     return COAP_205_CONTENT;
 280:/home/baikal/workspace/C50/Huawei_IoT_Agent_Tiny_SDK_Linux//agent_tiny/lwm2m_client/object_binary_app_data_container.c **** }
 281:/home/baikal/workspace/C50/Huawei_IoT_Agent_Tiny_SDK_Linux//agent_tiny/lwm2m_client/object_binary_app_data_container.c **** 
 282:/home/baikal/workspace/C50/Huawei_IoT_Agent_Tiny_SDK_Linux//agent_tiny/lwm2m_client/object_binary_app_data_container.c **** static uint8_t prv_write(uint16_t instanceId,
 283:/home/baikal/workspace/C50/Huawei_IoT_Agent_Tiny_SDK_Linux//agent_tiny/lwm2m_client/object_binary_app_data_container.c ****                          int numData,
 284:/home/baikal/workspace/C50/Huawei_IoT_Agent_Tiny_SDK_Linux//agent_tiny/lwm2m_client/object_binary_app_data_container.c ****                          lwm2m_data_t *dataArray,
 285:/home/baikal/workspace/C50/Huawei_IoT_Agent_Tiny_SDK_Linux//agent_tiny/lwm2m_client/object_binary_app_data_container.c ****                          lwm2m_object_t *objectP)
 286:/home/baikal/workspace/C50/Huawei_IoT_Agent_Tiny_SDK_Linux//agent_tiny/lwm2m_client/object_binary_app_data_container.c **** {
 287:/home/baikal/workspace/C50/Huawei_IoT_Agent_Tiny_SDK_Linux//agent_tiny/lwm2m_client/object_binary_app_data_container.c ****     plat_instance_t *targetP;
 288:/home/baikal/workspace/C50/Huawei_IoT_Agent_Tiny_SDK_Linux//agent_tiny/lwm2m_client/object_binary_app_data_container.c ****     int i;
 289:/home/baikal/workspace/C50/Huawei_IoT_Agent_Tiny_SDK_Linux//agent_tiny/lwm2m_client/object_binary_app_data_container.c **** 
 290:/home/baikal/workspace/C50/Huawei_IoT_Agent_Tiny_SDK_Linux//agent_tiny/lwm2m_client/object_binary_app_data_container.c ****     targetP = (plat_instance_t *)lwm2m_list_find(objectP->instanceList, instanceId);
 291:/home/baikal/workspace/C50/Huawei_IoT_Agent_Tiny_SDK_Linux//agent_tiny/lwm2m_client/object_binary_app_data_container.c ****     if (NULL == targetP) return COAP_404_NOT_FOUND;
 292:/home/baikal/workspace/C50/Huawei_IoT_Agent_Tiny_SDK_Linux//agent_tiny/lwm2m_client/object_binary_app_data_container.c **** 
 293:/home/baikal/workspace/C50/Huawei_IoT_Agent_Tiny_SDK_Linux//agent_tiny/lwm2m_client/object_binary_app_data_container.c ****     for (i = 0 ; i < numData ; i++)
 294:/home/baikal/workspace/C50/Huawei_IoT_Agent_Tiny_SDK_Linux//agent_tiny/lwm2m_client/object_binary_app_data_container.c ****     {
 295:/home/baikal/workspace/C50/Huawei_IoT_Agent_Tiny_SDK_Linux//agent_tiny/lwm2m_client/object_binary_app_data_container.c ****         switch (dataArray[i].id)
 296:/home/baikal/workspace/C50/Huawei_IoT_Agent_Tiny_SDK_Linux//agent_tiny/lwm2m_client/object_binary_app_data_container.c ****         {
 297:/home/baikal/workspace/C50/Huawei_IoT_Agent_Tiny_SDK_Linux//agent_tiny/lwm2m_client/object_binary_app_data_container.c ****         case 0:
 298:/home/baikal/workspace/C50/Huawei_IoT_Agent_Tiny_SDK_Linux//agent_tiny/lwm2m_client/object_binary_app_data_container.c ****         {
 299:/home/baikal/workspace/C50/Huawei_IoT_Agent_Tiny_SDK_Linux//agent_tiny/lwm2m_client/object_binary_app_data_container.c ****             (void)atiny_cmd_ioctl(ATINY_WRITE_APP_DATA, (char *)(dataArray[i].value.asBuffer.buffer
 300:/home/baikal/workspace/C50/Huawei_IoT_Agent_Tiny_SDK_Linux//agent_tiny/lwm2m_client/object_binary_app_data_container.c ****             break;
 301:/home/baikal/workspace/C50/Huawei_IoT_Agent_Tiny_SDK_Linux//agent_tiny/lwm2m_client/object_binary_app_data_container.c ****         }
 302:/home/baikal/workspace/C50/Huawei_IoT_Agent_Tiny_SDK_Linux//agent_tiny/lwm2m_client/object_binary_app_data_container.c ****         default:
 303:/home/baikal/workspace/C50/Huawei_IoT_Agent_Tiny_SDK_Linux//agent_tiny/lwm2m_client/object_binary_app_data_container.c ****             return COAP_404_NOT_FOUND;
GAS LISTING /tmp/cc68p2p6.s 			page 8


 304:/home/baikal/workspace/C50/Huawei_IoT_Agent_Tiny_SDK_Linux//agent_tiny/lwm2m_client/object_binary_app_data_container.c ****         }
 305:/home/baikal/workspace/C50/Huawei_IoT_Agent_Tiny_SDK_Linux//agent_tiny/lwm2m_client/object_binary_app_data_container.c ****     }
 306:/home/baikal/workspace/C50/Huawei_IoT_Agent_Tiny_SDK_Linux//agent_tiny/lwm2m_client/object_binary_app_data_container.c **** 
 307:/home/baikal/workspace/C50/Huawei_IoT_Agent_Tiny_SDK_Linux//agent_tiny/lwm2m_client/object_binary_app_data_container.c ****     return COAP_204_CHANGED;
 308:/home/baikal/workspace/C50/Huawei_IoT_Agent_Tiny_SDK_Linux//agent_tiny/lwm2m_client/object_binary_app_data_container.c **** }
 309:/home/baikal/workspace/C50/Huawei_IoT_Agent_Tiny_SDK_Linux//agent_tiny/lwm2m_client/object_binary_app_data_container.c **** 
 310:/home/baikal/workspace/C50/Huawei_IoT_Agent_Tiny_SDK_Linux//agent_tiny/lwm2m_client/object_binary_app_data_container.c **** 
 311:/home/baikal/workspace/C50/Huawei_IoT_Agent_Tiny_SDK_Linux//agent_tiny/lwm2m_client/object_binary_app_data_container.c **** static uint8_t prv_delete(uint16_t id,
 312:/home/baikal/workspace/C50/Huawei_IoT_Agent_Tiny_SDK_Linux//agent_tiny/lwm2m_client/object_binary_app_data_container.c ****                           lwm2m_object_t *objectP)
 313:/home/baikal/workspace/C50/Huawei_IoT_Agent_Tiny_SDK_Linux//agent_tiny/lwm2m_client/object_binary_app_data_container.c **** {
  92              		.loc 1 313 0
  93              		.cfi_startproc
  94              	.LVL8:
  95 0000 53       		pushq	%rbx
  96              	.LCFI10:
  97              		.cfi_def_cfa_offset 16
  98              		.cfi_offset 3, -16
  99 0001 4883EC10 		subq	$16, %rsp
 100              	.LCFI11:
 101              		.cfi_def_cfa_offset 32
 102 0005 4889F3   		movq	%rsi, %rbx
 314:/home/baikal/workspace/C50/Huawei_IoT_Agent_Tiny_SDK_Linux//agent_tiny/lwm2m_client/object_binary_app_data_container.c ****     plat_instance_t *targetP;
 315:/home/baikal/workspace/C50/Huawei_IoT_Agent_Tiny_SDK_Linux//agent_tiny/lwm2m_client/object_binary_app_data_container.c ****     lwm2m_uri_t uri;
 316:/home/baikal/workspace/C50/Huawei_IoT_Agent_Tiny_SDK_Linux//agent_tiny/lwm2m_client/object_binary_app_data_container.c **** 
 317:/home/baikal/workspace/C50/Huawei_IoT_Agent_Tiny_SDK_Linux//agent_tiny/lwm2m_client/object_binary_app_data_container.c ****     objectP->instanceList = lwm2m_list_remove(objectP->instanceList, id, (lwm2m_list_t **)&targetP)
 103              		.loc 1 317 0
 104 0008 0FB7F7   		movzwl	%di, %esi
 105              	.LVL9:
 106 000b 488B7B10 		movq	16(%rbx), %rdi
 107              	.LVL10:
 108 000f 488D5424 		leaq	8(%rsp), %rdx
 108      08
 109 0014 E8000000 		call	lwm2m_list_remove
 109      00
 110              	.LVL11:
 111 0019 48894310 		movq	%rax, 16(%rbx)
 318:/home/baikal/workspace/C50/Huawei_IoT_Agent_Tiny_SDK_Linux//agent_tiny/lwm2m_client/object_binary_app_data_container.c ****     if (NULL == targetP) return COAP_404_NOT_FOUND;
 112              		.loc 1 318 0
 113 001d 488B4424 		movq	8(%rsp), %rax
 113      08
 114 0022 4885C0   		testq	%rax, %rax
 115 0025 7436     		je	.L9
 319:/home/baikal/workspace/C50/Huawei_IoT_Agent_Tiny_SDK_Linux//agent_tiny/lwm2m_client/object_binary_app_data_container.c **** 
 320:/home/baikal/workspace/C50/Huawei_IoT_Agent_Tiny_SDK_Linux//agent_tiny/lwm2m_client/object_binary_app_data_container.c ****     get_resource_uri(objectP->objID,  targetP->shortID,  BINARY_APP_DATA_RES_ID, &uri);
 116              		.loc 1 320 0
 117 0027 0FB74008 		movzwl	8(%rax), %eax
 118 002b 0FB75308 		movzwl	8(%rbx), %edx
 119              	.LVL12:
 120              	.LBB47:
 121              	.LBB48:
 122              		.file 2 "/home/baikal/workspace/C50/Huawei_IoT_Agent_Tiny_SDK_Linux//agent_tiny/lwm2m_client/atiny
   1:/home/baikal/workspace/C50/Huawei_IoT_Agent_Tiny_SDK_Linux//agent_tiny/lwm2m_client/atiny_rpt.h **** /*----------------------------------------------------------------------------
   2:/home/baikal/workspace/C50/Huawei_IoT_Agent_Tiny_SDK_Linux//agent_tiny/lwm2m_client/atiny_rpt.h ****  * Copyright (c) <2016-2018>, <Huawei Technologies Co., Ltd>
   3:/home/baikal/workspace/C50/Huawei_IoT_Agent_Tiny_SDK_Linux//agent_tiny/lwm2m_client/atiny_rpt.h ****  * All rights reserved.
   4:/home/baikal/workspace/C50/Huawei_IoT_Agent_Tiny_SDK_Linux//agent_tiny/lwm2m_client/atiny_rpt.h ****  * Redistribution and use in source and binary forms, with or without modification,
   5:/home/baikal/workspace/C50/Huawei_IoT_Agent_Tiny_SDK_Linux//agent_tiny/lwm2m_client/atiny_rpt.h ****  * are permitted provided that the following conditions are met:
   6:/home/baikal/workspace/C50/Huawei_IoT_Agent_Tiny_SDK_Linux//agent_tiny/lwm2m_client/atiny_rpt.h ****  * 1. Redistributions of source code must retain the above copyright notice, this list of
GAS LISTING /tmp/cc68p2p6.s 			page 9


   7:/home/baikal/workspace/C50/Huawei_IoT_Agent_Tiny_SDK_Linux//agent_tiny/lwm2m_client/atiny_rpt.h ****  * conditions and the following disclaimer.
   8:/home/baikal/workspace/C50/Huawei_IoT_Agent_Tiny_SDK_Linux//agent_tiny/lwm2m_client/atiny_rpt.h ****  * 2. Redistributions in binary form must reproduce the above copyright notice, this list
   9:/home/baikal/workspace/C50/Huawei_IoT_Agent_Tiny_SDK_Linux//agent_tiny/lwm2m_client/atiny_rpt.h ****  * of conditions and the following disclaimer in the documentation and/or other materials
  10:/home/baikal/workspace/C50/Huawei_IoT_Agent_Tiny_SDK_Linux//agent_tiny/lwm2m_client/atiny_rpt.h ****  * provided with the distribution.
  11:/home/baikal/workspace/C50/Huawei_IoT_Agent_Tiny_SDK_Linux//agent_tiny/lwm2m_client/atiny_rpt.h ****  * 3. Neither the name of the copyright holder nor the names of its contributors may be used
  12:/home/baikal/workspace/C50/Huawei_IoT_Agent_Tiny_SDK_Linux//agent_tiny/lwm2m_client/atiny_rpt.h ****  * to endorse or promote products derived from this software without specific prior written
  13:/home/baikal/workspace/C50/Huawei_IoT_Agent_Tiny_SDK_Linux//agent_tiny/lwm2m_client/atiny_rpt.h ****  * permission.
  14:/home/baikal/workspace/C50/Huawei_IoT_Agent_Tiny_SDK_Linux//agent_tiny/lwm2m_client/atiny_rpt.h ****  * THIS SOFTWARE IS PROVIDED BY THE COPYRIGHT HOLDERS AND CONTRIBUTORS
  15:/home/baikal/workspace/C50/Huawei_IoT_Agent_Tiny_SDK_Linux//agent_tiny/lwm2m_client/atiny_rpt.h ****  * "AS IS" AND ANY EXPRESS OR IMPLIED WARRANTIES, INCLUDING, BUT NOT LIMITED TO,
  16:/home/baikal/workspace/C50/Huawei_IoT_Agent_Tiny_SDK_Linux//agent_tiny/lwm2m_client/atiny_rpt.h ****  * THE IMPLIED WARRANTIES OF MERCHANTABILITY AND FITNESS FOR A PARTICULAR
  17:/home/baikal/workspace/C50/Huawei_IoT_Agent_Tiny_SDK_Linux//agent_tiny/lwm2m_client/atiny_rpt.h ****  * PURPOSE ARE DISCLAIMED. IN NO EVENT SHALL THE COPYRIGHT HOLDER OR
  18:/home/baikal/workspace/C50/Huawei_IoT_Agent_Tiny_SDK_Linux//agent_tiny/lwm2m_client/atiny_rpt.h ****  * CONTRIBUTORS BE LIABLE FOR ANY DIRECT, INDIRECT, INCIDENTAL, SPECIAL,
  19:/home/baikal/workspace/C50/Huawei_IoT_Agent_Tiny_SDK_Linux//agent_tiny/lwm2m_client/atiny_rpt.h ****  * EXEMPLARY, OR CONSEQUENTIAL DAMAGES (INCLUDING, BUT NOT LIMITED TO,
  20:/home/baikal/workspace/C50/Huawei_IoT_Agent_Tiny_SDK_Linux//agent_tiny/lwm2m_client/atiny_rpt.h ****  * PROCUREMENT OF SUBSTITUTE GOODS OR SERVICES; LOSS OF USE, DATA, OR PROFITS;
  21:/home/baikal/workspace/C50/Huawei_IoT_Agent_Tiny_SDK_Linux//agent_tiny/lwm2m_client/atiny_rpt.h ****  * OR BUSINESS INTERRUPTION) HOWEVER CAUSED AND ON ANY THEORY OF LIABILITY,
  22:/home/baikal/workspace/C50/Huawei_IoT_Agent_Tiny_SDK_Linux//agent_tiny/lwm2m_client/atiny_rpt.h ****  * WHETHER IN CONTRACT, STRICT LIABILITY, OR TORT (INCLUDING NEGLIGENCE OR
  23:/home/baikal/workspace/C50/Huawei_IoT_Agent_Tiny_SDK_Linux//agent_tiny/lwm2m_client/atiny_rpt.h ****  * OTHERWISE) ARISING IN ANY WAY OUT OF THE USE OF THIS SOFTWARE, EVEN IF
  24:/home/baikal/workspace/C50/Huawei_IoT_Agent_Tiny_SDK_Linux//agent_tiny/lwm2m_client/atiny_rpt.h ****  * ADVISED OF THE POSSIBILITY OF SUCH DAMAGE.
  25:/home/baikal/workspace/C50/Huawei_IoT_Agent_Tiny_SDK_Linux//agent_tiny/lwm2m_client/atiny_rpt.h ****  *---------------------------------------------------------------------------*/
  26:/home/baikal/workspace/C50/Huawei_IoT_Agent_Tiny_SDK_Linux//agent_tiny/lwm2m_client/atiny_rpt.h **** /*----------------------------------------------------------------------------
  27:/home/baikal/workspace/C50/Huawei_IoT_Agent_Tiny_SDK_Linux//agent_tiny/lwm2m_client/atiny_rpt.h ****  * Notice of Export Control Law
  28:/home/baikal/workspace/C50/Huawei_IoT_Agent_Tiny_SDK_Linux//agent_tiny/lwm2m_client/atiny_rpt.h ****  * ===============================================
  29:/home/baikal/workspace/C50/Huawei_IoT_Agent_Tiny_SDK_Linux//agent_tiny/lwm2m_client/atiny_rpt.h ****  * Huawei LiteOS may be subject to applicable export control laws and regulations, which might
  30:/home/baikal/workspace/C50/Huawei_IoT_Agent_Tiny_SDK_Linux//agent_tiny/lwm2m_client/atiny_rpt.h ****  * include those applicable to Huawei LiteOS of U.S. and the country in which you are located.
  31:/home/baikal/workspace/C50/Huawei_IoT_Agent_Tiny_SDK_Linux//agent_tiny/lwm2m_client/atiny_rpt.h ****  * Import, export and usage of Huawei LiteOS in any manner by you shall be in compliance with such
  32:/home/baikal/workspace/C50/Huawei_IoT_Agent_Tiny_SDK_Linux//agent_tiny/lwm2m_client/atiny_rpt.h ****  * applicable export control laws and regulations.
  33:/home/baikal/workspace/C50/Huawei_IoT_Agent_Tiny_SDK_Linux//agent_tiny/lwm2m_client/atiny_rpt.h ****  *---------------------------------------------------------------------------*/
  34:/home/baikal/workspace/C50/Huawei_IoT_Agent_Tiny_SDK_Linux//agent_tiny/lwm2m_client/atiny_rpt.h **** 
  35:/home/baikal/workspace/C50/Huawei_IoT_Agent_Tiny_SDK_Linux//agent_tiny/lwm2m_client/atiny_rpt.h **** #ifndef ATINY_RPT_H
  36:/home/baikal/workspace/C50/Huawei_IoT_Agent_Tiny_SDK_Linux//agent_tiny/lwm2m_client/atiny_rpt.h **** #define ATINY_RPT_H
  37:/home/baikal/workspace/C50/Huawei_IoT_Agent_Tiny_SDK_Linux//agent_tiny/lwm2m_client/atiny_rpt.h **** #include "agenttiny.h"
  38:/home/baikal/workspace/C50/Huawei_IoT_Agent_Tiny_SDK_Linux//agent_tiny/lwm2m_client/atiny_rpt.h **** #include "agent_list.h"
  39:/home/baikal/workspace/C50/Huawei_IoT_Agent_Tiny_SDK_Linux//agent_tiny/lwm2m_client/atiny_rpt.h **** 
  40:/home/baikal/workspace/C50/Huawei_IoT_Agent_Tiny_SDK_Linux//agent_tiny/lwm2m_client/atiny_rpt.h **** #ifdef __cplusplus
  41:/home/baikal/workspace/C50/Huawei_IoT_Agent_Tiny_SDK_Linux//agent_tiny/lwm2m_client/atiny_rpt.h **** extern "C" {
  42:/home/baikal/workspace/C50/Huawei_IoT_Agent_Tiny_SDK_Linux//agent_tiny/lwm2m_client/atiny_rpt.h **** #endif
  43:/home/baikal/workspace/C50/Huawei_IoT_Agent_Tiny_SDK_Linux//agent_tiny/lwm2m_client/atiny_rpt.h **** 
  44:/home/baikal/workspace/C50/Huawei_IoT_Agent_Tiny_SDK_Linux//agent_tiny/lwm2m_client/atiny_rpt.h **** #define URI_FORMAT "uri(flag:0x%x, objId:%d, instId:%d, resId:%d)"
  45:/home/baikal/workspace/C50/Huawei_IoT_Agent_Tiny_SDK_Linux//agent_tiny/lwm2m_client/atiny_rpt.h **** #define URI_LOG_PARAM(uri) (uri)->flag, (uri)->objectId, (uri)->instanceId, (uri)->resourceId
  46:/home/baikal/workspace/C50/Huawei_IoT_Agent_Tiny_SDK_Linux//agent_tiny/lwm2m_client/atiny_rpt.h **** 
  47:/home/baikal/workspace/C50/Huawei_IoT_Agent_Tiny_SDK_Linux//agent_tiny/lwm2m_client/atiny_rpt.h **** ATINY_INLINE void get_instance_uri(uint16_t object_id, uint16_t instance_id, lwm2m_uri_t* uri)
  48:/home/baikal/workspace/C50/Huawei_IoT_Agent_Tiny_SDK_Linux//agent_tiny/lwm2m_client/atiny_rpt.h **** {
  49:/home/baikal/workspace/C50/Huawei_IoT_Agent_Tiny_SDK_Linux//agent_tiny/lwm2m_client/atiny_rpt.h ****     if (uri == NULL)
  50:/home/baikal/workspace/C50/Huawei_IoT_Agent_Tiny_SDK_Linux//agent_tiny/lwm2m_client/atiny_rpt.h ****     {
  51:/home/baikal/workspace/C50/Huawei_IoT_Agent_Tiny_SDK_Linux//agent_tiny/lwm2m_client/atiny_rpt.h ****         return;
  52:/home/baikal/workspace/C50/Huawei_IoT_Agent_Tiny_SDK_Linux//agent_tiny/lwm2m_client/atiny_rpt.h ****     }
  53:/home/baikal/workspace/C50/Huawei_IoT_Agent_Tiny_SDK_Linux//agent_tiny/lwm2m_client/atiny_rpt.h ****     uri->flag = LWM2M_URI_FLAG_OBJECT_ID | LWM2M_URI_FLAG_INSTANCE_ID;
  54:/home/baikal/workspace/C50/Huawei_IoT_Agent_Tiny_SDK_Linux//agent_tiny/lwm2m_client/atiny_rpt.h ****     uri->objectId = object_id;
  55:/home/baikal/workspace/C50/Huawei_IoT_Agent_Tiny_SDK_Linux//agent_tiny/lwm2m_client/atiny_rpt.h ****     uri->instanceId = instance_id;
  56:/home/baikal/workspace/C50/Huawei_IoT_Agent_Tiny_SDK_Linux//agent_tiny/lwm2m_client/atiny_rpt.h ****     uri->resourceId = 0;
  57:/home/baikal/workspace/C50/Huawei_IoT_Agent_Tiny_SDK_Linux//agent_tiny/lwm2m_client/atiny_rpt.h **** }
  58:/home/baikal/workspace/C50/Huawei_IoT_Agent_Tiny_SDK_Linux//agent_tiny/lwm2m_client/atiny_rpt.h **** 
  59:/home/baikal/workspace/C50/Huawei_IoT_Agent_Tiny_SDK_Linux//agent_tiny/lwm2m_client/atiny_rpt.h **** ATINY_INLINE void get_resource_uri(uint16_t object_id, uint16_t instance_id, uint16_t resource_id, 
  60:/home/baikal/workspace/C50/Huawei_IoT_Agent_Tiny_SDK_Linux//agent_tiny/lwm2m_client/atiny_rpt.h **** {
  61:/home/baikal/workspace/C50/Huawei_IoT_Agent_Tiny_SDK_Linux//agent_tiny/lwm2m_client/atiny_rpt.h ****     if (uri == NULL)
  62:/home/baikal/workspace/C50/Huawei_IoT_Agent_Tiny_SDK_Linux//agent_tiny/lwm2m_client/atiny_rpt.h ****     {
  63:/home/baikal/workspace/C50/Huawei_IoT_Agent_Tiny_SDK_Linux//agent_tiny/lwm2m_client/atiny_rpt.h ****         return;
GAS LISTING /tmp/cc68p2p6.s 			page 10


  64:/home/baikal/workspace/C50/Huawei_IoT_Agent_Tiny_SDK_Linux//agent_tiny/lwm2m_client/atiny_rpt.h ****     }
  65:/home/baikal/workspace/C50/Huawei_IoT_Agent_Tiny_SDK_Linux//agent_tiny/lwm2m_client/atiny_rpt.h ****     uri->flag = LWM2M_URI_FLAG_OBJECT_ID | LWM2M_URI_FLAG_INSTANCE_ID | LWM2M_URI_FLAG_RESOURCE_ID;
 123              		.loc 2 65 0
 124 002f C6042407 		movb	$7, (%rsp)
  66:/home/baikal/workspace/C50/Huawei_IoT_Agent_Tiny_SDK_Linux//agent_tiny/lwm2m_client/atiny_rpt.h ****     uri->objectId = object_id;
 125              		.loc 2 66 0
 126 0033 66895424 		movw	%dx, 2(%rsp)
 126      02
  67:/home/baikal/workspace/C50/Huawei_IoT_Agent_Tiny_SDK_Linux//agent_tiny/lwm2m_client/atiny_rpt.h ****     uri->instanceId = instance_id;
 127              		.loc 2 67 0
 128 0038 66894424 		movw	%ax, 4(%rsp)
 128      04
  68:/home/baikal/workspace/C50/Huawei_IoT_Agent_Tiny_SDK_Linux//agent_tiny/lwm2m_client/atiny_rpt.h ****     uri->resourceId = resource_id;
 129              		.loc 2 68 0
 130 003d 66C74424 		movw	$0, 6(%rsp)
 130      060000
 131              	.LVL13:
 132              	.LBE48:
 133              	.LBE47:
 321:/home/baikal/workspace/C50/Huawei_IoT_Agent_Tiny_SDK_Linux//agent_tiny/lwm2m_client/object_binary_app_data_container.c ****     (void)atiny_rm_rpt_uri(&uri);
 134              		.loc 1 321 0
 135 0044 4889E7   		movq	%rsp, %rdi
 136 0047 E8000000 		call	atiny_rm_rpt_uri
 136      00
 137              	.LVL14:
 322:/home/baikal/workspace/C50/Huawei_IoT_Agent_Tiny_SDK_Linux//agent_tiny/lwm2m_client/object_binary_app_data_container.c ****     lwm2m_free(targetP);
 138              		.loc 1 322 0
 139 004c 488B7C24 		movq	8(%rsp), %rdi
 139      08
 140 0051 E8000000 		call	lwm2m_free
 140      00
 141              	.LVL15:
 323:/home/baikal/workspace/C50/Huawei_IoT_Agent_Tiny_SDK_Linux//agent_tiny/lwm2m_client/object_binary_app_data_container.c **** 
 324:/home/baikal/workspace/C50/Huawei_IoT_Agent_Tiny_SDK_Linux//agent_tiny/lwm2m_client/object_binary_app_data_container.c ****     return COAP_202_DELETED;
 142              		.loc 1 324 0
 143 0056 B8420000 		movl	$66, %eax
 143      00
 144 005b EB05     		jmp	.L8
 145              	.L9:
 318:/home/baikal/workspace/C50/Huawei_IoT_Agent_Tiny_SDK_Linux//agent_tiny/lwm2m_client/object_binary_app_data_container.c **** 
 146              		.loc 1 318 0
 147 005d B884FFFF 		movl	$-124, %eax
 147      FF
 148              	.L8:
 325:/home/baikal/workspace/C50/Huawei_IoT_Agent_Tiny_SDK_Linux//agent_tiny/lwm2m_client/object_binary_app_data_container.c **** }
 149              		.loc 1 325 0
 150 0062 4883C410 		addq	$16, %rsp
 151              	.LCFI12:
 152              		.cfi_def_cfa_offset 16
 153 0066 5B       		popq	%rbx
 154              	.LCFI13:
 155              		.cfi_def_cfa_offset 8
 156              	.LVL16:
 157 0067 C3       		ret
 158              		.cfi_endproc
 159              	.LFE79:
 161              		.section	.text.free_binary_app_data_object_rpt,"ax",@progbits
GAS LISTING /tmp/cc68p2p6.s 			page 11


 163              	free_binary_app_data_object_rpt:
 164              	.LFB84:
 326:/home/baikal/workspace/C50/Huawei_IoT_Agent_Tiny_SDK_Linux//agent_tiny/lwm2m_client/object_binary_app_data_container.c **** 
 327:/home/baikal/workspace/C50/Huawei_IoT_Agent_Tiny_SDK_Linux//agent_tiny/lwm2m_client/object_binary_app_data_container.c **** static uint8_t prv_create(uint16_t instanceId,
 328:/home/baikal/workspace/C50/Huawei_IoT_Agent_Tiny_SDK_Linux//agent_tiny/lwm2m_client/object_binary_app_data_container.c ****                           int numData,
 329:/home/baikal/workspace/C50/Huawei_IoT_Agent_Tiny_SDK_Linux//agent_tiny/lwm2m_client/object_binary_app_data_container.c ****                           lwm2m_data_t *dataArray,
 330:/home/baikal/workspace/C50/Huawei_IoT_Agent_Tiny_SDK_Linux//agent_tiny/lwm2m_client/object_binary_app_data_container.c ****                           lwm2m_object_t *objectP)
 331:/home/baikal/workspace/C50/Huawei_IoT_Agent_Tiny_SDK_Linux//agent_tiny/lwm2m_client/object_binary_app_data_container.c **** {
 332:/home/baikal/workspace/C50/Huawei_IoT_Agent_Tiny_SDK_Linux//agent_tiny/lwm2m_client/object_binary_app_data_container.c ****     plat_instance_t *targetP;
 333:/home/baikal/workspace/C50/Huawei_IoT_Agent_Tiny_SDK_Linux//agent_tiny/lwm2m_client/object_binary_app_data_container.c ****     uint8_t result;
 334:/home/baikal/workspace/C50/Huawei_IoT_Agent_Tiny_SDK_Linux//agent_tiny/lwm2m_client/object_binary_app_data_container.c ****     int ret;
 335:/home/baikal/workspace/C50/Huawei_IoT_Agent_Tiny_SDK_Linux//agent_tiny/lwm2m_client/object_binary_app_data_container.c ****     lwm2m_uri_t uri;
 336:/home/baikal/workspace/C50/Huawei_IoT_Agent_Tiny_SDK_Linux//agent_tiny/lwm2m_client/object_binary_app_data_container.c **** 
 337:/home/baikal/workspace/C50/Huawei_IoT_Agent_Tiny_SDK_Linux//agent_tiny/lwm2m_client/object_binary_app_data_container.c **** 
 338:/home/baikal/workspace/C50/Huawei_IoT_Agent_Tiny_SDK_Linux//agent_tiny/lwm2m_client/object_binary_app_data_container.c ****     targetP = (plat_instance_t *)lwm2m_malloc(sizeof(plat_instance_t));
 339:/home/baikal/workspace/C50/Huawei_IoT_Agent_Tiny_SDK_Linux//agent_tiny/lwm2m_client/object_binary_app_data_container.c ****     if (NULL == targetP) return COAP_500_INTERNAL_SERVER_ERROR;
 340:/home/baikal/workspace/C50/Huawei_IoT_Agent_Tiny_SDK_Linux//agent_tiny/lwm2m_client/object_binary_app_data_container.c ****     memset(targetP, 0, sizeof(plat_instance_t));
 341:/home/baikal/workspace/C50/Huawei_IoT_Agent_Tiny_SDK_Linux//agent_tiny/lwm2m_client/object_binary_app_data_container.c ****     //atiny_list_init(&(targetP->header));
 342:/home/baikal/workspace/C50/Huawei_IoT_Agent_Tiny_SDK_Linux//agent_tiny/lwm2m_client/object_binary_app_data_container.c **** 
 343:/home/baikal/workspace/C50/Huawei_IoT_Agent_Tiny_SDK_Linux//agent_tiny/lwm2m_client/object_binary_app_data_container.c ****     //TODO: if instanceId not valid
 344:/home/baikal/workspace/C50/Huawei_IoT_Agent_Tiny_SDK_Linux//agent_tiny/lwm2m_client/object_binary_app_data_container.c ****     get_resource_uri(BINARY_APP_DATA_OBJECT_ID, instanceId, BINARY_APP_DATA_RES_ID, &uri);
 345:/home/baikal/workspace/C50/Huawei_IoT_Agent_Tiny_SDK_Linux//agent_tiny/lwm2m_client/object_binary_app_data_container.c ****     ret = atiny_add_rpt_uri(&uri, &targetP->header);
 346:/home/baikal/workspace/C50/Huawei_IoT_Agent_Tiny_SDK_Linux//agent_tiny/lwm2m_client/object_binary_app_data_container.c ****     if(ret != ATINY_OK)
 347:/home/baikal/workspace/C50/Huawei_IoT_Agent_Tiny_SDK_Linux//agent_tiny/lwm2m_client/object_binary_app_data_container.c ****     {
 348:/home/baikal/workspace/C50/Huawei_IoT_Agent_Tiny_SDK_Linux//agent_tiny/lwm2m_client/object_binary_app_data_container.c ****         ATINY_LOG(LOG_ERR, "atiny_add_rpt_uri fail %d", ret);
 349:/home/baikal/workspace/C50/Huawei_IoT_Agent_Tiny_SDK_Linux//agent_tiny/lwm2m_client/object_binary_app_data_container.c ****         lwm2m_free(targetP);
 350:/home/baikal/workspace/C50/Huawei_IoT_Agent_Tiny_SDK_Linux//agent_tiny/lwm2m_client/object_binary_app_data_container.c ****         return COAP_404_NOT_FOUND;
 351:/home/baikal/workspace/C50/Huawei_IoT_Agent_Tiny_SDK_Linux//agent_tiny/lwm2m_client/object_binary_app_data_container.c ****     }
 352:/home/baikal/workspace/C50/Huawei_IoT_Agent_Tiny_SDK_Linux//agent_tiny/lwm2m_client/object_binary_app_data_container.c **** 
 353:/home/baikal/workspace/C50/Huawei_IoT_Agent_Tiny_SDK_Linux//agent_tiny/lwm2m_client/object_binary_app_data_container.c ****     targetP->shortID = instanceId;
 354:/home/baikal/workspace/C50/Huawei_IoT_Agent_Tiny_SDK_Linux//agent_tiny/lwm2m_client/object_binary_app_data_container.c ****     objectP->instanceList = LWM2M_LIST_ADD(objectP->instanceList, targetP);
 355:/home/baikal/workspace/C50/Huawei_IoT_Agent_Tiny_SDK_Linux//agent_tiny/lwm2m_client/object_binary_app_data_container.c **** 
 356:/home/baikal/workspace/C50/Huawei_IoT_Agent_Tiny_SDK_Linux//agent_tiny/lwm2m_client/object_binary_app_data_container.c ****     result = prv_write(instanceId, numData, dataArray, objectP);
 357:/home/baikal/workspace/C50/Huawei_IoT_Agent_Tiny_SDK_Linux//agent_tiny/lwm2m_client/object_binary_app_data_container.c **** 
 358:/home/baikal/workspace/C50/Huawei_IoT_Agent_Tiny_SDK_Linux//agent_tiny/lwm2m_client/object_binary_app_data_container.c ****     if (result != COAP_204_CHANGED)
 359:/home/baikal/workspace/C50/Huawei_IoT_Agent_Tiny_SDK_Linux//agent_tiny/lwm2m_client/object_binary_app_data_container.c ****     {
 360:/home/baikal/workspace/C50/Huawei_IoT_Agent_Tiny_SDK_Linux//agent_tiny/lwm2m_client/object_binary_app_data_container.c ****         (void)prv_delete(instanceId, objectP);
 361:/home/baikal/workspace/C50/Huawei_IoT_Agent_Tiny_SDK_Linux//agent_tiny/lwm2m_client/object_binary_app_data_container.c ****     }
 362:/home/baikal/workspace/C50/Huawei_IoT_Agent_Tiny_SDK_Linux//agent_tiny/lwm2m_client/object_binary_app_data_container.c ****     else
 363:/home/baikal/workspace/C50/Huawei_IoT_Agent_Tiny_SDK_Linux//agent_tiny/lwm2m_client/object_binary_app_data_container.c ****     {
 364:/home/baikal/workspace/C50/Huawei_IoT_Agent_Tiny_SDK_Linux//agent_tiny/lwm2m_client/object_binary_app_data_container.c ****         result = COAP_201_CREATED;
 365:/home/baikal/workspace/C50/Huawei_IoT_Agent_Tiny_SDK_Linux//agent_tiny/lwm2m_client/object_binary_app_data_container.c ****     }
 366:/home/baikal/workspace/C50/Huawei_IoT_Agent_Tiny_SDK_Linux//agent_tiny/lwm2m_client/object_binary_app_data_container.c **** 
 367:/home/baikal/workspace/C50/Huawei_IoT_Agent_Tiny_SDK_Linux//agent_tiny/lwm2m_client/object_binary_app_data_container.c ****     return result;
 368:/home/baikal/workspace/C50/Huawei_IoT_Agent_Tiny_SDK_Linux//agent_tiny/lwm2m_client/object_binary_app_data_container.c **** }
 369:/home/baikal/workspace/C50/Huawei_IoT_Agent_Tiny_SDK_Linux//agent_tiny/lwm2m_client/object_binary_app_data_container.c **** 
 370:/home/baikal/workspace/C50/Huawei_IoT_Agent_Tiny_SDK_Linux//agent_tiny/lwm2m_client/object_binary_app_data_container.c **** static uint8_t prv_exec(uint16_t instanceId,
 371:/home/baikal/workspace/C50/Huawei_IoT_Agent_Tiny_SDK_Linux//agent_tiny/lwm2m_client/object_binary_app_data_container.c ****                         uint16_t resourceId,
 372:/home/baikal/workspace/C50/Huawei_IoT_Agent_Tiny_SDK_Linux//agent_tiny/lwm2m_client/object_binary_app_data_container.c ****                         uint8_t *buffer,
 373:/home/baikal/workspace/C50/Huawei_IoT_Agent_Tiny_SDK_Linux//agent_tiny/lwm2m_client/object_binary_app_data_container.c ****                         int length,
 374:/home/baikal/workspace/C50/Huawei_IoT_Agent_Tiny_SDK_Linux//agent_tiny/lwm2m_client/object_binary_app_data_container.c ****                         lwm2m_object_t *objectP)
 375:/home/baikal/workspace/C50/Huawei_IoT_Agent_Tiny_SDK_Linux//agent_tiny/lwm2m_client/object_binary_app_data_container.c **** {
 376:/home/baikal/workspace/C50/Huawei_IoT_Agent_Tiny_SDK_Linux//agent_tiny/lwm2m_client/object_binary_app_data_container.c **** 
 377:/home/baikal/workspace/C50/Huawei_IoT_Agent_Tiny_SDK_Linux//agent_tiny/lwm2m_client/object_binary_app_data_container.c ****     if (NULL == lwm2m_list_find(objectP->instanceList, instanceId)) return COAP_404_NOT_FOUND;
 378:/home/baikal/workspace/C50/Huawei_IoT_Agent_Tiny_SDK_Linux//agent_tiny/lwm2m_client/object_binary_app_data_container.c **** 
 379:/home/baikal/workspace/C50/Huawei_IoT_Agent_Tiny_SDK_Linux//agent_tiny/lwm2m_client/object_binary_app_data_container.c ****     switch (resourceId)
 380:/home/baikal/workspace/C50/Huawei_IoT_Agent_Tiny_SDK_Linux//agent_tiny/lwm2m_client/object_binary_app_data_container.c ****     {
GAS LISTING /tmp/cc68p2p6.s 			page 12


 381:/home/baikal/workspace/C50/Huawei_IoT_Agent_Tiny_SDK_Linux//agent_tiny/lwm2m_client/object_binary_app_data_container.c ****     case 0:
 382:/home/baikal/workspace/C50/Huawei_IoT_Agent_Tiny_SDK_Linux//agent_tiny/lwm2m_client/object_binary_app_data_container.c ****     {
 383:/home/baikal/workspace/C50/Huawei_IoT_Agent_Tiny_SDK_Linux//agent_tiny/lwm2m_client/object_binary_app_data_container.c ****         ATINY_LOG(LOG_INFO, "no in prv_exec+++++++++++++++++++++++++++");
 384:/home/baikal/workspace/C50/Huawei_IoT_Agent_Tiny_SDK_Linux//agent_tiny/lwm2m_client/object_binary_app_data_container.c ****         return COAP_204_CHANGED;
 385:/home/baikal/workspace/C50/Huawei_IoT_Agent_Tiny_SDK_Linux//agent_tiny/lwm2m_client/object_binary_app_data_container.c ****     }
 386:/home/baikal/workspace/C50/Huawei_IoT_Agent_Tiny_SDK_Linux//agent_tiny/lwm2m_client/object_binary_app_data_container.c ****     case 1:
 387:/home/baikal/workspace/C50/Huawei_IoT_Agent_Tiny_SDK_Linux//agent_tiny/lwm2m_client/object_binary_app_data_container.c ****         return COAP_405_METHOD_NOT_ALLOWED;
 388:/home/baikal/workspace/C50/Huawei_IoT_Agent_Tiny_SDK_Linux//agent_tiny/lwm2m_client/object_binary_app_data_container.c ****     case 2:
 389:/home/baikal/workspace/C50/Huawei_IoT_Agent_Tiny_SDK_Linux//agent_tiny/lwm2m_client/object_binary_app_data_container.c ****         fprintf(stdout, "\r\n-----------------\r\n"
 390:/home/baikal/workspace/C50/Huawei_IoT_Agent_Tiny_SDK_Linux//agent_tiny/lwm2m_client/object_binary_app_data_container.c ****                 "Execute on %hu/%d/%d\r\n"
 391:/home/baikal/workspace/C50/Huawei_IoT_Agent_Tiny_SDK_Linux//agent_tiny/lwm2m_client/object_binary_app_data_container.c ****                 " Parameter (%d bytes):\r\n",
 392:/home/baikal/workspace/C50/Huawei_IoT_Agent_Tiny_SDK_Linux//agent_tiny/lwm2m_client/object_binary_app_data_container.c ****                 objectP->objID, instanceId, resourceId, length);
 393:/home/baikal/workspace/C50/Huawei_IoT_Agent_Tiny_SDK_Linux//agent_tiny/lwm2m_client/object_binary_app_data_container.c ****         prv_output_buffer((uint8_t *)buffer, length);
 394:/home/baikal/workspace/C50/Huawei_IoT_Agent_Tiny_SDK_Linux//agent_tiny/lwm2m_client/object_binary_app_data_container.c ****         fprintf(stdout, "-----------------\r\n\r\n");
 395:/home/baikal/workspace/C50/Huawei_IoT_Agent_Tiny_SDK_Linux//agent_tiny/lwm2m_client/object_binary_app_data_container.c ****         return COAP_204_CHANGED;
 396:/home/baikal/workspace/C50/Huawei_IoT_Agent_Tiny_SDK_Linux//agent_tiny/lwm2m_client/object_binary_app_data_container.c ****     case 3:
 397:/home/baikal/workspace/C50/Huawei_IoT_Agent_Tiny_SDK_Linux//agent_tiny/lwm2m_client/object_binary_app_data_container.c ****         return COAP_405_METHOD_NOT_ALLOWED;
 398:/home/baikal/workspace/C50/Huawei_IoT_Agent_Tiny_SDK_Linux//agent_tiny/lwm2m_client/object_binary_app_data_container.c ****     default:
 399:/home/baikal/workspace/C50/Huawei_IoT_Agent_Tiny_SDK_Linux//agent_tiny/lwm2m_client/object_binary_app_data_container.c ****         return COAP_404_NOT_FOUND;
 400:/home/baikal/workspace/C50/Huawei_IoT_Agent_Tiny_SDK_Linux//agent_tiny/lwm2m_client/object_binary_app_data_container.c ****     }
 401:/home/baikal/workspace/C50/Huawei_IoT_Agent_Tiny_SDK_Linux//agent_tiny/lwm2m_client/object_binary_app_data_container.c **** }
 402:/home/baikal/workspace/C50/Huawei_IoT_Agent_Tiny_SDK_Linux//agent_tiny/lwm2m_client/object_binary_app_data_container.c **** 
 403:/home/baikal/workspace/C50/Huawei_IoT_Agent_Tiny_SDK_Linux//agent_tiny/lwm2m_client/object_binary_app_data_container.c **** void display_binary_app_data_object(lwm2m_object_t *object)
 404:/home/baikal/workspace/C50/Huawei_IoT_Agent_Tiny_SDK_Linux//agent_tiny/lwm2m_client/object_binary_app_data_container.c **** {
 405:/home/baikal/workspace/C50/Huawei_IoT_Agent_Tiny_SDK_Linux//agent_tiny/lwm2m_client/object_binary_app_data_container.c **** #ifdef WITH_LOGS
 406:/home/baikal/workspace/C50/Huawei_IoT_Agent_Tiny_SDK_Linux//agent_tiny/lwm2m_client/object_binary_app_data_container.c ****     fprintf(stdout, "  /%u: Test object, instances:\r\n", object->objID);
 407:/home/baikal/workspace/C50/Huawei_IoT_Agent_Tiny_SDK_Linux//agent_tiny/lwm2m_client/object_binary_app_data_container.c ****     plat_instance_t *instance = (plat_instance_t *)object->instanceList;
 408:/home/baikal/workspace/C50/Huawei_IoT_Agent_Tiny_SDK_Linux//agent_tiny/lwm2m_client/object_binary_app_data_container.c ****     while (instance != NULL)
 409:/home/baikal/workspace/C50/Huawei_IoT_Agent_Tiny_SDK_Linux//agent_tiny/lwm2m_client/object_binary_app_data_container.c ****     {
 410:/home/baikal/workspace/C50/Huawei_IoT_Agent_Tiny_SDK_Linux//agent_tiny/lwm2m_client/object_binary_app_data_container.c ****         fprintf(stdout, "    /%u/%u: shortId: %u, test: %u\r\n",
 411:/home/baikal/workspace/C50/Huawei_IoT_Agent_Tiny_SDK_Linux//agent_tiny/lwm2m_client/object_binary_app_data_container.c ****                 object->objID, instance->shortID,
 412:/home/baikal/workspace/C50/Huawei_IoT_Agent_Tiny_SDK_Linux//agent_tiny/lwm2m_client/object_binary_app_data_container.c ****                 instance->shortID, instance->test);
 413:/home/baikal/workspace/C50/Huawei_IoT_Agent_Tiny_SDK_Linux//agent_tiny/lwm2m_client/object_binary_app_data_container.c ****         instance = (plat_instance_t *)instance->next;
 414:/home/baikal/workspace/C50/Huawei_IoT_Agent_Tiny_SDK_Linux//agent_tiny/lwm2m_client/object_binary_app_data_container.c ****     }
 415:/home/baikal/workspace/C50/Huawei_IoT_Agent_Tiny_SDK_Linux//agent_tiny/lwm2m_client/object_binary_app_data_container.c **** #endif
 416:/home/baikal/workspace/C50/Huawei_IoT_Agent_Tiny_SDK_Linux//agent_tiny/lwm2m_client/object_binary_app_data_container.c **** }
 417:/home/baikal/workspace/C50/Huawei_IoT_Agent_Tiny_SDK_Linux//agent_tiny/lwm2m_client/object_binary_app_data_container.c **** 
 418:/home/baikal/workspace/C50/Huawei_IoT_Agent_Tiny_SDK_Linux//agent_tiny/lwm2m_client/object_binary_app_data_container.c **** lwm2m_object_t *get_binary_app_data_object(atiny_param_t *atiny_params)
 419:/home/baikal/workspace/C50/Huawei_IoT_Agent_Tiny_SDK_Linux//agent_tiny/lwm2m_client/object_binary_app_data_container.c **** {
 420:/home/baikal/workspace/C50/Huawei_IoT_Agent_Tiny_SDK_Linux//agent_tiny/lwm2m_client/object_binary_app_data_container.c ****     lwm2m_object_t *appObj;
 421:/home/baikal/workspace/C50/Huawei_IoT_Agent_Tiny_SDK_Linux//agent_tiny/lwm2m_client/object_binary_app_data_container.c **** 
 422:/home/baikal/workspace/C50/Huawei_IoT_Agent_Tiny_SDK_Linux//agent_tiny/lwm2m_client/object_binary_app_data_container.c ****     appObj = (lwm2m_object_t *)lwm2m_malloc(sizeof(lwm2m_object_t));
 423:/home/baikal/workspace/C50/Huawei_IoT_Agent_Tiny_SDK_Linux//agent_tiny/lwm2m_client/object_binary_app_data_container.c **** 
 424:/home/baikal/workspace/C50/Huawei_IoT_Agent_Tiny_SDK_Linux//agent_tiny/lwm2m_client/object_binary_app_data_container.c ****     if (NULL != appObj)
 425:/home/baikal/workspace/C50/Huawei_IoT_Agent_Tiny_SDK_Linux//agent_tiny/lwm2m_client/object_binary_app_data_container.c ****     {
 426:/home/baikal/workspace/C50/Huawei_IoT_Agent_Tiny_SDK_Linux//agent_tiny/lwm2m_client/object_binary_app_data_container.c ****         int i;
 427:/home/baikal/workspace/C50/Huawei_IoT_Agent_Tiny_SDK_Linux//agent_tiny/lwm2m_client/object_binary_app_data_container.c ****         plat_instance_t *targetP;
 428:/home/baikal/workspace/C50/Huawei_IoT_Agent_Tiny_SDK_Linux//agent_tiny/lwm2m_client/object_binary_app_data_container.c ****         lwm2m_uri_t uri;
 429:/home/baikal/workspace/C50/Huawei_IoT_Agent_Tiny_SDK_Linux//agent_tiny/lwm2m_client/object_binary_app_data_container.c ****         int ret = ATINY_OK;
 430:/home/baikal/workspace/C50/Huawei_IoT_Agent_Tiny_SDK_Linux//agent_tiny/lwm2m_client/object_binary_app_data_container.c **** 
 431:/home/baikal/workspace/C50/Huawei_IoT_Agent_Tiny_SDK_Linux//agent_tiny/lwm2m_client/object_binary_app_data_container.c ****         memset(appObj, 0, sizeof(lwm2m_object_t));
 432:/home/baikal/workspace/C50/Huawei_IoT_Agent_Tiny_SDK_Linux//agent_tiny/lwm2m_client/object_binary_app_data_container.c **** 
 433:/home/baikal/workspace/C50/Huawei_IoT_Agent_Tiny_SDK_Linux//agent_tiny/lwm2m_client/object_binary_app_data_container.c ****         appObj->objID = BINARY_APP_DATA_OBJECT_ID;
 434:/home/baikal/workspace/C50/Huawei_IoT_Agent_Tiny_SDK_Linux//agent_tiny/lwm2m_client/object_binary_app_data_container.c ****         for (i = 0 ; i < BINARY_APP_DATA_OBJECT_INSTANCE_NUM; i++)
 435:/home/baikal/workspace/C50/Huawei_IoT_Agent_Tiny_SDK_Linux//agent_tiny/lwm2m_client/object_binary_app_data_container.c ****         {
 436:/home/baikal/workspace/C50/Huawei_IoT_Agent_Tiny_SDK_Linux//agent_tiny/lwm2m_client/object_binary_app_data_container.c ****             targetP = (plat_instance_t *)lwm2m_malloc(sizeof(plat_instance_t));
 437:/home/baikal/workspace/C50/Huawei_IoT_Agent_Tiny_SDK_Linux//agent_tiny/lwm2m_client/object_binary_app_data_container.c ****             if (NULL == targetP)
GAS LISTING /tmp/cc68p2p6.s 			page 13


 438:/home/baikal/workspace/C50/Huawei_IoT_Agent_Tiny_SDK_Linux//agent_tiny/lwm2m_client/object_binary_app_data_container.c ****             {
 439:/home/baikal/workspace/C50/Huawei_IoT_Agent_Tiny_SDK_Linux//agent_tiny/lwm2m_client/object_binary_app_data_container.c ****                 break;
 440:/home/baikal/workspace/C50/Huawei_IoT_Agent_Tiny_SDK_Linux//agent_tiny/lwm2m_client/object_binary_app_data_container.c ****             }
 441:/home/baikal/workspace/C50/Huawei_IoT_Agent_Tiny_SDK_Linux//agent_tiny/lwm2m_client/object_binary_app_data_container.c ****             memset(targetP, 0, sizeof(plat_instance_t));
 442:/home/baikal/workspace/C50/Huawei_IoT_Agent_Tiny_SDK_Linux//agent_tiny/lwm2m_client/object_binary_app_data_container.c ****             get_resource_uri(BINARY_APP_DATA_OBJECT_ID, i, BINARY_APP_DATA_RES_ID, &uri);
 443:/home/baikal/workspace/C50/Huawei_IoT_Agent_Tiny_SDK_Linux//agent_tiny/lwm2m_client/object_binary_app_data_container.c ****             ret = atiny_add_rpt_uri(&uri, &targetP->header);
 444:/home/baikal/workspace/C50/Huawei_IoT_Agent_Tiny_SDK_Linux//agent_tiny/lwm2m_client/object_binary_app_data_container.c ****             if(ret != ATINY_OK)
 445:/home/baikal/workspace/C50/Huawei_IoT_Agent_Tiny_SDK_Linux//agent_tiny/lwm2m_client/object_binary_app_data_container.c ****             {
 446:/home/baikal/workspace/C50/Huawei_IoT_Agent_Tiny_SDK_Linux//agent_tiny/lwm2m_client/object_binary_app_data_container.c ****                 ATINY_LOG(LOG_ERR, "atiny_add_rpt_uri fail %d", ret);
 447:/home/baikal/workspace/C50/Huawei_IoT_Agent_Tiny_SDK_Linux//agent_tiny/lwm2m_client/object_binary_app_data_container.c ****                 lwm2m_free(targetP);
 448:/home/baikal/workspace/C50/Huawei_IoT_Agent_Tiny_SDK_Linux//agent_tiny/lwm2m_client/object_binary_app_data_container.c ****                 break;
 449:/home/baikal/workspace/C50/Huawei_IoT_Agent_Tiny_SDK_Linux//agent_tiny/lwm2m_client/object_binary_app_data_container.c ****             }
 450:/home/baikal/workspace/C50/Huawei_IoT_Agent_Tiny_SDK_Linux//agent_tiny/lwm2m_client/object_binary_app_data_container.c ****             (void)atiny_set_max_rpt_cnt(&uri, MAX(MIN_SAVE_CNT, atiny_params->server_params.storing
 451:/home/baikal/workspace/C50/Huawei_IoT_Agent_Tiny_SDK_Linux//agent_tiny/lwm2m_client/object_binary_app_data_container.c ****             targetP->shortID = i;
 452:/home/baikal/workspace/C50/Huawei_IoT_Agent_Tiny_SDK_Linux//agent_tiny/lwm2m_client/object_binary_app_data_container.c ****             appObj->instanceList = LWM2M_LIST_ADD(appObj->instanceList, targetP);
 453:/home/baikal/workspace/C50/Huawei_IoT_Agent_Tiny_SDK_Linux//agent_tiny/lwm2m_client/object_binary_app_data_container.c ****         }
 454:/home/baikal/workspace/C50/Huawei_IoT_Agent_Tiny_SDK_Linux//agent_tiny/lwm2m_client/object_binary_app_data_container.c **** 
 455:/home/baikal/workspace/C50/Huawei_IoT_Agent_Tiny_SDK_Linux//agent_tiny/lwm2m_client/object_binary_app_data_container.c ****         if(i < BINARY_APP_DATA_OBJECT_INSTANCE_NUM)
 456:/home/baikal/workspace/C50/Huawei_IoT_Agent_Tiny_SDK_Linux//agent_tiny/lwm2m_client/object_binary_app_data_container.c ****         {
 457:/home/baikal/workspace/C50/Huawei_IoT_Agent_Tiny_SDK_Linux//agent_tiny/lwm2m_client/object_binary_app_data_container.c ****             free_binary_app_data_object(appObj);
 458:/home/baikal/workspace/C50/Huawei_IoT_Agent_Tiny_SDK_Linux//agent_tiny/lwm2m_client/object_binary_app_data_container.c ****             return NULL;
 459:/home/baikal/workspace/C50/Huawei_IoT_Agent_Tiny_SDK_Linux//agent_tiny/lwm2m_client/object_binary_app_data_container.c ****         }
 460:/home/baikal/workspace/C50/Huawei_IoT_Agent_Tiny_SDK_Linux//agent_tiny/lwm2m_client/object_binary_app_data_container.c **** 
 461:/home/baikal/workspace/C50/Huawei_IoT_Agent_Tiny_SDK_Linux//agent_tiny/lwm2m_client/object_binary_app_data_container.c ****         /*
 462:/home/baikal/workspace/C50/Huawei_IoT_Agent_Tiny_SDK_Linux//agent_tiny/lwm2m_client/object_binary_app_data_container.c ****          * From a single instance object, two more functions are available.
 463:/home/baikal/workspace/C50/Huawei_IoT_Agent_Tiny_SDK_Linux//agent_tiny/lwm2m_client/object_binary_app_data_container.c ****          * - The first one (createFunc) create a new instance and filled it with the provided infor
 464:/home/baikal/workspace/C50/Huawei_IoT_Agent_Tiny_SDK_Linux//agent_tiny/lwm2m_client/object_binary_app_data_container.c ****          *   provided a check is done for verifying his disponibility, or a new one is generated.
 465:/home/baikal/workspace/C50/Huawei_IoT_Agent_Tiny_SDK_Linux//agent_tiny/lwm2m_client/object_binary_app_data_container.c ****          * - The other one (deleteFunc) delete an instance by removing it from the instance list (a
 466:/home/baikal/workspace/C50/Huawei_IoT_Agent_Tiny_SDK_Linux//agent_tiny/lwm2m_client/object_binary_app_data_container.c ****          *   allocated to it)
 467:/home/baikal/workspace/C50/Huawei_IoT_Agent_Tiny_SDK_Linux//agent_tiny/lwm2m_client/object_binary_app_data_container.c ****          */
 468:/home/baikal/workspace/C50/Huawei_IoT_Agent_Tiny_SDK_Linux//agent_tiny/lwm2m_client/object_binary_app_data_container.c ****         appObj->readFunc = prv_read;
 469:/home/baikal/workspace/C50/Huawei_IoT_Agent_Tiny_SDK_Linux//agent_tiny/lwm2m_client/object_binary_app_data_container.c ****         appObj->discoverFunc = prv_discover;
 470:/home/baikal/workspace/C50/Huawei_IoT_Agent_Tiny_SDK_Linux//agent_tiny/lwm2m_client/object_binary_app_data_container.c ****         appObj->writeFunc = prv_write;
 471:/home/baikal/workspace/C50/Huawei_IoT_Agent_Tiny_SDK_Linux//agent_tiny/lwm2m_client/object_binary_app_data_container.c ****         appObj->executeFunc = prv_exec;
 472:/home/baikal/workspace/C50/Huawei_IoT_Agent_Tiny_SDK_Linux//agent_tiny/lwm2m_client/object_binary_app_data_container.c ****         appObj->createFunc = prv_create;
 473:/home/baikal/workspace/C50/Huawei_IoT_Agent_Tiny_SDK_Linux//agent_tiny/lwm2m_client/object_binary_app_data_container.c ****         appObj->deleteFunc = prv_delete;
 474:/home/baikal/workspace/C50/Huawei_IoT_Agent_Tiny_SDK_Linux//agent_tiny/lwm2m_client/object_binary_app_data_container.c ****     }
 475:/home/baikal/workspace/C50/Huawei_IoT_Agent_Tiny_SDK_Linux//agent_tiny/lwm2m_client/object_binary_app_data_container.c **** 
 476:/home/baikal/workspace/C50/Huawei_IoT_Agent_Tiny_SDK_Linux//agent_tiny/lwm2m_client/object_binary_app_data_container.c ****     return appObj;
 477:/home/baikal/workspace/C50/Huawei_IoT_Agent_Tiny_SDK_Linux//agent_tiny/lwm2m_client/object_binary_app_data_container.c **** }
 478:/home/baikal/workspace/C50/Huawei_IoT_Agent_Tiny_SDK_Linux//agent_tiny/lwm2m_client/object_binary_app_data_container.c **** 
 479:/home/baikal/workspace/C50/Huawei_IoT_Agent_Tiny_SDK_Linux//agent_tiny/lwm2m_client/object_binary_app_data_container.c **** static void free_binary_app_data_object_rpt(lwm2m_object_t *object)
 480:/home/baikal/workspace/C50/Huawei_IoT_Agent_Tiny_SDK_Linux//agent_tiny/lwm2m_client/object_binary_app_data_container.c **** {
 165              		.loc 1 480 0
 166              		.cfi_startproc
 167              	.LVL17:
 168 0000 55       		pushq	%rbp
 169              	.LCFI14:
 170              		.cfi_def_cfa_offset 16
 171              		.cfi_offset 6, -16
 172 0001 53       		pushq	%rbx
 173              	.LCFI15:
 174              		.cfi_def_cfa_offset 24
 175              		.cfi_offset 3, -24
 176 0002 4883EC18 		subq	$24, %rsp
 177              	.LCFI16:
 178              		.cfi_def_cfa_offset 48
GAS LISTING /tmp/cc68p2p6.s 			page 14


 179 0006 4889FD   		movq	%rdi, %rbp
 481:/home/baikal/workspace/C50/Huawei_IoT_Agent_Tiny_SDK_Linux//agent_tiny/lwm2m_client/object_binary_app_data_container.c ****     lwm2m_list_t *cur = object->instanceList;
 180              		.loc 1 481 0
 181 0009 488B5F10 		movq	16(%rdi), %rbx
 182              	.LVL18:
 482:/home/baikal/workspace/C50/Huawei_IoT_Agent_Tiny_SDK_Linux//agent_tiny/lwm2m_client/object_binary_app_data_container.c ****     lwm2m_uri_t uri;
 483:/home/baikal/workspace/C50/Huawei_IoT_Agent_Tiny_SDK_Linux//agent_tiny/lwm2m_client/object_binary_app_data_container.c ****     while(cur)
 183              		.loc 1 483 0
 184 000d EB28     		jmp	.L12
 185              	.LVL19:
 186              	.L13:
 484:/home/baikal/workspace/C50/Huawei_IoT_Agent_Tiny_SDK_Linux//agent_tiny/lwm2m_client/object_binary_app_data_container.c ****     {
 485:/home/baikal/workspace/C50/Huawei_IoT_Agent_Tiny_SDK_Linux//agent_tiny/lwm2m_client/object_binary_app_data_container.c ****         get_resource_uri(object->objID, ((plat_instance_t *)cur)->shortID, BINARY_APP_DATA_RES_ID, 
 187              		.loc 1 485 0
 188 000f 0FB74308 		movzwl	8(%rbx), %eax
 189 0013 0FB75508 		movzwl	8(%rbp), %edx
 190              	.LVL20:
 191              	.LBB49:
 192              	.LBB50:
  65:/home/baikal/workspace/C50/Huawei_IoT_Agent_Tiny_SDK_Linux//agent_tiny/lwm2m_client/atiny_rpt.h ****     uri->objectId = object_id;
 193              		.loc 2 65 0
 194 0017 C6042407 		movb	$7, (%rsp)
  66:/home/baikal/workspace/C50/Huawei_IoT_Agent_Tiny_SDK_Linux//agent_tiny/lwm2m_client/atiny_rpt.h ****     uri->instanceId = instance_id;
 195              		.loc 2 66 0
 196 001b 66895424 		movw	%dx, 2(%rsp)
 196      02
  67:/home/baikal/workspace/C50/Huawei_IoT_Agent_Tiny_SDK_Linux//agent_tiny/lwm2m_client/atiny_rpt.h ****     uri->resourceId = resource_id;
 197              		.loc 2 67 0
 198 0020 66894424 		movw	%ax, 4(%rsp)
 198      04
 199              		.loc 2 68 0
 200 0025 66C74424 		movw	$0, 6(%rsp)
 200      060000
 201              	.LVL21:
 202              	.LBE50:
 203              	.LBE49:
 486:/home/baikal/workspace/C50/Huawei_IoT_Agent_Tiny_SDK_Linux//agent_tiny/lwm2m_client/object_binary_app_data_container.c ****         (void)atiny_rm_rpt_uri(&uri);
 204              		.loc 1 486 0
 205 002c 4889E7   		movq	%rsp, %rdi
 206 002f E8000000 		call	atiny_rm_rpt_uri
 206      00
 207              	.LVL22:
 487:/home/baikal/workspace/C50/Huawei_IoT_Agent_Tiny_SDK_Linux//agent_tiny/lwm2m_client/object_binary_app_data_container.c ****         cur = cur->next;
 208              		.loc 1 487 0
 209 0034 488B1B   		movq	(%rbx), %rbx
 210              	.LVL23:
 211              	.L12:
 483:/home/baikal/workspace/C50/Huawei_IoT_Agent_Tiny_SDK_Linux//agent_tiny/lwm2m_client/object_binary_app_data_container.c ****     {
 212              		.loc 1 483 0
 213 0037 4885DB   		testq	%rbx, %rbx
 214 003a 75D3     		jne	.L13
 488:/home/baikal/workspace/C50/Huawei_IoT_Agent_Tiny_SDK_Linux//agent_tiny/lwm2m_client/object_binary_app_data_container.c ****     }
 489:/home/baikal/workspace/C50/Huawei_IoT_Agent_Tiny_SDK_Linux//agent_tiny/lwm2m_client/object_binary_app_data_container.c **** }
 215              		.loc 1 489 0
 216 003c 4883C418 		addq	$24, %rsp
 217              	.LCFI17:
 218              		.cfi_def_cfa_offset 24
GAS LISTING /tmp/cc68p2p6.s 			page 15


 219 0040 5B       		popq	%rbx
 220              	.LCFI18:
 221              		.cfi_def_cfa_offset 16
 222              	.LVL24:
 223 0041 5D       		popq	%rbp
 224              	.LCFI19:
 225              		.cfi_def_cfa_offset 8
 226              	.LVL25:
 227 0042 C3       		ret
 228              		.cfi_endproc
 229              	.LFE84:
 231              		.section	.rodata.str1.1,"aMS",@progbits,1
 232              	.LC0:
 233 0000 202000   		.string	"  "
 234              	.LC1:
 235 0003 25303258 		.string	"%02X "
 235      2000
 236              	.LC2:
 237 0009 20202000 		.string	"   "
 238              	.LC3:
 239 000d 25632000 		.string	"%c "
 240              	.LC4:
 241 0011 2E2000   		.string	". "
 242              		.section	.text.prv_output_buffer,"ax",@progbits
 244              	prv_output_buffer:
 245              	.LFB73:
  82:/home/baikal/workspace/C50/Huawei_IoT_Agent_Tiny_SDK_Linux//agent_tiny/lwm2m_client/object_binary_app_data_container.c ****     int i;
 246              		.loc 1 82 0
 247              		.cfi_startproc
 248              	.LVL26:
 249 0000 4155     		pushq	%r13
 250              	.LCFI20:
 251              		.cfi_def_cfa_offset 16
 252              		.cfi_offset 13, -16
 253 0002 4154     		pushq	%r12
 254              	.LCFI21:
 255              		.cfi_def_cfa_offset 24
 256              		.cfi_offset 12, -24
 257 0004 55       		pushq	%rbp
 258              	.LCFI22:
 259              		.cfi_def_cfa_offset 32
 260              		.cfi_offset 6, -32
 261 0005 53       		pushq	%rbx
 262              	.LCFI23:
 263              		.cfi_def_cfa_offset 40
 264              		.cfi_offset 3, -40
 265 0006 4883EC18 		subq	$24, %rsp
 266              	.LCFI24:
 267              		.cfi_def_cfa_offset 64
 268 000a 4989FD   		movq	%rdi, %r13
 269 000d 4189F4   		movl	%esi, %r12d
 270              	.LVL27:
  86:/home/baikal/workspace/C50/Huawei_IoT_Agent_Tiny_SDK_Linux//agent_tiny/lwm2m_client/object_binary_app_data_container.c ****     while (i < length)
 271              		.loc 1 86 0
 272 0010 BD000000 		movl	$0, %ebp
 272      00
  87:/home/baikal/workspace/C50/Huawei_IoT_Agent_Tiny_SDK_Linux//agent_tiny/lwm2m_client/object_binary_app_data_container.c ****     {
GAS LISTING /tmp/cc68p2p6.s 			page 16


 273              		.loc 1 87 0
 274 0015 E92B0100 		jmp	.L16
 274      00
 275              	.LVL28:
 276              	.L26:
 277              	.LBB51:
 278              	.LBB52:
 279              	.LBB53:
 280              		.file 3 "/usr/include/x86_64-linux-gnu/bits/stdio2.h"
   1:/usr/include/x86_64-linux-gnu/bits/stdio2.h **** /* Checking macros for stdio functions.
   2:/usr/include/x86_64-linux-gnu/bits/stdio2.h ****    Copyright (C) 2004-2016 Free Software Foundation, Inc.
   3:/usr/include/x86_64-linux-gnu/bits/stdio2.h ****    This file is part of the GNU C Library.
   4:/usr/include/x86_64-linux-gnu/bits/stdio2.h **** 
   5:/usr/include/x86_64-linux-gnu/bits/stdio2.h ****    The GNU C Library is free software; you can redistribute it and/or
   6:/usr/include/x86_64-linux-gnu/bits/stdio2.h ****    modify it under the terms of the GNU Lesser General Public
   7:/usr/include/x86_64-linux-gnu/bits/stdio2.h ****    License as published by the Free Software Foundation; either
   8:/usr/include/x86_64-linux-gnu/bits/stdio2.h ****    version 2.1 of the License, or (at your option) any later version.
   9:/usr/include/x86_64-linux-gnu/bits/stdio2.h **** 
  10:/usr/include/x86_64-linux-gnu/bits/stdio2.h ****    The GNU C Library is distributed in the hope that it will be useful,
  11:/usr/include/x86_64-linux-gnu/bits/stdio2.h ****    but WITHOUT ANY WARRANTY; without even the implied warranty of
  12:/usr/include/x86_64-linux-gnu/bits/stdio2.h ****    MERCHANTABILITY or FITNESS FOR A PARTICULAR PURPOSE.  See the GNU
  13:/usr/include/x86_64-linux-gnu/bits/stdio2.h ****    Lesser General Public License for more details.
  14:/usr/include/x86_64-linux-gnu/bits/stdio2.h **** 
  15:/usr/include/x86_64-linux-gnu/bits/stdio2.h ****    You should have received a copy of the GNU Lesser General Public
  16:/usr/include/x86_64-linux-gnu/bits/stdio2.h ****    License along with the GNU C Library; if not, see
  17:/usr/include/x86_64-linux-gnu/bits/stdio2.h ****    <http://www.gnu.org/licenses/>.  */
  18:/usr/include/x86_64-linux-gnu/bits/stdio2.h **** 
  19:/usr/include/x86_64-linux-gnu/bits/stdio2.h **** #ifndef _STDIO_H
  20:/usr/include/x86_64-linux-gnu/bits/stdio2.h **** # error "Never include <bits/stdio2.h> directly; use <stdio.h> instead."
  21:/usr/include/x86_64-linux-gnu/bits/stdio2.h **** #endif
  22:/usr/include/x86_64-linux-gnu/bits/stdio2.h **** 
  23:/usr/include/x86_64-linux-gnu/bits/stdio2.h **** extern int __sprintf_chk (char *__restrict __s, int __flag, size_t __slen,
  24:/usr/include/x86_64-linux-gnu/bits/stdio2.h **** 			  const char *__restrict __format, ...) __THROW;
  25:/usr/include/x86_64-linux-gnu/bits/stdio2.h **** extern int __vsprintf_chk (char *__restrict __s, int __flag, size_t __slen,
  26:/usr/include/x86_64-linux-gnu/bits/stdio2.h **** 			   const char *__restrict __format,
  27:/usr/include/x86_64-linux-gnu/bits/stdio2.h **** 			   _G_va_list __ap) __THROW;
  28:/usr/include/x86_64-linux-gnu/bits/stdio2.h **** 
  29:/usr/include/x86_64-linux-gnu/bits/stdio2.h **** #ifdef __va_arg_pack
  30:/usr/include/x86_64-linux-gnu/bits/stdio2.h **** __fortify_function int
  31:/usr/include/x86_64-linux-gnu/bits/stdio2.h **** __NTH (sprintf (char *__restrict __s, const char *__restrict __fmt, ...))
  32:/usr/include/x86_64-linux-gnu/bits/stdio2.h **** {
  33:/usr/include/x86_64-linux-gnu/bits/stdio2.h ****   return __builtin___sprintf_chk (__s, __USE_FORTIFY_LEVEL - 1,
  34:/usr/include/x86_64-linux-gnu/bits/stdio2.h **** 				  __bos (__s), __fmt, __va_arg_pack ());
  35:/usr/include/x86_64-linux-gnu/bits/stdio2.h **** }
  36:/usr/include/x86_64-linux-gnu/bits/stdio2.h **** #elif !defined __cplusplus
  37:/usr/include/x86_64-linux-gnu/bits/stdio2.h **** # define sprintf(str, ...) \
  38:/usr/include/x86_64-linux-gnu/bits/stdio2.h ****   __builtin___sprintf_chk (str, __USE_FORTIFY_LEVEL - 1, __bos (str), \
  39:/usr/include/x86_64-linux-gnu/bits/stdio2.h **** 			   __VA_ARGS__)
  40:/usr/include/x86_64-linux-gnu/bits/stdio2.h **** #endif
  41:/usr/include/x86_64-linux-gnu/bits/stdio2.h **** 
  42:/usr/include/x86_64-linux-gnu/bits/stdio2.h **** __fortify_function int
  43:/usr/include/x86_64-linux-gnu/bits/stdio2.h **** __NTH (vsprintf (char *__restrict __s, const char *__restrict __fmt,
  44:/usr/include/x86_64-linux-gnu/bits/stdio2.h **** 		 _G_va_list __ap))
  45:/usr/include/x86_64-linux-gnu/bits/stdio2.h **** {
  46:/usr/include/x86_64-linux-gnu/bits/stdio2.h ****   return __builtin___vsprintf_chk (__s, __USE_FORTIFY_LEVEL - 1,
  47:/usr/include/x86_64-linux-gnu/bits/stdio2.h **** 				   __bos (__s), __fmt, __ap);
  48:/usr/include/x86_64-linux-gnu/bits/stdio2.h **** }
GAS LISTING /tmp/cc68p2p6.s 			page 17


  49:/usr/include/x86_64-linux-gnu/bits/stdio2.h **** 
  50:/usr/include/x86_64-linux-gnu/bits/stdio2.h **** #if defined __USE_ISOC99 || defined __USE_UNIX98
  51:/usr/include/x86_64-linux-gnu/bits/stdio2.h **** 
  52:/usr/include/x86_64-linux-gnu/bits/stdio2.h **** extern int __snprintf_chk (char *__restrict __s, size_t __n, int __flag,
  53:/usr/include/x86_64-linux-gnu/bits/stdio2.h **** 			   size_t __slen, const char *__restrict __format,
  54:/usr/include/x86_64-linux-gnu/bits/stdio2.h **** 			   ...) __THROW;
  55:/usr/include/x86_64-linux-gnu/bits/stdio2.h **** extern int __vsnprintf_chk (char *__restrict __s, size_t __n, int __flag,
  56:/usr/include/x86_64-linux-gnu/bits/stdio2.h **** 			    size_t __slen, const char *__restrict __format,
  57:/usr/include/x86_64-linux-gnu/bits/stdio2.h **** 			    _G_va_list __ap) __THROW;
  58:/usr/include/x86_64-linux-gnu/bits/stdio2.h **** 
  59:/usr/include/x86_64-linux-gnu/bits/stdio2.h **** # ifdef __va_arg_pack
  60:/usr/include/x86_64-linux-gnu/bits/stdio2.h **** __fortify_function int
  61:/usr/include/x86_64-linux-gnu/bits/stdio2.h **** __NTH (snprintf (char *__restrict __s, size_t __n,
  62:/usr/include/x86_64-linux-gnu/bits/stdio2.h **** 		 const char *__restrict __fmt, ...))
  63:/usr/include/x86_64-linux-gnu/bits/stdio2.h **** {
  64:/usr/include/x86_64-linux-gnu/bits/stdio2.h ****   return __builtin___snprintf_chk (__s, __n, __USE_FORTIFY_LEVEL - 1,
  65:/usr/include/x86_64-linux-gnu/bits/stdio2.h **** 				   __bos (__s), __fmt, __va_arg_pack ());
  66:/usr/include/x86_64-linux-gnu/bits/stdio2.h **** }
  67:/usr/include/x86_64-linux-gnu/bits/stdio2.h **** # elif !defined __cplusplus
  68:/usr/include/x86_64-linux-gnu/bits/stdio2.h **** #  define snprintf(str, len, ...) \
  69:/usr/include/x86_64-linux-gnu/bits/stdio2.h ****   __builtin___snprintf_chk (str, len, __USE_FORTIFY_LEVEL - 1, __bos (str), \
  70:/usr/include/x86_64-linux-gnu/bits/stdio2.h **** 			    __VA_ARGS__)
  71:/usr/include/x86_64-linux-gnu/bits/stdio2.h **** # endif
  72:/usr/include/x86_64-linux-gnu/bits/stdio2.h **** 
  73:/usr/include/x86_64-linux-gnu/bits/stdio2.h **** __fortify_function int
  74:/usr/include/x86_64-linux-gnu/bits/stdio2.h **** __NTH (vsnprintf (char *__restrict __s, size_t __n,
  75:/usr/include/x86_64-linux-gnu/bits/stdio2.h **** 		  const char *__restrict __fmt, _G_va_list __ap))
  76:/usr/include/x86_64-linux-gnu/bits/stdio2.h **** {
  77:/usr/include/x86_64-linux-gnu/bits/stdio2.h ****   return __builtin___vsnprintf_chk (__s, __n, __USE_FORTIFY_LEVEL - 1,
  78:/usr/include/x86_64-linux-gnu/bits/stdio2.h **** 				    __bos (__s), __fmt, __ap);
  79:/usr/include/x86_64-linux-gnu/bits/stdio2.h **** }
  80:/usr/include/x86_64-linux-gnu/bits/stdio2.h **** 
  81:/usr/include/x86_64-linux-gnu/bits/stdio2.h **** #endif
  82:/usr/include/x86_64-linux-gnu/bits/stdio2.h **** 
  83:/usr/include/x86_64-linux-gnu/bits/stdio2.h **** #if __USE_FORTIFY_LEVEL > 1
  84:/usr/include/x86_64-linux-gnu/bits/stdio2.h **** 
  85:/usr/include/x86_64-linux-gnu/bits/stdio2.h **** extern int __fprintf_chk (FILE *__restrict __stream, int __flag,
  86:/usr/include/x86_64-linux-gnu/bits/stdio2.h **** 			  const char *__restrict __format, ...);
  87:/usr/include/x86_64-linux-gnu/bits/stdio2.h **** extern int __printf_chk (int __flag, const char *__restrict __format, ...);
  88:/usr/include/x86_64-linux-gnu/bits/stdio2.h **** extern int __vfprintf_chk (FILE *__restrict __stream, int __flag,
  89:/usr/include/x86_64-linux-gnu/bits/stdio2.h **** 			   const char *__restrict __format, _G_va_list __ap);
  90:/usr/include/x86_64-linux-gnu/bits/stdio2.h **** extern int __vprintf_chk (int __flag, const char *__restrict __format,
  91:/usr/include/x86_64-linux-gnu/bits/stdio2.h **** 			  _G_va_list __ap);
  92:/usr/include/x86_64-linux-gnu/bits/stdio2.h **** 
  93:/usr/include/x86_64-linux-gnu/bits/stdio2.h **** # ifdef __va_arg_pack
  94:/usr/include/x86_64-linux-gnu/bits/stdio2.h **** __fortify_function int
  95:/usr/include/x86_64-linux-gnu/bits/stdio2.h **** fprintf (FILE *__restrict __stream, const char *__restrict __fmt, ...)
  96:/usr/include/x86_64-linux-gnu/bits/stdio2.h **** {
  97:/usr/include/x86_64-linux-gnu/bits/stdio2.h ****   return __fprintf_chk (__stream, __USE_FORTIFY_LEVEL - 1, __fmt,
 281              		.loc 3 97 0
 282 001a 488B0D00 		movq	stderr(%rip), %rcx
 282      000000
 283 0021 BA020000 		movl	$2, %edx
 283      00
 284 0026 BE010000 		movl	$1, %esi
 284      00
 285 002b BF000000 		movl	$.LC0, %edi
GAS LISTING /tmp/cc68p2p6.s 			page 18


 285      00
 286 0030 E8000000 		call	fwrite
 286      00
 287              	.LVL29:
 288              	.LBE53:
 289              	.LBE52:
  92:/home/baikal/workspace/C50/Huawei_IoT_Agent_Tiny_SDK_Linux//agent_tiny/lwm2m_client/object_binary_app_data_container.c **** 
 290              		.loc 1 92 0
 291 0035 4863C5   		movslq	%ebp, %rax
 292              	.LVL30:
 293 0038 498B5405 		movq	8(%r13,%rax), %rdx
 293      08
 294 003d 498B4405 		movq	0(%r13,%rax), %rax
 294      00
 295              	.LVL31:
 296 0042 48890424 		movq	%rax, (%rsp)
 297 0046 48895424 		movq	%rdx, 8(%rsp)
 297      08
 298              	.LVL32:
  94:/home/baikal/workspace/C50/Huawei_IoT_Agent_Tiny_SDK_Linux//agent_tiny/lwm2m_client/object_binary_app_data_container.c ****         {
 299              		.loc 1 94 0
 300 004b BB000000 		movl	$0, %ebx
 300      00
 301 0050 EB25     		jmp	.L17
 302              	.LVL33:
 303              	.L19:
  96:/home/baikal/workspace/C50/Huawei_IoT_Agent_Tiny_SDK_Linux//agent_tiny/lwm2m_client/object_binary_app_data_container.c ****         }
 304              		.loc 1 96 0 discriminator 4
 305 0052 4863C3   		movslq	%ebx, %rax
 306 0055 0FB60C04 		movzbl	(%rsp,%rax), %ecx
 307              	.LVL34:
 308              	.LBB54:
 309              	.LBB55:
 310              		.loc 3 97 0 discriminator 4
 311 0059 BA000000 		movl	$.LC1, %edx
 311      00
 312 005e BE010000 		movl	$1, %esi
 312      00
 313 0063 488B3D00 		movq	stderr(%rip), %rdi
 313      000000
 314 006a B8000000 		movl	$0, %eax
 314      00
 315 006f E8000000 		call	__fprintf_chk
 315      00
 316              	.LVL35:
 317              	.LBE55:
 318              	.LBE54:
  94:/home/baikal/workspace/C50/Huawei_IoT_Agent_Tiny_SDK_Linux//agent_tiny/lwm2m_client/object_binary_app_data_container.c ****         {
 319              		.loc 1 94 0 discriminator 4
 320 0074 83C301   		addl	$1, %ebx
 321              	.LVL36:
 322              	.L17:
  94:/home/baikal/workspace/C50/Huawei_IoT_Agent_Tiny_SDK_Linux//agent_tiny/lwm2m_client/object_binary_app_data_container.c ****         {
 323              		.loc 1 94 0 is_stmt 0 discriminator 1
 324 0077 83FB0F   		cmpl	$15, %ebx
 325 007a 7F29     		jg	.L18
  94:/home/baikal/workspace/C50/Huawei_IoT_Agent_Tiny_SDK_Linux//agent_tiny/lwm2m_client/object_binary_app_data_container.c ****         {
GAS LISTING /tmp/cc68p2p6.s 			page 19


 326              		.loc 1 94 0 discriminator 3
 327 007c 8D441D00 		leal	0(%rbp,%rbx), %eax
 328 0080 4139C4   		cmpl	%eax, %r12d
 329 0083 7FCD     		jg	.L19
 330 0085 EB1E     		jmp	.L18
 331              	.L20:
 332              	.LVL37:
 333              	.LBB56:
 334              	.LBB57:
 335              		.loc 3 97 0 is_stmt 1
 336 0087 488B0D00 		movq	stderr(%rip), %rcx
 336      000000
 337 008e BA030000 		movl	$3, %edx
 337      00
 338 0093 BE010000 		movl	$1, %esi
 338      00
 339 0098 BF000000 		movl	$.LC2, %edi
 339      00
 340 009d E8000000 		call	fwrite
 340      00
 341              	.LVL38:
 342              	.LBE57:
 343              	.LBE56:
 101:/home/baikal/workspace/C50/Huawei_IoT_Agent_Tiny_SDK_Linux//agent_tiny/lwm2m_client/object_binary_app_data_container.c ****         }
 344              		.loc 1 101 0
 345 00a2 83C301   		addl	$1, %ebx
 346              	.LVL39:
 347              	.L18:
  98:/home/baikal/workspace/C50/Huawei_IoT_Agent_Tiny_SDK_Linux//agent_tiny/lwm2m_client/object_binary_app_data_container.c ****         {
 348              		.loc 1 98 0
 349 00a5 83FB0F   		cmpl	$15, %ebx
 350 00a8 7EDD     		jle	.L20
 351              	.LVL40:
 352              	.LBB58:
 353              	.LBB59:
 354              		.loc 3 97 0
 355 00aa 488B0D00 		movq	stderr(%rip), %rcx
 355      000000
 356 00b1 BA020000 		movl	$2, %edx
 356      00
 357 00b6 BE010000 		movl	$1, %esi
 357      00
 358 00bb BF000000 		movl	$.LC0, %edi
 358      00
 359 00c0 E8000000 		call	fwrite
 359      00
 360              	.LVL41:
 361              	.LBE59:
 362              	.LBE58:
 104:/home/baikal/workspace/C50/Huawei_IoT_Agent_Tiny_SDK_Linux//agent_tiny/lwm2m_client/object_binary_app_data_container.c ****         {
 363              		.loc 1 104 0
 364 00c5 BB000000 		movl	$0, %ebx
 364      00
 365 00ca EB57     		jmp	.L21
 366              	.LVL42:
 367              	.L25:
 106:/home/baikal/workspace/C50/Huawei_IoT_Agent_Tiny_SDK_Linux//agent_tiny/lwm2m_client/object_binary_app_data_container.c ****                 fprintf(stderr, "%c ", array[j]);
GAS LISTING /tmp/cc68p2p6.s 			page 20


 368              		.loc 1 106 0
 369 00cc E8000000 		call	__ctype_b_loc
 369      00
 370              	.LVL43:
 371 00d1 488B00   		movq	(%rax), %rax
 372 00d4 4863D3   		movslq	%ebx, %rdx
 373 00d7 0FB60C14 		movzbl	(%rsp,%rdx), %ecx
 374 00db 0FB6D1   		movzbl	%cl, %edx
 375 00de F6445001 		testb	$64, 1(%rax,%rdx,2)
 375      40
 376 00e3 7420     		je	.L22
 107:/home/baikal/workspace/C50/Huawei_IoT_Agent_Tiny_SDK_Linux//agent_tiny/lwm2m_client/object_binary_app_data_container.c ****             else
 377              		.loc 1 107 0
 378 00e5 0FB6C9   		movzbl	%cl, %ecx
 379              	.LVL44:
 380              	.LBB60:
 381              	.LBB61:
 382              		.loc 3 97 0
 383 00e8 BA000000 		movl	$.LC3, %edx
 383      00
 384 00ed BE010000 		movl	$1, %esi
 384      00
 385 00f2 488B3D00 		movq	stderr(%rip), %rdi
 385      000000
 386 00f9 B8000000 		movl	$0, %eax
 386      00
 387 00fe E8000000 		call	__fprintf_chk
 387      00
 388              	.LVL45:
 389 0103 EB1B     		jmp	.L23
 390              	.LVL46:
 391              	.L22:
 392              	.LBE61:
 393              	.LBE60:
 394              	.LBB62:
 395              	.LBB63:
 396 0105 488B0D00 		movq	stderr(%rip), %rcx
 396      000000
 397 010c BA020000 		movl	$2, %edx
 397      00
 398 0111 BE010000 		movl	$1, %esi
 398      00
 399 0116 BF000000 		movl	$.LC4, %edi
 399      00
 400 011b E8000000 		call	fwrite
 400      00
 401              	.LVL47:
 402              	.L23:
 403              	.LBE63:
 404              	.LBE62:
 104:/home/baikal/workspace/C50/Huawei_IoT_Agent_Tiny_SDK_Linux//agent_tiny/lwm2m_client/object_binary_app_data_container.c ****         {
 405              		.loc 1 104 0 discriminator 2
 406 0120 83C301   		addl	$1, %ebx
 407              	.LVL48:
 408              	.L21:
 104:/home/baikal/workspace/C50/Huawei_IoT_Agent_Tiny_SDK_Linux//agent_tiny/lwm2m_client/object_binary_app_data_container.c ****         {
 409              		.loc 1 104 0 is_stmt 0 discriminator 1
GAS LISTING /tmp/cc68p2p6.s 			page 21


 410 0123 83FB0F   		cmpl	$15, %ebx
 411 0126 7F09     		jg	.L24
 104:/home/baikal/workspace/C50/Huawei_IoT_Agent_Tiny_SDK_Linux//agent_tiny/lwm2m_client/object_binary_app_data_container.c ****         {
 412              		.loc 1 104 0 discriminator 3
 413 0128 8D441D00 		leal	0(%rbp,%rbx), %eax
 414 012c 4139C4   		cmpl	%eax, %r12d
 415 012f 7F9B     		jg	.L25
 416              	.L24:
 417              	.LVL49:
 418              	.LBB64:
 419              	.LBB65:
 420              		.loc 3 97 0 is_stmt 1
 421 0131 488B3500 		movq	stderr(%rip), %rsi
 421      000000
 422 0138 BF0A0000 		movl	$10, %edi
 422      00
 423 013d E8000000 		call	fputc
 423      00
 424              	.LVL50:
 425              	.LBE65:
 426              	.LBE64:
 113:/home/baikal/workspace/C50/Huawei_IoT_Agent_Tiny_SDK_Linux//agent_tiny/lwm2m_client/object_binary_app_data_container.c ****     }
 427              		.loc 1 113 0
 428 0142 83C510   		addl	$16, %ebp
 429              	.LVL51:
 430              	.L16:
 431              	.LBE51:
  87:/home/baikal/workspace/C50/Huawei_IoT_Agent_Tiny_SDK_Linux//agent_tiny/lwm2m_client/object_binary_app_data_container.c ****     {
 432              		.loc 1 87 0
 433 0145 4439E5   		cmpl	%r12d, %ebp
 434 0148 0F8CCCFE 		jl	.L26
 434      FFFF
 115:/home/baikal/workspace/C50/Huawei_IoT_Agent_Tiny_SDK_Linux//agent_tiny/lwm2m_client/object_binary_app_data_container.c **** 
 435              		.loc 1 115 0
 436 014e 4883C418 		addq	$24, %rsp
 437              	.LCFI25:
 438              		.cfi_def_cfa_offset 40
 439 0152 5B       		popq	%rbx
 440              	.LCFI26:
 441              		.cfi_def_cfa_offset 32
 442 0153 5D       		popq	%rbp
 443              	.LCFI27:
 444              		.cfi_def_cfa_offset 24
 445              	.LVL52:
 446 0154 415C     		popq	%r12
 447              	.LCFI28:
 448              		.cfi_def_cfa_offset 16
 449              	.LVL53:
 450 0156 415D     		popq	%r13
 451              	.LCFI29:
 452              		.cfi_def_cfa_offset 8
 453              	.LVL54:
 454 0158 C3       		ret
 455              		.cfi_endproc
 456              	.LFE73:
 458              		.section	.rodata.str1.8,"aMS",@progbits,1
 459              		.align 8
GAS LISTING /tmp/cc68p2p6.s 			page 22


 460              	.LC5:
 461 0000 5B25735D 		.string	"[%s][%u][%s:%d] no in prv_exec+++++++++++++++++++++++++++\r\n"
 461      5B25755D 
 461      5B25733A 
 461      25645D20 
 461      6E6F2069 
 462 003c 00000000 		.align 8
 463              	.LC6:
 464 0040 0D0A2D2D 		.string	"\r\n-----------------\r\nExecute on %hu/%d/%d\r\n Parameter (%d bytes):\r\n"
 464      2D2D2D2D 
 464      2D2D2D2D 
 464      2D2D2D2D 
 464      2D2D2D0D 
 465              		.section	.rodata.str1.1
 466              	.LC7:
 467 0014 2D2D2D2D 		.string	"-----------------\r\n\r\n"
 467      2D2D2D2D 
 467      2D2D2D2D 
 467      2D2D2D2D 
 467      2D0D0A0D 
 468              		.section	.text.prv_exec,"ax",@progbits
 470              	prv_exec:
 471              	.LFB81:
 375:/home/baikal/workspace/C50/Huawei_IoT_Agent_Tiny_SDK_Linux//agent_tiny/lwm2m_client/object_binary_app_data_container.c **** 
 472              		.loc 1 375 0
 473              		.cfi_startproc
 474              	.LVL55:
 475 0000 4156     		pushq	%r14
 476              	.LCFI30:
 477              		.cfi_def_cfa_offset 16
 478              		.cfi_offset 14, -16
 479 0002 4155     		pushq	%r13
 480              	.LCFI31:
 481              		.cfi_def_cfa_offset 24
 482              		.cfi_offset 13, -24
 483 0004 4154     		pushq	%r12
 484              	.LCFI32:
 485              		.cfi_def_cfa_offset 32
 486              		.cfi_offset 12, -32
 487 0006 55       		pushq	%rbp
 488              	.LCFI33:
 489              		.cfi_def_cfa_offset 40
 490              		.cfi_offset 6, -40
 491 0007 53       		pushq	%rbx
 492              	.LCFI34:
 493              		.cfi_def_cfa_offset 48
 494              		.cfi_offset 3, -48
 495 0008 89F5     		movl	%esi, %ebp
 496 000a 4989D6   		movq	%rdx, %r14
 497 000d 4189CD   		movl	%ecx, %r13d
 498 0010 4D89C4   		movq	%r8, %r12
 377:/home/baikal/workspace/C50/Huawei_IoT_Agent_Tiny_SDK_Linux//agent_tiny/lwm2m_client/object_binary_app_data_container.c **** 
 499              		.loc 1 377 0
 500 0013 0FB7DF   		movzwl	%di, %ebx
 501 0016 498B7810 		movq	16(%r8), %rdi
 502              	.LVL56:
 503 001a 89DE     		movl	%ebx, %esi
GAS LISTING /tmp/cc68p2p6.s 			page 23


 504              	.LVL57:
 505 001c E8000000 		call	lwm2m_list_find
 505      00
 506              	.LVL58:
 507 0021 4885C0   		testq	%rax, %rax
 508 0024 0F84CB00 		je	.L33
 508      0000
 379:/home/baikal/workspace/C50/Huawei_IoT_Agent_Tiny_SDK_Linux//agent_tiny/lwm2m_client/object_binary_app_data_container.c ****     {
 509              		.loc 1 379 0
 510 002a 6683FD01 		cmpw	$1, %bp
 511 002e 7416     		je	.L30
 512 0030 6683FD01 		cmpw	$1, %bp
 513 0034 721A     		jb	.L31
 514 0036 6683FD02 		cmpw	$2, %bp
 515 003a 745A     		je	.L32
 516 003c 6683FD03 		cmpw	$3, %bp
 517 0040 0F85B600 		jne	.L36
 517      0000
 518              	.L30:
 387:/home/baikal/workspace/C50/Huawei_IoT_Agent_Tiny_SDK_Linux//agent_tiny/lwm2m_client/object_binary_app_data_container.c ****     case 2:
 519              		.loc 1 387 0
 520 0046 B885FFFF 		movl	$-123, %eax
 520      FF
 521 004b E9B80000 		jmp	.L29
 521      00
 522              	.L31:
 383:/home/baikal/workspace/C50/Huawei_IoT_Agent_Tiny_SDK_Linux//agent_tiny/lwm2m_client/object_binary_app_data_container.c ****         return COAP_204_CHANGED;
 523              		.loc 1 383 0
 524 0050 E8000000 		call	atiny_get_log_level
 524      00
 525              	.LVL59:
 526 0055 83F801   		cmpl	$1, %eax
 527 0058 0F87A500 		ja	.L35
 527      0000
 383:/home/baikal/workspace/C50/Huawei_IoT_Agent_Tiny_SDK_Linux//agent_tiny/lwm2m_client/object_binary_app_data_container.c ****         return COAP_204_CHANGED;
 528              		.loc 1 383 0 is_stmt 0 discriminator 1
 529 005e E8000000 		call	atiny_gettime_ms
 529      00
 530              	.LVL60:
 531 0063 4889C3   		movq	%rax, %rbx
 532              	.LVL61:
 533 0066 BF010000 		movl	$1, %edi
 533      00
 534 006b E8000000 		call	atiny_get_log_level_name
 534      00
 535              	.LVL62:
 536 0070 41B87F01 		movl	$383, %r8d
 536      0000
 537 0076 B9000000 		movl	$__FUNCTION__.5355, %ecx
 537      00
 538 007b 89DA     		movl	%ebx, %edx
 539 007d 4889C6   		movq	%rax, %rsi
 540 0080 BF000000 		movl	$.LC5, %edi
 540      00
 541 0085 B8000000 		movl	$0, %eax
 541      00
 542 008a E8000000 		call	atiny_printf
GAS LISTING /tmp/cc68p2p6.s 			page 24


 542      00
 543              	.LVL63:
 384:/home/baikal/workspace/C50/Huawei_IoT_Agent_Tiny_SDK_Linux//agent_tiny/lwm2m_client/object_binary_app_data_container.c ****     }
 544              		.loc 1 384 0 is_stmt 1 discriminator 1
 545 008f B8440000 		movl	$68, %eax
 545      00
 546 0094 EB72     		jmp	.L29
 547              	.L32:
 389:/home/baikal/workspace/C50/Huawei_IoT_Agent_Tiny_SDK_Linux//agent_tiny/lwm2m_client/object_binary_app_data_container.c ****                 "Execute on %hu/%d/%d\r\n"
 548              		.loc 1 389 0
 549 0096 410FB74C 		movzwl	8(%r12), %ecx
 549      2408
 550              	.LVL64:
 551              	.LBB66:
 552              	.LBB67:
 553              		.loc 3 97 0
 554 009c 4883EC08 		subq	$8, %rsp
 555              	.LCFI35:
 556              		.cfi_def_cfa_offset 56
 557 00a0 4155     		pushq	%r13
 558              	.LCFI36:
 559              		.cfi_def_cfa_offset 64
 560 00a2 440FB7CD 		movzwl	%bp, %r9d
 561 00a6 4189D8   		movl	%ebx, %r8d
 562 00a9 BA000000 		movl	$.LC6, %edx
 562      00
 563 00ae BE010000 		movl	$1, %esi
 563      00
 564 00b3 488B3D00 		movq	stdout(%rip), %rdi
 564      000000
 565 00ba B8000000 		movl	$0, %eax
 565      00
 566 00bf E8000000 		call	__fprintf_chk
 566      00
 567              	.LVL65:
 568              	.LBE67:
 569              	.LBE66:
 393:/home/baikal/workspace/C50/Huawei_IoT_Agent_Tiny_SDK_Linux//agent_tiny/lwm2m_client/object_binary_app_data_container.c ****         fprintf(stdout, "-----------------\r\n\r\n");
 570              		.loc 1 393 0
 571 00c4 4489EE   		movl	%r13d, %esi
 572 00c7 4C89F7   		movq	%r14, %rdi
 573 00ca E8000000 		call	prv_output_buffer
 573      00
 574              	.LVL66:
 575              	.LBB68:
 576              	.LBB69:
 577              		.loc 3 97 0
 578 00cf 488B0D00 		movq	stdout(%rip), %rcx
 578      000000
 579 00d6 BA150000 		movl	$21, %edx
 579      00
 580 00db BE010000 		movl	$1, %esi
 580      00
 581 00e0 BF000000 		movl	$.LC7, %edi
 581      00
 582 00e5 E8000000 		call	fwrite
 582      00
GAS LISTING /tmp/cc68p2p6.s 			page 25


 583              	.LVL67:
 584              	.LBE69:
 585              	.LBE68:
 395:/home/baikal/workspace/C50/Huawei_IoT_Agent_Tiny_SDK_Linux//agent_tiny/lwm2m_client/object_binary_app_data_container.c ****     case 3:
 586              		.loc 1 395 0
 587 00ea 4883C410 		addq	$16, %rsp
 588              	.LCFI37:
 589              		.cfi_def_cfa_offset 48
 590 00ee B8440000 		movl	$68, %eax
 590      00
 591 00f3 EB13     		jmp	.L29
 592              	.L33:
 377:/home/baikal/workspace/C50/Huawei_IoT_Agent_Tiny_SDK_Linux//agent_tiny/lwm2m_client/object_binary_app_data_container.c **** 
 593              		.loc 1 377 0
 594 00f5 B884FFFF 		movl	$-124, %eax
 594      FF
 595 00fa EB0C     		jmp	.L29
 596              	.L36:
 399:/home/baikal/workspace/C50/Huawei_IoT_Agent_Tiny_SDK_Linux//agent_tiny/lwm2m_client/object_binary_app_data_container.c ****     }
 597              		.loc 1 399 0
 598 00fc B884FFFF 		movl	$-124, %eax
 598      FF
 599 0101 EB05     		jmp	.L29
 600              	.L35:
 384:/home/baikal/workspace/C50/Huawei_IoT_Agent_Tiny_SDK_Linux//agent_tiny/lwm2m_client/object_binary_app_data_container.c ****     }
 601              		.loc 1 384 0
 602 0103 B8440000 		movl	$68, %eax
 602      00
 603              	.L29:
 401:/home/baikal/workspace/C50/Huawei_IoT_Agent_Tiny_SDK_Linux//agent_tiny/lwm2m_client/object_binary_app_data_container.c **** 
 604              		.loc 1 401 0
 605 0108 5B       		popq	%rbx
 606              	.LCFI38:
 607              		.cfi_def_cfa_offset 40
 608 0109 5D       		popq	%rbp
 609              	.LCFI39:
 610              		.cfi_def_cfa_offset 32
 611 010a 415C     		popq	%r12
 612              	.LCFI40:
 613              		.cfi_def_cfa_offset 24
 614              	.LVL68:
 615 010c 415D     		popq	%r13
 616              	.LCFI41:
 617              		.cfi_def_cfa_offset 16
 618              	.LVL69:
 619 010e 415E     		popq	%r14
 620              	.LCFI42:
 621              		.cfi_def_cfa_offset 8
 622              	.LVL70:
 623 0110 C3       		ret
 624              		.cfi_endproc
 625              	.LFE81:
 627              		.section	.text.prv_write,"ax",@progbits
 629              	prv_write:
 630              	.LFB78:
 286:/home/baikal/workspace/C50/Huawei_IoT_Agent_Tiny_SDK_Linux//agent_tiny/lwm2m_client/object_binary_app_data_container.c ****     plat_instance_t *targetP;
 631              		.loc 1 286 0
GAS LISTING /tmp/cc68p2p6.s 			page 26


 632              		.cfi_startproc
 633              	.LVL71:
 634 0000 4154     		pushq	%r12
 635              	.LCFI43:
 636              		.cfi_def_cfa_offset 16
 637              		.cfi_offset 12, -16
 638 0002 55       		pushq	%rbp
 639              	.LCFI44:
 640              		.cfi_def_cfa_offset 24
 641              		.cfi_offset 6, -24
 642 0003 53       		pushq	%rbx
 643              	.LCFI45:
 644              		.cfi_def_cfa_offset 32
 645              		.cfi_offset 3, -32
 646 0004 4189F4   		movl	%esi, %r12d
 647 0007 4889D5   		movq	%rdx, %rbp
 290:/home/baikal/workspace/C50/Huawei_IoT_Agent_Tiny_SDK_Linux//agent_tiny/lwm2m_client/object_binary_app_data_container.c ****     if (NULL == targetP) return COAP_404_NOT_FOUND;
 648              		.loc 1 290 0
 649 000a 0FB7F7   		movzwl	%di, %esi
 650              	.LVL72:
 651 000d 488B7910 		movq	16(%rcx), %rdi
 652              	.LVL73:
 653 0011 E8000000 		call	lwm2m_list_find
 653      00
 654              	.LVL74:
 291:/home/baikal/workspace/C50/Huawei_IoT_Agent_Tiny_SDK_Linux//agent_tiny/lwm2m_client/object_binary_app_data_container.c **** 
 655              		.loc 1 291 0
 656 0016 4885C0   		testq	%rax, %rax
 657 0019 7440     		je	.L43
 658 001b BB000000 		movl	$0, %ebx
 658      00
 659 0020 EB2D     		jmp	.L40
 660              	.LVL75:
 661              	.L42:
 295:/home/baikal/workspace/C50/Huawei_IoT_Agent_Tiny_SDK_Linux//agent_tiny/lwm2m_client/object_binary_app_data_container.c ****         {
 662              		.loc 1 295 0
 663 0022 4863C3   		movslq	%ebx, %rax
 664 0025 488D1440 		leaq	(%rax,%rax,2), %rdx
 665 0029 488D04D5 		leaq	0(,%rdx,8), %rax
 665      00000000 
 666 0031 4801E8   		addq	%rbp, %rax
 667 0034 66837804 		cmpw	$0, 4(%rax)
 667      00
 668 0039 7527     		jne	.L45
 299:/home/baikal/workspace/C50/Huawei_IoT_Agent_Tiny_SDK_Linux//agent_tiny/lwm2m_client/object_binary_app_data_container.c ****             break;
 669              		.loc 1 299 0
 670 003b 488B7010 		movq	16(%rax), %rsi
 671 003f 8B5508   		movl	8(%rbp), %edx
 672 0042 BF1A0000 		movl	$26, %edi
 672      00
 673 0047 E8000000 		call	atiny_cmd_ioctl
 673      00
 674              	.LVL76:
 293:/home/baikal/workspace/C50/Huawei_IoT_Agent_Tiny_SDK_Linux//agent_tiny/lwm2m_client/object_binary_app_data_container.c ****     {
 675              		.loc 1 293 0
 676 004c 83C301   		addl	$1, %ebx
 677              	.LVL77:
GAS LISTING /tmp/cc68p2p6.s 			page 27


 678              	.L40:
 293:/home/baikal/workspace/C50/Huawei_IoT_Agent_Tiny_SDK_Linux//agent_tiny/lwm2m_client/object_binary_app_data_container.c ****     {
 679              		.loc 1 293 0 is_stmt 0 discriminator 1
 680 004f 4439E3   		cmpl	%r12d, %ebx
 681 0052 7CCE     		jl	.L42
 307:/home/baikal/workspace/C50/Huawei_IoT_Agent_Tiny_SDK_Linux//agent_tiny/lwm2m_client/object_binary_app_data_container.c **** }
 682              		.loc 1 307 0 is_stmt 1
 683 0054 B8440000 		movl	$68, %eax
 683      00
 684 0059 EB0C     		jmp	.L39
 685              	.LVL78:
 686              	.L43:
 291:/home/baikal/workspace/C50/Huawei_IoT_Agent_Tiny_SDK_Linux//agent_tiny/lwm2m_client/object_binary_app_data_container.c **** 
 687              		.loc 1 291 0
 688 005b B884FFFF 		movl	$-124, %eax
 688      FF
 689              	.LVL79:
 690 0060 EB05     		jmp	.L39
 691              	.LVL80:
 692              	.L45:
 303:/home/baikal/workspace/C50/Huawei_IoT_Agent_Tiny_SDK_Linux//agent_tiny/lwm2m_client/object_binary_app_data_container.c ****         }
 693              		.loc 1 303 0
 694 0062 B884FFFF 		movl	$-124, %eax
 694      FF
 695              	.LVL81:
 696              	.L39:
 308:/home/baikal/workspace/C50/Huawei_IoT_Agent_Tiny_SDK_Linux//agent_tiny/lwm2m_client/object_binary_app_data_container.c **** 
 697              		.loc 1 308 0
 698 0067 5B       		popq	%rbx
 699              	.LCFI46:
 700              		.cfi_def_cfa_offset 24
 701 0068 5D       		popq	%rbp
 702              	.LCFI47:
 703              		.cfi_def_cfa_offset 16
 704              	.LVL82:
 705 0069 415C     		popq	%r12
 706              	.LCFI48:
 707              		.cfi_def_cfa_offset 8
 708              	.LVL83:
 709 006b C3       		ret
 710              		.cfi_endproc
 711              	.LFE78:
 713              		.section	.text.prv_discover,"ax",@progbits
 715              	prv_discover:
 716              	.LFB77:
 250:/home/baikal/workspace/C50/Huawei_IoT_Agent_Tiny_SDK_Linux//agent_tiny/lwm2m_client/object_binary_app_data_container.c ****     int i;
 717              		.loc 1 250 0
 718              		.cfi_startproc
 719              	.LVL84:
 254:/home/baikal/workspace/C50/Huawei_IoT_Agent_Tiny_SDK_Linux//agent_tiny/lwm2m_client/object_binary_app_data_container.c ****     {
 720              		.loc 1 254 0
 721 0000 8B3E     		movl	(%rsi), %edi
 722              	.LVL85:
 723 0002 85FF     		testl	%edi, %edi
 724 0004 756B     		jne	.L52
 250:/home/baikal/workspace/C50/Huawei_IoT_Agent_Tiny_SDK_Linux//agent_tiny/lwm2m_client/object_binary_app_data_container.c ****     int i;
 725              		.loc 1 250 0
GAS LISTING /tmp/cc68p2p6.s 			page 28


 726 0006 55       		pushq	%rbp
 727              	.LCFI49:
 728              		.cfi_def_cfa_offset 16
 729              		.cfi_offset 6, -16
 730 0007 53       		pushq	%rbx
 731              	.LCFI50:
 732              		.cfi_def_cfa_offset 24
 733              		.cfi_offset 3, -24
 734 0008 4883EC08 		subq	$8, %rsp
 735              	.LCFI51:
 736              		.cfi_def_cfa_offset 32
 737 000c 4889D3   		movq	%rdx, %rbx
 738 000f 4889F5   		movq	%rsi, %rbp
 256:/home/baikal/workspace/C50/Huawei_IoT_Agent_Tiny_SDK_Linux//agent_tiny/lwm2m_client/object_binary_app_data_container.c ****         if (*dataArrayP == NULL) return COAP_500_INTERNAL_SERVER_ERROR;
 739              		.loc 1 256 0
 740 0012 BF030000 		movl	$3, %edi
 740      00
 741 0017 E8000000 		call	lwm2m_data_new
 741      00
 742              	.LVL86:
 743 001c 488903   		movq	%rax, (%rbx)
 257:/home/baikal/workspace/C50/Huawei_IoT_Agent_Tiny_SDK_Linux//agent_tiny/lwm2m_client/object_binary_app_data_container.c ****         *numDataP = 3;
 744              		.loc 1 257 0
 745 001f 4885C0   		testq	%rax, %rax
 746 0022 745C     		je	.L53
 258:/home/baikal/workspace/C50/Huawei_IoT_Agent_Tiny_SDK_Linux//agent_tiny/lwm2m_client/object_binary_app_data_container.c ****         (*dataArrayP)[0].id = 1;
 747              		.loc 1 258 0
 748 0024 C7450003 		movl	$3, 0(%rbp)
 748      000000
 259:/home/baikal/workspace/C50/Huawei_IoT_Agent_Tiny_SDK_Linux//agent_tiny/lwm2m_client/object_binary_app_data_container.c ****         (*dataArrayP)[1].id = 2;
 749              		.loc 1 259 0
 750 002b 488B03   		movq	(%rbx), %rax
 751 002e 66C74004 		movw	$1, 4(%rax)
 751      0100
 260:/home/baikal/workspace/C50/Huawei_IoT_Agent_Tiny_SDK_Linux//agent_tiny/lwm2m_client/object_binary_app_data_container.c ****         (*dataArrayP)[2].id = 3;
 752              		.loc 1 260 0
 753 0034 488B03   		movq	(%rbx), %rax
 754 0037 66C7401C 		movw	$2, 28(%rax)
 754      0200
 261:/home/baikal/workspace/C50/Huawei_IoT_Agent_Tiny_SDK_Linux//agent_tiny/lwm2m_client/object_binary_app_data_container.c ****     }
 755              		.loc 1 261 0
 756 003d 488B03   		movq	(%rbx), %rax
 757 0040 66C74034 		movw	$3, 52(%rax)
 757      0300
 279:/home/baikal/workspace/C50/Huawei_IoT_Agent_Tiny_SDK_Linux//agent_tiny/lwm2m_client/object_binary_app_data_container.c **** }
 758              		.loc 1 279 0
 759 0046 B8450000 		movl	$69, %eax
 759      00
 760 004b EB40     		jmp	.L49
 761              	.LVL87:
 762              	.L51:
 763              	.LCFI52:
 764              		.cfi_def_cfa_offset 8
 765              		.cfi_restore 3
 766              		.cfi_restore 6
 267:/home/baikal/workspace/C50/Huawei_IoT_Agent_Tiny_SDK_Linux//agent_tiny/lwm2m_client/object_binary_app_data_container.c ****             {
 767              		.loc 1 267 0
GAS LISTING /tmp/cc68p2p6.s 			page 29


 768 004d 4863C1   		movslq	%ecx, %rax
 769 0050 488D3440 		leaq	(%rax,%rax,2), %rsi
 770 0054 488D04F5 		leaq	0(,%rsi,8), %rax
 770      00000000 
 771 005c 480302   		addq	(%rdx), %rax
 772 005f 0FB74004 		movzwl	4(%rax), %eax
 773 0063 83E801   		subl	$1, %eax
 774 0066 6683F802 		cmpw	$2, %ax
 775 006a 771B     		ja	.L54
 265:/home/baikal/workspace/C50/Huawei_IoT_Agent_Tiny_SDK_Linux//agent_tiny/lwm2m_client/object_binary_app_data_container.c ****         {
 776              		.loc 1 265 0 discriminator 2
 777 006c 83C101   		addl	$1, %ecx
 778              	.LVL88:
 779 006f EB05     		jmp	.L48
 780              	.LVL89:
 781              	.L52:
 782 0071 B9000000 		movl	$0, %ecx
 782      00
 783              	.LVL90:
 784              	.L48:
 265:/home/baikal/workspace/C50/Huawei_IoT_Agent_Tiny_SDK_Linux//agent_tiny/lwm2m_client/object_binary_app_data_container.c ****         {
 785              		.loc 1 265 0 is_stmt 0 discriminator 1
 786 0076 39F9     		cmpl	%edi, %ecx
 787 0078 7CD3     		jl	.L51
 279:/home/baikal/workspace/C50/Huawei_IoT_Agent_Tiny_SDK_Linux//agent_tiny/lwm2m_client/object_binary_app_data_container.c **** }
 788              		.loc 1 279 0 is_stmt 1
 789 007a B8450000 		movl	$69, %eax
 789      00
 790 007f C3       		ret
 791              	.LVL91:
 792              	.L53:
 793              	.LCFI53:
 794              		.cfi_def_cfa_offset 32
 795              		.cfi_offset 3, -24
 796              		.cfi_offset 6, -16
 257:/home/baikal/workspace/C50/Huawei_IoT_Agent_Tiny_SDK_Linux//agent_tiny/lwm2m_client/object_binary_app_data_container.c ****         *numDataP = 3;
 797              		.loc 1 257 0
 798 0080 B8A0FFFF 		movl	$-96, %eax
 798      FF
 799 0085 EB06     		jmp	.L49
 800              	.LVL92:
 801              	.L54:
 802              	.LCFI54:
 803              		.cfi_def_cfa_offset 8
 804              		.cfi_restore 3
 805              		.cfi_restore 6
 274:/home/baikal/workspace/C50/Huawei_IoT_Agent_Tiny_SDK_Linux//agent_tiny/lwm2m_client/object_binary_app_data_container.c ****             }
 806              		.loc 1 274 0
 807 0087 B884FFFF 		movl	$-124, %eax
 807      FF
 808 008c C3       		ret
 809              	.LVL93:
 810              	.L49:
 811              	.LCFI55:
 812              		.cfi_def_cfa_offset 32
 813              		.cfi_offset 3, -24
 814              		.cfi_offset 6, -16
GAS LISTING /tmp/cc68p2p6.s 			page 30


 280:/home/baikal/workspace/C50/Huawei_IoT_Agent_Tiny_SDK_Linux//agent_tiny/lwm2m_client/object_binary_app_data_container.c **** 
 815              		.loc 1 280 0
 816 008d 4883C408 		addq	$8, %rsp
 817              	.LCFI56:
 818              		.cfi_def_cfa_offset 24
 819 0091 5B       		popq	%rbx
 820              	.LCFI57:
 821              		.cfi_restore 3
 822              		.cfi_def_cfa_offset 16
 823              	.LVL94:
 824 0092 5D       		popq	%rbp
 825              	.LCFI58:
 826              		.cfi_restore 6
 827              		.cfi_def_cfa_offset 8
 828              	.LVL95:
 829 0093 C3       		ret
 830              		.cfi_endproc
 831              	.LFE77:
 833              		.section	.rodata.str1.1
 834              	.LC8:
 835 002a 5B25735D 		.string	"[%s][%u][%s:%d] malloc null\r\n"
 835      5B25755D 
 835      5B25733A 
 835      25645D20 
 835      6D616C6C 
 836              		.section	.rodata.str1.8
 837 0084 00000000 		.align 8
 838              	.LC9:
 839 0088 5B25735D 		.string	"[%s][%u][%s:%d] atiny_dequeue_rpt_data fail,ret=%d\r\n"
 839      5B25755D 
 839      5B25733A 
 839      25645D20 
 839      6174696E 
 840 00bd 000000   		.align 8
 841              	.LC10:
 842 00c0 5B25735D 		.string	"[%s][%u][%s:%d] atiny_dequeue_rpt_data sucessfully\r\n"
 842      5B25755D 
 842      5B25733A 
 842      25645D20 
 842      6174696E 
 843              		.section	.text.prv_read_data,"ax",@progbits
 845              	prv_read_data:
 846              	.LFB74:
 121:/home/baikal/workspace/C50/Huawei_IoT_Agent_Tiny_SDK_Linux//agent_tiny/lwm2m_client/object_binary_app_data_container.c ****     int i;
 847              		.loc 1 121 0
 848              		.cfi_startproc
 849              	.LVL96:
 850 0000 4157     		pushq	%r15
 851              	.LCFI59:
 852              		.cfi_def_cfa_offset 16
 853              		.cfi_offset 15, -16
 854 0002 4156     		pushq	%r14
 855              	.LCFI60:
 856              		.cfi_def_cfa_offset 24
 857              		.cfi_offset 14, -24
 858 0004 4155     		pushq	%r13
 859              	.LCFI61:
GAS LISTING /tmp/cc68p2p6.s 			page 31


 860              		.cfi_def_cfa_offset 32
 861              		.cfi_offset 13, -32
 862 0006 4154     		pushq	%r12
 863              	.LCFI62:
 864              		.cfi_def_cfa_offset 40
 865              		.cfi_offset 12, -40
 866 0008 55       		pushq	%rbp
 867              	.LCFI63:
 868              		.cfi_def_cfa_offset 48
 869              		.cfi_offset 6, -48
 870 0009 53       		pushq	%rbx
 871              	.LCFI64:
 872              		.cfi_def_cfa_offset 56
 873              		.cfi_offset 3, -56
 874 000a 4883EC38 		subq	$56, %rsp
 875              	.LCFI65:
 876              		.cfi_def_cfa_offset 112
 877 000e 4989FF   		movq	%rdi, %r15
 878 0011 4189F6   		movl	%esi, %r14d
 879 0014 48895424 		movq	%rdx, 8(%rsp)
 879      08
 880 0019 4989CC   		movq	%rcx, %r12
 881              	.LVL97:
 126:/home/baikal/workspace/C50/Huawei_IoT_Agent_Tiny_SDK_Linux//agent_tiny/lwm2m_client/object_binary_app_data_container.c ****     {
 882              		.loc 1 126 0
 883 001c BD000000 		movl	$0, %ebp
 883      00
 884 0021 E9740100 		jmp	.L58
 884      00
 885              	.LVL98:
 886              	.L66:
 128:/home/baikal/workspace/C50/Huawei_IoT_Agent_Tiny_SDK_Linux//agent_tiny/lwm2m_client/object_binary_app_data_container.c ****         {
 887              		.loc 1 128 0
 888 0026 4863C5   		movslq	%ebp, %rax
 889 0029 488D0440 		leaq	(%rax,%rax,2), %rax
 890 002d 488D1CC5 		leaq	0(,%rax,8), %rbx
 890      00000000 
 891 0035 48035C24 		addq	8(%rsp), %rbx
 891      08
 892 003a 66837B04 		cmpw	$0, 4(%rbx)
 892      00
 893 003f 0F856501 		jne	.L70
 893      0000
 132:/home/baikal/workspace/C50/Huawei_IoT_Agent_Tiny_SDK_Linux//agent_tiny/lwm2m_client/object_binary_app_data_container.c ****             {
 894              		.loc 1 132 0
 895 0045 4D85E4   		testq	%r12, %r12
 896 0048 7578     		jne	.L61
 897              	.LBB70:
 134:/home/baikal/workspace/C50/Huawei_IoT_Agent_Tiny_SDK_Linux//agent_tiny/lwm2m_client/object_binary_app_data_container.c ****                 if(NULL == buf)
 898              		.loc 1 134 0
 899 004a BF010000 		movl	$1, %edi
 899      00
 900 004f E8000000 		call	lwm2m_malloc
 900      00
 901              	.LVL99:
 135:/home/baikal/workspace/C50/Huawei_IoT_Agent_Tiny_SDK_Linux//agent_tiny/lwm2m_client/object_binary_app_data_container.c ****                 {
 902              		.loc 1 135 0
GAS LISTING /tmp/cc68p2p6.s 			page 32


 903 0054 4885C0   		testq	%rax, %rax
 904 0057 7549     		jne	.L62
 137:/home/baikal/workspace/C50/Huawei_IoT_Agent_Tiny_SDK_Linux//agent_tiny/lwm2m_client/object_binary_app_data_container.c ****                     return COAP_404_NOT_FOUND;
 905              		.loc 1 137 0
 906 0059 E8000000 		call	atiny_get_log_level
 906      00
 907              	.LVL100:
 908 005e 83F803   		cmpl	$3, %eax
 909 0061 0F874A01 		ja	.L68
 909      0000
 137:/home/baikal/workspace/C50/Huawei_IoT_Agent_Tiny_SDK_Linux//agent_tiny/lwm2m_client/object_binary_app_data_container.c ****                     return COAP_404_NOT_FOUND;
 910              		.loc 1 137 0 is_stmt 0 discriminator 1
 911 0067 E8000000 		call	atiny_gettime_ms
 911      00
 912              	.LVL101:
 913 006c 4889C3   		movq	%rax, %rbx
 914 006f BF030000 		movl	$3, %edi
 914      00
 915 0074 E8000000 		call	atiny_get_log_level_name
 915      00
 916              	.LVL102:
 917 0079 41B88900 		movl	$137, %r8d
 917      0000
 918 007f B9000000 		movl	$__FUNCTION__.5273, %ecx
 918      00
 919 0084 89DA     		movl	%ebx, %edx
 920 0086 4889C6   		movq	%rax, %rsi
 921 0089 BF000000 		movl	$.LC8, %edi
 921      00
 922 008e B8000000 		movl	$0, %eax
 922      00
 923 0093 E8000000 		call	atiny_printf
 923      00
 924              	.LVL103:
 138:/home/baikal/workspace/C50/Huawei_IoT_Agent_Tiny_SDK_Linux//agent_tiny/lwm2m_client/object_binary_app_data_container.c ****                 }
 925              		.loc 1 138 0 is_stmt 1 discriminator 1
 926 0098 B884FFFF 		movl	$-124, %eax
 926      FF
 927 009d E91B0100 		jmp	.L59
 927      00
 928              	.LVL104:
 929              	.L62:
 140:/home/baikal/workspace/C50/Huawei_IoT_Agent_Tiny_SDK_Linux//agent_tiny/lwm2m_client/object_binary_app_data_container.c ****                 dataArrayP[i].id = 0;
 930              		.loc 1 140 0
 931 00a2 C60000   		movb	$0, (%rax)
 141:/home/baikal/workspace/C50/Huawei_IoT_Agent_Tiny_SDK_Linux//agent_tiny/lwm2m_client/object_binary_app_data_container.c ****                 dataArrayP[i].type = LWM2M_TYPE_OPAQUE;
 932              		.loc 1 141 0
 933 00a5 66C74304 		movw	$0, 4(%rbx)
 933      0000
 142:/home/baikal/workspace/C50/Huawei_IoT_Agent_Tiny_SDK_Linux//agent_tiny/lwm2m_client/object_binary_app_data_container.c ****                 dataArrayP[i].value.asBuffer.buffer = buf;
 934              		.loc 1 142 0
 935 00ab C7030500 		movl	$5, (%rbx)
 935      0000
 143:/home/baikal/workspace/C50/Huawei_IoT_Agent_Tiny_SDK_Linux//agent_tiny/lwm2m_client/object_binary_app_data_container.c ****                 dataArrayP[i].value.asBuffer.length = 1;
 936              		.loc 1 143 0
 937 00b1 48894310 		movq	%rax, 16(%rbx)
 144:/home/baikal/workspace/C50/Huawei_IoT_Agent_Tiny_SDK_Linux//agent_tiny/lwm2m_client/object_binary_app_data_container.c ****             }
GAS LISTING /tmp/cc68p2p6.s 			page 33


 938              		.loc 1 144 0
 939 00b5 48C74308 		movq	$1, 8(%rbx)
 939      01000000 
 940              	.LBE70:
 941 00bd E9D50000 		jmp	.L63
 941      00
 942              	.LVL105:
 943              	.L61:
 148:/home/baikal/workspace/C50/Huawei_IoT_Agent_Tiny_SDK_Linux//agent_tiny/lwm2m_client/object_binary_app_data_container.c ****                 if (ret != ATINY_OK)
 944              		.loc 1 148 0
 945 00c2 498B7F10 		movq	16(%r15), %rdi
 946 00c6 488D7424 		leaq	16(%rsp), %rsi
 946      10
 947 00cb E8000000 		call	atiny_dequeue_rpt_data
 947      00
 948              	.LVL106:
 949 00d0 4189C5   		movl	%eax, %r13d
 950              	.LVL107:
 149:/home/baikal/workspace/C50/Huawei_IoT_Agent_Tiny_SDK_Linux//agent_tiny/lwm2m_client/object_binary_app_data_container.c ****                 {
 951              		.loc 1 149 0
 952 00d3 85C0     		testl	%eax, %eax
 953 00d5 744C     		je	.L64
 151:/home/baikal/workspace/C50/Huawei_IoT_Agent_Tiny_SDK_Linux//agent_tiny/lwm2m_client/object_binary_app_data_container.c ****                     return COAP_404_NOT_FOUND;
 954              		.loc 1 151 0
 955 00d7 E8000000 		call	atiny_get_log_level
 955      00
 956              	.LVL108:
 957 00dc 83F801   		cmpl	$1, %eax
 958 00df 0F87D300 		ja	.L69
 958      0000
 151:/home/baikal/workspace/C50/Huawei_IoT_Agent_Tiny_SDK_Linux//agent_tiny/lwm2m_client/object_binary_app_data_container.c ****                     return COAP_404_NOT_FOUND;
 959              		.loc 1 151 0 is_stmt 0 discriminator 1
 960 00e5 E8000000 		call	atiny_gettime_ms
 960      00
 961              	.LVL109:
 962 00ea 4889C3   		movq	%rax, %rbx
 963 00ed BF010000 		movl	$1, %edi
 963      00
 964 00f2 E8000000 		call	atiny_get_log_level_name
 964      00
 965              	.LVL110:
 966 00f7 4589E9   		movl	%r13d, %r9d
 967 00fa 41B89700 		movl	$151, %r8d
 967      0000
 968 0100 B9000000 		movl	$__FUNCTION__.5273, %ecx
 968      00
 969 0105 89DA     		movl	%ebx, %edx
 970 0107 4889C6   		movq	%rax, %rsi
 971 010a BF000000 		movl	$.LC9, %edi
 971      00
 972 010f B8000000 		movl	$0, %eax
 972      00
 973 0114 E8000000 		call	atiny_printf
 973      00
 974              	.LVL111:
 152:/home/baikal/workspace/C50/Huawei_IoT_Agent_Tiny_SDK_Linux//agent_tiny/lwm2m_client/object_binary_app_data_container.c ****                 }
 975              		.loc 1 152 0 is_stmt 1 discriminator 1
GAS LISTING /tmp/cc68p2p6.s 			page 34


 976 0119 B884FFFF 		movl	$-124, %eax
 976      FF
 977 011e E99A0000 		jmp	.L59
 977      00
 978              	.LVL112:
 979              	.L64:
 156:/home/baikal/workspace/C50/Huawei_IoT_Agent_Tiny_SDK_Linux//agent_tiny/lwm2m_client/object_binary_app_data_container.c ****                 }
 980              		.loc 1 156 0
 981 0123 E8000000 		call	atiny_get_log_level
 981      00
 982              	.LVL113:
 983 0128 85C0     		testl	%eax, %eax
 984 012a 7532     		jne	.L65
 156:/home/baikal/workspace/C50/Huawei_IoT_Agent_Tiny_SDK_Linux//agent_tiny/lwm2m_client/object_binary_app_data_container.c ****                 }
 985              		.loc 1 156 0 is_stmt 0 discriminator 1
 986 012c E8000000 		call	atiny_gettime_ms
 986      00
 987              	.LVL114:
 988 0131 4989C5   		movq	%rax, %r13
 989              	.LVL115:
 990 0134 BF000000 		movl	$0, %edi
 990      00
 991 0139 E8000000 		call	atiny_get_log_level_name
 991      00
 992              	.LVL116:
 993 013e 41B89C00 		movl	$156, %r8d
 993      0000
 994 0144 B9000000 		movl	$__FUNCTION__.5273, %ecx
 994      00
 995 0149 4489EA   		movl	%r13d, %edx
 996 014c 4889C6   		movq	%rax, %rsi
 997 014f BF000000 		movl	$.LC10, %edi
 997      00
 998 0154 B8000000 		movl	$0, %eax
 998      00
 999 0159 E8000000 		call	atiny_printf
 999      00
 1000              	.LVL117:
 1001              	.L65:
 159:/home/baikal/workspace/C50/Huawei_IoT_Agent_Tiny_SDK_Linux//agent_tiny/lwm2m_client/object_binary_app_data_container.c ****                 dataArrayP[i].type = LWM2M_TYPE_OPAQUE;
 1002              		.loc 1 159 0 is_stmt 1
 1003 015e 66C74304 		movw	$0, 4(%rbx)
 1003      0000
 160:/home/baikal/workspace/C50/Huawei_IoT_Agent_Tiny_SDK_Linux//agent_tiny/lwm2m_client/object_binary_app_data_container.c ****                 dataArrayP[i].value.asBuffer.buffer = data.buf;
 1004              		.loc 1 160 0
 1005 0164 C7030500 		movl	$5, (%rbx)
 1005      0000
 161:/home/baikal/workspace/C50/Huawei_IoT_Agent_Tiny_SDK_Linux//agent_tiny/lwm2m_client/object_binary_app_data_container.c ****                 dataArrayP[i].value.asBuffer.length = data.len;
 1006              		.loc 1 161 0
 1007 016a 488B4424 		movq	32(%rsp), %rax
 1007      20
 1008 016f 48894310 		movq	%rax, 16(%rbx)
 162:/home/baikal/workspace/C50/Huawei_IoT_Agent_Tiny_SDK_Linux//agent_tiny/lwm2m_client/object_binary_app_data_container.c ****                 dataCfg->type = data.type;
 1009              		.loc 1 162 0
 1010 0173 48634424 		movslq	24(%rsp), %rax
 1010      18
 1011 0178 48894308 		movq	%rax, 8(%rbx)
GAS LISTING /tmp/cc68p2p6.s 			page 35


 163:/home/baikal/workspace/C50/Huawei_IoT_Agent_Tiny_SDK_Linux//agent_tiny/lwm2m_client/object_binary_app_data_container.c ****                 dataCfg->cookie = data.cookie;
 1012              		.loc 1 163 0
 1013 017c 8B442410 		movl	16(%rsp), %eax
 1014 0180 41890424 		movl	%eax, (%r12)
 164:/home/baikal/workspace/C50/Huawei_IoT_Agent_Tiny_SDK_Linux//agent_tiny/lwm2m_client/object_binary_app_data_container.c ****                 dataCfg->callback = (lwm2m_data_process)data.callback;
 1015              		.loc 1 164 0
 1016 0184 8B442414 		movl	20(%rsp), %eax
 1017 0188 41894424 		movl	%eax, 4(%r12)
 1017      04
 165:/home/baikal/workspace/C50/Huawei_IoT_Agent_Tiny_SDK_Linux//agent_tiny/lwm2m_client/object_binary_app_data_container.c ****             }
 1018              		.loc 1 165 0
 1019 018d 488B4424 		movq	40(%rsp), %rax
 1019      28
 1020 0192 49894424 		movq	%rax, 8(%r12)
 1020      08
 1021              	.L63:
 126:/home/baikal/workspace/C50/Huawei_IoT_Agent_Tiny_SDK_Linux//agent_tiny/lwm2m_client/object_binary_app_data_container.c ****     {
 1022              		.loc 1 126 0 discriminator 2
 1023 0197 83C501   		addl	$1, %ebp
 1024              	.LVL118:
 1025              	.L58:
 126:/home/baikal/workspace/C50/Huawei_IoT_Agent_Tiny_SDK_Linux//agent_tiny/lwm2m_client/object_binary_app_data_container.c ****     {
 1026              		.loc 1 126 0 is_stmt 0 discriminator 1
 1027 019a 4439F5   		cmpl	%r14d, %ebp
 1028 019d 0F8C83FE 		jl	.L66
 1028      FFFF
 173:/home/baikal/workspace/C50/Huawei_IoT_Agent_Tiny_SDK_Linux//agent_tiny/lwm2m_client/object_binary_app_data_container.c **** }
 1029              		.loc 1 173 0 is_stmt 1
 1030 01a3 B8450000 		movl	$69, %eax
 1030      00
 1031 01a8 EB13     		jmp	.L59
 1032              	.L70:
 169:/home/baikal/workspace/C50/Huawei_IoT_Agent_Tiny_SDK_Linux//agent_tiny/lwm2m_client/object_binary_app_data_container.c ****         }
 1033              		.loc 1 169 0
 1034 01aa B884FFFF 		movl	$-124, %eax
 1034      FF
 1035 01af EB0C     		jmp	.L59
 1036              	.L68:
 1037              	.LBB71:
 138:/home/baikal/workspace/C50/Huawei_IoT_Agent_Tiny_SDK_Linux//agent_tiny/lwm2m_client/object_binary_app_data_container.c ****                 }
 1038              		.loc 1 138 0
 1039 01b1 B884FFFF 		movl	$-124, %eax
 1039      FF
 1040 01b6 EB05     		jmp	.L59
 1041              	.LVL119:
 1042              	.L69:
 1043              	.LBE71:
 152:/home/baikal/workspace/C50/Huawei_IoT_Agent_Tiny_SDK_Linux//agent_tiny/lwm2m_client/object_binary_app_data_container.c ****                 }
 1044              		.loc 1 152 0
 1045 01b8 B884FFFF 		movl	$-124, %eax
 1045      FF
 1046              	.LVL120:
 1047              	.L59:
 174:/home/baikal/workspace/C50/Huawei_IoT_Agent_Tiny_SDK_Linux//agent_tiny/lwm2m_client/object_binary_app_data_container.c **** 
 1048              		.loc 1 174 0
 1049 01bd 4883C438 		addq	$56, %rsp
 1050              	.LCFI66:
GAS LISTING /tmp/cc68p2p6.s 			page 36


 1051              		.cfi_def_cfa_offset 56
 1052 01c1 5B       		popq	%rbx
 1053              	.LCFI67:
 1054              		.cfi_def_cfa_offset 48
 1055 01c2 5D       		popq	%rbp
 1056              	.LCFI68:
 1057              		.cfi_def_cfa_offset 40
 1058              	.LVL121:
 1059 01c3 415C     		popq	%r12
 1060              	.LCFI69:
 1061              		.cfi_def_cfa_offset 32
 1062              	.LVL122:
 1063 01c5 415D     		popq	%r13
 1064              	.LCFI70:
 1065              		.cfi_def_cfa_offset 24
 1066 01c7 415E     		popq	%r14
 1067              	.LCFI71:
 1068              		.cfi_def_cfa_offset 16
 1069              	.LVL123:
 1070 01c9 415F     		popq	%r15
 1071              	.LCFI72:
 1072              		.cfi_def_cfa_offset 8
 1073              	.LVL124:
 1074 01cb C3       		ret
 1075              		.cfi_endproc
 1076              	.LFE74:
 1078              		.section	.rodata.str1.8
 1079 00f5 000000   		.align 8
 1080              	.LC11:
 1081 00f8 5B25735D 		.string	"[%s][%u][%s:%d] plat inst not found %d\r\n"
 1081      5B25755D 
 1081      5B25733A 
 1081      25645D20 
 1081      706C6174 
 1082 0121 00000000 		.align 8
 1082      000000
 1083              	.LC12:
 1084 0128 5B25735D 		.string	"[%s][%u][%s:%d] lwm2m_data_new null\r\n"
 1084      5B25755D 
 1084      5B25733A 
 1084      25645D20 
 1084      6C776D32 
 1085              		.section	.text.prv_read,"ax",@progbits
 1087              	prv_read:
 1088              	.LFB76:
 204:/home/baikal/workspace/C50/Huawei_IoT_Agent_Tiny_SDK_Linux//agent_tiny/lwm2m_client/object_binary_app_data_container.c ****     plat_instance_t *targetP;
 1089              		.loc 1 204 0
 1090              		.cfi_startproc
 1091              	.LVL125:
 1092 0000 4157     		pushq	%r15
 1093              	.LCFI73:
 1094              		.cfi_def_cfa_offset 16
 1095              		.cfi_offset 15, -16
 1096 0002 4156     		pushq	%r14
 1097              	.LCFI74:
 1098              		.cfi_def_cfa_offset 24
 1099              		.cfi_offset 14, -24
GAS LISTING /tmp/cc68p2p6.s 			page 37


 1100 0004 4155     		pushq	%r13
 1101              	.LCFI75:
 1102              		.cfi_def_cfa_offset 32
 1103              		.cfi_offset 13, -32
 1104 0006 4154     		pushq	%r12
 1105              	.LCFI76:
 1106              		.cfi_def_cfa_offset 40
 1107              		.cfi_offset 12, -40
 1108 0008 55       		pushq	%rbp
 1109              	.LCFI77:
 1110              		.cfi_def_cfa_offset 48
 1111              		.cfi_offset 6, -48
 1112 0009 53       		pushq	%rbx
 1113              	.LCFI78:
 1114              		.cfi_def_cfa_offset 56
 1115              		.cfi_offset 3, -56
 1116 000a 4883EC08 		subq	$8, %rsp
 1117              	.LCFI79:
 1118              		.cfi_def_cfa_offset 64
 1119 000e 4889F5   		movq	%rsi, %rbp
 1120 0011 4989D4   		movq	%rdx, %r12
 1121 0014 4989CD   		movq	%rcx, %r13
 1122              	.LVL126:
 210:/home/baikal/workspace/C50/Huawei_IoT_Agent_Tiny_SDK_Linux//agent_tiny/lwm2m_client/object_binary_app_data_container.c ****     if (NULL == targetP)
 1123              		.loc 1 210 0
 1124 0017 0FB7DF   		movzwl	%di, %ebx
 1125 001a 498B7810 		movq	16(%r8), %rdi
 1126              	.LVL127:
 1127 001e 89DE     		movl	%ebx, %esi
 1128              	.LVL128:
 1129 0020 E8000000 		call	lwm2m_list_find
 1129      00
 1130              	.LVL129:
 211:/home/baikal/workspace/C50/Huawei_IoT_Agent_Tiny_SDK_Linux//agent_tiny/lwm2m_client/object_binary_app_data_container.c ****     {
 1131              		.loc 1 211 0
 1132 0025 4885C0   		testq	%rax, %rax
 1133 0028 754C     		jne	.L73
 213:/home/baikal/workspace/C50/Huawei_IoT_Agent_Tiny_SDK_Linux//agent_tiny/lwm2m_client/object_binary_app_data_container.c ****         return COAP_404_NOT_FOUND;
 1134              		.loc 1 213 0
 1135 002a E8000000 		call	atiny_get_log_level
 1135      00
 1136              	.LVL130:
 1137 002f 83F803   		cmpl	$3, %eax
 1138 0032 0F87FD00 		ja	.L77
 1138      0000
 213:/home/baikal/workspace/C50/Huawei_IoT_Agent_Tiny_SDK_Linux//agent_tiny/lwm2m_client/object_binary_app_data_container.c ****         return COAP_404_NOT_FOUND;
 1139              		.loc 1 213 0 is_stmt 0 discriminator 1
 1140 0038 E8000000 		call	atiny_gettime_ms
 1140      00
 1141              	.LVL131:
 1142 003d 4889C5   		movq	%rax, %rbp
 1143              	.LVL132:
 1144 0040 BF030000 		movl	$3, %edi
 1144      00
 1145 0045 E8000000 		call	atiny_get_log_level_name
 1145      00
 1146              	.LVL133:
GAS LISTING /tmp/cc68p2p6.s 			page 38


 1147 004a 4189D9   		movl	%ebx, %r9d
 1148 004d 41B8D500 		movl	$213, %r8d
 1148      0000
 1149 0053 B9000000 		movl	$__FUNCTION__.5300, %ecx
 1149      00
 1150 0058 89EA     		movl	%ebp, %edx
 1151 005a 4889C6   		movq	%rax, %rsi
 1152 005d BF000000 		movl	$.LC11, %edi
 1152      00
 1153 0062 B8000000 		movl	$0, %eax
 1153      00
 1154 0067 E8000000 		call	atiny_printf
 1154      00
 1155              	.LVL134:
 214:/home/baikal/workspace/C50/Huawei_IoT_Agent_Tiny_SDK_Linux//agent_tiny/lwm2m_client/object_binary_app_data_container.c ****     }
 1156              		.loc 1 214 0 is_stmt 1 discriminator 1
 1157 006c B884FFFF 		movl	$-124, %eax
 1157      FF
 1158 0071 E9D10000 		jmp	.L74
 1158      00
 1159              	.LVL135:
 1160              	.L73:
 1161 0076 4989C6   		movq	%rax, %r14
 217:/home/baikal/workspace/C50/Huawei_IoT_Agent_Tiny_SDK_Linux//agent_tiny/lwm2m_client/object_binary_app_data_container.c ****     {
 1162              		.loc 1 217 0
 1163 0079 837D0000 		cmpl	$0, 0(%rbp)
 1164 007d 7572     		jne	.L78
 219:/home/baikal/workspace/C50/Huawei_IoT_Agent_Tiny_SDK_Linux//agent_tiny/lwm2m_client/object_binary_app_data_container.c ****         if (*dataArrayP == NULL)
 1165              		.loc 1 219 0
 1166 007f BF010000 		movl	$1, %edi
 1166      00
 1167 0084 E8000000 		call	lwm2m_data_new
 1167      00
 1168              	.LVL136:
 1169 0089 49890424 		movq	%rax, (%r12)
 220:/home/baikal/workspace/C50/Huawei_IoT_Agent_Tiny_SDK_Linux//agent_tiny/lwm2m_client/object_binary_app_data_container.c ****         {
 1170              		.loc 1 220 0
 1171 008d 4885C0   		testq	%rax, %rax
 1172 0090 7546     		jne	.L76
 222:/home/baikal/workspace/C50/Huawei_IoT_Agent_Tiny_SDK_Linux//agent_tiny/lwm2m_client/object_binary_app_data_container.c ****             return COAP_500_INTERNAL_SERVER_ERROR;
 1173              		.loc 1 222 0
 1174 0092 E8000000 		call	atiny_get_log_level
 1174      00
 1175              	.LVL137:
 1176 0097 83F803   		cmpl	$3, %eax
 1177 009a 0F879C00 		ja	.L79
 1177      0000
 222:/home/baikal/workspace/C50/Huawei_IoT_Agent_Tiny_SDK_Linux//agent_tiny/lwm2m_client/object_binary_app_data_container.c ****             return COAP_500_INTERNAL_SERVER_ERROR;
 1178              		.loc 1 222 0 is_stmt 0 discriminator 1
 1179 00a0 E8000000 		call	atiny_gettime_ms
 1179      00
 1180              	.LVL138:
 1181 00a5 4889C3   		movq	%rax, %rbx
 1182              	.LVL139:
 1183 00a8 BF030000 		movl	$3, %edi
 1183      00
 1184 00ad E8000000 		call	atiny_get_log_level_name
GAS LISTING /tmp/cc68p2p6.s 			page 39


 1184      00
 1185              	.LVL140:
 1186 00b2 41B8DE00 		movl	$222, %r8d
 1186      0000
 1187 00b8 B9000000 		movl	$__FUNCTION__.5300, %ecx
 1187      00
 1188 00bd 89DA     		movl	%ebx, %edx
 1189 00bf 4889C6   		movq	%rax, %rsi
 1190 00c2 BF000000 		movl	$.LC12, %edi
 1190      00
 1191 00c7 B8000000 		movl	$0, %eax
 1191      00
 1192 00cc E8000000 		call	atiny_printf
 1192      00
 1193              	.LVL141:
 223:/home/baikal/workspace/C50/Huawei_IoT_Agent_Tiny_SDK_Linux//agent_tiny/lwm2m_client/object_binary_app_data_container.c ****         }
 1194              		.loc 1 223 0 is_stmt 1 discriminator 1
 1195 00d1 B8A0FFFF 		movl	$-96, %eax
 1195      FF
 1196 00d6 EB6F     		jmp	.L74
 1197              	.L76:
 226:/home/baikal/workspace/C50/Huawei_IoT_Agent_Tiny_SDK_Linux//agent_tiny/lwm2m_client/object_binary_app_data_container.c ****         (*dataArrayP)[0].id = 0;
 1198              		.loc 1 226 0
 1199 00d8 C7450001 		movl	$1, 0(%rbp)
 1199      000000
 227:/home/baikal/workspace/C50/Huawei_IoT_Agent_Tiny_SDK_Linux//agent_tiny/lwm2m_client/object_binary_app_data_container.c ****         new_data_flag = true;
 1200              		.loc 1 227 0
 1201 00df 498B0424 		movq	(%r12), %rax
 1202 00e3 66C74004 		movw	$0, 4(%rax)
 1202      0000
 1203              	.LVL142:
 228:/home/baikal/workspace/C50/Huawei_IoT_Agent_Tiny_SDK_Linux//agent_tiny/lwm2m_client/object_binary_app_data_container.c ****     }
 1204              		.loc 1 228 0
 1205 00e9 41BF0100 		movl	$1, %r15d
 1205      0000
 1206 00ef EB06     		jmp	.L75
 1207              	.LVL143:
 1208              	.L78:
 207:/home/baikal/workspace/C50/Huawei_IoT_Agent_Tiny_SDK_Linux//agent_tiny/lwm2m_client/object_binary_app_data_container.c **** 
 1209              		.loc 1 207 0
 1210 00f1 41BF0000 		movl	$0, %r15d
 1210      0000
 1211              	.LVL144:
 1212              	.L75:
 231:/home/baikal/workspace/C50/Huawei_IoT_Agent_Tiny_SDK_Linux//agent_tiny/lwm2m_client/object_binary_app_data_container.c ****     if(ret != COAP_205_CONTENT)
 1213              		.loc 1 231 0
 1214 00f7 498B1424 		movq	(%r12), %rdx
 1215 00fb 8B7500   		movl	0(%rbp), %esi
 1216 00fe 4C89E9   		movq	%r13, %rcx
 1217 0101 4C89F7   		movq	%r14, %rdi
 1218 0104 E8000000 		call	prv_read_data
 1218      00
 1219              	.LVL145:
 1220 0109 89C3     		movl	%eax, %ebx
 1221              	.LVL146:
 232:/home/baikal/workspace/C50/Huawei_IoT_Agent_Tiny_SDK_Linux//agent_tiny/lwm2m_client/object_binary_app_data_container.c ****     {
 1222              		.loc 1 232 0
GAS LISTING /tmp/cc68p2p6.s 			page 40


 1223 010b 3C45     		cmpb	$69, %al
 1224 010d 7434     		je	.L80
 235:/home/baikal/workspace/C50/Huawei_IoT_Agent_Tiny_SDK_Linux//agent_tiny/lwm2m_client/object_binary_app_data_container.c ****         if(new_data_flag)
 1225              		.loc 1 235 0
 1226 010f 498B3424 		movq	(%r12), %rsi
 1227 0113 8B7D00   		movl	0(%rbp), %edi
 1228 0116 E8000000 		call	prv_destroy_data_buf
 1228      00
 1229              	.LVL147:
 236:/home/baikal/workspace/C50/Huawei_IoT_Agent_Tiny_SDK_Linux//agent_tiny/lwm2m_client/object_binary_app_data_container.c ****         {
 1230              		.loc 1 236 0
 1231 011b 4585FF   		testl	%r15d, %r15d
 1232 011e 7425     		je	.L81
 238:/home/baikal/workspace/C50/Huawei_IoT_Agent_Tiny_SDK_Linux//agent_tiny/lwm2m_client/object_binary_app_data_container.c ****             *dataArrayP = NULL;
 1233              		.loc 1 238 0
 1234 0120 498B3C24 		movq	(%r12), %rdi
 1235 0124 E8000000 		call	lwm2m_free
 1235      00
 1236              	.LVL148:
 239:/home/baikal/workspace/C50/Huawei_IoT_Agent_Tiny_SDK_Linux//agent_tiny/lwm2m_client/object_binary_app_data_container.c ****         }
 1237              		.loc 1 239 0
 1238 0129 49C70424 		movq	$0, (%r12)
 1238      00000000 
 243:/home/baikal/workspace/C50/Huawei_IoT_Agent_Tiny_SDK_Linux//agent_tiny/lwm2m_client/object_binary_app_data_container.c **** }
 1239              		.loc 1 243 0
 1240 0131 89D8     		movl	%ebx, %eax
 1241 0133 EB12     		jmp	.L74
 1242              	.LVL149:
 1243              	.L77:
 214:/home/baikal/workspace/C50/Huawei_IoT_Agent_Tiny_SDK_Linux//agent_tiny/lwm2m_client/object_binary_app_data_container.c ****     }
 1244              		.loc 1 214 0
 1245 0135 B884FFFF 		movl	$-124, %eax
 1245      FF
 1246 013a EB0B     		jmp	.L74
 1247              	.LVL150:
 1248              	.L79:
 223:/home/baikal/workspace/C50/Huawei_IoT_Agent_Tiny_SDK_Linux//agent_tiny/lwm2m_client/object_binary_app_data_container.c ****         }
 1249              		.loc 1 223 0
 1250 013c B8A0FFFF 		movl	$-96, %eax
 1250      FF
 1251 0141 EB04     		jmp	.L74
 1252              	.LVL151:
 1253              	.L80:
 1254 0143 EB02     		jmp	.L74
 1255              	.LVL152:
 1256              	.L81:
 243:/home/baikal/workspace/C50/Huawei_IoT_Agent_Tiny_SDK_Linux//agent_tiny/lwm2m_client/object_binary_app_data_container.c **** }
 1257              		.loc 1 243 0
 1258 0145 89D8     		movl	%ebx, %eax
 1259              	.LVL153:
 1260              	.L74:
 244:/home/baikal/workspace/C50/Huawei_IoT_Agent_Tiny_SDK_Linux//agent_tiny/lwm2m_client/object_binary_app_data_container.c **** 
 1261              		.loc 1 244 0
 1262 0147 4883C408 		addq	$8, %rsp
 1263              	.LCFI80:
 1264              		.cfi_def_cfa_offset 56
 1265 014b 5B       		popq	%rbx
GAS LISTING /tmp/cc68p2p6.s 			page 41


 1266              	.LCFI81:
 1267              		.cfi_def_cfa_offset 48
 1268 014c 5D       		popq	%rbp
 1269              	.LCFI82:
 1270              		.cfi_def_cfa_offset 40
 1271 014d 415C     		popq	%r12
 1272              	.LCFI83:
 1273              		.cfi_def_cfa_offset 32
 1274              	.LVL154:
 1275 014f 415D     		popq	%r13
 1276              	.LCFI84:
 1277              		.cfi_def_cfa_offset 24
 1278              	.LVL155:
 1279 0151 415E     		popq	%r14
 1280              	.LCFI85:
 1281              		.cfi_def_cfa_offset 16
 1282 0153 415F     		popq	%r15
 1283              	.LCFI86:
 1284              		.cfi_def_cfa_offset 8
 1285 0155 C3       		ret
 1286              		.cfi_endproc
 1287              	.LFE76:
 1289              		.section	.rodata.str1.8
 1290 014e 0000     		.align 8
 1291              	.LC13:
 1292 0150 5B25735D 		.string	"[%s][%u][%s:%d] atiny_add_rpt_uri fail %d\r\n"
 1292      5B25755D 
 1292      5B25733A 
 1292      25645D20 
 1292      6174696E 
 1293              		.section	.text.prv_create,"ax",@progbits
 1295              	prv_create:
 1296              	.LFB80:
 331:/home/baikal/workspace/C50/Huawei_IoT_Agent_Tiny_SDK_Linux//agent_tiny/lwm2m_client/object_binary_app_data_container.c ****     plat_instance_t *targetP;
 1297              		.loc 1 331 0
 1298              		.cfi_startproc
 1299              	.LVL156:
 1300 0000 4157     		pushq	%r15
 1301              	.LCFI87:
 1302              		.cfi_def_cfa_offset 16
 1303              		.cfi_offset 15, -16
 1304 0002 4156     		pushq	%r14
 1305              	.LCFI88:
 1306              		.cfi_def_cfa_offset 24
 1307              		.cfi_offset 14, -24
 1308 0004 4155     		pushq	%r13
 1309              	.LCFI89:
 1310              		.cfi_def_cfa_offset 32
 1311              		.cfi_offset 13, -32
 1312 0006 4154     		pushq	%r12
 1313              	.LCFI90:
 1314              		.cfi_def_cfa_offset 40
 1315              		.cfi_offset 12, -40
 1316 0008 55       		pushq	%rbp
 1317              	.LCFI91:
 1318              		.cfi_def_cfa_offset 48
 1319              		.cfi_offset 6, -48
GAS LISTING /tmp/cc68p2p6.s 			page 42


 1320 0009 53       		pushq	%rbx
 1321              	.LCFI92:
 1322              		.cfi_def_cfa_offset 56
 1323              		.cfi_offset 3, -56
 1324 000a 4883EC18 		subq	$24, %rsp
 1325              	.LCFI93:
 1326              		.cfi_def_cfa_offset 80
 1327 000e 89FD     		movl	%edi, %ebp
 1328 0010 4189F5   		movl	%esi, %r13d
 1329 0013 4989D6   		movq	%rdx, %r14
 1330 0016 4989CC   		movq	%rcx, %r12
 338:/home/baikal/workspace/C50/Huawei_IoT_Agent_Tiny_SDK_Linux//agent_tiny/lwm2m_client/object_binary_app_data_container.c ****     if (NULL == targetP) return COAP_500_INTERNAL_SERVER_ERROR;
 1331              		.loc 1 338 0
 1332 0019 BF300000 		movl	$48, %edi
 1332      00
 1333              	.LVL157:
 1334 001e E8000000 		call	lwm2m_malloc
 1334      00
 1335              	.LVL158:
 339:/home/baikal/workspace/C50/Huawei_IoT_Agent_Tiny_SDK_Linux//agent_tiny/lwm2m_client/object_binary_app_data_container.c ****     memset(targetP, 0, sizeof(plat_instance_t));
 1336              		.loc 1 339 0
 1337 0023 4885C0   		testq	%rax, %rax
 1338 0026 0F84E400 		je	.L87
 1338      0000
 1339 002c 4889C3   		movq	%rax, %rbx
 1340              	.LVL159:
 1341              	.LBB72:
 1342              	.LBB73:
 1343              		.file 4 "/usr/include/x86_64-linux-gnu/bits/string3.h"
   1:/usr/include/x86_64-linux-gnu/bits/string3.h **** /* Copyright (C) 2004-2016 Free Software Foundation, Inc.
   2:/usr/include/x86_64-linux-gnu/bits/string3.h ****    This file is part of the GNU C Library.
   3:/usr/include/x86_64-linux-gnu/bits/string3.h **** 
   4:/usr/include/x86_64-linux-gnu/bits/string3.h ****    The GNU C Library is free software; you can redistribute it and/or
   5:/usr/include/x86_64-linux-gnu/bits/string3.h ****    modify it under the terms of the GNU Lesser General Public
   6:/usr/include/x86_64-linux-gnu/bits/string3.h ****    License as published by the Free Software Foundation; either
   7:/usr/include/x86_64-linux-gnu/bits/string3.h ****    version 2.1 of the License, or (at your option) any later version.
   8:/usr/include/x86_64-linux-gnu/bits/string3.h **** 
   9:/usr/include/x86_64-linux-gnu/bits/string3.h ****    The GNU C Library is distributed in the hope that it will be useful,
  10:/usr/include/x86_64-linux-gnu/bits/string3.h ****    but WITHOUT ANY WARRANTY; without even the implied warranty of
  11:/usr/include/x86_64-linux-gnu/bits/string3.h ****    MERCHANTABILITY or FITNESS FOR A PARTICULAR PURPOSE.  See the GNU
  12:/usr/include/x86_64-linux-gnu/bits/string3.h ****    Lesser General Public License for more details.
  13:/usr/include/x86_64-linux-gnu/bits/string3.h **** 
  14:/usr/include/x86_64-linux-gnu/bits/string3.h ****    You should have received a copy of the GNU Lesser General Public
  15:/usr/include/x86_64-linux-gnu/bits/string3.h ****    License along with the GNU C Library; if not, see
  16:/usr/include/x86_64-linux-gnu/bits/string3.h ****    <http://www.gnu.org/licenses/>.  */
  17:/usr/include/x86_64-linux-gnu/bits/string3.h **** 
  18:/usr/include/x86_64-linux-gnu/bits/string3.h **** #ifndef _STRING_H
  19:/usr/include/x86_64-linux-gnu/bits/string3.h **** # error "Never use <bits/string3.h> directly; include <string.h> instead."
  20:/usr/include/x86_64-linux-gnu/bits/string3.h **** #endif
  21:/usr/include/x86_64-linux-gnu/bits/string3.h **** 
  22:/usr/include/x86_64-linux-gnu/bits/string3.h **** #if !__GNUC_PREREQ (5,0)
  23:/usr/include/x86_64-linux-gnu/bits/string3.h **** __warndecl (__warn_memset_zero_len,
  24:/usr/include/x86_64-linux-gnu/bits/string3.h **** 	    "memset used with constant zero length parameter; this could be due to transposed parameters")
  25:/usr/include/x86_64-linux-gnu/bits/string3.h **** #endif
  26:/usr/include/x86_64-linux-gnu/bits/string3.h **** 
  27:/usr/include/x86_64-linux-gnu/bits/string3.h **** #ifndef __cplusplus
  28:/usr/include/x86_64-linux-gnu/bits/string3.h **** /* XXX This is temporarily.  We should not redefine any of the symbols
GAS LISTING /tmp/cc68p2p6.s 			page 43


  29:/usr/include/x86_64-linux-gnu/bits/string3.h ****    and instead integrate the error checking into the original
  30:/usr/include/x86_64-linux-gnu/bits/string3.h ****    definitions.  */
  31:/usr/include/x86_64-linux-gnu/bits/string3.h **** # undef memcpy
  32:/usr/include/x86_64-linux-gnu/bits/string3.h **** # undef memmove
  33:/usr/include/x86_64-linux-gnu/bits/string3.h **** # undef memset
  34:/usr/include/x86_64-linux-gnu/bits/string3.h **** # undef strcat
  35:/usr/include/x86_64-linux-gnu/bits/string3.h **** # undef strcpy
  36:/usr/include/x86_64-linux-gnu/bits/string3.h **** # undef strncat
  37:/usr/include/x86_64-linux-gnu/bits/string3.h **** # undef strncpy
  38:/usr/include/x86_64-linux-gnu/bits/string3.h **** # ifdef __USE_GNU
  39:/usr/include/x86_64-linux-gnu/bits/string3.h **** #  undef mempcpy
  40:/usr/include/x86_64-linux-gnu/bits/string3.h **** #  undef stpcpy
  41:/usr/include/x86_64-linux-gnu/bits/string3.h **** # endif
  42:/usr/include/x86_64-linux-gnu/bits/string3.h **** # ifdef __USE_MISC
  43:/usr/include/x86_64-linux-gnu/bits/string3.h **** #  undef bcopy
  44:/usr/include/x86_64-linux-gnu/bits/string3.h **** #  undef bzero
  45:/usr/include/x86_64-linux-gnu/bits/string3.h **** # endif
  46:/usr/include/x86_64-linux-gnu/bits/string3.h **** #endif
  47:/usr/include/x86_64-linux-gnu/bits/string3.h **** 
  48:/usr/include/x86_64-linux-gnu/bits/string3.h **** 
  49:/usr/include/x86_64-linux-gnu/bits/string3.h **** __fortify_function void *
  50:/usr/include/x86_64-linux-gnu/bits/string3.h **** __NTH (memcpy (void *__restrict __dest, const void *__restrict __src,
  51:/usr/include/x86_64-linux-gnu/bits/string3.h **** 	       size_t __len))
  52:/usr/include/x86_64-linux-gnu/bits/string3.h **** {
  53:/usr/include/x86_64-linux-gnu/bits/string3.h ****   return __builtin___memcpy_chk (__dest, __src, __len, __bos0 (__dest));
  54:/usr/include/x86_64-linux-gnu/bits/string3.h **** }
  55:/usr/include/x86_64-linux-gnu/bits/string3.h **** 
  56:/usr/include/x86_64-linux-gnu/bits/string3.h **** __fortify_function void *
  57:/usr/include/x86_64-linux-gnu/bits/string3.h **** __NTH (memmove (void *__dest, const void *__src, size_t __len))
  58:/usr/include/x86_64-linux-gnu/bits/string3.h **** {
  59:/usr/include/x86_64-linux-gnu/bits/string3.h ****   return __builtin___memmove_chk (__dest, __src, __len, __bos0 (__dest));
  60:/usr/include/x86_64-linux-gnu/bits/string3.h **** }
  61:/usr/include/x86_64-linux-gnu/bits/string3.h **** 
  62:/usr/include/x86_64-linux-gnu/bits/string3.h **** #ifdef __USE_GNU
  63:/usr/include/x86_64-linux-gnu/bits/string3.h **** __fortify_function void *
  64:/usr/include/x86_64-linux-gnu/bits/string3.h **** __NTH (mempcpy (void *__restrict __dest, const void *__restrict __src,
  65:/usr/include/x86_64-linux-gnu/bits/string3.h **** 		size_t __len))
  66:/usr/include/x86_64-linux-gnu/bits/string3.h **** {
  67:/usr/include/x86_64-linux-gnu/bits/string3.h ****   return __builtin___mempcpy_chk (__dest, __src, __len, __bos0 (__dest));
  68:/usr/include/x86_64-linux-gnu/bits/string3.h **** }
  69:/usr/include/x86_64-linux-gnu/bits/string3.h **** #endif
  70:/usr/include/x86_64-linux-gnu/bits/string3.h **** 
  71:/usr/include/x86_64-linux-gnu/bits/string3.h **** 
  72:/usr/include/x86_64-linux-gnu/bits/string3.h **** /* The first two tests here help to catch a somewhat common problem
  73:/usr/include/x86_64-linux-gnu/bits/string3.h ****    where the second and third parameter are transposed.  This is
  74:/usr/include/x86_64-linux-gnu/bits/string3.h ****    especially problematic if the intended fill value is zero.  In this
  75:/usr/include/x86_64-linux-gnu/bits/string3.h ****    case no work is done at all.  We detect these problems by referring
  76:/usr/include/x86_64-linux-gnu/bits/string3.h ****    non-existing functions.  */
  77:/usr/include/x86_64-linux-gnu/bits/string3.h **** __fortify_function void *
  78:/usr/include/x86_64-linux-gnu/bits/string3.h **** __NTH (memset (void *__dest, int __ch, size_t __len))
  79:/usr/include/x86_64-linux-gnu/bits/string3.h **** {
  80:/usr/include/x86_64-linux-gnu/bits/string3.h ****   /* GCC-5.0 and newer implements these checks in the compiler, so we don't
  81:/usr/include/x86_64-linux-gnu/bits/string3.h ****      need them here.  */
  82:/usr/include/x86_64-linux-gnu/bits/string3.h **** #if !__GNUC_PREREQ (5,0)
  83:/usr/include/x86_64-linux-gnu/bits/string3.h ****   if (__builtin_constant_p (__len) && __len == 0
  84:/usr/include/x86_64-linux-gnu/bits/string3.h ****       && (!__builtin_constant_p (__ch) || __ch != 0))
  85:/usr/include/x86_64-linux-gnu/bits/string3.h ****     {
GAS LISTING /tmp/cc68p2p6.s 			page 44


  86:/usr/include/x86_64-linux-gnu/bits/string3.h ****       __warn_memset_zero_len ();
  87:/usr/include/x86_64-linux-gnu/bits/string3.h ****       return __dest;
  88:/usr/include/x86_64-linux-gnu/bits/string3.h ****     }
  89:/usr/include/x86_64-linux-gnu/bits/string3.h **** #endif
  90:/usr/include/x86_64-linux-gnu/bits/string3.h ****   return __builtin___memset_chk (__dest, __ch, __len, __bos0 (__dest));
 1344              		.loc 4 90 0
 1345 002f 48C70000 		movq	$0, (%rax)
 1345      000000
 1346 0036 48C74028 		movq	$0, 40(%rax)
 1346      00000000 
 1347 003e 488D7808 		leaq	8(%rax), %rdi
 1348 0042 4883E7F8 		andq	$-8, %rdi
 1349 0046 4889C1   		movq	%rax, %rcx
 1350 0049 4829F9   		subq	%rdi, %rcx
 1351 004c 83C130   		addl	$48, %ecx
 1352 004f C1E903   		shrl	$3, %ecx
 1353 0052 89C9     		movl	%ecx, %ecx
 1354 0054 B8000000 		movl	$0, %eax
 1354      00
 1355              	.LVL160:
 1356 0059 F348AB   		rep stosq
 1357              	.LVL161:
 1358              	.LBE73:
 1359              	.LBE72:
 1360              	.LBB74:
 1361              	.LBB75:
  65:/home/baikal/workspace/C50/Huawei_IoT_Agent_Tiny_SDK_Linux//agent_tiny/lwm2m_client/atiny_rpt.h ****     uri->objectId = object_id;
 1362              		.loc 2 65 0
 1363 005c C6042407 		movb	$7, (%rsp)
  66:/home/baikal/workspace/C50/Huawei_IoT_Agent_Tiny_SDK_Linux//agent_tiny/lwm2m_client/atiny_rpt.h ****     uri->instanceId = instance_id;
 1364              		.loc 2 66 0
 1365 0060 66C74424 		movw	$19, 2(%rsp)
 1365      021300
  67:/home/baikal/workspace/C50/Huawei_IoT_Agent_Tiny_SDK_Linux//agent_tiny/lwm2m_client/atiny_rpt.h ****     uri->resourceId = resource_id;
 1366              		.loc 2 67 0
 1367 0067 66896C24 		movw	%bp, 4(%rsp)
 1367      04
 1368              		.loc 2 68 0
 1369 006c 66C74424 		movw	$0, 6(%rsp)
 1369      060000
 1370              	.LVL162:
 1371              	.LBE75:
 1372              	.LBE74:
 345:/home/baikal/workspace/C50/Huawei_IoT_Agent_Tiny_SDK_Linux//agent_tiny/lwm2m_client/object_binary_app_data_container.c ****     if(ret != ATINY_OK)
 1373              		.loc 1 345 0
 1374 0073 488D7310 		leaq	16(%rbx), %rsi
 1375 0077 4889E7   		movq	%rsp, %rdi
 1376 007a E8000000 		call	atiny_add_rpt_uri
 1376      00
 1377              	.LVL163:
 1378 007f 4189C7   		movl	%eax, %r15d
 1379              	.LVL164:
 346:/home/baikal/workspace/C50/Huawei_IoT_Agent_Tiny_SDK_Linux//agent_tiny/lwm2m_client/object_binary_app_data_container.c ****     {
 1380              		.loc 1 346 0
 1381 0082 85C0     		testl	%eax, %eax
 1382 0084 744D     		je	.L85
 348:/home/baikal/workspace/C50/Huawei_IoT_Agent_Tiny_SDK_Linux//agent_tiny/lwm2m_client/object_binary_app_data_container.c ****         lwm2m_free(targetP);
GAS LISTING /tmp/cc68p2p6.s 			page 45


 1383              		.loc 1 348 0
 1384 0086 E8000000 		call	atiny_get_log_level
 1384      00
 1385              	.LVL165:
 1386 008b 83F803   		cmpl	$3, %eax
 1387 008e 7734     		ja	.L86
 348:/home/baikal/workspace/C50/Huawei_IoT_Agent_Tiny_SDK_Linux//agent_tiny/lwm2m_client/object_binary_app_data_container.c ****         lwm2m_free(targetP);
 1388              		.loc 1 348 0 is_stmt 0 discriminator 1
 1389 0090 E8000000 		call	atiny_gettime_ms
 1389      00
 1390              	.LVL166:
 1391 0095 4889C5   		movq	%rax, %rbp
 1392 0098 BF030000 		movl	$3, %edi
 1392      00
 1393 009d E8000000 		call	atiny_get_log_level_name
 1393      00
 1394              	.LVL167:
 1395 00a2 4589F9   		movl	%r15d, %r9d
 1396 00a5 41B85C01 		movl	$348, %r8d
 1396      0000
 1397 00ab B9000000 		movl	$__FUNCTION__.5346, %ecx
 1397      00
 1398 00b0 89EA     		movl	%ebp, %edx
 1399 00b2 4889C6   		movq	%rax, %rsi
 1400 00b5 BF000000 		movl	$.LC13, %edi
 1400      00
 1401 00ba B8000000 		movl	$0, %eax
 1401      00
 1402 00bf E8000000 		call	atiny_printf
 1402      00
 1403              	.LVL168:
 1404              	.L86:
 349:/home/baikal/workspace/C50/Huawei_IoT_Agent_Tiny_SDK_Linux//agent_tiny/lwm2m_client/object_binary_app_data_container.c ****         return COAP_404_NOT_FOUND;
 1405              		.loc 1 349 0 is_stmt 1
 1406 00c4 4889DF   		movq	%rbx, %rdi
 1407 00c7 E8000000 		call	lwm2m_free
 1407      00
 1408              	.LVL169:
 350:/home/baikal/workspace/C50/Huawei_IoT_Agent_Tiny_SDK_Linux//agent_tiny/lwm2m_client/object_binary_app_data_container.c ****     }
 1409              		.loc 1 350 0
 1410 00cc B884FFFF 		movl	$-124, %eax
 1410      FF
 1411 00d1 EB49     		jmp	.L84
 1412              	.LVL170:
 1413              	.L85:
 353:/home/baikal/workspace/C50/Huawei_IoT_Agent_Tiny_SDK_Linux//agent_tiny/lwm2m_client/object_binary_app_data_container.c ****     objectP->instanceList = LWM2M_LIST_ADD(objectP->instanceList, targetP);
 1414              		.loc 1 353 0
 1415 00d3 66896B08 		movw	%bp, 8(%rbx)
 354:/home/baikal/workspace/C50/Huawei_IoT_Agent_Tiny_SDK_Linux//agent_tiny/lwm2m_client/object_binary_app_data_container.c **** 
 1416              		.loc 1 354 0
 1417 00d7 498B7C24 		movq	16(%r12), %rdi
 1417      10
 1418 00dc 4889DE   		movq	%rbx, %rsi
 1419 00df E8000000 		call	lwm2m_list_add
 1419      00
 1420              	.LVL171:
 1421 00e4 49894424 		movq	%rax, 16(%r12)
GAS LISTING /tmp/cc68p2p6.s 			page 46


 1421      10
 356:/home/baikal/workspace/C50/Huawei_IoT_Agent_Tiny_SDK_Linux//agent_tiny/lwm2m_client/object_binary_app_data_container.c **** 
 1422              		.loc 1 356 0
 1423 00e9 0FB7ED   		movzwl	%bp, %ebp
 1424 00ec 4C89E1   		movq	%r12, %rcx
 1425 00ef 4C89F2   		movq	%r14, %rdx
 1426 00f2 4489EE   		movl	%r13d, %esi
 1427 00f5 89EF     		movl	%ebp, %edi
 1428 00f7 E8000000 		call	prv_write
 1428      00
 1429              	.LVL172:
 1430 00fc 89C3     		movl	%eax, %ebx
 1431              	.LVL173:
 358:/home/baikal/workspace/C50/Huawei_IoT_Agent_Tiny_SDK_Linux//agent_tiny/lwm2m_client/object_binary_app_data_container.c ****     {
 1432              		.loc 1 358 0
 1433 00fe 3C44     		cmpb	$68, %al
 1434 0100 7415     		je	.L88
 360:/home/baikal/workspace/C50/Huawei_IoT_Agent_Tiny_SDK_Linux//agent_tiny/lwm2m_client/object_binary_app_data_container.c ****     }
 1435              		.loc 1 360 0
 1436 0102 4C89E6   		movq	%r12, %rsi
 1437 0105 89EF     		movl	%ebp, %edi
 1438 0107 E8000000 		call	prv_delete
 1438      00
 1439              	.LVL174:
 356:/home/baikal/workspace/C50/Huawei_IoT_Agent_Tiny_SDK_Linux//agent_tiny/lwm2m_client/object_binary_app_data_container.c **** 
 1440              		.loc 1 356 0
 1441 010c 89D8     		movl	%ebx, %eax
 1442 010e EB0C     		jmp	.L84
 1443              	.LVL175:
 1444              	.L87:
 339:/home/baikal/workspace/C50/Huawei_IoT_Agent_Tiny_SDK_Linux//agent_tiny/lwm2m_client/object_binary_app_data_container.c ****     memset(targetP, 0, sizeof(plat_instance_t));
 1445              		.loc 1 339 0
 1446 0110 B8A0FFFF 		movl	$-96, %eax
 1446      FF
 1447              	.LVL176:
 1448 0115 EB05     		jmp	.L84
 1449              	.LVL177:
 1450              	.L88:
 364:/home/baikal/workspace/C50/Huawei_IoT_Agent_Tiny_SDK_Linux//agent_tiny/lwm2m_client/object_binary_app_data_container.c ****     }
 1451              		.loc 1 364 0
 1452 0117 B8410000 		movl	$65, %eax
 1452      00
 1453              	.LVL178:
 1454              	.L84:
 368:/home/baikal/workspace/C50/Huawei_IoT_Agent_Tiny_SDK_Linux//agent_tiny/lwm2m_client/object_binary_app_data_container.c **** 
 1455              		.loc 1 368 0
 1456 011c 4883C418 		addq	$24, %rsp
 1457              	.LCFI94:
 1458              		.cfi_def_cfa_offset 56
 1459 0120 5B       		popq	%rbx
 1460              	.LCFI95:
 1461              		.cfi_def_cfa_offset 48
 1462 0121 5D       		popq	%rbp
 1463              	.LCFI96:
 1464              		.cfi_def_cfa_offset 40
 1465 0122 415C     		popq	%r12
 1466              	.LCFI97:
GAS LISTING /tmp/cc68p2p6.s 			page 47


 1467              		.cfi_def_cfa_offset 32
 1468              	.LVL179:
 1469 0124 415D     		popq	%r13
 1470              	.LCFI98:
 1471              		.cfi_def_cfa_offset 24
 1472              	.LVL180:
 1473 0126 415E     		popq	%r14
 1474              	.LCFI99:
 1475              		.cfi_def_cfa_offset 16
 1476              	.LVL181:
 1477 0128 415F     		popq	%r15
 1478              	.LCFI100:
 1479              		.cfi_def_cfa_offset 8
 1480 012a C3       		ret
 1481              		.cfi_endproc
 1482              	.LFE80:
 1484              		.section	.text.display_binary_app_data_object,"ax",@progbits
 1485              		.globl	display_binary_app_data_object
 1487              	display_binary_app_data_object:
 1488              	.LFB82:
 404:/home/baikal/workspace/C50/Huawei_IoT_Agent_Tiny_SDK_Linux//agent_tiny/lwm2m_client/object_binary_app_data_container.c **** #ifdef WITH_LOGS
 1489              		.loc 1 404 0
 1490              		.cfi_startproc
 1491              	.LVL182:
 1492 0000 F3C3     		rep ret
 1493              		.cfi_endproc
 1494              	.LFE82:
 1496              		.section	.text.free_binary_app_data_object,"ax",@progbits
 1497              		.globl	free_binary_app_data_object
 1499              	free_binary_app_data_object:
 1500              	.LFB85:
 490:/home/baikal/workspace/C50/Huawei_IoT_Agent_Tiny_SDK_Linux//agent_tiny/lwm2m_client/object_binary_app_data_container.c **** 
 491:/home/baikal/workspace/C50/Huawei_IoT_Agent_Tiny_SDK_Linux//agent_tiny/lwm2m_client/object_binary_app_data_container.c **** void free_binary_app_data_object(lwm2m_object_t *object)
 492:/home/baikal/workspace/C50/Huawei_IoT_Agent_Tiny_SDK_Linux//agent_tiny/lwm2m_client/object_binary_app_data_container.c **** {
 1501              		.loc 1 492 0
 1502              		.cfi_startproc
 1503              	.LVL183:
 1504              		.loc 1 492 0
 1505 0000 53       		pushq	%rbx
 1506              	.LCFI101:
 1507              		.cfi_def_cfa_offset 16
 1508              		.cfi_offset 3, -16
 1509 0001 4889FB   		movq	%rdi, %rbx
 493:/home/baikal/workspace/C50/Huawei_IoT_Agent_Tiny_SDK_Linux//agent_tiny/lwm2m_client/object_binary_app_data_container.c ****     free_binary_app_data_object_rpt(object);
 1510              		.loc 1 493 0
 1511 0004 E8000000 		call	free_binary_app_data_object_rpt
 1511      00
 1512              	.LVL184:
 494:/home/baikal/workspace/C50/Huawei_IoT_Agent_Tiny_SDK_Linux//agent_tiny/lwm2m_client/object_binary_app_data_container.c ****     LWM2M_LIST_FREE(object->instanceList);
 1513              		.loc 1 494 0
 1514 0009 488B7B10 		movq	16(%rbx), %rdi
 1515 000d E8000000 		call	lwm2m_list_free
 1515      00
 1516              	.LVL185:
 495:/home/baikal/workspace/C50/Huawei_IoT_Agent_Tiny_SDK_Linux//agent_tiny/lwm2m_client/object_binary_app_data_container.c ****     if (object->userData != NULL)
 1517              		.loc 1 495 0
 1518 0012 488B7B50 		movq	80(%rbx), %rdi
GAS LISTING /tmp/cc68p2p6.s 			page 48


 1519 0016 4885FF   		testq	%rdi, %rdi
 1520 0019 740D     		je	.L92
 496:/home/baikal/workspace/C50/Huawei_IoT_Agent_Tiny_SDK_Linux//agent_tiny/lwm2m_client/object_binary_app_data_container.c ****     {
 497:/home/baikal/workspace/C50/Huawei_IoT_Agent_Tiny_SDK_Linux//agent_tiny/lwm2m_client/object_binary_app_data_container.c ****         lwm2m_free(object->userData);
 1521              		.loc 1 497 0
 1522 001b E8000000 		call	lwm2m_free
 1522      00
 1523              	.LVL186:
 498:/home/baikal/workspace/C50/Huawei_IoT_Agent_Tiny_SDK_Linux//agent_tiny/lwm2m_client/object_binary_app_data_container.c ****         object->userData = NULL;
 1524              		.loc 1 498 0
 1525 0020 48C74350 		movq	$0, 80(%rbx)
 1525      00000000 
 1526              	.L92:
 499:/home/baikal/workspace/C50/Huawei_IoT_Agent_Tiny_SDK_Linux//agent_tiny/lwm2m_client/object_binary_app_data_container.c ****     }
 500:/home/baikal/workspace/C50/Huawei_IoT_Agent_Tiny_SDK_Linux//agent_tiny/lwm2m_client/object_binary_app_data_container.c ****     lwm2m_free(object);
 1527              		.loc 1 500 0
 1528 0028 4889DF   		movq	%rbx, %rdi
 1529 002b E8000000 		call	lwm2m_free
 1529      00
 1530              	.LVL187:
 501:/home/baikal/workspace/C50/Huawei_IoT_Agent_Tiny_SDK_Linux//agent_tiny/lwm2m_client/object_binary_app_data_container.c **** }
 1531              		.loc 1 501 0
 1532 0030 5B       		popq	%rbx
 1533              	.LCFI102:
 1534              		.cfi_def_cfa_offset 8
 1535              	.LVL188:
 1536 0031 C3       		ret
 1537              		.cfi_endproc
 1538              	.LFE85:
 1540              		.section	.text.get_binary_app_data_object,"ax",@progbits
 1541              		.globl	get_binary_app_data_object
 1543              	get_binary_app_data_object:
 1544              	.LFB83:
 419:/home/baikal/workspace/C50/Huawei_IoT_Agent_Tiny_SDK_Linux//agent_tiny/lwm2m_client/object_binary_app_data_container.c ****     lwm2m_object_t *appObj;
 1545              		.loc 1 419 0
 1546              		.cfi_startproc
 1547              	.LVL189:
 1548 0000 4156     		pushq	%r14
 1549              	.LCFI103:
 1550              		.cfi_def_cfa_offset 16
 1551              		.cfi_offset 14, -16
 1552 0002 4155     		pushq	%r13
 1553              	.LCFI104:
 1554              		.cfi_def_cfa_offset 24
 1555              		.cfi_offset 13, -24
 1556 0004 4154     		pushq	%r12
 1557              	.LCFI105:
 1558              		.cfi_def_cfa_offset 32
 1559              		.cfi_offset 12, -32
 1560 0006 55       		pushq	%rbp
 1561              	.LCFI106:
 1562              		.cfi_def_cfa_offset 40
 1563              		.cfi_offset 6, -40
 1564 0007 53       		pushq	%rbx
 1565              	.LCFI107:
 1566              		.cfi_def_cfa_offset 48
 1567              		.cfi_offset 3, -48
GAS LISTING /tmp/cc68p2p6.s 			page 49


 1568 0008 4883EC10 		subq	$16, %rsp
 1569              	.LCFI108:
 1570              		.cfi_def_cfa_offset 64
 1571 000c 4989FD   		movq	%rdi, %r13
 422:/home/baikal/workspace/C50/Huawei_IoT_Agent_Tiny_SDK_Linux//agent_tiny/lwm2m_client/object_binary_app_data_container.c **** 
 1572              		.loc 1 422 0
 1573 000f BF580000 		movl	$88, %edi
 1573      00
 1574              	.LVL190:
 1575 0014 E8000000 		call	lwm2m_malloc
 1575      00
 1576              	.LVL191:
 1577 0019 4889C3   		movq	%rax, %rbx
 1578              	.LVL192:
 424:/home/baikal/workspace/C50/Huawei_IoT_Agent_Tiny_SDK_Linux//agent_tiny/lwm2m_client/object_binary_app_data_container.c ****     {
 1579              		.loc 1 424 0
 1580 001c 4885C0   		testq	%rax, %rax
 1581 001f 0F847801 		je	.L102
 1581      0000
 1582              	.LVL193:
 1583              	.LBB76:
 1584              	.LBB77:
 1585              	.LBB78:
 1586              		.loc 4 90 0
 1587 0025 48C70000 		movq	$0, (%rax)
 1587      000000
 1588 002c 48C74050 		movq	$0, 80(%rax)
 1588      00000000 
 1589 0034 488D7808 		leaq	8(%rax), %rdi
 1590 0038 4883E7F8 		andq	$-8, %rdi
 1591 003c 4889C1   		movq	%rax, %rcx
 1592 003f 4829F9   		subq	%rdi, %rcx
 1593 0042 83C158   		addl	$88, %ecx
 1594 0045 C1E903   		shrl	$3, %ecx
 1595 0048 89C9     		movl	%ecx, %ecx
 1596 004a B8000000 		movl	$0, %eax
 1596      00
 1597              	.LVL194:
 1598 004f F348AB   		rep stosq
 1599              	.LVL195:
 1600              	.LBE78:
 1601              	.LBE77:
 433:/home/baikal/workspace/C50/Huawei_IoT_Agent_Tiny_SDK_Linux//agent_tiny/lwm2m_client/object_binary_app_data_container.c ****         for (i = 0 ; i < BINARY_APP_DATA_OBJECT_INSTANCE_NUM; i++)
 1602              		.loc 1 433 0
 1603 0052 66C74308 		movw	$19, 8(%rbx)
 1603      1300
 1604              	.LVL196:
 434:/home/baikal/workspace/C50/Huawei_IoT_Agent_Tiny_SDK_Linux//agent_tiny/lwm2m_client/object_binary_app_data_container.c ****         {
 1605              		.loc 1 434 0
 1606 0058 41BC0000 		movl	$0, %r12d
 1606      0000
 1607 005e E9E60000 		jmp	.L96
 1607      00
 1608              	.LVL197:
 1609              	.L100:
 436:/home/baikal/workspace/C50/Huawei_IoT_Agent_Tiny_SDK_Linux//agent_tiny/lwm2m_client/object_binary_app_data_container.c ****             if (NULL == targetP)
 1610              		.loc 1 436 0
GAS LISTING /tmp/cc68p2p6.s 			page 50


 1611 0063 BF300000 		movl	$48, %edi
 1611      00
 1612 0068 E8000000 		call	lwm2m_malloc
 1612      00
 1613              	.LVL198:
 1614 006d 4889C5   		movq	%rax, %rbp
 1615              	.LVL199:
 437:/home/baikal/workspace/C50/Huawei_IoT_Agent_Tiny_SDK_Linux//agent_tiny/lwm2m_client/object_binary_app_data_container.c ****             {
 1616              		.loc 1 437 0
 1617 0070 4885C0   		testq	%rax, %rax
 1618 0073 0F84DA00 		je	.L97
 1618      0000
 1619              	.LVL200:
 1620              	.LBB79:
 1621              	.LBB80:
 1622              		.loc 4 90 0
 1623 0079 48C70000 		movq	$0, (%rax)
 1623      000000
 1624 0080 48C74028 		movq	$0, 40(%rax)
 1624      00000000 
 1625 0088 488D7808 		leaq	8(%rax), %rdi
 1626 008c 4883E7F8 		andq	$-8, %rdi
 1627 0090 4889C1   		movq	%rax, %rcx
 1628 0093 4829F9   		subq	%rdi, %rcx
 1629 0096 83C130   		addl	$48, %ecx
 1630 0099 C1E903   		shrl	$3, %ecx
 1631 009c 89C9     		movl	%ecx, %ecx
 1632 009e B8000000 		movl	$0, %eax
 1632      00
 1633              	.LVL201:
 1634 00a3 F348AB   		rep stosq
 1635              	.LVL202:
 1636              	.LBE80:
 1637              	.LBE79:
 1638              	.LBB81:
 1639              	.LBB82:
  65:/home/baikal/workspace/C50/Huawei_IoT_Agent_Tiny_SDK_Linux//agent_tiny/lwm2m_client/atiny_rpt.h ****     uri->objectId = object_id;
 1640              		.loc 2 65 0
 1641 00a6 C6042407 		movb	$7, (%rsp)
  66:/home/baikal/workspace/C50/Huawei_IoT_Agent_Tiny_SDK_Linux//agent_tiny/lwm2m_client/atiny_rpt.h ****     uri->instanceId = instance_id;
 1642              		.loc 2 66 0
 1643 00aa 66C74424 		movw	$19, 2(%rsp)
 1643      021300
  67:/home/baikal/workspace/C50/Huawei_IoT_Agent_Tiny_SDK_Linux//agent_tiny/lwm2m_client/atiny_rpt.h ****     uri->resourceId = resource_id;
 1644              		.loc 2 67 0
 1645 00b1 66448964 		movw	%r12w, 4(%rsp)
 1645      2404
 1646              		.loc 2 68 0
 1647 00b7 66C74424 		movw	$0, 6(%rsp)
 1647      060000
 1648              	.LVL203:
 1649              	.LBE82:
 1650              	.LBE81:
 443:/home/baikal/workspace/C50/Huawei_IoT_Agent_Tiny_SDK_Linux//agent_tiny/lwm2m_client/object_binary_app_data_container.c ****             if(ret != ATINY_OK)
 1651              		.loc 1 443 0
 1652 00be 488D7510 		leaq	16(%rbp), %rsi
 1653 00c2 4889E7   		movq	%rsp, %rdi
GAS LISTING /tmp/cc68p2p6.s 			page 51


 1654 00c5 E8000000 		call	atiny_add_rpt_uri
 1654      00
 1655              	.LVL204:
 1656 00ca 4189C6   		movl	%eax, %r14d
 1657              	.LVL205:
 444:/home/baikal/workspace/C50/Huawei_IoT_Agent_Tiny_SDK_Linux//agent_tiny/lwm2m_client/object_binary_app_data_container.c ****             {
 1658              		.loc 1 444 0
 1659 00cd 85C0     		testl	%eax, %eax
 1660 00cf 7449     		je	.L98
 446:/home/baikal/workspace/C50/Huawei_IoT_Agent_Tiny_SDK_Linux//agent_tiny/lwm2m_client/object_binary_app_data_container.c ****                 lwm2m_free(targetP);
 1661              		.loc 1 446 0
 1662 00d1 E8000000 		call	atiny_get_log_level
 1662      00
 1663              	.LVL206:
 1664 00d6 83F803   		cmpl	$3, %eax
 1665 00d9 7735     		ja	.L99
 446:/home/baikal/workspace/C50/Huawei_IoT_Agent_Tiny_SDK_Linux//agent_tiny/lwm2m_client/object_binary_app_data_container.c ****                 lwm2m_free(targetP);
 1666              		.loc 1 446 0 is_stmt 0 discriminator 1
 1667 00db E8000000 		call	atiny_gettime_ms
 1667      00
 1668              	.LVL207:
 1669 00e0 4989C5   		movq	%rax, %r13
 1670              	.LVL208:
 1671 00e3 BF030000 		movl	$3, %edi
 1671      00
 1672 00e8 E8000000 		call	atiny_get_log_level_name
 1672      00
 1673              	.LVL209:
 1674 00ed 4589F1   		movl	%r14d, %r9d
 1675 00f0 41B8BE01 		movl	$446, %r8d
 1675      0000
 1676 00f6 B9000000 		movl	$__FUNCTION__.5372, %ecx
 1676      00
 1677 00fb 4489EA   		movl	%r13d, %edx
 1678 00fe 4889C6   		movq	%rax, %rsi
 1679 0101 BF000000 		movl	$.LC13, %edi
 1679      00
 1680 0106 B8000000 		movl	$0, %eax
 1680      00
 1681 010b E8000000 		call	atiny_printf
 1681      00
 1682              	.LVL210:
 1683              	.L99:
 447:/home/baikal/workspace/C50/Huawei_IoT_Agent_Tiny_SDK_Linux//agent_tiny/lwm2m_client/object_binary_app_data_container.c ****                 break;
 1684              		.loc 1 447 0 is_stmt 1
 1685 0110 4889EF   		movq	%rbp, %rdi
 1686 0113 E8000000 		call	lwm2m_free
 1686      00
 1687              	.LVL211:
 448:/home/baikal/workspace/C50/Huawei_IoT_Agent_Tiny_SDK_Linux//agent_tiny/lwm2m_client/object_binary_app_data_container.c ****             }
 1688              		.loc 1 448 0
 1689 0118 EB39     		jmp	.L97
 1690              	.LVL212:
 1691              	.L98:
 450:/home/baikal/workspace/C50/Huawei_IoT_Agent_Tiny_SDK_Linux//agent_tiny/lwm2m_client/object_binary_app_data_container.c ****             targetP->shortID = i;
 1692              		.loc 1 450 0 discriminator 2
 1693 011a 418B450C 		movl	12(%r13), %eax
GAS LISTING /tmp/cc68p2p6.s 			page 52


 1694              	.LVL213:
 1695 011e 85C0     		testl	%eax, %eax
 1696 0120 BE010000 		movl	$1, %esi
 1696      00
 1697 0125 0F45F0   		cmovne	%eax, %esi
 1698 0128 4889E7   		movq	%rsp, %rdi
 1699 012b E8000000 		call	atiny_set_max_rpt_cnt
 1699      00
 1700              	.LVL214:
 451:/home/baikal/workspace/C50/Huawei_IoT_Agent_Tiny_SDK_Linux//agent_tiny/lwm2m_client/object_binary_app_data_container.c ****             appObj->instanceList = LWM2M_LIST_ADD(appObj->instanceList, targetP);
 1701              		.loc 1 451 0 discriminator 2
 1702 0130 66448965 		movw	%r12w, 8(%rbp)
 1702      08
 452:/home/baikal/workspace/C50/Huawei_IoT_Agent_Tiny_SDK_Linux//agent_tiny/lwm2m_client/object_binary_app_data_container.c ****         }
 1703              		.loc 1 452 0 discriminator 2
 1704 0135 488B7B10 		movq	16(%rbx), %rdi
 1705 0139 4889EE   		movq	%rbp, %rsi
 1706 013c E8000000 		call	lwm2m_list_add
 1706      00
 1707              	.LVL215:
 1708 0141 48894310 		movq	%rax, 16(%rbx)
 434:/home/baikal/workspace/C50/Huawei_IoT_Agent_Tiny_SDK_Linux//agent_tiny/lwm2m_client/object_binary_app_data_container.c ****         {
 1709              		.loc 1 434 0 discriminator 2
 1710 0145 4183C401 		addl	$1, %r12d
 1711              	.LVL216:
 1712              	.L96:
 434:/home/baikal/workspace/C50/Huawei_IoT_Agent_Tiny_SDK_Linux//agent_tiny/lwm2m_client/object_binary_app_data_container.c ****         {
 1713              		.loc 1 434 0 is_stmt 0 discriminator 1
 1714 0149 4183FC01 		cmpl	$1, %r12d
 1715 014d 0F8E10FF 		jle	.L100
 1715      FFFF
 1716              	.LVL217:
 1717              	.L97:
 455:/home/baikal/workspace/C50/Huawei_IoT_Agent_Tiny_SDK_Linux//agent_tiny/lwm2m_client/object_binary_app_data_container.c ****         {
 1718              		.loc 1 455 0 is_stmt 1
 1719 0153 4183FC01 		cmpl	$1, %r12d
 1720 0157 7F0F     		jg	.L101
 457:/home/baikal/workspace/C50/Huawei_IoT_Agent_Tiny_SDK_Linux//agent_tiny/lwm2m_client/object_binary_app_data_container.c ****             return NULL;
 1721              		.loc 1 457 0
 1722 0159 4889DF   		movq	%rbx, %rdi
 1723 015c E8000000 		call	free_binary_app_data_object
 1723      00
 1724              	.LVL218:
 458:/home/baikal/workspace/C50/Huawei_IoT_Agent_Tiny_SDK_Linux//agent_tiny/lwm2m_client/object_binary_app_data_container.c ****         }
 1725              		.loc 1 458 0
 1726 0161 B8000000 		movl	$0, %eax
 1726      00
 1727 0166 EB35     		jmp	.L95
 1728              	.L101:
 468:/home/baikal/workspace/C50/Huawei_IoT_Agent_Tiny_SDK_Linux//agent_tiny/lwm2m_client/object_binary_app_data_container.c ****         appObj->discoverFunc = prv_discover;
 1729              		.loc 1 468 0
 1730 0168 48C74318 		movq	$prv_read, 24(%rbx)
 1730      00000000 
 469:/home/baikal/workspace/C50/Huawei_IoT_Agent_Tiny_SDK_Linux//agent_tiny/lwm2m_client/object_binary_app_data_container.c ****         appObj->writeFunc = prv_write;
 1731              		.loc 1 469 0
 1732 0170 48C74348 		movq	$prv_discover, 72(%rbx)
 1732      00000000 
GAS LISTING /tmp/cc68p2p6.s 			page 53


 470:/home/baikal/workspace/C50/Huawei_IoT_Agent_Tiny_SDK_Linux//agent_tiny/lwm2m_client/object_binary_app_data_container.c ****         appObj->executeFunc = prv_exec;
 1733              		.loc 1 470 0
 1734 0178 48C74320 		movq	$prv_write, 32(%rbx)
 1734      00000000 
 471:/home/baikal/workspace/C50/Huawei_IoT_Agent_Tiny_SDK_Linux//agent_tiny/lwm2m_client/object_binary_app_data_container.c ****         appObj->createFunc = prv_create;
 1735              		.loc 1 471 0
 1736 0180 48C74328 		movq	$prv_exec, 40(%rbx)
 1736      00000000 
 472:/home/baikal/workspace/C50/Huawei_IoT_Agent_Tiny_SDK_Linux//agent_tiny/lwm2m_client/object_binary_app_data_container.c ****         appObj->deleteFunc = prv_delete;
 1737              		.loc 1 472 0
 1738 0188 48C74338 		movq	$prv_create, 56(%rbx)
 1738      00000000 
 473:/home/baikal/workspace/C50/Huawei_IoT_Agent_Tiny_SDK_Linux//agent_tiny/lwm2m_client/object_binary_app_data_container.c ****     }
 1739              		.loc 1 473 0
 1740 0190 48C74340 		movq	$prv_delete, 64(%rbx)
 1740      00000000 
 1741              	.LBE76:
 476:/home/baikal/workspace/C50/Huawei_IoT_Agent_Tiny_SDK_Linux//agent_tiny/lwm2m_client/object_binary_app_data_container.c **** }
 1742              		.loc 1 476 0
 1743 0198 4889D8   		movq	%rbx, %rax
 1744              	.LBB83:
 1745 019b EB00     		jmp	.L95
 1746              	.LVL219:
 1747              	.L102:
 1748              	.L95:
 1749              	.LBE83:
 477:/home/baikal/workspace/C50/Huawei_IoT_Agent_Tiny_SDK_Linux//agent_tiny/lwm2m_client/object_binary_app_data_container.c **** 
 1750              		.loc 1 477 0
 1751 019d 4883C410 		addq	$16, %rsp
 1752              	.LCFI109:
 1753              		.cfi_def_cfa_offset 48
 1754 01a1 5B       		popq	%rbx
 1755              	.LCFI110:
 1756              		.cfi_def_cfa_offset 40
 1757              	.LVL220:
 1758 01a2 5D       		popq	%rbp
 1759              	.LCFI111:
 1760              		.cfi_def_cfa_offset 32
 1761 01a3 415C     		popq	%r12
 1762              	.LCFI112:
 1763              		.cfi_def_cfa_offset 24
 1764 01a5 415D     		popq	%r13
 1765              	.LCFI113:
 1766              		.cfi_def_cfa_offset 16
 1767 01a7 415E     		popq	%r14
 1768              	.LCFI114:
 1769              		.cfi_def_cfa_offset 8
 1770 01a9 C3       		ret
 1771              		.cfi_endproc
 1772              	.LFE83:
 1774              		.section	.text.set_binary_app_data_object_rpt_max_cnt,"ax",@progbits
 1775              		.globl	set_binary_app_data_object_rpt_max_cnt
 1777              	set_binary_app_data_object_rpt_max_cnt:
 1778              	.LFB86:
 502:/home/baikal/workspace/C50/Huawei_IoT_Agent_Tiny_SDK_Linux//agent_tiny/lwm2m_client/object_binary_app_data_container.c **** 
 503:/home/baikal/workspace/C50/Huawei_IoT_Agent_Tiny_SDK_Linux//agent_tiny/lwm2m_client/object_binary_app_data_container.c **** void set_binary_app_data_object_rpt_max_cnt(uint32_t max_rpt_cnt)
 504:/home/baikal/workspace/C50/Huawei_IoT_Agent_Tiny_SDK_Linux//agent_tiny/lwm2m_client/object_binary_app_data_container.c **** {
GAS LISTING /tmp/cc68p2p6.s 			page 54


 1779              		.loc 1 504 0
 1780              		.cfi_startproc
 1781              	.LVL221:
 1782 0000 4883EC18 		subq	$24, %rsp
 1783              	.LCFI115:
 1784              		.cfi_def_cfa_offset 32
 1785              	.LVL222:
 1786              	.LBB84:
 1787              	.LBB85:
  65:/home/baikal/workspace/C50/Huawei_IoT_Agent_Tiny_SDK_Linux//agent_tiny/lwm2m_client/atiny_rpt.h ****     uri->objectId = object_id;
 1788              		.loc 2 65 0
 1789 0004 C6042407 		movb	$7, (%rsp)
  66:/home/baikal/workspace/C50/Huawei_IoT_Agent_Tiny_SDK_Linux//agent_tiny/lwm2m_client/atiny_rpt.h ****     uri->instanceId = instance_id;
 1790              		.loc 2 66 0
 1791 0008 66C74424 		movw	$19, 2(%rsp)
 1791      021300
  67:/home/baikal/workspace/C50/Huawei_IoT_Agent_Tiny_SDK_Linux//agent_tiny/lwm2m_client/atiny_rpt.h ****     uri->resourceId = resource_id;
 1792              		.loc 2 67 0
 1793 000f 66C74424 		movw	$0, 4(%rsp)
 1793      040000
 1794              		.loc 2 68 0
 1795 0016 66C74424 		movw	$0, 6(%rsp)
 1795      060000
 1796              	.LVL223:
 1797              	.LBE85:
 1798              	.LBE84:
 505:/home/baikal/workspace/C50/Huawei_IoT_Agent_Tiny_SDK_Linux//agent_tiny/lwm2m_client/object_binary_app_data_container.c ****     lwm2m_uri_t uri;
 506:/home/baikal/workspace/C50/Huawei_IoT_Agent_Tiny_SDK_Linux//agent_tiny/lwm2m_client/object_binary_app_data_container.c **** 
 507:/home/baikal/workspace/C50/Huawei_IoT_Agent_Tiny_SDK_Linux//agent_tiny/lwm2m_client/object_binary_app_data_container.c ****     get_resource_uri(BINARY_APP_DATA_OBJECT_ID, 0, BINARY_APP_DATA_RES_ID, &uri);
 508:/home/baikal/workspace/C50/Huawei_IoT_Agent_Tiny_SDK_Linux//agent_tiny/lwm2m_client/object_binary_app_data_container.c ****     (void)atiny_set_max_rpt_cnt(&uri, MAX(MIN_SAVE_CNT, max_rpt_cnt));
 1799              		.loc 1 508 0
 1800 001d 85FF     		testl	%edi, %edi
 1801 001f BE010000 		movl	$1, %esi
 1801      00
 1802 0024 0F45F7   		cmovne	%edi, %esi
 1803 0027 4889E7   		movq	%rsp, %rdi
 1804              	.LVL224:
 1805 002a E8000000 		call	atiny_set_max_rpt_cnt
 1805      00
 1806              	.LVL225:
 509:/home/baikal/workspace/C50/Huawei_IoT_Agent_Tiny_SDK_Linux//agent_tiny/lwm2m_client/object_binary_app_data_container.c **** }
 1807              		.loc 1 509 0
 1808 002f 4883C418 		addq	$24, %rsp
 1809              	.LCFI116:
 1810              		.cfi_def_cfa_offset 8
 1811 0033 C3       		ret
 1812              		.cfi_endproc
 1813              	.LFE86:
 1815              		.section	.rodata.__FUNCTION__.5273,"a",@progbits
 1816              		.align 8
 1819              	__FUNCTION__.5273:
 1820 0000 7072765F 		.string	"prv_read_data"
 1820      72656164 
 1820      5F646174 
 1820      6100
 1821              		.section	.rodata.__FUNCTION__.5300,"a",@progbits
 1822              		.align 8
GAS LISTING /tmp/cc68p2p6.s 			page 55


 1825              	__FUNCTION__.5300:
 1826 0000 7072765F 		.string	"prv_read"
 1826      72656164 
 1826      00
 1827              		.section	.rodata.__FUNCTION__.5355,"a",@progbits
 1828              		.align 8
 1831              	__FUNCTION__.5355:
 1832 0000 7072765F 		.string	"prv_exec"
 1832      65786563 
 1832      00
 1833              		.section	.rodata.__FUNCTION__.5346,"a",@progbits
 1834              		.align 8
 1837              	__FUNCTION__.5346:
 1838 0000 7072765F 		.string	"prv_create"
 1838      63726561 
 1838      746500
 1839              		.section	.rodata.__FUNCTION__.5372,"a",@progbits
 1840              		.align 16
 1843              	__FUNCTION__.5372:
 1844 0000 6765745F 		.string	"get_binary_app_data_object"
 1844      62696E61 
 1844      72795F61 
 1844      70705F64 
 1844      6174615F 
 1845              		.text
 1846              	.Letext0:
 1847              		.file 5 "/usr/include/stdint.h"
 1848              		.file 6 "/usr/lib/gcc/x86_64-linux-gnu/5/include/stddef.h"
 1849              		.file 7 "/usr/include/x86_64-linux-gnu/bits/types.h"
 1850              		.file 8 "/usr/include/stdio.h"
 1851              		.file 9 "/usr/include/libio.h"
 1852              		.file 10 "/home/baikal/workspace/C50/Huawei_IoT_Agent_Tiny_SDK_Linux//lwm2m/core/liblwm2m.h"
 1853              		.file 11 "/usr/include/ctype.h"
 1854              		.file 12 "/home/baikal/workspace/C50/Huawei_IoT_Agent_Tiny_SDK_Linux//agent_tiny/lwm2m_client/atin
 1855              		.file 13 "/home/baikal/workspace/C50/Huawei_IoT_Agent_Tiny_SDK_Linux//agent_tiny/lwm2m_client/agen
 1856              		.file 14 "<built-in>"
 1857              		.file 15 "/home/baikal/workspace/C50/Huawei_IoT_Agent_Tiny_SDK_Linux//agent_tiny/osadapter/atiny_a
GAS LISTING /tmp/cc68p2p6.s 			page 56

