GAS LISTING /tmp/ccJJOyJ4.s 			page 1


   1              		.file	"object_server.c"
   2              		.text
   3              	.Ltext0:
   4              		.section	.text.prv_server_execute,"ax",@progbits
   6              	prv_server_execute:
   7              	.LFB77:
   8              		.file 1 "/home/baikal/workspace/C50/Huawei_IoT_Agent_Tiny_SDK_Linux//agent_tiny/lwm2m_client/objec
   1:/home/baikal/workspace/C50/Huawei_IoT_Agent_Tiny_SDK_Linux//agent_tiny/lwm2m_client/object_server.c **** /*----------------------------------------------------------------------------
   2:/home/baikal/workspace/C50/Huawei_IoT_Agent_Tiny_SDK_Linux//agent_tiny/lwm2m_client/object_server.c ****  * Copyright (c) <2016-2018>, <Huawei Technologies Co., Ltd>
   3:/home/baikal/workspace/C50/Huawei_IoT_Agent_Tiny_SDK_Linux//agent_tiny/lwm2m_client/object_server.c ****  * All rights reserved.
   4:/home/baikal/workspace/C50/Huawei_IoT_Agent_Tiny_SDK_Linux//agent_tiny/lwm2m_client/object_server.c ****  * Redistribution and use in source and binary forms, with or without modification,
   5:/home/baikal/workspace/C50/Huawei_IoT_Agent_Tiny_SDK_Linux//agent_tiny/lwm2m_client/object_server.c ****  * are permitted provided that the following conditions are met:
   6:/home/baikal/workspace/C50/Huawei_IoT_Agent_Tiny_SDK_Linux//agent_tiny/lwm2m_client/object_server.c ****  * 1. Redistributions of source code must retain the above copyright notice, this list of
   7:/home/baikal/workspace/C50/Huawei_IoT_Agent_Tiny_SDK_Linux//agent_tiny/lwm2m_client/object_server.c ****  * conditions and the following disclaimer.
   8:/home/baikal/workspace/C50/Huawei_IoT_Agent_Tiny_SDK_Linux//agent_tiny/lwm2m_client/object_server.c ****  * 2. Redistributions in binary form must reproduce the above copyright notice, this list
   9:/home/baikal/workspace/C50/Huawei_IoT_Agent_Tiny_SDK_Linux//agent_tiny/lwm2m_client/object_server.c ****  * of conditions and the following disclaimer in the documentation and/or other materials
  10:/home/baikal/workspace/C50/Huawei_IoT_Agent_Tiny_SDK_Linux//agent_tiny/lwm2m_client/object_server.c ****  * provided with the distribution.
  11:/home/baikal/workspace/C50/Huawei_IoT_Agent_Tiny_SDK_Linux//agent_tiny/lwm2m_client/object_server.c ****  * 3. Neither the name of the copyright holder nor the names of its contributors may be used
  12:/home/baikal/workspace/C50/Huawei_IoT_Agent_Tiny_SDK_Linux//agent_tiny/lwm2m_client/object_server.c ****  * to endorse or promote products derived from this software without specific prior written
  13:/home/baikal/workspace/C50/Huawei_IoT_Agent_Tiny_SDK_Linux//agent_tiny/lwm2m_client/object_server.c ****  * permission.
  14:/home/baikal/workspace/C50/Huawei_IoT_Agent_Tiny_SDK_Linux//agent_tiny/lwm2m_client/object_server.c ****  * THIS SOFTWARE IS PROVIDED BY THE COPYRIGHT HOLDERS AND CONTRIBUTORS
  15:/home/baikal/workspace/C50/Huawei_IoT_Agent_Tiny_SDK_Linux//agent_tiny/lwm2m_client/object_server.c ****  * "AS IS" AND ANY EXPRESS OR IMPLIED WARRANTIES, INCLUDING, BUT NOT LIMITED TO,
  16:/home/baikal/workspace/C50/Huawei_IoT_Agent_Tiny_SDK_Linux//agent_tiny/lwm2m_client/object_server.c ****  * THE IMPLIED WARRANTIES OF MERCHANTABILITY AND FITNESS FOR A PARTICULAR
  17:/home/baikal/workspace/C50/Huawei_IoT_Agent_Tiny_SDK_Linux//agent_tiny/lwm2m_client/object_server.c ****  * PURPOSE ARE DISCLAIMED. IN NO EVENT SHALL THE COPYRIGHT HOLDER OR
  18:/home/baikal/workspace/C50/Huawei_IoT_Agent_Tiny_SDK_Linux//agent_tiny/lwm2m_client/object_server.c ****  * CONTRIBUTORS BE LIABLE FOR ANY DIRECT, INDIRECT, INCIDENTAL, SPECIAL,
  19:/home/baikal/workspace/C50/Huawei_IoT_Agent_Tiny_SDK_Linux//agent_tiny/lwm2m_client/object_server.c ****  * EXEMPLARY, OR CONSEQUENTIAL DAMAGES (INCLUDING, BUT NOT LIMITED TO,
  20:/home/baikal/workspace/C50/Huawei_IoT_Agent_Tiny_SDK_Linux//agent_tiny/lwm2m_client/object_server.c ****  * PROCUREMENT OF SUBSTITUTE GOODS OR SERVICES; LOSS OF USE, DATA, OR PROFITS;
  21:/home/baikal/workspace/C50/Huawei_IoT_Agent_Tiny_SDK_Linux//agent_tiny/lwm2m_client/object_server.c ****  * OR BUSINESS INTERRUPTION) HOWEVER CAUSED AND ON ANY THEORY OF LIABILITY,
  22:/home/baikal/workspace/C50/Huawei_IoT_Agent_Tiny_SDK_Linux//agent_tiny/lwm2m_client/object_server.c ****  * WHETHER IN CONTRACT, STRICT LIABILITY, OR TORT (INCLUDING NEGLIGENCE OR
  23:/home/baikal/workspace/C50/Huawei_IoT_Agent_Tiny_SDK_Linux//agent_tiny/lwm2m_client/object_server.c ****  * OTHERWISE) ARISING IN ANY WAY OUT OF THE USE OF THIS SOFTWARE, EVEN IF
  24:/home/baikal/workspace/C50/Huawei_IoT_Agent_Tiny_SDK_Linux//agent_tiny/lwm2m_client/object_server.c ****  * ADVISED OF THE POSSIBILITY OF SUCH DAMAGE.
  25:/home/baikal/workspace/C50/Huawei_IoT_Agent_Tiny_SDK_Linux//agent_tiny/lwm2m_client/object_server.c ****  *---------------------------------------------------------------------------*/
  26:/home/baikal/workspace/C50/Huawei_IoT_Agent_Tiny_SDK_Linux//agent_tiny/lwm2m_client/object_server.c **** /*----------------------------------------------------------------------------
  27:/home/baikal/workspace/C50/Huawei_IoT_Agent_Tiny_SDK_Linux//agent_tiny/lwm2m_client/object_server.c ****  * Notice of Export Control Law
  28:/home/baikal/workspace/C50/Huawei_IoT_Agent_Tiny_SDK_Linux//agent_tiny/lwm2m_client/object_server.c ****  * ===============================================
  29:/home/baikal/workspace/C50/Huawei_IoT_Agent_Tiny_SDK_Linux//agent_tiny/lwm2m_client/object_server.c ****  * Huawei LiteOS may be subject to applicable export control laws and regulations, which might
  30:/home/baikal/workspace/C50/Huawei_IoT_Agent_Tiny_SDK_Linux//agent_tiny/lwm2m_client/object_server.c ****  * include those applicable to Huawei LiteOS of U.S. and the country in which you are located.
  31:/home/baikal/workspace/C50/Huawei_IoT_Agent_Tiny_SDK_Linux//agent_tiny/lwm2m_client/object_server.c ****  * Import, export and usage of Huawei LiteOS in any manner by you shall be in compliance with such
  32:/home/baikal/workspace/C50/Huawei_IoT_Agent_Tiny_SDK_Linux//agent_tiny/lwm2m_client/object_server.c ****  * applicable export control laws and regulations.
  33:/home/baikal/workspace/C50/Huawei_IoT_Agent_Tiny_SDK_Linux//agent_tiny/lwm2m_client/object_server.c ****  *---------------------------------------------------------------------------*/
  34:/home/baikal/workspace/C50/Huawei_IoT_Agent_Tiny_SDK_Linux//agent_tiny/lwm2m_client/object_server.c **** 
  35:/home/baikal/workspace/C50/Huawei_IoT_Agent_Tiny_SDK_Linux//agent_tiny/lwm2m_client/object_server.c **** /*******************************************************************************
  36:/home/baikal/workspace/C50/Huawei_IoT_Agent_Tiny_SDK_Linux//agent_tiny/lwm2m_client/object_server.c ****  *
  37:/home/baikal/workspace/C50/Huawei_IoT_Agent_Tiny_SDK_Linux//agent_tiny/lwm2m_client/object_server.c ****  * Copyright (c) 2013, 2014 Intel Corporation and others.
  38:/home/baikal/workspace/C50/Huawei_IoT_Agent_Tiny_SDK_Linux//agent_tiny/lwm2m_client/object_server.c ****  * All rights reserved. This program and the accompanying materials
  39:/home/baikal/workspace/C50/Huawei_IoT_Agent_Tiny_SDK_Linux//agent_tiny/lwm2m_client/object_server.c ****  * are made available under the terms of the Eclipse Public License v1.0
  40:/home/baikal/workspace/C50/Huawei_IoT_Agent_Tiny_SDK_Linux//agent_tiny/lwm2m_client/object_server.c ****  * and Eclipse Distribution License v1.0 which accompany this distribution.
  41:/home/baikal/workspace/C50/Huawei_IoT_Agent_Tiny_SDK_Linux//agent_tiny/lwm2m_client/object_server.c ****  *
  42:/home/baikal/workspace/C50/Huawei_IoT_Agent_Tiny_SDK_Linux//agent_tiny/lwm2m_client/object_server.c ****  * The Eclipse Public License is available at
  43:/home/baikal/workspace/C50/Huawei_IoT_Agent_Tiny_SDK_Linux//agent_tiny/lwm2m_client/object_server.c ****  *    http://www.eclipse.org/legal/epl-v10.html
  44:/home/baikal/workspace/C50/Huawei_IoT_Agent_Tiny_SDK_Linux//agent_tiny/lwm2m_client/object_server.c ****  * The Eclipse Distribution License is available at
  45:/home/baikal/workspace/C50/Huawei_IoT_Agent_Tiny_SDK_Linux//agent_tiny/lwm2m_client/object_server.c ****  *    http://www.eclipse.org/org/documents/edl-v10.php.
  46:/home/baikal/workspace/C50/Huawei_IoT_Agent_Tiny_SDK_Linux//agent_tiny/lwm2m_client/object_server.c ****  *
  47:/home/baikal/workspace/C50/Huawei_IoT_Agent_Tiny_SDK_Linux//agent_tiny/lwm2m_client/object_server.c ****  * Contributors:
  48:/home/baikal/workspace/C50/Huawei_IoT_Agent_Tiny_SDK_Linux//agent_tiny/lwm2m_client/object_server.c ****  *    David Navarro, Intel Corporation - initial API and implementation
  49:/home/baikal/workspace/C50/Huawei_IoT_Agent_Tiny_SDK_Linux//agent_tiny/lwm2m_client/object_server.c ****  *    Julien Vermillard, Sierra Wireless
  50:/home/baikal/workspace/C50/Huawei_IoT_Agent_Tiny_SDK_Linux//agent_tiny/lwm2m_client/object_server.c ****  *    Bosch Software Innovations GmbH - Please refer to git log
GAS LISTING /tmp/ccJJOyJ4.s 			page 2


  51:/home/baikal/workspace/C50/Huawei_IoT_Agent_Tiny_SDK_Linux//agent_tiny/lwm2m_client/object_server.c ****  *    Pascal Rieux - Please refer to git log
  52:/home/baikal/workspace/C50/Huawei_IoT_Agent_Tiny_SDK_Linux//agent_tiny/lwm2m_client/object_server.c ****  *
  53:/home/baikal/workspace/C50/Huawei_IoT_Agent_Tiny_SDK_Linux//agent_tiny/lwm2m_client/object_server.c ****  *******************************************************************************/
  54:/home/baikal/workspace/C50/Huawei_IoT_Agent_Tiny_SDK_Linux//agent_tiny/lwm2m_client/object_server.c **** 
  55:/home/baikal/workspace/C50/Huawei_IoT_Agent_Tiny_SDK_Linux//agent_tiny/lwm2m_client/object_server.c **** /*
  56:/home/baikal/workspace/C50/Huawei_IoT_Agent_Tiny_SDK_Linux//agent_tiny/lwm2m_client/object_server.c ****  *  Resources:
  57:/home/baikal/workspace/C50/Huawei_IoT_Agent_Tiny_SDK_Linux//agent_tiny/lwm2m_client/object_server.c ****  *
  58:/home/baikal/workspace/C50/Huawei_IoT_Agent_Tiny_SDK_Linux//agent_tiny/lwm2m_client/object_server.c ****  *          Name         | ID | Operations | Instances | Mandatory |  Type   |  Range  | Units |
  59:/home/baikal/workspace/C50/Huawei_IoT_Agent_Tiny_SDK_Linux//agent_tiny/lwm2m_client/object_server.c ****  *  Short ID             |  0 |     R      |  Single   |    Yes    | Integer | 1-65535 |       |
  60:/home/baikal/workspace/C50/Huawei_IoT_Agent_Tiny_SDK_Linux//agent_tiny/lwm2m_client/object_server.c ****  *  Lifetime             |  1 |    R/W     |  Single   |    Yes    | Integer |         |   s   |
  61:/home/baikal/workspace/C50/Huawei_IoT_Agent_Tiny_SDK_Linux//agent_tiny/lwm2m_client/object_server.c ****  *  Default Min Period   |  2 |    R/W     |  Single   |    No     | Integer |         |   s   |
  62:/home/baikal/workspace/C50/Huawei_IoT_Agent_Tiny_SDK_Linux//agent_tiny/lwm2m_client/object_server.c ****  *  Default Max Period   |  3 |    R/W     |  Single   |    No     | Integer |         |   s   |
  63:/home/baikal/workspace/C50/Huawei_IoT_Agent_Tiny_SDK_Linux//agent_tiny/lwm2m_client/object_server.c ****  *  Disable              |  4 |     E      |  Single   |    No     |         |         |       |
  64:/home/baikal/workspace/C50/Huawei_IoT_Agent_Tiny_SDK_Linux//agent_tiny/lwm2m_client/object_server.c ****  *  Disable Timeout      |  5 |    R/W     |  Single   |    No     | Integer |         |   s   |
  65:/home/baikal/workspace/C50/Huawei_IoT_Agent_Tiny_SDK_Linux//agent_tiny/lwm2m_client/object_server.c ****  *  Notification Storing |  6 |    R/W     |  Single   |    Yes    | Boolean |         |       |
  66:/home/baikal/workspace/C50/Huawei_IoT_Agent_Tiny_SDK_Linux//agent_tiny/lwm2m_client/object_server.c ****  *  Binding              |  7 |    R/W     |  Single   |    Yes    | String  |         |       |
  67:/home/baikal/workspace/C50/Huawei_IoT_Agent_Tiny_SDK_Linux//agent_tiny/lwm2m_client/object_server.c ****  *  Registration Update  |  8 |     E      |  Single   |    Yes    |         |         |       |
  68:/home/baikal/workspace/C50/Huawei_IoT_Agent_Tiny_SDK_Linux//agent_tiny/lwm2m_client/object_server.c ****  *
  69:/home/baikal/workspace/C50/Huawei_IoT_Agent_Tiny_SDK_Linux//agent_tiny/lwm2m_client/object_server.c ****  */
  70:/home/baikal/workspace/C50/Huawei_IoT_Agent_Tiny_SDK_Linux//agent_tiny/lwm2m_client/object_server.c **** 
  71:/home/baikal/workspace/C50/Huawei_IoT_Agent_Tiny_SDK_Linux//agent_tiny/lwm2m_client/object_server.c **** #include "internals.h"
  72:/home/baikal/workspace/C50/Huawei_IoT_Agent_Tiny_SDK_Linux//agent_tiny/lwm2m_client/object_server.c **** #include "object_comm.h"
  73:/home/baikal/workspace/C50/Huawei_IoT_Agent_Tiny_SDK_Linux//agent_tiny/lwm2m_client/object_server.c **** 
  74:/home/baikal/workspace/C50/Huawei_IoT_Agent_Tiny_SDK_Linux//agent_tiny/lwm2m_client/object_server.c **** typedef struct _server_instance_
  75:/home/baikal/workspace/C50/Huawei_IoT_Agent_Tiny_SDK_Linux//agent_tiny/lwm2m_client/object_server.c **** {
  76:/home/baikal/workspace/C50/Huawei_IoT_Agent_Tiny_SDK_Linux//agent_tiny/lwm2m_client/object_server.c ****     struct _server_instance_ *next;    // matches lwm2m_list_t::next
  77:/home/baikal/workspace/C50/Huawei_IoT_Agent_Tiny_SDK_Linux//agent_tiny/lwm2m_client/object_server.c ****     uint16_t    instanceId;            // matches lwm2m_list_t::id
  78:/home/baikal/workspace/C50/Huawei_IoT_Agent_Tiny_SDK_Linux//agent_tiny/lwm2m_client/object_server.c ****     uint16_t    shortServerId;
  79:/home/baikal/workspace/C50/Huawei_IoT_Agent_Tiny_SDK_Linux//agent_tiny/lwm2m_client/object_server.c ****     uint32_t    lifetime;
  80:/home/baikal/workspace/C50/Huawei_IoT_Agent_Tiny_SDK_Linux//agent_tiny/lwm2m_client/object_server.c ****     uint32_t    defaultMinPeriod;
  81:/home/baikal/workspace/C50/Huawei_IoT_Agent_Tiny_SDK_Linux//agent_tiny/lwm2m_client/object_server.c ****     uint32_t    defaultMaxPeriod;
  82:/home/baikal/workspace/C50/Huawei_IoT_Agent_Tiny_SDK_Linux//agent_tiny/lwm2m_client/object_server.c ****     uint32_t    disableTimeout;
  83:/home/baikal/workspace/C50/Huawei_IoT_Agent_Tiny_SDK_Linux//agent_tiny/lwm2m_client/object_server.c ****     bool        storing;
  84:/home/baikal/workspace/C50/Huawei_IoT_Agent_Tiny_SDK_Linux//agent_tiny/lwm2m_client/object_server.c ****     char        binding[4];
  85:/home/baikal/workspace/C50/Huawei_IoT_Agent_Tiny_SDK_Linux//agent_tiny/lwm2m_client/object_server.c **** } server_instance_t;
  86:/home/baikal/workspace/C50/Huawei_IoT_Agent_Tiny_SDK_Linux//agent_tiny/lwm2m_client/object_server.c **** 
  87:/home/baikal/workspace/C50/Huawei_IoT_Agent_Tiny_SDK_Linux//agent_tiny/lwm2m_client/object_server.c **** static uint8_t prv_get_value(lwm2m_data_t *dataP,
  88:/home/baikal/workspace/C50/Huawei_IoT_Agent_Tiny_SDK_Linux//agent_tiny/lwm2m_client/object_server.c ****                              server_instance_t *targetP)
  89:/home/baikal/workspace/C50/Huawei_IoT_Agent_Tiny_SDK_Linux//agent_tiny/lwm2m_client/object_server.c **** {
  90:/home/baikal/workspace/C50/Huawei_IoT_Agent_Tiny_SDK_Linux//agent_tiny/lwm2m_client/object_server.c ****     switch (dataP->id)
  91:/home/baikal/workspace/C50/Huawei_IoT_Agent_Tiny_SDK_Linux//agent_tiny/lwm2m_client/object_server.c ****     {
  92:/home/baikal/workspace/C50/Huawei_IoT_Agent_Tiny_SDK_Linux//agent_tiny/lwm2m_client/object_server.c ****     case LWM2M_SERVER_SHORT_ID_ID:
  93:/home/baikal/workspace/C50/Huawei_IoT_Agent_Tiny_SDK_Linux//agent_tiny/lwm2m_client/object_server.c ****         lwm2m_data_encode_int(targetP->shortServerId, dataP);
  94:/home/baikal/workspace/C50/Huawei_IoT_Agent_Tiny_SDK_Linux//agent_tiny/lwm2m_client/object_server.c ****         return COAP_205_CONTENT;
  95:/home/baikal/workspace/C50/Huawei_IoT_Agent_Tiny_SDK_Linux//agent_tiny/lwm2m_client/object_server.c **** 
  96:/home/baikal/workspace/C50/Huawei_IoT_Agent_Tiny_SDK_Linux//agent_tiny/lwm2m_client/object_server.c ****     case LWM2M_SERVER_LIFETIME_ID:
  97:/home/baikal/workspace/C50/Huawei_IoT_Agent_Tiny_SDK_Linux//agent_tiny/lwm2m_client/object_server.c ****         lwm2m_data_encode_int(targetP->lifetime, dataP);
  98:/home/baikal/workspace/C50/Huawei_IoT_Agent_Tiny_SDK_Linux//agent_tiny/lwm2m_client/object_server.c ****         return COAP_205_CONTENT;
  99:/home/baikal/workspace/C50/Huawei_IoT_Agent_Tiny_SDK_Linux//agent_tiny/lwm2m_client/object_server.c **** 
 100:/home/baikal/workspace/C50/Huawei_IoT_Agent_Tiny_SDK_Linux//agent_tiny/lwm2m_client/object_server.c ****     case LWM2M_SERVER_MIN_PERIOD_ID:
 101:/home/baikal/workspace/C50/Huawei_IoT_Agent_Tiny_SDK_Linux//agent_tiny/lwm2m_client/object_server.c ****         lwm2m_data_encode_int(targetP->defaultMinPeriod, dataP);
 102:/home/baikal/workspace/C50/Huawei_IoT_Agent_Tiny_SDK_Linux//agent_tiny/lwm2m_client/object_server.c ****         return COAP_205_CONTENT;
 103:/home/baikal/workspace/C50/Huawei_IoT_Agent_Tiny_SDK_Linux//agent_tiny/lwm2m_client/object_server.c **** 
 104:/home/baikal/workspace/C50/Huawei_IoT_Agent_Tiny_SDK_Linux//agent_tiny/lwm2m_client/object_server.c ****     case LWM2M_SERVER_MAX_PERIOD_ID:
 105:/home/baikal/workspace/C50/Huawei_IoT_Agent_Tiny_SDK_Linux//agent_tiny/lwm2m_client/object_server.c ****         lwm2m_data_encode_int(targetP->defaultMaxPeriod, dataP);
 106:/home/baikal/workspace/C50/Huawei_IoT_Agent_Tiny_SDK_Linux//agent_tiny/lwm2m_client/object_server.c ****         return COAP_205_CONTENT;
 107:/home/baikal/workspace/C50/Huawei_IoT_Agent_Tiny_SDK_Linux//agent_tiny/lwm2m_client/object_server.c **** 
GAS LISTING /tmp/ccJJOyJ4.s 			page 3


 108:/home/baikal/workspace/C50/Huawei_IoT_Agent_Tiny_SDK_Linux//agent_tiny/lwm2m_client/object_server.c ****     case LWM2M_SERVER_DISABLE_ID:
 109:/home/baikal/workspace/C50/Huawei_IoT_Agent_Tiny_SDK_Linux//agent_tiny/lwm2m_client/object_server.c ****         return COAP_405_METHOD_NOT_ALLOWED;
 110:/home/baikal/workspace/C50/Huawei_IoT_Agent_Tiny_SDK_Linux//agent_tiny/lwm2m_client/object_server.c **** 
 111:/home/baikal/workspace/C50/Huawei_IoT_Agent_Tiny_SDK_Linux//agent_tiny/lwm2m_client/object_server.c ****     case LWM2M_SERVER_TIMEOUT_ID:
 112:/home/baikal/workspace/C50/Huawei_IoT_Agent_Tiny_SDK_Linux//agent_tiny/lwm2m_client/object_server.c ****         lwm2m_data_encode_int(targetP->disableTimeout, dataP);
 113:/home/baikal/workspace/C50/Huawei_IoT_Agent_Tiny_SDK_Linux//agent_tiny/lwm2m_client/object_server.c ****         return COAP_205_CONTENT;
 114:/home/baikal/workspace/C50/Huawei_IoT_Agent_Tiny_SDK_Linux//agent_tiny/lwm2m_client/object_server.c **** 
 115:/home/baikal/workspace/C50/Huawei_IoT_Agent_Tiny_SDK_Linux//agent_tiny/lwm2m_client/object_server.c ****     case LWM2M_SERVER_STORING_ID:
 116:/home/baikal/workspace/C50/Huawei_IoT_Agent_Tiny_SDK_Linux//agent_tiny/lwm2m_client/object_server.c ****         lwm2m_data_encode_bool(targetP->storing, dataP);
 117:/home/baikal/workspace/C50/Huawei_IoT_Agent_Tiny_SDK_Linux//agent_tiny/lwm2m_client/object_server.c ****         return COAP_205_CONTENT;
 118:/home/baikal/workspace/C50/Huawei_IoT_Agent_Tiny_SDK_Linux//agent_tiny/lwm2m_client/object_server.c **** 
 119:/home/baikal/workspace/C50/Huawei_IoT_Agent_Tiny_SDK_Linux//agent_tiny/lwm2m_client/object_server.c ****     case LWM2M_SERVER_BINDING_ID:
 120:/home/baikal/workspace/C50/Huawei_IoT_Agent_Tiny_SDK_Linux//agent_tiny/lwm2m_client/object_server.c ****         lwm2m_data_encode_string(targetP->binding, dataP);
 121:/home/baikal/workspace/C50/Huawei_IoT_Agent_Tiny_SDK_Linux//agent_tiny/lwm2m_client/object_server.c ****         return COAP_205_CONTENT;
 122:/home/baikal/workspace/C50/Huawei_IoT_Agent_Tiny_SDK_Linux//agent_tiny/lwm2m_client/object_server.c **** 
 123:/home/baikal/workspace/C50/Huawei_IoT_Agent_Tiny_SDK_Linux//agent_tiny/lwm2m_client/object_server.c ****     case LWM2M_SERVER_UPDATE_ID:
 124:/home/baikal/workspace/C50/Huawei_IoT_Agent_Tiny_SDK_Linux//agent_tiny/lwm2m_client/object_server.c ****         return COAP_405_METHOD_NOT_ALLOWED;
 125:/home/baikal/workspace/C50/Huawei_IoT_Agent_Tiny_SDK_Linux//agent_tiny/lwm2m_client/object_server.c **** 
 126:/home/baikal/workspace/C50/Huawei_IoT_Agent_Tiny_SDK_Linux//agent_tiny/lwm2m_client/object_server.c ****     default:
 127:/home/baikal/workspace/C50/Huawei_IoT_Agent_Tiny_SDK_Linux//agent_tiny/lwm2m_client/object_server.c ****         return COAP_404_NOT_FOUND;
 128:/home/baikal/workspace/C50/Huawei_IoT_Agent_Tiny_SDK_Linux//agent_tiny/lwm2m_client/object_server.c ****     }
 129:/home/baikal/workspace/C50/Huawei_IoT_Agent_Tiny_SDK_Linux//agent_tiny/lwm2m_client/object_server.c **** }
 130:/home/baikal/workspace/C50/Huawei_IoT_Agent_Tiny_SDK_Linux//agent_tiny/lwm2m_client/object_server.c **** 
 131:/home/baikal/workspace/C50/Huawei_IoT_Agent_Tiny_SDK_Linux//agent_tiny/lwm2m_client/object_server.c **** static uint8_t prv_server_read(uint16_t instanceId,
 132:/home/baikal/workspace/C50/Huawei_IoT_Agent_Tiny_SDK_Linux//agent_tiny/lwm2m_client/object_server.c ****                                int *numDataP,
 133:/home/baikal/workspace/C50/Huawei_IoT_Agent_Tiny_SDK_Linux//agent_tiny/lwm2m_client/object_server.c ****                                lwm2m_data_t **dataArrayP,
 134:/home/baikal/workspace/C50/Huawei_IoT_Agent_Tiny_SDK_Linux//agent_tiny/lwm2m_client/object_server.c ****                                lwm2m_data_cfg_t *dataCfg,
 135:/home/baikal/workspace/C50/Huawei_IoT_Agent_Tiny_SDK_Linux//agent_tiny/lwm2m_client/object_server.c ****                                lwm2m_object_t *objectP)
 136:/home/baikal/workspace/C50/Huawei_IoT_Agent_Tiny_SDK_Linux//agent_tiny/lwm2m_client/object_server.c **** {
 137:/home/baikal/workspace/C50/Huawei_IoT_Agent_Tiny_SDK_Linux//agent_tiny/lwm2m_client/object_server.c ****     server_instance_t *targetP;
 138:/home/baikal/workspace/C50/Huawei_IoT_Agent_Tiny_SDK_Linux//agent_tiny/lwm2m_client/object_server.c ****     uint8_t result;
 139:/home/baikal/workspace/C50/Huawei_IoT_Agent_Tiny_SDK_Linux//agent_tiny/lwm2m_client/object_server.c ****     int i;
 140:/home/baikal/workspace/C50/Huawei_IoT_Agent_Tiny_SDK_Linux//agent_tiny/lwm2m_client/object_server.c **** 
 141:/home/baikal/workspace/C50/Huawei_IoT_Agent_Tiny_SDK_Linux//agent_tiny/lwm2m_client/object_server.c ****     targetP = (server_instance_t *)lwm2m_list_find(objectP->instanceList, instanceId);
 142:/home/baikal/workspace/C50/Huawei_IoT_Agent_Tiny_SDK_Linux//agent_tiny/lwm2m_client/object_server.c ****     if (NULL == targetP) return COAP_404_NOT_FOUND;
 143:/home/baikal/workspace/C50/Huawei_IoT_Agent_Tiny_SDK_Linux//agent_tiny/lwm2m_client/object_server.c **** 
 144:/home/baikal/workspace/C50/Huawei_IoT_Agent_Tiny_SDK_Linux//agent_tiny/lwm2m_client/object_server.c ****     // is the server asking for the full instance ?
 145:/home/baikal/workspace/C50/Huawei_IoT_Agent_Tiny_SDK_Linux//agent_tiny/lwm2m_client/object_server.c ****     if (*numDataP == 0)
 146:/home/baikal/workspace/C50/Huawei_IoT_Agent_Tiny_SDK_Linux//agent_tiny/lwm2m_client/object_server.c ****     {
 147:/home/baikal/workspace/C50/Huawei_IoT_Agent_Tiny_SDK_Linux//agent_tiny/lwm2m_client/object_server.c ****         uint16_t resList[] =
 148:/home/baikal/workspace/C50/Huawei_IoT_Agent_Tiny_SDK_Linux//agent_tiny/lwm2m_client/object_server.c ****         {
 149:/home/baikal/workspace/C50/Huawei_IoT_Agent_Tiny_SDK_Linux//agent_tiny/lwm2m_client/object_server.c ****             LWM2M_SERVER_SHORT_ID_ID,
 150:/home/baikal/workspace/C50/Huawei_IoT_Agent_Tiny_SDK_Linux//agent_tiny/lwm2m_client/object_server.c ****             LWM2M_SERVER_LIFETIME_ID,
 151:/home/baikal/workspace/C50/Huawei_IoT_Agent_Tiny_SDK_Linux//agent_tiny/lwm2m_client/object_server.c ****             LWM2M_SERVER_MIN_PERIOD_ID,
 152:/home/baikal/workspace/C50/Huawei_IoT_Agent_Tiny_SDK_Linux//agent_tiny/lwm2m_client/object_server.c ****             LWM2M_SERVER_MAX_PERIOD_ID,
 153:/home/baikal/workspace/C50/Huawei_IoT_Agent_Tiny_SDK_Linux//agent_tiny/lwm2m_client/object_server.c ****             LWM2M_SERVER_TIMEOUT_ID,
 154:/home/baikal/workspace/C50/Huawei_IoT_Agent_Tiny_SDK_Linux//agent_tiny/lwm2m_client/object_server.c ****             LWM2M_SERVER_STORING_ID,
 155:/home/baikal/workspace/C50/Huawei_IoT_Agent_Tiny_SDK_Linux//agent_tiny/lwm2m_client/object_server.c ****             LWM2M_SERVER_BINDING_ID
 156:/home/baikal/workspace/C50/Huawei_IoT_Agent_Tiny_SDK_Linux//agent_tiny/lwm2m_client/object_server.c ****         };
 157:/home/baikal/workspace/C50/Huawei_IoT_Agent_Tiny_SDK_Linux//agent_tiny/lwm2m_client/object_server.c ****         int nbRes = sizeof(resList) / sizeof(uint16_t);
 158:/home/baikal/workspace/C50/Huawei_IoT_Agent_Tiny_SDK_Linux//agent_tiny/lwm2m_client/object_server.c **** 
 159:/home/baikal/workspace/C50/Huawei_IoT_Agent_Tiny_SDK_Linux//agent_tiny/lwm2m_client/object_server.c ****         *dataArrayP = lwm2m_data_new(nbRes);
 160:/home/baikal/workspace/C50/Huawei_IoT_Agent_Tiny_SDK_Linux//agent_tiny/lwm2m_client/object_server.c ****         if (*dataArrayP == NULL) return COAP_500_INTERNAL_SERVER_ERROR;
 161:/home/baikal/workspace/C50/Huawei_IoT_Agent_Tiny_SDK_Linux//agent_tiny/lwm2m_client/object_server.c ****         *numDataP = nbRes;
 162:/home/baikal/workspace/C50/Huawei_IoT_Agent_Tiny_SDK_Linux//agent_tiny/lwm2m_client/object_server.c ****         for (i = 0 ; i < nbRes ; i++)
 163:/home/baikal/workspace/C50/Huawei_IoT_Agent_Tiny_SDK_Linux//agent_tiny/lwm2m_client/object_server.c ****         {
 164:/home/baikal/workspace/C50/Huawei_IoT_Agent_Tiny_SDK_Linux//agent_tiny/lwm2m_client/object_server.c ****             (*dataArrayP)[i].id = resList[i];
GAS LISTING /tmp/ccJJOyJ4.s 			page 4


 165:/home/baikal/workspace/C50/Huawei_IoT_Agent_Tiny_SDK_Linux//agent_tiny/lwm2m_client/object_server.c ****         }
 166:/home/baikal/workspace/C50/Huawei_IoT_Agent_Tiny_SDK_Linux//agent_tiny/lwm2m_client/object_server.c ****     }
 167:/home/baikal/workspace/C50/Huawei_IoT_Agent_Tiny_SDK_Linux//agent_tiny/lwm2m_client/object_server.c **** 
 168:/home/baikal/workspace/C50/Huawei_IoT_Agent_Tiny_SDK_Linux//agent_tiny/lwm2m_client/object_server.c ****     i = 0;
 169:/home/baikal/workspace/C50/Huawei_IoT_Agent_Tiny_SDK_Linux//agent_tiny/lwm2m_client/object_server.c ****     do
 170:/home/baikal/workspace/C50/Huawei_IoT_Agent_Tiny_SDK_Linux//agent_tiny/lwm2m_client/object_server.c ****     {
 171:/home/baikal/workspace/C50/Huawei_IoT_Agent_Tiny_SDK_Linux//agent_tiny/lwm2m_client/object_server.c ****         result = prv_get_value((*dataArrayP) + i, targetP);
 172:/home/baikal/workspace/C50/Huawei_IoT_Agent_Tiny_SDK_Linux//agent_tiny/lwm2m_client/object_server.c ****         i++;
 173:/home/baikal/workspace/C50/Huawei_IoT_Agent_Tiny_SDK_Linux//agent_tiny/lwm2m_client/object_server.c ****     }
 174:/home/baikal/workspace/C50/Huawei_IoT_Agent_Tiny_SDK_Linux//agent_tiny/lwm2m_client/object_server.c ****     while (i < *numDataP && result == COAP_205_CONTENT);
 175:/home/baikal/workspace/C50/Huawei_IoT_Agent_Tiny_SDK_Linux//agent_tiny/lwm2m_client/object_server.c **** 
 176:/home/baikal/workspace/C50/Huawei_IoT_Agent_Tiny_SDK_Linux//agent_tiny/lwm2m_client/object_server.c ****     return result;
 177:/home/baikal/workspace/C50/Huawei_IoT_Agent_Tiny_SDK_Linux//agent_tiny/lwm2m_client/object_server.c **** }
 178:/home/baikal/workspace/C50/Huawei_IoT_Agent_Tiny_SDK_Linux//agent_tiny/lwm2m_client/object_server.c **** 
 179:/home/baikal/workspace/C50/Huawei_IoT_Agent_Tiny_SDK_Linux//agent_tiny/lwm2m_client/object_server.c **** static uint8_t prv_server_discover(uint16_t instanceId,
 180:/home/baikal/workspace/C50/Huawei_IoT_Agent_Tiny_SDK_Linux//agent_tiny/lwm2m_client/object_server.c ****                                    int *numDataP,
 181:/home/baikal/workspace/C50/Huawei_IoT_Agent_Tiny_SDK_Linux//agent_tiny/lwm2m_client/object_server.c ****                                    lwm2m_data_t **dataArrayP,
 182:/home/baikal/workspace/C50/Huawei_IoT_Agent_Tiny_SDK_Linux//agent_tiny/lwm2m_client/object_server.c ****                                    lwm2m_object_t *objectP)
 183:/home/baikal/workspace/C50/Huawei_IoT_Agent_Tiny_SDK_Linux//agent_tiny/lwm2m_client/object_server.c **** {
 184:/home/baikal/workspace/C50/Huawei_IoT_Agent_Tiny_SDK_Linux//agent_tiny/lwm2m_client/object_server.c ****     uint8_t result;
 185:/home/baikal/workspace/C50/Huawei_IoT_Agent_Tiny_SDK_Linux//agent_tiny/lwm2m_client/object_server.c ****     int i;
 186:/home/baikal/workspace/C50/Huawei_IoT_Agent_Tiny_SDK_Linux//agent_tiny/lwm2m_client/object_server.c **** 
 187:/home/baikal/workspace/C50/Huawei_IoT_Agent_Tiny_SDK_Linux//agent_tiny/lwm2m_client/object_server.c ****     result = COAP_205_CONTENT;
 188:/home/baikal/workspace/C50/Huawei_IoT_Agent_Tiny_SDK_Linux//agent_tiny/lwm2m_client/object_server.c **** 
 189:/home/baikal/workspace/C50/Huawei_IoT_Agent_Tiny_SDK_Linux//agent_tiny/lwm2m_client/object_server.c ****     // is the server asking for the full object ?
 190:/home/baikal/workspace/C50/Huawei_IoT_Agent_Tiny_SDK_Linux//agent_tiny/lwm2m_client/object_server.c ****     if (*numDataP == 0)
 191:/home/baikal/workspace/C50/Huawei_IoT_Agent_Tiny_SDK_Linux//agent_tiny/lwm2m_client/object_server.c ****     {
 192:/home/baikal/workspace/C50/Huawei_IoT_Agent_Tiny_SDK_Linux//agent_tiny/lwm2m_client/object_server.c ****         uint16_t resList[] =
 193:/home/baikal/workspace/C50/Huawei_IoT_Agent_Tiny_SDK_Linux//agent_tiny/lwm2m_client/object_server.c ****         {
 194:/home/baikal/workspace/C50/Huawei_IoT_Agent_Tiny_SDK_Linux//agent_tiny/lwm2m_client/object_server.c ****             LWM2M_SERVER_SHORT_ID_ID,
 195:/home/baikal/workspace/C50/Huawei_IoT_Agent_Tiny_SDK_Linux//agent_tiny/lwm2m_client/object_server.c ****             LWM2M_SERVER_LIFETIME_ID,
 196:/home/baikal/workspace/C50/Huawei_IoT_Agent_Tiny_SDK_Linux//agent_tiny/lwm2m_client/object_server.c ****             LWM2M_SERVER_MIN_PERIOD_ID,
 197:/home/baikal/workspace/C50/Huawei_IoT_Agent_Tiny_SDK_Linux//agent_tiny/lwm2m_client/object_server.c ****             LWM2M_SERVER_MAX_PERIOD_ID,
 198:/home/baikal/workspace/C50/Huawei_IoT_Agent_Tiny_SDK_Linux//agent_tiny/lwm2m_client/object_server.c ****             LWM2M_SERVER_DISABLE_ID,
 199:/home/baikal/workspace/C50/Huawei_IoT_Agent_Tiny_SDK_Linux//agent_tiny/lwm2m_client/object_server.c ****             LWM2M_SERVER_TIMEOUT_ID,
 200:/home/baikal/workspace/C50/Huawei_IoT_Agent_Tiny_SDK_Linux//agent_tiny/lwm2m_client/object_server.c ****             LWM2M_SERVER_STORING_ID,
 201:/home/baikal/workspace/C50/Huawei_IoT_Agent_Tiny_SDK_Linux//agent_tiny/lwm2m_client/object_server.c ****             LWM2M_SERVER_BINDING_ID,
 202:/home/baikal/workspace/C50/Huawei_IoT_Agent_Tiny_SDK_Linux//agent_tiny/lwm2m_client/object_server.c ****             LWM2M_SERVER_UPDATE_ID
 203:/home/baikal/workspace/C50/Huawei_IoT_Agent_Tiny_SDK_Linux//agent_tiny/lwm2m_client/object_server.c ****         };
 204:/home/baikal/workspace/C50/Huawei_IoT_Agent_Tiny_SDK_Linux//agent_tiny/lwm2m_client/object_server.c ****         int nbRes = sizeof(resList) / sizeof(uint16_t);
 205:/home/baikal/workspace/C50/Huawei_IoT_Agent_Tiny_SDK_Linux//agent_tiny/lwm2m_client/object_server.c **** 
 206:/home/baikal/workspace/C50/Huawei_IoT_Agent_Tiny_SDK_Linux//agent_tiny/lwm2m_client/object_server.c ****         *dataArrayP = lwm2m_data_new(nbRes);
 207:/home/baikal/workspace/C50/Huawei_IoT_Agent_Tiny_SDK_Linux//agent_tiny/lwm2m_client/object_server.c ****         if (*dataArrayP == NULL) return COAP_500_INTERNAL_SERVER_ERROR;
 208:/home/baikal/workspace/C50/Huawei_IoT_Agent_Tiny_SDK_Linux//agent_tiny/lwm2m_client/object_server.c ****         *numDataP = nbRes;
 209:/home/baikal/workspace/C50/Huawei_IoT_Agent_Tiny_SDK_Linux//agent_tiny/lwm2m_client/object_server.c ****         for (i = 0; i < nbRes; i++)
 210:/home/baikal/workspace/C50/Huawei_IoT_Agent_Tiny_SDK_Linux//agent_tiny/lwm2m_client/object_server.c ****         {
 211:/home/baikal/workspace/C50/Huawei_IoT_Agent_Tiny_SDK_Linux//agent_tiny/lwm2m_client/object_server.c ****             (*dataArrayP)[i].id = resList[i];
 212:/home/baikal/workspace/C50/Huawei_IoT_Agent_Tiny_SDK_Linux//agent_tiny/lwm2m_client/object_server.c ****         }
 213:/home/baikal/workspace/C50/Huawei_IoT_Agent_Tiny_SDK_Linux//agent_tiny/lwm2m_client/object_server.c ****     }
 214:/home/baikal/workspace/C50/Huawei_IoT_Agent_Tiny_SDK_Linux//agent_tiny/lwm2m_client/object_server.c ****     else
 215:/home/baikal/workspace/C50/Huawei_IoT_Agent_Tiny_SDK_Linux//agent_tiny/lwm2m_client/object_server.c ****     {
 216:/home/baikal/workspace/C50/Huawei_IoT_Agent_Tiny_SDK_Linux//agent_tiny/lwm2m_client/object_server.c ****         for (i = 0; i < *numDataP && result == COAP_205_CONTENT; i++)
 217:/home/baikal/workspace/C50/Huawei_IoT_Agent_Tiny_SDK_Linux//agent_tiny/lwm2m_client/object_server.c ****         {
 218:/home/baikal/workspace/C50/Huawei_IoT_Agent_Tiny_SDK_Linux//agent_tiny/lwm2m_client/object_server.c ****             switch ((*dataArrayP)[i].id)
 219:/home/baikal/workspace/C50/Huawei_IoT_Agent_Tiny_SDK_Linux//agent_tiny/lwm2m_client/object_server.c ****             {
 220:/home/baikal/workspace/C50/Huawei_IoT_Agent_Tiny_SDK_Linux//agent_tiny/lwm2m_client/object_server.c ****             case LWM2M_SERVER_SHORT_ID_ID:
 221:/home/baikal/workspace/C50/Huawei_IoT_Agent_Tiny_SDK_Linux//agent_tiny/lwm2m_client/object_server.c ****             case LWM2M_SERVER_LIFETIME_ID:
GAS LISTING /tmp/ccJJOyJ4.s 			page 5


 222:/home/baikal/workspace/C50/Huawei_IoT_Agent_Tiny_SDK_Linux//agent_tiny/lwm2m_client/object_server.c ****             case LWM2M_SERVER_MIN_PERIOD_ID:
 223:/home/baikal/workspace/C50/Huawei_IoT_Agent_Tiny_SDK_Linux//agent_tiny/lwm2m_client/object_server.c ****             case LWM2M_SERVER_MAX_PERIOD_ID:
 224:/home/baikal/workspace/C50/Huawei_IoT_Agent_Tiny_SDK_Linux//agent_tiny/lwm2m_client/object_server.c ****             case LWM2M_SERVER_DISABLE_ID:
 225:/home/baikal/workspace/C50/Huawei_IoT_Agent_Tiny_SDK_Linux//agent_tiny/lwm2m_client/object_server.c ****             case LWM2M_SERVER_TIMEOUT_ID:
 226:/home/baikal/workspace/C50/Huawei_IoT_Agent_Tiny_SDK_Linux//agent_tiny/lwm2m_client/object_server.c ****             case LWM2M_SERVER_STORING_ID:
 227:/home/baikal/workspace/C50/Huawei_IoT_Agent_Tiny_SDK_Linux//agent_tiny/lwm2m_client/object_server.c ****             case LWM2M_SERVER_BINDING_ID:
 228:/home/baikal/workspace/C50/Huawei_IoT_Agent_Tiny_SDK_Linux//agent_tiny/lwm2m_client/object_server.c ****             case LWM2M_SERVER_UPDATE_ID:
 229:/home/baikal/workspace/C50/Huawei_IoT_Agent_Tiny_SDK_Linux//agent_tiny/lwm2m_client/object_server.c ****                 break;
 230:/home/baikal/workspace/C50/Huawei_IoT_Agent_Tiny_SDK_Linux//agent_tiny/lwm2m_client/object_server.c ****             default:
 231:/home/baikal/workspace/C50/Huawei_IoT_Agent_Tiny_SDK_Linux//agent_tiny/lwm2m_client/object_server.c ****                 result = COAP_404_NOT_FOUND;
 232:/home/baikal/workspace/C50/Huawei_IoT_Agent_Tiny_SDK_Linux//agent_tiny/lwm2m_client/object_server.c ****             }
 233:/home/baikal/workspace/C50/Huawei_IoT_Agent_Tiny_SDK_Linux//agent_tiny/lwm2m_client/object_server.c ****         }
 234:/home/baikal/workspace/C50/Huawei_IoT_Agent_Tiny_SDK_Linux//agent_tiny/lwm2m_client/object_server.c ****     }
 235:/home/baikal/workspace/C50/Huawei_IoT_Agent_Tiny_SDK_Linux//agent_tiny/lwm2m_client/object_server.c **** 
 236:/home/baikal/workspace/C50/Huawei_IoT_Agent_Tiny_SDK_Linux//agent_tiny/lwm2m_client/object_server.c ****     return result;
 237:/home/baikal/workspace/C50/Huawei_IoT_Agent_Tiny_SDK_Linux//agent_tiny/lwm2m_client/object_server.c **** }
 238:/home/baikal/workspace/C50/Huawei_IoT_Agent_Tiny_SDK_Linux//agent_tiny/lwm2m_client/object_server.c **** 
 239:/home/baikal/workspace/C50/Huawei_IoT_Agent_Tiny_SDK_Linux//agent_tiny/lwm2m_client/object_server.c **** static uint8_t prv_set_int_value(lwm2m_data_t *dataArray, uint32_t *data)
 240:/home/baikal/workspace/C50/Huawei_IoT_Agent_Tiny_SDK_Linux//agent_tiny/lwm2m_client/object_server.c **** {
 241:/home/baikal/workspace/C50/Huawei_IoT_Agent_Tiny_SDK_Linux//agent_tiny/lwm2m_client/object_server.c ****     uint8_t result;
 242:/home/baikal/workspace/C50/Huawei_IoT_Agent_Tiny_SDK_Linux//agent_tiny/lwm2m_client/object_server.c ****     int64_t value;
 243:/home/baikal/workspace/C50/Huawei_IoT_Agent_Tiny_SDK_Linux//agent_tiny/lwm2m_client/object_server.c **** 
 244:/home/baikal/workspace/C50/Huawei_IoT_Agent_Tiny_SDK_Linux//agent_tiny/lwm2m_client/object_server.c ****     if (1 == lwm2m_data_decode_int(dataArray, &value))
 245:/home/baikal/workspace/C50/Huawei_IoT_Agent_Tiny_SDK_Linux//agent_tiny/lwm2m_client/object_server.c ****     {
 246:/home/baikal/workspace/C50/Huawei_IoT_Agent_Tiny_SDK_Linux//agent_tiny/lwm2m_client/object_server.c ****         if (value >= 0 && value <= 0xFFFFFFFF)
 247:/home/baikal/workspace/C50/Huawei_IoT_Agent_Tiny_SDK_Linux//agent_tiny/lwm2m_client/object_server.c ****         {
 248:/home/baikal/workspace/C50/Huawei_IoT_Agent_Tiny_SDK_Linux//agent_tiny/lwm2m_client/object_server.c ****             *data = value;
 249:/home/baikal/workspace/C50/Huawei_IoT_Agent_Tiny_SDK_Linux//agent_tiny/lwm2m_client/object_server.c ****             result = COAP_204_CHANGED;
 250:/home/baikal/workspace/C50/Huawei_IoT_Agent_Tiny_SDK_Linux//agent_tiny/lwm2m_client/object_server.c ****         }
 251:/home/baikal/workspace/C50/Huawei_IoT_Agent_Tiny_SDK_Linux//agent_tiny/lwm2m_client/object_server.c ****         else
 252:/home/baikal/workspace/C50/Huawei_IoT_Agent_Tiny_SDK_Linux//agent_tiny/lwm2m_client/object_server.c ****         {
 253:/home/baikal/workspace/C50/Huawei_IoT_Agent_Tiny_SDK_Linux//agent_tiny/lwm2m_client/object_server.c ****             result = COAP_406_NOT_ACCEPTABLE;
 254:/home/baikal/workspace/C50/Huawei_IoT_Agent_Tiny_SDK_Linux//agent_tiny/lwm2m_client/object_server.c ****         }
 255:/home/baikal/workspace/C50/Huawei_IoT_Agent_Tiny_SDK_Linux//agent_tiny/lwm2m_client/object_server.c ****     }
 256:/home/baikal/workspace/C50/Huawei_IoT_Agent_Tiny_SDK_Linux//agent_tiny/lwm2m_client/object_server.c ****     else
 257:/home/baikal/workspace/C50/Huawei_IoT_Agent_Tiny_SDK_Linux//agent_tiny/lwm2m_client/object_server.c ****     {
 258:/home/baikal/workspace/C50/Huawei_IoT_Agent_Tiny_SDK_Linux//agent_tiny/lwm2m_client/object_server.c ****         result = COAP_400_BAD_REQUEST;
 259:/home/baikal/workspace/C50/Huawei_IoT_Agent_Tiny_SDK_Linux//agent_tiny/lwm2m_client/object_server.c ****     }
 260:/home/baikal/workspace/C50/Huawei_IoT_Agent_Tiny_SDK_Linux//agent_tiny/lwm2m_client/object_server.c ****     return result;
 261:/home/baikal/workspace/C50/Huawei_IoT_Agent_Tiny_SDK_Linux//agent_tiny/lwm2m_client/object_server.c **** }
 262:/home/baikal/workspace/C50/Huawei_IoT_Agent_Tiny_SDK_Linux//agent_tiny/lwm2m_client/object_server.c **** 
 263:/home/baikal/workspace/C50/Huawei_IoT_Agent_Tiny_SDK_Linux//agent_tiny/lwm2m_client/object_server.c **** bool prv_server_check_binding_valid(const char *binding, size_t size)
 264:/home/baikal/workspace/C50/Huawei_IoT_Agent_Tiny_SDK_Linux//agent_tiny/lwm2m_client/object_server.c **** {
 265:/home/baikal/workspace/C50/Huawei_IoT_Agent_Tiny_SDK_Linux//agent_tiny/lwm2m_client/object_server.c ****     if ((strncmp(binding, "U", size) == 0
 266:/home/baikal/workspace/C50/Huawei_IoT_Agent_Tiny_SDK_Linux//agent_tiny/lwm2m_client/object_server.c ****             || strncmp(binding, "UQ", size) == 0
 267:/home/baikal/workspace/C50/Huawei_IoT_Agent_Tiny_SDK_Linux//agent_tiny/lwm2m_client/object_server.c ****             || strncmp(binding, "S", size) == 0
 268:/home/baikal/workspace/C50/Huawei_IoT_Agent_Tiny_SDK_Linux//agent_tiny/lwm2m_client/object_server.c ****             || strncmp(binding, "SQ", size) == 0
 269:/home/baikal/workspace/C50/Huawei_IoT_Agent_Tiny_SDK_Linux//agent_tiny/lwm2m_client/object_server.c ****             || strncmp(binding, "US", size) == 0
 270:/home/baikal/workspace/C50/Huawei_IoT_Agent_Tiny_SDK_Linux//agent_tiny/lwm2m_client/object_server.c ****             || strncmp(binding, "UQS", size) == 0))
 271:/home/baikal/workspace/C50/Huawei_IoT_Agent_Tiny_SDK_Linux//agent_tiny/lwm2m_client/object_server.c ****     {
 272:/home/baikal/workspace/C50/Huawei_IoT_Agent_Tiny_SDK_Linux//agent_tiny/lwm2m_client/object_server.c ****         return true;
 273:/home/baikal/workspace/C50/Huawei_IoT_Agent_Tiny_SDK_Linux//agent_tiny/lwm2m_client/object_server.c ****     }
 274:/home/baikal/workspace/C50/Huawei_IoT_Agent_Tiny_SDK_Linux//agent_tiny/lwm2m_client/object_server.c ****     else
 275:/home/baikal/workspace/C50/Huawei_IoT_Agent_Tiny_SDK_Linux//agent_tiny/lwm2m_client/object_server.c ****     {
 276:/home/baikal/workspace/C50/Huawei_IoT_Agent_Tiny_SDK_Linux//agent_tiny/lwm2m_client/object_server.c ****         return false;
 277:/home/baikal/workspace/C50/Huawei_IoT_Agent_Tiny_SDK_Linux//agent_tiny/lwm2m_client/object_server.c ****     }
 278:/home/baikal/workspace/C50/Huawei_IoT_Agent_Tiny_SDK_Linux//agent_tiny/lwm2m_client/object_server.c **** }
GAS LISTING /tmp/ccJJOyJ4.s 			page 6


 279:/home/baikal/workspace/C50/Huawei_IoT_Agent_Tiny_SDK_Linux//agent_tiny/lwm2m_client/object_server.c **** static uint8_t prv_server_write(uint16_t instanceId,
 280:/home/baikal/workspace/C50/Huawei_IoT_Agent_Tiny_SDK_Linux//agent_tiny/lwm2m_client/object_server.c ****                                 int numData,
 281:/home/baikal/workspace/C50/Huawei_IoT_Agent_Tiny_SDK_Linux//agent_tiny/lwm2m_client/object_server.c ****                                 lwm2m_data_t *dataArray,
 282:/home/baikal/workspace/C50/Huawei_IoT_Agent_Tiny_SDK_Linux//agent_tiny/lwm2m_client/object_server.c ****                                 lwm2m_object_t *objectP)
 283:/home/baikal/workspace/C50/Huawei_IoT_Agent_Tiny_SDK_Linux//agent_tiny/lwm2m_client/object_server.c **** {
 284:/home/baikal/workspace/C50/Huawei_IoT_Agent_Tiny_SDK_Linux//agent_tiny/lwm2m_client/object_server.c ****     server_instance_t *targetP;
 285:/home/baikal/workspace/C50/Huawei_IoT_Agent_Tiny_SDK_Linux//agent_tiny/lwm2m_client/object_server.c ****     int i;
 286:/home/baikal/workspace/C50/Huawei_IoT_Agent_Tiny_SDK_Linux//agent_tiny/lwm2m_client/object_server.c ****     uint8_t result;
 287:/home/baikal/workspace/C50/Huawei_IoT_Agent_Tiny_SDK_Linux//agent_tiny/lwm2m_client/object_server.c **** 
 288:/home/baikal/workspace/C50/Huawei_IoT_Agent_Tiny_SDK_Linux//agent_tiny/lwm2m_client/object_server.c ****     targetP = (server_instance_t *)lwm2m_list_find(objectP->instanceList, instanceId);
 289:/home/baikal/workspace/C50/Huawei_IoT_Agent_Tiny_SDK_Linux//agent_tiny/lwm2m_client/object_server.c ****     if (NULL == targetP)
 290:/home/baikal/workspace/C50/Huawei_IoT_Agent_Tiny_SDK_Linux//agent_tiny/lwm2m_client/object_server.c ****     {
 291:/home/baikal/workspace/C50/Huawei_IoT_Agent_Tiny_SDK_Linux//agent_tiny/lwm2m_client/object_server.c ****         return COAP_404_NOT_FOUND;
 292:/home/baikal/workspace/C50/Huawei_IoT_Agent_Tiny_SDK_Linux//agent_tiny/lwm2m_client/object_server.c ****     }
 293:/home/baikal/workspace/C50/Huawei_IoT_Agent_Tiny_SDK_Linux//agent_tiny/lwm2m_client/object_server.c **** 
 294:/home/baikal/workspace/C50/Huawei_IoT_Agent_Tiny_SDK_Linux//agent_tiny/lwm2m_client/object_server.c ****     i = 0;
 295:/home/baikal/workspace/C50/Huawei_IoT_Agent_Tiny_SDK_Linux//agent_tiny/lwm2m_client/object_server.c ****     do
 296:/home/baikal/workspace/C50/Huawei_IoT_Agent_Tiny_SDK_Linux//agent_tiny/lwm2m_client/object_server.c ****     {
 297:/home/baikal/workspace/C50/Huawei_IoT_Agent_Tiny_SDK_Linux//agent_tiny/lwm2m_client/object_server.c ****         switch (dataArray[i].id)
 298:/home/baikal/workspace/C50/Huawei_IoT_Agent_Tiny_SDK_Linux//agent_tiny/lwm2m_client/object_server.c ****         {
 299:/home/baikal/workspace/C50/Huawei_IoT_Agent_Tiny_SDK_Linux//agent_tiny/lwm2m_client/object_server.c ****         case LWM2M_SERVER_SHORT_ID_ID:
 300:/home/baikal/workspace/C50/Huawei_IoT_Agent_Tiny_SDK_Linux//agent_tiny/lwm2m_client/object_server.c ****         {
 301:/home/baikal/workspace/C50/Huawei_IoT_Agent_Tiny_SDK_Linux//agent_tiny/lwm2m_client/object_server.c ****             uint32_t value = targetP->shortServerId;
 302:/home/baikal/workspace/C50/Huawei_IoT_Agent_Tiny_SDK_Linux//agent_tiny/lwm2m_client/object_server.c ****             result = prv_set_int_value(dataArray + i, &value);
 303:/home/baikal/workspace/C50/Huawei_IoT_Agent_Tiny_SDK_Linux//agent_tiny/lwm2m_client/object_server.c ****             if (COAP_204_CHANGED == result)
 304:/home/baikal/workspace/C50/Huawei_IoT_Agent_Tiny_SDK_Linux//agent_tiny/lwm2m_client/object_server.c ****             {
 305:/home/baikal/workspace/C50/Huawei_IoT_Agent_Tiny_SDK_Linux//agent_tiny/lwm2m_client/object_server.c ****                 if (0 < value && 0xFFFF >= value)
 306:/home/baikal/workspace/C50/Huawei_IoT_Agent_Tiny_SDK_Linux//agent_tiny/lwm2m_client/object_server.c ****                 {
 307:/home/baikal/workspace/C50/Huawei_IoT_Agent_Tiny_SDK_Linux//agent_tiny/lwm2m_client/object_server.c ****                     targetP->shortServerId = value;
 308:/home/baikal/workspace/C50/Huawei_IoT_Agent_Tiny_SDK_Linux//agent_tiny/lwm2m_client/object_server.c ****                 }
 309:/home/baikal/workspace/C50/Huawei_IoT_Agent_Tiny_SDK_Linux//agent_tiny/lwm2m_client/object_server.c ****                 else
 310:/home/baikal/workspace/C50/Huawei_IoT_Agent_Tiny_SDK_Linux//agent_tiny/lwm2m_client/object_server.c ****                 {
 311:/home/baikal/workspace/C50/Huawei_IoT_Agent_Tiny_SDK_Linux//agent_tiny/lwm2m_client/object_server.c ****                     result = COAP_406_NOT_ACCEPTABLE;
 312:/home/baikal/workspace/C50/Huawei_IoT_Agent_Tiny_SDK_Linux//agent_tiny/lwm2m_client/object_server.c ****                 }
 313:/home/baikal/workspace/C50/Huawei_IoT_Agent_Tiny_SDK_Linux//agent_tiny/lwm2m_client/object_server.c ****             }
 314:/home/baikal/workspace/C50/Huawei_IoT_Agent_Tiny_SDK_Linux//agent_tiny/lwm2m_client/object_server.c ****         }
 315:/home/baikal/workspace/C50/Huawei_IoT_Agent_Tiny_SDK_Linux//agent_tiny/lwm2m_client/object_server.c ****         break;
 316:/home/baikal/workspace/C50/Huawei_IoT_Agent_Tiny_SDK_Linux//agent_tiny/lwm2m_client/object_server.c **** 
 317:/home/baikal/workspace/C50/Huawei_IoT_Agent_Tiny_SDK_Linux//agent_tiny/lwm2m_client/object_server.c ****         case LWM2M_SERVER_LIFETIME_ID:
 318:/home/baikal/workspace/C50/Huawei_IoT_Agent_Tiny_SDK_Linux//agent_tiny/lwm2m_client/object_server.c ****             result = prv_set_int_value(dataArray + i, (uint32_t *) & (targetP->lifetime));
 319:/home/baikal/workspace/C50/Huawei_IoT_Agent_Tiny_SDK_Linux//agent_tiny/lwm2m_client/object_server.c ****             break;
 320:/home/baikal/workspace/C50/Huawei_IoT_Agent_Tiny_SDK_Linux//agent_tiny/lwm2m_client/object_server.c **** 
 321:/home/baikal/workspace/C50/Huawei_IoT_Agent_Tiny_SDK_Linux//agent_tiny/lwm2m_client/object_server.c ****         case LWM2M_SERVER_MIN_PERIOD_ID:
 322:/home/baikal/workspace/C50/Huawei_IoT_Agent_Tiny_SDK_Linux//agent_tiny/lwm2m_client/object_server.c ****             result = prv_set_int_value(dataArray + i, &(targetP->defaultMinPeriod));
 323:/home/baikal/workspace/C50/Huawei_IoT_Agent_Tiny_SDK_Linux//agent_tiny/lwm2m_client/object_server.c ****             break;
 324:/home/baikal/workspace/C50/Huawei_IoT_Agent_Tiny_SDK_Linux//agent_tiny/lwm2m_client/object_server.c **** 
 325:/home/baikal/workspace/C50/Huawei_IoT_Agent_Tiny_SDK_Linux//agent_tiny/lwm2m_client/object_server.c ****         case LWM2M_SERVER_MAX_PERIOD_ID:
 326:/home/baikal/workspace/C50/Huawei_IoT_Agent_Tiny_SDK_Linux//agent_tiny/lwm2m_client/object_server.c ****             result = prv_set_int_value(dataArray + i, &(targetP->defaultMaxPeriod));
 327:/home/baikal/workspace/C50/Huawei_IoT_Agent_Tiny_SDK_Linux//agent_tiny/lwm2m_client/object_server.c ****             break;
 328:/home/baikal/workspace/C50/Huawei_IoT_Agent_Tiny_SDK_Linux//agent_tiny/lwm2m_client/object_server.c **** 
 329:/home/baikal/workspace/C50/Huawei_IoT_Agent_Tiny_SDK_Linux//agent_tiny/lwm2m_client/object_server.c ****         case LWM2M_SERVER_DISABLE_ID:
 330:/home/baikal/workspace/C50/Huawei_IoT_Agent_Tiny_SDK_Linux//agent_tiny/lwm2m_client/object_server.c ****             result = COAP_405_METHOD_NOT_ALLOWED;
 331:/home/baikal/workspace/C50/Huawei_IoT_Agent_Tiny_SDK_Linux//agent_tiny/lwm2m_client/object_server.c ****             break;
 332:/home/baikal/workspace/C50/Huawei_IoT_Agent_Tiny_SDK_Linux//agent_tiny/lwm2m_client/object_server.c **** 
 333:/home/baikal/workspace/C50/Huawei_IoT_Agent_Tiny_SDK_Linux//agent_tiny/lwm2m_client/object_server.c ****         case LWM2M_SERVER_TIMEOUT_ID:
 334:/home/baikal/workspace/C50/Huawei_IoT_Agent_Tiny_SDK_Linux//agent_tiny/lwm2m_client/object_server.c ****             result = prv_set_int_value(dataArray + i, &(targetP->disableTimeout));
 335:/home/baikal/workspace/C50/Huawei_IoT_Agent_Tiny_SDK_Linux//agent_tiny/lwm2m_client/object_server.c ****             break;
GAS LISTING /tmp/ccJJOyJ4.s 			page 7


 336:/home/baikal/workspace/C50/Huawei_IoT_Agent_Tiny_SDK_Linux//agent_tiny/lwm2m_client/object_server.c **** 
 337:/home/baikal/workspace/C50/Huawei_IoT_Agent_Tiny_SDK_Linux//agent_tiny/lwm2m_client/object_server.c ****         case LWM2M_SERVER_STORING_ID:
 338:/home/baikal/workspace/C50/Huawei_IoT_Agent_Tiny_SDK_Linux//agent_tiny/lwm2m_client/object_server.c ****         {
 339:/home/baikal/workspace/C50/Huawei_IoT_Agent_Tiny_SDK_Linux//agent_tiny/lwm2m_client/object_server.c ****             bool value;
 340:/home/baikal/workspace/C50/Huawei_IoT_Agent_Tiny_SDK_Linux//agent_tiny/lwm2m_client/object_server.c **** 
 341:/home/baikal/workspace/C50/Huawei_IoT_Agent_Tiny_SDK_Linux//agent_tiny/lwm2m_client/object_server.c ****             if (1 == lwm2m_data_decode_bool(dataArray + i, &value))
 342:/home/baikal/workspace/C50/Huawei_IoT_Agent_Tiny_SDK_Linux//agent_tiny/lwm2m_client/object_server.c ****             {
 343:/home/baikal/workspace/C50/Huawei_IoT_Agent_Tiny_SDK_Linux//agent_tiny/lwm2m_client/object_server.c ****                 targetP->storing = value;
 344:/home/baikal/workspace/C50/Huawei_IoT_Agent_Tiny_SDK_Linux//agent_tiny/lwm2m_client/object_server.c ****                 if(!value)
 345:/home/baikal/workspace/C50/Huawei_IoT_Agent_Tiny_SDK_Linux//agent_tiny/lwm2m_client/object_server.c ****                 {
 346:/home/baikal/workspace/C50/Huawei_IoT_Agent_Tiny_SDK_Linux//agent_tiny/lwm2m_client/object_server.c ****                     set_binary_app_data_object_rpt_max_cnt(value);
 347:/home/baikal/workspace/C50/Huawei_IoT_Agent_Tiny_SDK_Linux//agent_tiny/lwm2m_client/object_server.c ****                 }
 348:/home/baikal/workspace/C50/Huawei_IoT_Agent_Tiny_SDK_Linux//agent_tiny/lwm2m_client/object_server.c ****                 result = COAP_204_CHANGED;
 349:/home/baikal/workspace/C50/Huawei_IoT_Agent_Tiny_SDK_Linux//agent_tiny/lwm2m_client/object_server.c ****             }
 350:/home/baikal/workspace/C50/Huawei_IoT_Agent_Tiny_SDK_Linux//agent_tiny/lwm2m_client/object_server.c ****             else
 351:/home/baikal/workspace/C50/Huawei_IoT_Agent_Tiny_SDK_Linux//agent_tiny/lwm2m_client/object_server.c ****             {
 352:/home/baikal/workspace/C50/Huawei_IoT_Agent_Tiny_SDK_Linux//agent_tiny/lwm2m_client/object_server.c ****                 result = COAP_400_BAD_REQUEST;
 353:/home/baikal/workspace/C50/Huawei_IoT_Agent_Tiny_SDK_Linux//agent_tiny/lwm2m_client/object_server.c ****             }
 354:/home/baikal/workspace/C50/Huawei_IoT_Agent_Tiny_SDK_Linux//agent_tiny/lwm2m_client/object_server.c ****         }
 355:/home/baikal/workspace/C50/Huawei_IoT_Agent_Tiny_SDK_Linux//agent_tiny/lwm2m_client/object_server.c ****         break;
 356:/home/baikal/workspace/C50/Huawei_IoT_Agent_Tiny_SDK_Linux//agent_tiny/lwm2m_client/object_server.c **** 
 357:/home/baikal/workspace/C50/Huawei_IoT_Agent_Tiny_SDK_Linux//agent_tiny/lwm2m_client/object_server.c ****         case LWM2M_SERVER_BINDING_ID:
 358:/home/baikal/workspace/C50/Huawei_IoT_Agent_Tiny_SDK_Linux//agent_tiny/lwm2m_client/object_server.c ****             if ((dataArray[i].type == LWM2M_TYPE_STRING || dataArray[i].type == LWM2M_TYPE_OPAQUE)
 359:/home/baikal/workspace/C50/Huawei_IoT_Agent_Tiny_SDK_Linux//agent_tiny/lwm2m_client/object_server.c ****                     && dataArray[i].value.asBuffer.length > 0 && dataArray[i].value.asBuffer.length
 360:/home/baikal/workspace/C50/Huawei_IoT_Agent_Tiny_SDK_Linux//agent_tiny/lwm2m_client/object_server.c ****                     && prv_server_check_binding_valid((char *)dataArray[i].value.asBuffer.buffer, d
 361:/home/baikal/workspace/C50/Huawei_IoT_Agent_Tiny_SDK_Linux//agent_tiny/lwm2m_client/object_server.c ****             {
 362:/home/baikal/workspace/C50/Huawei_IoT_Agent_Tiny_SDK_Linux//agent_tiny/lwm2m_client/object_server.c ****                 memset(targetP->binding, 0, sizeof(targetP->binding));
 363:/home/baikal/workspace/C50/Huawei_IoT_Agent_Tiny_SDK_Linux//agent_tiny/lwm2m_client/object_server.c ****                 strncpy(targetP->binding, (char *)dataArray[i].value.asBuffer.buffer, dataArray[i].
 364:/home/baikal/workspace/C50/Huawei_IoT_Agent_Tiny_SDK_Linux//agent_tiny/lwm2m_client/object_server.c ****                 result = COAP_204_CHANGED;
 365:/home/baikal/workspace/C50/Huawei_IoT_Agent_Tiny_SDK_Linux//agent_tiny/lwm2m_client/object_server.c ****             }
 366:/home/baikal/workspace/C50/Huawei_IoT_Agent_Tiny_SDK_Linux//agent_tiny/lwm2m_client/object_server.c ****             else
 367:/home/baikal/workspace/C50/Huawei_IoT_Agent_Tiny_SDK_Linux//agent_tiny/lwm2m_client/object_server.c ****             {
 368:/home/baikal/workspace/C50/Huawei_IoT_Agent_Tiny_SDK_Linux//agent_tiny/lwm2m_client/object_server.c ****                 result = COAP_400_BAD_REQUEST;
 369:/home/baikal/workspace/C50/Huawei_IoT_Agent_Tiny_SDK_Linux//agent_tiny/lwm2m_client/object_server.c ****             }
 370:/home/baikal/workspace/C50/Huawei_IoT_Agent_Tiny_SDK_Linux//agent_tiny/lwm2m_client/object_server.c ****             break;
 371:/home/baikal/workspace/C50/Huawei_IoT_Agent_Tiny_SDK_Linux//agent_tiny/lwm2m_client/object_server.c **** 
 372:/home/baikal/workspace/C50/Huawei_IoT_Agent_Tiny_SDK_Linux//agent_tiny/lwm2m_client/object_server.c ****         case LWM2M_SERVER_UPDATE_ID:
 373:/home/baikal/workspace/C50/Huawei_IoT_Agent_Tiny_SDK_Linux//agent_tiny/lwm2m_client/object_server.c ****             result = COAP_405_METHOD_NOT_ALLOWED;
 374:/home/baikal/workspace/C50/Huawei_IoT_Agent_Tiny_SDK_Linux//agent_tiny/lwm2m_client/object_server.c ****             break;
 375:/home/baikal/workspace/C50/Huawei_IoT_Agent_Tiny_SDK_Linux//agent_tiny/lwm2m_client/object_server.c **** 
 376:/home/baikal/workspace/C50/Huawei_IoT_Agent_Tiny_SDK_Linux//agent_tiny/lwm2m_client/object_server.c ****         default:
 377:/home/baikal/workspace/C50/Huawei_IoT_Agent_Tiny_SDK_Linux//agent_tiny/lwm2m_client/object_server.c ****             return COAP_404_NOT_FOUND;
 378:/home/baikal/workspace/C50/Huawei_IoT_Agent_Tiny_SDK_Linux//agent_tiny/lwm2m_client/object_server.c ****         }
 379:/home/baikal/workspace/C50/Huawei_IoT_Agent_Tiny_SDK_Linux//agent_tiny/lwm2m_client/object_server.c ****         i++;
 380:/home/baikal/workspace/C50/Huawei_IoT_Agent_Tiny_SDK_Linux//agent_tiny/lwm2m_client/object_server.c ****     }
 381:/home/baikal/workspace/C50/Huawei_IoT_Agent_Tiny_SDK_Linux//agent_tiny/lwm2m_client/object_server.c ****     while (i < numData && result == COAP_204_CHANGED);
 382:/home/baikal/workspace/C50/Huawei_IoT_Agent_Tiny_SDK_Linux//agent_tiny/lwm2m_client/object_server.c **** 
 383:/home/baikal/workspace/C50/Huawei_IoT_Agent_Tiny_SDK_Linux//agent_tiny/lwm2m_client/object_server.c ****     return result;
 384:/home/baikal/workspace/C50/Huawei_IoT_Agent_Tiny_SDK_Linux//agent_tiny/lwm2m_client/object_server.c **** }
 385:/home/baikal/workspace/C50/Huawei_IoT_Agent_Tiny_SDK_Linux//agent_tiny/lwm2m_client/object_server.c **** 
 386:/home/baikal/workspace/C50/Huawei_IoT_Agent_Tiny_SDK_Linux//agent_tiny/lwm2m_client/object_server.c **** static uint8_t prv_server_execute(uint16_t instanceId,
 387:/home/baikal/workspace/C50/Huawei_IoT_Agent_Tiny_SDK_Linux//agent_tiny/lwm2m_client/object_server.c ****                                   uint16_t resourceId,
 388:/home/baikal/workspace/C50/Huawei_IoT_Agent_Tiny_SDK_Linux//agent_tiny/lwm2m_client/object_server.c ****                                   uint8_t *buffer,
 389:/home/baikal/workspace/C50/Huawei_IoT_Agent_Tiny_SDK_Linux//agent_tiny/lwm2m_client/object_server.c ****                                   int length,
 390:/home/baikal/workspace/C50/Huawei_IoT_Agent_Tiny_SDK_Linux//agent_tiny/lwm2m_client/object_server.c ****                                   lwm2m_object_t *objectP)
 391:/home/baikal/workspace/C50/Huawei_IoT_Agent_Tiny_SDK_Linux//agent_tiny/lwm2m_client/object_server.c **** 
 392:/home/baikal/workspace/C50/Huawei_IoT_Agent_Tiny_SDK_Linux//agent_tiny/lwm2m_client/object_server.c **** {
GAS LISTING /tmp/ccJJOyJ4.s 			page 8


   9              		.loc 1 392 0
  10              		.cfi_startproc
  11              	.LVL0:
  12 0000 53       		pushq	%rbx
  13              	.LCFI0:
  14              		.cfi_def_cfa_offset 16
  15              		.cfi_offset 3, -16
  16 0001 89F3     		movl	%esi, %ebx
 393:/home/baikal/workspace/C50/Huawei_IoT_Agent_Tiny_SDK_Linux//agent_tiny/lwm2m_client/object_server.c ****     server_instance_t *targetP;
 394:/home/baikal/workspace/C50/Huawei_IoT_Agent_Tiny_SDK_Linux//agent_tiny/lwm2m_client/object_server.c **** 
 395:/home/baikal/workspace/C50/Huawei_IoT_Agent_Tiny_SDK_Linux//agent_tiny/lwm2m_client/object_server.c ****     targetP = (server_instance_t *)lwm2m_list_find(objectP->instanceList, instanceId);
  17              		.loc 1 395 0
  18 0003 0FB7F7   		movzwl	%di, %esi
  19              	.LVL1:
  20 0006 498B7810 		movq	16(%r8), %rdi
  21              	.LVL2:
  22 000a E8000000 		call	lwm2m_list_find
  22      00
  23              	.LVL3:
 396:/home/baikal/workspace/C50/Huawei_IoT_Agent_Tiny_SDK_Linux//agent_tiny/lwm2m_client/object_server.c ****     if (NULL == targetP) return COAP_404_NOT_FOUND;
  24              		.loc 1 396 0
  25 000f 4885C0   		testq	%rax, %rax
  26 0012 7420     		je	.L5
 397:/home/baikal/workspace/C50/Huawei_IoT_Agent_Tiny_SDK_Linux//agent_tiny/lwm2m_client/object_server.c **** 
 398:/home/baikal/workspace/C50/Huawei_IoT_Agent_Tiny_SDK_Linux//agent_tiny/lwm2m_client/object_server.c ****     switch (resourceId)
  27              		.loc 1 398 0
  28 0014 6683FB04 		cmpw	$4, %bx
  29 0018 740D     		je	.L3
  30 001a 6683FB08 		cmpw	$8, %bx
  31 001e 751B     		jne	.L8
 399:/home/baikal/workspace/C50/Huawei_IoT_Agent_Tiny_SDK_Linux//agent_tiny/lwm2m_client/object_server.c ****     {
 400:/home/baikal/workspace/C50/Huawei_IoT_Agent_Tiny_SDK_Linux//agent_tiny/lwm2m_client/object_server.c ****     case LWM2M_SERVER_DISABLE_ID:
 401:/home/baikal/workspace/C50/Huawei_IoT_Agent_Tiny_SDK_Linux//agent_tiny/lwm2m_client/object_server.c ****         // executed in core, if COAP_204_CHANGED is returned
 402:/home/baikal/workspace/C50/Huawei_IoT_Agent_Tiny_SDK_Linux//agent_tiny/lwm2m_client/object_server.c ****         if (0 < targetP->disableTimeout) return COAP_204_CHANGED;
 403:/home/baikal/workspace/C50/Huawei_IoT_Agent_Tiny_SDK_Linux//agent_tiny/lwm2m_client/object_server.c ****         else return COAP_405_METHOD_NOT_ALLOWED;
 404:/home/baikal/workspace/C50/Huawei_IoT_Agent_Tiny_SDK_Linux//agent_tiny/lwm2m_client/object_server.c ****     case LWM2M_SERVER_UPDATE_ID:
 405:/home/baikal/workspace/C50/Huawei_IoT_Agent_Tiny_SDK_Linux//agent_tiny/lwm2m_client/object_server.c ****         // executed in core, if COAP_204_CHANGED is returned
 406:/home/baikal/workspace/C50/Huawei_IoT_Agent_Tiny_SDK_Linux//agent_tiny/lwm2m_client/object_server.c ****         return COAP_204_CHANGED;
  32              		.loc 1 406 0
  33 0020 B8440000 		movl	$68, %eax
  33      00
  34              	.LVL4:
  35 0025 EB20     		jmp	.L2
  36              	.LVL5:
  37              	.L3:
 402:/home/baikal/workspace/C50/Huawei_IoT_Agent_Tiny_SDK_Linux//agent_tiny/lwm2m_client/object_server.c ****         else return COAP_405_METHOD_NOT_ALLOWED;
  38              		.loc 1 402 0
  39 0027 83781800 		cmpl	$0, 24(%rax)
  40 002b 7415     		je	.L7
  41 002d B8440000 		movl	$68, %eax
  41      00
  42              	.LVL6:
  43 0032 EB13     		jmp	.L2
  44              	.LVL7:
  45              	.L5:
 396:/home/baikal/workspace/C50/Huawei_IoT_Agent_Tiny_SDK_Linux//agent_tiny/lwm2m_client/object_server.c **** 
  46              		.loc 1 396 0
GAS LISTING /tmp/ccJJOyJ4.s 			page 9


  47 0034 B884FFFF 		movl	$-124, %eax
  47      FF
  48              	.LVL8:
  49 0039 EB0C     		jmp	.L2
  50              	.LVL9:
  51              	.L8:
 407:/home/baikal/workspace/C50/Huawei_IoT_Agent_Tiny_SDK_Linux//agent_tiny/lwm2m_client/object_server.c ****     default:
 408:/home/baikal/workspace/C50/Huawei_IoT_Agent_Tiny_SDK_Linux//agent_tiny/lwm2m_client/object_server.c ****         return COAP_405_METHOD_NOT_ALLOWED;
  52              		.loc 1 408 0
  53 003b B885FFFF 		movl	$-123, %eax
  53      FF
  54              	.LVL10:
  55 0040 EB05     		jmp	.L2
  56              	.LVL11:
  57              	.L7:
 403:/home/baikal/workspace/C50/Huawei_IoT_Agent_Tiny_SDK_Linux//agent_tiny/lwm2m_client/object_server.c ****     case LWM2M_SERVER_UPDATE_ID:
  58              		.loc 1 403 0
  59 0042 B885FFFF 		movl	$-123, %eax
  59      FF
  60              	.LVL12:
  61              	.L2:
 409:/home/baikal/workspace/C50/Huawei_IoT_Agent_Tiny_SDK_Linux//agent_tiny/lwm2m_client/object_server.c ****     }
 410:/home/baikal/workspace/C50/Huawei_IoT_Agent_Tiny_SDK_Linux//agent_tiny/lwm2m_client/object_server.c **** }
  62              		.loc 1 410 0
  63 0047 5B       		popq	%rbx
  64              	.LCFI1:
  65              		.cfi_def_cfa_offset 8
  66 0048 C3       		ret
  67              		.cfi_endproc
  68              	.LFE77:
  70              		.section	.text.prv_server_delete,"ax",@progbits
  72              	prv_server_delete:
  73              	.LFB78:
 411:/home/baikal/workspace/C50/Huawei_IoT_Agent_Tiny_SDK_Linux//agent_tiny/lwm2m_client/object_server.c **** 
 412:/home/baikal/workspace/C50/Huawei_IoT_Agent_Tiny_SDK_Linux//agent_tiny/lwm2m_client/object_server.c **** static uint8_t prv_server_delete(uint16_t id,
 413:/home/baikal/workspace/C50/Huawei_IoT_Agent_Tiny_SDK_Linux//agent_tiny/lwm2m_client/object_server.c ****                                  lwm2m_object_t *objectP)
 414:/home/baikal/workspace/C50/Huawei_IoT_Agent_Tiny_SDK_Linux//agent_tiny/lwm2m_client/object_server.c **** {
  74              		.loc 1 414 0
  75              		.cfi_startproc
  76              	.LVL13:
  77 0000 53       		pushq	%rbx
  78              	.LCFI2:
  79              		.cfi_def_cfa_offset 16
  80              		.cfi_offset 3, -16
  81 0001 4883EC10 		subq	$16, %rsp
  82              	.LCFI3:
  83              		.cfi_def_cfa_offset 32
  84 0005 4889F3   		movq	%rsi, %rbx
 415:/home/baikal/workspace/C50/Huawei_IoT_Agent_Tiny_SDK_Linux//agent_tiny/lwm2m_client/object_server.c ****     server_instance_t *serverInstance;
 416:/home/baikal/workspace/C50/Huawei_IoT_Agent_Tiny_SDK_Linux//agent_tiny/lwm2m_client/object_server.c **** 
 417:/home/baikal/workspace/C50/Huawei_IoT_Agent_Tiny_SDK_Linux//agent_tiny/lwm2m_client/object_server.c ****     objectP->instanceList = lwm2m_list_remove(objectP->instanceList, id, (lwm2m_list_t **)&serverIn
  85              		.loc 1 417 0
  86 0008 0FB7F7   		movzwl	%di, %esi
  87              	.LVL14:
  88 000b 488B7B10 		movq	16(%rbx), %rdi
  89              	.LVL15:
  90 000f 488D5424 		leaq	8(%rsp), %rdx
GAS LISTING /tmp/ccJJOyJ4.s 			page 10


  90      08
  91 0014 E8000000 		call	lwm2m_list_remove
  91      00
  92              	.LVL16:
  93 0019 48894310 		movq	%rax, 16(%rbx)
 418:/home/baikal/workspace/C50/Huawei_IoT_Agent_Tiny_SDK_Linux//agent_tiny/lwm2m_client/object_server.c ****     if (NULL == serverInstance) return COAP_404_NOT_FOUND;
  94              		.loc 1 418 0
  95 001d 488B7C24 		movq	8(%rsp), %rdi
  95      08
  96 0022 4885FF   		testq	%rdi, %rdi
  97 0025 740C     		je	.L12
 419:/home/baikal/workspace/C50/Huawei_IoT_Agent_Tiny_SDK_Linux//agent_tiny/lwm2m_client/object_server.c **** 
 420:/home/baikal/workspace/C50/Huawei_IoT_Agent_Tiny_SDK_Linux//agent_tiny/lwm2m_client/object_server.c ****     lwm2m_free(serverInstance);
  98              		.loc 1 420 0
  99 0027 E8000000 		call	lwm2m_free
  99      00
 100              	.LVL17:
 421:/home/baikal/workspace/C50/Huawei_IoT_Agent_Tiny_SDK_Linux//agent_tiny/lwm2m_client/object_server.c **** 
 422:/home/baikal/workspace/C50/Huawei_IoT_Agent_Tiny_SDK_Linux//agent_tiny/lwm2m_client/object_server.c ****     return COAP_202_DELETED;
 101              		.loc 1 422 0
 102 002c B8420000 		movl	$66, %eax
 102      00
 103 0031 EB05     		jmp	.L11
 104              	.L12:
 418:/home/baikal/workspace/C50/Huawei_IoT_Agent_Tiny_SDK_Linux//agent_tiny/lwm2m_client/object_server.c **** 
 105              		.loc 1 418 0
 106 0033 B884FFFF 		movl	$-124, %eax
 106      FF
 107              	.L11:
 423:/home/baikal/workspace/C50/Huawei_IoT_Agent_Tiny_SDK_Linux//agent_tiny/lwm2m_client/object_server.c **** }
 108              		.loc 1 423 0
 109 0038 4883C410 		addq	$16, %rsp
 110              	.LCFI4:
 111              		.cfi_def_cfa_offset 16
 112 003c 5B       		popq	%rbx
 113              	.LCFI5:
 114              		.cfi_def_cfa_offset 8
 115              	.LVL18:
 116 003d C3       		ret
 117              		.cfi_endproc
 118              	.LFE78:
 120              		.section	.text.prv_set_int_value,"ax",@progbits
 122              	prv_set_int_value:
 123              	.LFB74:
 240:/home/baikal/workspace/C50/Huawei_IoT_Agent_Tiny_SDK_Linux//agent_tiny/lwm2m_client/object_server.c ****     uint8_t result;
 124              		.loc 1 240 0
 125              		.cfi_startproc
 126              	.LVL19:
 127 0000 53       		pushq	%rbx
 128              	.LCFI6:
 129              		.cfi_def_cfa_offset 16
 130              		.cfi_offset 3, -16
 131 0001 4883EC10 		subq	$16, %rsp
 132              	.LCFI7:
 133              		.cfi_def_cfa_offset 32
 134 0005 4889F3   		movq	%rsi, %rbx
 244:/home/baikal/workspace/C50/Huawei_IoT_Agent_Tiny_SDK_Linux//agent_tiny/lwm2m_client/object_server.c ****     {
GAS LISTING /tmp/ccJJOyJ4.s 			page 11


 135              		.loc 1 244 0
 136 0008 488D7424 		leaq	8(%rsp), %rsi
 136      08
 137              	.LVL20:
 138 000d E8000000 		call	lwm2m_data_decode_int
 138      00
 139              	.LVL21:
 140 0012 83F801   		cmpl	$1, %eax
 141 0015 7518     		jne	.L16
 246:/home/baikal/workspace/C50/Huawei_IoT_Agent_Tiny_SDK_Linux//agent_tiny/lwm2m_client/object_server.c ****         {
 142              		.loc 1 246 0
 143 0017 488B4424 		movq	8(%rsp), %rax
 143      08
 144 001c BAFFFFFF 		movl	$4294967295, %edx
 144      FF
 145 0021 4839D0   		cmpq	%rdx, %rax
 146 0024 7710     		ja	.L17
 248:/home/baikal/workspace/C50/Huawei_IoT_Agent_Tiny_SDK_Linux//agent_tiny/lwm2m_client/object_server.c ****             result = COAP_204_CHANGED;
 147              		.loc 1 248 0
 148 0026 8903     		movl	%eax, (%rbx)
 149              	.LVL22:
 249:/home/baikal/workspace/C50/Huawei_IoT_Agent_Tiny_SDK_Linux//agent_tiny/lwm2m_client/object_server.c ****         }
 150              		.loc 1 249 0
 151 0028 B8440000 		movl	$68, %eax
 151      00
 152 002d EB0C     		jmp	.L15
 153              	.LVL23:
 154              	.L16:
 258:/home/baikal/workspace/C50/Huawei_IoT_Agent_Tiny_SDK_Linux//agent_tiny/lwm2m_client/object_server.c ****     }
 155              		.loc 1 258 0
 156 002f B880FFFF 		movl	$-128, %eax
 156      FF
 157 0034 EB05     		jmp	.L15
 158              	.L17:
 253:/home/baikal/workspace/C50/Huawei_IoT_Agent_Tiny_SDK_Linux//agent_tiny/lwm2m_client/object_server.c ****         }
 159              		.loc 1 253 0
 160 0036 B886FFFF 		movl	$-122, %eax
 160      FF
 161              	.L15:
 162              	.LVL24:
 261:/home/baikal/workspace/C50/Huawei_IoT_Agent_Tiny_SDK_Linux//agent_tiny/lwm2m_client/object_server.c **** 
 163              		.loc 1 261 0
 164 003b 4883C410 		addq	$16, %rsp
 165              	.LCFI8:
 166              		.cfi_def_cfa_offset 16
 167 003f 5B       		popq	%rbx
 168              	.LCFI9:
 169              		.cfi_def_cfa_offset 8
 170              	.LVL25:
 171 0040 C3       		ret
 172              		.cfi_endproc
 173              	.LFE74:
 175              		.section	.text.prv_server_discover,"ax",@progbits
 177              	prv_server_discover:
 178              	.LFB73:
 183:/home/baikal/workspace/C50/Huawei_IoT_Agent_Tiny_SDK_Linux//agent_tiny/lwm2m_client/object_server.c ****     uint8_t result;
 179              		.loc 1 183 0
GAS LISTING /tmp/ccJJOyJ4.s 			page 12


 180              		.cfi_startproc
 181              	.LVL26:
 190:/home/baikal/workspace/C50/Huawei_IoT_Agent_Tiny_SDK_Linux//agent_tiny/lwm2m_client/object_server.c ****     {
 182              		.loc 1 190 0
 183 0000 448B06   		movl	(%rsi), %r8d
 184 0003 4585C0   		testl	%r8d, %r8d
 185 0006 0F85BD00 		jne	.L28
 185      0000
 183:/home/baikal/workspace/C50/Huawei_IoT_Agent_Tiny_SDK_Linux//agent_tiny/lwm2m_client/object_server.c ****     uint8_t result;
 186              		.loc 1 183 0
 187 000c 55       		pushq	%rbp
 188              	.LCFI10:
 189              		.cfi_def_cfa_offset 16
 190              		.cfi_offset 6, -16
 191 000d 53       		pushq	%rbx
 192              	.LCFI11:
 193              		.cfi_def_cfa_offset 24
 194              		.cfi_offset 3, -24
 195 000e 4883EC28 		subq	$40, %rsp
 196              	.LCFI12:
 197              		.cfi_def_cfa_offset 64
 198 0012 4889D3   		movq	%rdx, %rbx
 199 0015 4889F5   		movq	%rsi, %rbp
 200              	.LBB24:
 192:/home/baikal/workspace/C50/Huawei_IoT_Agent_Tiny_SDK_Linux//agent_tiny/lwm2m_client/object_server.c ****         {
 201              		.loc 1 192 0
 202 0018 66C70424 		movw	$0, (%rsp)
 202      0000
 203 001e 66C74424 		movw	$1, 2(%rsp)
 203      020100
 204 0025 66C74424 		movw	$2, 4(%rsp)
 204      040200
 205 002c 66C74424 		movw	$3, 6(%rsp)
 205      060300
 206 0033 66C74424 		movw	$4, 8(%rsp)
 206      080400
 207 003a 66C74424 		movw	$5, 10(%rsp)
 207      0A0500
 208 0041 66C74424 		movw	$6, 12(%rsp)
 208      0C0600
 209 0048 66C74424 		movw	$7, 14(%rsp)
 209      0E0700
 210 004f 66C74424 		movw	$8, 16(%rsp)
 210      100800
 211              	.LVL27:
 206:/home/baikal/workspace/C50/Huawei_IoT_Agent_Tiny_SDK_Linux//agent_tiny/lwm2m_client/object_server.c ****         if (*dataArrayP == NULL) return COAP_500_INTERNAL_SERVER_ERROR;
 212              		.loc 1 206 0
 213 0056 BF090000 		movl	$9, %edi
 213      00
 214              	.LVL28:
 215 005b E8000000 		call	lwm2m_data_new
 215      00
 216              	.LVL29:
 217 0060 488903   		movq	%rax, (%rbx)
 207:/home/baikal/workspace/C50/Huawei_IoT_Agent_Tiny_SDK_Linux//agent_tiny/lwm2m_client/object_server.c ****         *numDataP = nbRes;
 218              		.loc 1 207 0
 219 0063 4885C0   		testq	%rax, %rax
GAS LISTING /tmp/ccJJOyJ4.s 			page 13


 220 0066 7507     		jne	.L21
 207:/home/baikal/workspace/C50/Huawei_IoT_Agent_Tiny_SDK_Linux//agent_tiny/lwm2m_client/object_server.c ****         *numDataP = nbRes;
 221              		.loc 1 207 0 is_stmt 0 discriminator 1
 222 0068 B8A0FFFF 		movl	$-96, %eax
 222      FF
 223 006d EB6F     		jmp	.L22
 224              	.L21:
 208:/home/baikal/workspace/C50/Huawei_IoT_Agent_Tiny_SDK_Linux//agent_tiny/lwm2m_client/object_server.c ****         for (i = 0; i < nbRes; i++)
 225              		.loc 1 208 0 is_stmt 1
 226 006f C7450009 		movl	$9, 0(%rbp)
 226      000000
 227              	.LVL30:
 209:/home/baikal/workspace/C50/Huawei_IoT_Agent_Tiny_SDK_Linux//agent_tiny/lwm2m_client/object_server.c ****         {
 228              		.loc 1 209 0
 229 0076 BA000000 		movl	$0, %edx
 229      00
 230 007b EB1D     		jmp	.L23
 231              	.LVL31:
 232              	.L24:
 211:/home/baikal/workspace/C50/Huawei_IoT_Agent_Tiny_SDK_Linux//agent_tiny/lwm2m_client/object_server.c ****         }
 233              		.loc 1 211 0 discriminator 3
 234 007d 4863CA   		movslq	%edx, %rcx
 235 0080 488D3449 		leaq	(%rcx,%rcx,2), %rsi
 236 0084 488D04F5 		leaq	0(,%rsi,8), %rax
 236      00000000 
 237 008c 480303   		addq	(%rbx), %rax
 238 008f 0FB70C4C 		movzwl	(%rsp,%rcx,2), %ecx
 239 0093 66894804 		movw	%cx, 4(%rax)
 209:/home/baikal/workspace/C50/Huawei_IoT_Agent_Tiny_SDK_Linux//agent_tiny/lwm2m_client/object_server.c ****         {
 240              		.loc 1 209 0 discriminator 3
 241 0097 83C201   		addl	$1, %edx
 242              	.LVL32:
 243              	.L23:
 209:/home/baikal/workspace/C50/Huawei_IoT_Agent_Tiny_SDK_Linux//agent_tiny/lwm2m_client/object_server.c ****         {
 244              		.loc 1 209 0 is_stmt 0 discriminator 1
 245 009a 83FA08   		cmpl	$8, %edx
 246 009d 7EDE     		jle	.L24
 247              	.LBE24:
 187:/home/baikal/workspace/C50/Huawei_IoT_Agent_Tiny_SDK_Linux//agent_tiny/lwm2m_client/object_server.c **** 
 248              		.loc 1 187 0 is_stmt 1
 249 009f B8450000 		movl	$69, %eax
 249      00
 250 00a4 EB38     		jmp	.L22
 251              	.LVL33:
 252              	.L27:
 253              	.LCFI13:
 254              		.cfi_def_cfa_offset 8
 255              		.cfi_restore 3
 256              		.cfi_restore 6
 218:/home/baikal/workspace/C50/Huawei_IoT_Agent_Tiny_SDK_Linux//agent_tiny/lwm2m_client/object_server.c ****             {
 257              		.loc 1 218 0
 258 00a6 4863CE   		movslq	%esi, %rcx
 259 00a9 488D3C49 		leaq	(%rcx,%rcx,2), %rdi
 260 00ad 488D0CFD 		leaq	0(,%rdi,8), %rcx
 260      00000000 
 261 00b5 48030A   		addq	(%rdx), %rcx
 262 00b8 66837904 		cmpw	$8, 4(%rcx)
GAS LISTING /tmp/ccJJOyJ4.s 			page 14


 262      08
 263 00bd 7605     		jbe	.L25
 231:/home/baikal/workspace/C50/Huawei_IoT_Agent_Tiny_SDK_Linux//agent_tiny/lwm2m_client/object_server.c ****             }
 264              		.loc 1 231 0
 265 00bf B884FFFF 		movl	$-124, %eax
 265      FF
 266              	.LVL34:
 267              	.L25:
 216:/home/baikal/workspace/C50/Huawei_IoT_Agent_Tiny_SDK_Linux//agent_tiny/lwm2m_client/object_server.c ****         {
 268              		.loc 1 216 0 discriminator 2
 269 00c4 83C601   		addl	$1, %esi
 270              	.LVL35:
 271 00c7 EB0A     		jmp	.L20
 272              	.LVL36:
 273              	.L28:
 274 00c9 BE000000 		movl	$0, %esi
 274      00
 275              	.LVL37:
 276 00ce B8450000 		movl	$69, %eax
 276      00
 277              	.LVL38:
 278              	.L20:
 216:/home/baikal/workspace/C50/Huawei_IoT_Agent_Tiny_SDK_Linux//agent_tiny/lwm2m_client/object_server.c ****         {
 279              		.loc 1 216 0 is_stmt 0 discriminator 1
 280 00d3 4439C6   		cmpl	%r8d, %esi
 281 00d6 7D0C     		jge	.L33
 216:/home/baikal/workspace/C50/Huawei_IoT_Agent_Tiny_SDK_Linux//agent_tiny/lwm2m_client/object_server.c ****         {
 282              		.loc 1 216 0 discriminator 3
 283 00d8 3C45     		cmpb	$69, %al
 284 00da 74CA     		je	.L27
 285 00dc F3C3     		rep ret
 286              	.LVL39:
 287              	.L22:
 288              	.LCFI14:
 289              		.cfi_def_cfa_offset 64
 290              		.cfi_offset 3, -24
 291              		.cfi_offset 6, -16
 237:/home/baikal/workspace/C50/Huawei_IoT_Agent_Tiny_SDK_Linux//agent_tiny/lwm2m_client/object_server.c **** 
 292              		.loc 1 237 0 is_stmt 1
 293 00de 4883C428 		addq	$40, %rsp
 294              	.LCFI15:
 295              		.cfi_def_cfa_offset 24
 296 00e2 5B       		popq	%rbx
 297              	.LCFI16:
 298              		.cfi_restore 3
 299              		.cfi_def_cfa_offset 16
 300              	.LVL40:
 301 00e3 5D       		popq	%rbp
 302              	.LCFI17:
 303              		.cfi_restore 6
 304              		.cfi_def_cfa_offset 8
 305              	.LVL41:
 306              	.L33:
 307 00e4 F3C3     		rep ret
 308              		.cfi_endproc
 309              	.LFE73:
 311              		.section	.text.prv_get_value,"ax",@progbits
GAS LISTING /tmp/ccJJOyJ4.s 			page 15


 313              	prv_get_value:
 314              	.LFB71:
  89:/home/baikal/workspace/C50/Huawei_IoT_Agent_Tiny_SDK_Linux//agent_tiny/lwm2m_client/object_server.c ****     switch (dataP->id)
 315              		.loc 1 89 0
 316              		.cfi_startproc
 317              	.LVL42:
 318 0000 4883EC08 		subq	$8, %rsp
 319              	.LCFI18:
 320              		.cfi_def_cfa_offset 16
  90:/home/baikal/workspace/C50/Huawei_IoT_Agent_Tiny_SDK_Linux//agent_tiny/lwm2m_client/object_server.c ****     {
 321              		.loc 1 90 0
 322 0004 0FB74704 		movzwl	4(%rdi), %eax
 323 0008 6683F808 		cmpw	$8, %ax
 324 000c 0F878300 		ja	.L45
 324      0000
 325 0012 4889F2   		movq	%rsi, %rdx
 326 0015 4889FE   		movq	%rdi, %rsi
 327              	.LVL43:
 328 0018 0FB7C0   		movzwl	%ax, %eax
 329 001b FF24C500 		jmp	*.L37(,%rax,8)
 329      000000
 330              		.section	.rodata.prv_get_value,"a",@progbits
 331              		.align 8
 332              		.align 4
 333              	.L37:
 334 0000 00000000 		.quad	.L36
 334      00000000 
 335 0008 00000000 		.quad	.L38
 335      00000000 
 336 0010 00000000 		.quad	.L39
 336      00000000 
 337 0018 00000000 		.quad	.L40
 337      00000000 
 338 0020 00000000 		.quad	.L41
 338      00000000 
 339 0028 00000000 		.quad	.L42
 339      00000000 
 340 0030 00000000 		.quad	.L43
 340      00000000 
 341 0038 00000000 		.quad	.L44
 341      00000000 
 342 0040 00000000 		.quad	.L41
 342      00000000 
 343              		.section	.text.prv_get_value
 344              	.L41:
 109:/home/baikal/workspace/C50/Huawei_IoT_Agent_Tiny_SDK_Linux//agent_tiny/lwm2m_client/object_server.c **** 
 345              		.loc 1 109 0
 346 0022 B885FFFF 		movl	$-123, %eax
 346      FF
 347 0027 EB71     		jmp	.L35
 348              	.L36:
  93:/home/baikal/workspace/C50/Huawei_IoT_Agent_Tiny_SDK_Linux//agent_tiny/lwm2m_client/object_server.c ****         return COAP_205_CONTENT;
 349              		.loc 1 93 0
 350 0029 0FB77A0A 		movzwl	10(%rdx), %edi
 351              	.LVL44:
 352 002d E8000000 		call	lwm2m_data_encode_int
 352      00
GAS LISTING /tmp/ccJJOyJ4.s 			page 16


 353              	.LVL45:
  94:/home/baikal/workspace/C50/Huawei_IoT_Agent_Tiny_SDK_Linux//agent_tiny/lwm2m_client/object_server.c **** 
 354              		.loc 1 94 0
 355 0032 B8450000 		movl	$69, %eax
 355      00
 356 0037 EB61     		jmp	.L35
 357              	.LVL46:
 358              	.L38:
  97:/home/baikal/workspace/C50/Huawei_IoT_Agent_Tiny_SDK_Linux//agent_tiny/lwm2m_client/object_server.c ****         return COAP_205_CONTENT;
 359              		.loc 1 97 0
 360 0039 8B7A0C   		movl	12(%rdx), %edi
 361 003c E8000000 		call	lwm2m_data_encode_int
 361      00
 362              	.LVL47:
  98:/home/baikal/workspace/C50/Huawei_IoT_Agent_Tiny_SDK_Linux//agent_tiny/lwm2m_client/object_server.c **** 
 363              		.loc 1 98 0
 364 0041 B8450000 		movl	$69, %eax
 364      00
 365 0046 EB52     		jmp	.L35
 366              	.LVL48:
 367              	.L39:
 101:/home/baikal/workspace/C50/Huawei_IoT_Agent_Tiny_SDK_Linux//agent_tiny/lwm2m_client/object_server.c ****         return COAP_205_CONTENT;
 368              		.loc 1 101 0
 369 0048 8B7A10   		movl	16(%rdx), %edi
 370 004b E8000000 		call	lwm2m_data_encode_int
 370      00
 371              	.LVL49:
 102:/home/baikal/workspace/C50/Huawei_IoT_Agent_Tiny_SDK_Linux//agent_tiny/lwm2m_client/object_server.c **** 
 372              		.loc 1 102 0
 373 0050 B8450000 		movl	$69, %eax
 373      00
 374 0055 EB43     		jmp	.L35
 375              	.LVL50:
 376              	.L40:
 105:/home/baikal/workspace/C50/Huawei_IoT_Agent_Tiny_SDK_Linux//agent_tiny/lwm2m_client/object_server.c ****         return COAP_205_CONTENT;
 377              		.loc 1 105 0
 378 0057 8B7A14   		movl	20(%rdx), %edi
 379 005a E8000000 		call	lwm2m_data_encode_int
 379      00
 380              	.LVL51:
 106:/home/baikal/workspace/C50/Huawei_IoT_Agent_Tiny_SDK_Linux//agent_tiny/lwm2m_client/object_server.c **** 
 381              		.loc 1 106 0
 382 005f B8450000 		movl	$69, %eax
 382      00
 383 0064 EB34     		jmp	.L35
 384              	.LVL52:
 385              	.L42:
 112:/home/baikal/workspace/C50/Huawei_IoT_Agent_Tiny_SDK_Linux//agent_tiny/lwm2m_client/object_server.c ****         return COAP_205_CONTENT;
 386              		.loc 1 112 0
 387 0066 8B7A18   		movl	24(%rdx), %edi
 388 0069 E8000000 		call	lwm2m_data_encode_int
 388      00
 389              	.LVL53:
 113:/home/baikal/workspace/C50/Huawei_IoT_Agent_Tiny_SDK_Linux//agent_tiny/lwm2m_client/object_server.c **** 
 390              		.loc 1 113 0
 391 006e B8450000 		movl	$69, %eax
 391      00
GAS LISTING /tmp/ccJJOyJ4.s 			page 17


 392 0073 EB25     		jmp	.L35
 393              	.LVL54:
 394              	.L43:
 116:/home/baikal/workspace/C50/Huawei_IoT_Agent_Tiny_SDK_Linux//agent_tiny/lwm2m_client/object_server.c ****         return COAP_205_CONTENT;
 395              		.loc 1 116 0
 396 0075 0FB67A1C 		movzbl	28(%rdx), %edi
 397 0079 E8000000 		call	lwm2m_data_encode_bool
 397      00
 398              	.LVL55:
 117:/home/baikal/workspace/C50/Huawei_IoT_Agent_Tiny_SDK_Linux//agent_tiny/lwm2m_client/object_server.c **** 
 399              		.loc 1 117 0
 400 007e B8450000 		movl	$69, %eax
 400      00
 401 0083 EB15     		jmp	.L35
 402              	.LVL56:
 403              	.L44:
 120:/home/baikal/workspace/C50/Huawei_IoT_Agent_Tiny_SDK_Linux//agent_tiny/lwm2m_client/object_server.c ****         return COAP_205_CONTENT;
 404              		.loc 1 120 0
 405 0085 488D7A1D 		leaq	29(%rdx), %rdi
 406 0089 E8000000 		call	lwm2m_data_encode_string
 406      00
 407              	.LVL57:
 121:/home/baikal/workspace/C50/Huawei_IoT_Agent_Tiny_SDK_Linux//agent_tiny/lwm2m_client/object_server.c **** 
 408              		.loc 1 121 0
 409 008e B8450000 		movl	$69, %eax
 409      00
 410 0093 EB05     		jmp	.L35
 411              	.LVL58:
 412              	.L45:
 127:/home/baikal/workspace/C50/Huawei_IoT_Agent_Tiny_SDK_Linux//agent_tiny/lwm2m_client/object_server.c ****     }
 413              		.loc 1 127 0
 414 0095 B884FFFF 		movl	$-124, %eax
 414      FF
 415              	.LVL59:
 416              	.L35:
 129:/home/baikal/workspace/C50/Huawei_IoT_Agent_Tiny_SDK_Linux//agent_tiny/lwm2m_client/object_server.c **** 
 417              		.loc 1 129 0
 418 009a 4883C408 		addq	$8, %rsp
 419              	.LCFI19:
 420              		.cfi_def_cfa_offset 8
 421 009e C3       		ret
 422              		.cfi_endproc
 423              	.LFE71:
 425              		.section	.text.prv_server_read,"ax",@progbits
 427              	prv_server_read:
 428              	.LFB72:
 136:/home/baikal/workspace/C50/Huawei_IoT_Agent_Tiny_SDK_Linux//agent_tiny/lwm2m_client/object_server.c ****     server_instance_t *targetP;
 429              		.loc 1 136 0
 430              		.cfi_startproc
 431              	.LVL60:
 432 0000 4155     		pushq	%r13
 433              	.LCFI20:
 434              		.cfi_def_cfa_offset 16
 435              		.cfi_offset 13, -16
 436 0002 4154     		pushq	%r12
 437              	.LCFI21:
 438              		.cfi_def_cfa_offset 24
GAS LISTING /tmp/ccJJOyJ4.s 			page 18


 439              		.cfi_offset 12, -24
 440 0004 55       		pushq	%rbp
 441              	.LCFI22:
 442              		.cfi_def_cfa_offset 32
 443              		.cfi_offset 6, -32
 444 0005 53       		pushq	%rbx
 445              	.LCFI23:
 446              		.cfi_def_cfa_offset 40
 447              		.cfi_offset 3, -40
 448 0006 4883EC18 		subq	$24, %rsp
 449              	.LCFI24:
 450              		.cfi_def_cfa_offset 64
 451 000a 4989F5   		movq	%rsi, %r13
 452 000d 4889D5   		movq	%rdx, %rbp
 141:/home/baikal/workspace/C50/Huawei_IoT_Agent_Tiny_SDK_Linux//agent_tiny/lwm2m_client/object_server.c ****     if (NULL == targetP) return COAP_404_NOT_FOUND;
 453              		.loc 1 141 0
 454 0010 0FB7F7   		movzwl	%di, %esi
 455              	.LVL61:
 456 0013 498B7810 		movq	16(%r8), %rdi
 457              	.LVL62:
 458 0017 E8000000 		call	lwm2m_list_find
 458      00
 459              	.LVL63:
 142:/home/baikal/workspace/C50/Huawei_IoT_Agent_Tiny_SDK_Linux//agent_tiny/lwm2m_client/object_server.c **** 
 460              		.loc 1 142 0
 461 001c 4885C0   		testq	%rax, %rax
 462 001f 0F84B500 		je	.L54
 462      0000
 463 0025 4989C4   		movq	%rax, %r12
 145:/home/baikal/workspace/C50/Huawei_IoT_Agent_Tiny_SDK_Linux//agent_tiny/lwm2m_client/object_server.c ****     {
 464              		.loc 1 145 0
 465 0028 41837D00 		cmpl	$0, 0(%r13)
 465      00
 466 002d 757C     		jne	.L49
 467              	.LBB25:
 147:/home/baikal/workspace/C50/Huawei_IoT_Agent_Tiny_SDK_Linux//agent_tiny/lwm2m_client/object_server.c ****         {
 468              		.loc 1 147 0
 469 002f 66C70424 		movw	$0, (%rsp)
 469      0000
 470 0035 66C74424 		movw	$1, 2(%rsp)
 470      020100
 471 003c 66C74424 		movw	$2, 4(%rsp)
 471      040200
 472 0043 66C74424 		movw	$3, 6(%rsp)
 472      060300
 473 004a 66C74424 		movw	$5, 8(%rsp)
 473      080500
 474 0051 66C74424 		movw	$6, 10(%rsp)
 474      0A0600
 475 0058 66C74424 		movw	$7, 12(%rsp)
 475      0C0700
 476              	.LVL64:
 159:/home/baikal/workspace/C50/Huawei_IoT_Agent_Tiny_SDK_Linux//agent_tiny/lwm2m_client/object_server.c ****         if (*dataArrayP == NULL) return COAP_500_INTERNAL_SERVER_ERROR;
 477              		.loc 1 159 0
 478 005f BF070000 		movl	$7, %edi
 478      00
 479 0064 E8000000 		call	lwm2m_data_new
GAS LISTING /tmp/ccJJOyJ4.s 			page 19


 479      00
 480              	.LVL65:
 481 0069 48894500 		movq	%rax, 0(%rbp)
 160:/home/baikal/workspace/C50/Huawei_IoT_Agent_Tiny_SDK_Linux//agent_tiny/lwm2m_client/object_server.c ****         *numDataP = nbRes;
 482              		.loc 1 160 0
 483 006d 4885C0   		testq	%rax, %rax
 484 0070 7507     		jne	.L50
 160:/home/baikal/workspace/C50/Huawei_IoT_Agent_Tiny_SDK_Linux//agent_tiny/lwm2m_client/object_server.c ****         *numDataP = nbRes;
 485              		.loc 1 160 0 is_stmt 0 discriminator 1
 486 0072 B8A0FFFF 		movl	$-96, %eax
 486      FF
 487 0077 EB66     		jmp	.L48
 488              	.L50:
 161:/home/baikal/workspace/C50/Huawei_IoT_Agent_Tiny_SDK_Linux//agent_tiny/lwm2m_client/object_server.c ****         for (i = 0 ; i < nbRes ; i++)
 489              		.loc 1 161 0 is_stmt 1
 490 0079 41C74500 		movl	$7, 0(%r13)
 490      07000000 
 491              	.LVL66:
 162:/home/baikal/workspace/C50/Huawei_IoT_Agent_Tiny_SDK_Linux//agent_tiny/lwm2m_client/object_server.c ****         {
 492              		.loc 1 162 0
 493 0081 BA000000 		movl	$0, %edx
 493      00
 494 0086 EB1E     		jmp	.L51
 495              	.LVL67:
 496              	.L52:
 164:/home/baikal/workspace/C50/Huawei_IoT_Agent_Tiny_SDK_Linux//agent_tiny/lwm2m_client/object_server.c ****         }
 497              		.loc 1 164 0 discriminator 3
 498 0088 4863CA   		movslq	%edx, %rcx
 499 008b 488D3449 		leaq	(%rcx,%rcx,2), %rsi
 500 008f 488D04F5 		leaq	0(,%rsi,8), %rax
 500      00000000 
 501 0097 48034500 		addq	0(%rbp), %rax
 502 009b 0FB70C4C 		movzwl	(%rsp,%rcx,2), %ecx
 503 009f 66894804 		movw	%cx, 4(%rax)
 162:/home/baikal/workspace/C50/Huawei_IoT_Agent_Tiny_SDK_Linux//agent_tiny/lwm2m_client/object_server.c ****         {
 504              		.loc 1 162 0 discriminator 3
 505 00a3 83C201   		addl	$1, %edx
 506              	.LVL68:
 507              	.L51:
 162:/home/baikal/workspace/C50/Huawei_IoT_Agent_Tiny_SDK_Linux//agent_tiny/lwm2m_client/object_server.c ****         {
 508              		.loc 1 162 0 is_stmt 0 discriminator 1
 509 00a6 83FA06   		cmpl	$6, %edx
 510 00a9 7EDD     		jle	.L52
 511              	.LVL69:
 512              	.L49:
 162:/home/baikal/workspace/C50/Huawei_IoT_Agent_Tiny_SDK_Linux//agent_tiny/lwm2m_client/object_server.c ****         {
 513              		.loc 1 162 0 discriminator 2
 514 00ab BB000000 		movl	$0, %ebx
 514      00
 515              	.L53:
 516              	.LVL70:
 517              	.LBE25:
 171:/home/baikal/workspace/C50/Huawei_IoT_Agent_Tiny_SDK_Linux//agent_tiny/lwm2m_client/object_server.c ****         i++;
 518              		.loc 1 171 0 is_stmt 1 discriminator 2
 519 00b0 4863C3   		movslq	%ebx, %rax
 520 00b3 488D0440 		leaq	(%rax,%rax,2), %rax
 521 00b7 488D3CC5 		leaq	0(,%rax,8), %rdi
GAS LISTING /tmp/ccJJOyJ4.s 			page 20


 521      00000000 
 522 00bf 48037D00 		addq	0(%rbp), %rdi
 523 00c3 4C89E6   		movq	%r12, %rsi
 524 00c6 E8000000 		call	prv_get_value
 524      00
 525              	.LVL71:
 172:/home/baikal/workspace/C50/Huawei_IoT_Agent_Tiny_SDK_Linux//agent_tiny/lwm2m_client/object_server.c ****     }
 526              		.loc 1 172 0 discriminator 2
 527 00cb 83C301   		addl	$1, %ebx
 528              	.LVL72:
 174:/home/baikal/workspace/C50/Huawei_IoT_Agent_Tiny_SDK_Linux//agent_tiny/lwm2m_client/object_server.c **** 
 529              		.loc 1 174 0 discriminator 2
 530 00ce 413B5D00 		cmpl	0(%r13), %ebx
 531 00d2 7D0B     		jge	.L48
 174:/home/baikal/workspace/C50/Huawei_IoT_Agent_Tiny_SDK_Linux//agent_tiny/lwm2m_client/object_server.c **** 
 532              		.loc 1 174 0 is_stmt 0 discriminator 1
 533 00d4 3C45     		cmpb	$69, %al
 534 00d6 74D8     		je	.L53
 535 00d8 EB05     		jmp	.L48
 536              	.LVL73:
 537              	.L54:
 142:/home/baikal/workspace/C50/Huawei_IoT_Agent_Tiny_SDK_Linux//agent_tiny/lwm2m_client/object_server.c **** 
 538              		.loc 1 142 0 is_stmt 1
 539 00da B884FFFF 		movl	$-124, %eax
 539      FF
 540              	.LVL74:
 541              	.L48:
 177:/home/baikal/workspace/C50/Huawei_IoT_Agent_Tiny_SDK_Linux//agent_tiny/lwm2m_client/object_server.c **** 
 542              		.loc 1 177 0
 543 00df 4883C418 		addq	$24, %rsp
 544              	.LCFI25:
 545              		.cfi_def_cfa_offset 40
 546 00e3 5B       		popq	%rbx
 547              	.LCFI26:
 548              		.cfi_def_cfa_offset 32
 549 00e4 5D       		popq	%rbp
 550              	.LCFI27:
 551              		.cfi_def_cfa_offset 24
 552              	.LVL75:
 553 00e5 415C     		popq	%r12
 554              	.LCFI28:
 555              		.cfi_def_cfa_offset 16
 556 00e7 415D     		popq	%r13
 557              	.LCFI29:
 558              		.cfi_def_cfa_offset 8
 559              	.LVL76:
 560 00e9 C3       		ret
 561              		.cfi_endproc
 562              	.LFE72:
 564              		.section	.rodata.str1.1,"aMS",@progbits,1
 565              	.LC0:
 566 0000 5500     		.string	"U"
 567              	.LC1:
 568 0002 555100   		.string	"UQ"
 569              	.LC2:
 570 0005 5300     		.string	"S"
 571              	.LC3:
GAS LISTING /tmp/ccJJOyJ4.s 			page 21


 572 0007 535100   		.string	"SQ"
 573              	.LC4:
 574 000a 555300   		.string	"US"
 575              	.LC5:
 576 000d 55515300 		.string	"UQS"
 577              		.section	.text.prv_server_check_binding_valid,"ax",@progbits
 578              		.globl	prv_server_check_binding_valid
 580              	prv_server_check_binding_valid:
 581              	.LFB75:
 264:/home/baikal/workspace/C50/Huawei_IoT_Agent_Tiny_SDK_Linux//agent_tiny/lwm2m_client/object_server.c ****     if ((strncmp(binding, "U", size) == 0
 582              		.loc 1 264 0
 583              		.cfi_startproc
 584              	.LVL77:
 585 0000 4889FA   		movq	%rdi, %rdx
 586 0003 4889F0   		movq	%rsi, %rax
 265:/home/baikal/workspace/C50/Huawei_IoT_Agent_Tiny_SDK_Linux//agent_tiny/lwm2m_client/object_server.c ****             || strncmp(binding, "UQ", size) == 0
 587              		.loc 1 265 0
 588 0006 4883FE02 		cmpq	$2, %rsi
 589 000a B9020000 		movl	$2, %ecx
 589      00
 590 000f 480F4ECE 		cmovle	%rsi, %rcx
 591 0013 BF000000 		movl	$.LC0, %edi
 591      00
 592              	.LVL78:
 593 0018 4839C9   		cmpq	%rcx, %rcx
 594 001b 4889D6   		movq	%rdx, %rsi
 595              	.LVL79:
 596 001e F3A6     		repz cmpsb
 597              	.LVL80:
 598 0020 400F97C6 		seta	%sil
 599 0024 0F92C1   		setb	%cl
 600 0027 4038CE   		cmpb	%cl, %sil
 601 002a 0F84CA00 		je	.L59
 601      0000
 266:/home/baikal/workspace/C50/Huawei_IoT_Agent_Tiny_SDK_Linux//agent_tiny/lwm2m_client/object_server.c ****             || strncmp(binding, "S", size) == 0
 602              		.loc 1 266 0 discriminator 2
 603 0030 4883F803 		cmpq	$3, %rax
 604 0034 B9030000 		movl	$3, %ecx
 604      00
 605 0039 480F4EC8 		cmovle	%rax, %rcx
 606 003d BF000000 		movl	$.LC1, %edi
 606      00
 607 0042 4839C9   		cmpq	%rcx, %rcx
 608 0045 4889D6   		movq	%rdx, %rsi
 609 0048 F3A6     		repz cmpsb
 610 004a 400F97C6 		seta	%sil
 611 004e 0F92C1   		setb	%cl
 612 0051 4038CE   		cmpb	%cl, %sil
 613 0054 0F84A600 		je	.L60
 613      0000
 267:/home/baikal/workspace/C50/Huawei_IoT_Agent_Tiny_SDK_Linux//agent_tiny/lwm2m_client/object_server.c ****             || strncmp(binding, "SQ", size) == 0
 614              		.loc 1 267 0 discriminator 2
 615 005a 4883F802 		cmpq	$2, %rax
 616 005e B9020000 		movl	$2, %ecx
 616      00
 617 0063 480F4EC8 		cmovle	%rax, %rcx
 618 0067 BF000000 		movl	$.LC2, %edi
GAS LISTING /tmp/ccJJOyJ4.s 			page 22


 618      00
 619 006c 4839C9   		cmpq	%rcx, %rcx
 620 006f 4889D6   		movq	%rdx, %rsi
 621 0072 F3A6     		repz cmpsb
 622 0074 400F97C6 		seta	%sil
 623 0078 0F92C1   		setb	%cl
 624 007b 4038CE   		cmpb	%cl, %sil
 625 007e 0F848200 		je	.L61
 625      0000
 268:/home/baikal/workspace/C50/Huawei_IoT_Agent_Tiny_SDK_Linux//agent_tiny/lwm2m_client/object_server.c ****             || strncmp(binding, "US", size) == 0
 626              		.loc 1 268 0 discriminator 2
 627 0084 4883F803 		cmpq	$3, %rax
 628 0088 B9030000 		movl	$3, %ecx
 628      00
 629 008d 480F4EC8 		cmovle	%rax, %rcx
 630 0091 BF000000 		movl	$.LC3, %edi
 630      00
 631 0096 4839C9   		cmpq	%rcx, %rcx
 632 0099 4889D6   		movq	%rdx, %rsi
 633 009c F3A6     		repz cmpsb
 634 009e 400F97C6 		seta	%sil
 635 00a2 0F92C1   		setb	%cl
 636 00a5 4038CE   		cmpb	%cl, %sil
 637 00a8 7462     		je	.L62
 269:/home/baikal/workspace/C50/Huawei_IoT_Agent_Tiny_SDK_Linux//agent_tiny/lwm2m_client/object_server.c ****             || strncmp(binding, "UQS", size) == 0))
 638              		.loc 1 269 0 discriminator 2
 639 00aa 4883F803 		cmpq	$3, %rax
 640 00ae B9030000 		movl	$3, %ecx
 640      00
 641 00b3 480F4EC8 		cmovle	%rax, %rcx
 642 00b7 BF000000 		movl	$.LC4, %edi
 642      00
 643 00bc 4839C9   		cmpq	%rcx, %rcx
 644 00bf 4889D6   		movq	%rdx, %rsi
 645 00c2 F3A6     		repz cmpsb
 646 00c4 400F97C6 		seta	%sil
 647 00c8 0F92C1   		setb	%cl
 648 00cb 4038CE   		cmpb	%cl, %sil
 649 00ce 7442     		je	.L63
 270:/home/baikal/workspace/C50/Huawei_IoT_Agent_Tiny_SDK_Linux//agent_tiny/lwm2m_client/object_server.c ****     {
 650              		.loc 1 270 0 discriminator 2
 651 00d0 4883F804 		cmpq	$4, %rax
 652 00d4 B9040000 		movl	$4, %ecx
 652      00
 653 00d9 480F4EC8 		cmovle	%rax, %rcx
 654 00dd BF000000 		movl	$.LC5, %edi
 654      00
 655 00e2 4839C9   		cmpq	%rcx, %rcx
 656 00e5 4889D6   		movq	%rdx, %rsi
 657 00e8 F3A6     		repz cmpsb
 658 00ea 0F97C2   		seta	%dl
 659 00ed 0F92C0   		setb	%al
 660              	.LVL81:
 661 00f0 38C2     		cmpb	%al, %dl
 662 00f2 7524     		jne	.L64
 272:/home/baikal/workspace/C50/Huawei_IoT_Agent_Tiny_SDK_Linux//agent_tiny/lwm2m_client/object_server.c ****     }
 663              		.loc 1 272 0
GAS LISTING /tmp/ccJJOyJ4.s 			page 23


 664 00f4 B8010000 		movl	$1, %eax
 664      00
 665 00f9 C3       		ret
 666              	.LVL82:
 667              	.L59:
 668 00fa B8010000 		movl	$1, %eax
 668      00
 669              	.LVL83:
 670 00ff C3       		ret
 671              	.LVL84:
 672              	.L60:
 673 0100 B8010000 		movl	$1, %eax
 673      00
 674              	.LVL85:
 675 0105 C3       		ret
 676              	.LVL86:
 677              	.L61:
 678 0106 B8010000 		movl	$1, %eax
 678      00
 679              	.LVL87:
 680 010b C3       		ret
 681              	.LVL88:
 682              	.L62:
 683 010c B8010000 		movl	$1, %eax
 683      00
 684              	.LVL89:
 685 0111 C3       		ret
 686              	.LVL90:
 687              	.L63:
 688 0112 B8010000 		movl	$1, %eax
 688      00
 689              	.LVL91:
 690 0117 C3       		ret
 691              	.L64:
 276:/home/baikal/workspace/C50/Huawei_IoT_Agent_Tiny_SDK_Linux//agent_tiny/lwm2m_client/object_server.c ****     }
 692              		.loc 1 276 0
 693 0118 B8000000 		movl	$0, %eax
 693      00
 278:/home/baikal/workspace/C50/Huawei_IoT_Agent_Tiny_SDK_Linux//agent_tiny/lwm2m_client/object_server.c **** static uint8_t prv_server_write(uint16_t instanceId,
 694              		.loc 1 278 0
 695 011d C3       		ret
 696              		.cfi_endproc
 697              	.LFE75:
 699              		.section	.text.prv_server_write,"ax",@progbits
 701              	prv_server_write:
 702              	.LFB76:
 283:/home/baikal/workspace/C50/Huawei_IoT_Agent_Tiny_SDK_Linux//agent_tiny/lwm2m_client/object_server.c ****     server_instance_t *targetP;
 703              		.loc 1 283 0
 704              		.cfi_startproc
 705              	.LVL92:
 706 0000 4156     		pushq	%r14
 707              	.LCFI30:
 708              		.cfi_def_cfa_offset 16
 709              		.cfi_offset 14, -16
 710 0002 4155     		pushq	%r13
 711              	.LCFI31:
 712              		.cfi_def_cfa_offset 24
GAS LISTING /tmp/ccJJOyJ4.s 			page 24


 713              		.cfi_offset 13, -24
 714 0004 4154     		pushq	%r12
 715              	.LCFI32:
 716              		.cfi_def_cfa_offset 32
 717              		.cfi_offset 12, -32
 718 0006 55       		pushq	%rbp
 719              	.LCFI33:
 720              		.cfi_def_cfa_offset 40
 721              		.cfi_offset 6, -40
 722 0007 53       		pushq	%rbx
 723              	.LCFI34:
 724              		.cfi_def_cfa_offset 48
 725              		.cfi_offset 3, -48
 726 0008 4883EC10 		subq	$16, %rsp
 727              	.LCFI35:
 728              		.cfi_def_cfa_offset 64
 729 000c 4189F5   		movl	%esi, %r13d
 730 000f 4989D4   		movq	%rdx, %r12
 288:/home/baikal/workspace/C50/Huawei_IoT_Agent_Tiny_SDK_Linux//agent_tiny/lwm2m_client/object_server.c ****     if (NULL == targetP)
 731              		.loc 1 288 0
 732 0012 0FB7F7   		movzwl	%di, %esi
 733              	.LVL93:
 734 0015 488B7910 		movq	16(%rcx), %rdi
 735              	.LVL94:
 736 0019 E8000000 		call	lwm2m_list_find
 736      00
 737              	.LVL95:
 289:/home/baikal/workspace/C50/Huawei_IoT_Agent_Tiny_SDK_Linux//agent_tiny/lwm2m_client/object_server.c ****     {
 738              		.loc 1 289 0
 739 001e 4885C0   		testq	%rax, %rax
 740 0021 0F847201 		je	.L79
 740      0000
 741 0027 4989C6   		movq	%rax, %r14
 742 002a BD000000 		movl	$0, %ebp
 742      00
 743              	.LVL96:
 744              	.L78:
 297:/home/baikal/workspace/C50/Huawei_IoT_Agent_Tiny_SDK_Linux//agent_tiny/lwm2m_client/object_server.c ****         {
 745              		.loc 1 297 0
 746 002f 4863C5   		movslq	%ebp, %rax
 747 0032 488D0440 		leaq	(%rax,%rax,2), %rax
 748 0036 488D1CC5 		leaq	0(,%rax,8), %rbx
 748      00000000 
 749 003e 4C01E3   		addq	%r12, %rbx
 750 0041 0FB74304 		movzwl	4(%rbx), %eax
 751 0045 6683F808 		cmpw	$8, %ax
 752 0049 0F875101 		ja	.L80
 752      0000
 753 004f 0FB7C0   		movzwl	%ax, %eax
 754 0052 FF24C500 		jmp	*.L68(,%rax,8)
 754      000000
 755              		.section	.rodata.prv_server_write,"a",@progbits
 756              		.align 8
 757              		.align 4
 758              	.L68:
 759 0000 00000000 		.quad	.L67
 759      00000000 
GAS LISTING /tmp/ccJJOyJ4.s 			page 25


 760 0008 00000000 		.quad	.L69
 760      00000000 
 761 0010 00000000 		.quad	.L70
 761      00000000 
 762 0018 00000000 		.quad	.L71
 762      00000000 
 763 0020 00000000 		.quad	.L81
 763      00000000 
 764 0028 00000000 		.quad	.L73
 764      00000000 
 765 0030 00000000 		.quad	.L74
 765      00000000 
 766 0038 00000000 		.quad	.L75
 766      00000000 
 767 0040 00000000 		.quad	.L81
 767      00000000 
 768              		.section	.text.prv_server_write
 769              	.L67:
 770              	.LBB26:
 301:/home/baikal/workspace/C50/Huawei_IoT_Agent_Tiny_SDK_Linux//agent_tiny/lwm2m_client/object_server.c ****             result = prv_set_int_value(dataArray + i, &value);
 771              		.loc 1 301 0
 772 0059 410FB746 		movzwl	10(%r14), %eax
 772      0A
 773 005e 8944240C 		movl	%eax, 12(%rsp)
 302:/home/baikal/workspace/C50/Huawei_IoT_Agent_Tiny_SDK_Linux//agent_tiny/lwm2m_client/object_server.c ****             if (COAP_204_CHANGED == result)
 774              		.loc 1 302 0
 775 0062 488D7424 		leaq	12(%rsp), %rsi
 775      0C
 776 0067 4889DF   		movq	%rbx, %rdi
 777 006a E8000000 		call	prv_set_int_value
 777      00
 778              	.LVL97:
 303:/home/baikal/workspace/C50/Huawei_IoT_Agent_Tiny_SDK_Linux//agent_tiny/lwm2m_client/object_server.c ****             {
 779              		.loc 1 303 0
 780 006f 3C44     		cmpb	$68, %al
 781 0071 0F850A01 		jne	.L72
 781      0000
 305:/home/baikal/workspace/C50/Huawei_IoT_Agent_Tiny_SDK_Linux//agent_tiny/lwm2m_client/object_server.c ****                 {
 782              		.loc 1 305 0
 783 0077 8B54240C 		movl	12(%rsp), %edx
 784 007b 8D4AFF   		leal	-1(%rdx), %ecx
 785 007e 81F9FEFF 		cmpl	$65534, %ecx
 785      0000
 786 0084 770A     		ja	.L82
 307:/home/baikal/workspace/C50/Huawei_IoT_Agent_Tiny_SDK_Linux//agent_tiny/lwm2m_client/object_server.c ****                 }
 787              		.loc 1 307 0
 788 0086 66418956 		movw	%dx, 10(%r14)
 788      0A
 789 008b E9F10000 		jmp	.L72
 789      00
 790              	.L82:
 311:/home/baikal/workspace/C50/Huawei_IoT_Agent_Tiny_SDK_Linux//agent_tiny/lwm2m_client/object_server.c ****                 }
 791              		.loc 1 311 0
 792 0090 B886FFFF 		movl	$-122, %eax
 792      FF
 793              	.LVL98:
 794              	.LBE26:
GAS LISTING /tmp/ccJJOyJ4.s 			page 26


 315:/home/baikal/workspace/C50/Huawei_IoT_Agent_Tiny_SDK_Linux//agent_tiny/lwm2m_client/object_server.c **** 
 795              		.loc 1 315 0
 796 0095 E9E70000 		jmp	.L72
 796      00
 797              	.LVL99:
 798              	.L69:
 318:/home/baikal/workspace/C50/Huawei_IoT_Agent_Tiny_SDK_Linux//agent_tiny/lwm2m_client/object_server.c ****             break;
 799              		.loc 1 318 0
 800 009a 498D760C 		leaq	12(%r14), %rsi
 801 009e 4889DF   		movq	%rbx, %rdi
 802 00a1 E8000000 		call	prv_set_int_value
 802      00
 803              	.LVL100:
 319:/home/baikal/workspace/C50/Huawei_IoT_Agent_Tiny_SDK_Linux//agent_tiny/lwm2m_client/object_server.c **** 
 804              		.loc 1 319 0
 805 00a6 E9D60000 		jmp	.L72
 805      00
 806              	.LVL101:
 807              	.L70:
 322:/home/baikal/workspace/C50/Huawei_IoT_Agent_Tiny_SDK_Linux//agent_tiny/lwm2m_client/object_server.c ****             break;
 808              		.loc 1 322 0
 809 00ab 498D7610 		leaq	16(%r14), %rsi
 810 00af 4889DF   		movq	%rbx, %rdi
 811 00b2 E8000000 		call	prv_set_int_value
 811      00
 812              	.LVL102:
 323:/home/baikal/workspace/C50/Huawei_IoT_Agent_Tiny_SDK_Linux//agent_tiny/lwm2m_client/object_server.c **** 
 813              		.loc 1 323 0
 814 00b7 E9C50000 		jmp	.L72
 814      00
 815              	.LVL103:
 816              	.L71:
 326:/home/baikal/workspace/C50/Huawei_IoT_Agent_Tiny_SDK_Linux//agent_tiny/lwm2m_client/object_server.c ****             break;
 817              		.loc 1 326 0
 818 00bc 498D7614 		leaq	20(%r14), %rsi
 819 00c0 4889DF   		movq	%rbx, %rdi
 820 00c3 E8000000 		call	prv_set_int_value
 820      00
 821              	.LVL104:
 327:/home/baikal/workspace/C50/Huawei_IoT_Agent_Tiny_SDK_Linux//agent_tiny/lwm2m_client/object_server.c **** 
 822              		.loc 1 327 0
 823 00c8 E9B40000 		jmp	.L72
 823      00
 824              	.LVL105:
 825              	.L73:
 334:/home/baikal/workspace/C50/Huawei_IoT_Agent_Tiny_SDK_Linux//agent_tiny/lwm2m_client/object_server.c ****             break;
 826              		.loc 1 334 0
 827 00cd 498D7618 		leaq	24(%r14), %rsi
 828 00d1 4889DF   		movq	%rbx, %rdi
 829 00d4 E8000000 		call	prv_set_int_value
 829      00
 830              	.LVL106:
 335:/home/baikal/workspace/C50/Huawei_IoT_Agent_Tiny_SDK_Linux//agent_tiny/lwm2m_client/object_server.c **** 
 831              		.loc 1 335 0
 832 00d9 E9A30000 		jmp	.L72
 832      00
 833              	.LVL107:
GAS LISTING /tmp/ccJJOyJ4.s 			page 27


 834              	.L74:
 835              	.LBB27:
 341:/home/baikal/workspace/C50/Huawei_IoT_Agent_Tiny_SDK_Linux//agent_tiny/lwm2m_client/object_server.c ****             {
 836              		.loc 1 341 0
 837 00de 488D7424 		leaq	12(%rsp), %rsi
 837      0C
 838 00e3 4889DF   		movq	%rbx, %rdi
 839 00e6 E8000000 		call	lwm2m_data_decode_bool
 839      00
 840              	.LVL108:
 841 00eb 83F801   		cmpl	$1, %eax
 842 00ee 751C     		jne	.L83
 343:/home/baikal/workspace/C50/Huawei_IoT_Agent_Tiny_SDK_Linux//agent_tiny/lwm2m_client/object_server.c ****                 if(!value)
 843              		.loc 1 343 0
 844 00f0 0FB64424 		movzbl	12(%rsp), %eax
 844      0C
 845 00f5 4188461C 		movb	%al, 28(%r14)
 344:/home/baikal/workspace/C50/Huawei_IoT_Agent_Tiny_SDK_Linux//agent_tiny/lwm2m_client/object_server.c ****                 {
 846              		.loc 1 344 0
 847 00f9 84C0     		testb	%al, %al
 848 00fb 7516     		jne	.L84
 346:/home/baikal/workspace/C50/Huawei_IoT_Agent_Tiny_SDK_Linux//agent_tiny/lwm2m_client/object_server.c ****                 }
 849              		.loc 1 346 0
 850 00fd 0FB6F8   		movzbl	%al, %edi
 851 0100 E8000000 		call	set_binary_app_data_object_rpt_max_cnt
 851      00
 852              	.LVL109:
 348:/home/baikal/workspace/C50/Huawei_IoT_Agent_Tiny_SDK_Linux//agent_tiny/lwm2m_client/object_server.c ****             }
 853              		.loc 1 348 0
 854 0105 B8440000 		movl	$68, %eax
 854      00
 855 010a EB75     		jmp	.L72
 856              	.L83:
 352:/home/baikal/workspace/C50/Huawei_IoT_Agent_Tiny_SDK_Linux//agent_tiny/lwm2m_client/object_server.c ****             }
 857              		.loc 1 352 0
 858 010c B880FFFF 		movl	$-128, %eax
 858      FF
 859 0111 EB6E     		jmp	.L72
 860              	.L84:
 348:/home/baikal/workspace/C50/Huawei_IoT_Agent_Tiny_SDK_Linux//agent_tiny/lwm2m_client/object_server.c ****             }
 861              		.loc 1 348 0
 862 0113 B8440000 		movl	$68, %eax
 862      00
 863              	.LVL110:
 864              	.LBE27:
 355:/home/baikal/workspace/C50/Huawei_IoT_Agent_Tiny_SDK_Linux//agent_tiny/lwm2m_client/object_server.c **** 
 865              		.loc 1 355 0
 866 0118 EB67     		jmp	.L72
 867              	.LVL111:
 868              	.L75:
 358:/home/baikal/workspace/C50/Huawei_IoT_Agent_Tiny_SDK_Linux//agent_tiny/lwm2m_client/object_server.c ****                     && dataArray[i].value.asBuffer.length > 0 && dataArray[i].value.asBuffer.length
 869              		.loc 1 358 0
 870 011a 8B03     		movl	(%rbx), %eax
 871 011c 83E804   		subl	$4, %eax
 872 011f 83F801   		cmpl	$1, %eax
 873 0122 7743     		ja	.L85
 359:/home/baikal/workspace/C50/Huawei_IoT_Agent_Tiny_SDK_Linux//agent_tiny/lwm2m_client/object_server.c ****                     && prv_server_check_binding_valid((char *)dataArray[i].value.asBuffer.buffer, d
GAS LISTING /tmp/ccJJOyJ4.s 			page 28


 874              		.loc 1 359 0
 875 0124 488B7308 		movq	8(%rbx), %rsi
 876 0128 4885F6   		testq	%rsi, %rsi
 877 012b 7441     		je	.L86
 359:/home/baikal/workspace/C50/Huawei_IoT_Agent_Tiny_SDK_Linux//agent_tiny/lwm2m_client/object_server.c ****                     && prv_server_check_binding_valid((char *)dataArray[i].value.asBuffer.buffer, d
 878              		.loc 1 359 0 is_stmt 0 discriminator 1
 879 012d 4883FE03 		cmpq	$3, %rsi
 880 0131 7742     		ja	.L87
 360:/home/baikal/workspace/C50/Huawei_IoT_Agent_Tiny_SDK_Linux//agent_tiny/lwm2m_client/object_server.c ****             {
 881              		.loc 1 360 0 is_stmt 1
 882 0133 488B7B10 		movq	16(%rbx), %rdi
 883 0137 E8000000 		call	prv_server_check_binding_valid
 883      00
 884              	.LVL112:
 885 013c 84C0     		testb	%al, %al
 886 013e 743C     		je	.L88
 362:/home/baikal/workspace/C50/Huawei_IoT_Agent_Tiny_SDK_Linux//agent_tiny/lwm2m_client/object_server.c ****                 strncpy(targetP->binding, (char *)dataArray[i].value.asBuffer.buffer, dataArray[i].
 887              		.loc 1 362 0
 888 0140 498D7E1D 		leaq	29(%r14), %rdi
 889              	.LVL113:
 890              	.LBB28:
 891              	.LBB29:
 892              		.file 2 "/usr/include/x86_64-linux-gnu/bits/string3.h"
   1:/usr/include/x86_64-linux-gnu/bits/string3.h **** /* Copyright (C) 2004-2016 Free Software Foundation, Inc.
   2:/usr/include/x86_64-linux-gnu/bits/string3.h ****    This file is part of the GNU C Library.
   3:/usr/include/x86_64-linux-gnu/bits/string3.h **** 
   4:/usr/include/x86_64-linux-gnu/bits/string3.h ****    The GNU C Library is free software; you can redistribute it and/or
   5:/usr/include/x86_64-linux-gnu/bits/string3.h ****    modify it under the terms of the GNU Lesser General Public
   6:/usr/include/x86_64-linux-gnu/bits/string3.h ****    License as published by the Free Software Foundation; either
   7:/usr/include/x86_64-linux-gnu/bits/string3.h ****    version 2.1 of the License, or (at your option) any later version.
   8:/usr/include/x86_64-linux-gnu/bits/string3.h **** 
   9:/usr/include/x86_64-linux-gnu/bits/string3.h ****    The GNU C Library is distributed in the hope that it will be useful,
  10:/usr/include/x86_64-linux-gnu/bits/string3.h ****    but WITHOUT ANY WARRANTY; without even the implied warranty of
  11:/usr/include/x86_64-linux-gnu/bits/string3.h ****    MERCHANTABILITY or FITNESS FOR A PARTICULAR PURPOSE.  See the GNU
  12:/usr/include/x86_64-linux-gnu/bits/string3.h ****    Lesser General Public License for more details.
  13:/usr/include/x86_64-linux-gnu/bits/string3.h **** 
  14:/usr/include/x86_64-linux-gnu/bits/string3.h ****    You should have received a copy of the GNU Lesser General Public
  15:/usr/include/x86_64-linux-gnu/bits/string3.h ****    License along with the GNU C Library; if not, see
  16:/usr/include/x86_64-linux-gnu/bits/string3.h ****    <http://www.gnu.org/licenses/>.  */
  17:/usr/include/x86_64-linux-gnu/bits/string3.h **** 
  18:/usr/include/x86_64-linux-gnu/bits/string3.h **** #ifndef _STRING_H
  19:/usr/include/x86_64-linux-gnu/bits/string3.h **** # error "Never use <bits/string3.h> directly; include <string.h> instead."
  20:/usr/include/x86_64-linux-gnu/bits/string3.h **** #endif
  21:/usr/include/x86_64-linux-gnu/bits/string3.h **** 
  22:/usr/include/x86_64-linux-gnu/bits/string3.h **** #if !__GNUC_PREREQ (5,0)
  23:/usr/include/x86_64-linux-gnu/bits/string3.h **** __warndecl (__warn_memset_zero_len,
  24:/usr/include/x86_64-linux-gnu/bits/string3.h **** 	    "memset used with constant zero length parameter; this could be due to transposed parameters")
  25:/usr/include/x86_64-linux-gnu/bits/string3.h **** #endif
  26:/usr/include/x86_64-linux-gnu/bits/string3.h **** 
  27:/usr/include/x86_64-linux-gnu/bits/string3.h **** #ifndef __cplusplus
  28:/usr/include/x86_64-linux-gnu/bits/string3.h **** /* XXX This is temporarily.  We should not redefine any of the symbols
  29:/usr/include/x86_64-linux-gnu/bits/string3.h ****    and instead integrate the error checking into the original
  30:/usr/include/x86_64-linux-gnu/bits/string3.h ****    definitions.  */
  31:/usr/include/x86_64-linux-gnu/bits/string3.h **** # undef memcpy
  32:/usr/include/x86_64-linux-gnu/bits/string3.h **** # undef memmove
  33:/usr/include/x86_64-linux-gnu/bits/string3.h **** # undef memset
  34:/usr/include/x86_64-linux-gnu/bits/string3.h **** # undef strcat
GAS LISTING /tmp/ccJJOyJ4.s 			page 29


  35:/usr/include/x86_64-linux-gnu/bits/string3.h **** # undef strcpy
  36:/usr/include/x86_64-linux-gnu/bits/string3.h **** # undef strncat
  37:/usr/include/x86_64-linux-gnu/bits/string3.h **** # undef strncpy
  38:/usr/include/x86_64-linux-gnu/bits/string3.h **** # ifdef __USE_GNU
  39:/usr/include/x86_64-linux-gnu/bits/string3.h **** #  undef mempcpy
  40:/usr/include/x86_64-linux-gnu/bits/string3.h **** #  undef stpcpy
  41:/usr/include/x86_64-linux-gnu/bits/string3.h **** # endif
  42:/usr/include/x86_64-linux-gnu/bits/string3.h **** # ifdef __USE_MISC
  43:/usr/include/x86_64-linux-gnu/bits/string3.h **** #  undef bcopy
  44:/usr/include/x86_64-linux-gnu/bits/string3.h **** #  undef bzero
  45:/usr/include/x86_64-linux-gnu/bits/string3.h **** # endif
  46:/usr/include/x86_64-linux-gnu/bits/string3.h **** #endif
  47:/usr/include/x86_64-linux-gnu/bits/string3.h **** 
  48:/usr/include/x86_64-linux-gnu/bits/string3.h **** 
  49:/usr/include/x86_64-linux-gnu/bits/string3.h **** __fortify_function void *
  50:/usr/include/x86_64-linux-gnu/bits/string3.h **** __NTH (memcpy (void *__restrict __dest, const void *__restrict __src,
  51:/usr/include/x86_64-linux-gnu/bits/string3.h **** 	       size_t __len))
  52:/usr/include/x86_64-linux-gnu/bits/string3.h **** {
  53:/usr/include/x86_64-linux-gnu/bits/string3.h ****   return __builtin___memcpy_chk (__dest, __src, __len, __bos0 (__dest));
  54:/usr/include/x86_64-linux-gnu/bits/string3.h **** }
  55:/usr/include/x86_64-linux-gnu/bits/string3.h **** 
  56:/usr/include/x86_64-linux-gnu/bits/string3.h **** __fortify_function void *
  57:/usr/include/x86_64-linux-gnu/bits/string3.h **** __NTH (memmove (void *__dest, const void *__src, size_t __len))
  58:/usr/include/x86_64-linux-gnu/bits/string3.h **** {
  59:/usr/include/x86_64-linux-gnu/bits/string3.h ****   return __builtin___memmove_chk (__dest, __src, __len, __bos0 (__dest));
  60:/usr/include/x86_64-linux-gnu/bits/string3.h **** }
  61:/usr/include/x86_64-linux-gnu/bits/string3.h **** 
  62:/usr/include/x86_64-linux-gnu/bits/string3.h **** #ifdef __USE_GNU
  63:/usr/include/x86_64-linux-gnu/bits/string3.h **** __fortify_function void *
  64:/usr/include/x86_64-linux-gnu/bits/string3.h **** __NTH (mempcpy (void *__restrict __dest, const void *__restrict __src,
  65:/usr/include/x86_64-linux-gnu/bits/string3.h **** 		size_t __len))
  66:/usr/include/x86_64-linux-gnu/bits/string3.h **** {
  67:/usr/include/x86_64-linux-gnu/bits/string3.h ****   return __builtin___mempcpy_chk (__dest, __src, __len, __bos0 (__dest));
  68:/usr/include/x86_64-linux-gnu/bits/string3.h **** }
  69:/usr/include/x86_64-linux-gnu/bits/string3.h **** #endif
  70:/usr/include/x86_64-linux-gnu/bits/string3.h **** 
  71:/usr/include/x86_64-linux-gnu/bits/string3.h **** 
  72:/usr/include/x86_64-linux-gnu/bits/string3.h **** /* The first two tests here help to catch a somewhat common problem
  73:/usr/include/x86_64-linux-gnu/bits/string3.h ****    where the second and third parameter are transposed.  This is
  74:/usr/include/x86_64-linux-gnu/bits/string3.h ****    especially problematic if the intended fill value is zero.  In this
  75:/usr/include/x86_64-linux-gnu/bits/string3.h ****    case no work is done at all.  We detect these problems by referring
  76:/usr/include/x86_64-linux-gnu/bits/string3.h ****    non-existing functions.  */
  77:/usr/include/x86_64-linux-gnu/bits/string3.h **** __fortify_function void *
  78:/usr/include/x86_64-linux-gnu/bits/string3.h **** __NTH (memset (void *__dest, int __ch, size_t __len))
  79:/usr/include/x86_64-linux-gnu/bits/string3.h **** {
  80:/usr/include/x86_64-linux-gnu/bits/string3.h ****   /* GCC-5.0 and newer implements these checks in the compiler, so we don't
  81:/usr/include/x86_64-linux-gnu/bits/string3.h ****      need them here.  */
  82:/usr/include/x86_64-linux-gnu/bits/string3.h **** #if !__GNUC_PREREQ (5,0)
  83:/usr/include/x86_64-linux-gnu/bits/string3.h ****   if (__builtin_constant_p (__len) && __len == 0
  84:/usr/include/x86_64-linux-gnu/bits/string3.h ****       && (!__builtin_constant_p (__ch) || __ch != 0))
  85:/usr/include/x86_64-linux-gnu/bits/string3.h ****     {
  86:/usr/include/x86_64-linux-gnu/bits/string3.h ****       __warn_memset_zero_len ();
  87:/usr/include/x86_64-linux-gnu/bits/string3.h ****       return __dest;
  88:/usr/include/x86_64-linux-gnu/bits/string3.h ****     }
  89:/usr/include/x86_64-linux-gnu/bits/string3.h **** #endif
  90:/usr/include/x86_64-linux-gnu/bits/string3.h ****   return __builtin___memset_chk (__dest, __ch, __len, __bos0 (__dest));
 893              		.loc 2 90 0
GAS LISTING /tmp/ccJJOyJ4.s 			page 30


 894 0144 41C7461D 		movl	$0, 29(%r14)
 894      00000000 
 895              	.LVL114:
 896              	.LBE29:
 897              	.LBE28:
 363:/home/baikal/workspace/C50/Huawei_IoT_Agent_Tiny_SDK_Linux//agent_tiny/lwm2m_client/object_server.c ****                 result = COAP_204_CHANGED;
 898              		.loc 1 363 0
 899 014c 488B5308 		movq	8(%rbx), %rdx
 900 0150 488B7310 		movq	16(%rbx), %rsi
 901              	.LVL115:
 902              	.LBB30:
 903              	.LBB31:
  91:/usr/include/x86_64-linux-gnu/bits/string3.h **** }
  92:/usr/include/x86_64-linux-gnu/bits/string3.h **** 
  93:/usr/include/x86_64-linux-gnu/bits/string3.h **** #ifdef __USE_MISC
  94:/usr/include/x86_64-linux-gnu/bits/string3.h **** __fortify_function void
  95:/usr/include/x86_64-linux-gnu/bits/string3.h **** __NTH (bcopy (const void *__src, void *__dest, size_t __len))
  96:/usr/include/x86_64-linux-gnu/bits/string3.h **** {
  97:/usr/include/x86_64-linux-gnu/bits/string3.h ****   (void) __builtin___memmove_chk (__dest, __src, __len, __bos0 (__dest));
  98:/usr/include/x86_64-linux-gnu/bits/string3.h **** }
  99:/usr/include/x86_64-linux-gnu/bits/string3.h **** 
 100:/usr/include/x86_64-linux-gnu/bits/string3.h **** __fortify_function void
 101:/usr/include/x86_64-linux-gnu/bits/string3.h **** __NTH (bzero (void *__dest, size_t __len))
 102:/usr/include/x86_64-linux-gnu/bits/string3.h **** {
 103:/usr/include/x86_64-linux-gnu/bits/string3.h ****   (void) __builtin___memset_chk (__dest, '\0', __len, __bos0 (__dest));
 104:/usr/include/x86_64-linux-gnu/bits/string3.h **** }
 105:/usr/include/x86_64-linux-gnu/bits/string3.h **** #endif
 106:/usr/include/x86_64-linux-gnu/bits/string3.h **** 
 107:/usr/include/x86_64-linux-gnu/bits/string3.h **** __fortify_function char *
 108:/usr/include/x86_64-linux-gnu/bits/string3.h **** __NTH (strcpy (char *__restrict __dest, const char *__restrict __src))
 109:/usr/include/x86_64-linux-gnu/bits/string3.h **** {
 110:/usr/include/x86_64-linux-gnu/bits/string3.h ****   return __builtin___strcpy_chk (__dest, __src, __bos (__dest));
 111:/usr/include/x86_64-linux-gnu/bits/string3.h **** }
 112:/usr/include/x86_64-linux-gnu/bits/string3.h **** 
 113:/usr/include/x86_64-linux-gnu/bits/string3.h **** #ifdef __USE_GNU
 114:/usr/include/x86_64-linux-gnu/bits/string3.h **** __fortify_function char *
 115:/usr/include/x86_64-linux-gnu/bits/string3.h **** __NTH (stpcpy (char *__restrict __dest, const char *__restrict __src))
 116:/usr/include/x86_64-linux-gnu/bits/string3.h **** {
 117:/usr/include/x86_64-linux-gnu/bits/string3.h ****   return __builtin___stpcpy_chk (__dest, __src, __bos (__dest));
 118:/usr/include/x86_64-linux-gnu/bits/string3.h **** }
 119:/usr/include/x86_64-linux-gnu/bits/string3.h **** #endif
 120:/usr/include/x86_64-linux-gnu/bits/string3.h **** 
 121:/usr/include/x86_64-linux-gnu/bits/string3.h **** 
 122:/usr/include/x86_64-linux-gnu/bits/string3.h **** __fortify_function char *
 123:/usr/include/x86_64-linux-gnu/bits/string3.h **** __NTH (strncpy (char *__restrict __dest, const char *__restrict __src,
 124:/usr/include/x86_64-linux-gnu/bits/string3.h **** 		size_t __len))
 125:/usr/include/x86_64-linux-gnu/bits/string3.h **** {
 126:/usr/include/x86_64-linux-gnu/bits/string3.h ****   return __builtin___strncpy_chk (__dest, __src, __len, __bos (__dest));
 904              		.loc 2 126 0
 905 0154 E8000000 		call	strncpy
 905      00
 906              	.LVL116:
 907              	.LBE31:
 908              	.LBE30:
 364:/home/baikal/workspace/C50/Huawei_IoT_Agent_Tiny_SDK_Linux//agent_tiny/lwm2m_client/object_server.c ****             }
 909              		.loc 1 364 0
 910 0159 B8440000 		movl	$68, %eax
GAS LISTING /tmp/ccJJOyJ4.s 			page 31


 910      00
 911 015e EB21     		jmp	.L72
 912              	.LVL117:
 913              	.L81:
 330:/home/baikal/workspace/C50/Huawei_IoT_Agent_Tiny_SDK_Linux//agent_tiny/lwm2m_client/object_server.c ****             break;
 914              		.loc 1 330 0
 915 0160 B885FFFF 		movl	$-123, %eax
 915      FF
 916 0165 EB1A     		jmp	.L72
 917              	.L85:
 368:/home/baikal/workspace/C50/Huawei_IoT_Agent_Tiny_SDK_Linux//agent_tiny/lwm2m_client/object_server.c ****             }
 918              		.loc 1 368 0
 919 0167 B880FFFF 		movl	$-128, %eax
 919      FF
 920 016c EB13     		jmp	.L72
 921              	.L86:
 922 016e B880FFFF 		movl	$-128, %eax
 922      FF
 923 0173 EB0C     		jmp	.L72
 924              	.L87:
 925 0175 B880FFFF 		movl	$-128, %eax
 925      FF
 926 017a EB05     		jmp	.L72
 927              	.L88:
 928 017c B880FFFF 		movl	$-128, %eax
 928      FF
 929              	.L72:
 930              	.LVL118:
 379:/home/baikal/workspace/C50/Huawei_IoT_Agent_Tiny_SDK_Linux//agent_tiny/lwm2m_client/object_server.c ****     }
 931              		.loc 1 379 0
 932 0181 83C501   		addl	$1, %ebp
 933              	.LVL119:
 381:/home/baikal/workspace/C50/Huawei_IoT_Agent_Tiny_SDK_Linux//agent_tiny/lwm2m_client/object_server.c **** 
 934              		.loc 1 381 0
 935 0184 4439ED   		cmpl	%r13d, %ebp
 936 0187 0F9CC1   		setl	%cl
 937 018a 3C44     		cmpb	$68, %al
 938 018c 0F94C2   		sete	%dl
 939 018f 84D1     		testb	%dl, %cl
 940 0191 0F8598FE 		jne	.L78
 940      FFFF
 941 0197 EB0C     		jmp	.L66
 942              	.LVL120:
 943              	.L79:
 291:/home/baikal/workspace/C50/Huawei_IoT_Agent_Tiny_SDK_Linux//agent_tiny/lwm2m_client/object_server.c ****     }
 944              		.loc 1 291 0
 945 0199 B884FFFF 		movl	$-124, %eax
 945      FF
 946              	.LVL121:
 947 019e EB05     		jmp	.L66
 948              	.LVL122:
 949              	.L80:
 377:/home/baikal/workspace/C50/Huawei_IoT_Agent_Tiny_SDK_Linux//agent_tiny/lwm2m_client/object_server.c ****         }
 950              		.loc 1 377 0
 951 01a0 B884FFFF 		movl	$-124, %eax
 951      FF
 952              	.LVL123:
GAS LISTING /tmp/ccJJOyJ4.s 			page 32


 953              	.L66:
 384:/home/baikal/workspace/C50/Huawei_IoT_Agent_Tiny_SDK_Linux//agent_tiny/lwm2m_client/object_server.c **** 
 954              		.loc 1 384 0
 955 01a5 4883C410 		addq	$16, %rsp
 956              	.LCFI36:
 957              		.cfi_def_cfa_offset 48
 958 01a9 5B       		popq	%rbx
 959              	.LCFI37:
 960              		.cfi_def_cfa_offset 40
 961 01aa 5D       		popq	%rbp
 962              	.LCFI38:
 963              		.cfi_def_cfa_offset 32
 964 01ab 415C     		popq	%r12
 965              	.LCFI39:
 966              		.cfi_def_cfa_offset 24
 967              	.LVL124:
 968 01ad 415D     		popq	%r13
 969              	.LCFI40:
 970              		.cfi_def_cfa_offset 16
 971              	.LVL125:
 972 01af 415E     		popq	%r14
 973              	.LCFI41:
 974              		.cfi_def_cfa_offset 8
 975 01b1 C3       		ret
 976              		.cfi_endproc
 977              	.LFE76:
 979              		.section	.text.prv_server_create,"ax",@progbits
 981              	prv_server_create:
 982              	.LFB79:
 424:/home/baikal/workspace/C50/Huawei_IoT_Agent_Tiny_SDK_Linux//agent_tiny/lwm2m_client/object_server.c **** 
 425:/home/baikal/workspace/C50/Huawei_IoT_Agent_Tiny_SDK_Linux//agent_tiny/lwm2m_client/object_server.c **** static uint8_t prv_server_create(uint16_t instanceId,
 426:/home/baikal/workspace/C50/Huawei_IoT_Agent_Tiny_SDK_Linux//agent_tiny/lwm2m_client/object_server.c ****                                  int numData,
 427:/home/baikal/workspace/C50/Huawei_IoT_Agent_Tiny_SDK_Linux//agent_tiny/lwm2m_client/object_server.c ****                                  lwm2m_data_t *dataArray,
 428:/home/baikal/workspace/C50/Huawei_IoT_Agent_Tiny_SDK_Linux//agent_tiny/lwm2m_client/object_server.c ****                                  lwm2m_object_t *objectP)
 429:/home/baikal/workspace/C50/Huawei_IoT_Agent_Tiny_SDK_Linux//agent_tiny/lwm2m_client/object_server.c **** {
 983              		.loc 1 429 0
 984              		.cfi_startproc
 985              	.LVL126:
 986 0000 4155     		pushq	%r13
 987              	.LCFI42:
 988              		.cfi_def_cfa_offset 16
 989              		.cfi_offset 13, -16
 990 0002 4154     		pushq	%r12
 991              	.LCFI43:
 992              		.cfi_def_cfa_offset 24
 993              		.cfi_offset 12, -24
 994 0004 55       		pushq	%rbp
 995              	.LCFI44:
 996              		.cfi_def_cfa_offset 32
 997              		.cfi_offset 6, -32
 998 0005 53       		pushq	%rbx
 999              	.LCFI45:
 1000              		.cfi_def_cfa_offset 40
 1001              		.cfi_offset 3, -40
 1002 0006 4883EC08 		subq	$8, %rsp
 1003              	.LCFI46:
 1004              		.cfi_def_cfa_offset 48
GAS LISTING /tmp/ccJJOyJ4.s 			page 33


 1005 000a 89FB     		movl	%edi, %ebx
 1006 000c 89F5     		movl	%esi, %ebp
 1007 000e 4989D5   		movq	%rdx, %r13
 1008 0011 4989CC   		movq	%rcx, %r12
 430:/home/baikal/workspace/C50/Huawei_IoT_Agent_Tiny_SDK_Linux//agent_tiny/lwm2m_client/object_server.c ****     server_instance_t *serverInstance;
 431:/home/baikal/workspace/C50/Huawei_IoT_Agent_Tiny_SDK_Linux//agent_tiny/lwm2m_client/object_server.c ****     uint8_t result;
 432:/home/baikal/workspace/C50/Huawei_IoT_Agent_Tiny_SDK_Linux//agent_tiny/lwm2m_client/object_server.c **** 
 433:/home/baikal/workspace/C50/Huawei_IoT_Agent_Tiny_SDK_Linux//agent_tiny/lwm2m_client/object_server.c ****     serverInstance = (server_instance_t *)lwm2m_malloc(sizeof(server_instance_t));
 1009              		.loc 1 433 0
 1010 0014 BF280000 		movl	$40, %edi
 1010      00
 1011              	.LVL127:
 1012 0019 E8000000 		call	lwm2m_malloc
 1012      00
 1013              	.LVL128:
 434:/home/baikal/workspace/C50/Huawei_IoT_Agent_Tiny_SDK_Linux//agent_tiny/lwm2m_client/object_server.c ****     if (NULL == serverInstance) return COAP_500_INTERNAL_SERVER_ERROR;
 1014              		.loc 1 434 0
 1015 001e 4885C0   		testq	%rax, %rax
 1016 0021 7463     		je	.L92
 1017              	.LVL129:
 1018              	.LBB32:
 1019              	.LBB33:
  90:/usr/include/x86_64-linux-gnu/bits/string3.h **** }
 1020              		.loc 2 90 0
 1021 0023 48C70000 		movq	$0, (%rax)
 1021      000000
 1022 002a 48C74008 		movq	$0, 8(%rax)
 1022      00000000 
 1023 0032 48C74010 		movq	$0, 16(%rax)
 1023      00000000 
 1024 003a 48C74018 		movq	$0, 24(%rax)
 1024      00000000 
 1025 0042 48C74020 		movq	$0, 32(%rax)
 1025      00000000 
 1026              	.LVL130:
 1027              	.LBE33:
 1028              	.LBE32:
 435:/home/baikal/workspace/C50/Huawei_IoT_Agent_Tiny_SDK_Linux//agent_tiny/lwm2m_client/object_server.c ****     memset(serverInstance, 0, sizeof(server_instance_t));
 436:/home/baikal/workspace/C50/Huawei_IoT_Agent_Tiny_SDK_Linux//agent_tiny/lwm2m_client/object_server.c **** 
 437:/home/baikal/workspace/C50/Huawei_IoT_Agent_Tiny_SDK_Linux//agent_tiny/lwm2m_client/object_server.c ****     serverInstance->instanceId = instanceId;
 1029              		.loc 1 437 0
 1030 004a 66895808 		movw	%bx, 8(%rax)
 438:/home/baikal/workspace/C50/Huawei_IoT_Agent_Tiny_SDK_Linux//agent_tiny/lwm2m_client/object_server.c ****     objectP->instanceList = LWM2M_LIST_ADD(objectP->instanceList, serverInstance);
 1031              		.loc 1 438 0
 1032 004e 498B7C24 		movq	16(%r12), %rdi
 1032      10
 1033 0053 4889C6   		movq	%rax, %rsi
 1034 0056 E8000000 		call	lwm2m_list_add
 1034      00
 1035              	.LVL131:
 1036 005b 49894424 		movq	%rax, 16(%r12)
 1036      10
 439:/home/baikal/workspace/C50/Huawei_IoT_Agent_Tiny_SDK_Linux//agent_tiny/lwm2m_client/object_server.c **** 
 440:/home/baikal/workspace/C50/Huawei_IoT_Agent_Tiny_SDK_Linux//agent_tiny/lwm2m_client/object_server.c ****     result = prv_server_write(instanceId, numData, dataArray, objectP);
 1037              		.loc 1 440 0
 1038 0060 0FB7DB   		movzwl	%bx, %ebx
 1039 0063 4C89E1   		movq	%r12, %rcx
GAS LISTING /tmp/ccJJOyJ4.s 			page 34


 1040 0066 4C89EA   		movq	%r13, %rdx
 1041 0069 89EE     		movl	%ebp, %esi
 1042 006b 89DF     		movl	%ebx, %edi
 1043 006d E8000000 		call	prv_server_write
 1043      00
 1044              	.LVL132:
 1045 0072 89C5     		movl	%eax, %ebp
 1046              	.LVL133:
 441:/home/baikal/workspace/C50/Huawei_IoT_Agent_Tiny_SDK_Linux//agent_tiny/lwm2m_client/object_server.c **** 
 442:/home/baikal/workspace/C50/Huawei_IoT_Agent_Tiny_SDK_Linux//agent_tiny/lwm2m_client/object_server.c ****     if (result != COAP_204_CHANGED)
 1047              		.loc 1 442 0
 1048 0074 3C44     		cmpb	$68, %al
 1049 0076 7415     		je	.L93
 443:/home/baikal/workspace/C50/Huawei_IoT_Agent_Tiny_SDK_Linux//agent_tiny/lwm2m_client/object_server.c ****     {
 444:/home/baikal/workspace/C50/Huawei_IoT_Agent_Tiny_SDK_Linux//agent_tiny/lwm2m_client/object_server.c ****         (void)prv_server_delete(instanceId, objectP);
 1050              		.loc 1 444 0
 1051 0078 4C89E6   		movq	%r12, %rsi
 1052 007b 89DF     		movl	%ebx, %edi
 1053 007d E8000000 		call	prv_server_delete
 1053      00
 1054              	.LVL134:
 440:/home/baikal/workspace/C50/Huawei_IoT_Agent_Tiny_SDK_Linux//agent_tiny/lwm2m_client/object_server.c **** 
 1055              		.loc 1 440 0
 1056 0082 89E8     		movl	%ebp, %eax
 1057 0084 EB0C     		jmp	.L91
 1058              	.LVL135:
 1059              	.L92:
 434:/home/baikal/workspace/C50/Huawei_IoT_Agent_Tiny_SDK_Linux//agent_tiny/lwm2m_client/object_server.c ****     memset(serverInstance, 0, sizeof(server_instance_t));
 1060              		.loc 1 434 0
 1061 0086 B8A0FFFF 		movl	$-96, %eax
 1061      FF
 1062              	.LVL136:
 1063 008b EB05     		jmp	.L91
 1064              	.LVL137:
 1065              	.L93:
 445:/home/baikal/workspace/C50/Huawei_IoT_Agent_Tiny_SDK_Linux//agent_tiny/lwm2m_client/object_server.c ****     }
 446:/home/baikal/workspace/C50/Huawei_IoT_Agent_Tiny_SDK_Linux//agent_tiny/lwm2m_client/object_server.c ****     else
 447:/home/baikal/workspace/C50/Huawei_IoT_Agent_Tiny_SDK_Linux//agent_tiny/lwm2m_client/object_server.c ****     {
 448:/home/baikal/workspace/C50/Huawei_IoT_Agent_Tiny_SDK_Linux//agent_tiny/lwm2m_client/object_server.c ****         result = COAP_201_CREATED;
 1066              		.loc 1 448 0
 1067 008d B8410000 		movl	$65, %eax
 1067      00
 1068              	.LVL138:
 1069              	.L91:
 449:/home/baikal/workspace/C50/Huawei_IoT_Agent_Tiny_SDK_Linux//agent_tiny/lwm2m_client/object_server.c ****     }
 450:/home/baikal/workspace/C50/Huawei_IoT_Agent_Tiny_SDK_Linux//agent_tiny/lwm2m_client/object_server.c **** 
 451:/home/baikal/workspace/C50/Huawei_IoT_Agent_Tiny_SDK_Linux//agent_tiny/lwm2m_client/object_server.c ****     return result;
 452:/home/baikal/workspace/C50/Huawei_IoT_Agent_Tiny_SDK_Linux//agent_tiny/lwm2m_client/object_server.c **** }
 1070              		.loc 1 452 0
 1071 0092 4883C408 		addq	$8, %rsp
 1072              	.LCFI47:
 1073              		.cfi_def_cfa_offset 40
 1074 0096 5B       		popq	%rbx
 1075              	.LCFI48:
 1076              		.cfi_def_cfa_offset 32
 1077 0097 5D       		popq	%rbp
 1078              	.LCFI49:
GAS LISTING /tmp/ccJJOyJ4.s 			page 35


 1079              		.cfi_def_cfa_offset 24
 1080 0098 415C     		popq	%r12
 1081              	.LCFI50:
 1082              		.cfi_def_cfa_offset 16
 1083              	.LVL139:
 1084 009a 415D     		popq	%r13
 1085              	.LCFI51:
 1086              		.cfi_def_cfa_offset 8
 1087              	.LVL140:
 1088 009c C3       		ret
 1089              		.cfi_endproc
 1090              	.LFE79:
 1092              		.section	.text.copy_server_object,"ax",@progbits
 1093              		.globl	copy_server_object
 1095              	copy_server_object:
 1096              	.LFB80:
 453:/home/baikal/workspace/C50/Huawei_IoT_Agent_Tiny_SDK_Linux//agent_tiny/lwm2m_client/object_server.c **** 
 454:/home/baikal/workspace/C50/Huawei_IoT_Agent_Tiny_SDK_Linux//agent_tiny/lwm2m_client/object_server.c **** void copy_server_object(lwm2m_object_t *objectDest, lwm2m_object_t *objectSrc)
 455:/home/baikal/workspace/C50/Huawei_IoT_Agent_Tiny_SDK_Linux//agent_tiny/lwm2m_client/object_server.c **** {
 1097              		.loc 1 455 0
 1098              		.cfi_startproc
 1099              	.LVL141:
 1100 0000 4155     		pushq	%r13
 1101              	.LCFI52:
 1102              		.cfi_def_cfa_offset 16
 1103              		.cfi_offset 13, -16
 1104 0002 4154     		pushq	%r12
 1105              	.LCFI53:
 1106              		.cfi_def_cfa_offset 24
 1107              		.cfi_offset 12, -24
 1108 0004 55       		pushq	%rbp
 1109              	.LCFI54:
 1110              		.cfi_def_cfa_offset 32
 1111              		.cfi_offset 6, -32
 1112 0005 53       		pushq	%rbx
 1113              	.LCFI55:
 1114              		.cfi_def_cfa_offset 40
 1115              		.cfi_offset 3, -40
 1116 0006 4883EC08 		subq	$8, %rsp
 1117              	.LCFI56:
 1118              		.cfi_def_cfa_offset 48
 1119 000a 4989FD   		movq	%rdi, %r13
 1120              	.LVL142:
 1121              	.LBB34:
 1122              	.LBB35:
  53:/usr/include/x86_64-linux-gnu/bits/string3.h **** }
 1123              		.loc 2 53 0
 1124 000d 488B06   		movq	(%rsi), %rax
 1125 0010 488907   		movq	%rax, (%rdi)
 1126 0013 488B4608 		movq	8(%rsi), %rax
 1127 0017 48894708 		movq	%rax, 8(%rdi)
 1128 001b 488B4610 		movq	16(%rsi), %rax
 1129 001f 48894710 		movq	%rax, 16(%rdi)
 1130 0023 488B4618 		movq	24(%rsi), %rax
 1131 0027 48894718 		movq	%rax, 24(%rdi)
 1132 002b 488B4620 		movq	32(%rsi), %rax
 1133 002f 48894720 		movq	%rax, 32(%rdi)
GAS LISTING /tmp/ccJJOyJ4.s 			page 36


 1134 0033 488B4628 		movq	40(%rsi), %rax
 1135 0037 48894728 		movq	%rax, 40(%rdi)
 1136 003b 488B4630 		movq	48(%rsi), %rax
 1137 003f 48894730 		movq	%rax, 48(%rdi)
 1138 0043 488B4638 		movq	56(%rsi), %rax
 1139 0047 48894738 		movq	%rax, 56(%rdi)
 1140 004b 488B4640 		movq	64(%rsi), %rax
 1141 004f 48894740 		movq	%rax, 64(%rdi)
 1142 0053 488B4648 		movq	72(%rsi), %rax
 1143 0057 48894748 		movq	%rax, 72(%rdi)
 1144              	.LVL143:
 1145              	.LBE35:
 1146              	.LBE34:
 456:/home/baikal/workspace/C50/Huawei_IoT_Agent_Tiny_SDK_Linux//agent_tiny/lwm2m_client/object_server.c ****     server_instance_t *instanceSrc = NULL;
 457:/home/baikal/workspace/C50/Huawei_IoT_Agent_Tiny_SDK_Linux//agent_tiny/lwm2m_client/object_server.c ****     server_instance_t *previousInstanceDest = NULL;
 458:/home/baikal/workspace/C50/Huawei_IoT_Agent_Tiny_SDK_Linux//agent_tiny/lwm2m_client/object_server.c **** 
 459:/home/baikal/workspace/C50/Huawei_IoT_Agent_Tiny_SDK_Linux//agent_tiny/lwm2m_client/object_server.c ****     memcpy(objectDest, objectSrc, sizeof(lwm2m_object_t));
 460:/home/baikal/workspace/C50/Huawei_IoT_Agent_Tiny_SDK_Linux//agent_tiny/lwm2m_client/object_server.c ****     objectDest->instanceList = NULL;
 1147              		.loc 1 460 0
 1148 005b 48C74710 		movq	$0, 16(%rdi)
 1148      00000000 
 461:/home/baikal/workspace/C50/Huawei_IoT_Agent_Tiny_SDK_Linux//agent_tiny/lwm2m_client/object_server.c ****     objectDest->userData = NULL;
 1149              		.loc 1 461 0
 1150 0063 48C74750 		movq	$0, 80(%rdi)
 1150      00000000 
 462:/home/baikal/workspace/C50/Huawei_IoT_Agent_Tiny_SDK_Linux//agent_tiny/lwm2m_client/object_server.c ****     instanceSrc = (server_instance_t *)objectSrc->instanceList;
 1151              		.loc 1 462 0
 1152 006b 488B6E10 		movq	16(%rsi), %rbp
 1153              	.LVL144:
 457:/home/baikal/workspace/C50/Huawei_IoT_Agent_Tiny_SDK_Linux//agent_tiny/lwm2m_client/object_server.c **** 
 1154              		.loc 1 457 0
 1155 006f 41BC0000 		movl	$0, %r12d
 1155      0000
 463:/home/baikal/workspace/C50/Huawei_IoT_Agent_Tiny_SDK_Linux//agent_tiny/lwm2m_client/object_server.c ****     while (instanceSrc != NULL)
 1156              		.loc 1 463 0
 1157 0075 EB61     		jmp	.L96
 1158              	.LVL145:
 1159              	.L100:
 1160              	.LBB36:
 464:/home/baikal/workspace/C50/Huawei_IoT_Agent_Tiny_SDK_Linux//agent_tiny/lwm2m_client/object_server.c ****     {
 465:/home/baikal/workspace/C50/Huawei_IoT_Agent_Tiny_SDK_Linux//agent_tiny/lwm2m_client/object_server.c ****         server_instance_t *instanceDest = (server_instance_t *)lwm2m_malloc(sizeof(server_instance_
 1161              		.loc 1 465 0
 1162 0077 BF280000 		movl	$40, %edi
 1162      00
 1163 007c E8000000 		call	lwm2m_malloc
 1163      00
 1164              	.LVL146:
 1165 0081 4889C3   		movq	%rax, %rbx
 1166              	.LVL147:
 466:/home/baikal/workspace/C50/Huawei_IoT_Agent_Tiny_SDK_Linux//agent_tiny/lwm2m_client/object_server.c ****         if (NULL == instanceDest)
 1167              		.loc 1 466 0
 1168 0084 4885C0   		testq	%rax, %rax
 1169 0087 7454     		je	.L95
 1170              	.LVL148:
 1171              	.LBB37:
 1172              	.LBB38:
  53:/usr/include/x86_64-linux-gnu/bits/string3.h **** }
GAS LISTING /tmp/ccJJOyJ4.s 			page 37


 1173              		.loc 2 53 0
 1174 0089 488B4500 		movq	0(%rbp), %rax
 1175              	.LVL149:
 1176 008d 488903   		movq	%rax, (%rbx)
 1177 0090 488B4508 		movq	8(%rbp), %rax
 1178 0094 48894308 		movq	%rax, 8(%rbx)
 1179 0098 488B4510 		movq	16(%rbp), %rax
 1180 009c 48894310 		movq	%rax, 16(%rbx)
 1181 00a0 488B4518 		movq	24(%rbp), %rax
 1182 00a4 48894318 		movq	%rax, 24(%rbx)
 1183 00a8 488B4520 		movq	32(%rbp), %rax
 1184 00ac 48894320 		movq	%rax, 32(%rbx)
 1185              	.LVL150:
 1186              	.LBE38:
 1187              	.LBE37:
 467:/home/baikal/workspace/C50/Huawei_IoT_Agent_Tiny_SDK_Linux//agent_tiny/lwm2m_client/object_server.c ****         {
 468:/home/baikal/workspace/C50/Huawei_IoT_Agent_Tiny_SDK_Linux//agent_tiny/lwm2m_client/object_server.c ****             return;
 469:/home/baikal/workspace/C50/Huawei_IoT_Agent_Tiny_SDK_Linux//agent_tiny/lwm2m_client/object_server.c ****         }
 470:/home/baikal/workspace/C50/Huawei_IoT_Agent_Tiny_SDK_Linux//agent_tiny/lwm2m_client/object_server.c ****         memcpy(instanceDest, instanceSrc, sizeof(server_instance_t));
 471:/home/baikal/workspace/C50/Huawei_IoT_Agent_Tiny_SDK_Linux//agent_tiny/lwm2m_client/object_server.c ****         // not sure it's necessary:
 472:/home/baikal/workspace/C50/Huawei_IoT_Agent_Tiny_SDK_Linux//agent_tiny/lwm2m_client/object_server.c ****         strncpy(instanceDest->binding, instanceSrc->binding, 4);
 1188              		.loc 1 472 0
 1189 00b0 488D751D 		leaq	29(%rbp), %rsi
 1190 00b4 488D7B1D 		leaq	29(%rbx), %rdi
 1191              	.LVL151:
 1192              	.LBB39:
 1193              	.LBB40:
 1194              		.loc 2 126 0
 1195 00b8 BA040000 		movl	$4, %edx
 1195      00
 1196 00bd E8000000 		call	strncpy
 1196      00
 1197              	.LVL152:
 1198              	.LBE40:
 1199              	.LBE39:
 473:/home/baikal/workspace/C50/Huawei_IoT_Agent_Tiny_SDK_Linux//agent_tiny/lwm2m_client/object_server.c ****         instanceSrc = (server_instance_t *)instanceSrc->next;
 1200              		.loc 1 473 0
 1201 00c2 488B6D00 		movq	0(%rbp), %rbp
 1202              	.LVL153:
 474:/home/baikal/workspace/C50/Huawei_IoT_Agent_Tiny_SDK_Linux//agent_tiny/lwm2m_client/object_server.c ****         if (previousInstanceDest == NULL)
 1203              		.loc 1 474 0
 1204 00c6 4D85E4   		testq	%r12, %r12
 1205 00c9 7506     		jne	.L98
 475:/home/baikal/workspace/C50/Huawei_IoT_Agent_Tiny_SDK_Linux//agent_tiny/lwm2m_client/object_server.c ****         {
 476:/home/baikal/workspace/C50/Huawei_IoT_Agent_Tiny_SDK_Linux//agent_tiny/lwm2m_client/object_server.c ****             objectDest->instanceList = (lwm2m_list_t *)instanceDest;
 1206              		.loc 1 476 0
 1207 00cb 49895D10 		movq	%rbx, 16(%r13)
 1208 00cf EB04     		jmp	.L99
 1209              	.L98:
 477:/home/baikal/workspace/C50/Huawei_IoT_Agent_Tiny_SDK_Linux//agent_tiny/lwm2m_client/object_server.c ****         }
 478:/home/baikal/workspace/C50/Huawei_IoT_Agent_Tiny_SDK_Linux//agent_tiny/lwm2m_client/object_server.c ****         else
 479:/home/baikal/workspace/C50/Huawei_IoT_Agent_Tiny_SDK_Linux//agent_tiny/lwm2m_client/object_server.c ****         {
 480:/home/baikal/workspace/C50/Huawei_IoT_Agent_Tiny_SDK_Linux//agent_tiny/lwm2m_client/object_server.c ****             previousInstanceDest->next = instanceDest;
 1210              		.loc 1 480 0
 1211 00d1 49891C24 		movq	%rbx, (%r12)
 1212              	.L99:
 1213              	.LBE36:
GAS LISTING /tmp/ccJJOyJ4.s 			page 38


 455:/home/baikal/workspace/C50/Huawei_IoT_Agent_Tiny_SDK_Linux//agent_tiny/lwm2m_client/object_server.c ****     server_instance_t *instanceSrc = NULL;
 1214              		.loc 1 455 0
 1215 00d5 4989DC   		movq	%rbx, %r12
 1216              	.LVL154:
 1217              	.L96:
 463:/home/baikal/workspace/C50/Huawei_IoT_Agent_Tiny_SDK_Linux//agent_tiny/lwm2m_client/object_server.c ****     {
 1218              		.loc 1 463 0
 1219 00d8 4885ED   		testq	%rbp, %rbp
 1220 00db 759A     		jne	.L100
 1221              	.L95:
 481:/home/baikal/workspace/C50/Huawei_IoT_Agent_Tiny_SDK_Linux//agent_tiny/lwm2m_client/object_server.c ****         }
 482:/home/baikal/workspace/C50/Huawei_IoT_Agent_Tiny_SDK_Linux//agent_tiny/lwm2m_client/object_server.c ****         previousInstanceDest = instanceDest;
 483:/home/baikal/workspace/C50/Huawei_IoT_Agent_Tiny_SDK_Linux//agent_tiny/lwm2m_client/object_server.c ****     }
 484:/home/baikal/workspace/C50/Huawei_IoT_Agent_Tiny_SDK_Linux//agent_tiny/lwm2m_client/object_server.c **** }
 1222              		.loc 1 484 0
 1223 00dd 4883C408 		addq	$8, %rsp
 1224              	.LCFI57:
 1225              		.cfi_def_cfa_offset 40
 1226 00e1 5B       		popq	%rbx
 1227              	.LCFI58:
 1228              		.cfi_def_cfa_offset 32
 1229 00e2 5D       		popq	%rbp
 1230              	.LCFI59:
 1231              		.cfi_def_cfa_offset 24
 1232              	.LVL155:
 1233 00e3 415C     		popq	%r12
 1234              	.LCFI60:
 1235              		.cfi_def_cfa_offset 16
 1236              	.LVL156:
 1237 00e5 415D     		popq	%r13
 1238              	.LCFI61:
 1239              		.cfi_def_cfa_offset 8
 1240              	.LVL157:
 1241 00e7 C3       		ret
 1242              		.cfi_endproc
 1243              	.LFE80:
 1245              		.section	.text.display_server_object,"ax",@progbits
 1246              		.globl	display_server_object
 1248              	display_server_object:
 1249              	.LFB81:
 485:/home/baikal/workspace/C50/Huawei_IoT_Agent_Tiny_SDK_Linux//agent_tiny/lwm2m_client/object_server.c **** 
 486:/home/baikal/workspace/C50/Huawei_IoT_Agent_Tiny_SDK_Linux//agent_tiny/lwm2m_client/object_server.c **** void display_server_object(lwm2m_object_t *object)
 487:/home/baikal/workspace/C50/Huawei_IoT_Agent_Tiny_SDK_Linux//agent_tiny/lwm2m_client/object_server.c **** {
 1250              		.loc 1 487 0
 1251              		.cfi_startproc
 1252              	.LVL158:
 1253 0000 F3C3     		rep ret
 1254              		.cfi_endproc
 1255              	.LFE81:
 1257              		.section	.text.get_server_object,"ax",@progbits
 1258              		.globl	get_server_object
 1260              	get_server_object:
 1261              	.LFB82:
 488:/home/baikal/workspace/C50/Huawei_IoT_Agent_Tiny_SDK_Linux//agent_tiny/lwm2m_client/object_server.c **** #ifdef WITH_LOGS
 489:/home/baikal/workspace/C50/Huawei_IoT_Agent_Tiny_SDK_Linux//agent_tiny/lwm2m_client/object_server.c ****     fprintf(stdout, "  /%u: Server object, instances:\r\n", object->objID);
 490:/home/baikal/workspace/C50/Huawei_IoT_Agent_Tiny_SDK_Linux//agent_tiny/lwm2m_client/object_server.c ****     server_instance_t *serverInstance = (server_instance_t *)object->instanceList;
 491:/home/baikal/workspace/C50/Huawei_IoT_Agent_Tiny_SDK_Linux//agent_tiny/lwm2m_client/object_server.c ****     while (serverInstance != NULL)
GAS LISTING /tmp/ccJJOyJ4.s 			page 39


 492:/home/baikal/workspace/C50/Huawei_IoT_Agent_Tiny_SDK_Linux//agent_tiny/lwm2m_client/object_server.c ****     {
 493:/home/baikal/workspace/C50/Huawei_IoT_Agent_Tiny_SDK_Linux//agent_tiny/lwm2m_client/object_server.c ****         fprintf(stdout, "    /%u/%u: instanceId: %u, shortServerId: %u, lifetime: %u, storing: %s, 
 494:/home/baikal/workspace/C50/Huawei_IoT_Agent_Tiny_SDK_Linux//agent_tiny/lwm2m_client/object_server.c ****                 object->objID, serverInstance->instanceId,
 495:/home/baikal/workspace/C50/Huawei_IoT_Agent_Tiny_SDK_Linux//agent_tiny/lwm2m_client/object_server.c ****                 serverInstance->instanceId, serverInstance->shortServerId, serverInstance->lifetime
 496:/home/baikal/workspace/C50/Huawei_IoT_Agent_Tiny_SDK_Linux//agent_tiny/lwm2m_client/object_server.c ****                 serverInstance->storing ? "true" : "false", serverInstance->binding);
 497:/home/baikal/workspace/C50/Huawei_IoT_Agent_Tiny_SDK_Linux//agent_tiny/lwm2m_client/object_server.c ****         serverInstance = (server_instance_t *)serverInstance->next;
 498:/home/baikal/workspace/C50/Huawei_IoT_Agent_Tiny_SDK_Linux//agent_tiny/lwm2m_client/object_server.c ****     }
 499:/home/baikal/workspace/C50/Huawei_IoT_Agent_Tiny_SDK_Linux//agent_tiny/lwm2m_client/object_server.c **** #endif
 500:/home/baikal/workspace/C50/Huawei_IoT_Agent_Tiny_SDK_Linux//agent_tiny/lwm2m_client/object_server.c **** }
 501:/home/baikal/workspace/C50/Huawei_IoT_Agent_Tiny_SDK_Linux//agent_tiny/lwm2m_client/object_server.c **** //objArray[1] = get_server_object(serverId, "U", lifetime, false);
 502:/home/baikal/workspace/C50/Huawei_IoT_Agent_Tiny_SDK_Linux//agent_tiny/lwm2m_client/object_server.c **** lwm2m_object_t *get_server_object(int serverId,
 503:/home/baikal/workspace/C50/Huawei_IoT_Agent_Tiny_SDK_Linux//agent_tiny/lwm2m_client/object_server.c ****                                   const char *binding,
 504:/home/baikal/workspace/C50/Huawei_IoT_Agent_Tiny_SDK_Linux//agent_tiny/lwm2m_client/object_server.c ****                                   int lifetime,
 505:/home/baikal/workspace/C50/Huawei_IoT_Agent_Tiny_SDK_Linux//agent_tiny/lwm2m_client/object_server.c ****                                   bool storing)
 506:/home/baikal/workspace/C50/Huawei_IoT_Agent_Tiny_SDK_Linux//agent_tiny/lwm2m_client/object_server.c **** {
 1262              		.loc 1 506 0
 1263              		.cfi_startproc
 1264              	.LVL159:
 1265              		.loc 1 506 0
 1266 0000 4157     		pushq	%r15
 1267              	.LCFI62:
 1268              		.cfi_def_cfa_offset 16
 1269              		.cfi_offset 15, -16
 1270 0002 4156     		pushq	%r14
 1271              	.LCFI63:
 1272              		.cfi_def_cfa_offset 24
 1273              		.cfi_offset 14, -24
 1274 0004 4155     		pushq	%r13
 1275              	.LCFI64:
 1276              		.cfi_def_cfa_offset 32
 1277              		.cfi_offset 13, -32
 1278 0006 4154     		pushq	%r12
 1279              	.LCFI65:
 1280              		.cfi_def_cfa_offset 40
 1281              		.cfi_offset 12, -40
 1282 0008 55       		pushq	%rbp
 1283              	.LCFI66:
 1284              		.cfi_def_cfa_offset 48
 1285              		.cfi_offset 6, -48
 1286 0009 53       		pushq	%rbx
 1287              	.LCFI67:
 1288              		.cfi_def_cfa_offset 56
 1289              		.cfi_offset 3, -56
 1290 000a 4883EC08 		subq	$8, %rsp
 1291              	.LCFI68:
 1292              		.cfi_def_cfa_offset 64
 1293 000e 4189FE   		movl	%edi, %r14d
 1294 0011 4889F5   		movq	%rsi, %rbp
 1295 0014 4189D4   		movl	%edx, %r12d
 1296 0017 4189CD   		movl	%ecx, %r13d
 507:/home/baikal/workspace/C50/Huawei_IoT_Agent_Tiny_SDK_Linux//agent_tiny/lwm2m_client/object_server.c ****     lwm2m_object_t *serverObj;
 508:/home/baikal/workspace/C50/Huawei_IoT_Agent_Tiny_SDK_Linux//agent_tiny/lwm2m_client/object_server.c **** 
 509:/home/baikal/workspace/C50/Huawei_IoT_Agent_Tiny_SDK_Linux//agent_tiny/lwm2m_client/object_server.c ****     serverObj = (lwm2m_object_t *)lwm2m_malloc(sizeof(lwm2m_object_t));
 1297              		.loc 1 509 0
 1298 001a BF580000 		movl	$88, %edi
 1298      00
 1299              	.LVL160:
GAS LISTING /tmp/ccJJOyJ4.s 			page 40


 1300 001f E8000000 		call	lwm2m_malloc
 1300      00
 1301              	.LVL161:
 1302 0024 4889C3   		movq	%rax, %rbx
 1303              	.LVL162:
 510:/home/baikal/workspace/C50/Huawei_IoT_Agent_Tiny_SDK_Linux//agent_tiny/lwm2m_client/object_server.c **** 
 511:/home/baikal/workspace/C50/Huawei_IoT_Agent_Tiny_SDK_Linux//agent_tiny/lwm2m_client/object_server.c ****     if (NULL != serverObj)
 1304              		.loc 1 511 0
 1305 0027 4885C0   		testq	%rax, %rax
 1306 002a 0F842D01 		je	.L109
 1306      0000
 1307              	.LVL163:
 1308              	.LBB41:
 1309              	.LBB42:
 1310              	.LBB43:
  90:/usr/include/x86_64-linux-gnu/bits/string3.h **** }
 1311              		.loc 2 90 0
 1312 0030 48C70000 		movq	$0, (%rax)
 1312      000000
 1313 0037 48C74050 		movq	$0, 80(%rax)
 1313      00000000 
 1314 003f 488D7808 		leaq	8(%rax), %rdi
 1315 0043 4883E7F8 		andq	$-8, %rdi
 1316 0047 4889C1   		movq	%rax, %rcx
 1317 004a 4829F9   		subq	%rdi, %rcx
 1318 004d 83C158   		addl	$88, %ecx
 1319 0050 C1E903   		shrl	$3, %ecx
 1320 0053 89C9     		movl	%ecx, %ecx
 1321 0055 B8000000 		movl	$0, %eax
 1321      00
 1322              	.LVL164:
 1323 005a F348AB   		rep stosq
 1324              	.LVL165:
 1325              	.LBE43:
 1326              	.LBE42:
 512:/home/baikal/workspace/C50/Huawei_IoT_Agent_Tiny_SDK_Linux//agent_tiny/lwm2m_client/object_server.c ****     {
 513:/home/baikal/workspace/C50/Huawei_IoT_Agent_Tiny_SDK_Linux//agent_tiny/lwm2m_client/object_server.c ****         server_instance_t *serverInstance;
 514:/home/baikal/workspace/C50/Huawei_IoT_Agent_Tiny_SDK_Linux//agent_tiny/lwm2m_client/object_server.c **** 
 515:/home/baikal/workspace/C50/Huawei_IoT_Agent_Tiny_SDK_Linux//agent_tiny/lwm2m_client/object_server.c ****         memset(serverObj, 0, sizeof(lwm2m_object_t));
 516:/home/baikal/workspace/C50/Huawei_IoT_Agent_Tiny_SDK_Linux//agent_tiny/lwm2m_client/object_server.c **** 
 517:/home/baikal/workspace/C50/Huawei_IoT_Agent_Tiny_SDK_Linux//agent_tiny/lwm2m_client/object_server.c ****         serverObj->objID = LWM2M_SERVER_OBJECT_ID;
 1327              		.loc 1 517 0
 1328 005d 66C74308 		movw	$1, 8(%rbx)
 1328      0100
 518:/home/baikal/workspace/C50/Huawei_IoT_Agent_Tiny_SDK_Linux//agent_tiny/lwm2m_client/object_server.c **** 
 519:/home/baikal/workspace/C50/Huawei_IoT_Agent_Tiny_SDK_Linux//agent_tiny/lwm2m_client/object_server.c ****         // Manually create an hardcoded server
 520:/home/baikal/workspace/C50/Huawei_IoT_Agent_Tiny_SDK_Linux//agent_tiny/lwm2m_client/object_server.c ****         serverInstance = (server_instance_t *)lwm2m_malloc(sizeof(server_instance_t));
 1329              		.loc 1 520 0
 1330 0063 BF280000 		movl	$40, %edi
 1330      00
 1331 0068 E8000000 		call	lwm2m_malloc
 1331      00
 1332              	.LVL166:
 1333 006d 4989C7   		movq	%rax, %r15
 1334              	.LVL167:
 521:/home/baikal/workspace/C50/Huawei_IoT_Agent_Tiny_SDK_Linux//agent_tiny/lwm2m_client/object_server.c ****         if (NULL == serverInstance)
 1335              		.loc 1 521 0
GAS LISTING /tmp/ccJJOyJ4.s 			page 41


 1336 0070 4885C0   		testq	%rax, %rax
 1337 0073 7512     		jne	.L105
 522:/home/baikal/workspace/C50/Huawei_IoT_Agent_Tiny_SDK_Linux//agent_tiny/lwm2m_client/object_server.c ****         {
 523:/home/baikal/workspace/C50/Huawei_IoT_Agent_Tiny_SDK_Linux//agent_tiny/lwm2m_client/object_server.c ****             lwm2m_free(serverObj);
 1338              		.loc 1 523 0
 1339 0075 4889DF   		movq	%rbx, %rdi
 1340 0078 E8000000 		call	lwm2m_free
 1340      00
 1341              	.LVL168:
 524:/home/baikal/workspace/C50/Huawei_IoT_Agent_Tiny_SDK_Linux//agent_tiny/lwm2m_client/object_server.c ****             return NULL;
 1342              		.loc 1 524 0
 1343 007d B8000000 		movl	$0, %eax
 1343      00
 1344 0082 E9D60000 		jmp	.L104
 1344      00
 1345              	.LVL169:
 1346              	.L105:
 1347              	.LBB44:
 1348              	.LBB45:
  90:/usr/include/x86_64-linux-gnu/bits/string3.h **** }
 1349              		.loc 2 90 0
 1350 0087 48C70000 		movq	$0, (%rax)
 1350      000000
 1351 008e 48C74008 		movq	$0, 8(%rax)
 1351      00000000 
 1352 0096 48C74010 		movq	$0, 16(%rax)
 1352      00000000 
 1353 009e 48C74018 		movq	$0, 24(%rax)
 1353      00000000 
 1354 00a6 48C74020 		movq	$0, 32(%rax)
 1354      00000000 
 1355              	.LVL170:
 1356              	.LBE45:
 1357              	.LBE44:
 525:/home/baikal/workspace/C50/Huawei_IoT_Agent_Tiny_SDK_Linux//agent_tiny/lwm2m_client/object_server.c ****         }
 526:/home/baikal/workspace/C50/Huawei_IoT_Agent_Tiny_SDK_Linux//agent_tiny/lwm2m_client/object_server.c **** 
 527:/home/baikal/workspace/C50/Huawei_IoT_Agent_Tiny_SDK_Linux//agent_tiny/lwm2m_client/object_server.c ****         memset(serverInstance, 0, sizeof(server_instance_t));
 528:/home/baikal/workspace/C50/Huawei_IoT_Agent_Tiny_SDK_Linux//agent_tiny/lwm2m_client/object_server.c ****         serverInstance->instanceId = 0;
 529:/home/baikal/workspace/C50/Huawei_IoT_Agent_Tiny_SDK_Linux//agent_tiny/lwm2m_client/object_server.c ****         serverInstance->shortServerId = serverId;
 1358              		.loc 1 529 0
 1359 00ae 66448970 		movw	%r14w, 10(%rax)
 1359      0A
 530:/home/baikal/workspace/C50/Huawei_IoT_Agent_Tiny_SDK_Linux//agent_tiny/lwm2m_client/object_server.c ****         if (lifetime <= 0)
 1360              		.loc 1 530 0
 1361 00b3 4585E4   		testl	%r12d, %r12d
 1362 00b6 7F09     		jg	.L106
 531:/home/baikal/workspace/C50/Huawei_IoT_Agent_Tiny_SDK_Linux//agent_tiny/lwm2m_client/object_server.c ****         {
 532:/home/baikal/workspace/C50/Huawei_IoT_Agent_Tiny_SDK_Linux//agent_tiny/lwm2m_client/object_server.c ****             serverInstance->lifetime = LWM2M_DEFAULT_LIFETIME;
 1363              		.loc 1 532 0
 1364 00b8 C7400C80 		movl	$86400, 12(%rax)
 1364      510100
 1365 00bf EB04     		jmp	.L107
 1366              	.L106:
 533:/home/baikal/workspace/C50/Huawei_IoT_Agent_Tiny_SDK_Linux//agent_tiny/lwm2m_client/object_server.c ****         }
 534:/home/baikal/workspace/C50/Huawei_IoT_Agent_Tiny_SDK_Linux//agent_tiny/lwm2m_client/object_server.c ****         else
 535:/home/baikal/workspace/C50/Huawei_IoT_Agent_Tiny_SDK_Linux//agent_tiny/lwm2m_client/object_server.c ****         {
 536:/home/baikal/workspace/C50/Huawei_IoT_Agent_Tiny_SDK_Linux//agent_tiny/lwm2m_client/object_server.c ****             serverInstance->lifetime = lifetime;
GAS LISTING /tmp/ccJJOyJ4.s 			page 42


 1367              		.loc 1 536 0
 1368 00c1 4489600C 		movl	%r12d, 12(%rax)
 1369              	.L107:
 537:/home/baikal/workspace/C50/Huawei_IoT_Agent_Tiny_SDK_Linux//agent_tiny/lwm2m_client/object_server.c ****         }
 538:/home/baikal/workspace/C50/Huawei_IoT_Agent_Tiny_SDK_Linux//agent_tiny/lwm2m_client/object_server.c **** 
 539:/home/baikal/workspace/C50/Huawei_IoT_Agent_Tiny_SDK_Linux//agent_tiny/lwm2m_client/object_server.c ****         serverInstance->storing = storing;
 1370              		.loc 1 539 0
 1371 00c5 45886F1C 		movb	%r13b, 28(%r15)
 540:/home/baikal/workspace/C50/Huawei_IoT_Agent_Tiny_SDK_Linux//agent_tiny/lwm2m_client/object_server.c ****         if(prv_server_check_binding_valid(binding, strlen(binding)))
 1372              		.loc 1 540 0
 1373 00c9 B8000000 		movl	$0, %eax
 1373      00
 1374              	.LVL171:
 1375 00ce 48C7C1FF 		movq	$-1, %rcx
 1375      FFFFFF
 1376 00d5 4889EF   		movq	%rbp, %rdi
 1377 00d8 F2AE     		repnz scasb
 1378              	.LVL172:
 1379 00da 48F7D1   		notq	%rcx
 1380 00dd 4C8D61FF 		leaq	-1(%rcx), %r12
 1381              	.LVL173:
 1382 00e1 4C89E6   		movq	%r12, %rsi
 1383 00e4 4889EF   		movq	%rbp, %rdi
 1384 00e7 E8000000 		call	prv_server_check_binding_valid
 1384      00
 1385              	.LVL174:
 1386 00ec 84C0     		testb	%al, %al
 1387 00ee 7456     		je	.L108
 541:/home/baikal/workspace/C50/Huawei_IoT_Agent_Tiny_SDK_Linux//agent_tiny/lwm2m_client/object_server.c ****         {
 542:/home/baikal/workspace/C50/Huawei_IoT_Agent_Tiny_SDK_Linux//agent_tiny/lwm2m_client/object_server.c ****             memcpy(serverInstance->binding, binding, strlen(binding) + 1);
 1388              		.loc 1 542 0
 1389 00f0 498D5424 		leaq	1(%r12), %rdx
 1389      01
 1390 00f5 498D7F1D 		leaq	29(%r15), %rdi
 1391              	.LVL175:
 1392              	.LBB46:
 1393              	.LBB47:
  53:/usr/include/x86_64-linux-gnu/bits/string3.h **** }
 1394              		.loc 2 53 0
 1395 00f9 4889EE   		movq	%rbp, %rsi
 1396 00fc E8000000 		call	memcpy
 1396      00
 1397              	.LVL176:
 1398              	.LBE47:
 1399              	.LBE46:
 543:/home/baikal/workspace/C50/Huawei_IoT_Agent_Tiny_SDK_Linux//agent_tiny/lwm2m_client/object_server.c ****         }
 544:/home/baikal/workspace/C50/Huawei_IoT_Agent_Tiny_SDK_Linux//agent_tiny/lwm2m_client/object_server.c ****         else
 545:/home/baikal/workspace/C50/Huawei_IoT_Agent_Tiny_SDK_Linux//agent_tiny/lwm2m_client/object_server.c ****         {
 546:/home/baikal/workspace/C50/Huawei_IoT_Agent_Tiny_SDK_Linux//agent_tiny/lwm2m_client/object_server.c ****             lwm2m_free(serverObj);
 547:/home/baikal/workspace/C50/Huawei_IoT_Agent_Tiny_SDK_Linux//agent_tiny/lwm2m_client/object_server.c ****             lwm2m_free(serverInstance);
 548:/home/baikal/workspace/C50/Huawei_IoT_Agent_Tiny_SDK_Linux//agent_tiny/lwm2m_client/object_server.c ****             return NULL;
 549:/home/baikal/workspace/C50/Huawei_IoT_Agent_Tiny_SDK_Linux//agent_tiny/lwm2m_client/object_server.c ****         }
 550:/home/baikal/workspace/C50/Huawei_IoT_Agent_Tiny_SDK_Linux//agent_tiny/lwm2m_client/object_server.c **** 
 551:/home/baikal/workspace/C50/Huawei_IoT_Agent_Tiny_SDK_Linux//agent_tiny/lwm2m_client/object_server.c ****         serverObj->instanceList = LWM2M_LIST_ADD(serverObj->instanceList, serverInstance);
 1400              		.loc 1 551 0
 1401 0101 488B7B10 		movq	16(%rbx), %rdi
 1402 0105 4C89FE   		movq	%r15, %rsi
GAS LISTING /tmp/ccJJOyJ4.s 			page 43


 1403 0108 E8000000 		call	lwm2m_list_add
 1403      00
 1404              	.LVL177:
 1405 010d 48894310 		movq	%rax, 16(%rbx)
 552:/home/baikal/workspace/C50/Huawei_IoT_Agent_Tiny_SDK_Linux//agent_tiny/lwm2m_client/object_server.c **** 
 553:/home/baikal/workspace/C50/Huawei_IoT_Agent_Tiny_SDK_Linux//agent_tiny/lwm2m_client/object_server.c ****         serverObj->readFunc = prv_server_read;
 1406              		.loc 1 553 0
 1407 0111 48C74318 		movq	$prv_server_read, 24(%rbx)
 1407      00000000 
 554:/home/baikal/workspace/C50/Huawei_IoT_Agent_Tiny_SDK_Linux//agent_tiny/lwm2m_client/object_server.c ****         serverObj->discoverFunc = prv_server_discover;
 1408              		.loc 1 554 0
 1409 0119 48C74348 		movq	$prv_server_discover, 72(%rbx)
 1409      00000000 
 555:/home/baikal/workspace/C50/Huawei_IoT_Agent_Tiny_SDK_Linux//agent_tiny/lwm2m_client/object_server.c ****         serverObj->writeFunc = prv_server_write;
 1410              		.loc 1 555 0
 1411 0121 48C74320 		movq	$prv_server_write, 32(%rbx)
 1411      00000000 
 556:/home/baikal/workspace/C50/Huawei_IoT_Agent_Tiny_SDK_Linux//agent_tiny/lwm2m_client/object_server.c ****         serverObj->createFunc = prv_server_create;
 1412              		.loc 1 556 0
 1413 0129 48C74338 		movq	$prv_server_create, 56(%rbx)
 1413      00000000 
 557:/home/baikal/workspace/C50/Huawei_IoT_Agent_Tiny_SDK_Linux//agent_tiny/lwm2m_client/object_server.c ****         serverObj->deleteFunc = prv_server_delete;
 1414              		.loc 1 557 0
 1415 0131 48C74340 		movq	$prv_server_delete, 64(%rbx)
 1415      00000000 
 558:/home/baikal/workspace/C50/Huawei_IoT_Agent_Tiny_SDK_Linux//agent_tiny/lwm2m_client/object_server.c ****         serverObj->executeFunc = prv_server_execute;
 1416              		.loc 1 558 0
 1417 0139 48C74328 		movq	$prv_server_execute, 40(%rbx)
 1417      00000000 
 1418              	.LBE41:
 559:/home/baikal/workspace/C50/Huawei_IoT_Agent_Tiny_SDK_Linux//agent_tiny/lwm2m_client/object_server.c ****     }
 560:/home/baikal/workspace/C50/Huawei_IoT_Agent_Tiny_SDK_Linux//agent_tiny/lwm2m_client/object_server.c **** 
 561:/home/baikal/workspace/C50/Huawei_IoT_Agent_Tiny_SDK_Linux//agent_tiny/lwm2m_client/object_server.c ****     return serverObj;
 1419              		.loc 1 561 0
 1420 0141 4889D8   		movq	%rbx, %rax
 1421 0144 EB17     		jmp	.L104
 1422              	.L108:
 1423              	.LBB48:
 546:/home/baikal/workspace/C50/Huawei_IoT_Agent_Tiny_SDK_Linux//agent_tiny/lwm2m_client/object_server.c ****             lwm2m_free(serverInstance);
 1424              		.loc 1 546 0
 1425 0146 4889DF   		movq	%rbx, %rdi
 1426 0149 E8000000 		call	lwm2m_free
 1426      00
 1427              	.LVL178:
 547:/home/baikal/workspace/C50/Huawei_IoT_Agent_Tiny_SDK_Linux//agent_tiny/lwm2m_client/object_server.c ****             return NULL;
 1428              		.loc 1 547 0
 1429 014e 4C89FF   		movq	%r15, %rdi
 1430 0151 E8000000 		call	lwm2m_free
 1430      00
 1431              	.LVL179:
 548:/home/baikal/workspace/C50/Huawei_IoT_Agent_Tiny_SDK_Linux//agent_tiny/lwm2m_client/object_server.c ****         }
 1432              		.loc 1 548 0
 1433 0156 B8000000 		movl	$0, %eax
 1433      00
 1434 015b EB00     		jmp	.L104
 1435              	.LVL180:
 1436              	.L109:
GAS LISTING /tmp/ccJJOyJ4.s 			page 44


 1437              	.L104:
 1438              	.LBE48:
 562:/home/baikal/workspace/C50/Huawei_IoT_Agent_Tiny_SDK_Linux//agent_tiny/lwm2m_client/object_server.c **** }
 1439              		.loc 1 562 0
 1440 015d 4883C408 		addq	$8, %rsp
 1441              	.LCFI69:
 1442              		.cfi_def_cfa_offset 56
 1443 0161 5B       		popq	%rbx
 1444              	.LCFI70:
 1445              		.cfi_def_cfa_offset 48
 1446              	.LVL181:
 1447 0162 5D       		popq	%rbp
 1448              	.LCFI71:
 1449              		.cfi_def_cfa_offset 40
 1450 0163 415C     		popq	%r12
 1451              	.LCFI72:
 1452              		.cfi_def_cfa_offset 32
 1453 0165 415D     		popq	%r13
 1454              	.LCFI73:
 1455              		.cfi_def_cfa_offset 24
 1456 0167 415E     		popq	%r14
 1457              	.LCFI74:
 1458              		.cfi_def_cfa_offset 16
 1459              	.LVL182:
 1460 0169 415F     		popq	%r15
 1461              	.LCFI75:
 1462              		.cfi_def_cfa_offset 8
 1463 016b C3       		ret
 1464              		.cfi_endproc
 1465              	.LFE82:
 1467              		.section	.text.clean_server_object,"ax",@progbits
 1468              		.globl	clean_server_object
 1470              	clean_server_object:
 1471              	.LFB83:
 563:/home/baikal/workspace/C50/Huawei_IoT_Agent_Tiny_SDK_Linux//agent_tiny/lwm2m_client/object_server.c **** 
 564:/home/baikal/workspace/C50/Huawei_IoT_Agent_Tiny_SDK_Linux//agent_tiny/lwm2m_client/object_server.c **** void clean_server_object(lwm2m_object_t *object)
 565:/home/baikal/workspace/C50/Huawei_IoT_Agent_Tiny_SDK_Linux//agent_tiny/lwm2m_client/object_server.c **** {
 1472              		.loc 1 565 0
 1473              		.cfi_startproc
 1474              	.LVL183:
 1475 0000 53       		pushq	%rbx
 1476              	.LCFI76:
 1477              		.cfi_def_cfa_offset 16
 1478              		.cfi_offset 3, -16
 1479 0001 4889FB   		movq	%rdi, %rbx
 566:/home/baikal/workspace/C50/Huawei_IoT_Agent_Tiny_SDK_Linux//agent_tiny/lwm2m_client/object_server.c ****     if(NULL == object)
 1480              		.loc 1 566 0
 1481 0004 4885FF   		testq	%rdi, %rdi
 1482 0007 750E     		jne	.L113
 1483 0009 EB1D     		jmp	.L111
 1484              	.LVL184:
 1485              	.L114:
 1486              	.LBB49:
 567:/home/baikal/workspace/C50/Huawei_IoT_Agent_Tiny_SDK_Linux//agent_tiny/lwm2m_client/object_server.c ****     {
 568:/home/baikal/workspace/C50/Huawei_IoT_Agent_Tiny_SDK_Linux//agent_tiny/lwm2m_client/object_server.c ****         return;
 569:/home/baikal/workspace/C50/Huawei_IoT_Agent_Tiny_SDK_Linux//agent_tiny/lwm2m_client/object_server.c ****     }
 570:/home/baikal/workspace/C50/Huawei_IoT_Agent_Tiny_SDK_Linux//agent_tiny/lwm2m_client/object_server.c ****     while (object->instanceList != NULL)
GAS LISTING /tmp/ccJJOyJ4.s 			page 45


 571:/home/baikal/workspace/C50/Huawei_IoT_Agent_Tiny_SDK_Linux//agent_tiny/lwm2m_client/object_server.c ****     {
 572:/home/baikal/workspace/C50/Huawei_IoT_Agent_Tiny_SDK_Linux//agent_tiny/lwm2m_client/object_server.c ****         server_instance_t *serverInstance = (server_instance_t *)object->instanceList;
 573:/home/baikal/workspace/C50/Huawei_IoT_Agent_Tiny_SDK_Linux//agent_tiny/lwm2m_client/object_server.c ****         object->instanceList = object->instanceList->next;
 1487              		.loc 1 573 0
 1488 000b 488B07   		movq	(%rdi), %rax
 1489 000e 48894310 		movq	%rax, 16(%rbx)
 574:/home/baikal/workspace/C50/Huawei_IoT_Agent_Tiny_SDK_Linux//agent_tiny/lwm2m_client/object_server.c ****         lwm2m_free(serverInstance);
 1490              		.loc 1 574 0
 1491 0012 E8000000 		call	lwm2m_free
 1491      00
 1492              	.LVL185:
 1493              	.L113:
 1494              	.LBE49:
 570:/home/baikal/workspace/C50/Huawei_IoT_Agent_Tiny_SDK_Linux//agent_tiny/lwm2m_client/object_server.c ****     {
 1495              		.loc 1 570 0
 1496 0017 488B7B10 		movq	16(%rbx), %rdi
 1497 001b 4885FF   		testq	%rdi, %rdi
 1498 001e 75EB     		jne	.L114
 575:/home/baikal/workspace/C50/Huawei_IoT_Agent_Tiny_SDK_Linux//agent_tiny/lwm2m_client/object_server.c ****     }
 576:/home/baikal/workspace/C50/Huawei_IoT_Agent_Tiny_SDK_Linux//agent_tiny/lwm2m_client/object_server.c ****     lwm2m_free(object);
 1499              		.loc 1 576 0
 1500 0020 4889DF   		movq	%rbx, %rdi
 1501 0023 E8000000 		call	lwm2m_free
 1501      00
 1502              	.LVL186:
 1503              	.L111:
 577:/home/baikal/workspace/C50/Huawei_IoT_Agent_Tiny_SDK_Linux//agent_tiny/lwm2m_client/object_server.c **** }
 1504              		.loc 1 577 0
 1505 0028 5B       		popq	%rbx
 1506              	.LCFI77:
 1507              		.cfi_def_cfa_offset 8
 1508              	.LVL187:
 1509 0029 C3       		ret
 1510              		.cfi_endproc
 1511              	.LFE83:
 1513              		.text
 1514              	.Letext0:
 1515              		.file 3 "/usr/include/stdint.h"
 1516              		.file 4 "/usr/lib/gcc/x86_64-linux-gnu/5/include/stddef.h"
 1517              		.file 5 "/usr/include/x86_64-linux-gnu/bits/types.h"
 1518              		.file 6 "/usr/include/libio.h"
 1519              		.file 7 "/home/baikal/workspace/C50/Huawei_IoT_Agent_Tiny_SDK_Linux//lwm2m/core/liblwm2m.h"
 1520              		.file 8 "/usr/include/stdio.h"
 1521              		.file 9 "/home/baikal/workspace/C50/Huawei_IoT_Agent_Tiny_SDK_Linux//agent_tiny/lwm2m_client/objec
 1522              		.file 10 "<built-in>"
GAS LISTING /tmp/ccJJOyJ4.s 			page 46

