GAS LISTING /tmp/ccCHjPJP.s 			page 1


   1              		.file	"object_connectivity_moni.c"
   2              		.text
   3              	.Ltext0:
   4              		.section	.rodata.str1.1,"aMS",@progbits,1
   5              	.LC0:
   6 0000 7765622E 		.string	"web.vodafone.de"
   6      766F6461 
   6      666F6E65 
   6      2E646500 
   7              		.section	.text.prv_set_value,"ax",@progbits
   9              	prv_set_value:
  10              	.LFB63:
  11              		.file 1 "/home/baikal/workspace/C50/Huawei_IoT_Agent_Tiny_SDK_Linux//agent_tiny/lwm2m_client/objec
   1:/home/baikal/workspace/C50/Huawei_IoT_Agent_Tiny_SDK_Linux//agent_tiny/lwm2m_client/object_connectivity_moni.c **** /*----------------------------------------------------------------------------
   2:/home/baikal/workspace/C50/Huawei_IoT_Agent_Tiny_SDK_Linux//agent_tiny/lwm2m_client/object_connectivity_moni.c ****  * Copyright (c) <2016-2018>, <Huawei Technologies Co., Ltd>
   3:/home/baikal/workspace/C50/Huawei_IoT_Agent_Tiny_SDK_Linux//agent_tiny/lwm2m_client/object_connectivity_moni.c ****  * All rights reserved.
   4:/home/baikal/workspace/C50/Huawei_IoT_Agent_Tiny_SDK_Linux//agent_tiny/lwm2m_client/object_connectivity_moni.c ****  * Redistribution and use in source and binary forms, with or without modification,
   5:/home/baikal/workspace/C50/Huawei_IoT_Agent_Tiny_SDK_Linux//agent_tiny/lwm2m_client/object_connectivity_moni.c ****  * are permitted provided that the following conditions are met:
   6:/home/baikal/workspace/C50/Huawei_IoT_Agent_Tiny_SDK_Linux//agent_tiny/lwm2m_client/object_connectivity_moni.c ****  * 1. Redistributions of source code must retain the above copyright notice, this list of
   7:/home/baikal/workspace/C50/Huawei_IoT_Agent_Tiny_SDK_Linux//agent_tiny/lwm2m_client/object_connectivity_moni.c ****  * conditions and the following disclaimer.
   8:/home/baikal/workspace/C50/Huawei_IoT_Agent_Tiny_SDK_Linux//agent_tiny/lwm2m_client/object_connectivity_moni.c ****  * 2. Redistributions in binary form must reproduce the above copyright notice, this list
   9:/home/baikal/workspace/C50/Huawei_IoT_Agent_Tiny_SDK_Linux//agent_tiny/lwm2m_client/object_connectivity_moni.c ****  * of conditions and the following disclaimer in the documentation and/or other materials
  10:/home/baikal/workspace/C50/Huawei_IoT_Agent_Tiny_SDK_Linux//agent_tiny/lwm2m_client/object_connectivity_moni.c ****  * provided with the distribution.
  11:/home/baikal/workspace/C50/Huawei_IoT_Agent_Tiny_SDK_Linux//agent_tiny/lwm2m_client/object_connectivity_moni.c ****  * 3. Neither the name of the copyright holder nor the names of its contributors may be used
  12:/home/baikal/workspace/C50/Huawei_IoT_Agent_Tiny_SDK_Linux//agent_tiny/lwm2m_client/object_connectivity_moni.c ****  * to endorse or promote products derived from this software without specific prior written
  13:/home/baikal/workspace/C50/Huawei_IoT_Agent_Tiny_SDK_Linux//agent_tiny/lwm2m_client/object_connectivity_moni.c ****  * permission.
  14:/home/baikal/workspace/C50/Huawei_IoT_Agent_Tiny_SDK_Linux//agent_tiny/lwm2m_client/object_connectivity_moni.c ****  * THIS SOFTWARE IS PROVIDED BY THE COPYRIGHT HOLDERS AND CONTRIBUTORS
  15:/home/baikal/workspace/C50/Huawei_IoT_Agent_Tiny_SDK_Linux//agent_tiny/lwm2m_client/object_connectivity_moni.c ****  * "AS IS" AND ANY EXPRESS OR IMPLIED WARRANTIES, INCLUDING, BUT NOT LIMITED TO,
  16:/home/baikal/workspace/C50/Huawei_IoT_Agent_Tiny_SDK_Linux//agent_tiny/lwm2m_client/object_connectivity_moni.c ****  * THE IMPLIED WARRANTIES OF MERCHANTABILITY AND FITNESS FOR A PARTICULAR
  17:/home/baikal/workspace/C50/Huawei_IoT_Agent_Tiny_SDK_Linux//agent_tiny/lwm2m_client/object_connectivity_moni.c ****  * PURPOSE ARE DISCLAIMED. IN NO EVENT SHALL THE COPYRIGHT HOLDER OR
  18:/home/baikal/workspace/C50/Huawei_IoT_Agent_Tiny_SDK_Linux//agent_tiny/lwm2m_client/object_connectivity_moni.c ****  * CONTRIBUTORS BE LIABLE FOR ANY DIRECT, INDIRECT, INCIDENTAL, SPECIAL,
  19:/home/baikal/workspace/C50/Huawei_IoT_Agent_Tiny_SDK_Linux//agent_tiny/lwm2m_client/object_connectivity_moni.c ****  * EXEMPLARY, OR CONSEQUENTIAL DAMAGES (INCLUDING, BUT NOT LIMITED TO,
  20:/home/baikal/workspace/C50/Huawei_IoT_Agent_Tiny_SDK_Linux//agent_tiny/lwm2m_client/object_connectivity_moni.c ****  * PROCUREMENT OF SUBSTITUTE GOODS OR SERVICES; LOSS OF USE, DATA, OR PROFITS;
  21:/home/baikal/workspace/C50/Huawei_IoT_Agent_Tiny_SDK_Linux//agent_tiny/lwm2m_client/object_connectivity_moni.c ****  * OR BUSINESS INTERRUPTION) HOWEVER CAUSED AND ON ANY THEORY OF LIABILITY,
  22:/home/baikal/workspace/C50/Huawei_IoT_Agent_Tiny_SDK_Linux//agent_tiny/lwm2m_client/object_connectivity_moni.c ****  * WHETHER IN CONTRACT, STRICT LIABILITY, OR TORT (INCLUDING NEGLIGENCE OR
  23:/home/baikal/workspace/C50/Huawei_IoT_Agent_Tiny_SDK_Linux//agent_tiny/lwm2m_client/object_connectivity_moni.c ****  * OTHERWISE) ARISING IN ANY WAY OUT OF THE USE OF THIS SOFTWARE, EVEN IF
  24:/home/baikal/workspace/C50/Huawei_IoT_Agent_Tiny_SDK_Linux//agent_tiny/lwm2m_client/object_connectivity_moni.c ****  * ADVISED OF THE POSSIBILITY OF SUCH DAMAGE.
  25:/home/baikal/workspace/C50/Huawei_IoT_Agent_Tiny_SDK_Linux//agent_tiny/lwm2m_client/object_connectivity_moni.c ****  *---------------------------------------------------------------------------*/
  26:/home/baikal/workspace/C50/Huawei_IoT_Agent_Tiny_SDK_Linux//agent_tiny/lwm2m_client/object_connectivity_moni.c **** /*----------------------------------------------------------------------------
  27:/home/baikal/workspace/C50/Huawei_IoT_Agent_Tiny_SDK_Linux//agent_tiny/lwm2m_client/object_connectivity_moni.c ****  * Notice of Export Control Law
  28:/home/baikal/workspace/C50/Huawei_IoT_Agent_Tiny_SDK_Linux//agent_tiny/lwm2m_client/object_connectivity_moni.c ****  * ===============================================
  29:/home/baikal/workspace/C50/Huawei_IoT_Agent_Tiny_SDK_Linux//agent_tiny/lwm2m_client/object_connectivity_moni.c ****  * Huawei LiteOS may be subject to applicable export control laws and regulations, which might
  30:/home/baikal/workspace/C50/Huawei_IoT_Agent_Tiny_SDK_Linux//agent_tiny/lwm2m_client/object_connectivity_moni.c ****  * include those applicable to Huawei LiteOS of U.S. and the country in which you are located.
  31:/home/baikal/workspace/C50/Huawei_IoT_Agent_Tiny_SDK_Linux//agent_tiny/lwm2m_client/object_connectivity_moni.c ****  * Import, export and usage of Huawei LiteOS in any manner by you shall be in compliance with such
  32:/home/baikal/workspace/C50/Huawei_IoT_Agent_Tiny_SDK_Linux//agent_tiny/lwm2m_client/object_connectivity_moni.c ****  * applicable export control laws and regulations.
  33:/home/baikal/workspace/C50/Huawei_IoT_Agent_Tiny_SDK_Linux//agent_tiny/lwm2m_client/object_connectivity_moni.c ****  *---------------------------------------------------------------------------*/
  34:/home/baikal/workspace/C50/Huawei_IoT_Agent_Tiny_SDK_Linux//agent_tiny/lwm2m_client/object_connectivity_moni.c **** 
  35:/home/baikal/workspace/C50/Huawei_IoT_Agent_Tiny_SDK_Linux//agent_tiny/lwm2m_client/object_connectivity_moni.c **** /*******************************************************************************
  36:/home/baikal/workspace/C50/Huawei_IoT_Agent_Tiny_SDK_Linux//agent_tiny/lwm2m_client/object_connectivity_moni.c ****  *
  37:/home/baikal/workspace/C50/Huawei_IoT_Agent_Tiny_SDK_Linux//agent_tiny/lwm2m_client/object_connectivity_moni.c ****  * Copyright (c) 2014 Bosch Software Innovations GmbH Germany.
  38:/home/baikal/workspace/C50/Huawei_IoT_Agent_Tiny_SDK_Linux//agent_tiny/lwm2m_client/object_connectivity_moni.c ****  * All rights reserved. This program and the accompanying materials
  39:/home/baikal/workspace/C50/Huawei_IoT_Agent_Tiny_SDK_Linux//agent_tiny/lwm2m_client/object_connectivity_moni.c ****  * are made available under the terms of the Eclipse Public License v1.0
  40:/home/baikal/workspace/C50/Huawei_IoT_Agent_Tiny_SDK_Linux//agent_tiny/lwm2m_client/object_connectivity_moni.c ****  * and Eclipse Distribution License v1.0 which accompany this distribution.
  41:/home/baikal/workspace/C50/Huawei_IoT_Agent_Tiny_SDK_Linux//agent_tiny/lwm2m_client/object_connectivity_moni.c ****  *
  42:/home/baikal/workspace/C50/Huawei_IoT_Agent_Tiny_SDK_Linux//agent_tiny/lwm2m_client/object_connectivity_moni.c ****  * The Eclipse Public License is available at
  43:/home/baikal/workspace/C50/Huawei_IoT_Agent_Tiny_SDK_Linux//agent_tiny/lwm2m_client/object_connectivity_moni.c ****  *    http://www.eclipse.org/legal/epl-v10.html
  44:/home/baikal/workspace/C50/Huawei_IoT_Agent_Tiny_SDK_Linux//agent_tiny/lwm2m_client/object_connectivity_moni.c ****  * The Eclipse Distribution License is available at
GAS LISTING /tmp/ccCHjPJP.s 			page 2


  45:/home/baikal/workspace/C50/Huawei_IoT_Agent_Tiny_SDK_Linux//agent_tiny/lwm2m_client/object_connectivity_moni.c ****  *    http://www.eclipse.org/org/documents/edl-v10.php.
  46:/home/baikal/workspace/C50/Huawei_IoT_Agent_Tiny_SDK_Linux//agent_tiny/lwm2m_client/object_connectivity_moni.c ****  *
  47:/home/baikal/workspace/C50/Huawei_IoT_Agent_Tiny_SDK_Linux//agent_tiny/lwm2m_client/object_connectivity_moni.c ****  * Contributors:
  48:/home/baikal/workspace/C50/Huawei_IoT_Agent_Tiny_SDK_Linux//agent_tiny/lwm2m_client/object_connectivity_moni.c ****  *    Bosch Software Innovations GmbH - Please refer to git log
  49:/home/baikal/workspace/C50/Huawei_IoT_Agent_Tiny_SDK_Linux//agent_tiny/lwm2m_client/object_connectivity_moni.c ****  *    Pascal Rieux - Please refer to git log
  50:/home/baikal/workspace/C50/Huawei_IoT_Agent_Tiny_SDK_Linux//agent_tiny/lwm2m_client/object_connectivity_moni.c ****  *
  51:/home/baikal/workspace/C50/Huawei_IoT_Agent_Tiny_SDK_Linux//agent_tiny/lwm2m_client/object_connectivity_moni.c ****  *******************************************************************************/
  52:/home/baikal/workspace/C50/Huawei_IoT_Agent_Tiny_SDK_Linux//agent_tiny/lwm2m_client/object_connectivity_moni.c **** 
  53:/home/baikal/workspace/C50/Huawei_IoT_Agent_Tiny_SDK_Linux//agent_tiny/lwm2m_client/object_connectivity_moni.c **** /*
  54:/home/baikal/workspace/C50/Huawei_IoT_Agent_Tiny_SDK_Linux//agent_tiny/lwm2m_client/object_connectivity_moni.c ****  *  This Connectivity Monitoring object is optional and has a single instance
  55:/home/baikal/workspace/C50/Huawei_IoT_Agent_Tiny_SDK_Linux//agent_tiny/lwm2m_client/object_connectivity_moni.c ****  *
  56:/home/baikal/workspace/C50/Huawei_IoT_Agent_Tiny_SDK_Linux//agent_tiny/lwm2m_client/object_connectivity_moni.c ****  *  Resources:
  57:/home/baikal/workspace/C50/Huawei_IoT_Agent_Tiny_SDK_Linux//agent_tiny/lwm2m_client/object_connectivity_moni.c ****  *
  58:/home/baikal/workspace/C50/Huawei_IoT_Agent_Tiny_SDK_Linux//agent_tiny/lwm2m_client/object_connectivity_moni.c ****  *          Name             | ID | Oper. | Inst. | Mand.|  Type   | Range | Units |
  59:/home/baikal/workspace/C50/Huawei_IoT_Agent_Tiny_SDK_Linux//agent_tiny/lwm2m_client/object_connectivity_moni.c ****  *  Network Bearer           |  0 |  R    | Single|  Yes | Integer |       |       |
  60:/home/baikal/workspace/C50/Huawei_IoT_Agent_Tiny_SDK_Linux//agent_tiny/lwm2m_client/object_connectivity_moni.c ****  *  Available Network Bearer |  1 |  R    | Multi |  Yes | Integer |       |       |
  61:/home/baikal/workspace/C50/Huawei_IoT_Agent_Tiny_SDK_Linux//agent_tiny/lwm2m_client/object_connectivity_moni.c ****  *  Radio Signal Strength    |  2 |  R    | Single|  Yes | Integer |       | dBm   |
  62:/home/baikal/workspace/C50/Huawei_IoT_Agent_Tiny_SDK_Linux//agent_tiny/lwm2m_client/object_connectivity_moni.c ****  *  Link Quality             |  3 |  R    | Single|  No  | Integer | 0-100 |   %   |
  63:/home/baikal/workspace/C50/Huawei_IoT_Agent_Tiny_SDK_Linux//agent_tiny/lwm2m_client/object_connectivity_moni.c ****  *  IP Addresses             |  4 |  R    | Multi |  Yes | String  |       |       |
  64:/home/baikal/workspace/C50/Huawei_IoT_Agent_Tiny_SDK_Linux//agent_tiny/lwm2m_client/object_connectivity_moni.c ****  *  Router IP Addresses      |  5 |  R    | Multi |  No  | String  |       |       |
  65:/home/baikal/workspace/C50/Huawei_IoT_Agent_Tiny_SDK_Linux//agent_tiny/lwm2m_client/object_connectivity_moni.c ****  *  Link Utilization         |  6 |  R    | Single|  No  | Integer | 0-100 |   %   |
  66:/home/baikal/workspace/C50/Huawei_IoT_Agent_Tiny_SDK_Linux//agent_tiny/lwm2m_client/object_connectivity_moni.c ****  *  APN                      |  7 |  R    | Multi |  No  | String  |       |       |
  67:/home/baikal/workspace/C50/Huawei_IoT_Agent_Tiny_SDK_Linux//agent_tiny/lwm2m_client/object_connectivity_moni.c ****  *  Cell ID                  |  8 |  R    | Single|  No  | Integer |       |       |
  68:/home/baikal/workspace/C50/Huawei_IoT_Agent_Tiny_SDK_Linux//agent_tiny/lwm2m_client/object_connectivity_moni.c ****  *  SMNC                     |  9 |  R    | Single|  No  | Integer | 0-999 |   %   |
  69:/home/baikal/workspace/C50/Huawei_IoT_Agent_Tiny_SDK_Linux//agent_tiny/lwm2m_client/object_connectivity_moni.c ****  *  SMCC                     | 10 |  R    | Single|  No  | Integer | 0-999 |       |
  70:/home/baikal/workspace/C50/Huawei_IoT_Agent_Tiny_SDK_Linux//agent_tiny/lwm2m_client/object_connectivity_moni.c ****  *
  71:/home/baikal/workspace/C50/Huawei_IoT_Agent_Tiny_SDK_Linux//agent_tiny/lwm2m_client/object_connectivity_moni.c ****  */
  72:/home/baikal/workspace/C50/Huawei_IoT_Agent_Tiny_SDK_Linux//agent_tiny/lwm2m_client/object_connectivity_moni.c **** 
  73:/home/baikal/workspace/C50/Huawei_IoT_Agent_Tiny_SDK_Linux//agent_tiny/lwm2m_client/object_connectivity_moni.c **** #include "internals.h"
  74:/home/baikal/workspace/C50/Huawei_IoT_Agent_Tiny_SDK_Linux//agent_tiny/lwm2m_client/object_connectivity_moni.c **** #include "agenttiny.h"
  75:/home/baikal/workspace/C50/Huawei_IoT_Agent_Tiny_SDK_Linux//agent_tiny/lwm2m_client/object_connectivity_moni.c **** 
  76:/home/baikal/workspace/C50/Huawei_IoT_Agent_Tiny_SDK_Linux//agent_tiny/lwm2m_client/object_connectivity_moni.c **** // Resource Id's:
  77:/home/baikal/workspace/C50/Huawei_IoT_Agent_Tiny_SDK_Linux//agent_tiny/lwm2m_client/object_connectivity_moni.c **** #define RES_M_NETWORK_BEARER            0
  78:/home/baikal/workspace/C50/Huawei_IoT_Agent_Tiny_SDK_Linux//agent_tiny/lwm2m_client/object_connectivity_moni.c **** #define RES_M_AVL_NETWORK_BEARER        1
  79:/home/baikal/workspace/C50/Huawei_IoT_Agent_Tiny_SDK_Linux//agent_tiny/lwm2m_client/object_connectivity_moni.c **** #define RES_M_RADIO_SIGNAL_STRENGTH     2
  80:/home/baikal/workspace/C50/Huawei_IoT_Agent_Tiny_SDK_Linux//agent_tiny/lwm2m_client/object_connectivity_moni.c **** #define RES_O_LINK_QUALITY              3
  81:/home/baikal/workspace/C50/Huawei_IoT_Agent_Tiny_SDK_Linux//agent_tiny/lwm2m_client/object_connectivity_moni.c **** #define RES_M_IP_ADDRESSES              4
  82:/home/baikal/workspace/C50/Huawei_IoT_Agent_Tiny_SDK_Linux//agent_tiny/lwm2m_client/object_connectivity_moni.c **** #define RES_O_ROUTER_IP_ADDRESS         5
  83:/home/baikal/workspace/C50/Huawei_IoT_Agent_Tiny_SDK_Linux//agent_tiny/lwm2m_client/object_connectivity_moni.c **** #define RES_O_LINK_UTILIZATION          6
  84:/home/baikal/workspace/C50/Huawei_IoT_Agent_Tiny_SDK_Linux//agent_tiny/lwm2m_client/object_connectivity_moni.c **** #define RES_O_APN                       7
  85:/home/baikal/workspace/C50/Huawei_IoT_Agent_Tiny_SDK_Linux//agent_tiny/lwm2m_client/object_connectivity_moni.c **** #define RES_O_CELL_ID                   8
  86:/home/baikal/workspace/C50/Huawei_IoT_Agent_Tiny_SDK_Linux//agent_tiny/lwm2m_client/object_connectivity_moni.c **** #define RES_O_SMNC                      9
  87:/home/baikal/workspace/C50/Huawei_IoT_Agent_Tiny_SDK_Linux//agent_tiny/lwm2m_client/object_connectivity_moni.c **** #define RES_O_SMCC                      10
  88:/home/baikal/workspace/C50/Huawei_IoT_Agent_Tiny_SDK_Linux//agent_tiny/lwm2m_client/object_connectivity_moni.c **** 
  89:/home/baikal/workspace/C50/Huawei_IoT_Agent_Tiny_SDK_Linux//agent_tiny/lwm2m_client/object_connectivity_moni.c **** #define VALUE_NETWORK_BEARER_GSM    0   //GSM see
  90:/home/baikal/workspace/C50/Huawei_IoT_Agent_Tiny_SDK_Linux//agent_tiny/lwm2m_client/object_connectivity_moni.c **** #define VALUE_AVL_NETWORK_BEARER_1  0   //GSM
  91:/home/baikal/workspace/C50/Huawei_IoT_Agent_Tiny_SDK_Linux//agent_tiny/lwm2m_client/object_connectivity_moni.c **** #define VALUE_AVL_NETWORK_BEARER_2  21  //WLAN
  92:/home/baikal/workspace/C50/Huawei_IoT_Agent_Tiny_SDK_Linux//agent_tiny/lwm2m_client/object_connectivity_moni.c **** #define VALUE_AVL_NETWORK_BEARER_3  41  //Ethernet
  93:/home/baikal/workspace/C50/Huawei_IoT_Agent_Tiny_SDK_Linux//agent_tiny/lwm2m_client/object_connectivity_moni.c **** #define VALUE_AVL_NETWORK_BEARER_4  42  //DSL
  94:/home/baikal/workspace/C50/Huawei_IoT_Agent_Tiny_SDK_Linux//agent_tiny/lwm2m_client/object_connectivity_moni.c **** #define VALUE_AVL_NETWORK_BEARER_5  43  //PLC
  95:/home/baikal/workspace/C50/Huawei_IoT_Agent_Tiny_SDK_Linux//agent_tiny/lwm2m_client/object_connectivity_moni.c **** #define VALUE_IP_ADDRESS_1              "192.168.178.101"
  96:/home/baikal/workspace/C50/Huawei_IoT_Agent_Tiny_SDK_Linux//agent_tiny/lwm2m_client/object_connectivity_moni.c **** #define VALUE_IP_ADDRESS_2              "192.168.178.102"
  97:/home/baikal/workspace/C50/Huawei_IoT_Agent_Tiny_SDK_Linux//agent_tiny/lwm2m_client/object_connectivity_moni.c **** #define VALUE_ROUTER_IP_ADDRESS_1       "192.168.178.001"
  98:/home/baikal/workspace/C50/Huawei_IoT_Agent_Tiny_SDK_Linux//agent_tiny/lwm2m_client/object_connectivity_moni.c **** #define VALUE_ROUTER_IP_ADDRESS_2       "192.168.178.002"
  99:/home/baikal/workspace/C50/Huawei_IoT_Agent_Tiny_SDK_Linux//agent_tiny/lwm2m_client/object_connectivity_moni.c **** #define VALUE_APN_1                     "web.vodafone.de"
 100:/home/baikal/workspace/C50/Huawei_IoT_Agent_Tiny_SDK_Linux//agent_tiny/lwm2m_client/object_connectivity_moni.c **** #define VALUE_APN_2                     "cda.vodafone.de"
 101:/home/baikal/workspace/C50/Huawei_IoT_Agent_Tiny_SDK_Linux//agent_tiny/lwm2m_client/object_connectivity_moni.c **** #define VALUE_CELL_ID                   69696969
GAS LISTING /tmp/ccCHjPJP.s 			page 3


 102:/home/baikal/workspace/C50/Huawei_IoT_Agent_Tiny_SDK_Linux//agent_tiny/lwm2m_client/object_connectivity_moni.c **** #define VALUE_RADIO_SIGNAL_STRENGTH     80                  //dBm
 103:/home/baikal/workspace/C50/Huawei_IoT_Agent_Tiny_SDK_Linux//agent_tiny/lwm2m_client/object_connectivity_moni.c **** #define VALUE_LINK_QUALITY              98
 104:/home/baikal/workspace/C50/Huawei_IoT_Agent_Tiny_SDK_Linux//agent_tiny/lwm2m_client/object_connectivity_moni.c **** #define VALUE_LINK_UTILIZATION          666
 105:/home/baikal/workspace/C50/Huawei_IoT_Agent_Tiny_SDK_Linux//agent_tiny/lwm2m_client/object_connectivity_moni.c **** #define VALUE_SMNC                      33
 106:/home/baikal/workspace/C50/Huawei_IoT_Agent_Tiny_SDK_Linux//agent_tiny/lwm2m_client/object_connectivity_moni.c **** #define VALUE_SMCC                      44
 107:/home/baikal/workspace/C50/Huawei_IoT_Agent_Tiny_SDK_Linux//agent_tiny/lwm2m_client/object_connectivity_moni.c **** #define IP4ADDR_STRLEN_MAX              16
 108:/home/baikal/workspace/C50/Huawei_IoT_Agent_Tiny_SDK_Linux//agent_tiny/lwm2m_client/object_connectivity_moni.c **** #define IPADDRT_LIMIT 2
 109:/home/baikal/workspace/C50/Huawei_IoT_Agent_Tiny_SDK_Linux//agent_tiny/lwm2m_client/object_connectivity_moni.c **** typedef struct
 110:/home/baikal/workspace/C50/Huawei_IoT_Agent_Tiny_SDK_Linux//agent_tiny/lwm2m_client/object_connectivity_moni.c **** {
 111:/home/baikal/workspace/C50/Huawei_IoT_Agent_Tiny_SDK_Linux//agent_tiny/lwm2m_client/object_connectivity_moni.c ****     char ipAddresses[IPADDRT_LIMIT][IP4ADDR_STRLEN_MAX];        // limited to 2!
 112:/home/baikal/workspace/C50/Huawei_IoT_Agent_Tiny_SDK_Linux//agent_tiny/lwm2m_client/object_connectivity_moni.c ****     char routerIpAddresses[IPADDRT_LIMIT][IP4ADDR_STRLEN_MAX];  // limited to 2!
 113:/home/baikal/workspace/C50/Huawei_IoT_Agent_Tiny_SDK_Linux//agent_tiny/lwm2m_client/object_connectivity_moni.c ****     long cellId;
 114:/home/baikal/workspace/C50/Huawei_IoT_Agent_Tiny_SDK_Linux//agent_tiny/lwm2m_client/object_connectivity_moni.c ****     int signalStrength;
 115:/home/baikal/workspace/C50/Huawei_IoT_Agent_Tiny_SDK_Linux//agent_tiny/lwm2m_client/object_connectivity_moni.c ****     int linkQuality;
 116:/home/baikal/workspace/C50/Huawei_IoT_Agent_Tiny_SDK_Linux//agent_tiny/lwm2m_client/object_connectivity_moni.c ****     int linkUtilization;
 117:/home/baikal/workspace/C50/Huawei_IoT_Agent_Tiny_SDK_Linux//agent_tiny/lwm2m_client/object_connectivity_moni.c **** } conn_m_data_t;
 118:/home/baikal/workspace/C50/Huawei_IoT_Agent_Tiny_SDK_Linux//agent_tiny/lwm2m_client/object_connectivity_moni.c **** 
 119:/home/baikal/workspace/C50/Huawei_IoT_Agent_Tiny_SDK_Linux//agent_tiny/lwm2m_client/object_connectivity_moni.c **** static uint8_t prv_set_value(lwm2m_data_t *dataP,
 120:/home/baikal/workspace/C50/Huawei_IoT_Agent_Tiny_SDK_Linux//agent_tiny/lwm2m_client/object_connectivity_moni.c ****                              conn_m_data_t *connDataP)
 121:/home/baikal/workspace/C50/Huawei_IoT_Agent_Tiny_SDK_Linux//agent_tiny/lwm2m_client/object_connectivity_moni.c **** {
  12              		.loc 1 121 0
  13              		.cfi_startproc
  14              	.LVL0:
 122:/home/baikal/workspace/C50/Huawei_IoT_Agent_Tiny_SDK_Linux//agent_tiny/lwm2m_client/object_connectivity_moni.c ****     switch (dataP->id)
  15              		.loc 1 122 0
  16 0000 0FB74704 		movzwl	4(%rdi), %eax
  17 0004 6683F80A 		cmpw	$10, %ax
  18 0008 0F878602 		ja	.L20
  18      0000
 121:/home/baikal/workspace/C50/Huawei_IoT_Agent_Tiny_SDK_Linux//agent_tiny/lwm2m_client/object_connectivity_moni.c ****     switch (dataP->id)
  19              		.loc 1 121 0
  20 000e 4155     		pushq	%r13
  21              	.LCFI0:
  22              		.cfi_def_cfa_offset 16
  23              		.cfi_offset 13, -16
  24 0010 4154     		pushq	%r12
  25              	.LCFI1:
  26              		.cfi_def_cfa_offset 24
  27              		.cfi_offset 12, -24
  28 0012 55       		pushq	%rbp
  29              	.LCFI2:
  30              		.cfi_def_cfa_offset 32
  31              		.cfi_offset 6, -32
  32 0013 53       		pushq	%rbx
  33              	.LCFI3:
  34              		.cfi_def_cfa_offset 40
  35              		.cfi_offset 3, -40
  36 0014 4883EC18 		subq	$24, %rsp
  37              	.LCFI4:
  38              		.cfi_def_cfa_offset 64
  39 0018 4889F5   		movq	%rsi, %rbp
  40 001b 4889FB   		movq	%rdi, %rbx
  41              		.loc 1 122 0
  42 001e 0FB7C0   		movzwl	%ax, %eax
  43 0021 FF24C500 		jmp	*.L4(,%rax,8)
  43      000000
  44              		.section	.rodata.prv_set_value,"a",@progbits
GAS LISTING /tmp/ccCHjPJP.s 			page 4


  45              		.align 8
  46              		.align 4
  47              	.L4:
  48 0000 00000000 		.quad	.L3
  48      00000000 
  49 0008 00000000 		.quad	.L5
  49      00000000 
  50 0010 00000000 		.quad	.L6
  50      00000000 
  51 0018 00000000 		.quad	.L7
  51      00000000 
  52 0020 00000000 		.quad	.L8
  52      00000000 
  53 0028 00000000 		.quad	.L9
  53      00000000 
  54 0030 00000000 		.quad	.L10
  54      00000000 
  55 0038 00000000 		.quad	.L11
  55      00000000 
  56 0040 00000000 		.quad	.L12
  56      00000000 
  57 0048 00000000 		.quad	.L13
  57      00000000 
  58 0050 00000000 		.quad	.L14
  58      00000000 
  59              		.section	.text.prv_set_value
  60              	.L3:
 123:/home/baikal/workspace/C50/Huawei_IoT_Agent_Tiny_SDK_Linux//agent_tiny/lwm2m_client/object_connectivity_moni.c ****     {
 124:/home/baikal/workspace/C50/Huawei_IoT_Agent_Tiny_SDK_Linux//agent_tiny/lwm2m_client/object_connectivity_moni.c ****     case RES_M_NETWORK_BEARER:
 125:/home/baikal/workspace/C50/Huawei_IoT_Agent_Tiny_SDK_Linux//agent_tiny/lwm2m_client/object_connectivity_moni.c ****         lwm2m_data_encode_int(VALUE_NETWORK_BEARER_GSM, dataP);
  61              		.loc 1 125 0
  62 0028 4889FE   		movq	%rdi, %rsi
  63              	.LVL1:
  64 002b BF000000 		movl	$0, %edi
  64      00
  65              	.LVL2:
  66 0030 E8000000 		call	lwm2m_data_encode_int
  66      00
  67              	.LVL3:
 126:/home/baikal/workspace/C50/Huawei_IoT_Agent_Tiny_SDK_Linux//agent_tiny/lwm2m_client/object_connectivity_moni.c ****         return COAP_205_CONTENT;
  68              		.loc 1 126 0
  69 0035 B8450000 		movl	$69, %eax
  69      00
  70 003a E96E0200 		jmp	.L2
  70      00
  71              	.LVL4:
  72              	.L5:
  73              	.LBB25:
 127:/home/baikal/workspace/C50/Huawei_IoT_Agent_Tiny_SDK_Linux//agent_tiny/lwm2m_client/object_connectivity_moni.c ****     case RES_M_AVL_NETWORK_BEARER:
 128:/home/baikal/workspace/C50/Huawei_IoT_Agent_Tiny_SDK_Linux//agent_tiny/lwm2m_client/object_connectivity_moni.c ****     {
 129:/home/baikal/workspace/C50/Huawei_IoT_Agent_Tiny_SDK_Linux//agent_tiny/lwm2m_client/object_connectivity_moni.c ****         int riCnt = 1;   // reduced to 1 instance to fit in one block size
 130:/home/baikal/workspace/C50/Huawei_IoT_Agent_Tiny_SDK_Linux//agent_tiny/lwm2m_client/object_connectivity_moni.c ****         lwm2m_data_t *subTlvP;
 131:/home/baikal/workspace/C50/Huawei_IoT_Agent_Tiny_SDK_Linux//agent_tiny/lwm2m_client/object_connectivity_moni.c ****         int networkbearer = 0;
  74              		.loc 1 131 0
  75 003f C744240C 		movl	$0, 12(%rsp)
  75      00000000 
 132:/home/baikal/workspace/C50/Huawei_IoT_Agent_Tiny_SDK_Linux//agent_tiny/lwm2m_client/object_connectivity_moni.c **** 
GAS LISTING /tmp/ccCHjPJP.s 			page 5


 133:/home/baikal/workspace/C50/Huawei_IoT_Agent_Tiny_SDK_Linux//agent_tiny/lwm2m_client/object_connectivity_moni.c ****         subTlvP = lwm2m_data_new(riCnt);
  76              		.loc 1 133 0
  77 0047 BF010000 		movl	$1, %edi
  77      00
  78 004c E8000000 		call	lwm2m_data_new
  78      00
  79              	.LVL5:
  80 0051 4889C5   		movq	%rax, %rbp
  81              	.LVL6:
 134:/home/baikal/workspace/C50/Huawei_IoT_Agent_Tiny_SDK_Linux//agent_tiny/lwm2m_client/object_connectivity_moni.c ****         if (subTlvP == NULL) return COAP_500_INTERNAL_SERVER_ERROR;
  82              		.loc 1 134 0
  83 0054 4885C0   		testq	%rax, %rax
  84 0057 7441     		je	.L21
 135:/home/baikal/workspace/C50/Huawei_IoT_Agent_Tiny_SDK_Linux//agent_tiny/lwm2m_client/object_connectivity_moni.c ****         subTlvP[0].id    = 0;
  85              		.loc 1 135 0
  86 0059 66C74004 		movw	$0, 4(%rax)
  86      0000
 136:/home/baikal/workspace/C50/Huawei_IoT_Agent_Tiny_SDK_Linux//agent_tiny/lwm2m_client/object_connectivity_moni.c ****         (void)atiny_cmd_ioctl(ATINY_GET_NETWORK_BEARER, (char *)&networkbearer, sizeof(int));
  87              		.loc 1 136 0
  88 005f BA040000 		movl	$4, %edx
  88      00
  89 0064 488D7424 		leaq	12(%rsp), %rsi
  89      0C
  90 0069 BF150000 		movl	$21, %edi
  90      00
  91 006e E8000000 		call	atiny_cmd_ioctl
  91      00
  92              	.LVL7:
 137:/home/baikal/workspace/C50/Huawei_IoT_Agent_Tiny_SDK_Linux//agent_tiny/lwm2m_client/object_connectivity_moni.c ****         lwm2m_data_encode_int(networkbearer, subTlvP);
  93              		.loc 1 137 0
  94 0073 48637C24 		movslq	12(%rsp), %rdi
  94      0C
  95 0078 4889EE   		movq	%rbp, %rsi
  96 007b E8000000 		call	lwm2m_data_encode_int
  96      00
  97              	.LVL8:
 138:/home/baikal/workspace/C50/Huawei_IoT_Agent_Tiny_SDK_Linux//agent_tiny/lwm2m_client/object_connectivity_moni.c ****         lwm2m_data_encode_instances(subTlvP, riCnt, dataP);
  98              		.loc 1 138 0
  99 0080 4889DA   		movq	%rbx, %rdx
 100 0083 BE010000 		movl	$1, %esi
 100      00
 101 0088 4889EF   		movq	%rbp, %rdi
 102 008b E8000000 		call	lwm2m_data_encode_instances
 102      00
 103              	.LVL9:
 139:/home/baikal/workspace/C50/Huawei_IoT_Agent_Tiny_SDK_Linux//agent_tiny/lwm2m_client/object_connectivity_moni.c ****         return COAP_205_CONTENT ;
 104              		.loc 1 139 0
 105 0090 B8450000 		movl	$69, %eax
 105      00
 106 0095 E9130200 		jmp	.L2
 106      00
 107              	.LVL10:
 108              	.L21:
 134:/home/baikal/workspace/C50/Huawei_IoT_Agent_Tiny_SDK_Linux//agent_tiny/lwm2m_client/object_connectivity_moni.c ****         subTlvP[0].id    = 0;
 109              		.loc 1 134 0
 110 009a B8A0FFFF 		movl	$-96, %eax
 110      FF
GAS LISTING /tmp/ccCHjPJP.s 			page 6


 111              	.LVL11:
 112 009f E9090200 		jmp	.L2
 112      00
 113              	.LVL12:
 114              	.L6:
 115              	.LBE25:
 116              	.LBB26:
 140:/home/baikal/workspace/C50/Huawei_IoT_Agent_Tiny_SDK_Linux//agent_tiny/lwm2m_client/object_connectivity_moni.c ****     }
 141:/home/baikal/workspace/C50/Huawei_IoT_Agent_Tiny_SDK_Linux//agent_tiny/lwm2m_client/object_connectivity_moni.c ****     case RES_M_RADIO_SIGNAL_STRENGTH: //s-int
 142:/home/baikal/workspace/C50/Huawei_IoT_Agent_Tiny_SDK_Linux//agent_tiny/lwm2m_client/object_connectivity_moni.c ****     {
 143:/home/baikal/workspace/C50/Huawei_IoT_Agent_Tiny_SDK_Linux//agent_tiny/lwm2m_client/object_connectivity_moni.c ****         int signalstrength = 0;
 117              		.loc 1 143 0
 118 00a4 C744240C 		movl	$0, 12(%rsp)
 118      00000000 
 144:/home/baikal/workspace/C50/Huawei_IoT_Agent_Tiny_SDK_Linux//agent_tiny/lwm2m_client/object_connectivity_moni.c ****         (void)atiny_cmd_ioctl(ATINY_GET_SIGNAL_STRENGTH, (char *)&signalstrength, sizeof(int));
 119              		.loc 1 144 0
 120 00ac BA040000 		movl	$4, %edx
 120      00
 121 00b1 488D7424 		leaq	12(%rsp), %rsi
 121      0C
 122              	.LVL13:
 123 00b6 BF160000 		movl	$22, %edi
 123      00
 124 00bb E8000000 		call	atiny_cmd_ioctl
 124      00
 125              	.LVL14:
 145:/home/baikal/workspace/C50/Huawei_IoT_Agent_Tiny_SDK_Linux//agent_tiny/lwm2m_client/object_connectivity_moni.c ****         lwm2m_data_encode_int(connDataP->signalStrength, dataP);
 126              		.loc 1 145 0
 127 00c0 48637D48 		movslq	72(%rbp), %rdi
 128 00c4 4889DE   		movq	%rbx, %rsi
 129 00c7 E8000000 		call	lwm2m_data_encode_int
 129      00
 130              	.LVL15:
 146:/home/baikal/workspace/C50/Huawei_IoT_Agent_Tiny_SDK_Linux//agent_tiny/lwm2m_client/object_connectivity_moni.c ****         return COAP_205_CONTENT;
 131              		.loc 1 146 0
 132 00cc B8450000 		movl	$69, %eax
 132      00
 133 00d1 E9D70100 		jmp	.L2
 133      00
 134              	.LVL16:
 135              	.L7:
 136              	.LBE26:
 137              	.LBB27:
 147:/home/baikal/workspace/C50/Huawei_IoT_Agent_Tiny_SDK_Linux//agent_tiny/lwm2m_client/object_connectivity_moni.c ****     }
 148:/home/baikal/workspace/C50/Huawei_IoT_Agent_Tiny_SDK_Linux//agent_tiny/lwm2m_client/object_connectivity_moni.c ****     case RES_O_LINK_QUALITY: //s-int
 149:/home/baikal/workspace/C50/Huawei_IoT_Agent_Tiny_SDK_Linux//agent_tiny/lwm2m_client/object_connectivity_moni.c ****     {
 150:/home/baikal/workspace/C50/Huawei_IoT_Agent_Tiny_SDK_Linux//agent_tiny/lwm2m_client/object_connectivity_moni.c ****         int linkQuality;
 151:/home/baikal/workspace/C50/Huawei_IoT_Agent_Tiny_SDK_Linux//agent_tiny/lwm2m_client/object_connectivity_moni.c ****         (void)atiny_cmd_ioctl(ATINY_GET_LINK_QUALITY, (char *)&linkQuality, sizeof(int));
 138              		.loc 1 151 0
 139 00d6 BA040000 		movl	$4, %edx
 139      00
 140 00db 488D7424 		leaq	12(%rsp), %rsi
 140      0C
 141              	.LVL17:
 142 00e0 BF180000 		movl	$24, %edi
 142      00
 143 00e5 E8000000 		call	atiny_cmd_ioctl
GAS LISTING /tmp/ccCHjPJP.s 			page 7


 143      00
 144              	.LVL18:
 152:/home/baikal/workspace/C50/Huawei_IoT_Agent_Tiny_SDK_Linux//agent_tiny/lwm2m_client/object_connectivity_moni.c ****         lwm2m_data_encode_int(linkQuality, dataP);
 145              		.loc 1 152 0
 146 00ea 48637C24 		movslq	12(%rsp), %rdi
 146      0C
 147 00ef 4889DE   		movq	%rbx, %rsi
 148 00f2 E8000000 		call	lwm2m_data_encode_int
 148      00
 149              	.LVL19:
 153:/home/baikal/workspace/C50/Huawei_IoT_Agent_Tiny_SDK_Linux//agent_tiny/lwm2m_client/object_connectivity_moni.c ****         return COAP_205_CONTENT ;
 150              		.loc 1 153 0
 151 00f7 B8450000 		movl	$69, %eax
 151      00
 152 00fc E9AC0100 		jmp	.L2
 152      00
 153              	.LVL20:
 154              	.L8:
 155              	.LBE27:
 156              	.LBB28:
 154:/home/baikal/workspace/C50/Huawei_IoT_Agent_Tiny_SDK_Linux//agent_tiny/lwm2m_client/object_connectivity_moni.c ****     }
 155:/home/baikal/workspace/C50/Huawei_IoT_Agent_Tiny_SDK_Linux//agent_tiny/lwm2m_client/object_connectivity_moni.c ****     case RES_M_IP_ADDRESSES:
 156:/home/baikal/workspace/C50/Huawei_IoT_Agent_Tiny_SDK_Linux//agent_tiny/lwm2m_client/object_connectivity_moni.c ****     {
 157:/home/baikal/workspace/C50/Huawei_IoT_Agent_Tiny_SDK_Linux//agent_tiny/lwm2m_client/object_connectivity_moni.c ****         int ri, riCnt = 1;   // reduced to 1 instance to fit in one block size
 158:/home/baikal/workspace/C50/Huawei_IoT_Agent_Tiny_SDK_Linux//agent_tiny/lwm2m_client/object_connectivity_moni.c ****         lwm2m_data_t *subTlvP = lwm2m_data_new(riCnt);
 157              		.loc 1 158 0
 158 0101 BF010000 		movl	$1, %edi
 158      00
 159 0106 E8000000 		call	lwm2m_data_new
 159      00
 160              	.LVL21:
 161 010b 4989C5   		movq	%rax, %r13
 162              	.LVL22:
 159:/home/baikal/workspace/C50/Huawei_IoT_Agent_Tiny_SDK_Linux//agent_tiny/lwm2m_client/object_connectivity_moni.c ****         if (subTlvP == NULL) return COAP_500_INTERNAL_SERVER_ERROR;
 163              		.loc 1 159 0
 164 010e 4885C0   		testq	%rax, %rax
 165 0111 0F848301 		je	.L22
 165      0000
 166 0117 41BC0000 		movl	$0, %r12d
 166      0000
 167 011d EB27     		jmp	.L16
 168              	.LVL23:
 169              	.L17:
 160:/home/baikal/workspace/C50/Huawei_IoT_Agent_Tiny_SDK_Linux//agent_tiny/lwm2m_client/object_connectivity_moni.c ****         for (ri = 0; ri < riCnt; ri++)
 161:/home/baikal/workspace/C50/Huawei_IoT_Agent_Tiny_SDK_Linux//agent_tiny/lwm2m_client/object_connectivity_moni.c ****         {
 162:/home/baikal/workspace/C50/Huawei_IoT_Agent_Tiny_SDK_Linux//agent_tiny/lwm2m_client/object_connectivity_moni.c ****             subTlvP[ri].id = ri;
 170              		.loc 1 162 0 discriminator 3
 171 011f 4963FC   		movslq	%r12d, %rdi
 172 0122 488D047F 		leaq	(%rdi,%rdi,2), %rax
 173 0126 488D34C5 		leaq	0(,%rax,8), %rsi
 173      00000000 
 174 012e 4C01EE   		addq	%r13, %rsi
 175 0131 66448966 		movw	%r12w, 4(%rsi)
 175      04
 163:/home/baikal/workspace/C50/Huawei_IoT_Agent_Tiny_SDK_Linux//agent_tiny/lwm2m_client/object_connectivity_moni.c ****             lwm2m_data_encode_string(connDataP->ipAddresses[ri], subTlvP + ri);
 176              		.loc 1 163 0 discriminator 3
 177 0136 48C1E704 		salq	$4, %rdi
GAS LISTING /tmp/ccCHjPJP.s 			page 8


 178 013a 4801EF   		addq	%rbp, %rdi
 179 013d E8000000 		call	lwm2m_data_encode_string
 179      00
 180              	.LVL24:
 160:/home/baikal/workspace/C50/Huawei_IoT_Agent_Tiny_SDK_Linux//agent_tiny/lwm2m_client/object_connectivity_moni.c ****         for (ri = 0; ri < riCnt; ri++)
 181              		.loc 1 160 0 discriminator 3
 182 0142 4183C401 		addl	$1, %r12d
 183              	.LVL25:
 184              	.L16:
 160:/home/baikal/workspace/C50/Huawei_IoT_Agent_Tiny_SDK_Linux//agent_tiny/lwm2m_client/object_connectivity_moni.c ****         for (ri = 0; ri < riCnt; ri++)
 185              		.loc 1 160 0 is_stmt 0 discriminator 1
 186 0146 4585E4   		testl	%r12d, %r12d
 187 0149 7ED4     		jle	.L17
 164:/home/baikal/workspace/C50/Huawei_IoT_Agent_Tiny_SDK_Linux//agent_tiny/lwm2m_client/object_connectivity_moni.c ****         }
 165:/home/baikal/workspace/C50/Huawei_IoT_Agent_Tiny_SDK_Linux//agent_tiny/lwm2m_client/object_connectivity_moni.c ****         lwm2m_data_encode_instances(subTlvP, riCnt, dataP);
 188              		.loc 1 165 0 is_stmt 1
 189 014b 4889DA   		movq	%rbx, %rdx
 190 014e BE010000 		movl	$1, %esi
 190      00
 191 0153 4C89EF   		movq	%r13, %rdi
 192 0156 E8000000 		call	lwm2m_data_encode_instances
 192      00
 193              	.LVL26:
 166:/home/baikal/workspace/C50/Huawei_IoT_Agent_Tiny_SDK_Linux//agent_tiny/lwm2m_client/object_connectivity_moni.c ****         return COAP_205_CONTENT ;
 194              		.loc 1 166 0
 195 015b B8450000 		movl	$69, %eax
 195      00
 196 0160 E9480100 		jmp	.L2
 196      00
 197              	.LVL27:
 198              	.L9:
 199              	.LBE28:
 200              	.LBB29:
 167:/home/baikal/workspace/C50/Huawei_IoT_Agent_Tiny_SDK_Linux//agent_tiny/lwm2m_client/object_connectivity_moni.c ****     }
 168:/home/baikal/workspace/C50/Huawei_IoT_Agent_Tiny_SDK_Linux//agent_tiny/lwm2m_client/object_connectivity_moni.c ****     case RES_O_ROUTER_IP_ADDRESS:
 169:/home/baikal/workspace/C50/Huawei_IoT_Agent_Tiny_SDK_Linux//agent_tiny/lwm2m_client/object_connectivity_moni.c ****     {
 170:/home/baikal/workspace/C50/Huawei_IoT_Agent_Tiny_SDK_Linux//agent_tiny/lwm2m_client/object_connectivity_moni.c ****         int ri, riCnt = 1;   // reduced to 1 instance to fit in one block size
 171:/home/baikal/workspace/C50/Huawei_IoT_Agent_Tiny_SDK_Linux//agent_tiny/lwm2m_client/object_connectivity_moni.c ****         lwm2m_data_t *subTlvP = lwm2m_data_new(riCnt);
 201              		.loc 1 171 0
 202 0165 BF010000 		movl	$1, %edi
 202      00
 203 016a E8000000 		call	lwm2m_data_new
 203      00
 204              	.LVL28:
 205 016f 4989C5   		movq	%rax, %r13
 206              	.LVL29:
 172:/home/baikal/workspace/C50/Huawei_IoT_Agent_Tiny_SDK_Linux//agent_tiny/lwm2m_client/object_connectivity_moni.c ****         if (subTlvP == NULL) return COAP_500_INTERNAL_SERVER_ERROR;
 207              		.loc 1 172 0
 208 0172 4885C0   		testq	%rax, %rax
 209 0175 0F842601 		je	.L23
 209      0000
 210 017b 41BC0000 		movl	$0, %r12d
 210      0000
 211 0181 EB30     		jmp	.L18
 212              	.LVL30:
 213              	.L19:
 173:/home/baikal/workspace/C50/Huawei_IoT_Agent_Tiny_SDK_Linux//agent_tiny/lwm2m_client/object_connectivity_moni.c ****         for (ri = 0; ri < riCnt; ri++)
GAS LISTING /tmp/ccCHjPJP.s 			page 9


 174:/home/baikal/workspace/C50/Huawei_IoT_Agent_Tiny_SDK_Linux//agent_tiny/lwm2m_client/object_connectivity_moni.c ****         {
 175:/home/baikal/workspace/C50/Huawei_IoT_Agent_Tiny_SDK_Linux//agent_tiny/lwm2m_client/object_connectivity_moni.c ****             subTlvP[ri].id = ri;
 214              		.loc 1 175 0 discriminator 3
 215 0183 4963C4   		movslq	%r12d, %rax
 216 0186 488D1440 		leaq	(%rax,%rax,2), %rdx
 217 018a 488D34D5 		leaq	0(,%rdx,8), %rsi
 217      00000000 
 218 0192 4C01EE   		addq	%r13, %rsi
 219 0195 66448966 		movw	%r12w, 4(%rsi)
 219      04
 176:/home/baikal/workspace/C50/Huawei_IoT_Agent_Tiny_SDK_Linux//agent_tiny/lwm2m_client/object_connectivity_moni.c ****             lwm2m_data_encode_string(connDataP->routerIpAddresses[ri], subTlvP + ri);
 220              		.loc 1 176 0 discriminator 3
 221 019a 488D7802 		leaq	2(%rax), %rdi
 222 019e 4889F8   		movq	%rdi, %rax
 223 01a1 48C1E004 		salq	$4, %rax
 224 01a5 488D7C05 		leaq	0(%rbp,%rax), %rdi
 224      00
 225 01aa E8000000 		call	lwm2m_data_encode_string
 225      00
 226              	.LVL31:
 173:/home/baikal/workspace/C50/Huawei_IoT_Agent_Tiny_SDK_Linux//agent_tiny/lwm2m_client/object_connectivity_moni.c ****         for (ri = 0; ri < riCnt; ri++)
 227              		.loc 1 173 0 discriminator 3
 228 01af 4183C401 		addl	$1, %r12d
 229              	.LVL32:
 230              	.L18:
 173:/home/baikal/workspace/C50/Huawei_IoT_Agent_Tiny_SDK_Linux//agent_tiny/lwm2m_client/object_connectivity_moni.c ****         for (ri = 0; ri < riCnt; ri++)
 231              		.loc 1 173 0 is_stmt 0 discriminator 1
 232 01b3 4585E4   		testl	%r12d, %r12d
 233 01b6 7ECB     		jle	.L19
 177:/home/baikal/workspace/C50/Huawei_IoT_Agent_Tiny_SDK_Linux//agent_tiny/lwm2m_client/object_connectivity_moni.c ****         }
 178:/home/baikal/workspace/C50/Huawei_IoT_Agent_Tiny_SDK_Linux//agent_tiny/lwm2m_client/object_connectivity_moni.c ****         lwm2m_data_encode_instances(subTlvP, riCnt, dataP);
 234              		.loc 1 178 0 is_stmt 1
 235 01b8 4889DA   		movq	%rbx, %rdx
 236 01bb BE010000 		movl	$1, %esi
 236      00
 237 01c0 4C89EF   		movq	%r13, %rdi
 238 01c3 E8000000 		call	lwm2m_data_encode_instances
 238      00
 239              	.LVL33:
 179:/home/baikal/workspace/C50/Huawei_IoT_Agent_Tiny_SDK_Linux//agent_tiny/lwm2m_client/object_connectivity_moni.c ****         return COAP_205_CONTENT ;
 240              		.loc 1 179 0
 241 01c8 B8450000 		movl	$69, %eax
 241      00
 242 01cd E9DB0000 		jmp	.L2
 242      00
 243              	.LVL34:
 244              	.L10:
 245              	.LBE29:
 246              	.LBB30:
 180:/home/baikal/workspace/C50/Huawei_IoT_Agent_Tiny_SDK_Linux//agent_tiny/lwm2m_client/object_connectivity_moni.c ****     }
 181:/home/baikal/workspace/C50/Huawei_IoT_Agent_Tiny_SDK_Linux//agent_tiny/lwm2m_client/object_connectivity_moni.c ****     case RES_O_LINK_UTILIZATION:
 182:/home/baikal/workspace/C50/Huawei_IoT_Agent_Tiny_SDK_Linux//agent_tiny/lwm2m_client/object_connectivity_moni.c ****     {
 183:/home/baikal/workspace/C50/Huawei_IoT_Agent_Tiny_SDK_Linux//agent_tiny/lwm2m_client/object_connectivity_moni.c ****         int linkUtilization;
 184:/home/baikal/workspace/C50/Huawei_IoT_Agent_Tiny_SDK_Linux//agent_tiny/lwm2m_client/object_connectivity_moni.c ****         (void)atiny_cmd_ioctl(ATINY_GET_LINK_UTILIZATION, (char *)&linkUtilization, sizeof(int));
 247              		.loc 1 184 0
 248 01d2 BA040000 		movl	$4, %edx
 248      00
GAS LISTING /tmp/ccCHjPJP.s 			page 10


 249 01d7 488D7424 		leaq	12(%rsp), %rsi
 249      0C
 250              	.LVL35:
 251 01dc BF190000 		movl	$25, %edi
 251      00
 252 01e1 E8000000 		call	atiny_cmd_ioctl
 252      00
 253              	.LVL36:
 185:/home/baikal/workspace/C50/Huawei_IoT_Agent_Tiny_SDK_Linux//agent_tiny/lwm2m_client/object_connectivity_moni.c ****         lwm2m_data_encode_int(connDataP->linkUtilization, dataP);
 254              		.loc 1 185 0
 255 01e6 48637D50 		movslq	80(%rbp), %rdi
 256 01ea 4889DE   		movq	%rbx, %rsi
 257 01ed E8000000 		call	lwm2m_data_encode_int
 257      00
 258              	.LVL37:
 186:/home/baikal/workspace/C50/Huawei_IoT_Agent_Tiny_SDK_Linux//agent_tiny/lwm2m_client/object_connectivity_moni.c ****         return COAP_205_CONTENT;
 259              		.loc 1 186 0
 260 01f2 B8450000 		movl	$69, %eax
 260      00
 261 01f7 E9B10000 		jmp	.L2
 261      00
 262              	.LVL38:
 263              	.L11:
 264              	.LBE30:
 265              	.LBB31:
 187:/home/baikal/workspace/C50/Huawei_IoT_Agent_Tiny_SDK_Linux//agent_tiny/lwm2m_client/object_connectivity_moni.c ****     }
 188:/home/baikal/workspace/C50/Huawei_IoT_Agent_Tiny_SDK_Linux//agent_tiny/lwm2m_client/object_connectivity_moni.c ****     case RES_O_APN:
 189:/home/baikal/workspace/C50/Huawei_IoT_Agent_Tiny_SDK_Linux//agent_tiny/lwm2m_client/object_connectivity_moni.c ****     {
 190:/home/baikal/workspace/C50/Huawei_IoT_Agent_Tiny_SDK_Linux//agent_tiny/lwm2m_client/object_connectivity_moni.c ****         int riCnt = 1;   // reduced to 1 instance to fit in one block size
 191:/home/baikal/workspace/C50/Huawei_IoT_Agent_Tiny_SDK_Linux//agent_tiny/lwm2m_client/object_connectivity_moni.c ****         lwm2m_data_t *subTlvP;
 192:/home/baikal/workspace/C50/Huawei_IoT_Agent_Tiny_SDK_Linux//agent_tiny/lwm2m_client/object_connectivity_moni.c ****         subTlvP = lwm2m_data_new(riCnt);
 266              		.loc 1 192 0
 267 01fc BF010000 		movl	$1, %edi
 267      00
 268 0201 E8000000 		call	lwm2m_data_new
 268      00
 269              	.LVL39:
 270 0206 4889C5   		movq	%rax, %rbp
 271              	.LVL40:
 193:/home/baikal/workspace/C50/Huawei_IoT_Agent_Tiny_SDK_Linux//agent_tiny/lwm2m_client/object_connectivity_moni.c ****         if (subTlvP == NULL) return COAP_500_INTERNAL_SERVER_ERROR;
 272              		.loc 1 193 0
 273 0209 4885C0   		testq	%rax, %rax
 274 020c 0F849600 		je	.L24
 274      0000
 194:/home/baikal/workspace/C50/Huawei_IoT_Agent_Tiny_SDK_Linux//agent_tiny/lwm2m_client/object_connectivity_moni.c ****         subTlvP[0].id     = 0;
 275              		.loc 1 194 0
 276 0212 66C74004 		movw	$0, 4(%rax)
 276      0000
 195:/home/baikal/workspace/C50/Huawei_IoT_Agent_Tiny_SDK_Linux//agent_tiny/lwm2m_client/object_connectivity_moni.c ****         lwm2m_data_encode_string(VALUE_APN_1, subTlvP);
 277              		.loc 1 195 0
 278 0218 4889C6   		movq	%rax, %rsi
 279 021b BF000000 		movl	$.LC0, %edi
 279      00
 280 0220 E8000000 		call	lwm2m_data_encode_string
 280      00
 281              	.LVL41:
 196:/home/baikal/workspace/C50/Huawei_IoT_Agent_Tiny_SDK_Linux//agent_tiny/lwm2m_client/object_connectivity_moni.c ****         lwm2m_data_encode_instances(subTlvP, riCnt, dataP);
GAS LISTING /tmp/ccCHjPJP.s 			page 11


 282              		.loc 1 196 0
 283 0225 4889DA   		movq	%rbx, %rdx
 284 0228 BE010000 		movl	$1, %esi
 284      00
 285 022d 4889EF   		movq	%rbp, %rdi
 286 0230 E8000000 		call	lwm2m_data_encode_instances
 286      00
 287              	.LVL42:
 197:/home/baikal/workspace/C50/Huawei_IoT_Agent_Tiny_SDK_Linux//agent_tiny/lwm2m_client/object_connectivity_moni.c ****         return COAP_205_CONTENT;
 288              		.loc 1 197 0
 289 0235 B8450000 		movl	$69, %eax
 289      00
 290 023a EB71     		jmp	.L2
 291              	.LVL43:
 292              	.L12:
 293              	.LBE31:
 294              	.LBB32:
 198:/home/baikal/workspace/C50/Huawei_IoT_Agent_Tiny_SDK_Linux//agent_tiny/lwm2m_client/object_connectivity_moni.c ****     }
 199:/home/baikal/workspace/C50/Huawei_IoT_Agent_Tiny_SDK_Linux//agent_tiny/lwm2m_client/object_connectivity_moni.c ****     case RES_O_CELL_ID:
 200:/home/baikal/workspace/C50/Huawei_IoT_Agent_Tiny_SDK_Linux//agent_tiny/lwm2m_client/object_connectivity_moni.c ****     {
 201:/home/baikal/workspace/C50/Huawei_IoT_Agent_Tiny_SDK_Linux//agent_tiny/lwm2m_client/object_connectivity_moni.c ****         int cellId = 0;
 295              		.loc 1 201 0
 296 023c C744240C 		movl	$0, 12(%rsp)
 296      00000000 
 202:/home/baikal/workspace/C50/Huawei_IoT_Agent_Tiny_SDK_Linux//agent_tiny/lwm2m_client/object_connectivity_moni.c ****         (void)atiny_cmd_ioctl(ATINY_GET_CELL_ID, (char *)&cellId, sizeof(int));
 297              		.loc 1 202 0
 298 0244 BA040000 		movl	$4, %edx
 298      00
 299 0249 488D7424 		leaq	12(%rsp), %rsi
 299      0C
 300              	.LVL44:
 301 024e BF170000 		movl	$23, %edi
 301      00
 302 0253 E8000000 		call	atiny_cmd_ioctl
 302      00
 303              	.LVL45:
 203:/home/baikal/workspace/C50/Huawei_IoT_Agent_Tiny_SDK_Linux//agent_tiny/lwm2m_client/object_connectivity_moni.c ****         lwm2m_data_encode_int(cellId, dataP);
 304              		.loc 1 203 0
 305 0258 48637C24 		movslq	12(%rsp), %rdi
 305      0C
 306 025d 4889DE   		movq	%rbx, %rsi
 307 0260 E8000000 		call	lwm2m_data_encode_int
 307      00
 308              	.LVL46:
 204:/home/baikal/workspace/C50/Huawei_IoT_Agent_Tiny_SDK_Linux//agent_tiny/lwm2m_client/object_connectivity_moni.c ****         return COAP_205_CONTENT ;
 309              		.loc 1 204 0
 310 0265 B8450000 		movl	$69, %eax
 310      00
 311 026a EB41     		jmp	.L2
 312              	.LVL47:
 313              	.L13:
 314              	.LBE32:
 205:/home/baikal/workspace/C50/Huawei_IoT_Agent_Tiny_SDK_Linux//agent_tiny/lwm2m_client/object_connectivity_moni.c ****     }
 206:/home/baikal/workspace/C50/Huawei_IoT_Agent_Tiny_SDK_Linux//agent_tiny/lwm2m_client/object_connectivity_moni.c **** 
 207:/home/baikal/workspace/C50/Huawei_IoT_Agent_Tiny_SDK_Linux//agent_tiny/lwm2m_client/object_connectivity_moni.c ****     case RES_O_SMNC:
 208:/home/baikal/workspace/C50/Huawei_IoT_Agent_Tiny_SDK_Linux//agent_tiny/lwm2m_client/object_connectivity_moni.c ****         lwm2m_data_encode_int(VALUE_SMNC, dataP);
 315              		.loc 1 208 0
GAS LISTING /tmp/ccCHjPJP.s 			page 12


 316 026c 4889FE   		movq	%rdi, %rsi
 317              	.LVL48:
 318 026f BF210000 		movl	$33, %edi
 318      00
 319 0274 E8000000 		call	lwm2m_data_encode_int
 319      00
 320              	.LVL49:
 209:/home/baikal/workspace/C50/Huawei_IoT_Agent_Tiny_SDK_Linux//agent_tiny/lwm2m_client/object_connectivity_moni.c ****         return COAP_205_CONTENT ;
 321              		.loc 1 209 0
 322 0279 B8450000 		movl	$69, %eax
 322      00
 323 027e EB2D     		jmp	.L2
 324              	.LVL50:
 325              	.L14:
 210:/home/baikal/workspace/C50/Huawei_IoT_Agent_Tiny_SDK_Linux//agent_tiny/lwm2m_client/object_connectivity_moni.c **** 
 211:/home/baikal/workspace/C50/Huawei_IoT_Agent_Tiny_SDK_Linux//agent_tiny/lwm2m_client/object_connectivity_moni.c ****     case RES_O_SMCC:
 212:/home/baikal/workspace/C50/Huawei_IoT_Agent_Tiny_SDK_Linux//agent_tiny/lwm2m_client/object_connectivity_moni.c ****         lwm2m_data_encode_int(VALUE_SMCC, dataP);
 326              		.loc 1 212 0
 327 0280 4889FE   		movq	%rdi, %rsi
 328              	.LVL51:
 329 0283 BF2C0000 		movl	$44, %edi
 329      00
 330 0288 E8000000 		call	lwm2m_data_encode_int
 330      00
 331              	.LVL52:
 213:/home/baikal/workspace/C50/Huawei_IoT_Agent_Tiny_SDK_Linux//agent_tiny/lwm2m_client/object_connectivity_moni.c ****         return COAP_205_CONTENT ;
 332              		.loc 1 213 0
 333 028d B8450000 		movl	$69, %eax
 333      00
 334 0292 EB19     		jmp	.L2
 335              	.LVL53:
 336              	.L20:
 337              	.LCFI5:
 338              		.cfi_def_cfa_offset 8
 339              		.cfi_restore 3
 340              		.cfi_restore 6
 341              		.cfi_restore 12
 342              		.cfi_restore 13
 214:/home/baikal/workspace/C50/Huawei_IoT_Agent_Tiny_SDK_Linux//agent_tiny/lwm2m_client/object_connectivity_moni.c **** 
 215:/home/baikal/workspace/C50/Huawei_IoT_Agent_Tiny_SDK_Linux//agent_tiny/lwm2m_client/object_connectivity_moni.c ****     default:
 216:/home/baikal/workspace/C50/Huawei_IoT_Agent_Tiny_SDK_Linux//agent_tiny/lwm2m_client/object_connectivity_moni.c ****         return COAP_404_NOT_FOUND ;
 343              		.loc 1 216 0
 344 0294 B884FFFF 		movl	$-124, %eax
 344      FF
 217:/home/baikal/workspace/C50/Huawei_IoT_Agent_Tiny_SDK_Linux//agent_tiny/lwm2m_client/object_connectivity_moni.c ****     }
 218:/home/baikal/workspace/C50/Huawei_IoT_Agent_Tiny_SDK_Linux//agent_tiny/lwm2m_client/object_connectivity_moni.c **** }
 345              		.loc 1 218 0
 346 0299 C3       		ret
 347              	.LVL54:
 348              	.L22:
 349              	.LCFI6:
 350              		.cfi_def_cfa_offset 64
 351              		.cfi_offset 3, -40
 352              		.cfi_offset 6, -32
 353              		.cfi_offset 12, -24
 354              		.cfi_offset 13, -16
 355              	.LBB33:
GAS LISTING /tmp/ccCHjPJP.s 			page 13


 159:/home/baikal/workspace/C50/Huawei_IoT_Agent_Tiny_SDK_Linux//agent_tiny/lwm2m_client/object_connectivity_moni.c ****         for (ri = 0; ri < riCnt; ri++)
 356              		.loc 1 159 0
 357 029a B8A0FFFF 		movl	$-96, %eax
 357      FF
 358              	.LVL55:
 359 029f EB0C     		jmp	.L2
 360              	.LVL56:
 361              	.L23:
 362              	.LBE33:
 363              	.LBB34:
 172:/home/baikal/workspace/C50/Huawei_IoT_Agent_Tiny_SDK_Linux//agent_tiny/lwm2m_client/object_connectivity_moni.c ****         for (ri = 0; ri < riCnt; ri++)
 364              		.loc 1 172 0
 365 02a1 B8A0FFFF 		movl	$-96, %eax
 365      FF
 366              	.LVL57:
 367 02a6 EB05     		jmp	.L2
 368              	.LVL58:
 369              	.L24:
 370              	.LBE34:
 371              	.LBB35:
 193:/home/baikal/workspace/C50/Huawei_IoT_Agent_Tiny_SDK_Linux//agent_tiny/lwm2m_client/object_connectivity_moni.c ****         subTlvP[0].id     = 0;
 372              		.loc 1 193 0
 373 02a8 B8A0FFFF 		movl	$-96, %eax
 373      FF
 374              	.LVL59:
 375              	.L2:
 376              	.LBE35:
 377              		.loc 1 218 0 discriminator 1
 378 02ad 4883C418 		addq	$24, %rsp
 379              	.LCFI7:
 380              		.cfi_def_cfa_offset 40
 381 02b1 5B       		popq	%rbx
 382              	.LCFI8:
 383              		.cfi_restore 3
 384              		.cfi_def_cfa_offset 32
 385              	.LVL60:
 386 02b2 5D       		popq	%rbp
 387              	.LCFI9:
 388              		.cfi_restore 6
 389              		.cfi_def_cfa_offset 24
 390 02b3 415C     		popq	%r12
 391              	.LCFI10:
 392              		.cfi_restore 12
 393              		.cfi_def_cfa_offset 16
 394 02b5 415D     		popq	%r13
 395              	.LCFI11:
 396              		.cfi_restore 13
 397              		.cfi_def_cfa_offset 8
 398 02b7 C3       		ret
 399              		.cfi_endproc
 400              	.LFE63:
 402              		.section	.text.prv_read,"ax",@progbits
 404              	prv_read:
 405              	.LFB64:
 219:/home/baikal/workspace/C50/Huawei_IoT_Agent_Tiny_SDK_Linux//agent_tiny/lwm2m_client/object_connectivity_moni.c **** 
 220:/home/baikal/workspace/C50/Huawei_IoT_Agent_Tiny_SDK_Linux//agent_tiny/lwm2m_client/object_connectivity_moni.c **** static uint8_t prv_read(uint16_t instanceId,
 221:/home/baikal/workspace/C50/Huawei_IoT_Agent_Tiny_SDK_Linux//agent_tiny/lwm2m_client/object_connectivity_moni.c ****                         int *numDataP,
GAS LISTING /tmp/ccCHjPJP.s 			page 14


 222:/home/baikal/workspace/C50/Huawei_IoT_Agent_Tiny_SDK_Linux//agent_tiny/lwm2m_client/object_connectivity_moni.c ****                         lwm2m_data_t **dataArrayP,
 223:/home/baikal/workspace/C50/Huawei_IoT_Agent_Tiny_SDK_Linux//agent_tiny/lwm2m_client/object_connectivity_moni.c ****                         lwm2m_data_cfg_t *dataCfg,
 224:/home/baikal/workspace/C50/Huawei_IoT_Agent_Tiny_SDK_Linux//agent_tiny/lwm2m_client/object_connectivity_moni.c ****                         lwm2m_object_t *objectP)
 225:/home/baikal/workspace/C50/Huawei_IoT_Agent_Tiny_SDK_Linux//agent_tiny/lwm2m_client/object_connectivity_moni.c **** {
 406              		.loc 1 225 0
 407              		.cfi_startproc
 408              	.LVL61:
 226:/home/baikal/workspace/C50/Huawei_IoT_Agent_Tiny_SDK_Linux//agent_tiny/lwm2m_client/object_connectivity_moni.c ****     uint8_t result;
 227:/home/baikal/workspace/C50/Huawei_IoT_Agent_Tiny_SDK_Linux//agent_tiny/lwm2m_client/object_connectivity_moni.c ****     int i;
 228:/home/baikal/workspace/C50/Huawei_IoT_Agent_Tiny_SDK_Linux//agent_tiny/lwm2m_client/object_connectivity_moni.c **** 
 229:/home/baikal/workspace/C50/Huawei_IoT_Agent_Tiny_SDK_Linux//agent_tiny/lwm2m_client/object_connectivity_moni.c ****     // this is a single instance object
 230:/home/baikal/workspace/C50/Huawei_IoT_Agent_Tiny_SDK_Linux//agent_tiny/lwm2m_client/object_connectivity_moni.c ****     if (instanceId != 0)
 409              		.loc 1 230 0
 410 0000 6685FF   		testw	%di, %di
 411 0003 0F85E400 		jne	.L33
 411      0000
 225:/home/baikal/workspace/C50/Huawei_IoT_Agent_Tiny_SDK_Linux//agent_tiny/lwm2m_client/object_connectivity_moni.c ****     uint8_t result;
 412              		.loc 1 225 0
 413 0009 4155     		pushq	%r13
 414              	.LCFI12:
 415              		.cfi_def_cfa_offset 16
 416              		.cfi_offset 13, -16
 417 000b 4154     		pushq	%r12
 418              	.LCFI13:
 419              		.cfi_def_cfa_offset 24
 420              		.cfi_offset 12, -24
 421 000d 55       		pushq	%rbp
 422              	.LCFI14:
 423              		.cfi_def_cfa_offset 32
 424              		.cfi_offset 6, -32
 425 000e 53       		pushq	%rbx
 426              	.LCFI15:
 427              		.cfi_def_cfa_offset 40
 428              		.cfi_offset 3, -40
 429 000f 4883EC28 		subq	$40, %rsp
 430              	.LCFI16:
 431              		.cfi_def_cfa_offset 80
 432 0013 4D89C5   		movq	%r8, %r13
 433 0016 4889D5   		movq	%rdx, %rbp
 434 0019 4989F4   		movq	%rsi, %r12
 231:/home/baikal/workspace/C50/Huawei_IoT_Agent_Tiny_SDK_Linux//agent_tiny/lwm2m_client/object_connectivity_moni.c ****     {
 232:/home/baikal/workspace/C50/Huawei_IoT_Agent_Tiny_SDK_Linux//agent_tiny/lwm2m_client/object_connectivity_moni.c ****         return COAP_404_NOT_FOUND ;
 233:/home/baikal/workspace/C50/Huawei_IoT_Agent_Tiny_SDK_Linux//agent_tiny/lwm2m_client/object_connectivity_moni.c ****     }
 234:/home/baikal/workspace/C50/Huawei_IoT_Agent_Tiny_SDK_Linux//agent_tiny/lwm2m_client/object_connectivity_moni.c **** 
 235:/home/baikal/workspace/C50/Huawei_IoT_Agent_Tiny_SDK_Linux//agent_tiny/lwm2m_client/object_connectivity_moni.c ****     // is the server asking for the full object ?
 236:/home/baikal/workspace/C50/Huawei_IoT_Agent_Tiny_SDK_Linux//agent_tiny/lwm2m_client/object_connectivity_moni.c ****     if (*numDataP == 0)
 435              		.loc 1 236 0
 436 001c 833E00   		cmpl	$0, (%rsi)
 437 001f 0F859800 		jne	.L28
 437      0000
 438              	.LBB36:
 237:/home/baikal/workspace/C50/Huawei_IoT_Agent_Tiny_SDK_Linux//agent_tiny/lwm2m_client/object_connectivity_moni.c ****     {
 238:/home/baikal/workspace/C50/Huawei_IoT_Agent_Tiny_SDK_Linux//agent_tiny/lwm2m_client/object_connectivity_moni.c ****         uint16_t resList[] =
 439              		.loc 1 238 0
 440 0025 66C70424 		movw	$0, (%rsp)
 440      0000
 441 002b 66C74424 		movw	$1, 2(%rsp)
GAS LISTING /tmp/ccCHjPJP.s 			page 15


 441      020100
 442 0032 66C74424 		movw	$2, 4(%rsp)
 442      040200
 443 0039 66C74424 		movw	$3, 6(%rsp)
 443      060300
 444 0040 66C74424 		movw	$4, 8(%rsp)
 444      080400
 445 0047 66C74424 		movw	$5, 10(%rsp)
 445      0A0500
 446 004e 66C74424 		movw	$6, 12(%rsp)
 446      0C0600
 447 0055 66C74424 		movw	$7, 14(%rsp)
 447      0E0700
 448 005c 66C74424 		movw	$8, 16(%rsp)
 448      100800
 449 0063 66C74424 		movw	$9, 18(%rsp)
 449      120900
 450 006a 66C74424 		movw	$10, 20(%rsp)
 450      140A00
 451              	.LVL62:
 239:/home/baikal/workspace/C50/Huawei_IoT_Agent_Tiny_SDK_Linux//agent_tiny/lwm2m_client/object_connectivity_moni.c ****         {
 240:/home/baikal/workspace/C50/Huawei_IoT_Agent_Tiny_SDK_Linux//agent_tiny/lwm2m_client/object_connectivity_moni.c ****             RES_M_NETWORK_BEARER,
 241:/home/baikal/workspace/C50/Huawei_IoT_Agent_Tiny_SDK_Linux//agent_tiny/lwm2m_client/object_connectivity_moni.c ****             RES_M_AVL_NETWORK_BEARER,
 242:/home/baikal/workspace/C50/Huawei_IoT_Agent_Tiny_SDK_Linux//agent_tiny/lwm2m_client/object_connectivity_moni.c ****             RES_M_RADIO_SIGNAL_STRENGTH,
 243:/home/baikal/workspace/C50/Huawei_IoT_Agent_Tiny_SDK_Linux//agent_tiny/lwm2m_client/object_connectivity_moni.c ****             RES_O_LINK_QUALITY,
 244:/home/baikal/workspace/C50/Huawei_IoT_Agent_Tiny_SDK_Linux//agent_tiny/lwm2m_client/object_connectivity_moni.c ****             RES_M_IP_ADDRESSES,
 245:/home/baikal/workspace/C50/Huawei_IoT_Agent_Tiny_SDK_Linux//agent_tiny/lwm2m_client/object_connectivity_moni.c ****             RES_O_ROUTER_IP_ADDRESS,
 246:/home/baikal/workspace/C50/Huawei_IoT_Agent_Tiny_SDK_Linux//agent_tiny/lwm2m_client/object_connectivity_moni.c ****             RES_O_LINK_UTILIZATION,
 247:/home/baikal/workspace/C50/Huawei_IoT_Agent_Tiny_SDK_Linux//agent_tiny/lwm2m_client/object_connectivity_moni.c ****             RES_O_APN,
 248:/home/baikal/workspace/C50/Huawei_IoT_Agent_Tiny_SDK_Linux//agent_tiny/lwm2m_client/object_connectivity_moni.c ****             RES_O_CELL_ID,
 249:/home/baikal/workspace/C50/Huawei_IoT_Agent_Tiny_SDK_Linux//agent_tiny/lwm2m_client/object_connectivity_moni.c ****             RES_O_SMNC,
 250:/home/baikal/workspace/C50/Huawei_IoT_Agent_Tiny_SDK_Linux//agent_tiny/lwm2m_client/object_connectivity_moni.c ****             RES_O_SMCC
 251:/home/baikal/workspace/C50/Huawei_IoT_Agent_Tiny_SDK_Linux//agent_tiny/lwm2m_client/object_connectivity_moni.c ****         };
 252:/home/baikal/workspace/C50/Huawei_IoT_Agent_Tiny_SDK_Linux//agent_tiny/lwm2m_client/object_connectivity_moni.c ****         int nbRes = sizeof(resList) / sizeof(uint16_t);
 253:/home/baikal/workspace/C50/Huawei_IoT_Agent_Tiny_SDK_Linux//agent_tiny/lwm2m_client/object_connectivity_moni.c **** 
 254:/home/baikal/workspace/C50/Huawei_IoT_Agent_Tiny_SDK_Linux//agent_tiny/lwm2m_client/object_connectivity_moni.c ****         *dataArrayP = lwm2m_data_new(nbRes);
 452              		.loc 1 254 0
 453 0071 BF0B0000 		movl	$11, %edi
 453      00
 454              	.LVL63:
 455 0076 E8000000 		call	lwm2m_data_new
 455      00
 456              	.LVL64:
 457 007b 48894500 		movq	%rax, 0(%rbp)
 255:/home/baikal/workspace/C50/Huawei_IoT_Agent_Tiny_SDK_Linux//agent_tiny/lwm2m_client/object_connectivity_moni.c ****         if (*dataArrayP == NULL)
 458              		.loc 1 255 0
 459 007f 4885C0   		testq	%rax, %rax
 460 0082 7507     		jne	.L29
 256:/home/baikal/workspace/C50/Huawei_IoT_Agent_Tiny_SDK_Linux//agent_tiny/lwm2m_client/object_connectivity_moni.c ****             return COAP_500_INTERNAL_SERVER_ERROR ;
 461              		.loc 1 256 0
 462 0084 B8A0FFFF 		movl	$-96, %eax
 462      FF
 463 0089 EB68     		jmp	.L27
 464              	.L29:
 257:/home/baikal/workspace/C50/Huawei_IoT_Agent_Tiny_SDK_Linux//agent_tiny/lwm2m_client/object_connectivity_moni.c ****         *numDataP = nbRes;
 465              		.loc 1 257 0
 466 008b 41C70424 		movl	$11, (%r12)
GAS LISTING /tmp/ccCHjPJP.s 			page 16


 466      0B000000 
 467              	.LVL65:
 258:/home/baikal/workspace/C50/Huawei_IoT_Agent_Tiny_SDK_Linux//agent_tiny/lwm2m_client/object_connectivity_moni.c ****         for (i = 0; i < nbRes; i++)
 468              		.loc 1 258 0
 469 0093 BA000000 		movl	$0, %edx
 469      00
 470 0098 EB1E     		jmp	.L30
 471              	.LVL66:
 472              	.L31:
 259:/home/baikal/workspace/C50/Huawei_IoT_Agent_Tiny_SDK_Linux//agent_tiny/lwm2m_client/object_connectivity_moni.c ****         {
 260:/home/baikal/workspace/C50/Huawei_IoT_Agent_Tiny_SDK_Linux//agent_tiny/lwm2m_client/object_connectivity_moni.c ****             (*dataArrayP)[i].id = resList[i];
 473              		.loc 1 260 0 discriminator 3
 474 009a 4863CA   		movslq	%edx, %rcx
 475 009d 488D3449 		leaq	(%rcx,%rcx,2), %rsi
 476 00a1 488D04F5 		leaq	0(,%rsi,8), %rax
 476      00000000 
 477 00a9 48034500 		addq	0(%rbp), %rax
 478 00ad 0FB70C4C 		movzwl	(%rsp,%rcx,2), %ecx
 479 00b1 66894804 		movw	%cx, 4(%rax)
 258:/home/baikal/workspace/C50/Huawei_IoT_Agent_Tiny_SDK_Linux//agent_tiny/lwm2m_client/object_connectivity_moni.c ****         for (i = 0; i < nbRes; i++)
 480              		.loc 1 258 0 discriminator 3
 481 00b5 83C201   		addl	$1, %edx
 482              	.LVL67:
 483              	.L30:
 258:/home/baikal/workspace/C50/Huawei_IoT_Agent_Tiny_SDK_Linux//agent_tiny/lwm2m_client/object_connectivity_moni.c ****         for (i = 0; i < nbRes; i++)
 484              		.loc 1 258 0 is_stmt 0 discriminator 1
 485 00b8 83FA0A   		cmpl	$10, %edx
 486 00bb 7EDD     		jle	.L31
 487              	.LVL68:
 488              	.L28:
 258:/home/baikal/workspace/C50/Huawei_IoT_Agent_Tiny_SDK_Linux//agent_tiny/lwm2m_client/object_connectivity_moni.c ****         for (i = 0; i < nbRes; i++)
 489              		.loc 1 258 0 discriminator 2
 490 00bd BB000000 		movl	$0, %ebx
 490      00
 491              	.L32:
 492              	.LVL69:
 493              	.LBE36:
 261:/home/baikal/workspace/C50/Huawei_IoT_Agent_Tiny_SDK_Linux//agent_tiny/lwm2m_client/object_connectivity_moni.c ****         }
 262:/home/baikal/workspace/C50/Huawei_IoT_Agent_Tiny_SDK_Linux//agent_tiny/lwm2m_client/object_connectivity_moni.c ****     }
 263:/home/baikal/workspace/C50/Huawei_IoT_Agent_Tiny_SDK_Linux//agent_tiny/lwm2m_client/object_connectivity_moni.c **** 
 264:/home/baikal/workspace/C50/Huawei_IoT_Agent_Tiny_SDK_Linux//agent_tiny/lwm2m_client/object_connectivity_moni.c ****     i = 0;
 265:/home/baikal/workspace/C50/Huawei_IoT_Agent_Tiny_SDK_Linux//agent_tiny/lwm2m_client/object_connectivity_moni.c ****     do
 266:/home/baikal/workspace/C50/Huawei_IoT_Agent_Tiny_SDK_Linux//agent_tiny/lwm2m_client/object_connectivity_moni.c ****     {
 267:/home/baikal/workspace/C50/Huawei_IoT_Agent_Tiny_SDK_Linux//agent_tiny/lwm2m_client/object_connectivity_moni.c ****         result = prv_set_value((*dataArrayP) + i, (conn_m_data_t *) (objectP->userData));
 494              		.loc 1 267 0 is_stmt 1 discriminator 2
 495 00c2 498B7550 		movq	80(%r13), %rsi
 496 00c6 4863C3   		movslq	%ebx, %rax
 497 00c9 488D0440 		leaq	(%rax,%rax,2), %rax
 498 00cd 488D3CC5 		leaq	0(,%rax,8), %rdi
 498      00000000 
 499 00d5 48037D00 		addq	0(%rbp), %rdi
 500 00d9 E8000000 		call	prv_set_value
 500      00
 501              	.LVL70:
 268:/home/baikal/workspace/C50/Huawei_IoT_Agent_Tiny_SDK_Linux//agent_tiny/lwm2m_client/object_connectivity_moni.c ****         i++;
 502              		.loc 1 268 0 discriminator 2
 503 00de 83C301   		addl	$1, %ebx
GAS LISTING /tmp/ccCHjPJP.s 			page 17


 504              	.LVL71:
 269:/home/baikal/workspace/C50/Huawei_IoT_Agent_Tiny_SDK_Linux//agent_tiny/lwm2m_client/object_connectivity_moni.c ****     }
 270:/home/baikal/workspace/C50/Huawei_IoT_Agent_Tiny_SDK_Linux//agent_tiny/lwm2m_client/object_connectivity_moni.c ****     while (i < *numDataP && result == COAP_205_CONTENT );
 505              		.loc 1 270 0 discriminator 2
 506 00e1 413B1C24 		cmpl	(%r12), %ebx
 507 00e5 7D0C     		jge	.L27
 508              		.loc 1 270 0 is_stmt 0 discriminator 1
 509 00e7 3C45     		cmpb	$69, %al
 510 00e9 74D7     		je	.L32
 511 00eb EB06     		jmp	.L27
 512              	.LVL72:
 513              	.L33:
 514              	.LCFI17:
 515              		.cfi_def_cfa_offset 8
 516              		.cfi_restore 3
 517              		.cfi_restore 6
 518              		.cfi_restore 12
 519              		.cfi_restore 13
 232:/home/baikal/workspace/C50/Huawei_IoT_Agent_Tiny_SDK_Linux//agent_tiny/lwm2m_client/object_connectivity_moni.c ****     }
 520              		.loc 1 232 0 is_stmt 1
 521 00ed B884FFFF 		movl	$-124, %eax
 521      FF
 522 00f2 C3       		ret
 523              	.LVL73:
 524              	.L27:
 525              	.LCFI18:
 526              		.cfi_def_cfa_offset 80
 527              		.cfi_offset 3, -40
 528              		.cfi_offset 6, -32
 529              		.cfi_offset 12, -24
 530              		.cfi_offset 13, -16
 271:/home/baikal/workspace/C50/Huawei_IoT_Agent_Tiny_SDK_Linux//agent_tiny/lwm2m_client/object_connectivity_moni.c **** 
 272:/home/baikal/workspace/C50/Huawei_IoT_Agent_Tiny_SDK_Linux//agent_tiny/lwm2m_client/object_connectivity_moni.c ****     return result;
 273:/home/baikal/workspace/C50/Huawei_IoT_Agent_Tiny_SDK_Linux//agent_tiny/lwm2m_client/object_connectivity_moni.c **** }
 531              		.loc 1 273 0
 532 00f3 4883C428 		addq	$40, %rsp
 533              	.LCFI19:
 534              		.cfi_def_cfa_offset 40
 535 00f7 5B       		popq	%rbx
 536              	.LCFI20:
 537              		.cfi_restore 3
 538              		.cfi_def_cfa_offset 32
 539 00f8 5D       		popq	%rbp
 540              	.LCFI21:
 541              		.cfi_restore 6
 542              		.cfi_def_cfa_offset 24
 543              	.LVL74:
 544 00f9 415C     		popq	%r12
 545              	.LCFI22:
 546              		.cfi_restore 12
 547              		.cfi_def_cfa_offset 16
 548              	.LVL75:
 549 00fb 415D     		popq	%r13
 550              	.LCFI23:
 551              		.cfi_restore 13
 552              		.cfi_def_cfa_offset 8
 553              	.LVL76:
GAS LISTING /tmp/ccCHjPJP.s 			page 18


 554 00fd C3       		ret
 555              		.cfi_endproc
 556              	.LFE64:
 558              		.section	.text.get_object_conn_m,"ax",@progbits
 559              		.globl	get_object_conn_m
 561              	get_object_conn_m:
 562              	.LFB65:
 274:/home/baikal/workspace/C50/Huawei_IoT_Agent_Tiny_SDK_Linux//agent_tiny/lwm2m_client/object_connectivity_moni.c **** 
 275:/home/baikal/workspace/C50/Huawei_IoT_Agent_Tiny_SDK_Linux//agent_tiny/lwm2m_client/object_connectivity_moni.c **** lwm2m_object_t *get_object_conn_m(atiny_param_t *atiny_params)
 276:/home/baikal/workspace/C50/Huawei_IoT_Agent_Tiny_SDK_Linux//agent_tiny/lwm2m_client/object_connectivity_moni.c **** {
 563              		.loc 1 276 0
 564              		.cfi_startproc
 565              	.LVL77:
 566 0000 53       		pushq	%rbx
 567              	.LCFI24:
 568              		.cfi_def_cfa_offset 16
 569              		.cfi_offset 3, -16
 277:/home/baikal/workspace/C50/Huawei_IoT_Agent_Tiny_SDK_Linux//agent_tiny/lwm2m_client/object_connectivity_moni.c ****     /*
 278:/home/baikal/workspace/C50/Huawei_IoT_Agent_Tiny_SDK_Linux//agent_tiny/lwm2m_client/object_connectivity_moni.c ****      * The get_object_conn_m() function create the object itself and return a pointer to the struct
 279:/home/baikal/workspace/C50/Huawei_IoT_Agent_Tiny_SDK_Linux//agent_tiny/lwm2m_client/object_connectivity_moni.c ****      */
 280:/home/baikal/workspace/C50/Huawei_IoT_Agent_Tiny_SDK_Linux//agent_tiny/lwm2m_client/object_connectivity_moni.c ****     lwm2m_object_t *connObj;
 281:/home/baikal/workspace/C50/Huawei_IoT_Agent_Tiny_SDK_Linux//agent_tiny/lwm2m_client/object_connectivity_moni.c **** 
 282:/home/baikal/workspace/C50/Huawei_IoT_Agent_Tiny_SDK_Linux//agent_tiny/lwm2m_client/object_connectivity_moni.c ****     connObj = (lwm2m_object_t *) lwm2m_malloc(sizeof(lwm2m_object_t));
 570              		.loc 1 282 0
 571 0001 BF580000 		movl	$88, %edi
 571      00
 572              	.LVL78:
 573 0006 E8000000 		call	lwm2m_malloc
 573      00
 574              	.LVL79:
 575 000b 4889C3   		movq	%rax, %rbx
 576              	.LVL80:
 283:/home/baikal/workspace/C50/Huawei_IoT_Agent_Tiny_SDK_Linux//agent_tiny/lwm2m_client/object_connectivity_moni.c **** 
 284:/home/baikal/workspace/C50/Huawei_IoT_Agent_Tiny_SDK_Linux//agent_tiny/lwm2m_client/object_connectivity_moni.c ****     if (NULL != connObj)
 577              		.loc 1 284 0
 578 000e 4885C0   		testq	%rax, %rax
 579 0011 0F844F01 		je	.L42
 579      0000
 580              	.LVL81:
 581              	.LBB37:
 582              	.LBB38:
 583              		.file 2 "/usr/include/x86_64-linux-gnu/bits/string3.h"
   1:/usr/include/x86_64-linux-gnu/bits/string3.h **** /* Copyright (C) 2004-2016 Free Software Foundation, Inc.
   2:/usr/include/x86_64-linux-gnu/bits/string3.h ****    This file is part of the GNU C Library.
   3:/usr/include/x86_64-linux-gnu/bits/string3.h **** 
   4:/usr/include/x86_64-linux-gnu/bits/string3.h ****    The GNU C Library is free software; you can redistribute it and/or
   5:/usr/include/x86_64-linux-gnu/bits/string3.h ****    modify it under the terms of the GNU Lesser General Public
   6:/usr/include/x86_64-linux-gnu/bits/string3.h ****    License as published by the Free Software Foundation; either
   7:/usr/include/x86_64-linux-gnu/bits/string3.h ****    version 2.1 of the License, or (at your option) any later version.
   8:/usr/include/x86_64-linux-gnu/bits/string3.h **** 
   9:/usr/include/x86_64-linux-gnu/bits/string3.h ****    The GNU C Library is distributed in the hope that it will be useful,
  10:/usr/include/x86_64-linux-gnu/bits/string3.h ****    but WITHOUT ANY WARRANTY; without even the implied warranty of
  11:/usr/include/x86_64-linux-gnu/bits/string3.h ****    MERCHANTABILITY or FITNESS FOR A PARTICULAR PURPOSE.  See the GNU
  12:/usr/include/x86_64-linux-gnu/bits/string3.h ****    Lesser General Public License for more details.
  13:/usr/include/x86_64-linux-gnu/bits/string3.h **** 
  14:/usr/include/x86_64-linux-gnu/bits/string3.h ****    You should have received a copy of the GNU Lesser General Public
  15:/usr/include/x86_64-linux-gnu/bits/string3.h ****    License along with the GNU C Library; if not, see
GAS LISTING /tmp/ccCHjPJP.s 			page 19


  16:/usr/include/x86_64-linux-gnu/bits/string3.h ****    <http://www.gnu.org/licenses/>.  */
  17:/usr/include/x86_64-linux-gnu/bits/string3.h **** 
  18:/usr/include/x86_64-linux-gnu/bits/string3.h **** #ifndef _STRING_H
  19:/usr/include/x86_64-linux-gnu/bits/string3.h **** # error "Never use <bits/string3.h> directly; include <string.h> instead."
  20:/usr/include/x86_64-linux-gnu/bits/string3.h **** #endif
  21:/usr/include/x86_64-linux-gnu/bits/string3.h **** 
  22:/usr/include/x86_64-linux-gnu/bits/string3.h **** #if !__GNUC_PREREQ (5,0)
  23:/usr/include/x86_64-linux-gnu/bits/string3.h **** __warndecl (__warn_memset_zero_len,
  24:/usr/include/x86_64-linux-gnu/bits/string3.h **** 	    "memset used with constant zero length parameter; this could be due to transposed parameters")
  25:/usr/include/x86_64-linux-gnu/bits/string3.h **** #endif
  26:/usr/include/x86_64-linux-gnu/bits/string3.h **** 
  27:/usr/include/x86_64-linux-gnu/bits/string3.h **** #ifndef __cplusplus
  28:/usr/include/x86_64-linux-gnu/bits/string3.h **** /* XXX This is temporarily.  We should not redefine any of the symbols
  29:/usr/include/x86_64-linux-gnu/bits/string3.h ****    and instead integrate the error checking into the original
  30:/usr/include/x86_64-linux-gnu/bits/string3.h ****    definitions.  */
  31:/usr/include/x86_64-linux-gnu/bits/string3.h **** # undef memcpy
  32:/usr/include/x86_64-linux-gnu/bits/string3.h **** # undef memmove
  33:/usr/include/x86_64-linux-gnu/bits/string3.h **** # undef memset
  34:/usr/include/x86_64-linux-gnu/bits/string3.h **** # undef strcat
  35:/usr/include/x86_64-linux-gnu/bits/string3.h **** # undef strcpy
  36:/usr/include/x86_64-linux-gnu/bits/string3.h **** # undef strncat
  37:/usr/include/x86_64-linux-gnu/bits/string3.h **** # undef strncpy
  38:/usr/include/x86_64-linux-gnu/bits/string3.h **** # ifdef __USE_GNU
  39:/usr/include/x86_64-linux-gnu/bits/string3.h **** #  undef mempcpy
  40:/usr/include/x86_64-linux-gnu/bits/string3.h **** #  undef stpcpy
  41:/usr/include/x86_64-linux-gnu/bits/string3.h **** # endif
  42:/usr/include/x86_64-linux-gnu/bits/string3.h **** # ifdef __USE_MISC
  43:/usr/include/x86_64-linux-gnu/bits/string3.h **** #  undef bcopy
  44:/usr/include/x86_64-linux-gnu/bits/string3.h **** #  undef bzero
  45:/usr/include/x86_64-linux-gnu/bits/string3.h **** # endif
  46:/usr/include/x86_64-linux-gnu/bits/string3.h **** #endif
  47:/usr/include/x86_64-linux-gnu/bits/string3.h **** 
  48:/usr/include/x86_64-linux-gnu/bits/string3.h **** 
  49:/usr/include/x86_64-linux-gnu/bits/string3.h **** __fortify_function void *
  50:/usr/include/x86_64-linux-gnu/bits/string3.h **** __NTH (memcpy (void *__restrict __dest, const void *__restrict __src,
  51:/usr/include/x86_64-linux-gnu/bits/string3.h **** 	       size_t __len))
  52:/usr/include/x86_64-linux-gnu/bits/string3.h **** {
  53:/usr/include/x86_64-linux-gnu/bits/string3.h ****   return __builtin___memcpy_chk (__dest, __src, __len, __bos0 (__dest));
  54:/usr/include/x86_64-linux-gnu/bits/string3.h **** }
  55:/usr/include/x86_64-linux-gnu/bits/string3.h **** 
  56:/usr/include/x86_64-linux-gnu/bits/string3.h **** __fortify_function void *
  57:/usr/include/x86_64-linux-gnu/bits/string3.h **** __NTH (memmove (void *__dest, const void *__src, size_t __len))
  58:/usr/include/x86_64-linux-gnu/bits/string3.h **** {
  59:/usr/include/x86_64-linux-gnu/bits/string3.h ****   return __builtin___memmove_chk (__dest, __src, __len, __bos0 (__dest));
  60:/usr/include/x86_64-linux-gnu/bits/string3.h **** }
  61:/usr/include/x86_64-linux-gnu/bits/string3.h **** 
  62:/usr/include/x86_64-linux-gnu/bits/string3.h **** #ifdef __USE_GNU
  63:/usr/include/x86_64-linux-gnu/bits/string3.h **** __fortify_function void *
  64:/usr/include/x86_64-linux-gnu/bits/string3.h **** __NTH (mempcpy (void *__restrict __dest, const void *__restrict __src,
  65:/usr/include/x86_64-linux-gnu/bits/string3.h **** 		size_t __len))
  66:/usr/include/x86_64-linux-gnu/bits/string3.h **** {
  67:/usr/include/x86_64-linux-gnu/bits/string3.h ****   return __builtin___mempcpy_chk (__dest, __src, __len, __bos0 (__dest));
  68:/usr/include/x86_64-linux-gnu/bits/string3.h **** }
  69:/usr/include/x86_64-linux-gnu/bits/string3.h **** #endif
  70:/usr/include/x86_64-linux-gnu/bits/string3.h **** 
  71:/usr/include/x86_64-linux-gnu/bits/string3.h **** 
  72:/usr/include/x86_64-linux-gnu/bits/string3.h **** /* The first two tests here help to catch a somewhat common problem
GAS LISTING /tmp/ccCHjPJP.s 			page 20


  73:/usr/include/x86_64-linux-gnu/bits/string3.h ****    where the second and third parameter are transposed.  This is
  74:/usr/include/x86_64-linux-gnu/bits/string3.h ****    especially problematic if the intended fill value is zero.  In this
  75:/usr/include/x86_64-linux-gnu/bits/string3.h ****    case no work is done at all.  We detect these problems by referring
  76:/usr/include/x86_64-linux-gnu/bits/string3.h ****    non-existing functions.  */
  77:/usr/include/x86_64-linux-gnu/bits/string3.h **** __fortify_function void *
  78:/usr/include/x86_64-linux-gnu/bits/string3.h **** __NTH (memset (void *__dest, int __ch, size_t __len))
  79:/usr/include/x86_64-linux-gnu/bits/string3.h **** {
  80:/usr/include/x86_64-linux-gnu/bits/string3.h ****   /* GCC-5.0 and newer implements these checks in the compiler, so we don't
  81:/usr/include/x86_64-linux-gnu/bits/string3.h ****      need them here.  */
  82:/usr/include/x86_64-linux-gnu/bits/string3.h **** #if !__GNUC_PREREQ (5,0)
  83:/usr/include/x86_64-linux-gnu/bits/string3.h ****   if (__builtin_constant_p (__len) && __len == 0
  84:/usr/include/x86_64-linux-gnu/bits/string3.h ****       && (!__builtin_constant_p (__ch) || __ch != 0))
  85:/usr/include/x86_64-linux-gnu/bits/string3.h ****     {
  86:/usr/include/x86_64-linux-gnu/bits/string3.h ****       __warn_memset_zero_len ();
  87:/usr/include/x86_64-linux-gnu/bits/string3.h ****       return __dest;
  88:/usr/include/x86_64-linux-gnu/bits/string3.h ****     }
  89:/usr/include/x86_64-linux-gnu/bits/string3.h **** #endif
  90:/usr/include/x86_64-linux-gnu/bits/string3.h ****   return __builtin___memset_chk (__dest, __ch, __len, __bos0 (__dest));
 584              		.loc 2 90 0
 585 0017 48C70000 		movq	$0, (%rax)
 585      000000
 586 001e 48C74050 		movq	$0, 80(%rax)
 586      00000000 
 587 0026 488D7808 		leaq	8(%rax), %rdi
 588 002a 4883E7F8 		andq	$-8, %rdi
 589 002e 4889C1   		movq	%rax, %rcx
 590 0031 4829F9   		subq	%rdi, %rcx
 591 0034 83C158   		addl	$88, %ecx
 592 0037 C1E903   		shrl	$3, %ecx
 593 003a 89C9     		movl	%ecx, %ecx
 594 003c B8000000 		movl	$0, %eax
 594      00
 595              	.LVL82:
 596 0041 F348AB   		rep stosq
 597              	.LVL83:
 598              	.LBE38:
 599              	.LBE37:
 285:/home/baikal/workspace/C50/Huawei_IoT_Agent_Tiny_SDK_Linux//agent_tiny/lwm2m_client/object_connectivity_moni.c ****     {
 286:/home/baikal/workspace/C50/Huawei_IoT_Agent_Tiny_SDK_Linux//agent_tiny/lwm2m_client/object_connectivity_moni.c ****         memset(connObj, 0, sizeof(lwm2m_object_t));
 287:/home/baikal/workspace/C50/Huawei_IoT_Agent_Tiny_SDK_Linux//agent_tiny/lwm2m_client/object_connectivity_moni.c **** 
 288:/home/baikal/workspace/C50/Huawei_IoT_Agent_Tiny_SDK_Linux//agent_tiny/lwm2m_client/object_connectivity_moni.c ****         /*
 289:/home/baikal/workspace/C50/Huawei_IoT_Agent_Tiny_SDK_Linux//agent_tiny/lwm2m_client/object_connectivity_moni.c ****          * It assigns his unique ID
 290:/home/baikal/workspace/C50/Huawei_IoT_Agent_Tiny_SDK_Linux//agent_tiny/lwm2m_client/object_connectivity_moni.c ****          */
 291:/home/baikal/workspace/C50/Huawei_IoT_Agent_Tiny_SDK_Linux//agent_tiny/lwm2m_client/object_connectivity_moni.c ****         connObj->objID = LWM2M_CONN_MONITOR_OBJECT_ID;
 600              		.loc 1 291 0
 601 0044 66C74308 		movw	$4, 8(%rbx)
 601      0400
 292:/home/baikal/workspace/C50/Huawei_IoT_Agent_Tiny_SDK_Linux//agent_tiny/lwm2m_client/object_connectivity_moni.c **** 
 293:/home/baikal/workspace/C50/Huawei_IoT_Agent_Tiny_SDK_Linux//agent_tiny/lwm2m_client/object_connectivity_moni.c ****         /*
 294:/home/baikal/workspace/C50/Huawei_IoT_Agent_Tiny_SDK_Linux//agent_tiny/lwm2m_client/object_connectivity_moni.c ****          * and its unique instance
 295:/home/baikal/workspace/C50/Huawei_IoT_Agent_Tiny_SDK_Linux//agent_tiny/lwm2m_client/object_connectivity_moni.c ****          *
 296:/home/baikal/workspace/C50/Huawei_IoT_Agent_Tiny_SDK_Linux//agent_tiny/lwm2m_client/object_connectivity_moni.c ****          */
 297:/home/baikal/workspace/C50/Huawei_IoT_Agent_Tiny_SDK_Linux//agent_tiny/lwm2m_client/object_connectivity_moni.c ****         connObj->instanceList = (lwm2m_list_t *)lwm2m_malloc(sizeof(lwm2m_list_t));
 602              		.loc 1 297 0
 603 004a BF100000 		movl	$16, %edi
 603      00
 604 004f E8000000 		call	lwm2m_malloc
GAS LISTING /tmp/ccCHjPJP.s 			page 21


 604      00
 605              	.LVL84:
 606 0054 48894310 		movq	%rax, 16(%rbx)
 298:/home/baikal/workspace/C50/Huawei_IoT_Agent_Tiny_SDK_Linux//agent_tiny/lwm2m_client/object_connectivity_moni.c ****         if (NULL != connObj->instanceList)
 607              		.loc 1 298 0
 608 0058 4885C0   		testq	%rax, %rax
 609 005b 743A     		je	.L39
 610              	.LVL85:
 611              	.LBB39:
 612              	.LBB40:
 613              		.loc 2 90 0
 614 005d 48C70000 		movq	$0, (%rax)
 614      000000
 615 0064 48C74008 		movq	$0, 8(%rax)
 615      00000000 
 616              	.LVL86:
 617              	.LBE40:
 618              	.LBE39:
 299:/home/baikal/workspace/C50/Huawei_IoT_Agent_Tiny_SDK_Linux//agent_tiny/lwm2m_client/object_connectivity_moni.c ****         {
 300:/home/baikal/workspace/C50/Huawei_IoT_Agent_Tiny_SDK_Linux//agent_tiny/lwm2m_client/object_connectivity_moni.c ****             memset(connObj->instanceList, 0, sizeof(lwm2m_list_t));
 301:/home/baikal/workspace/C50/Huawei_IoT_Agent_Tiny_SDK_Linux//agent_tiny/lwm2m_client/object_connectivity_moni.c ****         }
 302:/home/baikal/workspace/C50/Huawei_IoT_Agent_Tiny_SDK_Linux//agent_tiny/lwm2m_client/object_connectivity_moni.c ****         else
 303:/home/baikal/workspace/C50/Huawei_IoT_Agent_Tiny_SDK_Linux//agent_tiny/lwm2m_client/object_connectivity_moni.c ****         {
 304:/home/baikal/workspace/C50/Huawei_IoT_Agent_Tiny_SDK_Linux//agent_tiny/lwm2m_client/object_connectivity_moni.c ****             lwm2m_free(connObj);
 305:/home/baikal/workspace/C50/Huawei_IoT_Agent_Tiny_SDK_Linux//agent_tiny/lwm2m_client/object_connectivity_moni.c ****             return NULL;
 306:/home/baikal/workspace/C50/Huawei_IoT_Agent_Tiny_SDK_Linux//agent_tiny/lwm2m_client/object_connectivity_moni.c ****         }
 307:/home/baikal/workspace/C50/Huawei_IoT_Agent_Tiny_SDK_Linux//agent_tiny/lwm2m_client/object_connectivity_moni.c **** 
 308:/home/baikal/workspace/C50/Huawei_IoT_Agent_Tiny_SDK_Linux//agent_tiny/lwm2m_client/object_connectivity_moni.c ****         /*
 309:/home/baikal/workspace/C50/Huawei_IoT_Agent_Tiny_SDK_Linux//agent_tiny/lwm2m_client/object_connectivity_moni.c ****          * And the private function that will access the object.
 310:/home/baikal/workspace/C50/Huawei_IoT_Agent_Tiny_SDK_Linux//agent_tiny/lwm2m_client/object_connectivity_moni.c ****          * Those function will be called when a read/write/execute query is made by the server. In 
 311:/home/baikal/workspace/C50/Huawei_IoT_Agent_Tiny_SDK_Linux//agent_tiny/lwm2m_client/object_connectivity_moni.c ****          * know the resources of the object, only the server does.
 312:/home/baikal/workspace/C50/Huawei_IoT_Agent_Tiny_SDK_Linux//agent_tiny/lwm2m_client/object_connectivity_moni.c ****          */
 313:/home/baikal/workspace/C50/Huawei_IoT_Agent_Tiny_SDK_Linux//agent_tiny/lwm2m_client/object_connectivity_moni.c ****         connObj->readFunc = prv_read;
 619              		.loc 1 313 0
 620 006c 48C74318 		movq	$prv_read, 24(%rbx)
 620      00000000 
 314:/home/baikal/workspace/C50/Huawei_IoT_Agent_Tiny_SDK_Linux//agent_tiny/lwm2m_client/object_connectivity_moni.c ****         connObj->executeFunc = NULL;
 621              		.loc 1 314 0
 622 0074 48C74328 		movq	$0, 40(%rbx)
 622      00000000 
 315:/home/baikal/workspace/C50/Huawei_IoT_Agent_Tiny_SDK_Linux//agent_tiny/lwm2m_client/object_connectivity_moni.c ****         connObj->userData = lwm2m_malloc(sizeof(conn_m_data_t));
 623              		.loc 1 315 0
 624 007c BF580000 		movl	$88, %edi
 624      00
 625 0081 E8000000 		call	lwm2m_malloc
 625      00
 626              	.LVL87:
 627 0086 4889C2   		movq	%rax, %rdx
 628 0089 48894350 		movq	%rax, 80(%rbx)
 316:/home/baikal/workspace/C50/Huawei_IoT_Agent_Tiny_SDK_Linux//agent_tiny/lwm2m_client/object_connectivity_moni.c **** 
 317:/home/baikal/workspace/C50/Huawei_IoT_Agent_Tiny_SDK_Linux//agent_tiny/lwm2m_client/object_connectivity_moni.c ****         /*
 318:/home/baikal/workspace/C50/Huawei_IoT_Agent_Tiny_SDK_Linux//agent_tiny/lwm2m_client/object_connectivity_moni.c ****          * Also some user data can be stored in the object with a private structure containing the 
 319:/home/baikal/workspace/C50/Huawei_IoT_Agent_Tiny_SDK_Linux//agent_tiny/lwm2m_client/object_connectivity_moni.c ****          */
 320:/home/baikal/workspace/C50/Huawei_IoT_Agent_Tiny_SDK_Linux//agent_tiny/lwm2m_client/object_connectivity_moni.c ****         if (NULL != connObj->userData)
 629              		.loc 1 320 0
 630 008d 4885C0   		testq	%rax, %rax
 631 0090 7517     		jne	.L40
GAS LISTING /tmp/ccCHjPJP.s 			page 22


 632 0092 E9B70000 		jmp	.L43
 632      00
 633              	.L39:
 304:/home/baikal/workspace/C50/Huawei_IoT_Agent_Tiny_SDK_Linux//agent_tiny/lwm2m_client/object_connectivity_moni.c ****             return NULL;
 634              		.loc 1 304 0
 635 0097 4889DF   		movq	%rbx, %rdi
 636 009a E8000000 		call	lwm2m_free
 636      00
 637              	.LVL88:
 305:/home/baikal/workspace/C50/Huawei_IoT_Agent_Tiny_SDK_Linux//agent_tiny/lwm2m_client/object_connectivity_moni.c ****         }
 638              		.loc 1 305 0
 639 009f B8000000 		movl	$0, %eax
 639      00
 640 00a4 E9BD0000 		jmp	.L38
 640      00
 641              	.L40:
 642              	.LVL89:
 643              	.LBB41:
 644              	.LBB42:
 645              	.LBB43:
 646              		.loc 2 90 0
 647 00a9 48C74050 		movq	$0, 80(%rax)
 647      00000000 
 648 00b1 488D7808 		leaq	8(%rax), %rdi
 649 00b5 4883E7F8 		andq	$-8, %rdi
 650 00b9 4889C1   		movq	%rax, %rcx
 651 00bc 4829F9   		subq	%rdi, %rcx
 652 00bf 83C158   		addl	$88, %ecx
 653 00c2 C1E903   		shrl	$3, %ecx
 654 00c5 89C9     		movl	%ecx, %ecx
 655 00c7 B8000000 		movl	$0, %eax
 655      00
 656              	.LVL90:
 657 00cc F348AB   		rep stosq
 658              	.LVL91:
 659              	.LBE43:
 660              	.LBE42:
 321:/home/baikal/workspace/C50/Huawei_IoT_Agent_Tiny_SDK_Linux//agent_tiny/lwm2m_client/object_connectivity_moni.c ****         {
 322:/home/baikal/workspace/C50/Huawei_IoT_Agent_Tiny_SDK_Linux//agent_tiny/lwm2m_client/object_connectivity_moni.c ****             conn_m_data_t *myData = (conn_m_data_t *) connObj->userData;
 323:/home/baikal/workspace/C50/Huawei_IoT_Agent_Tiny_SDK_Linux//agent_tiny/lwm2m_client/object_connectivity_moni.c ****             memset((void *)myData, 0, sizeof(conn_m_data_t));
 324:/home/baikal/workspace/C50/Huawei_IoT_Agent_Tiny_SDK_Linux//agent_tiny/lwm2m_client/object_connectivity_moni.c ****             myData->cellId          = VALUE_CELL_ID;
 661              		.loc 1 324 0
 662 00cf 48C74240 		movq	$69696969, 64(%rdx)
 662      C97D2704 
 325:/home/baikal/workspace/C50/Huawei_IoT_Agent_Tiny_SDK_Linux//agent_tiny/lwm2m_client/object_connectivity_moni.c ****             myData->signalStrength  = VALUE_RADIO_SIGNAL_STRENGTH;
 663              		.loc 1 325 0
 664 00d7 C7424850 		movl	$80, 72(%rdx)
 664      000000
 326:/home/baikal/workspace/C50/Huawei_IoT_Agent_Tiny_SDK_Linux//agent_tiny/lwm2m_client/object_connectivity_moni.c ****             myData->linkQuality     = VALUE_LINK_QUALITY;
 665              		.loc 1 326 0
 666 00de C7424C62 		movl	$98, 76(%rdx)
 666      000000
 327:/home/baikal/workspace/C50/Huawei_IoT_Agent_Tiny_SDK_Linux//agent_tiny/lwm2m_client/object_connectivity_moni.c ****             myData->linkUtilization = VALUE_LINK_UTILIZATION;
 667              		.loc 1 327 0
 668 00e5 C742509A 		movl	$666, 80(%rdx)
 668      020000
 669              	.LVL92:
GAS LISTING /tmp/ccCHjPJP.s 			page 23


 670              	.LBB44:
 671              	.LBB45:
  91:/usr/include/x86_64-linux-gnu/bits/string3.h **** }
  92:/usr/include/x86_64-linux-gnu/bits/string3.h **** 
  93:/usr/include/x86_64-linux-gnu/bits/string3.h **** #ifdef __USE_MISC
  94:/usr/include/x86_64-linux-gnu/bits/string3.h **** __fortify_function void
  95:/usr/include/x86_64-linux-gnu/bits/string3.h **** __NTH (bcopy (const void *__src, void *__dest, size_t __len))
  96:/usr/include/x86_64-linux-gnu/bits/string3.h **** {
  97:/usr/include/x86_64-linux-gnu/bits/string3.h ****   (void) __builtin___memmove_chk (__dest, __src, __len, __bos0 (__dest));
  98:/usr/include/x86_64-linux-gnu/bits/string3.h **** }
  99:/usr/include/x86_64-linux-gnu/bits/string3.h **** 
 100:/usr/include/x86_64-linux-gnu/bits/string3.h **** __fortify_function void
 101:/usr/include/x86_64-linux-gnu/bits/string3.h **** __NTH (bzero (void *__dest, size_t __len))
 102:/usr/include/x86_64-linux-gnu/bits/string3.h **** {
 103:/usr/include/x86_64-linux-gnu/bits/string3.h ****   (void) __builtin___memset_chk (__dest, '\0', __len, __bos0 (__dest));
 104:/usr/include/x86_64-linux-gnu/bits/string3.h **** }
 105:/usr/include/x86_64-linux-gnu/bits/string3.h **** #endif
 106:/usr/include/x86_64-linux-gnu/bits/string3.h **** 
 107:/usr/include/x86_64-linux-gnu/bits/string3.h **** __fortify_function char *
 108:/usr/include/x86_64-linux-gnu/bits/string3.h **** __NTH (strcpy (char *__restrict __dest, const char *__restrict __src))
 109:/usr/include/x86_64-linux-gnu/bits/string3.h **** {
 110:/usr/include/x86_64-linux-gnu/bits/string3.h ****   return __builtin___strcpy_chk (__dest, __src, __bos (__dest));
 111:/usr/include/x86_64-linux-gnu/bits/string3.h **** }
 112:/usr/include/x86_64-linux-gnu/bits/string3.h **** 
 113:/usr/include/x86_64-linux-gnu/bits/string3.h **** #ifdef __USE_GNU
 114:/usr/include/x86_64-linux-gnu/bits/string3.h **** __fortify_function char *
 115:/usr/include/x86_64-linux-gnu/bits/string3.h **** __NTH (stpcpy (char *__restrict __dest, const char *__restrict __src))
 116:/usr/include/x86_64-linux-gnu/bits/string3.h **** {
 117:/usr/include/x86_64-linux-gnu/bits/string3.h ****   return __builtin___stpcpy_chk (__dest, __src, __bos (__dest));
 118:/usr/include/x86_64-linux-gnu/bits/string3.h **** }
 119:/usr/include/x86_64-linux-gnu/bits/string3.h **** #endif
 120:/usr/include/x86_64-linux-gnu/bits/string3.h **** 
 121:/usr/include/x86_64-linux-gnu/bits/string3.h **** 
 122:/usr/include/x86_64-linux-gnu/bits/string3.h **** __fortify_function char *
 123:/usr/include/x86_64-linux-gnu/bits/string3.h **** __NTH (strncpy (char *__restrict __dest, const char *__restrict __src,
 124:/usr/include/x86_64-linux-gnu/bits/string3.h **** 		size_t __len))
 125:/usr/include/x86_64-linux-gnu/bits/string3.h **** {
 126:/usr/include/x86_64-linux-gnu/bits/string3.h ****   return __builtin___strncpy_chk (__dest, __src, __len, __bos (__dest));
 672              		.loc 2 126 0
 673 00ec 48B83139 		movabsq	$3330471509296822577, %rax
 673      322E3136 
 673      382E
 674 00f6 488902   		movq	%rax, (%rdx)
 675 00f9 C7420831 		movl	$775436081, 8(%rdx)
 675      37382E
 676 0100 66C7420C 		movw	$12337, 12(%rdx)
 676      3130
 677 0106 C6420E31 		movb	$49, 14(%rdx)
 678              	.LVL93:
 679              	.LBE45:
 680              	.LBE44:
 681              	.LBB46:
 682              	.LBB47:
 683 010a 48894210 		movq	%rax, 16(%rdx)
 684 010e C7421831 		movl	$775436081, 24(%rdx)
 684      37382E
 685 0115 66C7421C 		movw	$12337, 28(%rdx)
GAS LISTING /tmp/ccCHjPJP.s 			page 24


 685      3130
 686 011b C6421E32 		movb	$50, 30(%rdx)
 687              	.LVL94:
 688              	.LBE47:
 689              	.LBE46:
 690              	.LBB48:
 691              	.LBB49:
 692 011f 48894220 		movq	%rax, 32(%rdx)
 693 0123 C7422831 		movl	$775436081, 40(%rdx)
 693      37382E
 694 012a 66C7422C 		movw	$12336, 44(%rdx)
 694      3030
 695 0130 C6422E31 		movb	$49, 46(%rdx)
 696              	.LVL95:
 697              	.LBE49:
 698              	.LBE48:
 699              	.LBB50:
 700              	.LBB51:
 701 0134 48894230 		movq	%rax, 48(%rdx)
 702 0138 C7423831 		movl	$775436081, 56(%rdx)
 702      37382E
 703 013f 66C7423C 		movw	$12336, 60(%rdx)
 703      3030
 704 0145 C6423E32 		movb	$50, 62(%rdx)
 705              	.LBE51:
 706              	.LBE50:
 707              	.LBE41:
 282:/home/baikal/workspace/C50/Huawei_IoT_Agent_Tiny_SDK_Linux//agent_tiny/lwm2m_client/object_connectivity_moni.c **** 
 708              		.loc 1 282 0
 709 0149 4889D8   		movq	%rbx, %rax
 710 014c EB18     		jmp	.L38
 711              	.LVL96:
 712              	.L43:
 328:/home/baikal/workspace/C50/Huawei_IoT_Agent_Tiny_SDK_Linux//agent_tiny/lwm2m_client/object_connectivity_moni.c ****             strncpy(myData->ipAddresses[0], VALUE_IP_ADDRESS_1, IP4ADDR_STRLEN_MAX - 1);
 329:/home/baikal/workspace/C50/Huawei_IoT_Agent_Tiny_SDK_Linux//agent_tiny/lwm2m_client/object_connectivity_moni.c ****             strncpy(myData->ipAddresses[1], VALUE_IP_ADDRESS_2, IP4ADDR_STRLEN_MAX - 1);
 330:/home/baikal/workspace/C50/Huawei_IoT_Agent_Tiny_SDK_Linux//agent_tiny/lwm2m_client/object_connectivity_moni.c ****             strncpy(myData->routerIpAddresses[0], VALUE_ROUTER_IP_ADDRESS_1, IP4ADDR_STRLEN_MAX - 1
 331:/home/baikal/workspace/C50/Huawei_IoT_Agent_Tiny_SDK_Linux//agent_tiny/lwm2m_client/object_connectivity_moni.c ****             strncpy(myData->routerIpAddresses[1], VALUE_ROUTER_IP_ADDRESS_2, IP4ADDR_STRLEN_MAX - 1
 332:/home/baikal/workspace/C50/Huawei_IoT_Agent_Tiny_SDK_Linux//agent_tiny/lwm2m_client/object_connectivity_moni.c ****         }
 333:/home/baikal/workspace/C50/Huawei_IoT_Agent_Tiny_SDK_Linux//agent_tiny/lwm2m_client/object_connectivity_moni.c ****         else
 334:/home/baikal/workspace/C50/Huawei_IoT_Agent_Tiny_SDK_Linux//agent_tiny/lwm2m_client/object_connectivity_moni.c ****         {
 335:/home/baikal/workspace/C50/Huawei_IoT_Agent_Tiny_SDK_Linux//agent_tiny/lwm2m_client/object_connectivity_moni.c ****             lwm2m_list_free(connObj->instanceList);
 713              		.loc 1 335 0
 714 014e 488B7B10 		movq	16(%rbx), %rdi
 715 0152 E8000000 		call	lwm2m_list_free
 715      00
 716              	.LVL97:
 336:/home/baikal/workspace/C50/Huawei_IoT_Agent_Tiny_SDK_Linux//agent_tiny/lwm2m_client/object_connectivity_moni.c ****             lwm2m_free(connObj);
 717              		.loc 1 336 0
 718 0157 4889DF   		movq	%rbx, %rdi
 719 015a E8000000 		call	lwm2m_free
 719      00
 720              	.LVL98:
 337:/home/baikal/workspace/C50/Huawei_IoT_Agent_Tiny_SDK_Linux//agent_tiny/lwm2m_client/object_connectivity_moni.c ****             connObj = NULL;
 721              		.loc 1 337 0
 722 015f B8000000 		movl	$0, %eax
 722      00
 723 0164 EB00     		jmp	.L38
GAS LISTING /tmp/ccCHjPJP.s 			page 25


 724              	.LVL99:
 725              	.L42:
 726              	.L38:
 338:/home/baikal/workspace/C50/Huawei_IoT_Agent_Tiny_SDK_Linux//agent_tiny/lwm2m_client/object_connectivity_moni.c ****         }
 339:/home/baikal/workspace/C50/Huawei_IoT_Agent_Tiny_SDK_Linux//agent_tiny/lwm2m_client/object_connectivity_moni.c ****     }
 340:/home/baikal/workspace/C50/Huawei_IoT_Agent_Tiny_SDK_Linux//agent_tiny/lwm2m_client/object_connectivity_moni.c ****     return connObj;
 341:/home/baikal/workspace/C50/Huawei_IoT_Agent_Tiny_SDK_Linux//agent_tiny/lwm2m_client/object_connectivity_moni.c **** }
 727              		.loc 1 341 0
 728 0166 5B       		popq	%rbx
 729              	.LCFI25:
 730              		.cfi_def_cfa_offset 8
 731 0167 C3       		ret
 732              		.cfi_endproc
 733              	.LFE65:
 735              		.section	.text.free_object_conn_m,"ax",@progbits
 736              		.globl	free_object_conn_m
 738              	free_object_conn_m:
 739              	.LFB66:
 342:/home/baikal/workspace/C50/Huawei_IoT_Agent_Tiny_SDK_Linux//agent_tiny/lwm2m_client/object_connectivity_moni.c **** 
 343:/home/baikal/workspace/C50/Huawei_IoT_Agent_Tiny_SDK_Linux//agent_tiny/lwm2m_client/object_connectivity_moni.c **** void free_object_conn_m(lwm2m_object_t *objectP)
 344:/home/baikal/workspace/C50/Huawei_IoT_Agent_Tiny_SDK_Linux//agent_tiny/lwm2m_client/object_connectivity_moni.c **** {
 740              		.loc 1 344 0
 741              		.cfi_startproc
 742              	.LVL100:
 743 0000 53       		pushq	%rbx
 744              	.LCFI26:
 745              		.cfi_def_cfa_offset 16
 746              		.cfi_offset 3, -16
 747 0001 4889FB   		movq	%rdi, %rbx
 345:/home/baikal/workspace/C50/Huawei_IoT_Agent_Tiny_SDK_Linux//agent_tiny/lwm2m_client/object_connectivity_moni.c ****     lwm2m_free(objectP->userData);
 748              		.loc 1 345 0
 749 0004 488B7F50 		movq	80(%rdi), %rdi
 750              	.LVL101:
 751 0008 E8000000 		call	lwm2m_free
 751      00
 752              	.LVL102:
 346:/home/baikal/workspace/C50/Huawei_IoT_Agent_Tiny_SDK_Linux//agent_tiny/lwm2m_client/object_connectivity_moni.c ****     lwm2m_list_free(objectP->instanceList);
 753              		.loc 1 346 0
 754 000d 488B7B10 		movq	16(%rbx), %rdi
 755 0011 E8000000 		call	lwm2m_list_free
 755      00
 756              	.LVL103:
 347:/home/baikal/workspace/C50/Huawei_IoT_Agent_Tiny_SDK_Linux//agent_tiny/lwm2m_client/object_connectivity_moni.c ****     lwm2m_free(objectP);
 757              		.loc 1 347 0
 758 0016 4889DF   		movq	%rbx, %rdi
 759 0019 E8000000 		call	lwm2m_free
 759      00
 760              	.LVL104:
 348:/home/baikal/workspace/C50/Huawei_IoT_Agent_Tiny_SDK_Linux//agent_tiny/lwm2m_client/object_connectivity_moni.c **** }
 761              		.loc 1 348 0
 762 001e 5B       		popq	%rbx
 763              	.LCFI27:
 764              		.cfi_def_cfa_offset 8
 765              	.LVL105:
 766 001f C3       		ret
 767              		.cfi_endproc
 768              	.LFE66:
GAS LISTING /tmp/ccCHjPJP.s 			page 26


 770              		.section	.text.connectivity_moni_change,"ax",@progbits
 771              		.globl	connectivity_moni_change
 773              	connectivity_moni_change:
 774              	.LFB67:
 349:/home/baikal/workspace/C50/Huawei_IoT_Agent_Tiny_SDK_Linux//agent_tiny/lwm2m_client/object_connectivity_moni.c **** 
 350:/home/baikal/workspace/C50/Huawei_IoT_Agent_Tiny_SDK_Linux//agent_tiny/lwm2m_client/object_connectivity_moni.c **** uint8_t connectivity_moni_change(lwm2m_data_t *dataArray,
 351:/home/baikal/workspace/C50/Huawei_IoT_Agent_Tiny_SDK_Linux//agent_tiny/lwm2m_client/object_connectivity_moni.c ****                                  lwm2m_object_t *objectP)
 352:/home/baikal/workspace/C50/Huawei_IoT_Agent_Tiny_SDK_Linux//agent_tiny/lwm2m_client/object_connectivity_moni.c **** {
 775              		.loc 1 352 0
 776              		.cfi_startproc
 777              	.LVL106:
 778 0000 55       		pushq	%rbp
 779              	.LCFI28:
 780              		.cfi_def_cfa_offset 16
 781              		.cfi_offset 6, -16
 782 0001 53       		pushq	%rbx
 783              	.LCFI29:
 784              		.cfi_def_cfa_offset 24
 785              		.cfi_offset 3, -24
 786 0002 4883EC18 		subq	$24, %rsp
 787              	.LCFI30:
 788              		.cfi_def_cfa_offset 48
 353:/home/baikal/workspace/C50/Huawei_IoT_Agent_Tiny_SDK_Linux//agent_tiny/lwm2m_client/object_connectivity_moni.c ****     int64_t value;
 354:/home/baikal/workspace/C50/Huawei_IoT_Agent_Tiny_SDK_Linux//agent_tiny/lwm2m_client/object_connectivity_moni.c ****     uint8_t result;
 355:/home/baikal/workspace/C50/Huawei_IoT_Agent_Tiny_SDK_Linux//agent_tiny/lwm2m_client/object_connectivity_moni.c ****     conn_m_data_t *data;
 356:/home/baikal/workspace/C50/Huawei_IoT_Agent_Tiny_SDK_Linux//agent_tiny/lwm2m_client/object_connectivity_moni.c **** 
 357:/home/baikal/workspace/C50/Huawei_IoT_Agent_Tiny_SDK_Linux//agent_tiny/lwm2m_client/object_connectivity_moni.c ****     data = (conn_m_data_t *) (objectP->userData);
 789              		.loc 1 357 0
 790 0006 488B6E50 		movq	80(%rsi), %rbp
 791              	.LVL107:
 358:/home/baikal/workspace/C50/Huawei_IoT_Agent_Tiny_SDK_Linux//agent_tiny/lwm2m_client/object_connectivity_moni.c **** 
 359:/home/baikal/workspace/C50/Huawei_IoT_Agent_Tiny_SDK_Linux//agent_tiny/lwm2m_client/object_connectivity_moni.c ****     switch (dataArray->id)
 792              		.loc 1 359 0
 793 000a 0FB74704 		movzwl	4(%rdi), %eax
 794 000e 6683F808 		cmpw	$8, %ax
 795 0012 0F87E900 		ja	.L55
 795      0000
 796 0018 4889FB   		movq	%rdi, %rbx
 797 001b 0FB7C0   		movzwl	%ax, %eax
 798 001e FF24C500 		jmp	*.L50(,%rax,8)
 798      000000
 799              		.section	.rodata.connectivity_moni_change,"a",@progbits
 800              		.align 8
 801              		.align 4
 802              	.L50:
 803 0000 00000000 		.quad	.L55
 803      00000000 
 804 0008 00000000 		.quad	.L55
 804      00000000 
 805 0010 00000000 		.quad	.L49
 805      00000000 
 806 0018 00000000 		.quad	.L51
 806      00000000 
 807 0020 00000000 		.quad	.L52
 807      00000000 
 808 0028 00000000 		.quad	.L53
 808      00000000 
GAS LISTING /tmp/ccCHjPJP.s 			page 27


 809 0030 00000000 		.quad	.L55
 809      00000000 
 810 0038 00000000 		.quad	.L55
 810      00000000 
 811 0040 00000000 		.quad	.L54
 811      00000000 
 812              		.section	.text.connectivity_moni_change
 813              	.L49:
 360:/home/baikal/workspace/C50/Huawei_IoT_Agent_Tiny_SDK_Linux//agent_tiny/lwm2m_client/object_connectivity_moni.c ****     {
 361:/home/baikal/workspace/C50/Huawei_IoT_Agent_Tiny_SDK_Linux//agent_tiny/lwm2m_client/object_connectivity_moni.c ****     case RES_M_RADIO_SIGNAL_STRENGTH:
 362:/home/baikal/workspace/C50/Huawei_IoT_Agent_Tiny_SDK_Linux//agent_tiny/lwm2m_client/object_connectivity_moni.c ****         if (1 == lwm2m_data_decode_int(dataArray, &value))
 814              		.loc 1 362 0
 815 0025 488D7424 		leaq	8(%rsp), %rsi
 815      08
 816              	.LVL108:
 817 002a E8000000 		call	lwm2m_data_decode_int
 817      00
 818              	.LVL109:
 819 002f 83F801   		cmpl	$1, %eax
 820 0032 0F85D000 		jne	.L56
 820      0000
 363:/home/baikal/workspace/C50/Huawei_IoT_Agent_Tiny_SDK_Linux//agent_tiny/lwm2m_client/object_connectivity_moni.c ****         {
 364:/home/baikal/workspace/C50/Huawei_IoT_Agent_Tiny_SDK_Linux//agent_tiny/lwm2m_client/object_connectivity_moni.c ****             data->signalStrength = value;
 821              		.loc 1 364 0
 822 0038 488B4424 		movq	8(%rsp), %rax
 822      08
 823 003d 894548   		movl	%eax, 72(%rbp)
 824              	.LVL110:
 365:/home/baikal/workspace/C50/Huawei_IoT_Agent_Tiny_SDK_Linux//agent_tiny/lwm2m_client/object_connectivity_moni.c ****             result = COAP_204_CHANGED;
 825              		.loc 1 365 0
 826 0040 B8440000 		movl	$68, %eax
 826      00
 827 0045 E9DF0000 		jmp	.L48
 827      00
 828              	.LVL111:
 829              	.L51:
 366:/home/baikal/workspace/C50/Huawei_IoT_Agent_Tiny_SDK_Linux//agent_tiny/lwm2m_client/object_connectivity_moni.c ****         }
 367:/home/baikal/workspace/C50/Huawei_IoT_Agent_Tiny_SDK_Linux//agent_tiny/lwm2m_client/object_connectivity_moni.c ****         else
 368:/home/baikal/workspace/C50/Huawei_IoT_Agent_Tiny_SDK_Linux//agent_tiny/lwm2m_client/object_connectivity_moni.c ****         {
 369:/home/baikal/workspace/C50/Huawei_IoT_Agent_Tiny_SDK_Linux//agent_tiny/lwm2m_client/object_connectivity_moni.c ****             result = COAP_400_BAD_REQUEST;
 370:/home/baikal/workspace/C50/Huawei_IoT_Agent_Tiny_SDK_Linux//agent_tiny/lwm2m_client/object_connectivity_moni.c ****         }
 371:/home/baikal/workspace/C50/Huawei_IoT_Agent_Tiny_SDK_Linux//agent_tiny/lwm2m_client/object_connectivity_moni.c ****         break;
 372:/home/baikal/workspace/C50/Huawei_IoT_Agent_Tiny_SDK_Linux//agent_tiny/lwm2m_client/object_connectivity_moni.c **** 
 373:/home/baikal/workspace/C50/Huawei_IoT_Agent_Tiny_SDK_Linux//agent_tiny/lwm2m_client/object_connectivity_moni.c ****     case RES_O_LINK_QUALITY:
 374:/home/baikal/workspace/C50/Huawei_IoT_Agent_Tiny_SDK_Linux//agent_tiny/lwm2m_client/object_connectivity_moni.c ****         if (1 == lwm2m_data_decode_int(dataArray, &value))
 830              		.loc 1 374 0
 831 004a 488D7424 		leaq	8(%rsp), %rsi
 831      08
 832              	.LVL112:
 833 004f E8000000 		call	lwm2m_data_decode_int
 833      00
 834              	.LVL113:
 835 0054 83F801   		cmpl	$1, %eax
 836 0057 0F85B200 		jne	.L57
 836      0000
 375:/home/baikal/workspace/C50/Huawei_IoT_Agent_Tiny_SDK_Linux//agent_tiny/lwm2m_client/object_connectivity_moni.c ****         {
 376:/home/baikal/workspace/C50/Huawei_IoT_Agent_Tiny_SDK_Linux//agent_tiny/lwm2m_client/object_connectivity_moni.c ****             data->linkQuality = value;
GAS LISTING /tmp/ccCHjPJP.s 			page 28


 837              		.loc 1 376 0
 838 005d 488B4424 		movq	8(%rsp), %rax
 838      08
 839 0062 89454C   		movl	%eax, 76(%rbp)
 840              	.LVL114:
 377:/home/baikal/workspace/C50/Huawei_IoT_Agent_Tiny_SDK_Linux//agent_tiny/lwm2m_client/object_connectivity_moni.c ****             result = COAP_204_CHANGED;
 841              		.loc 1 377 0
 842 0065 B8440000 		movl	$68, %eax
 842      00
 843 006a E9BA0000 		jmp	.L48
 843      00
 844              	.LVL115:
 845              	.L52:
 378:/home/baikal/workspace/C50/Huawei_IoT_Agent_Tiny_SDK_Linux//agent_tiny/lwm2m_client/object_connectivity_moni.c ****         }
 379:/home/baikal/workspace/C50/Huawei_IoT_Agent_Tiny_SDK_Linux//agent_tiny/lwm2m_client/object_connectivity_moni.c ****         else
 380:/home/baikal/workspace/C50/Huawei_IoT_Agent_Tiny_SDK_Linux//agent_tiny/lwm2m_client/object_connectivity_moni.c ****         {
 381:/home/baikal/workspace/C50/Huawei_IoT_Agent_Tiny_SDK_Linux//agent_tiny/lwm2m_client/object_connectivity_moni.c ****             result = COAP_400_BAD_REQUEST;
 382:/home/baikal/workspace/C50/Huawei_IoT_Agent_Tiny_SDK_Linux//agent_tiny/lwm2m_client/object_connectivity_moni.c ****         }
 383:/home/baikal/workspace/C50/Huawei_IoT_Agent_Tiny_SDK_Linux//agent_tiny/lwm2m_client/object_connectivity_moni.c ****         break;
 384:/home/baikal/workspace/C50/Huawei_IoT_Agent_Tiny_SDK_Linux//agent_tiny/lwm2m_client/object_connectivity_moni.c **** 
 385:/home/baikal/workspace/C50/Huawei_IoT_Agent_Tiny_SDK_Linux//agent_tiny/lwm2m_client/object_connectivity_moni.c ****     case RES_M_IP_ADDRESSES:
 386:/home/baikal/workspace/C50/Huawei_IoT_Agent_Tiny_SDK_Linux//agent_tiny/lwm2m_client/object_connectivity_moni.c ****         if (sizeof(data->ipAddresses[0]) <= dataArray->value.asBuffer.length)
 846              		.loc 1 386 0
 847 006f 48837F08 		cmpq	$15, 8(%rdi)
 847      0F
 848 0074 0F879C00 		ja	.L58
 848      0000
 849              	.LVL116:
 850              	.LBB52:
 851              	.LBB53:
  90:/usr/include/x86_64-linux-gnu/bits/string3.h **** }
 852              		.loc 2 90 0
 853 007a 48C74500 		movq	$0, 0(%rbp)
 853      00000000 
 854 0082 48C74508 		movq	$0, 8(%rbp)
 854      00000000 
 855              	.LVL117:
 856              	.LBE53:
 857              	.LBE52:
 387:/home/baikal/workspace/C50/Huawei_IoT_Agent_Tiny_SDK_Linux//agent_tiny/lwm2m_client/object_connectivity_moni.c ****         {
 388:/home/baikal/workspace/C50/Huawei_IoT_Agent_Tiny_SDK_Linux//agent_tiny/lwm2m_client/object_connectivity_moni.c ****             result = COAP_400_BAD_REQUEST;
 389:/home/baikal/workspace/C50/Huawei_IoT_Agent_Tiny_SDK_Linux//agent_tiny/lwm2m_client/object_connectivity_moni.c ****         }
 390:/home/baikal/workspace/C50/Huawei_IoT_Agent_Tiny_SDK_Linux//agent_tiny/lwm2m_client/object_connectivity_moni.c ****         else
 391:/home/baikal/workspace/C50/Huawei_IoT_Agent_Tiny_SDK_Linux//agent_tiny/lwm2m_client/object_connectivity_moni.c ****         {
 392:/home/baikal/workspace/C50/Huawei_IoT_Agent_Tiny_SDK_Linux//agent_tiny/lwm2m_client/object_connectivity_moni.c ****             memset(data->ipAddresses[0], 0, sizeof(data->ipAddresses[0]));
 393:/home/baikal/workspace/C50/Huawei_IoT_Agent_Tiny_SDK_Linux//agent_tiny/lwm2m_client/object_connectivity_moni.c ****             memcpy(data->ipAddresses[0], dataArray->value.asBuffer.buffer, dataArray->value.asBuffe
 858              		.loc 1 393 0
 859 008a 488B5708 		movq	8(%rdi), %rdx
 860 008e 488B7710 		movq	16(%rdi), %rsi
 861              	.LVL118:
 862              	.LBB54:
 863              	.LBB55:
  53:/usr/include/x86_64-linux-gnu/bits/string3.h **** }
 864              		.loc 2 53 0
 865 0092 4889EF   		movq	%rbp, %rdi
 866 0095 E8000000 		call	memcpy
 866      00
GAS LISTING /tmp/ccCHjPJP.s 			page 29


 867              	.LVL119:
 868              	.LBE55:
 869              	.LBE54:
 394:/home/baikal/workspace/C50/Huawei_IoT_Agent_Tiny_SDK_Linux//agent_tiny/lwm2m_client/object_connectivity_moni.c ****             data->ipAddresses[0][dataArray->value.asBuffer.length] = 0;
 870              		.loc 1 394 0
 871 009a 488B4308 		movq	8(%rbx), %rax
 872 009e C6440500 		movb	$0, 0(%rbp,%rax)
 872      00
 873              	.LVL120:
 395:/home/baikal/workspace/C50/Huawei_IoT_Agent_Tiny_SDK_Linux//agent_tiny/lwm2m_client/object_connectivity_moni.c ****             result = COAP_204_CHANGED;
 874              		.loc 1 395 0
 875 00a3 B8440000 		movl	$68, %eax
 875      00
 876 00a8 EB7F     		jmp	.L48
 877              	.LVL121:
 878              	.L53:
 396:/home/baikal/workspace/C50/Huawei_IoT_Agent_Tiny_SDK_Linux//agent_tiny/lwm2m_client/object_connectivity_moni.c ****         }
 397:/home/baikal/workspace/C50/Huawei_IoT_Agent_Tiny_SDK_Linux//agent_tiny/lwm2m_client/object_connectivity_moni.c ****         break;
 398:/home/baikal/workspace/C50/Huawei_IoT_Agent_Tiny_SDK_Linux//agent_tiny/lwm2m_client/object_connectivity_moni.c **** 
 399:/home/baikal/workspace/C50/Huawei_IoT_Agent_Tiny_SDK_Linux//agent_tiny/lwm2m_client/object_connectivity_moni.c ****     case RES_O_ROUTER_IP_ADDRESS:
 400:/home/baikal/workspace/C50/Huawei_IoT_Agent_Tiny_SDK_Linux//agent_tiny/lwm2m_client/object_connectivity_moni.c ****         if (sizeof(data->routerIpAddresses[0]) <= dataArray->value.asBuffer.length)
 879              		.loc 1 400 0
 880 00aa 48837F08 		cmpq	$15, 8(%rdi)
 880      0F
 881 00af 776C     		ja	.L59
 401:/home/baikal/workspace/C50/Huawei_IoT_Agent_Tiny_SDK_Linux//agent_tiny/lwm2m_client/object_connectivity_moni.c ****         {
 402:/home/baikal/workspace/C50/Huawei_IoT_Agent_Tiny_SDK_Linux//agent_tiny/lwm2m_client/object_connectivity_moni.c ****             result = COAP_400_BAD_REQUEST;
 403:/home/baikal/workspace/C50/Huawei_IoT_Agent_Tiny_SDK_Linux//agent_tiny/lwm2m_client/object_connectivity_moni.c ****         }
 404:/home/baikal/workspace/C50/Huawei_IoT_Agent_Tiny_SDK_Linux//agent_tiny/lwm2m_client/object_connectivity_moni.c ****         else
 405:/home/baikal/workspace/C50/Huawei_IoT_Agent_Tiny_SDK_Linux//agent_tiny/lwm2m_client/object_connectivity_moni.c ****         {
 406:/home/baikal/workspace/C50/Huawei_IoT_Agent_Tiny_SDK_Linux//agent_tiny/lwm2m_client/object_connectivity_moni.c ****             memset(data->routerIpAddresses[0], 0, sizeof(data->routerIpAddresses[0]));
 882              		.loc 1 406 0
 883 00b1 488D7D20 		leaq	32(%rbp), %rdi
 884              	.LVL122:
 885              	.LBB56:
 886              	.LBB57:
  90:/usr/include/x86_64-linux-gnu/bits/string3.h **** }
 887              		.loc 2 90 0
 888 00b5 48C74520 		movq	$0, 32(%rbp)
 888      00000000 
 889 00bd 48C74708 		movq	$0, 8(%rdi)
 889      00000000 
 890              	.LVL123:
 891              	.LBE57:
 892              	.LBE56:
 407:/home/baikal/workspace/C50/Huawei_IoT_Agent_Tiny_SDK_Linux//agent_tiny/lwm2m_client/object_connectivity_moni.c ****             memcpy(data->routerIpAddresses[0], dataArray->value.asBuffer.buffer, dataArray->value.a
 893              		.loc 1 407 0
 894 00c5 488B5308 		movq	8(%rbx), %rdx
 895 00c9 488B7310 		movq	16(%rbx), %rsi
 896              	.LVL124:
 897              	.LBB58:
 898              	.LBB59:
  53:/usr/include/x86_64-linux-gnu/bits/string3.h **** }
 899              		.loc 2 53 0
 900 00cd E8000000 		call	memcpy
 900      00
 901              	.LVL125:
GAS LISTING /tmp/ccCHjPJP.s 			page 30


 902              	.LBE59:
 903              	.LBE58:
 408:/home/baikal/workspace/C50/Huawei_IoT_Agent_Tiny_SDK_Linux//agent_tiny/lwm2m_client/object_connectivity_moni.c ****             data->routerIpAddresses[0][dataArray->value.asBuffer.length] = 0;
 904              		.loc 1 408 0
 905 00d2 488B4308 		movq	8(%rbx), %rax
 906 00d6 C6440520 		movb	$0, 32(%rbp,%rax)
 906      00
 907              	.LVL126:
 409:/home/baikal/workspace/C50/Huawei_IoT_Agent_Tiny_SDK_Linux//agent_tiny/lwm2m_client/object_connectivity_moni.c ****             result = COAP_204_CHANGED;
 908              		.loc 1 409 0
 909 00db B8440000 		movl	$68, %eax
 909      00
 910 00e0 EB47     		jmp	.L48
 911              	.LVL127:
 912              	.L54:
 410:/home/baikal/workspace/C50/Huawei_IoT_Agent_Tiny_SDK_Linux//agent_tiny/lwm2m_client/object_connectivity_moni.c ****         }
 411:/home/baikal/workspace/C50/Huawei_IoT_Agent_Tiny_SDK_Linux//agent_tiny/lwm2m_client/object_connectivity_moni.c ****         break;
 412:/home/baikal/workspace/C50/Huawei_IoT_Agent_Tiny_SDK_Linux//agent_tiny/lwm2m_client/object_connectivity_moni.c **** 
 413:/home/baikal/workspace/C50/Huawei_IoT_Agent_Tiny_SDK_Linux//agent_tiny/lwm2m_client/object_connectivity_moni.c ****     case RES_O_CELL_ID:
 414:/home/baikal/workspace/C50/Huawei_IoT_Agent_Tiny_SDK_Linux//agent_tiny/lwm2m_client/object_connectivity_moni.c ****         if (1 == lwm2m_data_decode_int(dataArray, &value))
 913              		.loc 1 414 0
 914 00e2 488D7424 		leaq	8(%rsp), %rsi
 914      08
 915              	.LVL128:
 916 00e7 E8000000 		call	lwm2m_data_decode_int
 916      00
 917              	.LVL129:
 918 00ec 83F801   		cmpl	$1, %eax
 919 00ef 7533     		jne	.L60
 415:/home/baikal/workspace/C50/Huawei_IoT_Agent_Tiny_SDK_Linux//agent_tiny/lwm2m_client/object_connectivity_moni.c ****         {
 416:/home/baikal/workspace/C50/Huawei_IoT_Agent_Tiny_SDK_Linux//agent_tiny/lwm2m_client/object_connectivity_moni.c ****             data->cellId = value;
 920              		.loc 1 416 0
 921 00f1 488B4424 		movq	8(%rsp), %rax
 921      08
 922 00f6 48894540 		movq	%rax, 64(%rbp)
 923              	.LVL130:
 417:/home/baikal/workspace/C50/Huawei_IoT_Agent_Tiny_SDK_Linux//agent_tiny/lwm2m_client/object_connectivity_moni.c ****             result = COAP_204_CHANGED;
 924              		.loc 1 417 0
 925 00fa B8440000 		movl	$68, %eax
 925      00
 926 00ff EB28     		jmp	.L48
 927              	.LVL131:
 928              	.L55:
 418:/home/baikal/workspace/C50/Huawei_IoT_Agent_Tiny_SDK_Linux//agent_tiny/lwm2m_client/object_connectivity_moni.c ****         }
 419:/home/baikal/workspace/C50/Huawei_IoT_Agent_Tiny_SDK_Linux//agent_tiny/lwm2m_client/object_connectivity_moni.c ****         else
 420:/home/baikal/workspace/C50/Huawei_IoT_Agent_Tiny_SDK_Linux//agent_tiny/lwm2m_client/object_connectivity_moni.c ****         {
 421:/home/baikal/workspace/C50/Huawei_IoT_Agent_Tiny_SDK_Linux//agent_tiny/lwm2m_client/object_connectivity_moni.c ****             result = COAP_400_BAD_REQUEST;
 422:/home/baikal/workspace/C50/Huawei_IoT_Agent_Tiny_SDK_Linux//agent_tiny/lwm2m_client/object_connectivity_moni.c ****         }
 423:/home/baikal/workspace/C50/Huawei_IoT_Agent_Tiny_SDK_Linux//agent_tiny/lwm2m_client/object_connectivity_moni.c ****         break;
 424:/home/baikal/workspace/C50/Huawei_IoT_Agent_Tiny_SDK_Linux//agent_tiny/lwm2m_client/object_connectivity_moni.c **** 
 425:/home/baikal/workspace/C50/Huawei_IoT_Agent_Tiny_SDK_Linux//agent_tiny/lwm2m_client/object_connectivity_moni.c ****     default:
 426:/home/baikal/workspace/C50/Huawei_IoT_Agent_Tiny_SDK_Linux//agent_tiny/lwm2m_client/object_connectivity_moni.c ****         result = COAP_405_METHOD_NOT_ALLOWED;
 929              		.loc 1 426 0
 930 0101 B885FFFF 		movl	$-123, %eax
 930      FF
 931 0106 EB21     		jmp	.L48
 932              	.LVL132:
GAS LISTING /tmp/ccCHjPJP.s 			page 31


 933              	.L56:
 369:/home/baikal/workspace/C50/Huawei_IoT_Agent_Tiny_SDK_Linux//agent_tiny/lwm2m_client/object_connectivity_moni.c ****         }
 934              		.loc 1 369 0
 935 0108 B880FFFF 		movl	$-128, %eax
 935      FF
 936 010d EB1A     		jmp	.L48
 937              	.L57:
 381:/home/baikal/workspace/C50/Huawei_IoT_Agent_Tiny_SDK_Linux//agent_tiny/lwm2m_client/object_connectivity_moni.c ****         }
 938              		.loc 1 381 0
 939 010f B880FFFF 		movl	$-128, %eax
 939      FF
 940 0114 EB13     		jmp	.L48
 941              	.LVL133:
 942              	.L58:
 388:/home/baikal/workspace/C50/Huawei_IoT_Agent_Tiny_SDK_Linux//agent_tiny/lwm2m_client/object_connectivity_moni.c ****         }
 943              		.loc 1 388 0
 944 0116 B880FFFF 		movl	$-128, %eax
 944      FF
 945 011b EB0C     		jmp	.L48
 946              	.L59:
 402:/home/baikal/workspace/C50/Huawei_IoT_Agent_Tiny_SDK_Linux//agent_tiny/lwm2m_client/object_connectivity_moni.c ****         }
 947              		.loc 1 402 0
 948 011d B880FFFF 		movl	$-128, %eax
 948      FF
 949 0122 EB05     		jmp	.L48
 950              	.LVL134:
 951              	.L60:
 421:/home/baikal/workspace/C50/Huawei_IoT_Agent_Tiny_SDK_Linux//agent_tiny/lwm2m_client/object_connectivity_moni.c ****         }
 952              		.loc 1 421 0
 953 0124 B880FFFF 		movl	$-128, %eax
 953      FF
 954              	.LVL135:
 955              	.L48:
 427:/home/baikal/workspace/C50/Huawei_IoT_Agent_Tiny_SDK_Linux//agent_tiny/lwm2m_client/object_connectivity_moni.c ****     }
 428:/home/baikal/workspace/C50/Huawei_IoT_Agent_Tiny_SDK_Linux//agent_tiny/lwm2m_client/object_connectivity_moni.c **** 
 429:/home/baikal/workspace/C50/Huawei_IoT_Agent_Tiny_SDK_Linux//agent_tiny/lwm2m_client/object_connectivity_moni.c ****     return result;
 430:/home/baikal/workspace/C50/Huawei_IoT_Agent_Tiny_SDK_Linux//agent_tiny/lwm2m_client/object_connectivity_moni.c **** }
 956              		.loc 1 430 0
 957 0129 4883C418 		addq	$24, %rsp
 958              	.LCFI31:
 959              		.cfi_def_cfa_offset 24
 960 012d 5B       		popq	%rbx
 961              	.LCFI32:
 962              		.cfi_def_cfa_offset 16
 963 012e 5D       		popq	%rbp
 964              	.LCFI33:
 965              		.cfi_def_cfa_offset 8
 966              	.LVL136:
 967 012f C3       		ret
 968              		.cfi_endproc
 969              	.LFE67:
 971              		.text
 972              	.Letext0:
 973              		.file 3 "/usr/include/stdint.h"
 974              		.file 4 "/usr/lib/gcc/x86_64-linux-gnu/5/include/stddef.h"
 975              		.file 5 "/usr/include/x86_64-linux-gnu/bits/types.h"
 976              		.file 6 "/usr/include/libio.h"
GAS LISTING /tmp/ccCHjPJP.s 			page 32


 977              		.file 7 "/home/baikal/workspace/C50/Huawei_IoT_Agent_Tiny_SDK_Linux//lwm2m/core/liblwm2m.h"
 978              		.file 8 "/home/baikal/workspace/C50/Huawei_IoT_Agent_Tiny_SDK_Linux//agent_tiny/lwm2m_client/agent
 979              		.file 9 "/usr/include/stdio.h"
GAS LISTING /tmp/ccCHjPJP.s 			page 33

