GAS LISTING /tmp/ccljuj5K.s 			page 1


   1              		.file	"object_connectivity_stat.c"
   2              		.text
   3              	.Ltext0:
   4              		.section	.text.prv_resetCounter,"ax",@progbits
   6              	prv_resetCounter:
   7              	.LFB65:
   8              		.file 1 "/home/baikal/workspace/C50/Huawei_IoT_Agent_Tiny_SDK_Linux//agent_tiny/lwm2m_client/objec
   1:/home/baikal/workspace/C50/Huawei_IoT_Agent_Tiny_SDK_Linux//agent_tiny/lwm2m_client/object_connectivity_stat.c **** /*----------------------------------------------------------------------------
   2:/home/baikal/workspace/C50/Huawei_IoT_Agent_Tiny_SDK_Linux//agent_tiny/lwm2m_client/object_connectivity_stat.c ****  * Copyright (c) <2016-2018>, <Huawei Technologies Co., Ltd>
   3:/home/baikal/workspace/C50/Huawei_IoT_Agent_Tiny_SDK_Linux//agent_tiny/lwm2m_client/object_connectivity_stat.c ****  * All rights reserved.
   4:/home/baikal/workspace/C50/Huawei_IoT_Agent_Tiny_SDK_Linux//agent_tiny/lwm2m_client/object_connectivity_stat.c ****  * Redistribution and use in source and binary forms, with or without modification,
   5:/home/baikal/workspace/C50/Huawei_IoT_Agent_Tiny_SDK_Linux//agent_tiny/lwm2m_client/object_connectivity_stat.c ****  * are permitted provided that the following conditions are met:
   6:/home/baikal/workspace/C50/Huawei_IoT_Agent_Tiny_SDK_Linux//agent_tiny/lwm2m_client/object_connectivity_stat.c ****  * 1. Redistributions of source code must retain the above copyright notice, this list of
   7:/home/baikal/workspace/C50/Huawei_IoT_Agent_Tiny_SDK_Linux//agent_tiny/lwm2m_client/object_connectivity_stat.c ****  * conditions and the following disclaimer.
   8:/home/baikal/workspace/C50/Huawei_IoT_Agent_Tiny_SDK_Linux//agent_tiny/lwm2m_client/object_connectivity_stat.c ****  * 2. Redistributions in binary form must reproduce the above copyright notice, this list
   9:/home/baikal/workspace/C50/Huawei_IoT_Agent_Tiny_SDK_Linux//agent_tiny/lwm2m_client/object_connectivity_stat.c ****  * of conditions and the following disclaimer in the documentation and/or other materials
  10:/home/baikal/workspace/C50/Huawei_IoT_Agent_Tiny_SDK_Linux//agent_tiny/lwm2m_client/object_connectivity_stat.c ****  * provided with the distribution.
  11:/home/baikal/workspace/C50/Huawei_IoT_Agent_Tiny_SDK_Linux//agent_tiny/lwm2m_client/object_connectivity_stat.c ****  * 3. Neither the name of the copyright holder nor the names of its contributors may be used
  12:/home/baikal/workspace/C50/Huawei_IoT_Agent_Tiny_SDK_Linux//agent_tiny/lwm2m_client/object_connectivity_stat.c ****  * to endorse or promote products derived from this software without specific prior written
  13:/home/baikal/workspace/C50/Huawei_IoT_Agent_Tiny_SDK_Linux//agent_tiny/lwm2m_client/object_connectivity_stat.c ****  * permission.
  14:/home/baikal/workspace/C50/Huawei_IoT_Agent_Tiny_SDK_Linux//agent_tiny/lwm2m_client/object_connectivity_stat.c ****  * THIS SOFTWARE IS PROVIDED BY THE COPYRIGHT HOLDERS AND CONTRIBUTORS
  15:/home/baikal/workspace/C50/Huawei_IoT_Agent_Tiny_SDK_Linux//agent_tiny/lwm2m_client/object_connectivity_stat.c ****  * "AS IS" AND ANY EXPRESS OR IMPLIED WARRANTIES, INCLUDING, BUT NOT LIMITED TO,
  16:/home/baikal/workspace/C50/Huawei_IoT_Agent_Tiny_SDK_Linux//agent_tiny/lwm2m_client/object_connectivity_stat.c ****  * THE IMPLIED WARRANTIES OF MERCHANTABILITY AND FITNESS FOR A PARTICULAR
  17:/home/baikal/workspace/C50/Huawei_IoT_Agent_Tiny_SDK_Linux//agent_tiny/lwm2m_client/object_connectivity_stat.c ****  * PURPOSE ARE DISCLAIMED. IN NO EVENT SHALL THE COPYRIGHT HOLDER OR
  18:/home/baikal/workspace/C50/Huawei_IoT_Agent_Tiny_SDK_Linux//agent_tiny/lwm2m_client/object_connectivity_stat.c ****  * CONTRIBUTORS BE LIABLE FOR ANY DIRECT, INDIRECT, INCIDENTAL, SPECIAL,
  19:/home/baikal/workspace/C50/Huawei_IoT_Agent_Tiny_SDK_Linux//agent_tiny/lwm2m_client/object_connectivity_stat.c ****  * EXEMPLARY, OR CONSEQUENTIAL DAMAGES (INCLUDING, BUT NOT LIMITED TO,
  20:/home/baikal/workspace/C50/Huawei_IoT_Agent_Tiny_SDK_Linux//agent_tiny/lwm2m_client/object_connectivity_stat.c ****  * PROCUREMENT OF SUBSTITUTE GOODS OR SERVICES; LOSS OF USE, DATA, OR PROFITS;
  21:/home/baikal/workspace/C50/Huawei_IoT_Agent_Tiny_SDK_Linux//agent_tiny/lwm2m_client/object_connectivity_stat.c ****  * OR BUSINESS INTERRUPTION) HOWEVER CAUSED AND ON ANY THEORY OF LIABILITY,
  22:/home/baikal/workspace/C50/Huawei_IoT_Agent_Tiny_SDK_Linux//agent_tiny/lwm2m_client/object_connectivity_stat.c ****  * WHETHER IN CONTRACT, STRICT LIABILITY, OR TORT (INCLUDING NEGLIGENCE OR
  23:/home/baikal/workspace/C50/Huawei_IoT_Agent_Tiny_SDK_Linux//agent_tiny/lwm2m_client/object_connectivity_stat.c ****  * OTHERWISE) ARISING IN ANY WAY OUT OF THE USE OF THIS SOFTWARE, EVEN IF
  24:/home/baikal/workspace/C50/Huawei_IoT_Agent_Tiny_SDK_Linux//agent_tiny/lwm2m_client/object_connectivity_stat.c ****  * ADVISED OF THE POSSIBILITY OF SUCH DAMAGE.
  25:/home/baikal/workspace/C50/Huawei_IoT_Agent_Tiny_SDK_Linux//agent_tiny/lwm2m_client/object_connectivity_stat.c ****  *---------------------------------------------------------------------------*/
  26:/home/baikal/workspace/C50/Huawei_IoT_Agent_Tiny_SDK_Linux//agent_tiny/lwm2m_client/object_connectivity_stat.c **** /*----------------------------------------------------------------------------
  27:/home/baikal/workspace/C50/Huawei_IoT_Agent_Tiny_SDK_Linux//agent_tiny/lwm2m_client/object_connectivity_stat.c ****  * Notice of Export Control Law
  28:/home/baikal/workspace/C50/Huawei_IoT_Agent_Tiny_SDK_Linux//agent_tiny/lwm2m_client/object_connectivity_stat.c ****  * ===============================================
  29:/home/baikal/workspace/C50/Huawei_IoT_Agent_Tiny_SDK_Linux//agent_tiny/lwm2m_client/object_connectivity_stat.c ****  * Huawei LiteOS may be subject to applicable export control laws and regulations, which might
  30:/home/baikal/workspace/C50/Huawei_IoT_Agent_Tiny_SDK_Linux//agent_tiny/lwm2m_client/object_connectivity_stat.c ****  * include those applicable to Huawei LiteOS of U.S. and the country in which you are located.
  31:/home/baikal/workspace/C50/Huawei_IoT_Agent_Tiny_SDK_Linux//agent_tiny/lwm2m_client/object_connectivity_stat.c ****  * Import, export and usage of Huawei LiteOS in any manner by you shall be in compliance with such
  32:/home/baikal/workspace/C50/Huawei_IoT_Agent_Tiny_SDK_Linux//agent_tiny/lwm2m_client/object_connectivity_stat.c ****  * applicable export control laws and regulations.
  33:/home/baikal/workspace/C50/Huawei_IoT_Agent_Tiny_SDK_Linux//agent_tiny/lwm2m_client/object_connectivity_stat.c ****  *---------------------------------------------------------------------------*/
  34:/home/baikal/workspace/C50/Huawei_IoT_Agent_Tiny_SDK_Linux//agent_tiny/lwm2m_client/object_connectivity_stat.c **** 
  35:/home/baikal/workspace/C50/Huawei_IoT_Agent_Tiny_SDK_Linux//agent_tiny/lwm2m_client/object_connectivity_stat.c **** /*******************************************************************************
  36:/home/baikal/workspace/C50/Huawei_IoT_Agent_Tiny_SDK_Linux//agent_tiny/lwm2m_client/object_connectivity_stat.c ****  *
  37:/home/baikal/workspace/C50/Huawei_IoT_Agent_Tiny_SDK_Linux//agent_tiny/lwm2m_client/object_connectivity_stat.c ****  * Copyright (c) 2015 Bosch Software Innovations GmbH Germany.
  38:/home/baikal/workspace/C50/Huawei_IoT_Agent_Tiny_SDK_Linux//agent_tiny/lwm2m_client/object_connectivity_stat.c ****  * All rights reserved. This program and the accompanying materials
  39:/home/baikal/workspace/C50/Huawei_IoT_Agent_Tiny_SDK_Linux//agent_tiny/lwm2m_client/object_connectivity_stat.c ****  * are made available under the terms of the Eclipse Public License v1.0
  40:/home/baikal/workspace/C50/Huawei_IoT_Agent_Tiny_SDK_Linux//agent_tiny/lwm2m_client/object_connectivity_stat.c ****  * and Eclipse Distribution License v1.0 which accompany this distribution.
  41:/home/baikal/workspace/C50/Huawei_IoT_Agent_Tiny_SDK_Linux//agent_tiny/lwm2m_client/object_connectivity_stat.c ****  *
  42:/home/baikal/workspace/C50/Huawei_IoT_Agent_Tiny_SDK_Linux//agent_tiny/lwm2m_client/object_connectivity_stat.c ****  * The Eclipse Public License is available at
  43:/home/baikal/workspace/C50/Huawei_IoT_Agent_Tiny_SDK_Linux//agent_tiny/lwm2m_client/object_connectivity_stat.c ****  *    http://www.eclipse.org/legal/epl-v10.html
  44:/home/baikal/workspace/C50/Huawei_IoT_Agent_Tiny_SDK_Linux//agent_tiny/lwm2m_client/object_connectivity_stat.c ****  * The Eclipse Distribution License is available at
  45:/home/baikal/workspace/C50/Huawei_IoT_Agent_Tiny_SDK_Linux//agent_tiny/lwm2m_client/object_connectivity_stat.c ****  *    http://www.eclipse.org/org/documents/edl-v10.php.
  46:/home/baikal/workspace/C50/Huawei_IoT_Agent_Tiny_SDK_Linux//agent_tiny/lwm2m_client/object_connectivity_stat.c ****  *
  47:/home/baikal/workspace/C50/Huawei_IoT_Agent_Tiny_SDK_Linux//agent_tiny/lwm2m_client/object_connectivity_stat.c ****  * Contributors:
  48:/home/baikal/workspace/C50/Huawei_IoT_Agent_Tiny_SDK_Linux//agent_tiny/lwm2m_client/object_connectivity_stat.c ****  *    Bosch Software Innovations GmbH - Please refer to git log
  49:/home/baikal/workspace/C50/Huawei_IoT_Agent_Tiny_SDK_Linux//agent_tiny/lwm2m_client/object_connectivity_stat.c ****  *
  50:/home/baikal/workspace/C50/Huawei_IoT_Agent_Tiny_SDK_Linux//agent_tiny/lwm2m_client/object_connectivity_stat.c ****  *******************************************************************************/
GAS LISTING /tmp/ccljuj5K.s 			page 2


  51:/home/baikal/workspace/C50/Huawei_IoT_Agent_Tiny_SDK_Linux//agent_tiny/lwm2m_client/object_connectivity_stat.c **** 
  52:/home/baikal/workspace/C50/Huawei_IoT_Agent_Tiny_SDK_Linux//agent_tiny/lwm2m_client/object_connectivity_stat.c **** /*
  53:/home/baikal/workspace/C50/Huawei_IoT_Agent_Tiny_SDK_Linux//agent_tiny/lwm2m_client/object_connectivity_stat.c ****  * This connectivity statistics object is optional and single instance only
  54:/home/baikal/workspace/C50/Huawei_IoT_Agent_Tiny_SDK_Linux//agent_tiny/lwm2m_client/object_connectivity_stat.c ****  *
  55:/home/baikal/workspace/C50/Huawei_IoT_Agent_Tiny_SDK_Linux//agent_tiny/lwm2m_client/object_connectivity_stat.c ****  *  Resources:
  56:/home/baikal/workspace/C50/Huawei_IoT_Agent_Tiny_SDK_Linux//agent_tiny/lwm2m_client/object_connectivity_stat.c ****  *
  57:/home/baikal/workspace/C50/Huawei_IoT_Agent_Tiny_SDK_Linux//agent_tiny/lwm2m_client/object_connectivity_stat.c ****  *          Name         | ID | Oper. | Inst. | Mand.|  Type   | Range | Units | Description |
  58:/home/baikal/workspace/C50/Huawei_IoT_Agent_Tiny_SDK_Linux//agent_tiny/lwm2m_client/object_connectivity_stat.c ****  *  SMS Tx Counter       |  0 |   R   | Single|  No  | Integer |       |       |             |
  59:/home/baikal/workspace/C50/Huawei_IoT_Agent_Tiny_SDK_Linux//agent_tiny/lwm2m_client/object_connectivity_stat.c ****  *  SMS Rx Counter       |  1 |   R   | Single|  No  | Integer |       |       |             |
  60:/home/baikal/workspace/C50/Huawei_IoT_Agent_Tiny_SDK_Linux//agent_tiny/lwm2m_client/object_connectivity_stat.c ****  *  Tx Data              |  2 |   R   | Single|  No  | Integer |       | kByte |             |
  61:/home/baikal/workspace/C50/Huawei_IoT_Agent_Tiny_SDK_Linux//agent_tiny/lwm2m_client/object_connectivity_stat.c ****  *  Rx Data              |  3 |   R   | Single|  No  | Integer |       | kByte |             |
  62:/home/baikal/workspace/C50/Huawei_IoT_Agent_Tiny_SDK_Linux//agent_tiny/lwm2m_client/object_connectivity_stat.c ****  *  Max Message Size     |  4 |   R   | Single|  No  | Integer |       | Byte  |             |
  63:/home/baikal/workspace/C50/Huawei_IoT_Agent_Tiny_SDK_Linux//agent_tiny/lwm2m_client/object_connectivity_stat.c ****  *  Average Message Size |  5 |   R   | Single|  No  | Integer |       | Byte  |             |
  64:/home/baikal/workspace/C50/Huawei_IoT_Agent_Tiny_SDK_Linux//agent_tiny/lwm2m_client/object_connectivity_stat.c ****  *  StartOrReset         |  6 |   E   | Single|  Yes | Integer |       |       |             |
  65:/home/baikal/workspace/C50/Huawei_IoT_Agent_Tiny_SDK_Linux//agent_tiny/lwm2m_client/object_connectivity_stat.c ****  */
  66:/home/baikal/workspace/C50/Huawei_IoT_Agent_Tiny_SDK_Linux//agent_tiny/lwm2m_client/object_connectivity_stat.c **** 
  67:/home/baikal/workspace/C50/Huawei_IoT_Agent_Tiny_SDK_Linux//agent_tiny/lwm2m_client/object_connectivity_stat.c **** #include "internals.h"
  68:/home/baikal/workspace/C50/Huawei_IoT_Agent_Tiny_SDK_Linux//agent_tiny/lwm2m_client/object_connectivity_stat.c **** 
  69:/home/baikal/workspace/C50/Huawei_IoT_Agent_Tiny_SDK_Linux//agent_tiny/lwm2m_client/object_connectivity_stat.c **** // Resource Id's:
  70:/home/baikal/workspace/C50/Huawei_IoT_Agent_Tiny_SDK_Linux//agent_tiny/lwm2m_client/object_connectivity_stat.c **** #define RES_O_SMS_TX_COUNTER            0
  71:/home/baikal/workspace/C50/Huawei_IoT_Agent_Tiny_SDK_Linux//agent_tiny/lwm2m_client/object_connectivity_stat.c **** #define RES_O_SMS_RX_COUNTER            1
  72:/home/baikal/workspace/C50/Huawei_IoT_Agent_Tiny_SDK_Linux//agent_tiny/lwm2m_client/object_connectivity_stat.c **** #define RES_O_TX_DATA                   2
  73:/home/baikal/workspace/C50/Huawei_IoT_Agent_Tiny_SDK_Linux//agent_tiny/lwm2m_client/object_connectivity_stat.c **** #define RES_O_RX_DATA                   3
  74:/home/baikal/workspace/C50/Huawei_IoT_Agent_Tiny_SDK_Linux//agent_tiny/lwm2m_client/object_connectivity_stat.c **** #define RES_O_MAX_MESSAGE_SIZE          4
  75:/home/baikal/workspace/C50/Huawei_IoT_Agent_Tiny_SDK_Linux//agent_tiny/lwm2m_client/object_connectivity_stat.c **** #define RES_O_AVERAGE_MESSAGE_SIZE      5
  76:/home/baikal/workspace/C50/Huawei_IoT_Agent_Tiny_SDK_Linux//agent_tiny/lwm2m_client/object_connectivity_stat.c **** #define RES_M_START_OR_RESET            6
  77:/home/baikal/workspace/C50/Huawei_IoT_Agent_Tiny_SDK_Linux//agent_tiny/lwm2m_client/object_connectivity_stat.c **** 
  78:/home/baikal/workspace/C50/Huawei_IoT_Agent_Tiny_SDK_Linux//agent_tiny/lwm2m_client/object_connectivity_stat.c **** typedef struct
  79:/home/baikal/workspace/C50/Huawei_IoT_Agent_Tiny_SDK_Linux//agent_tiny/lwm2m_client/object_connectivity_stat.c **** {
  80:/home/baikal/workspace/C50/Huawei_IoT_Agent_Tiny_SDK_Linux//agent_tiny/lwm2m_client/object_connectivity_stat.c ****     int64_t   smsTxCounter;
  81:/home/baikal/workspace/C50/Huawei_IoT_Agent_Tiny_SDK_Linux//agent_tiny/lwm2m_client/object_connectivity_stat.c ****     int64_t   smsRxCounter;
  82:/home/baikal/workspace/C50/Huawei_IoT_Agent_Tiny_SDK_Linux//agent_tiny/lwm2m_client/object_connectivity_stat.c ****     int64_t   txDataByte;             // report in kByte!
  83:/home/baikal/workspace/C50/Huawei_IoT_Agent_Tiny_SDK_Linux//agent_tiny/lwm2m_client/object_connectivity_stat.c ****     int64_t   rxDataByte;             // report in kByte!
  84:/home/baikal/workspace/C50/Huawei_IoT_Agent_Tiny_SDK_Linux//agent_tiny/lwm2m_client/object_connectivity_stat.c ****     int64_t   maxMessageSize;
  85:/home/baikal/workspace/C50/Huawei_IoT_Agent_Tiny_SDK_Linux//agent_tiny/lwm2m_client/object_connectivity_stat.c ****     int64_t   avrMessageSize;
  86:/home/baikal/workspace/C50/Huawei_IoT_Agent_Tiny_SDK_Linux//agent_tiny/lwm2m_client/object_connectivity_stat.c ****     int64_t   messageCount;           // private for incremental average calc.
  87:/home/baikal/workspace/C50/Huawei_IoT_Agent_Tiny_SDK_Linux//agent_tiny/lwm2m_client/object_connectivity_stat.c ****     bool      collectDataStarted;
  88:/home/baikal/workspace/C50/Huawei_IoT_Agent_Tiny_SDK_Linux//agent_tiny/lwm2m_client/object_connectivity_stat.c **** } conn_s_data_t;
  89:/home/baikal/workspace/C50/Huawei_IoT_Agent_Tiny_SDK_Linux//agent_tiny/lwm2m_client/object_connectivity_stat.c **** 
  90:/home/baikal/workspace/C50/Huawei_IoT_Agent_Tiny_SDK_Linux//agent_tiny/lwm2m_client/object_connectivity_stat.c **** static uint8_t prv_set_tlv(lwm2m_data_t *dataP, conn_s_data_t *connStDataP)
  91:/home/baikal/workspace/C50/Huawei_IoT_Agent_Tiny_SDK_Linux//agent_tiny/lwm2m_client/object_connectivity_stat.c **** {
  92:/home/baikal/workspace/C50/Huawei_IoT_Agent_Tiny_SDK_Linux//agent_tiny/lwm2m_client/object_connectivity_stat.c ****     switch (dataP->id)
  93:/home/baikal/workspace/C50/Huawei_IoT_Agent_Tiny_SDK_Linux//agent_tiny/lwm2m_client/object_connectivity_stat.c ****     {
  94:/home/baikal/workspace/C50/Huawei_IoT_Agent_Tiny_SDK_Linux//agent_tiny/lwm2m_client/object_connectivity_stat.c ****     case RES_O_SMS_TX_COUNTER:
  95:/home/baikal/workspace/C50/Huawei_IoT_Agent_Tiny_SDK_Linux//agent_tiny/lwm2m_client/object_connectivity_stat.c ****         lwm2m_data_encode_int(connStDataP->smsTxCounter, dataP);
  96:/home/baikal/workspace/C50/Huawei_IoT_Agent_Tiny_SDK_Linux//agent_tiny/lwm2m_client/object_connectivity_stat.c ****         return COAP_205_CONTENT;
  97:/home/baikal/workspace/C50/Huawei_IoT_Agent_Tiny_SDK_Linux//agent_tiny/lwm2m_client/object_connectivity_stat.c ****     case RES_O_SMS_RX_COUNTER:
  98:/home/baikal/workspace/C50/Huawei_IoT_Agent_Tiny_SDK_Linux//agent_tiny/lwm2m_client/object_connectivity_stat.c ****         lwm2m_data_encode_int(connStDataP->smsRxCounter, dataP);
  99:/home/baikal/workspace/C50/Huawei_IoT_Agent_Tiny_SDK_Linux//agent_tiny/lwm2m_client/object_connectivity_stat.c ****         return COAP_205_CONTENT;
 100:/home/baikal/workspace/C50/Huawei_IoT_Agent_Tiny_SDK_Linux//agent_tiny/lwm2m_client/object_connectivity_stat.c ****     case RES_O_TX_DATA:
 101:/home/baikal/workspace/C50/Huawei_IoT_Agent_Tiny_SDK_Linux//agent_tiny/lwm2m_client/object_connectivity_stat.c ****         lwm2m_data_encode_int(connStDataP->txDataByte / 1024, dataP);
 102:/home/baikal/workspace/C50/Huawei_IoT_Agent_Tiny_SDK_Linux//agent_tiny/lwm2m_client/object_connectivity_stat.c ****         return COAP_205_CONTENT;
 103:/home/baikal/workspace/C50/Huawei_IoT_Agent_Tiny_SDK_Linux//agent_tiny/lwm2m_client/object_connectivity_stat.c ****     case RES_O_RX_DATA:
 104:/home/baikal/workspace/C50/Huawei_IoT_Agent_Tiny_SDK_Linux//agent_tiny/lwm2m_client/object_connectivity_stat.c ****         lwm2m_data_encode_int(connStDataP->rxDataByte / 1024, dataP);
 105:/home/baikal/workspace/C50/Huawei_IoT_Agent_Tiny_SDK_Linux//agent_tiny/lwm2m_client/object_connectivity_stat.c ****         return COAP_205_CONTENT;
 106:/home/baikal/workspace/C50/Huawei_IoT_Agent_Tiny_SDK_Linux//agent_tiny/lwm2m_client/object_connectivity_stat.c ****     case RES_O_MAX_MESSAGE_SIZE:
 107:/home/baikal/workspace/C50/Huawei_IoT_Agent_Tiny_SDK_Linux//agent_tiny/lwm2m_client/object_connectivity_stat.c ****         lwm2m_data_encode_int(connStDataP->maxMessageSize, dataP);
GAS LISTING /tmp/ccljuj5K.s 			page 3


 108:/home/baikal/workspace/C50/Huawei_IoT_Agent_Tiny_SDK_Linux//agent_tiny/lwm2m_client/object_connectivity_stat.c ****         return COAP_205_CONTENT;
 109:/home/baikal/workspace/C50/Huawei_IoT_Agent_Tiny_SDK_Linux//agent_tiny/lwm2m_client/object_connectivity_stat.c ****     case RES_O_AVERAGE_MESSAGE_SIZE:
 110:/home/baikal/workspace/C50/Huawei_IoT_Agent_Tiny_SDK_Linux//agent_tiny/lwm2m_client/object_connectivity_stat.c ****         lwm2m_data_encode_int(connStDataP->avrMessageSize, dataP);
 111:/home/baikal/workspace/C50/Huawei_IoT_Agent_Tiny_SDK_Linux//agent_tiny/lwm2m_client/object_connectivity_stat.c ****         return COAP_205_CONTENT;
 112:/home/baikal/workspace/C50/Huawei_IoT_Agent_Tiny_SDK_Linux//agent_tiny/lwm2m_client/object_connectivity_stat.c ****     default:
 113:/home/baikal/workspace/C50/Huawei_IoT_Agent_Tiny_SDK_Linux//agent_tiny/lwm2m_client/object_connectivity_stat.c ****         return COAP_404_NOT_FOUND ;
 114:/home/baikal/workspace/C50/Huawei_IoT_Agent_Tiny_SDK_Linux//agent_tiny/lwm2m_client/object_connectivity_stat.c ****     }
 115:/home/baikal/workspace/C50/Huawei_IoT_Agent_Tiny_SDK_Linux//agent_tiny/lwm2m_client/object_connectivity_stat.c **** }
 116:/home/baikal/workspace/C50/Huawei_IoT_Agent_Tiny_SDK_Linux//agent_tiny/lwm2m_client/object_connectivity_stat.c **** 
 117:/home/baikal/workspace/C50/Huawei_IoT_Agent_Tiny_SDK_Linux//agent_tiny/lwm2m_client/object_connectivity_stat.c **** static uint8_t prv_read(uint16_t instanceId, int *numDataP, lwm2m_data_t **dataArrayP, lwm2m_data_c
 118:/home/baikal/workspace/C50/Huawei_IoT_Agent_Tiny_SDK_Linux//agent_tiny/lwm2m_client/object_connectivity_stat.c **** {
 119:/home/baikal/workspace/C50/Huawei_IoT_Agent_Tiny_SDK_Linux//agent_tiny/lwm2m_client/object_connectivity_stat.c ****     uint8_t result;
 120:/home/baikal/workspace/C50/Huawei_IoT_Agent_Tiny_SDK_Linux//agent_tiny/lwm2m_client/object_connectivity_stat.c ****     int i;
 121:/home/baikal/workspace/C50/Huawei_IoT_Agent_Tiny_SDK_Linux//agent_tiny/lwm2m_client/object_connectivity_stat.c **** 
 122:/home/baikal/workspace/C50/Huawei_IoT_Agent_Tiny_SDK_Linux//agent_tiny/lwm2m_client/object_connectivity_stat.c ****     // this is a single instance object
 123:/home/baikal/workspace/C50/Huawei_IoT_Agent_Tiny_SDK_Linux//agent_tiny/lwm2m_client/object_connectivity_stat.c ****     if (instanceId != 0)
 124:/home/baikal/workspace/C50/Huawei_IoT_Agent_Tiny_SDK_Linux//agent_tiny/lwm2m_client/object_connectivity_stat.c ****     {
 125:/home/baikal/workspace/C50/Huawei_IoT_Agent_Tiny_SDK_Linux//agent_tiny/lwm2m_client/object_connectivity_stat.c ****         return COAP_404_NOT_FOUND ;
 126:/home/baikal/workspace/C50/Huawei_IoT_Agent_Tiny_SDK_Linux//agent_tiny/lwm2m_client/object_connectivity_stat.c ****     }
 127:/home/baikal/workspace/C50/Huawei_IoT_Agent_Tiny_SDK_Linux//agent_tiny/lwm2m_client/object_connectivity_stat.c **** 
 128:/home/baikal/workspace/C50/Huawei_IoT_Agent_Tiny_SDK_Linux//agent_tiny/lwm2m_client/object_connectivity_stat.c ****     // is the server asking for the full object ?
 129:/home/baikal/workspace/C50/Huawei_IoT_Agent_Tiny_SDK_Linux//agent_tiny/lwm2m_client/object_connectivity_stat.c ****     if (*numDataP == 0)
 130:/home/baikal/workspace/C50/Huawei_IoT_Agent_Tiny_SDK_Linux//agent_tiny/lwm2m_client/object_connectivity_stat.c ****     {
 131:/home/baikal/workspace/C50/Huawei_IoT_Agent_Tiny_SDK_Linux//agent_tiny/lwm2m_client/object_connectivity_stat.c ****         uint16_t resList[] =
 132:/home/baikal/workspace/C50/Huawei_IoT_Agent_Tiny_SDK_Linux//agent_tiny/lwm2m_client/object_connectivity_stat.c ****         {
 133:/home/baikal/workspace/C50/Huawei_IoT_Agent_Tiny_SDK_Linux//agent_tiny/lwm2m_client/object_connectivity_stat.c ****             RES_O_SMS_TX_COUNTER,
 134:/home/baikal/workspace/C50/Huawei_IoT_Agent_Tiny_SDK_Linux//agent_tiny/lwm2m_client/object_connectivity_stat.c ****             RES_O_SMS_RX_COUNTER,
 135:/home/baikal/workspace/C50/Huawei_IoT_Agent_Tiny_SDK_Linux//agent_tiny/lwm2m_client/object_connectivity_stat.c ****             RES_O_TX_DATA,
 136:/home/baikal/workspace/C50/Huawei_IoT_Agent_Tiny_SDK_Linux//agent_tiny/lwm2m_client/object_connectivity_stat.c ****             RES_O_RX_DATA,
 137:/home/baikal/workspace/C50/Huawei_IoT_Agent_Tiny_SDK_Linux//agent_tiny/lwm2m_client/object_connectivity_stat.c ****             RES_O_MAX_MESSAGE_SIZE,
 138:/home/baikal/workspace/C50/Huawei_IoT_Agent_Tiny_SDK_Linux//agent_tiny/lwm2m_client/object_connectivity_stat.c ****             RES_O_AVERAGE_MESSAGE_SIZE
 139:/home/baikal/workspace/C50/Huawei_IoT_Agent_Tiny_SDK_Linux//agent_tiny/lwm2m_client/object_connectivity_stat.c ****         };
 140:/home/baikal/workspace/C50/Huawei_IoT_Agent_Tiny_SDK_Linux//agent_tiny/lwm2m_client/object_connectivity_stat.c ****         int nbRes = sizeof(resList) / sizeof(uint16_t);
 141:/home/baikal/workspace/C50/Huawei_IoT_Agent_Tiny_SDK_Linux//agent_tiny/lwm2m_client/object_connectivity_stat.c **** 
 142:/home/baikal/workspace/C50/Huawei_IoT_Agent_Tiny_SDK_Linux//agent_tiny/lwm2m_client/object_connectivity_stat.c ****         *dataArrayP = lwm2m_data_new(nbRes);
 143:/home/baikal/workspace/C50/Huawei_IoT_Agent_Tiny_SDK_Linux//agent_tiny/lwm2m_client/object_connectivity_stat.c ****         if (*dataArrayP == NULL)
 144:/home/baikal/workspace/C50/Huawei_IoT_Agent_Tiny_SDK_Linux//agent_tiny/lwm2m_client/object_connectivity_stat.c ****             return COAP_500_INTERNAL_SERVER_ERROR ;
 145:/home/baikal/workspace/C50/Huawei_IoT_Agent_Tiny_SDK_Linux//agent_tiny/lwm2m_client/object_connectivity_stat.c ****         *numDataP = nbRes;
 146:/home/baikal/workspace/C50/Huawei_IoT_Agent_Tiny_SDK_Linux//agent_tiny/lwm2m_client/object_connectivity_stat.c ****         for (i = 0; i < nbRes; i++)
 147:/home/baikal/workspace/C50/Huawei_IoT_Agent_Tiny_SDK_Linux//agent_tiny/lwm2m_client/object_connectivity_stat.c ****         {
 148:/home/baikal/workspace/C50/Huawei_IoT_Agent_Tiny_SDK_Linux//agent_tiny/lwm2m_client/object_connectivity_stat.c ****             (*dataArrayP)[i].id = resList[i];
 149:/home/baikal/workspace/C50/Huawei_IoT_Agent_Tiny_SDK_Linux//agent_tiny/lwm2m_client/object_connectivity_stat.c ****         }
 150:/home/baikal/workspace/C50/Huawei_IoT_Agent_Tiny_SDK_Linux//agent_tiny/lwm2m_client/object_connectivity_stat.c ****     }
 151:/home/baikal/workspace/C50/Huawei_IoT_Agent_Tiny_SDK_Linux//agent_tiny/lwm2m_client/object_connectivity_stat.c **** 
 152:/home/baikal/workspace/C50/Huawei_IoT_Agent_Tiny_SDK_Linux//agent_tiny/lwm2m_client/object_connectivity_stat.c ****     i = 0;
 153:/home/baikal/workspace/C50/Huawei_IoT_Agent_Tiny_SDK_Linux//agent_tiny/lwm2m_client/object_connectivity_stat.c ****     do
 154:/home/baikal/workspace/C50/Huawei_IoT_Agent_Tiny_SDK_Linux//agent_tiny/lwm2m_client/object_connectivity_stat.c ****     {
 155:/home/baikal/workspace/C50/Huawei_IoT_Agent_Tiny_SDK_Linux//agent_tiny/lwm2m_client/object_connectivity_stat.c ****         result = prv_set_tlv((*dataArrayP) + i, (conn_s_data_t *) (objectP->userData));
 156:/home/baikal/workspace/C50/Huawei_IoT_Agent_Tiny_SDK_Linux//agent_tiny/lwm2m_client/object_connectivity_stat.c ****         i++;
 157:/home/baikal/workspace/C50/Huawei_IoT_Agent_Tiny_SDK_Linux//agent_tiny/lwm2m_client/object_connectivity_stat.c ****     }
 158:/home/baikal/workspace/C50/Huawei_IoT_Agent_Tiny_SDK_Linux//agent_tiny/lwm2m_client/object_connectivity_stat.c ****     while (i < *numDataP && result == COAP_205_CONTENT );
 159:/home/baikal/workspace/C50/Huawei_IoT_Agent_Tiny_SDK_Linux//agent_tiny/lwm2m_client/object_connectivity_stat.c **** 
 160:/home/baikal/workspace/C50/Huawei_IoT_Agent_Tiny_SDK_Linux//agent_tiny/lwm2m_client/object_connectivity_stat.c ****     return result;
 161:/home/baikal/workspace/C50/Huawei_IoT_Agent_Tiny_SDK_Linux//agent_tiny/lwm2m_client/object_connectivity_stat.c **** }
 162:/home/baikal/workspace/C50/Huawei_IoT_Agent_Tiny_SDK_Linux//agent_tiny/lwm2m_client/object_connectivity_stat.c **** 
 163:/home/baikal/workspace/C50/Huawei_IoT_Agent_Tiny_SDK_Linux//agent_tiny/lwm2m_client/object_connectivity_stat.c **** static void prv_resetCounter(lwm2m_object_t *objectP, bool start)
 164:/home/baikal/workspace/C50/Huawei_IoT_Agent_Tiny_SDK_Linux//agent_tiny/lwm2m_client/object_connectivity_stat.c **** {
GAS LISTING /tmp/ccljuj5K.s 			page 4


   9              		.loc 1 164 0
  10              		.cfi_startproc
  11              	.LVL0:
 165:/home/baikal/workspace/C50/Huawei_IoT_Agent_Tiny_SDK_Linux//agent_tiny/lwm2m_client/object_connectivity_stat.c ****     conn_s_data_t *myData = (conn_s_data_t *) objectP->userData;
  12              		.loc 1 165 0
  13 0000 488B4750 		movq	80(%rdi), %rax
  14              	.LVL1:
 166:/home/baikal/workspace/C50/Huawei_IoT_Agent_Tiny_SDK_Linux//agent_tiny/lwm2m_client/object_connectivity_stat.c ****     myData->smsTxCounter        = 0;
  15              		.loc 1 166 0
  16 0004 48C70000 		movq	$0, (%rax)
  16      000000
 167:/home/baikal/workspace/C50/Huawei_IoT_Agent_Tiny_SDK_Linux//agent_tiny/lwm2m_client/object_connectivity_stat.c ****     myData->smsRxCounter        = 0;
  17              		.loc 1 167 0
  18 000b 48C74008 		movq	$0, 8(%rax)
  18      00000000 
 168:/home/baikal/workspace/C50/Huawei_IoT_Agent_Tiny_SDK_Linux//agent_tiny/lwm2m_client/object_connectivity_stat.c ****     myData->txDataByte          = 0;
  19              		.loc 1 168 0
  20 0013 48C74010 		movq	$0, 16(%rax)
  20      00000000 
 169:/home/baikal/workspace/C50/Huawei_IoT_Agent_Tiny_SDK_Linux//agent_tiny/lwm2m_client/object_connectivity_stat.c ****     myData->rxDataByte          = 0;
  21              		.loc 1 169 0
  22 001b 48C74018 		movq	$0, 24(%rax)
  22      00000000 
 170:/home/baikal/workspace/C50/Huawei_IoT_Agent_Tiny_SDK_Linux//agent_tiny/lwm2m_client/object_connectivity_stat.c ****     myData->maxMessageSize      = 0;
  23              		.loc 1 170 0
  24 0023 48C74020 		movq	$0, 32(%rax)
  24      00000000 
 171:/home/baikal/workspace/C50/Huawei_IoT_Agent_Tiny_SDK_Linux//agent_tiny/lwm2m_client/object_connectivity_stat.c ****     myData->avrMessageSize      = 0;
  25              		.loc 1 171 0
  26 002b 48C74028 		movq	$0, 40(%rax)
  26      00000000 
 172:/home/baikal/workspace/C50/Huawei_IoT_Agent_Tiny_SDK_Linux//agent_tiny/lwm2m_client/object_connectivity_stat.c ****     myData->messageCount        = 0;
  27              		.loc 1 172 0
  28 0033 48C74030 		movq	$0, 48(%rax)
  28      00000000 
 173:/home/baikal/workspace/C50/Huawei_IoT_Agent_Tiny_SDK_Linux//agent_tiny/lwm2m_client/object_connectivity_stat.c ****     myData->collectDataStarted  = start;
  29              		.loc 1 173 0
  30 003b 40887038 		movb	%sil, 56(%rax)
  31 003f C3       		ret
  32              		.cfi_endproc
  33              	.LFE65:
  35              		.section	.text.prv_exec,"ax",@progbits
  37              	prv_exec:
  38              	.LFB66:
 174:/home/baikal/workspace/C50/Huawei_IoT_Agent_Tiny_SDK_Linux//agent_tiny/lwm2m_client/object_connectivity_stat.c **** }
 175:/home/baikal/workspace/C50/Huawei_IoT_Agent_Tiny_SDK_Linux//agent_tiny/lwm2m_client/object_connectivity_stat.c **** 
 176:/home/baikal/workspace/C50/Huawei_IoT_Agent_Tiny_SDK_Linux//agent_tiny/lwm2m_client/object_connectivity_stat.c **** static uint8_t prv_exec(uint16_t instanceId, uint16_t resourceId,
 177:/home/baikal/workspace/C50/Huawei_IoT_Agent_Tiny_SDK_Linux//agent_tiny/lwm2m_client/object_connectivity_stat.c ****                         uint8_t *buffer, int length, lwm2m_object_t *objectP)
 178:/home/baikal/workspace/C50/Huawei_IoT_Agent_Tiny_SDK_Linux//agent_tiny/lwm2m_client/object_connectivity_stat.c **** {
  39              		.loc 1 178 0
  40              		.cfi_startproc
  41              	.LVL2:
 179:/home/baikal/workspace/C50/Huawei_IoT_Agent_Tiny_SDK_Linux//agent_tiny/lwm2m_client/object_connectivity_stat.c ****     // this is a single instance object
 180:/home/baikal/workspace/C50/Huawei_IoT_Agent_Tiny_SDK_Linux//agent_tiny/lwm2m_client/object_connectivity_stat.c ****     if (instanceId != 0)
  42              		.loc 1 180 0
  43 0000 6685FF   		testw	%di, %di
  44 0003 751D     		jne	.L5
GAS LISTING /tmp/ccljuj5K.s 			page 5


 181:/home/baikal/workspace/C50/Huawei_IoT_Agent_Tiny_SDK_Linux//agent_tiny/lwm2m_client/object_connectivity_stat.c ****     {
 182:/home/baikal/workspace/C50/Huawei_IoT_Agent_Tiny_SDK_Linux//agent_tiny/lwm2m_client/object_connectivity_stat.c ****         return COAP_404_NOT_FOUND;
 183:/home/baikal/workspace/C50/Huawei_IoT_Agent_Tiny_SDK_Linux//agent_tiny/lwm2m_client/object_connectivity_stat.c ****     }
 184:/home/baikal/workspace/C50/Huawei_IoT_Agent_Tiny_SDK_Linux//agent_tiny/lwm2m_client/object_connectivity_stat.c **** 
 185:/home/baikal/workspace/C50/Huawei_IoT_Agent_Tiny_SDK_Linux//agent_tiny/lwm2m_client/object_connectivity_stat.c ****     if (length != 0) return COAP_400_BAD_REQUEST;
  45              		.loc 1 185 0
  46 0005 85C9     		testl	%ecx, %ecx
  47 0007 751F     		jne	.L6
 186:/home/baikal/workspace/C50/Huawei_IoT_Agent_Tiny_SDK_Linux//agent_tiny/lwm2m_client/object_connectivity_stat.c **** 
 187:/home/baikal/workspace/C50/Huawei_IoT_Agent_Tiny_SDK_Linux//agent_tiny/lwm2m_client/object_connectivity_stat.c ****     switch (resourceId)
  48              		.loc 1 187 0
  49 0009 6683FE06 		cmpw	$6, %si
  50 000d 751F     		jne	.L8
  51 000f 4C89C7   		movq	%r8, %rdi
  52              	.LVL3:
 188:/home/baikal/workspace/C50/Huawei_IoT_Agent_Tiny_SDK_Linux//agent_tiny/lwm2m_client/object_connectivity_stat.c ****     {
 189:/home/baikal/workspace/C50/Huawei_IoT_Agent_Tiny_SDK_Linux//agent_tiny/lwm2m_client/object_connectivity_stat.c ****     case RES_M_START_OR_RESET:
 190:/home/baikal/workspace/C50/Huawei_IoT_Agent_Tiny_SDK_Linux//agent_tiny/lwm2m_client/object_connectivity_stat.c ****         prv_resetCounter(objectP, true);
  53              		.loc 1 190 0
  54 0012 BE010000 		movl	$1, %esi
  54      00
  55              	.LVL4:
  56 0017 E8000000 		call	prv_resetCounter
  56      00
  57              	.LVL5:
 191:/home/baikal/workspace/C50/Huawei_IoT_Agent_Tiny_SDK_Linux//agent_tiny/lwm2m_client/object_connectivity_stat.c ****         return COAP_204_CHANGED;
  58              		.loc 1 191 0
  59 001c B8440000 		movl	$68, %eax
  59      00
  60 0021 C3       		ret
  61              	.LVL6:
  62              	.L5:
 182:/home/baikal/workspace/C50/Huawei_IoT_Agent_Tiny_SDK_Linux//agent_tiny/lwm2m_client/object_connectivity_stat.c ****     }
  63              		.loc 1 182 0
  64 0022 B884FFFF 		movl	$-124, %eax
  64      FF
  65 0027 C3       		ret
  66              	.L6:
 185:/home/baikal/workspace/C50/Huawei_IoT_Agent_Tiny_SDK_Linux//agent_tiny/lwm2m_client/object_connectivity_stat.c **** 
  67              		.loc 1 185 0
  68 0028 B880FFFF 		movl	$-128, %eax
  68      FF
  69 002d C3       		ret
  70              	.L8:
 192:/home/baikal/workspace/C50/Huawei_IoT_Agent_Tiny_SDK_Linux//agent_tiny/lwm2m_client/object_connectivity_stat.c ****     default:
 193:/home/baikal/workspace/C50/Huawei_IoT_Agent_Tiny_SDK_Linux//agent_tiny/lwm2m_client/object_connectivity_stat.c ****         return COAP_405_METHOD_NOT_ALLOWED;
  71              		.loc 1 193 0
  72 002e B885FFFF 		movl	$-123, %eax
  72      FF
 194:/home/baikal/workspace/C50/Huawei_IoT_Agent_Tiny_SDK_Linux//agent_tiny/lwm2m_client/object_connectivity_stat.c ****     }
 195:/home/baikal/workspace/C50/Huawei_IoT_Agent_Tiny_SDK_Linux//agent_tiny/lwm2m_client/object_connectivity_stat.c **** }
  73              		.loc 1 195 0
  74 0033 C3       		ret
  75              		.cfi_endproc
  76              	.LFE66:
  78              		.section	.text.prv_set_tlv,"ax",@progbits
  80              	prv_set_tlv:
GAS LISTING /tmp/ccljuj5K.s 			page 6


  81              	.LFB63:
  91:/home/baikal/workspace/C50/Huawei_IoT_Agent_Tiny_SDK_Linux//agent_tiny/lwm2m_client/object_connectivity_stat.c ****     switch (dataP->id)
  82              		.loc 1 91 0
  83              		.cfi_startproc
  84              	.LVL7:
  92:/home/baikal/workspace/C50/Huawei_IoT_Agent_Tiny_SDK_Linux//agent_tiny/lwm2m_client/object_connectivity_stat.c ****     {
  85              		.loc 1 92 0
  86 0000 0FB74704 		movzwl	4(%rdi), %eax
  87 0004 6683F805 		cmpw	$5, %ax
  88 0008 0F879700 		ja	.L18
  88      0000
  91:/home/baikal/workspace/C50/Huawei_IoT_Agent_Tiny_SDK_Linux//agent_tiny/lwm2m_client/object_connectivity_stat.c ****     switch (dataP->id)
  89              		.loc 1 91 0
  90 000e 4883EC08 		subq	$8, %rsp
  91              	.LCFI0:
  92              		.cfi_def_cfa_offset 16
  93 0012 4889F2   		movq	%rsi, %rdx
  94 0015 4889FE   		movq	%rdi, %rsi
  95              	.LVL8:
  92:/home/baikal/workspace/C50/Huawei_IoT_Agent_Tiny_SDK_Linux//agent_tiny/lwm2m_client/object_connectivity_stat.c ****     {
  96              		.loc 1 92 0
  97 0018 0FB7C0   		movzwl	%ax, %eax
  98 001b FF24C500 		jmp	*.L12(,%rax,8)
  98      000000
  99              		.section	.rodata.prv_set_tlv,"a",@progbits
 100              		.align 8
 101              		.align 4
 102              	.L12:
 103 0000 00000000 		.quad	.L11
 103      00000000 
 104 0008 00000000 		.quad	.L13
 104      00000000 
 105 0010 00000000 		.quad	.L14
 105      00000000 
 106 0018 00000000 		.quad	.L15
 106      00000000 
 107 0020 00000000 		.quad	.L16
 107      00000000 
 108 0028 00000000 		.quad	.L17
 108      00000000 
 109              		.section	.text.prv_set_tlv
 110              	.L11:
  95:/home/baikal/workspace/C50/Huawei_IoT_Agent_Tiny_SDK_Linux//agent_tiny/lwm2m_client/object_connectivity_stat.c ****         return COAP_205_CONTENT;
 111              		.loc 1 95 0
 112 0022 488B3A   		movq	(%rdx), %rdi
 113              	.LVL9:
 114 0025 E8000000 		call	lwm2m_data_encode_int
 114      00
 115              	.LVL10:
  96:/home/baikal/workspace/C50/Huawei_IoT_Agent_Tiny_SDK_Linux//agent_tiny/lwm2m_client/object_connectivity_stat.c ****     case RES_O_SMS_RX_COUNTER:
 116              		.loc 1 96 0
 117 002a B8450000 		movl	$69, %eax
 117      00
 118 002f EB7A     		jmp	.L10
 119              	.LVL11:
 120              	.L13:
  98:/home/baikal/workspace/C50/Huawei_IoT_Agent_Tiny_SDK_Linux//agent_tiny/lwm2m_client/object_connectivity_stat.c ****         return COAP_205_CONTENT;
GAS LISTING /tmp/ccljuj5K.s 			page 7


 121              		.loc 1 98 0
 122 0031 488B7A08 		movq	8(%rdx), %rdi
 123 0035 E8000000 		call	lwm2m_data_encode_int
 123      00
 124              	.LVL12:
  99:/home/baikal/workspace/C50/Huawei_IoT_Agent_Tiny_SDK_Linux//agent_tiny/lwm2m_client/object_connectivity_stat.c ****     case RES_O_TX_DATA:
 125              		.loc 1 99 0
 126 003a B8450000 		movl	$69, %eax
 126      00
 127 003f EB6A     		jmp	.L10
 128              	.LVL13:
 129              	.L14:
 101:/home/baikal/workspace/C50/Huawei_IoT_Agent_Tiny_SDK_Linux//agent_tiny/lwm2m_client/object_connectivity_stat.c ****         return COAP_205_CONTENT;
 130              		.loc 1 101 0
 131 0041 488B4210 		movq	16(%rdx), %rax
 132 0045 488DB8FF 		leaq	1023(%rax), %rdi
 132      030000
 133 004c 4885C0   		testq	%rax, %rax
 134 004f 480F49F8 		cmovns	%rax, %rdi
 135 0053 48C1FF0A 		sarq	$10, %rdi
 136 0057 E8000000 		call	lwm2m_data_encode_int
 136      00
 137              	.LVL14:
 102:/home/baikal/workspace/C50/Huawei_IoT_Agent_Tiny_SDK_Linux//agent_tiny/lwm2m_client/object_connectivity_stat.c ****     case RES_O_RX_DATA:
 138              		.loc 1 102 0
 139 005c B8450000 		movl	$69, %eax
 139      00
 140 0061 EB48     		jmp	.L10
 141              	.LVL15:
 142              	.L15:
 104:/home/baikal/workspace/C50/Huawei_IoT_Agent_Tiny_SDK_Linux//agent_tiny/lwm2m_client/object_connectivity_stat.c ****         return COAP_205_CONTENT;
 143              		.loc 1 104 0
 144 0063 488B4218 		movq	24(%rdx), %rax
 145 0067 488DB8FF 		leaq	1023(%rax), %rdi
 145      030000
 146 006e 4885C0   		testq	%rax, %rax
 147 0071 480F49F8 		cmovns	%rax, %rdi
 148 0075 48C1FF0A 		sarq	$10, %rdi
 149 0079 E8000000 		call	lwm2m_data_encode_int
 149      00
 150              	.LVL16:
 105:/home/baikal/workspace/C50/Huawei_IoT_Agent_Tiny_SDK_Linux//agent_tiny/lwm2m_client/object_connectivity_stat.c ****     case RES_O_MAX_MESSAGE_SIZE:
 151              		.loc 1 105 0
 152 007e B8450000 		movl	$69, %eax
 152      00
 153 0083 EB26     		jmp	.L10
 154              	.LVL17:
 155              	.L16:
 107:/home/baikal/workspace/C50/Huawei_IoT_Agent_Tiny_SDK_Linux//agent_tiny/lwm2m_client/object_connectivity_stat.c ****         return COAP_205_CONTENT;
 156              		.loc 1 107 0
 157 0085 488B7A20 		movq	32(%rdx), %rdi
 158 0089 E8000000 		call	lwm2m_data_encode_int
 158      00
 159              	.LVL18:
 108:/home/baikal/workspace/C50/Huawei_IoT_Agent_Tiny_SDK_Linux//agent_tiny/lwm2m_client/object_connectivity_stat.c ****     case RES_O_AVERAGE_MESSAGE_SIZE:
 160              		.loc 1 108 0
 161 008e B8450000 		movl	$69, %eax
GAS LISTING /tmp/ccljuj5K.s 			page 8


 161      00
 162 0093 EB16     		jmp	.L10
 163              	.LVL19:
 164              	.L17:
 110:/home/baikal/workspace/C50/Huawei_IoT_Agent_Tiny_SDK_Linux//agent_tiny/lwm2m_client/object_connectivity_stat.c ****         return COAP_205_CONTENT;
 165              		.loc 1 110 0
 166 0095 488B7A28 		movq	40(%rdx), %rdi
 167 0099 E8000000 		call	lwm2m_data_encode_int
 167      00
 168              	.LVL20:
 111:/home/baikal/workspace/C50/Huawei_IoT_Agent_Tiny_SDK_Linux//agent_tiny/lwm2m_client/object_connectivity_stat.c ****     default:
 169              		.loc 1 111 0
 170 009e B8450000 		movl	$69, %eax
 170      00
 171 00a3 EB06     		jmp	.L10
 172              	.LVL21:
 173              	.L18:
 174              	.LCFI1:
 175              		.cfi_def_cfa_offset 8
 113:/home/baikal/workspace/C50/Huawei_IoT_Agent_Tiny_SDK_Linux//agent_tiny/lwm2m_client/object_connectivity_stat.c ****     }
 176              		.loc 1 113 0
 177 00a5 B884FFFF 		movl	$-124, %eax
 177      FF
 178 00aa C3       		ret
 179              	.LVL22:
 180              	.L10:
 181              	.LCFI2:
 182              		.cfi_def_cfa_offset 16
 115:/home/baikal/workspace/C50/Huawei_IoT_Agent_Tiny_SDK_Linux//agent_tiny/lwm2m_client/object_connectivity_stat.c **** 
 183              		.loc 1 115 0
 184 00ab 4883C408 		addq	$8, %rsp
 185              	.LCFI3:
 186              		.cfi_def_cfa_offset 8
 187 00af C3       		ret
 188              		.cfi_endproc
 189              	.LFE63:
 191              		.section	.text.prv_read,"ax",@progbits
 193              	prv_read:
 194              	.LFB64:
 118:/home/baikal/workspace/C50/Huawei_IoT_Agent_Tiny_SDK_Linux//agent_tiny/lwm2m_client/object_connectivity_stat.c ****     uint8_t result;
 195              		.loc 1 118 0
 196              		.cfi_startproc
 197              	.LVL23:
 123:/home/baikal/workspace/C50/Huawei_IoT_Agent_Tiny_SDK_Linux//agent_tiny/lwm2m_client/object_connectivity_stat.c ****     {
 198              		.loc 1 123 0
 199 0000 6685FF   		testw	%di, %di
 200 0003 0F85BD00 		jne	.L28
 200      0000
 118:/home/baikal/workspace/C50/Huawei_IoT_Agent_Tiny_SDK_Linux//agent_tiny/lwm2m_client/object_connectivity_stat.c ****     uint8_t result;
 201              		.loc 1 118 0
 202 0009 4155     		pushq	%r13
 203              	.LCFI4:
 204              		.cfi_def_cfa_offset 16
 205              		.cfi_offset 13, -16
 206 000b 4154     		pushq	%r12
 207              	.LCFI5:
 208              		.cfi_def_cfa_offset 24
GAS LISTING /tmp/ccljuj5K.s 			page 9


 209              		.cfi_offset 12, -24
 210 000d 55       		pushq	%rbp
 211              	.LCFI6:
 212              		.cfi_def_cfa_offset 32
 213              		.cfi_offset 6, -32
 214 000e 53       		pushq	%rbx
 215              	.LCFI7:
 216              		.cfi_def_cfa_offset 40
 217              		.cfi_offset 3, -40
 218 000f 4883EC18 		subq	$24, %rsp
 219              	.LCFI8:
 220              		.cfi_def_cfa_offset 64
 221 0013 4D89C5   		movq	%r8, %r13
 222 0016 4889D5   		movq	%rdx, %rbp
 223 0019 4989F4   		movq	%rsi, %r12
 129:/home/baikal/workspace/C50/Huawei_IoT_Agent_Tiny_SDK_Linux//agent_tiny/lwm2m_client/object_connectivity_stat.c ****     {
 224              		.loc 1 129 0
 225 001c 833E00   		cmpl	$0, (%rsi)
 226 001f 7575     		jne	.L23
 227              	.LBB6:
 131:/home/baikal/workspace/C50/Huawei_IoT_Agent_Tiny_SDK_Linux//agent_tiny/lwm2m_client/object_connectivity_stat.c ****         {
 228              		.loc 1 131 0
 229 0021 66C70424 		movw	$0, (%rsp)
 229      0000
 230 0027 66C74424 		movw	$1, 2(%rsp)
 230      020100
 231 002e 66C74424 		movw	$2, 4(%rsp)
 231      040200
 232 0035 66C74424 		movw	$3, 6(%rsp)
 232      060300
 233 003c 66C74424 		movw	$4, 8(%rsp)
 233      080400
 234 0043 66C74424 		movw	$5, 10(%rsp)
 234      0A0500
 235              	.LVL24:
 142:/home/baikal/workspace/C50/Huawei_IoT_Agent_Tiny_SDK_Linux//agent_tiny/lwm2m_client/object_connectivity_stat.c ****         if (*dataArrayP == NULL)
 236              		.loc 1 142 0
 237 004a BF060000 		movl	$6, %edi
 237      00
 238              	.LVL25:
 239 004f E8000000 		call	lwm2m_data_new
 239      00
 240              	.LVL26:
 241 0054 48894500 		movq	%rax, 0(%rbp)
 143:/home/baikal/workspace/C50/Huawei_IoT_Agent_Tiny_SDK_Linux//agent_tiny/lwm2m_client/object_connectivity_stat.c ****             return COAP_500_INTERNAL_SERVER_ERROR ;
 242              		.loc 1 143 0
 243 0058 4885C0   		testq	%rax, %rax
 244 005b 7507     		jne	.L24
 144:/home/baikal/workspace/C50/Huawei_IoT_Agent_Tiny_SDK_Linux//agent_tiny/lwm2m_client/object_connectivity_stat.c ****         *numDataP = nbRes;
 245              		.loc 1 144 0
 246 005d B8A0FFFF 		movl	$-96, %eax
 246      FF
 247 0062 EB68     		jmp	.L22
 248              	.L24:
 145:/home/baikal/workspace/C50/Huawei_IoT_Agent_Tiny_SDK_Linux//agent_tiny/lwm2m_client/object_connectivity_stat.c ****         for (i = 0; i < nbRes; i++)
 249              		.loc 1 145 0
 250 0064 41C70424 		movl	$6, (%r12)
GAS LISTING /tmp/ccljuj5K.s 			page 10


 250      06000000 
 251              	.LVL27:
 146:/home/baikal/workspace/C50/Huawei_IoT_Agent_Tiny_SDK_Linux//agent_tiny/lwm2m_client/object_connectivity_stat.c ****         {
 252              		.loc 1 146 0
 253 006c BA000000 		movl	$0, %edx
 253      00
 254 0071 EB1E     		jmp	.L25
 255              	.LVL28:
 256              	.L26:
 148:/home/baikal/workspace/C50/Huawei_IoT_Agent_Tiny_SDK_Linux//agent_tiny/lwm2m_client/object_connectivity_stat.c ****         }
 257              		.loc 1 148 0 discriminator 3
 258 0073 4863CA   		movslq	%edx, %rcx
 259 0076 488D3449 		leaq	(%rcx,%rcx,2), %rsi
 260 007a 488D04F5 		leaq	0(,%rsi,8), %rax
 260      00000000 
 261 0082 48034500 		addq	0(%rbp), %rax
 262 0086 0FB70C4C 		movzwl	(%rsp,%rcx,2), %ecx
 263 008a 66894804 		movw	%cx, 4(%rax)
 146:/home/baikal/workspace/C50/Huawei_IoT_Agent_Tiny_SDK_Linux//agent_tiny/lwm2m_client/object_connectivity_stat.c ****         {
 264              		.loc 1 146 0 discriminator 3
 265 008e 83C201   		addl	$1, %edx
 266              	.LVL29:
 267              	.L25:
 146:/home/baikal/workspace/C50/Huawei_IoT_Agent_Tiny_SDK_Linux//agent_tiny/lwm2m_client/object_connectivity_stat.c ****         {
 268              		.loc 1 146 0 is_stmt 0 discriminator 1
 269 0091 83FA05   		cmpl	$5, %edx
 270 0094 7EDD     		jle	.L26
 271              	.LVL30:
 272              	.L23:
 146:/home/baikal/workspace/C50/Huawei_IoT_Agent_Tiny_SDK_Linux//agent_tiny/lwm2m_client/object_connectivity_stat.c ****         {
 273              		.loc 1 146 0 discriminator 2
 274 0096 BB000000 		movl	$0, %ebx
 274      00
 275              	.L27:
 276              	.LVL31:
 277              	.LBE6:
 155:/home/baikal/workspace/C50/Huawei_IoT_Agent_Tiny_SDK_Linux//agent_tiny/lwm2m_client/object_connectivity_stat.c ****         i++;
 278              		.loc 1 155 0 is_stmt 1 discriminator 2
 279 009b 498B7550 		movq	80(%r13), %rsi
 280 009f 4863C3   		movslq	%ebx, %rax
 281 00a2 488D0440 		leaq	(%rax,%rax,2), %rax
 282 00a6 488D3CC5 		leaq	0(,%rax,8), %rdi
 282      00000000 
 283 00ae 48037D00 		addq	0(%rbp), %rdi
 284 00b2 E8000000 		call	prv_set_tlv
 284      00
 285              	.LVL32:
 156:/home/baikal/workspace/C50/Huawei_IoT_Agent_Tiny_SDK_Linux//agent_tiny/lwm2m_client/object_connectivity_stat.c ****     }
 286              		.loc 1 156 0 discriminator 2
 287 00b7 83C301   		addl	$1, %ebx
 288              	.LVL33:
 158:/home/baikal/workspace/C50/Huawei_IoT_Agent_Tiny_SDK_Linux//agent_tiny/lwm2m_client/object_connectivity_stat.c **** 
 289              		.loc 1 158 0 discriminator 2
 290 00ba 413B1C24 		cmpl	(%r12), %ebx
 291 00be 7D0C     		jge	.L22
 158:/home/baikal/workspace/C50/Huawei_IoT_Agent_Tiny_SDK_Linux//agent_tiny/lwm2m_client/object_connectivity_stat.c **** 
 292              		.loc 1 158 0 is_stmt 0 discriminator 1
GAS LISTING /tmp/ccljuj5K.s 			page 11


 293 00c0 3C45     		cmpb	$69, %al
 294 00c2 74D7     		je	.L27
 295 00c4 EB06     		jmp	.L22
 296              	.LVL34:
 297              	.L28:
 298              	.LCFI9:
 299              		.cfi_def_cfa_offset 8
 300              		.cfi_restore 3
 301              		.cfi_restore 6
 302              		.cfi_restore 12
 303              		.cfi_restore 13
 125:/home/baikal/workspace/C50/Huawei_IoT_Agent_Tiny_SDK_Linux//agent_tiny/lwm2m_client/object_connectivity_stat.c ****     }
 304              		.loc 1 125 0 is_stmt 1
 305 00c6 B884FFFF 		movl	$-124, %eax
 305      FF
 306 00cb C3       		ret
 307              	.LVL35:
 308              	.L22:
 309              	.LCFI10:
 310              		.cfi_def_cfa_offset 64
 311              		.cfi_offset 3, -40
 312              		.cfi_offset 6, -32
 313              		.cfi_offset 12, -24
 314              		.cfi_offset 13, -16
 161:/home/baikal/workspace/C50/Huawei_IoT_Agent_Tiny_SDK_Linux//agent_tiny/lwm2m_client/object_connectivity_stat.c **** 
 315              		.loc 1 161 0
 316 00cc 4883C418 		addq	$24, %rsp
 317              	.LCFI11:
 318              		.cfi_def_cfa_offset 40
 319 00d0 5B       		popq	%rbx
 320              	.LCFI12:
 321              		.cfi_restore 3
 322              		.cfi_def_cfa_offset 32
 323 00d1 5D       		popq	%rbp
 324              	.LCFI13:
 325              		.cfi_restore 6
 326              		.cfi_def_cfa_offset 24
 327              	.LVL36:
 328 00d2 415C     		popq	%r12
 329              	.LCFI14:
 330              		.cfi_restore 12
 331              		.cfi_def_cfa_offset 16
 332              	.LVL37:
 333 00d4 415D     		popq	%r13
 334              	.LCFI15:
 335              		.cfi_restore 13
 336              		.cfi_def_cfa_offset 8
 337              	.LVL38:
 338 00d6 C3       		ret
 339              		.cfi_endproc
 340              	.LFE64:
 342              		.section	.text.conn_s_updateTxStatistic,"ax",@progbits
 343              		.globl	conn_s_updateTxStatistic
 345              	conn_s_updateTxStatistic:
 346              	.LFB67:
 196:/home/baikal/workspace/C50/Huawei_IoT_Agent_Tiny_SDK_Linux//agent_tiny/lwm2m_client/object_connectivity_stat.c **** 
 197:/home/baikal/workspace/C50/Huawei_IoT_Agent_Tiny_SDK_Linux//agent_tiny/lwm2m_client/object_connectivity_stat.c **** void conn_s_updateTxStatistic(lwm2m_object_t *objectP, uint16_t txDataByte, bool smsBased)
GAS LISTING /tmp/ccljuj5K.s 			page 12


 198:/home/baikal/workspace/C50/Huawei_IoT_Agent_Tiny_SDK_Linux//agent_tiny/lwm2m_client/object_connectivity_stat.c **** {
 347              		.loc 1 198 0
 348              		.cfi_startproc
 349              	.LVL39:
 350 0000 4189D0   		movl	%edx, %r8d
 199:/home/baikal/workspace/C50/Huawei_IoT_Agent_Tiny_SDK_Linux//agent_tiny/lwm2m_client/object_connectivity_stat.c ****     conn_s_data_t *myData = (conn_s_data_t *) (objectP->userData);
 351              		.loc 1 199 0
 352 0003 488B4F50 		movq	80(%rdi), %rcx
 353              	.LVL40:
 200:/home/baikal/workspace/C50/Huawei_IoT_Agent_Tiny_SDK_Linux//agent_tiny/lwm2m_client/object_connectivity_stat.c ****     if (myData->collectDataStarted)
 354              		.loc 1 200 0
 355 0007 80793800 		cmpb	$0, 56(%rcx)
 356 000b 7440     		je	.L32
 201:/home/baikal/workspace/C50/Huawei_IoT_Agent_Tiny_SDK_Linux//agent_tiny/lwm2m_client/object_connectivity_stat.c ****     {
 202:/home/baikal/workspace/C50/Huawei_IoT_Agent_Tiny_SDK_Linux//agent_tiny/lwm2m_client/object_connectivity_stat.c ****         myData->txDataByte += txDataByte;
 357              		.loc 1 202 0
 358 000d 0FB7F6   		movzwl	%si, %esi
 359 0010 4889F0   		movq	%rsi, %rax
 360 0013 48034110 		addq	16(%rcx), %rax
 361 0017 48894110 		movq	%rax, 16(%rcx)
 203:/home/baikal/workspace/C50/Huawei_IoT_Agent_Tiny_SDK_Linux//agent_tiny/lwm2m_client/object_connectivity_stat.c ****         myData->messageCount++;
 362              		.loc 1 203 0
 363 001b 488B5130 		movq	48(%rcx), %rdx
 364              	.LVL41:
 365 001f 488D7A01 		leaq	1(%rdx), %rdi
 366              	.LVL42:
 367 0023 48897930 		movq	%rdi, 48(%rcx)
 204:/home/baikal/workspace/C50/Huawei_IoT_Agent_Tiny_SDK_Linux//agent_tiny/lwm2m_client/object_connectivity_stat.c ****         myData->avrMessageSize = (myData->txDataByte + myData->rxDataByte) /
 368              		.loc 1 204 0
 369 0027 48034118 		addq	24(%rcx), %rax
 370 002b 4899     		cqto
 371 002d 48F7FF   		idivq	%rdi
 372 0030 48894128 		movq	%rax, 40(%rcx)
 205:/home/baikal/workspace/C50/Huawei_IoT_Agent_Tiny_SDK_Linux//agent_tiny/lwm2m_client/object_connectivity_stat.c ****                                  myData->messageCount;
 206:/home/baikal/workspace/C50/Huawei_IoT_Agent_Tiny_SDK_Linux//agent_tiny/lwm2m_client/object_connectivity_stat.c ****         if (txDataByte > myData->maxMessageSize)
 373              		.loc 1 206 0
 374 0034 483B7120 		cmpq	32(%rcx), %rsi
 375 0038 7E04     		jle	.L34
 207:/home/baikal/workspace/C50/Huawei_IoT_Agent_Tiny_SDK_Linux//agent_tiny/lwm2m_client/object_connectivity_stat.c ****             myData->maxMessageSize = txDataByte;
 376              		.loc 1 207 0
 377 003a 48897120 		movq	%rsi, 32(%rcx)
 378              	.L34:
 208:/home/baikal/workspace/C50/Huawei_IoT_Agent_Tiny_SDK_Linux//agent_tiny/lwm2m_client/object_connectivity_stat.c ****         if (smsBased) myData->smsTxCounter++;
 379              		.loc 1 208 0
 380 003e 4584C0   		testb	%r8b, %r8b
 381 0041 740A     		je	.L32
 382              		.loc 1 208 0 is_stmt 0 discriminator 1
 383 0043 488B01   		movq	(%rcx), %rax
 384 0046 4883C001 		addq	$1, %rax
 385 004a 488901   		movq	%rax, (%rcx)
 386              	.LVL43:
 387              	.L32:
 388 004d F3C3     		rep ret
 389              		.cfi_endproc
 390              	.LFE67:
 392              		.section	.text.conn_s_updateRxStatistic,"ax",@progbits
 393              		.globl	conn_s_updateRxStatistic
GAS LISTING /tmp/ccljuj5K.s 			page 13


 395              	conn_s_updateRxStatistic:
 396              	.LFB68:
 209:/home/baikal/workspace/C50/Huawei_IoT_Agent_Tiny_SDK_Linux//agent_tiny/lwm2m_client/object_connectivity_stat.c ****     }
 210:/home/baikal/workspace/C50/Huawei_IoT_Agent_Tiny_SDK_Linux//agent_tiny/lwm2m_client/object_connectivity_stat.c **** }
 211:/home/baikal/workspace/C50/Huawei_IoT_Agent_Tiny_SDK_Linux//agent_tiny/lwm2m_client/object_connectivity_stat.c **** 
 212:/home/baikal/workspace/C50/Huawei_IoT_Agent_Tiny_SDK_Linux//agent_tiny/lwm2m_client/object_connectivity_stat.c **** void conn_s_updateRxStatistic(lwm2m_object_t *objectP, uint16_t rxDataByte, bool smsBased)
 213:/home/baikal/workspace/C50/Huawei_IoT_Agent_Tiny_SDK_Linux//agent_tiny/lwm2m_client/object_connectivity_stat.c **** {
 397              		.loc 1 213 0 is_stmt 1
 398              		.cfi_startproc
 399              	.LVL44:
 400 0000 4189D1   		movl	%edx, %r9d
 214:/home/baikal/workspace/C50/Huawei_IoT_Agent_Tiny_SDK_Linux//agent_tiny/lwm2m_client/object_connectivity_stat.c ****     conn_s_data_t *myData = (conn_s_data_t *) (objectP->userData);
 401              		.loc 1 214 0
 402 0003 488B4F50 		movq	80(%rdi), %rcx
 403              	.LVL45:
 215:/home/baikal/workspace/C50/Huawei_IoT_Agent_Tiny_SDK_Linux//agent_tiny/lwm2m_client/object_connectivity_stat.c ****     if (myData->collectDataStarted)
 404              		.loc 1 215 0
 405 0007 80793800 		cmpb	$0, 56(%rcx)
 406 000b 744C     		je	.L35
 216:/home/baikal/workspace/C50/Huawei_IoT_Agent_Tiny_SDK_Linux//agent_tiny/lwm2m_client/object_connectivity_stat.c ****     {
 217:/home/baikal/workspace/C50/Huawei_IoT_Agent_Tiny_SDK_Linux//agent_tiny/lwm2m_client/object_connectivity_stat.c ****         myData->rxDataByte += rxDataByte;
 407              		.loc 1 217 0
 408 000d 0FB7F6   		movzwl	%si, %esi
 409 0010 4889F0   		movq	%rsi, %rax
 410 0013 48034118 		addq	24(%rcx), %rax
 411 0017 48894118 		movq	%rax, 24(%rcx)
 218:/home/baikal/workspace/C50/Huawei_IoT_Agent_Tiny_SDK_Linux//agent_tiny/lwm2m_client/object_connectivity_stat.c ****         myData->messageCount++;
 412              		.loc 1 218 0
 413 001b 488B5130 		movq	48(%rcx), %rdx
 414              	.LVL46:
 415 001f 488D7A01 		leaq	1(%rdx), %rdi
 416              	.LVL47:
 417 0023 48897930 		movq	%rdi, 48(%rcx)
 219:/home/baikal/workspace/C50/Huawei_IoT_Agent_Tiny_SDK_Linux//agent_tiny/lwm2m_client/object_connectivity_stat.c ****         myData->avrMessageSize = (myData->txDataByte + myData->rxDataByte) /
 418              		.loc 1 219 0
 419 0027 4C8B4110 		movq	16(%rcx), %r8
 420 002b 4C01C0   		addq	%r8, %rax
 421 002e 4899     		cqto
 422 0030 48F7FF   		idivq	%rdi
 423 0033 48894128 		movq	%rax, 40(%rcx)
 220:/home/baikal/workspace/C50/Huawei_IoT_Agent_Tiny_SDK_Linux//agent_tiny/lwm2m_client/object_connectivity_stat.c ****                                  myData->messageCount;
 221:/home/baikal/workspace/C50/Huawei_IoT_Agent_Tiny_SDK_Linux//agent_tiny/lwm2m_client/object_connectivity_stat.c ****         if (rxDataByte > myData->maxMessageSize)
 424              		.loc 1 221 0
 425 0037 483B7120 		cmpq	32(%rcx), %rsi
 426 003b 7E04     		jle	.L37
 222:/home/baikal/workspace/C50/Huawei_IoT_Agent_Tiny_SDK_Linux//agent_tiny/lwm2m_client/object_connectivity_stat.c ****             myData->maxMessageSize = rxDataByte;
 427              		.loc 1 222 0
 428 003d 48897120 		movq	%rsi, 32(%rcx)
 429              	.L37:
 223:/home/baikal/workspace/C50/Huawei_IoT_Agent_Tiny_SDK_Linux//agent_tiny/lwm2m_client/object_connectivity_stat.c ****         myData->txDataByte += rxDataByte;
 430              		.loc 1 223 0
 431 0041 4C01C6   		addq	%r8, %rsi
 432              	.LVL48:
 433 0044 48897110 		movq	%rsi, 16(%rcx)
 224:/home/baikal/workspace/C50/Huawei_IoT_Agent_Tiny_SDK_Linux//agent_tiny/lwm2m_client/object_connectivity_stat.c ****         if (smsBased) myData->smsRxCounter++;
 434              		.loc 1 224 0
 435 0048 4584C9   		testb	%r9b, %r9b
GAS LISTING /tmp/ccljuj5K.s 			page 14


 436 004b 740C     		je	.L35
 437              		.loc 1 224 0 is_stmt 0 discriminator 1
 438 004d 488B4108 		movq	8(%rcx), %rax
 439 0051 4883C001 		addq	$1, %rax
 440 0055 48894108 		movq	%rax, 8(%rcx)
 441              	.L35:
 442 0059 F3C3     		rep ret
 443              		.cfi_endproc
 444              	.LFE68:
 446              		.section	.text.get_object_conn_s,"ax",@progbits
 447              		.globl	get_object_conn_s
 449              	get_object_conn_s:
 450              	.LFB69:
 225:/home/baikal/workspace/C50/Huawei_IoT_Agent_Tiny_SDK_Linux//agent_tiny/lwm2m_client/object_connectivity_stat.c ****     }
 226:/home/baikal/workspace/C50/Huawei_IoT_Agent_Tiny_SDK_Linux//agent_tiny/lwm2m_client/object_connectivity_stat.c **** }
 227:/home/baikal/workspace/C50/Huawei_IoT_Agent_Tiny_SDK_Linux//agent_tiny/lwm2m_client/object_connectivity_stat.c **** 
 228:/home/baikal/workspace/C50/Huawei_IoT_Agent_Tiny_SDK_Linux//agent_tiny/lwm2m_client/object_connectivity_stat.c **** 
 229:/home/baikal/workspace/C50/Huawei_IoT_Agent_Tiny_SDK_Linux//agent_tiny/lwm2m_client/object_connectivity_stat.c **** lwm2m_object_t *get_object_conn_s(void)
 230:/home/baikal/workspace/C50/Huawei_IoT_Agent_Tiny_SDK_Linux//agent_tiny/lwm2m_client/object_connectivity_stat.c **** {
 451              		.loc 1 230 0 is_stmt 1
 452              		.cfi_startproc
 453 0000 53       		pushq	%rbx
 454              	.LCFI16:
 455              		.cfi_def_cfa_offset 16
 456              		.cfi_offset 3, -16
 231:/home/baikal/workspace/C50/Huawei_IoT_Agent_Tiny_SDK_Linux//agent_tiny/lwm2m_client/object_connectivity_stat.c ****     /*
 232:/home/baikal/workspace/C50/Huawei_IoT_Agent_Tiny_SDK_Linux//agent_tiny/lwm2m_client/object_connectivity_stat.c ****      * The get_object_conn_s() function create the object itself and return
 233:/home/baikal/workspace/C50/Huawei_IoT_Agent_Tiny_SDK_Linux//agent_tiny/lwm2m_client/object_connectivity_stat.c ****      * a pointer to the structure that represent it.
 234:/home/baikal/workspace/C50/Huawei_IoT_Agent_Tiny_SDK_Linux//agent_tiny/lwm2m_client/object_connectivity_stat.c ****      */
 235:/home/baikal/workspace/C50/Huawei_IoT_Agent_Tiny_SDK_Linux//agent_tiny/lwm2m_client/object_connectivity_stat.c ****     lwm2m_object_t *connObj;
 236:/home/baikal/workspace/C50/Huawei_IoT_Agent_Tiny_SDK_Linux//agent_tiny/lwm2m_client/object_connectivity_stat.c **** 
 237:/home/baikal/workspace/C50/Huawei_IoT_Agent_Tiny_SDK_Linux//agent_tiny/lwm2m_client/object_connectivity_stat.c ****     connObj = (lwm2m_object_t *) lwm2m_malloc(sizeof(lwm2m_object_t));
 457              		.loc 1 237 0
 458 0001 BF580000 		movl	$88, %edi
 458      00
 459 0006 E8000000 		call	lwm2m_malloc
 459      00
 460              	.LVL49:
 461 000b 4889C3   		movq	%rax, %rbx
 462              	.LVL50:
 238:/home/baikal/workspace/C50/Huawei_IoT_Agent_Tiny_SDK_Linux//agent_tiny/lwm2m_client/object_connectivity_stat.c **** 
 239:/home/baikal/workspace/C50/Huawei_IoT_Agent_Tiny_SDK_Linux//agent_tiny/lwm2m_client/object_connectivity_stat.c ****     if (NULL != connObj)
 463              		.loc 1 239 0
 464 000e 4885C0   		testq	%rax, %rax
 465 0011 0F84AA00 		je	.L43
 465      0000
 466              	.LVL51:
 467              	.LBB7:
 468              	.LBB8:
 469              		.file 2 "/usr/include/x86_64-linux-gnu/bits/string3.h"
   1:/usr/include/x86_64-linux-gnu/bits/string3.h **** /* Copyright (C) 2004-2016 Free Software Foundation, Inc.
   2:/usr/include/x86_64-linux-gnu/bits/string3.h ****    This file is part of the GNU C Library.
   3:/usr/include/x86_64-linux-gnu/bits/string3.h **** 
   4:/usr/include/x86_64-linux-gnu/bits/string3.h ****    The GNU C Library is free software; you can redistribute it and/or
   5:/usr/include/x86_64-linux-gnu/bits/string3.h ****    modify it under the terms of the GNU Lesser General Public
   6:/usr/include/x86_64-linux-gnu/bits/string3.h ****    License as published by the Free Software Foundation; either
   7:/usr/include/x86_64-linux-gnu/bits/string3.h ****    version 2.1 of the License, or (at your option) any later version.
GAS LISTING /tmp/ccljuj5K.s 			page 15


   8:/usr/include/x86_64-linux-gnu/bits/string3.h **** 
   9:/usr/include/x86_64-linux-gnu/bits/string3.h ****    The GNU C Library is distributed in the hope that it will be useful,
  10:/usr/include/x86_64-linux-gnu/bits/string3.h ****    but WITHOUT ANY WARRANTY; without even the implied warranty of
  11:/usr/include/x86_64-linux-gnu/bits/string3.h ****    MERCHANTABILITY or FITNESS FOR A PARTICULAR PURPOSE.  See the GNU
  12:/usr/include/x86_64-linux-gnu/bits/string3.h ****    Lesser General Public License for more details.
  13:/usr/include/x86_64-linux-gnu/bits/string3.h **** 
  14:/usr/include/x86_64-linux-gnu/bits/string3.h ****    You should have received a copy of the GNU Lesser General Public
  15:/usr/include/x86_64-linux-gnu/bits/string3.h ****    License along with the GNU C Library; if not, see
  16:/usr/include/x86_64-linux-gnu/bits/string3.h ****    <http://www.gnu.org/licenses/>.  */
  17:/usr/include/x86_64-linux-gnu/bits/string3.h **** 
  18:/usr/include/x86_64-linux-gnu/bits/string3.h **** #ifndef _STRING_H
  19:/usr/include/x86_64-linux-gnu/bits/string3.h **** # error "Never use <bits/string3.h> directly; include <string.h> instead."
  20:/usr/include/x86_64-linux-gnu/bits/string3.h **** #endif
  21:/usr/include/x86_64-linux-gnu/bits/string3.h **** 
  22:/usr/include/x86_64-linux-gnu/bits/string3.h **** #if !__GNUC_PREREQ (5,0)
  23:/usr/include/x86_64-linux-gnu/bits/string3.h **** __warndecl (__warn_memset_zero_len,
  24:/usr/include/x86_64-linux-gnu/bits/string3.h **** 	    "memset used with constant zero length parameter; this could be due to transposed parameters")
  25:/usr/include/x86_64-linux-gnu/bits/string3.h **** #endif
  26:/usr/include/x86_64-linux-gnu/bits/string3.h **** 
  27:/usr/include/x86_64-linux-gnu/bits/string3.h **** #ifndef __cplusplus
  28:/usr/include/x86_64-linux-gnu/bits/string3.h **** /* XXX This is temporarily.  We should not redefine any of the symbols
  29:/usr/include/x86_64-linux-gnu/bits/string3.h ****    and instead integrate the error checking into the original
  30:/usr/include/x86_64-linux-gnu/bits/string3.h ****    definitions.  */
  31:/usr/include/x86_64-linux-gnu/bits/string3.h **** # undef memcpy
  32:/usr/include/x86_64-linux-gnu/bits/string3.h **** # undef memmove
  33:/usr/include/x86_64-linux-gnu/bits/string3.h **** # undef memset
  34:/usr/include/x86_64-linux-gnu/bits/string3.h **** # undef strcat
  35:/usr/include/x86_64-linux-gnu/bits/string3.h **** # undef strcpy
  36:/usr/include/x86_64-linux-gnu/bits/string3.h **** # undef strncat
  37:/usr/include/x86_64-linux-gnu/bits/string3.h **** # undef strncpy
  38:/usr/include/x86_64-linux-gnu/bits/string3.h **** # ifdef __USE_GNU
  39:/usr/include/x86_64-linux-gnu/bits/string3.h **** #  undef mempcpy
  40:/usr/include/x86_64-linux-gnu/bits/string3.h **** #  undef stpcpy
  41:/usr/include/x86_64-linux-gnu/bits/string3.h **** # endif
  42:/usr/include/x86_64-linux-gnu/bits/string3.h **** # ifdef __USE_MISC
  43:/usr/include/x86_64-linux-gnu/bits/string3.h **** #  undef bcopy
  44:/usr/include/x86_64-linux-gnu/bits/string3.h **** #  undef bzero
  45:/usr/include/x86_64-linux-gnu/bits/string3.h **** # endif
  46:/usr/include/x86_64-linux-gnu/bits/string3.h **** #endif
  47:/usr/include/x86_64-linux-gnu/bits/string3.h **** 
  48:/usr/include/x86_64-linux-gnu/bits/string3.h **** 
  49:/usr/include/x86_64-linux-gnu/bits/string3.h **** __fortify_function void *
  50:/usr/include/x86_64-linux-gnu/bits/string3.h **** __NTH (memcpy (void *__restrict __dest, const void *__restrict __src,
  51:/usr/include/x86_64-linux-gnu/bits/string3.h **** 	       size_t __len))
  52:/usr/include/x86_64-linux-gnu/bits/string3.h **** {
  53:/usr/include/x86_64-linux-gnu/bits/string3.h ****   return __builtin___memcpy_chk (__dest, __src, __len, __bos0 (__dest));
  54:/usr/include/x86_64-linux-gnu/bits/string3.h **** }
  55:/usr/include/x86_64-linux-gnu/bits/string3.h **** 
  56:/usr/include/x86_64-linux-gnu/bits/string3.h **** __fortify_function void *
  57:/usr/include/x86_64-linux-gnu/bits/string3.h **** __NTH (memmove (void *__dest, const void *__src, size_t __len))
  58:/usr/include/x86_64-linux-gnu/bits/string3.h **** {
  59:/usr/include/x86_64-linux-gnu/bits/string3.h ****   return __builtin___memmove_chk (__dest, __src, __len, __bos0 (__dest));
  60:/usr/include/x86_64-linux-gnu/bits/string3.h **** }
  61:/usr/include/x86_64-linux-gnu/bits/string3.h **** 
  62:/usr/include/x86_64-linux-gnu/bits/string3.h **** #ifdef __USE_GNU
  63:/usr/include/x86_64-linux-gnu/bits/string3.h **** __fortify_function void *
  64:/usr/include/x86_64-linux-gnu/bits/string3.h **** __NTH (mempcpy (void *__restrict __dest, const void *__restrict __src,
GAS LISTING /tmp/ccljuj5K.s 			page 16


  65:/usr/include/x86_64-linux-gnu/bits/string3.h **** 		size_t __len))
  66:/usr/include/x86_64-linux-gnu/bits/string3.h **** {
  67:/usr/include/x86_64-linux-gnu/bits/string3.h ****   return __builtin___mempcpy_chk (__dest, __src, __len, __bos0 (__dest));
  68:/usr/include/x86_64-linux-gnu/bits/string3.h **** }
  69:/usr/include/x86_64-linux-gnu/bits/string3.h **** #endif
  70:/usr/include/x86_64-linux-gnu/bits/string3.h **** 
  71:/usr/include/x86_64-linux-gnu/bits/string3.h **** 
  72:/usr/include/x86_64-linux-gnu/bits/string3.h **** /* The first two tests here help to catch a somewhat common problem
  73:/usr/include/x86_64-linux-gnu/bits/string3.h ****    where the second and third parameter are transposed.  This is
  74:/usr/include/x86_64-linux-gnu/bits/string3.h ****    especially problematic if the intended fill value is zero.  In this
  75:/usr/include/x86_64-linux-gnu/bits/string3.h ****    case no work is done at all.  We detect these problems by referring
  76:/usr/include/x86_64-linux-gnu/bits/string3.h ****    non-existing functions.  */
  77:/usr/include/x86_64-linux-gnu/bits/string3.h **** __fortify_function void *
  78:/usr/include/x86_64-linux-gnu/bits/string3.h **** __NTH (memset (void *__dest, int __ch, size_t __len))
  79:/usr/include/x86_64-linux-gnu/bits/string3.h **** {
  80:/usr/include/x86_64-linux-gnu/bits/string3.h ****   /* GCC-5.0 and newer implements these checks in the compiler, so we don't
  81:/usr/include/x86_64-linux-gnu/bits/string3.h ****      need them here.  */
  82:/usr/include/x86_64-linux-gnu/bits/string3.h **** #if !__GNUC_PREREQ (5,0)
  83:/usr/include/x86_64-linux-gnu/bits/string3.h ****   if (__builtin_constant_p (__len) && __len == 0
  84:/usr/include/x86_64-linux-gnu/bits/string3.h ****       && (!__builtin_constant_p (__ch) || __ch != 0))
  85:/usr/include/x86_64-linux-gnu/bits/string3.h ****     {
  86:/usr/include/x86_64-linux-gnu/bits/string3.h ****       __warn_memset_zero_len ();
  87:/usr/include/x86_64-linux-gnu/bits/string3.h ****       return __dest;
  88:/usr/include/x86_64-linux-gnu/bits/string3.h ****     }
  89:/usr/include/x86_64-linux-gnu/bits/string3.h **** #endif
  90:/usr/include/x86_64-linux-gnu/bits/string3.h ****   return __builtin___memset_chk (__dest, __ch, __len, __bos0 (__dest));
 470              		.loc 2 90 0
 471 0017 48C70000 		movq	$0, (%rax)
 471      000000
 472 001e 48C74050 		movq	$0, 80(%rax)
 472      00000000 
 473 0026 488D7808 		leaq	8(%rax), %rdi
 474 002a 4883E7F8 		andq	$-8, %rdi
 475 002e 4889C1   		movq	%rax, %rcx
 476 0031 4829F9   		subq	%rdi, %rcx
 477 0034 83C158   		addl	$88, %ecx
 478 0037 C1E903   		shrl	$3, %ecx
 479 003a 89C9     		movl	%ecx, %ecx
 480 003c B8000000 		movl	$0, %eax
 480      00
 481              	.LVL52:
 482 0041 F348AB   		rep stosq
 483              	.LVL53:
 484              	.LBE8:
 485              	.LBE7:
 240:/home/baikal/workspace/C50/Huawei_IoT_Agent_Tiny_SDK_Linux//agent_tiny/lwm2m_client/object_connectivity_stat.c ****     {
 241:/home/baikal/workspace/C50/Huawei_IoT_Agent_Tiny_SDK_Linux//agent_tiny/lwm2m_client/object_connectivity_stat.c ****         memset(connObj, 0, sizeof(lwm2m_object_t));
 242:/home/baikal/workspace/C50/Huawei_IoT_Agent_Tiny_SDK_Linux//agent_tiny/lwm2m_client/object_connectivity_stat.c **** 
 243:/home/baikal/workspace/C50/Huawei_IoT_Agent_Tiny_SDK_Linux//agent_tiny/lwm2m_client/object_connectivity_stat.c ****         /*
 244:/home/baikal/workspace/C50/Huawei_IoT_Agent_Tiny_SDK_Linux//agent_tiny/lwm2m_client/object_connectivity_stat.c ****          * It assign his unique ID
 245:/home/baikal/workspace/C50/Huawei_IoT_Agent_Tiny_SDK_Linux//agent_tiny/lwm2m_client/object_connectivity_stat.c ****          * The 7 is the standard ID for the optional object "Connectivity Statistics".
 246:/home/baikal/workspace/C50/Huawei_IoT_Agent_Tiny_SDK_Linux//agent_tiny/lwm2m_client/object_connectivity_stat.c ****          */
 247:/home/baikal/workspace/C50/Huawei_IoT_Agent_Tiny_SDK_Linux//agent_tiny/lwm2m_client/object_connectivity_stat.c ****         connObj->objID = LWM2M_CONN_STATS_OBJECT_ID;
 486              		.loc 1 247 0
 487 0044 66C74308 		movw	$7, 8(%rbx)
 487      0700
 248:/home/baikal/workspace/C50/Huawei_IoT_Agent_Tiny_SDK_Linux//agent_tiny/lwm2m_client/object_connectivity_stat.c ****         connObj->instanceList = lwm2m_malloc(sizeof(lwm2m_list_t));
GAS LISTING /tmp/ccljuj5K.s 			page 17


 488              		.loc 1 248 0
 489 004a BF100000 		movl	$16, %edi
 489      00
 490 004f E8000000 		call	lwm2m_malloc
 490      00
 491              	.LVL54:
 492 0054 48894310 		movq	%rax, 16(%rbx)
 249:/home/baikal/workspace/C50/Huawei_IoT_Agent_Tiny_SDK_Linux//agent_tiny/lwm2m_client/object_connectivity_stat.c ****         if (NULL != connObj->instanceList)
 493              		.loc 1 249 0
 494 0058 4885C0   		testq	%rax, %rax
 495 005b 7434     		je	.L40
 496              	.LVL55:
 497              	.LBB9:
 498              	.LBB10:
 499              		.loc 2 90 0
 500 005d 48C70000 		movq	$0, (%rax)
 500      000000
 501 0064 48C74008 		movq	$0, 8(%rax)
 501      00000000 
 502              	.LVL56:
 503              	.LBE10:
 504              	.LBE9:
 250:/home/baikal/workspace/C50/Huawei_IoT_Agent_Tiny_SDK_Linux//agent_tiny/lwm2m_client/object_connectivity_stat.c ****         {
 251:/home/baikal/workspace/C50/Huawei_IoT_Agent_Tiny_SDK_Linux//agent_tiny/lwm2m_client/object_connectivity_stat.c ****             memset(connObj->instanceList, 0, sizeof(lwm2m_list_t));
 252:/home/baikal/workspace/C50/Huawei_IoT_Agent_Tiny_SDK_Linux//agent_tiny/lwm2m_client/object_connectivity_stat.c ****         }
 253:/home/baikal/workspace/C50/Huawei_IoT_Agent_Tiny_SDK_Linux//agent_tiny/lwm2m_client/object_connectivity_stat.c ****         else
 254:/home/baikal/workspace/C50/Huawei_IoT_Agent_Tiny_SDK_Linux//agent_tiny/lwm2m_client/object_connectivity_stat.c ****         {
 255:/home/baikal/workspace/C50/Huawei_IoT_Agent_Tiny_SDK_Linux//agent_tiny/lwm2m_client/object_connectivity_stat.c ****             lwm2m_free(connObj);
 256:/home/baikal/workspace/C50/Huawei_IoT_Agent_Tiny_SDK_Linux//agent_tiny/lwm2m_client/object_connectivity_stat.c ****             return NULL;
 257:/home/baikal/workspace/C50/Huawei_IoT_Agent_Tiny_SDK_Linux//agent_tiny/lwm2m_client/object_connectivity_stat.c ****         }
 258:/home/baikal/workspace/C50/Huawei_IoT_Agent_Tiny_SDK_Linux//agent_tiny/lwm2m_client/object_connectivity_stat.c **** 
 259:/home/baikal/workspace/C50/Huawei_IoT_Agent_Tiny_SDK_Linux//agent_tiny/lwm2m_client/object_connectivity_stat.c ****         /*
 260:/home/baikal/workspace/C50/Huawei_IoT_Agent_Tiny_SDK_Linux//agent_tiny/lwm2m_client/object_connectivity_stat.c ****          * And the private function that will access the object.
 261:/home/baikal/workspace/C50/Huawei_IoT_Agent_Tiny_SDK_Linux//agent_tiny/lwm2m_client/object_connectivity_stat.c ****          * Those function will be called when a read/execute/close
 262:/home/baikal/workspace/C50/Huawei_IoT_Agent_Tiny_SDK_Linux//agent_tiny/lwm2m_client/object_connectivity_stat.c ****          * query is made by the server or core. In fact the library don't need
 263:/home/baikal/workspace/C50/Huawei_IoT_Agent_Tiny_SDK_Linux//agent_tiny/lwm2m_client/object_connectivity_stat.c ****          * to know the resources of the object, only the server does.
 264:/home/baikal/workspace/C50/Huawei_IoT_Agent_Tiny_SDK_Linux//agent_tiny/lwm2m_client/object_connectivity_stat.c ****          */
 265:/home/baikal/workspace/C50/Huawei_IoT_Agent_Tiny_SDK_Linux//agent_tiny/lwm2m_client/object_connectivity_stat.c ****         connObj->readFunc     = prv_read;
 505              		.loc 1 265 0
 506 006c 48C74318 		movq	$prv_read, 24(%rbx)
 506      00000000 
 266:/home/baikal/workspace/C50/Huawei_IoT_Agent_Tiny_SDK_Linux//agent_tiny/lwm2m_client/object_connectivity_stat.c ****         connObj->executeFunc  = prv_exec;
 507              		.loc 1 266 0
 508 0074 48C74328 		movq	$prv_exec, 40(%rbx)
 508      00000000 
 267:/home/baikal/workspace/C50/Huawei_IoT_Agent_Tiny_SDK_Linux//agent_tiny/lwm2m_client/object_connectivity_stat.c ****         connObj->userData     = lwm2m_malloc(sizeof(conn_s_data_t));
 509              		.loc 1 267 0
 510 007c BF400000 		movl	$64, %edi
 510      00
 511 0081 E8000000 		call	lwm2m_malloc
 511      00
 512              	.LVL57:
 513 0086 48894350 		movq	%rax, 80(%rbx)
 268:/home/baikal/workspace/C50/Huawei_IoT_Agent_Tiny_SDK_Linux//agent_tiny/lwm2m_client/object_connectivity_stat.c **** 
 269:/home/baikal/workspace/C50/Huawei_IoT_Agent_Tiny_SDK_Linux//agent_tiny/lwm2m_client/object_connectivity_stat.c ****         /*
 270:/home/baikal/workspace/C50/Huawei_IoT_Agent_Tiny_SDK_Linux//agent_tiny/lwm2m_client/object_connectivity_stat.c ****          * Also some user data can be stored in the object with a private
 271:/home/baikal/workspace/C50/Huawei_IoT_Agent_Tiny_SDK_Linux//agent_tiny/lwm2m_client/object_connectivity_stat.c ****          * structure containing the needed variables.
GAS LISTING /tmp/ccljuj5K.s 			page 18


 272:/home/baikal/workspace/C50/Huawei_IoT_Agent_Tiny_SDK_Linux//agent_tiny/lwm2m_client/object_connectivity_stat.c ****          */
 273:/home/baikal/workspace/C50/Huawei_IoT_Agent_Tiny_SDK_Linux//agent_tiny/lwm2m_client/object_connectivity_stat.c ****         if (NULL != connObj->userData)
 514              		.loc 1 273 0
 515 008a 4885C0   		testq	%rax, %rax
 516 008d 7511     		jne	.L41
 517 008f EB21     		jmp	.L44
 518              	.L40:
 255:/home/baikal/workspace/C50/Huawei_IoT_Agent_Tiny_SDK_Linux//agent_tiny/lwm2m_client/object_connectivity_stat.c ****             return NULL;
 519              		.loc 1 255 0
 520 0091 4889DF   		movq	%rbx, %rdi
 521 0094 E8000000 		call	lwm2m_free
 521      00
 522              	.LVL58:
 256:/home/baikal/workspace/C50/Huawei_IoT_Agent_Tiny_SDK_Linux//agent_tiny/lwm2m_client/object_connectivity_stat.c ****         }
 523              		.loc 1 256 0
 524 0099 B8000000 		movl	$0, %eax
 524      00
 525 009e EB21     		jmp	.L39
 526              	.L41:
 274:/home/baikal/workspace/C50/Huawei_IoT_Agent_Tiny_SDK_Linux//agent_tiny/lwm2m_client/object_connectivity_stat.c ****         {
 275:/home/baikal/workspace/C50/Huawei_IoT_Agent_Tiny_SDK_Linux//agent_tiny/lwm2m_client/object_connectivity_stat.c ****             prv_resetCounter(connObj, false);
 527              		.loc 1 275 0
 528 00a0 BE000000 		movl	$0, %esi
 528      00
 529 00a5 4889DF   		movq	%rbx, %rdi
 530 00a8 E8000000 		call	prv_resetCounter
 530      00
 531              	.LVL59:
 237:/home/baikal/workspace/C50/Huawei_IoT_Agent_Tiny_SDK_Linux//agent_tiny/lwm2m_client/object_connectivity_stat.c **** 
 532              		.loc 1 237 0
 533 00ad 4889D8   		movq	%rbx, %rax
 534 00b0 EB0F     		jmp	.L39
 535              	.L44:
 276:/home/baikal/workspace/C50/Huawei_IoT_Agent_Tiny_SDK_Linux//agent_tiny/lwm2m_client/object_connectivity_stat.c ****         }
 277:/home/baikal/workspace/C50/Huawei_IoT_Agent_Tiny_SDK_Linux//agent_tiny/lwm2m_client/object_connectivity_stat.c ****         else
 278:/home/baikal/workspace/C50/Huawei_IoT_Agent_Tiny_SDK_Linux//agent_tiny/lwm2m_client/object_connectivity_stat.c ****         {
 279:/home/baikal/workspace/C50/Huawei_IoT_Agent_Tiny_SDK_Linux//agent_tiny/lwm2m_client/object_connectivity_stat.c ****             lwm2m_free(connObj);
 536              		.loc 1 279 0
 537 00b2 4889DF   		movq	%rbx, %rdi
 538 00b5 E8000000 		call	lwm2m_free
 538      00
 539              	.LVL60:
 280:/home/baikal/workspace/C50/Huawei_IoT_Agent_Tiny_SDK_Linux//agent_tiny/lwm2m_client/object_connectivity_stat.c ****             connObj = NULL;
 540              		.loc 1 280 0
 541 00ba B8000000 		movl	$0, %eax
 541      00
 542 00bf EB00     		jmp	.L39
 543              	.LVL61:
 544              	.L43:
 545              	.L39:
 281:/home/baikal/workspace/C50/Huawei_IoT_Agent_Tiny_SDK_Linux//agent_tiny/lwm2m_client/object_connectivity_stat.c ****         }
 282:/home/baikal/workspace/C50/Huawei_IoT_Agent_Tiny_SDK_Linux//agent_tiny/lwm2m_client/object_connectivity_stat.c ****     }
 283:/home/baikal/workspace/C50/Huawei_IoT_Agent_Tiny_SDK_Linux//agent_tiny/lwm2m_client/object_connectivity_stat.c ****     return connObj;
 284:/home/baikal/workspace/C50/Huawei_IoT_Agent_Tiny_SDK_Linux//agent_tiny/lwm2m_client/object_connectivity_stat.c **** }
 546              		.loc 1 284 0
 547 00c1 5B       		popq	%rbx
 548              	.LCFI17:
GAS LISTING /tmp/ccljuj5K.s 			page 19


 549              		.cfi_def_cfa_offset 8
 550 00c2 C3       		ret
 551              		.cfi_endproc
 552              	.LFE69:
 554              		.section	.text.free_object_conn_s,"ax",@progbits
 555              		.globl	free_object_conn_s
 557              	free_object_conn_s:
 558              	.LFB70:
 285:/home/baikal/workspace/C50/Huawei_IoT_Agent_Tiny_SDK_Linux//agent_tiny/lwm2m_client/object_connectivity_stat.c **** 
 286:/home/baikal/workspace/C50/Huawei_IoT_Agent_Tiny_SDK_Linux//agent_tiny/lwm2m_client/object_connectivity_stat.c **** void free_object_conn_s(lwm2m_object_t *objectP)
 287:/home/baikal/workspace/C50/Huawei_IoT_Agent_Tiny_SDK_Linux//agent_tiny/lwm2m_client/object_connectivity_stat.c **** {
 559              		.loc 1 287 0
 560              		.cfi_startproc
 561              	.LVL62:
 562 0000 53       		pushq	%rbx
 563              	.LCFI18:
 564              		.cfi_def_cfa_offset 16
 565              		.cfi_offset 3, -16
 566 0001 4889FB   		movq	%rdi, %rbx
 288:/home/baikal/workspace/C50/Huawei_IoT_Agent_Tiny_SDK_Linux//agent_tiny/lwm2m_client/object_connectivity_stat.c ****     lwm2m_free(objectP->userData);
 567              		.loc 1 288 0
 568 0004 488B7F50 		movq	80(%rdi), %rdi
 569              	.LVL63:
 570 0008 E8000000 		call	lwm2m_free
 570      00
 571              	.LVL64:
 289:/home/baikal/workspace/C50/Huawei_IoT_Agent_Tiny_SDK_Linux//agent_tiny/lwm2m_client/object_connectivity_stat.c ****     lwm2m_list_free(objectP->instanceList);
 572              		.loc 1 289 0
 573 000d 488B7B10 		movq	16(%rbx), %rdi
 574 0011 E8000000 		call	lwm2m_list_free
 574      00
 575              	.LVL65:
 290:/home/baikal/workspace/C50/Huawei_IoT_Agent_Tiny_SDK_Linux//agent_tiny/lwm2m_client/object_connectivity_stat.c ****     lwm2m_free(objectP);
 576              		.loc 1 290 0
 577 0016 4889DF   		movq	%rbx, %rdi
 578 0019 E8000000 		call	lwm2m_free
 578      00
 579              	.LVL66:
 291:/home/baikal/workspace/C50/Huawei_IoT_Agent_Tiny_SDK_Linux//agent_tiny/lwm2m_client/object_connectivity_stat.c **** }
 580              		.loc 1 291 0
 581 001e 5B       		popq	%rbx
 582              	.LCFI19:
 583              		.cfi_def_cfa_offset 8
 584              	.LVL67:
 585 001f C3       		ret
 586              		.cfi_endproc
 587              	.LFE70:
 589              		.text
 590              	.Letext0:
 591              		.file 3 "/usr/include/stdint.h"
 592              		.file 4 "/usr/lib/gcc/x86_64-linux-gnu/5/include/stddef.h"
 593              		.file 5 "/usr/include/x86_64-linux-gnu/bits/types.h"
 594              		.file 6 "/usr/include/libio.h"
 595              		.file 7 "/home/baikal/workspace/C50/Huawei_IoT_Agent_Tiny_SDK_Linux//lwm2m/core/liblwm2m.h"
 596              		.file 8 "/usr/include/stdio.h"
GAS LISTING /tmp/ccljuj5K.s 			page 20

