GAS LISTING /tmp/cct9Gss8.s 			page 1


   1              		.file	"objects.c"
   2              		.text
   3              	.Ltext0:
   4              		.section	.text.prv_init_forbidden,"ax",@progbits
   6              	prv_init_forbidden:
   7              	.LFB73:
   8              		.file 1 "/home/baikal/workspace/C50/Huawei_IoT_Agent_Tiny_SDK_Linux//lwm2m/core/objects.c"
   1:/home/baikal/workspace/C50/Huawei_IoT_Agent_Tiny_SDK_Linux//lwm2m/core/objects.c **** /*----------------------------------------------------------------------------
   2:/home/baikal/workspace/C50/Huawei_IoT_Agent_Tiny_SDK_Linux//lwm2m/core/objects.c ****  * Copyright (c) <2016-2018>, <Huawei Technologies Co., Ltd>
   3:/home/baikal/workspace/C50/Huawei_IoT_Agent_Tiny_SDK_Linux//lwm2m/core/objects.c ****  * All rights reserved.
   4:/home/baikal/workspace/C50/Huawei_IoT_Agent_Tiny_SDK_Linux//lwm2m/core/objects.c ****  * Redistribution and use in source and binary forms, with or without modification,
   5:/home/baikal/workspace/C50/Huawei_IoT_Agent_Tiny_SDK_Linux//lwm2m/core/objects.c ****  * are permitted provided that the following conditions are met:
   6:/home/baikal/workspace/C50/Huawei_IoT_Agent_Tiny_SDK_Linux//lwm2m/core/objects.c ****  * 1. Redistributions of source code must retain the above copyright notice, this list of
   7:/home/baikal/workspace/C50/Huawei_IoT_Agent_Tiny_SDK_Linux//lwm2m/core/objects.c ****  * conditions and the following disclaimer.
   8:/home/baikal/workspace/C50/Huawei_IoT_Agent_Tiny_SDK_Linux//lwm2m/core/objects.c ****  * 2. Redistributions in binary form must reproduce the above copyright notice, this list
   9:/home/baikal/workspace/C50/Huawei_IoT_Agent_Tiny_SDK_Linux//lwm2m/core/objects.c ****  * of conditions and the following disclaimer in the documentation and/or other materials
  10:/home/baikal/workspace/C50/Huawei_IoT_Agent_Tiny_SDK_Linux//lwm2m/core/objects.c ****  * provided with the distribution.
  11:/home/baikal/workspace/C50/Huawei_IoT_Agent_Tiny_SDK_Linux//lwm2m/core/objects.c ****  * 3. Neither the name of the copyright holder nor the names of its contributors may be used
  12:/home/baikal/workspace/C50/Huawei_IoT_Agent_Tiny_SDK_Linux//lwm2m/core/objects.c ****  * to endorse or promote products derived from this software without specific prior written
  13:/home/baikal/workspace/C50/Huawei_IoT_Agent_Tiny_SDK_Linux//lwm2m/core/objects.c ****  * permission.
  14:/home/baikal/workspace/C50/Huawei_IoT_Agent_Tiny_SDK_Linux//lwm2m/core/objects.c ****  * THIS SOFTWARE IS PROVIDED BY THE COPYRIGHT HOLDERS AND CONTRIBUTORS
  15:/home/baikal/workspace/C50/Huawei_IoT_Agent_Tiny_SDK_Linux//lwm2m/core/objects.c ****  * "AS IS" AND ANY EXPRESS OR IMPLIED WARRANTIES, INCLUDING, BUT NOT LIMITED TO,
  16:/home/baikal/workspace/C50/Huawei_IoT_Agent_Tiny_SDK_Linux//lwm2m/core/objects.c ****  * THE IMPLIED WARRANTIES OF MERCHANTABILITY AND FITNESS FOR A PARTICULAR
  17:/home/baikal/workspace/C50/Huawei_IoT_Agent_Tiny_SDK_Linux//lwm2m/core/objects.c ****  * PURPOSE ARE DISCLAIMED. IN NO EVENT SHALL THE COPYRIGHT HOLDER OR
  18:/home/baikal/workspace/C50/Huawei_IoT_Agent_Tiny_SDK_Linux//lwm2m/core/objects.c ****  * CONTRIBUTORS BE LIABLE FOR ANY DIRECT, INDIRECT, INCIDENTAL, SPECIAL,
  19:/home/baikal/workspace/C50/Huawei_IoT_Agent_Tiny_SDK_Linux//lwm2m/core/objects.c ****  * EXEMPLARY, OR CONSEQUENTIAL DAMAGES (INCLUDING, BUT NOT LIMITED TO,
  20:/home/baikal/workspace/C50/Huawei_IoT_Agent_Tiny_SDK_Linux//lwm2m/core/objects.c ****  * PROCUREMENT OF SUBSTITUTE GOODS OR SERVICES; LOSS OF USE, DATA, OR PROFITS;
  21:/home/baikal/workspace/C50/Huawei_IoT_Agent_Tiny_SDK_Linux//lwm2m/core/objects.c ****  * OR BUSINESS INTERRUPTION) HOWEVER CAUSED AND ON ANY THEORY OF LIABILITY,
  22:/home/baikal/workspace/C50/Huawei_IoT_Agent_Tiny_SDK_Linux//lwm2m/core/objects.c ****  * WHETHER IN CONTRACT, STRICT LIABILITY, OR TORT (INCLUDING NEGLIGENCE OR
  23:/home/baikal/workspace/C50/Huawei_IoT_Agent_Tiny_SDK_Linux//lwm2m/core/objects.c ****  * OTHERWISE) ARISING IN ANY WAY OUT OF THE USE OF THIS SOFTWARE, EVEN IF
  24:/home/baikal/workspace/C50/Huawei_IoT_Agent_Tiny_SDK_Linux//lwm2m/core/objects.c ****  * ADVISED OF THE POSSIBILITY OF SUCH DAMAGE.
  25:/home/baikal/workspace/C50/Huawei_IoT_Agent_Tiny_SDK_Linux//lwm2m/core/objects.c ****  *---------------------------------------------------------------------------*/
  26:/home/baikal/workspace/C50/Huawei_IoT_Agent_Tiny_SDK_Linux//lwm2m/core/objects.c **** /*----------------------------------------------------------------------------
  27:/home/baikal/workspace/C50/Huawei_IoT_Agent_Tiny_SDK_Linux//lwm2m/core/objects.c ****  * Notice of Export Control Law
  28:/home/baikal/workspace/C50/Huawei_IoT_Agent_Tiny_SDK_Linux//lwm2m/core/objects.c ****  * ===============================================
  29:/home/baikal/workspace/C50/Huawei_IoT_Agent_Tiny_SDK_Linux//lwm2m/core/objects.c ****  * Huawei LiteOS may be subject to applicable export control laws and regulations, which might
  30:/home/baikal/workspace/C50/Huawei_IoT_Agent_Tiny_SDK_Linux//lwm2m/core/objects.c ****  * include those applicable to Huawei LiteOS of U.S. and the country in which you are located.
  31:/home/baikal/workspace/C50/Huawei_IoT_Agent_Tiny_SDK_Linux//lwm2m/core/objects.c ****  * Import, export and usage of Huawei LiteOS in any manner by you shall be in compliance with such
  32:/home/baikal/workspace/C50/Huawei_IoT_Agent_Tiny_SDK_Linux//lwm2m/core/objects.c ****  * applicable export control laws and regulations.
  33:/home/baikal/workspace/C50/Huawei_IoT_Agent_Tiny_SDK_Linux//lwm2m/core/objects.c ****  *---------------------------------------------------------------------------*/
  34:/home/baikal/workspace/C50/Huawei_IoT_Agent_Tiny_SDK_Linux//lwm2m/core/objects.c **** 
  35:/home/baikal/workspace/C50/Huawei_IoT_Agent_Tiny_SDK_Linux//lwm2m/core/objects.c **** /*******************************************************************************
  36:/home/baikal/workspace/C50/Huawei_IoT_Agent_Tiny_SDK_Linux//lwm2m/core/objects.c ****  *
  37:/home/baikal/workspace/C50/Huawei_IoT_Agent_Tiny_SDK_Linux//lwm2m/core/objects.c ****  * Copyright (c) 2013, 2014 Intel Corporation and others.
  38:/home/baikal/workspace/C50/Huawei_IoT_Agent_Tiny_SDK_Linux//lwm2m/core/objects.c ****  * All rights reserved. This program and the accompanying materials
  39:/home/baikal/workspace/C50/Huawei_IoT_Agent_Tiny_SDK_Linux//lwm2m/core/objects.c ****  * are made available under the terms of the Eclipse Public License v1.0
  40:/home/baikal/workspace/C50/Huawei_IoT_Agent_Tiny_SDK_Linux//lwm2m/core/objects.c ****  * and Eclipse Distribution License v1.0 which accompany this distribution.
  41:/home/baikal/workspace/C50/Huawei_IoT_Agent_Tiny_SDK_Linux//lwm2m/core/objects.c ****  *
  42:/home/baikal/workspace/C50/Huawei_IoT_Agent_Tiny_SDK_Linux//lwm2m/core/objects.c ****  * The Eclipse Public License is available at
  43:/home/baikal/workspace/C50/Huawei_IoT_Agent_Tiny_SDK_Linux//lwm2m/core/objects.c ****  *    http://www.eclipse.org/legal/epl-v10.html
  44:/home/baikal/workspace/C50/Huawei_IoT_Agent_Tiny_SDK_Linux//lwm2m/core/objects.c ****  * The Eclipse Distribution License is available at
  45:/home/baikal/workspace/C50/Huawei_IoT_Agent_Tiny_SDK_Linux//lwm2m/core/objects.c ****  *    http://www.eclipse.org/org/documents/edl-v10.php.
  46:/home/baikal/workspace/C50/Huawei_IoT_Agent_Tiny_SDK_Linux//lwm2m/core/objects.c ****  *
  47:/home/baikal/workspace/C50/Huawei_IoT_Agent_Tiny_SDK_Linux//lwm2m/core/objects.c ****  * Contributors:
  48:/home/baikal/workspace/C50/Huawei_IoT_Agent_Tiny_SDK_Linux//lwm2m/core/objects.c ****  *    David Navarro, Intel Corporation - initial API and implementation
  49:/home/baikal/workspace/C50/Huawei_IoT_Agent_Tiny_SDK_Linux//lwm2m/core/objects.c ****  *    Fabien Fleutot - Please refer to git log
  50:/home/baikal/workspace/C50/Huawei_IoT_Agent_Tiny_SDK_Linux//lwm2m/core/objects.c ****  *    Toby Jaffey - Please refer to git log
GAS LISTING /tmp/cct9Gss8.s 			page 2


  51:/home/baikal/workspace/C50/Huawei_IoT_Agent_Tiny_SDK_Linux//lwm2m/core/objects.c ****  *    Benjamin Cabe? - Please refer to git log
  52:/home/baikal/workspace/C50/Huawei_IoT_Agent_Tiny_SDK_Linux//lwm2m/core/objects.c ****  *    Bosch Software Innovations GmbH - Please refer to git log
  53:/home/baikal/workspace/C50/Huawei_IoT_Agent_Tiny_SDK_Linux//lwm2m/core/objects.c ****  *    Pascal Rieux - Please refer to git log
  54:/home/baikal/workspace/C50/Huawei_IoT_Agent_Tiny_SDK_Linux//lwm2m/core/objects.c ****  *    Scott Bertin - Please refer to git log
  55:/home/baikal/workspace/C50/Huawei_IoT_Agent_Tiny_SDK_Linux//lwm2m/core/objects.c ****  *
  56:/home/baikal/workspace/C50/Huawei_IoT_Agent_Tiny_SDK_Linux//lwm2m/core/objects.c ****  *******************************************************************************/
  57:/home/baikal/workspace/C50/Huawei_IoT_Agent_Tiny_SDK_Linux//lwm2m/core/objects.c **** 
  58:/home/baikal/workspace/C50/Huawei_IoT_Agent_Tiny_SDK_Linux//lwm2m/core/objects.c **** /*
  59:/home/baikal/workspace/C50/Huawei_IoT_Agent_Tiny_SDK_Linux//lwm2m/core/objects.c ****  Copyright (c) 2013, 2014 Intel Corporation
  60:/home/baikal/workspace/C50/Huawei_IoT_Agent_Tiny_SDK_Linux//lwm2m/core/objects.c **** 
  61:/home/baikal/workspace/C50/Huawei_IoT_Agent_Tiny_SDK_Linux//lwm2m/core/objects.c ****  Redistribution and use in source and binary forms, with or without modification,
  62:/home/baikal/workspace/C50/Huawei_IoT_Agent_Tiny_SDK_Linux//lwm2m/core/objects.c ****  are permitted provided that the following conditions are met:
  63:/home/baikal/workspace/C50/Huawei_IoT_Agent_Tiny_SDK_Linux//lwm2m/core/objects.c **** 
  64:/home/baikal/workspace/C50/Huawei_IoT_Agent_Tiny_SDK_Linux//lwm2m/core/objects.c ****      * Redistributions of source code must retain the above copyright notice,
  65:/home/baikal/workspace/C50/Huawei_IoT_Agent_Tiny_SDK_Linux//lwm2m/core/objects.c ****        this list of conditions and the following disclaimer.
  66:/home/baikal/workspace/C50/Huawei_IoT_Agent_Tiny_SDK_Linux//lwm2m/core/objects.c ****      * Redistributions in binary form must reproduce the above copyright notice,
  67:/home/baikal/workspace/C50/Huawei_IoT_Agent_Tiny_SDK_Linux//lwm2m/core/objects.c ****        this list of conditions and the following disclaimer in the documentation
  68:/home/baikal/workspace/C50/Huawei_IoT_Agent_Tiny_SDK_Linux//lwm2m/core/objects.c ****        and/or other materials provided with the distribution.
  69:/home/baikal/workspace/C50/Huawei_IoT_Agent_Tiny_SDK_Linux//lwm2m/core/objects.c ****      * Neither the name of Intel Corporation nor the names of its contributors
  70:/home/baikal/workspace/C50/Huawei_IoT_Agent_Tiny_SDK_Linux//lwm2m/core/objects.c ****        may be used to endorse or promote products derived from this software
  71:/home/baikal/workspace/C50/Huawei_IoT_Agent_Tiny_SDK_Linux//lwm2m/core/objects.c ****        without specific prior written permission.
  72:/home/baikal/workspace/C50/Huawei_IoT_Agent_Tiny_SDK_Linux//lwm2m/core/objects.c **** 
  73:/home/baikal/workspace/C50/Huawei_IoT_Agent_Tiny_SDK_Linux//lwm2m/core/objects.c ****  THIS SOFTWARE IS PROVIDED BY THE COPYRIGHT HOLDERS AND CONTRIBUTORS "AS IS" AND
  74:/home/baikal/workspace/C50/Huawei_IoT_Agent_Tiny_SDK_Linux//lwm2m/core/objects.c ****  ANY EXPRESS OR IMPLIED WARRANTIES, INCLUDING, BUT NOT LIMITED TO, THE IMPLIED
  75:/home/baikal/workspace/C50/Huawei_IoT_Agent_Tiny_SDK_Linux//lwm2m/core/objects.c ****  WARRANTIES OF MERCHANTABILITY AND FITNESS FOR A PARTICULAR PURPOSE ARE DISCLAIMED.
  76:/home/baikal/workspace/C50/Huawei_IoT_Agent_Tiny_SDK_Linux//lwm2m/core/objects.c ****  IN NO EVENT SHALL THE COPYRIGHT OWNER OR CONTRIBUTORS BE LIABLE FOR ANY DIRECT,
  77:/home/baikal/workspace/C50/Huawei_IoT_Agent_Tiny_SDK_Linux//lwm2m/core/objects.c ****  INDIRECT, INCIDENTAL, SPECIAL, EXEMPLARY, OR CONSEQUENTIAL DAMAGES (INCLUDING,
  78:/home/baikal/workspace/C50/Huawei_IoT_Agent_Tiny_SDK_Linux//lwm2m/core/objects.c ****  BUT NOT LIMITED TO, PROCUREMENT OF SUBSTITUTE GOODS OR SERVICES; LOSS OF USE,
  79:/home/baikal/workspace/C50/Huawei_IoT_Agent_Tiny_SDK_Linux//lwm2m/core/objects.c ****  DATA, OR PROFITS; OR BUSINESS INTERRUPTION) HOWEVER CAUSED AND ON ANY THEORY OF
  80:/home/baikal/workspace/C50/Huawei_IoT_Agent_Tiny_SDK_Linux//lwm2m/core/objects.c ****  LIABILITY, WHETHER IN CONTRACT, STRICT LIABILITY, OR TORT (INCLUDING NEGLIGENCE OR
  81:/home/baikal/workspace/C50/Huawei_IoT_Agent_Tiny_SDK_Linux//lwm2m/core/objects.c ****  OTHERWISE) ARISING IN ANY WAY OUT OF THE USE OF THIS SOFTWARE, EVEN IF ADVISED OF
  82:/home/baikal/workspace/C50/Huawei_IoT_Agent_Tiny_SDK_Linux//lwm2m/core/objects.c ****  THE POSSIBILITY OF SUCH DAMAGE.
  83:/home/baikal/workspace/C50/Huawei_IoT_Agent_Tiny_SDK_Linux//lwm2m/core/objects.c **** 
  84:/home/baikal/workspace/C50/Huawei_IoT_Agent_Tiny_SDK_Linux//lwm2m/core/objects.c ****  David Navarro <david.navarro@intel.com>
  85:/home/baikal/workspace/C50/Huawei_IoT_Agent_Tiny_SDK_Linux//lwm2m/core/objects.c **** 
  86:/home/baikal/workspace/C50/Huawei_IoT_Agent_Tiny_SDK_Linux//lwm2m/core/objects.c **** */
  87:/home/baikal/workspace/C50/Huawei_IoT_Agent_Tiny_SDK_Linux//lwm2m/core/objects.c **** #include "internals.h"
  88:/home/baikal/workspace/C50/Huawei_IoT_Agent_Tiny_SDK_Linux//lwm2m/core/objects.c **** 
  89:/home/baikal/workspace/C50/Huawei_IoT_Agent_Tiny_SDK_Linux//lwm2m/core/objects.c **** #ifdef LWM2M_CLIENT_MODE
  90:/home/baikal/workspace/C50/Huawei_IoT_Agent_Tiny_SDK_Linux//lwm2m/core/objects.c **** 
  91:/home/baikal/workspace/C50/Huawei_IoT_Agent_Tiny_SDK_Linux//lwm2m/core/objects.c **** 
  92:/home/baikal/workspace/C50/Huawei_IoT_Agent_Tiny_SDK_Linux//lwm2m/core/objects.c **** #include <stdlib.h>
  93:/home/baikal/workspace/C50/Huawei_IoT_Agent_Tiny_SDK_Linux//lwm2m/core/objects.c **** #include <string.h>
  94:/home/baikal/workspace/C50/Huawei_IoT_Agent_Tiny_SDK_Linux//lwm2m/core/objects.c **** #include <stdio.h>
  95:/home/baikal/workspace/C50/Huawei_IoT_Agent_Tiny_SDK_Linux//lwm2m/core/objects.c **** #include "object_comm.h"
  96:/home/baikal/workspace/C50/Huawei_IoT_Agent_Tiny_SDK_Linux//lwm2m/core/objects.c **** 
  97:/home/baikal/workspace/C50/Huawei_IoT_Agent_Tiny_SDK_Linux//lwm2m/core/objects.c **** uint8_t object_checkReadable(lwm2m_context_t *contextP,
  98:/home/baikal/workspace/C50/Huawei_IoT_Agent_Tiny_SDK_Linux//lwm2m/core/objects.c ****                              lwm2m_uri_t *uriP)
  99:/home/baikal/workspace/C50/Huawei_IoT_Agent_Tiny_SDK_Linux//lwm2m/core/objects.c **** {
 100:/home/baikal/workspace/C50/Huawei_IoT_Agent_Tiny_SDK_Linux//lwm2m/core/objects.c ****     uint8_t result;
 101:/home/baikal/workspace/C50/Huawei_IoT_Agent_Tiny_SDK_Linux//lwm2m/core/objects.c ****     lwm2m_object_t *targetP;
 102:/home/baikal/workspace/C50/Huawei_IoT_Agent_Tiny_SDK_Linux//lwm2m/core/objects.c ****     lwm2m_data_t *dataP = NULL;
 103:/home/baikal/workspace/C50/Huawei_IoT_Agent_Tiny_SDK_Linux//lwm2m/core/objects.c ****     int size;
 104:/home/baikal/workspace/C50/Huawei_IoT_Agent_Tiny_SDK_Linux//lwm2m/core/objects.c **** 
 105:/home/baikal/workspace/C50/Huawei_IoT_Agent_Tiny_SDK_Linux//lwm2m/core/objects.c ****     LOG_URI(uriP);
 106:/home/baikal/workspace/C50/Huawei_IoT_Agent_Tiny_SDK_Linux//lwm2m/core/objects.c ****     targetP = (lwm2m_object_t *)LWM2M_LIST_FIND(contextP->objectList, uriP->objectId);
 107:/home/baikal/workspace/C50/Huawei_IoT_Agent_Tiny_SDK_Linux//lwm2m/core/objects.c ****     if (NULL == targetP) return COAP_404_NOT_FOUND;
GAS LISTING /tmp/cct9Gss8.s 			page 3


 108:/home/baikal/workspace/C50/Huawei_IoT_Agent_Tiny_SDK_Linux//lwm2m/core/objects.c ****     if (NULL == targetP->readFunc) return COAP_405_METHOD_NOT_ALLOWED;
 109:/home/baikal/workspace/C50/Huawei_IoT_Agent_Tiny_SDK_Linux//lwm2m/core/objects.c **** 
 110:/home/baikal/workspace/C50/Huawei_IoT_Agent_Tiny_SDK_Linux//lwm2m/core/objects.c ****     if (!LWM2M_URI_IS_SET_INSTANCE(uriP)) return COAP_205_CONTENT;
 111:/home/baikal/workspace/C50/Huawei_IoT_Agent_Tiny_SDK_Linux//lwm2m/core/objects.c **** 
 112:/home/baikal/workspace/C50/Huawei_IoT_Agent_Tiny_SDK_Linux//lwm2m/core/objects.c ****     if (NULL == lwm2m_list_find(targetP->instanceList, uriP->instanceId)) return COAP_404_NOT_FOUND
 113:/home/baikal/workspace/C50/Huawei_IoT_Agent_Tiny_SDK_Linux//lwm2m/core/objects.c **** 
 114:/home/baikal/workspace/C50/Huawei_IoT_Agent_Tiny_SDK_Linux//lwm2m/core/objects.c ****     if (!LWM2M_URI_IS_SET_RESOURCE(uriP)) return COAP_205_CONTENT;
 115:/home/baikal/workspace/C50/Huawei_IoT_Agent_Tiny_SDK_Linux//lwm2m/core/objects.c **** 
 116:/home/baikal/workspace/C50/Huawei_IoT_Agent_Tiny_SDK_Linux//lwm2m/core/objects.c ****     size = 1;
 117:/home/baikal/workspace/C50/Huawei_IoT_Agent_Tiny_SDK_Linux//lwm2m/core/objects.c ****     dataP = lwm2m_data_new(1);
 118:/home/baikal/workspace/C50/Huawei_IoT_Agent_Tiny_SDK_Linux//lwm2m/core/objects.c ****     if (dataP == NULL) return COAP_500_INTERNAL_SERVER_ERROR;
 119:/home/baikal/workspace/C50/Huawei_IoT_Agent_Tiny_SDK_Linux//lwm2m/core/objects.c **** 
 120:/home/baikal/workspace/C50/Huawei_IoT_Agent_Tiny_SDK_Linux//lwm2m/core/objects.c ****     dataP->id = uriP->resourceId;
 121:/home/baikal/workspace/C50/Huawei_IoT_Agent_Tiny_SDK_Linux//lwm2m/core/objects.c **** 
 122:/home/baikal/workspace/C50/Huawei_IoT_Agent_Tiny_SDK_Linux//lwm2m/core/objects.c ****     result = targetP->readFunc(uriP->instanceId, &size, &dataP, NULL, targetP);
 123:/home/baikal/workspace/C50/Huawei_IoT_Agent_Tiny_SDK_Linux//lwm2m/core/objects.c ****     lwm2m_data_free(1, dataP);
 124:/home/baikal/workspace/C50/Huawei_IoT_Agent_Tiny_SDK_Linux//lwm2m/core/objects.c **** 
 125:/home/baikal/workspace/C50/Huawei_IoT_Agent_Tiny_SDK_Linux//lwm2m/core/objects.c ****     return result;
 126:/home/baikal/workspace/C50/Huawei_IoT_Agent_Tiny_SDK_Linux//lwm2m/core/objects.c **** }
 127:/home/baikal/workspace/C50/Huawei_IoT_Agent_Tiny_SDK_Linux//lwm2m/core/objects.c **** 
 128:/home/baikal/workspace/C50/Huawei_IoT_Agent_Tiny_SDK_Linux//lwm2m/core/objects.c **** uint8_t object_checkNumeric(lwm2m_context_t *contextP,
 129:/home/baikal/workspace/C50/Huawei_IoT_Agent_Tiny_SDK_Linux//lwm2m/core/objects.c ****                             lwm2m_uri_t *uriP)
 130:/home/baikal/workspace/C50/Huawei_IoT_Agent_Tiny_SDK_Linux//lwm2m/core/objects.c **** {
 131:/home/baikal/workspace/C50/Huawei_IoT_Agent_Tiny_SDK_Linux//lwm2m/core/objects.c ****     uint8_t result;
 132:/home/baikal/workspace/C50/Huawei_IoT_Agent_Tiny_SDK_Linux//lwm2m/core/objects.c ****     lwm2m_object_t *targetP;
 133:/home/baikal/workspace/C50/Huawei_IoT_Agent_Tiny_SDK_Linux//lwm2m/core/objects.c ****     lwm2m_data_t *dataP = NULL;
 134:/home/baikal/workspace/C50/Huawei_IoT_Agent_Tiny_SDK_Linux//lwm2m/core/objects.c ****     int size;
 135:/home/baikal/workspace/C50/Huawei_IoT_Agent_Tiny_SDK_Linux//lwm2m/core/objects.c **** 
 136:/home/baikal/workspace/C50/Huawei_IoT_Agent_Tiny_SDK_Linux//lwm2m/core/objects.c ****     LOG_URI(uriP);
 137:/home/baikal/workspace/C50/Huawei_IoT_Agent_Tiny_SDK_Linux//lwm2m/core/objects.c ****     if (!LWM2M_URI_IS_SET_RESOURCE(uriP)) return COAP_405_METHOD_NOT_ALLOWED;
 138:/home/baikal/workspace/C50/Huawei_IoT_Agent_Tiny_SDK_Linux//lwm2m/core/objects.c **** 
 139:/home/baikal/workspace/C50/Huawei_IoT_Agent_Tiny_SDK_Linux//lwm2m/core/objects.c ****     targetP = (lwm2m_object_t *)LWM2M_LIST_FIND(contextP->objectList, uriP->objectId);
 140:/home/baikal/workspace/C50/Huawei_IoT_Agent_Tiny_SDK_Linux//lwm2m/core/objects.c ****     if (NULL == targetP) return COAP_404_NOT_FOUND;
 141:/home/baikal/workspace/C50/Huawei_IoT_Agent_Tiny_SDK_Linux//lwm2m/core/objects.c ****     if (NULL == targetP->readFunc) return COAP_405_METHOD_NOT_ALLOWED;
 142:/home/baikal/workspace/C50/Huawei_IoT_Agent_Tiny_SDK_Linux//lwm2m/core/objects.c **** 
 143:/home/baikal/workspace/C50/Huawei_IoT_Agent_Tiny_SDK_Linux//lwm2m/core/objects.c ****     size = 1;
 144:/home/baikal/workspace/C50/Huawei_IoT_Agent_Tiny_SDK_Linux//lwm2m/core/objects.c ****     dataP = lwm2m_data_new(1);
 145:/home/baikal/workspace/C50/Huawei_IoT_Agent_Tiny_SDK_Linux//lwm2m/core/objects.c ****     if (dataP == NULL) return COAP_500_INTERNAL_SERVER_ERROR;
 146:/home/baikal/workspace/C50/Huawei_IoT_Agent_Tiny_SDK_Linux//lwm2m/core/objects.c **** 
 147:/home/baikal/workspace/C50/Huawei_IoT_Agent_Tiny_SDK_Linux//lwm2m/core/objects.c ****     dataP->id = uriP->resourceId;
 148:/home/baikal/workspace/C50/Huawei_IoT_Agent_Tiny_SDK_Linux//lwm2m/core/objects.c **** 
 149:/home/baikal/workspace/C50/Huawei_IoT_Agent_Tiny_SDK_Linux//lwm2m/core/objects.c ****     result = targetP->readFunc(uriP->instanceId, &size, &dataP, NULL, targetP);
 150:/home/baikal/workspace/C50/Huawei_IoT_Agent_Tiny_SDK_Linux//lwm2m/core/objects.c ****     if (result == COAP_205_CONTENT)
 151:/home/baikal/workspace/C50/Huawei_IoT_Agent_Tiny_SDK_Linux//lwm2m/core/objects.c ****     {
 152:/home/baikal/workspace/C50/Huawei_IoT_Agent_Tiny_SDK_Linux//lwm2m/core/objects.c ****         switch (dataP->type)
 153:/home/baikal/workspace/C50/Huawei_IoT_Agent_Tiny_SDK_Linux//lwm2m/core/objects.c ****         {
 154:/home/baikal/workspace/C50/Huawei_IoT_Agent_Tiny_SDK_Linux//lwm2m/core/objects.c ****         case LWM2M_TYPE_INTEGER:
 155:/home/baikal/workspace/C50/Huawei_IoT_Agent_Tiny_SDK_Linux//lwm2m/core/objects.c ****         case LWM2M_TYPE_FLOAT:
 156:/home/baikal/workspace/C50/Huawei_IoT_Agent_Tiny_SDK_Linux//lwm2m/core/objects.c ****             break;
 157:/home/baikal/workspace/C50/Huawei_IoT_Agent_Tiny_SDK_Linux//lwm2m/core/objects.c ****         default:
 158:/home/baikal/workspace/C50/Huawei_IoT_Agent_Tiny_SDK_Linux//lwm2m/core/objects.c ****             result = COAP_405_METHOD_NOT_ALLOWED;
 159:/home/baikal/workspace/C50/Huawei_IoT_Agent_Tiny_SDK_Linux//lwm2m/core/objects.c ****         }
 160:/home/baikal/workspace/C50/Huawei_IoT_Agent_Tiny_SDK_Linux//lwm2m/core/objects.c ****     }
 161:/home/baikal/workspace/C50/Huawei_IoT_Agent_Tiny_SDK_Linux//lwm2m/core/objects.c **** 
 162:/home/baikal/workspace/C50/Huawei_IoT_Agent_Tiny_SDK_Linux//lwm2m/core/objects.c ****     lwm2m_data_free(1, dataP);
 163:/home/baikal/workspace/C50/Huawei_IoT_Agent_Tiny_SDK_Linux//lwm2m/core/objects.c **** 
 164:/home/baikal/workspace/C50/Huawei_IoT_Agent_Tiny_SDK_Linux//lwm2m/core/objects.c ****     return result;
GAS LISTING /tmp/cct9Gss8.s 			page 4


 165:/home/baikal/workspace/C50/Huawei_IoT_Agent_Tiny_SDK_Linux//lwm2m/core/objects.c **** }
 166:/home/baikal/workspace/C50/Huawei_IoT_Agent_Tiny_SDK_Linux//lwm2m/core/objects.c **** 
 167:/home/baikal/workspace/C50/Huawei_IoT_Agent_Tiny_SDK_Linux//lwm2m/core/objects.c **** static uint8_t prv_init_forbidden(lwm2m_context_t *contextP,
 168:/home/baikal/workspace/C50/Huawei_IoT_Agent_Tiny_SDK_Linux//lwm2m/core/objects.c ****                                   lwm2m_object_t *targetP,
 169:/home/baikal/workspace/C50/Huawei_IoT_Agent_Tiny_SDK_Linux//lwm2m/core/objects.c ****                                   uint16_t objId,
 170:/home/baikal/workspace/C50/Huawei_IoT_Agent_Tiny_SDK_Linux//lwm2m/core/objects.c ****                                   uint16_t serverId,
 171:/home/baikal/workspace/C50/Huawei_IoT_Agent_Tiny_SDK_Linux//lwm2m/core/objects.c ****                                   int *sizeP,
 172:/home/baikal/workspace/C50/Huawei_IoT_Agent_Tiny_SDK_Linux//lwm2m/core/objects.c ****                                   uint8_t **forbidden)
 173:/home/baikal/workspace/C50/Huawei_IoT_Agent_Tiny_SDK_Linux//lwm2m/core/objects.c **** {
   9              		.loc 1 173 0
  10              		.cfi_startproc
  11              	.LVL0:
  12 0000 4157     		pushq	%r15
  13              	.LCFI0:
  14              		.cfi_def_cfa_offset 16
  15              		.cfi_offset 15, -16
  16 0002 4156     		pushq	%r14
  17              	.LCFI1:
  18              		.cfi_def_cfa_offset 24
  19              		.cfi_offset 14, -24
  20 0004 4155     		pushq	%r13
  21              	.LCFI2:
  22              		.cfi_def_cfa_offset 32
  23              		.cfi_offset 13, -32
  24 0006 4154     		pushq	%r12
  25              	.LCFI3:
  26              		.cfi_def_cfa_offset 40
  27              		.cfi_offset 12, -40
  28 0008 55       		pushq	%rbp
  29              	.LCFI4:
  30              		.cfi_def_cfa_offset 48
  31              		.cfi_offset 6, -48
  32 0009 53       		pushq	%rbx
  33              	.LCFI5:
  34              		.cfi_def_cfa_offset 56
  35              		.cfi_offset 3, -56
  36 000a 4883EC18 		subq	$24, %rsp
  37              	.LCFI6:
  38              		.cfi_def_cfa_offset 80
  39 000e 4989FE   		movq	%rdi, %r14
  40 0011 4889F3   		movq	%rsi, %rbx
  41 0014 4D89C4   		movq	%r8, %r12
  42 0017 4D89CF   		movq	%r9, %r15
  43 001a 4189CD   		movl	%ecx, %r13d
 174:/home/baikal/workspace/C50/Huawei_IoT_Agent_Tiny_SDK_Linux//lwm2m/core/objects.c ****     lwm2m_list_t *instanceP;
 175:/home/baikal/workspace/C50/Huawei_IoT_Agent_Tiny_SDK_Linux//lwm2m/core/objects.c ****     lwm2m_uri_t uriP;
 176:/home/baikal/workspace/C50/Huawei_IoT_Agent_Tiny_SDK_Linux//lwm2m/core/objects.c ****     int i;
 177:/home/baikal/workspace/C50/Huawei_IoT_Agent_Tiny_SDK_Linux//lwm2m/core/objects.c **** 
 178:/home/baikal/workspace/C50/Huawei_IoT_Agent_Tiny_SDK_Linux//lwm2m/core/objects.c ****     uriP.flag = LWM2M_URI_FLAG_INSTANCE_ID;
  44              		.loc 1 178 0
  45 001d C6042402 		movb	$2, (%rsp)
 179:/home/baikal/workspace/C50/Huawei_IoT_Agent_Tiny_SDK_Linux//lwm2m/core/objects.c ****     uriP.objectId = objId;
  46              		.loc 1 179 0
  47 0021 66895424 		movw	%dx, 2(%rsp)
  47      02
  48              	.LVL1:
 180:/home/baikal/workspace/C50/Huawei_IoT_Agent_Tiny_SDK_Linux//lwm2m/core/objects.c **** 
GAS LISTING /tmp/cct9Gss8.s 			page 5


 181:/home/baikal/workspace/C50/Huawei_IoT_Agent_Tiny_SDK_Linux//lwm2m/core/objects.c ****     i = 0;
 182:/home/baikal/workspace/C50/Huawei_IoT_Agent_Tiny_SDK_Linux//lwm2m/core/objects.c ****     *forbidden = (uint8_t *)lwm2m_malloc(*sizeP);
  49              		.loc 1 182 0
  50 0026 496338   		movslq	(%r8), %rdi
  51              	.LVL2:
  52 0029 E8000000 		call	lwm2m_malloc
  52      00
  53              	.LVL3:
  54 002e 498907   		movq	%rax, (%r15)
 183:/home/baikal/workspace/C50/Huawei_IoT_Agent_Tiny_SDK_Linux//lwm2m/core/objects.c ****     if (*forbidden == NULL)
  55              		.loc 1 183 0
  56 0031 4885C0   		testq	%rax, %rax
  57 0034 7472     		je	.L6
 184:/home/baikal/workspace/C50/Huawei_IoT_Agent_Tiny_SDK_Linux//lwm2m/core/objects.c ****     {
 185:/home/baikal/workspace/C50/Huawei_IoT_Agent_Tiny_SDK_Linux//lwm2m/core/objects.c ****         return COAP_500_INTERNAL_SERVER_ERROR;
 186:/home/baikal/workspace/C50/Huawei_IoT_Agent_Tiny_SDK_Linux//lwm2m/core/objects.c ****     }
 187:/home/baikal/workspace/C50/Huawei_IoT_Agent_Tiny_SDK_Linux//lwm2m/core/objects.c ****     memset(*forbidden, 0, *sizeP);
  58              		.loc 1 187 0
  59 0036 49631424 		movslq	(%r12), %rdx
  60              	.LVL4:
  61              	.LBB12:
  62              	.LBB13:
  63              		.file 2 "/usr/include/x86_64-linux-gnu/bits/string3.h"
   1:/usr/include/x86_64-linux-gnu/bits/string3.h **** /* Copyright (C) 2004-2016 Free Software Foundation, Inc.
   2:/usr/include/x86_64-linux-gnu/bits/string3.h ****    This file is part of the GNU C Library.
   3:/usr/include/x86_64-linux-gnu/bits/string3.h **** 
   4:/usr/include/x86_64-linux-gnu/bits/string3.h ****    The GNU C Library is free software; you can redistribute it and/or
   5:/usr/include/x86_64-linux-gnu/bits/string3.h ****    modify it under the terms of the GNU Lesser General Public
   6:/usr/include/x86_64-linux-gnu/bits/string3.h ****    License as published by the Free Software Foundation; either
   7:/usr/include/x86_64-linux-gnu/bits/string3.h ****    version 2.1 of the License, or (at your option) any later version.
   8:/usr/include/x86_64-linux-gnu/bits/string3.h **** 
   9:/usr/include/x86_64-linux-gnu/bits/string3.h ****    The GNU C Library is distributed in the hope that it will be useful,
  10:/usr/include/x86_64-linux-gnu/bits/string3.h ****    but WITHOUT ANY WARRANTY; without even the implied warranty of
  11:/usr/include/x86_64-linux-gnu/bits/string3.h ****    MERCHANTABILITY or FITNESS FOR A PARTICULAR PURPOSE.  See the GNU
  12:/usr/include/x86_64-linux-gnu/bits/string3.h ****    Lesser General Public License for more details.
  13:/usr/include/x86_64-linux-gnu/bits/string3.h **** 
  14:/usr/include/x86_64-linux-gnu/bits/string3.h ****    You should have received a copy of the GNU Lesser General Public
  15:/usr/include/x86_64-linux-gnu/bits/string3.h ****    License along with the GNU C Library; if not, see
  16:/usr/include/x86_64-linux-gnu/bits/string3.h ****    <http://www.gnu.org/licenses/>.  */
  17:/usr/include/x86_64-linux-gnu/bits/string3.h **** 
  18:/usr/include/x86_64-linux-gnu/bits/string3.h **** #ifndef _STRING_H
  19:/usr/include/x86_64-linux-gnu/bits/string3.h **** # error "Never use <bits/string3.h> directly; include <string.h> instead."
  20:/usr/include/x86_64-linux-gnu/bits/string3.h **** #endif
  21:/usr/include/x86_64-linux-gnu/bits/string3.h **** 
  22:/usr/include/x86_64-linux-gnu/bits/string3.h **** #if !__GNUC_PREREQ (5,0)
  23:/usr/include/x86_64-linux-gnu/bits/string3.h **** __warndecl (__warn_memset_zero_len,
  24:/usr/include/x86_64-linux-gnu/bits/string3.h **** 	    "memset used with constant zero length parameter; this could be due to transposed parameters")
  25:/usr/include/x86_64-linux-gnu/bits/string3.h **** #endif
  26:/usr/include/x86_64-linux-gnu/bits/string3.h **** 
  27:/usr/include/x86_64-linux-gnu/bits/string3.h **** #ifndef __cplusplus
  28:/usr/include/x86_64-linux-gnu/bits/string3.h **** /* XXX This is temporarily.  We should not redefine any of the symbols
  29:/usr/include/x86_64-linux-gnu/bits/string3.h ****    and instead integrate the error checking into the original
  30:/usr/include/x86_64-linux-gnu/bits/string3.h ****    definitions.  */
  31:/usr/include/x86_64-linux-gnu/bits/string3.h **** # undef memcpy
  32:/usr/include/x86_64-linux-gnu/bits/string3.h **** # undef memmove
  33:/usr/include/x86_64-linux-gnu/bits/string3.h **** # undef memset
  34:/usr/include/x86_64-linux-gnu/bits/string3.h **** # undef strcat
GAS LISTING /tmp/cct9Gss8.s 			page 6


  35:/usr/include/x86_64-linux-gnu/bits/string3.h **** # undef strcpy
  36:/usr/include/x86_64-linux-gnu/bits/string3.h **** # undef strncat
  37:/usr/include/x86_64-linux-gnu/bits/string3.h **** # undef strncpy
  38:/usr/include/x86_64-linux-gnu/bits/string3.h **** # ifdef __USE_GNU
  39:/usr/include/x86_64-linux-gnu/bits/string3.h **** #  undef mempcpy
  40:/usr/include/x86_64-linux-gnu/bits/string3.h **** #  undef stpcpy
  41:/usr/include/x86_64-linux-gnu/bits/string3.h **** # endif
  42:/usr/include/x86_64-linux-gnu/bits/string3.h **** # ifdef __USE_MISC
  43:/usr/include/x86_64-linux-gnu/bits/string3.h **** #  undef bcopy
  44:/usr/include/x86_64-linux-gnu/bits/string3.h **** #  undef bzero
  45:/usr/include/x86_64-linux-gnu/bits/string3.h **** # endif
  46:/usr/include/x86_64-linux-gnu/bits/string3.h **** #endif
  47:/usr/include/x86_64-linux-gnu/bits/string3.h **** 
  48:/usr/include/x86_64-linux-gnu/bits/string3.h **** 
  49:/usr/include/x86_64-linux-gnu/bits/string3.h **** __fortify_function void *
  50:/usr/include/x86_64-linux-gnu/bits/string3.h **** __NTH (memcpy (void *__restrict __dest, const void *__restrict __src,
  51:/usr/include/x86_64-linux-gnu/bits/string3.h **** 	       size_t __len))
  52:/usr/include/x86_64-linux-gnu/bits/string3.h **** {
  53:/usr/include/x86_64-linux-gnu/bits/string3.h ****   return __builtin___memcpy_chk (__dest, __src, __len, __bos0 (__dest));
  54:/usr/include/x86_64-linux-gnu/bits/string3.h **** }
  55:/usr/include/x86_64-linux-gnu/bits/string3.h **** 
  56:/usr/include/x86_64-linux-gnu/bits/string3.h **** __fortify_function void *
  57:/usr/include/x86_64-linux-gnu/bits/string3.h **** __NTH (memmove (void *__dest, const void *__src, size_t __len))
  58:/usr/include/x86_64-linux-gnu/bits/string3.h **** {
  59:/usr/include/x86_64-linux-gnu/bits/string3.h ****   return __builtin___memmove_chk (__dest, __src, __len, __bos0 (__dest));
  60:/usr/include/x86_64-linux-gnu/bits/string3.h **** }
  61:/usr/include/x86_64-linux-gnu/bits/string3.h **** 
  62:/usr/include/x86_64-linux-gnu/bits/string3.h **** #ifdef __USE_GNU
  63:/usr/include/x86_64-linux-gnu/bits/string3.h **** __fortify_function void *
  64:/usr/include/x86_64-linux-gnu/bits/string3.h **** __NTH (mempcpy (void *__restrict __dest, const void *__restrict __src,
  65:/usr/include/x86_64-linux-gnu/bits/string3.h **** 		size_t __len))
  66:/usr/include/x86_64-linux-gnu/bits/string3.h **** {
  67:/usr/include/x86_64-linux-gnu/bits/string3.h ****   return __builtin___mempcpy_chk (__dest, __src, __len, __bos0 (__dest));
  68:/usr/include/x86_64-linux-gnu/bits/string3.h **** }
  69:/usr/include/x86_64-linux-gnu/bits/string3.h **** #endif
  70:/usr/include/x86_64-linux-gnu/bits/string3.h **** 
  71:/usr/include/x86_64-linux-gnu/bits/string3.h **** 
  72:/usr/include/x86_64-linux-gnu/bits/string3.h **** /* The first two tests here help to catch a somewhat common problem
  73:/usr/include/x86_64-linux-gnu/bits/string3.h ****    where the second and third parameter are transposed.  This is
  74:/usr/include/x86_64-linux-gnu/bits/string3.h ****    especially problematic if the intended fill value is zero.  In this
  75:/usr/include/x86_64-linux-gnu/bits/string3.h ****    case no work is done at all.  We detect these problems by referring
  76:/usr/include/x86_64-linux-gnu/bits/string3.h ****    non-existing functions.  */
  77:/usr/include/x86_64-linux-gnu/bits/string3.h **** __fortify_function void *
  78:/usr/include/x86_64-linux-gnu/bits/string3.h **** __NTH (memset (void *__dest, int __ch, size_t __len))
  79:/usr/include/x86_64-linux-gnu/bits/string3.h **** {
  80:/usr/include/x86_64-linux-gnu/bits/string3.h ****   /* GCC-5.0 and newer implements these checks in the compiler, so we don't
  81:/usr/include/x86_64-linux-gnu/bits/string3.h ****      need them here.  */
  82:/usr/include/x86_64-linux-gnu/bits/string3.h **** #if !__GNUC_PREREQ (5,0)
  83:/usr/include/x86_64-linux-gnu/bits/string3.h ****   if (__builtin_constant_p (__len) && __len == 0
  84:/usr/include/x86_64-linux-gnu/bits/string3.h ****       && (!__builtin_constant_p (__ch) || __ch != 0))
  85:/usr/include/x86_64-linux-gnu/bits/string3.h ****     {
  86:/usr/include/x86_64-linux-gnu/bits/string3.h ****       __warn_memset_zero_len ();
  87:/usr/include/x86_64-linux-gnu/bits/string3.h ****       return __dest;
  88:/usr/include/x86_64-linux-gnu/bits/string3.h ****     }
  89:/usr/include/x86_64-linux-gnu/bits/string3.h **** #endif
  90:/usr/include/x86_64-linux-gnu/bits/string3.h ****   return __builtin___memset_chk (__dest, __ch, __len, __bos0 (__dest));
  64              		.loc 2 90 0
GAS LISTING /tmp/cct9Gss8.s 			page 7


  65 003a BE000000 		movl	$0, %esi
  65      00
  66 003f 4889C7   		movq	%rax, %rdi
  67 0042 E8000000 		call	memset
  67      00
  68              	.LVL5:
  69              	.LBE13:
  70              	.LBE12:
 188:/home/baikal/workspace/C50/Huawei_IoT_Agent_Tiny_SDK_Linux//lwm2m/core/objects.c ****     for (instanceP = targetP->instanceList; instanceP != NULL ; instanceP = instanceP->next)
  71              		.loc 1 188 0
  72 0047 488B5B10 		movq	16(%rbx), %rbx
  73              	.LVL6:
 181:/home/baikal/workspace/C50/Huawei_IoT_Agent_Tiny_SDK_Linux//lwm2m/core/objects.c ****     *forbidden = (uint8_t *)lwm2m_malloc(*sizeP);
  74              		.loc 1 181 0
  75 004b BD000000 		movl	$0, %ebp
  75      00
  76              		.loc 1 188 0
  77 0050 EB3B     		jmp	.L3
  78              	.LVL7:
  79              	.L5:
 189:/home/baikal/workspace/C50/Huawei_IoT_Agent_Tiny_SDK_Linux//lwm2m/core/objects.c ****     {
 190:/home/baikal/workspace/C50/Huawei_IoT_Agent_Tiny_SDK_Linux//lwm2m/core/objects.c ****         uriP.instanceId = instanceP->id;
  80              		.loc 1 190 0
  81 0052 0FB74308 		movzwl	8(%rbx), %eax
  82 0056 66894424 		movw	%ax, 4(%rsp)
  82      04
 191:/home/baikal/workspace/C50/Huawei_IoT_Agent_Tiny_SDK_Linux//lwm2m/core/objects.c ****         if (acc_auth_operate(contextP, &uriP, OBJ_ACC_READ, serverId) != COAP_NO_ERROR)
  83              		.loc 1 191 0
  84 005b 410FB7CD 		movzwl	%r13w, %ecx
  85 005f BA000000 		movl	$0, %edx
  85      00
  86 0064 4889E6   		movq	%rsp, %rsi
  87 0067 4C89F7   		movq	%r14, %rdi
  88 006a E8000000 		call	acc_auth_operate
  88      00
  89              	.LVL8:
  90 006f 84C0     		testb	%al, %al
  91 0071 7414     		je	.L4
 192:/home/baikal/workspace/C50/Huawei_IoT_Agent_Tiny_SDK_Linux//lwm2m/core/objects.c ****         {
 193:/home/baikal/workspace/C50/Huawei_IoT_Agent_Tiny_SDK_Linux//lwm2m/core/objects.c ****             (*sizeP)--;
  92              		.loc 1 193 0
  93 0073 418B0424 		movl	(%r12), %eax
  94 0077 83E801   		subl	$1, %eax
  95 007a 41890424 		movl	%eax, (%r12)
 194:/home/baikal/workspace/C50/Huawei_IoT_Agent_Tiny_SDK_Linux//lwm2m/core/objects.c ****             (*forbidden)[i] = 1;
  96              		.loc 1 194 0
  97 007e 4863C5   		movslq	%ebp, %rax
  98 0081 490307   		addq	(%r15), %rax
  99 0084 C60001   		movb	$1, (%rax)
 100              	.L4:
 195:/home/baikal/workspace/C50/Huawei_IoT_Agent_Tiny_SDK_Linux//lwm2m/core/objects.c ****         }
 196:/home/baikal/workspace/C50/Huawei_IoT_Agent_Tiny_SDK_Linux//lwm2m/core/objects.c ****         ++i;
 101              		.loc 1 196 0 discriminator 2
 102 0087 83C501   		addl	$1, %ebp
 103              	.LVL9:
 188:/home/baikal/workspace/C50/Huawei_IoT_Agent_Tiny_SDK_Linux//lwm2m/core/objects.c ****     {
 104              		.loc 1 188 0 discriminator 2
GAS LISTING /tmp/cct9Gss8.s 			page 8


 105 008a 488B1B   		movq	(%rbx), %rbx
 106              	.LVL10:
 107              	.L3:
 188:/home/baikal/workspace/C50/Huawei_IoT_Agent_Tiny_SDK_Linux//lwm2m/core/objects.c ****     {
 108              		.loc 1 188 0 is_stmt 0 discriminator 1
 109 008d 4885DB   		testq	%rbx, %rbx
 110 0090 75C0     		jne	.L5
 197:/home/baikal/workspace/C50/Huawei_IoT_Agent_Tiny_SDK_Linux//lwm2m/core/objects.c ****     }
 198:/home/baikal/workspace/C50/Huawei_IoT_Agent_Tiny_SDK_Linux//lwm2m/core/objects.c **** 
 199:/home/baikal/workspace/C50/Huawei_IoT_Agent_Tiny_SDK_Linux//lwm2m/core/objects.c ****     if (*sizeP == 0)
 111              		.loc 1 199 0 is_stmt 1
 112 0092 41833C24 		cmpl	$0, (%r12)
 112      00
 113 0097 7516     		jne	.L7
 200:/home/baikal/workspace/C50/Huawei_IoT_Agent_Tiny_SDK_Linux//lwm2m/core/objects.c ****     {
 201:/home/baikal/workspace/C50/Huawei_IoT_Agent_Tiny_SDK_Linux//lwm2m/core/objects.c ****         lwm2m_free(*forbidden);
 114              		.loc 1 201 0
 115 0099 498B3F   		movq	(%r15), %rdi
 116 009c E8000000 		call	lwm2m_free
 116      00
 117              	.LVL11:
 202:/home/baikal/workspace/C50/Huawei_IoT_Agent_Tiny_SDK_Linux//lwm2m/core/objects.c ****         return COAP_500_INTERNAL_SERVER_ERROR;
 118              		.loc 1 202 0
 119 00a1 B8A0FFFF 		movl	$-96, %eax
 119      FF
 120 00a6 EB0C     		jmp	.L2
 121              	.LVL12:
 122              	.L6:
 185:/home/baikal/workspace/C50/Huawei_IoT_Agent_Tiny_SDK_Linux//lwm2m/core/objects.c ****     }
 123              		.loc 1 185 0
 124 00a8 B8A0FFFF 		movl	$-96, %eax
 124      FF
 125 00ad EB05     		jmp	.L2
 126              	.LVL13:
 127              	.L7:
 203:/home/baikal/workspace/C50/Huawei_IoT_Agent_Tiny_SDK_Linux//lwm2m/core/objects.c ****     }
 204:/home/baikal/workspace/C50/Huawei_IoT_Agent_Tiny_SDK_Linux//lwm2m/core/objects.c **** 
 205:/home/baikal/workspace/C50/Huawei_IoT_Agent_Tiny_SDK_Linux//lwm2m/core/objects.c ****     return COAP_NO_ERROR;
 128              		.loc 1 205 0
 129 00af B8000000 		movl	$0, %eax
 129      00
 130              	.LVL14:
 131              	.L2:
 206:/home/baikal/workspace/C50/Huawei_IoT_Agent_Tiny_SDK_Linux//lwm2m/core/objects.c **** }
 132              		.loc 1 206 0
 133 00b4 4883C418 		addq	$24, %rsp
 134              	.LCFI7:
 135              		.cfi_def_cfa_offset 56
 136 00b8 5B       		popq	%rbx
 137              	.LCFI8:
 138              		.cfi_def_cfa_offset 48
 139 00b9 5D       		popq	%rbp
 140              	.LCFI9:
 141              		.cfi_def_cfa_offset 40
 142 00ba 415C     		popq	%r12
 143              	.LCFI10:
 144              		.cfi_def_cfa_offset 32
GAS LISTING /tmp/cct9Gss8.s 			page 9


 145              	.LVL15:
 146 00bc 415D     		popq	%r13
 147              	.LCFI11:
 148              		.cfi_def_cfa_offset 24
 149              	.LVL16:
 150 00be 415E     		popq	%r14
 151              	.LCFI12:
 152              		.cfi_def_cfa_offset 16
 153              	.LVL17:
 154 00c0 415F     		popq	%r15
 155              	.LCFI13:
 156              		.cfi_def_cfa_offset 8
 157              	.LVL18:
 158 00c2 C3       		ret
 159              		.cfi_endproc
 160              	.LFE73:
 162              		.section	.text.prv_getObjectTemplate,"ax",@progbits
 164              	prv_getObjectTemplate:
 165              	.LFB82:
 207:/home/baikal/workspace/C50/Huawei_IoT_Agent_Tiny_SDK_Linux//lwm2m/core/objects.c **** 
 208:/home/baikal/workspace/C50/Huawei_IoT_Agent_Tiny_SDK_Linux//lwm2m/core/objects.c **** uint8_t object_readData(lwm2m_context_t *contextP,
 209:/home/baikal/workspace/C50/Huawei_IoT_Agent_Tiny_SDK_Linux//lwm2m/core/objects.c ****                         lwm2m_uri_t *uriP,
 210:/home/baikal/workspace/C50/Huawei_IoT_Agent_Tiny_SDK_Linux//lwm2m/core/objects.c ****                         int *sizeP,
 211:/home/baikal/workspace/C50/Huawei_IoT_Agent_Tiny_SDK_Linux//lwm2m/core/objects.c ****                         lwm2m_data_t **dataP,
 212:/home/baikal/workspace/C50/Huawei_IoT_Agent_Tiny_SDK_Linux//lwm2m/core/objects.c ****                         lwm2m_data_cfg_t *cfg,
 213:/home/baikal/workspace/C50/Huawei_IoT_Agent_Tiny_SDK_Linux//lwm2m/core/objects.c ****                         uint16_t serverId)
 214:/home/baikal/workspace/C50/Huawei_IoT_Agent_Tiny_SDK_Linux//lwm2m/core/objects.c **** {
 215:/home/baikal/workspace/C50/Huawei_IoT_Agent_Tiny_SDK_Linux//lwm2m/core/objects.c ****     uint8_t result;
 216:/home/baikal/workspace/C50/Huawei_IoT_Agent_Tiny_SDK_Linux//lwm2m/core/objects.c ****     lwm2m_object_t *targetP;
 217:/home/baikal/workspace/C50/Huawei_IoT_Agent_Tiny_SDK_Linux//lwm2m/core/objects.c **** 
 218:/home/baikal/workspace/C50/Huawei_IoT_Agent_Tiny_SDK_Linux//lwm2m/core/objects.c ****     LOG_URI(uriP);
 219:/home/baikal/workspace/C50/Huawei_IoT_Agent_Tiny_SDK_Linux//lwm2m/core/objects.c ****     targetP = (lwm2m_object_t *)LWM2M_LIST_FIND(contextP->objectList, uriP->objectId);
 220:/home/baikal/workspace/C50/Huawei_IoT_Agent_Tiny_SDK_Linux//lwm2m/core/objects.c ****     if (NULL == targetP) return COAP_404_NOT_FOUND;
 221:/home/baikal/workspace/C50/Huawei_IoT_Agent_Tiny_SDK_Linux//lwm2m/core/objects.c ****     if (NULL == targetP->readFunc) return COAP_405_METHOD_NOT_ALLOWED;
 222:/home/baikal/workspace/C50/Huawei_IoT_Agent_Tiny_SDK_Linux//lwm2m/core/objects.c **** 
 223:/home/baikal/workspace/C50/Huawei_IoT_Agent_Tiny_SDK_Linux//lwm2m/core/objects.c ****     if (LWM2M_URI_IS_SET_INSTANCE(uriP))
 224:/home/baikal/workspace/C50/Huawei_IoT_Agent_Tiny_SDK_Linux//lwm2m/core/objects.c ****     {
 225:/home/baikal/workspace/C50/Huawei_IoT_Agent_Tiny_SDK_Linux//lwm2m/core/objects.c ****         if (NULL == lwm2m_list_find(targetP->instanceList, uriP->instanceId)) return COAP_404_NOT_F
 226:/home/baikal/workspace/C50/Huawei_IoT_Agent_Tiny_SDK_Linux//lwm2m/core/objects.c **** 
 227:/home/baikal/workspace/C50/Huawei_IoT_Agent_Tiny_SDK_Linux//lwm2m/core/objects.c ****         // single instance read
 228:/home/baikal/workspace/C50/Huawei_IoT_Agent_Tiny_SDK_Linux//lwm2m/core/objects.c ****         if (LWM2M_URI_IS_SET_RESOURCE(uriP))
 229:/home/baikal/workspace/C50/Huawei_IoT_Agent_Tiny_SDK_Linux//lwm2m/core/objects.c ****         {
 230:/home/baikal/workspace/C50/Huawei_IoT_Agent_Tiny_SDK_Linux//lwm2m/core/objects.c ****             *sizeP = 1;
 231:/home/baikal/workspace/C50/Huawei_IoT_Agent_Tiny_SDK_Linux//lwm2m/core/objects.c ****             *dataP = lwm2m_data_new(*sizeP);
 232:/home/baikal/workspace/C50/Huawei_IoT_Agent_Tiny_SDK_Linux//lwm2m/core/objects.c ****             if (*dataP == NULL) return COAP_500_INTERNAL_SERVER_ERROR;
 233:/home/baikal/workspace/C50/Huawei_IoT_Agent_Tiny_SDK_Linux//lwm2m/core/objects.c **** 
 234:/home/baikal/workspace/C50/Huawei_IoT_Agent_Tiny_SDK_Linux//lwm2m/core/objects.c ****             (*dataP)->id = uriP->resourceId;
 235:/home/baikal/workspace/C50/Huawei_IoT_Agent_Tiny_SDK_Linux//lwm2m/core/objects.c ****         }
 236:/home/baikal/workspace/C50/Huawei_IoT_Agent_Tiny_SDK_Linux//lwm2m/core/objects.c **** 
 237:/home/baikal/workspace/C50/Huawei_IoT_Agent_Tiny_SDK_Linux//lwm2m/core/objects.c ****         result = targetP->readFunc(uriP->instanceId, sizeP, dataP, cfg, targetP);
 238:/home/baikal/workspace/C50/Huawei_IoT_Agent_Tiny_SDK_Linux//lwm2m/core/objects.c ****     }
 239:/home/baikal/workspace/C50/Huawei_IoT_Agent_Tiny_SDK_Linux//lwm2m/core/objects.c ****     else
 240:/home/baikal/workspace/C50/Huawei_IoT_Agent_Tiny_SDK_Linux//lwm2m/core/objects.c ****     {
 241:/home/baikal/workspace/C50/Huawei_IoT_Agent_Tiny_SDK_Linux//lwm2m/core/objects.c ****         // multiple object instances read
 242:/home/baikal/workspace/C50/Huawei_IoT_Agent_Tiny_SDK_Linux//lwm2m/core/objects.c ****         lwm2m_list_t *instanceP;
 243:/home/baikal/workspace/C50/Huawei_IoT_Agent_Tiny_SDK_Linux//lwm2m/core/objects.c ****         uint8_t *forbidden = NULL;
 244:/home/baikal/workspace/C50/Huawei_IoT_Agent_Tiny_SDK_Linux//lwm2m/core/objects.c ****         int i;
GAS LISTING /tmp/cct9Gss8.s 			page 10


 245:/home/baikal/workspace/C50/Huawei_IoT_Agent_Tiny_SDK_Linux//lwm2m/core/objects.c ****         int j;
 246:/home/baikal/workspace/C50/Huawei_IoT_Agent_Tiny_SDK_Linux//lwm2m/core/objects.c **** 
 247:/home/baikal/workspace/C50/Huawei_IoT_Agent_Tiny_SDK_Linux//lwm2m/core/objects.c ****         result = COAP_205_CONTENT;
 248:/home/baikal/workspace/C50/Huawei_IoT_Agent_Tiny_SDK_Linux//lwm2m/core/objects.c **** 
 249:/home/baikal/workspace/C50/Huawei_IoT_Agent_Tiny_SDK_Linux//lwm2m/core/objects.c ****         *sizeP = 0;
 250:/home/baikal/workspace/C50/Huawei_IoT_Agent_Tiny_SDK_Linux//lwm2m/core/objects.c ****         for (instanceP = targetP->instanceList; instanceP != NULL ; instanceP = instanceP->next)
 251:/home/baikal/workspace/C50/Huawei_IoT_Agent_Tiny_SDK_Linux//lwm2m/core/objects.c ****         {
 252:/home/baikal/workspace/C50/Huawei_IoT_Agent_Tiny_SDK_Linux//lwm2m/core/objects.c ****             (*sizeP)++;
 253:/home/baikal/workspace/C50/Huawei_IoT_Agent_Tiny_SDK_Linux//lwm2m/core/objects.c ****         }
 254:/home/baikal/workspace/C50/Huawei_IoT_Agent_Tiny_SDK_Linux//lwm2m/core/objects.c **** 
 255:/home/baikal/workspace/C50/Huawei_IoT_Agent_Tiny_SDK_Linux//lwm2m/core/objects.c ****         if (*sizeP == 0)
 256:/home/baikal/workspace/C50/Huawei_IoT_Agent_Tiny_SDK_Linux//lwm2m/core/objects.c ****         {
 257:/home/baikal/workspace/C50/Huawei_IoT_Agent_Tiny_SDK_Linux//lwm2m/core/objects.c ****             *dataP = NULL;
 258:/home/baikal/workspace/C50/Huawei_IoT_Agent_Tiny_SDK_Linux//lwm2m/core/objects.c ****         }
 259:/home/baikal/workspace/C50/Huawei_IoT_Agent_Tiny_SDK_Linux//lwm2m/core/objects.c ****         else
 260:/home/baikal/workspace/C50/Huawei_IoT_Agent_Tiny_SDK_Linux//lwm2m/core/objects.c ****         {
 261:/home/baikal/workspace/C50/Huawei_IoT_Agent_Tiny_SDK_Linux//lwm2m/core/objects.c ****             if ((result = prv_init_forbidden(contextP, targetP,
 262:/home/baikal/workspace/C50/Huawei_IoT_Agent_Tiny_SDK_Linux//lwm2m/core/objects.c ****                                              uriP->objectId, serverId, sizeP, &forbidden)) != COAP_
 263:/home/baikal/workspace/C50/Huawei_IoT_Agent_Tiny_SDK_Linux//lwm2m/core/objects.c ****             {
 264:/home/baikal/workspace/C50/Huawei_IoT_Agent_Tiny_SDK_Linux//lwm2m/core/objects.c ****                 *dataP = NULL;
 265:/home/baikal/workspace/C50/Huawei_IoT_Agent_Tiny_SDK_Linux//lwm2m/core/objects.c ****                 return result;
 266:/home/baikal/workspace/C50/Huawei_IoT_Agent_Tiny_SDK_Linux//lwm2m/core/objects.c ****             }
 267:/home/baikal/workspace/C50/Huawei_IoT_Agent_Tiny_SDK_Linux//lwm2m/core/objects.c **** 
 268:/home/baikal/workspace/C50/Huawei_IoT_Agent_Tiny_SDK_Linux//lwm2m/core/objects.c ****             *dataP = lwm2m_data_new(*sizeP);
 269:/home/baikal/workspace/C50/Huawei_IoT_Agent_Tiny_SDK_Linux//lwm2m/core/objects.c ****             if (*dataP == NULL)
 270:/home/baikal/workspace/C50/Huawei_IoT_Agent_Tiny_SDK_Linux//lwm2m/core/objects.c ****             {
 271:/home/baikal/workspace/C50/Huawei_IoT_Agent_Tiny_SDK_Linux//lwm2m/core/objects.c ****                 if (forbidden != NULL)
 272:/home/baikal/workspace/C50/Huawei_IoT_Agent_Tiny_SDK_Linux//lwm2m/core/objects.c ****                 {
 273:/home/baikal/workspace/C50/Huawei_IoT_Agent_Tiny_SDK_Linux//lwm2m/core/objects.c ****                     lwm2m_free(forbidden);
 274:/home/baikal/workspace/C50/Huawei_IoT_Agent_Tiny_SDK_Linux//lwm2m/core/objects.c ****                 }
 275:/home/baikal/workspace/C50/Huawei_IoT_Agent_Tiny_SDK_Linux//lwm2m/core/objects.c ****                 return COAP_500_INTERNAL_SERVER_ERROR;
 276:/home/baikal/workspace/C50/Huawei_IoT_Agent_Tiny_SDK_Linux//lwm2m/core/objects.c ****             }
 277:/home/baikal/workspace/C50/Huawei_IoT_Agent_Tiny_SDK_Linux//lwm2m/core/objects.c **** 
 278:/home/baikal/workspace/C50/Huawei_IoT_Agent_Tiny_SDK_Linux//lwm2m/core/objects.c ****             instanceP = targetP->instanceList;
 279:/home/baikal/workspace/C50/Huawei_IoT_Agent_Tiny_SDK_Linux//lwm2m/core/objects.c ****             i = 0;
 280:/home/baikal/workspace/C50/Huawei_IoT_Agent_Tiny_SDK_Linux//lwm2m/core/objects.c ****             j = 0;
 281:/home/baikal/workspace/C50/Huawei_IoT_Agent_Tiny_SDK_Linux//lwm2m/core/objects.c ****             while (instanceP != NULL && result == COAP_205_CONTENT)
 282:/home/baikal/workspace/C50/Huawei_IoT_Agent_Tiny_SDK_Linux//lwm2m/core/objects.c ****             {
 283:/home/baikal/workspace/C50/Huawei_IoT_Agent_Tiny_SDK_Linux//lwm2m/core/objects.c ****                 if (forbidden[i] == 0)
 284:/home/baikal/workspace/C50/Huawei_IoT_Agent_Tiny_SDK_Linux//lwm2m/core/objects.c ****                 {
 285:/home/baikal/workspace/C50/Huawei_IoT_Agent_Tiny_SDK_Linux//lwm2m/core/objects.c ****                     result = targetP->readFunc(instanceP->id, (int *) & ((*dataP)[j].value.asChildr
 286:/home/baikal/workspace/C50/Huawei_IoT_Agent_Tiny_SDK_Linux//lwm2m/core/objects.c ****                     (*dataP)[j].type = LWM2M_TYPE_OBJECT_INSTANCE;
 287:/home/baikal/workspace/C50/Huawei_IoT_Agent_Tiny_SDK_Linux//lwm2m/core/objects.c ****                     (*dataP)[j].id = instanceP->id;
 288:/home/baikal/workspace/C50/Huawei_IoT_Agent_Tiny_SDK_Linux//lwm2m/core/objects.c ****                     j++;
 289:/home/baikal/workspace/C50/Huawei_IoT_Agent_Tiny_SDK_Linux//lwm2m/core/objects.c ****                 }
 290:/home/baikal/workspace/C50/Huawei_IoT_Agent_Tiny_SDK_Linux//lwm2m/core/objects.c ****                 instanceP = instanceP->next;
 291:/home/baikal/workspace/C50/Huawei_IoT_Agent_Tiny_SDK_Linux//lwm2m/core/objects.c ****                 i++;
 292:/home/baikal/workspace/C50/Huawei_IoT_Agent_Tiny_SDK_Linux//lwm2m/core/objects.c ****             }
 293:/home/baikal/workspace/C50/Huawei_IoT_Agent_Tiny_SDK_Linux//lwm2m/core/objects.c ****         }
 294:/home/baikal/workspace/C50/Huawei_IoT_Agent_Tiny_SDK_Linux//lwm2m/core/objects.c ****         if (forbidden != NULL)
 295:/home/baikal/workspace/C50/Huawei_IoT_Agent_Tiny_SDK_Linux//lwm2m/core/objects.c ****         {
 296:/home/baikal/workspace/C50/Huawei_IoT_Agent_Tiny_SDK_Linux//lwm2m/core/objects.c ****             lwm2m_free(forbidden);
 297:/home/baikal/workspace/C50/Huawei_IoT_Agent_Tiny_SDK_Linux//lwm2m/core/objects.c ****         }
 298:/home/baikal/workspace/C50/Huawei_IoT_Agent_Tiny_SDK_Linux//lwm2m/core/objects.c ****     }
 299:/home/baikal/workspace/C50/Huawei_IoT_Agent_Tiny_SDK_Linux//lwm2m/core/objects.c **** 
 300:/home/baikal/workspace/C50/Huawei_IoT_Agent_Tiny_SDK_Linux//lwm2m/core/objects.c ****     LOG_ARG("result: %u.%2u, size: %d", (result & 0xFF) >> 5, (result & 0x1F), *sizeP);
 301:/home/baikal/workspace/C50/Huawei_IoT_Agent_Tiny_SDK_Linux//lwm2m/core/objects.c ****     return result;
GAS LISTING /tmp/cct9Gss8.s 			page 11


 302:/home/baikal/workspace/C50/Huawei_IoT_Agent_Tiny_SDK_Linux//lwm2m/core/objects.c **** }
 303:/home/baikal/workspace/C50/Huawei_IoT_Agent_Tiny_SDK_Linux//lwm2m/core/objects.c **** 
 304:/home/baikal/workspace/C50/Huawei_IoT_Agent_Tiny_SDK_Linux//lwm2m/core/objects.c **** 
 305:/home/baikal/workspace/C50/Huawei_IoT_Agent_Tiny_SDK_Linux//lwm2m/core/objects.c **** uint8_t object_read(lwm2m_context_t *contextP,
 306:/home/baikal/workspace/C50/Huawei_IoT_Agent_Tiny_SDK_Linux//lwm2m/core/objects.c ****                     lwm2m_uri_t *uriP,
 307:/home/baikal/workspace/C50/Huawei_IoT_Agent_Tiny_SDK_Linux//lwm2m/core/objects.c ****                     lwm2m_media_type_t *formatP,
 308:/home/baikal/workspace/C50/Huawei_IoT_Agent_Tiny_SDK_Linux//lwm2m/core/objects.c ****                     uint8_t **bufferP,
 309:/home/baikal/workspace/C50/Huawei_IoT_Agent_Tiny_SDK_Linux//lwm2m/core/objects.c ****                     size_t *lengthP,
 310:/home/baikal/workspace/C50/Huawei_IoT_Agent_Tiny_SDK_Linux//lwm2m/core/objects.c ****                     uint16_t serverId)
 311:/home/baikal/workspace/C50/Huawei_IoT_Agent_Tiny_SDK_Linux//lwm2m/core/objects.c **** {
 312:/home/baikal/workspace/C50/Huawei_IoT_Agent_Tiny_SDK_Linux//lwm2m/core/objects.c ****     uint8_t result;
 313:/home/baikal/workspace/C50/Huawei_IoT_Agent_Tiny_SDK_Linux//lwm2m/core/objects.c ****     lwm2m_data_t *dataP = NULL;
 314:/home/baikal/workspace/C50/Huawei_IoT_Agent_Tiny_SDK_Linux//lwm2m/core/objects.c ****     int size = 0;
 315:/home/baikal/workspace/C50/Huawei_IoT_Agent_Tiny_SDK_Linux//lwm2m/core/objects.c ****     int res;
 316:/home/baikal/workspace/C50/Huawei_IoT_Agent_Tiny_SDK_Linux//lwm2m/core/objects.c **** 
 317:/home/baikal/workspace/C50/Huawei_IoT_Agent_Tiny_SDK_Linux//lwm2m/core/objects.c ****     LOG_URI(uriP);
 318:/home/baikal/workspace/C50/Huawei_IoT_Agent_Tiny_SDK_Linux//lwm2m/core/objects.c ****     result = object_readData(contextP, uriP, &size, &dataP, NULL, serverId);
 319:/home/baikal/workspace/C50/Huawei_IoT_Agent_Tiny_SDK_Linux//lwm2m/core/objects.c **** 
 320:/home/baikal/workspace/C50/Huawei_IoT_Agent_Tiny_SDK_Linux//lwm2m/core/objects.c ****     if (result == COAP_205_CONTENT)
 321:/home/baikal/workspace/C50/Huawei_IoT_Agent_Tiny_SDK_Linux//lwm2m/core/objects.c ****     {
 322:/home/baikal/workspace/C50/Huawei_IoT_Agent_Tiny_SDK_Linux//lwm2m/core/objects.c ****         res = lwm2m_data_serialize(uriP, size, dataP, formatP, bufferP);
 323:/home/baikal/workspace/C50/Huawei_IoT_Agent_Tiny_SDK_Linux//lwm2m/core/objects.c ****         if (res < 0)
 324:/home/baikal/workspace/C50/Huawei_IoT_Agent_Tiny_SDK_Linux//lwm2m/core/objects.c ****         {
 325:/home/baikal/workspace/C50/Huawei_IoT_Agent_Tiny_SDK_Linux//lwm2m/core/objects.c ****             result = COAP_500_INTERNAL_SERVER_ERROR;
 326:/home/baikal/workspace/C50/Huawei_IoT_Agent_Tiny_SDK_Linux//lwm2m/core/objects.c ****         }
 327:/home/baikal/workspace/C50/Huawei_IoT_Agent_Tiny_SDK_Linux//lwm2m/core/objects.c ****         else
 328:/home/baikal/workspace/C50/Huawei_IoT_Agent_Tiny_SDK_Linux//lwm2m/core/objects.c ****         {
 329:/home/baikal/workspace/C50/Huawei_IoT_Agent_Tiny_SDK_Linux//lwm2m/core/objects.c ****             *lengthP = (size_t)res;
 330:/home/baikal/workspace/C50/Huawei_IoT_Agent_Tiny_SDK_Linux//lwm2m/core/objects.c ****         }
 331:/home/baikal/workspace/C50/Huawei_IoT_Agent_Tiny_SDK_Linux//lwm2m/core/objects.c ****     }
 332:/home/baikal/workspace/C50/Huawei_IoT_Agent_Tiny_SDK_Linux//lwm2m/core/objects.c ****     lwm2m_data_free(size, dataP);
 333:/home/baikal/workspace/C50/Huawei_IoT_Agent_Tiny_SDK_Linux//lwm2m/core/objects.c **** 
 334:/home/baikal/workspace/C50/Huawei_IoT_Agent_Tiny_SDK_Linux//lwm2m/core/objects.c ****     LOG_ARG("result: %u.%2u, length: %d", (result & 0xFF) >> 5, (result & 0x1F), *lengthP);
 335:/home/baikal/workspace/C50/Huawei_IoT_Agent_Tiny_SDK_Linux//lwm2m/core/objects.c **** 
 336:/home/baikal/workspace/C50/Huawei_IoT_Agent_Tiny_SDK_Linux//lwm2m/core/objects.c ****     return result;
 337:/home/baikal/workspace/C50/Huawei_IoT_Agent_Tiny_SDK_Linux//lwm2m/core/objects.c **** }
 338:/home/baikal/workspace/C50/Huawei_IoT_Agent_Tiny_SDK_Linux//lwm2m/core/objects.c **** 
 339:/home/baikal/workspace/C50/Huawei_IoT_Agent_Tiny_SDK_Linux//lwm2m/core/objects.c **** uint8_t object_write(lwm2m_context_t *contextP,
 340:/home/baikal/workspace/C50/Huawei_IoT_Agent_Tiny_SDK_Linux//lwm2m/core/objects.c ****                      lwm2m_uri_t *uriP,
 341:/home/baikal/workspace/C50/Huawei_IoT_Agent_Tiny_SDK_Linux//lwm2m/core/objects.c ****                      lwm2m_media_type_t format,
 342:/home/baikal/workspace/C50/Huawei_IoT_Agent_Tiny_SDK_Linux//lwm2m/core/objects.c ****                      uint8_t *buffer,
 343:/home/baikal/workspace/C50/Huawei_IoT_Agent_Tiny_SDK_Linux//lwm2m/core/objects.c ****                      size_t length)
 344:/home/baikal/workspace/C50/Huawei_IoT_Agent_Tiny_SDK_Linux//lwm2m/core/objects.c **** {
 345:/home/baikal/workspace/C50/Huawei_IoT_Agent_Tiny_SDK_Linux//lwm2m/core/objects.c ****     uint8_t result = NO_ERROR;
 346:/home/baikal/workspace/C50/Huawei_IoT_Agent_Tiny_SDK_Linux//lwm2m/core/objects.c ****     lwm2m_object_t *targetP;
 347:/home/baikal/workspace/C50/Huawei_IoT_Agent_Tiny_SDK_Linux//lwm2m/core/objects.c ****     lwm2m_data_t *dataP = NULL;
 348:/home/baikal/workspace/C50/Huawei_IoT_Agent_Tiny_SDK_Linux//lwm2m/core/objects.c ****     int size = 0;
 349:/home/baikal/workspace/C50/Huawei_IoT_Agent_Tiny_SDK_Linux//lwm2m/core/objects.c **** 
 350:/home/baikal/workspace/C50/Huawei_IoT_Agent_Tiny_SDK_Linux//lwm2m/core/objects.c ****     LOG_URI(uriP);
 351:/home/baikal/workspace/C50/Huawei_IoT_Agent_Tiny_SDK_Linux//lwm2m/core/objects.c ****     targetP = (lwm2m_object_t *)LWM2M_LIST_FIND(contextP->objectList, uriP->objectId);
 352:/home/baikal/workspace/C50/Huawei_IoT_Agent_Tiny_SDK_Linux//lwm2m/core/objects.c ****     if (NULL == targetP)
 353:/home/baikal/workspace/C50/Huawei_IoT_Agent_Tiny_SDK_Linux//lwm2m/core/objects.c ****     {
 354:/home/baikal/workspace/C50/Huawei_IoT_Agent_Tiny_SDK_Linux//lwm2m/core/objects.c ****         result = COAP_404_NOT_FOUND;
 355:/home/baikal/workspace/C50/Huawei_IoT_Agent_Tiny_SDK_Linux//lwm2m/core/objects.c ****     }
 356:/home/baikal/workspace/C50/Huawei_IoT_Agent_Tiny_SDK_Linux//lwm2m/core/objects.c ****     else if (NULL == targetP->writeFunc)
 357:/home/baikal/workspace/C50/Huawei_IoT_Agent_Tiny_SDK_Linux//lwm2m/core/objects.c ****     {
 358:/home/baikal/workspace/C50/Huawei_IoT_Agent_Tiny_SDK_Linux//lwm2m/core/objects.c ****         result = COAP_405_METHOD_NOT_ALLOWED;
GAS LISTING /tmp/cct9Gss8.s 			page 12


 359:/home/baikal/workspace/C50/Huawei_IoT_Agent_Tiny_SDK_Linux//lwm2m/core/objects.c ****     }
 360:/home/baikal/workspace/C50/Huawei_IoT_Agent_Tiny_SDK_Linux//lwm2m/core/objects.c ****     else
 361:/home/baikal/workspace/C50/Huawei_IoT_Agent_Tiny_SDK_Linux//lwm2m/core/objects.c ****     {
 362:/home/baikal/workspace/C50/Huawei_IoT_Agent_Tiny_SDK_Linux//lwm2m/core/objects.c ****         size = lwm2m_data_parse(uriP, buffer, length, format, &dataP);
 363:/home/baikal/workspace/C50/Huawei_IoT_Agent_Tiny_SDK_Linux//lwm2m/core/objects.c ****         if (size == 0)
 364:/home/baikal/workspace/C50/Huawei_IoT_Agent_Tiny_SDK_Linux//lwm2m/core/objects.c ****         {
 365:/home/baikal/workspace/C50/Huawei_IoT_Agent_Tiny_SDK_Linux//lwm2m/core/objects.c ****             result = COAP_406_NOT_ACCEPTABLE;
 366:/home/baikal/workspace/C50/Huawei_IoT_Agent_Tiny_SDK_Linux//lwm2m/core/objects.c ****         }
 367:/home/baikal/workspace/C50/Huawei_IoT_Agent_Tiny_SDK_Linux//lwm2m/core/objects.c ****     }
 368:/home/baikal/workspace/C50/Huawei_IoT_Agent_Tiny_SDK_Linux//lwm2m/core/objects.c ****     if (result == NO_ERROR)
 369:/home/baikal/workspace/C50/Huawei_IoT_Agent_Tiny_SDK_Linux//lwm2m/core/objects.c ****     {
 370:/home/baikal/workspace/C50/Huawei_IoT_Agent_Tiny_SDK_Linux//lwm2m/core/objects.c ****         result = targetP->writeFunc(uriP->instanceId, size, dataP, targetP);
 371:/home/baikal/workspace/C50/Huawei_IoT_Agent_Tiny_SDK_Linux//lwm2m/core/objects.c ****         lwm2m_data_free(size, dataP);
 372:/home/baikal/workspace/C50/Huawei_IoT_Agent_Tiny_SDK_Linux//lwm2m/core/objects.c ****     }
 373:/home/baikal/workspace/C50/Huawei_IoT_Agent_Tiny_SDK_Linux//lwm2m/core/objects.c **** 
 374:/home/baikal/workspace/C50/Huawei_IoT_Agent_Tiny_SDK_Linux//lwm2m/core/objects.c ****     LOG_ARG("result: %u.%2u", (result & 0xFF) >> 5, (result & 0x1F));
 375:/home/baikal/workspace/C50/Huawei_IoT_Agent_Tiny_SDK_Linux//lwm2m/core/objects.c **** 
 376:/home/baikal/workspace/C50/Huawei_IoT_Agent_Tiny_SDK_Linux//lwm2m/core/objects.c ****     return result;
 377:/home/baikal/workspace/C50/Huawei_IoT_Agent_Tiny_SDK_Linux//lwm2m/core/objects.c **** }
 378:/home/baikal/workspace/C50/Huawei_IoT_Agent_Tiny_SDK_Linux//lwm2m/core/objects.c **** 
 379:/home/baikal/workspace/C50/Huawei_IoT_Agent_Tiny_SDK_Linux//lwm2m/core/objects.c **** uint8_t object_execute(lwm2m_context_t *contextP,
 380:/home/baikal/workspace/C50/Huawei_IoT_Agent_Tiny_SDK_Linux//lwm2m/core/objects.c ****                        lwm2m_uri_t *uriP,
 381:/home/baikal/workspace/C50/Huawei_IoT_Agent_Tiny_SDK_Linux//lwm2m/core/objects.c ****                        uint8_t *buffer,
 382:/home/baikal/workspace/C50/Huawei_IoT_Agent_Tiny_SDK_Linux//lwm2m/core/objects.c ****                        size_t length)
 383:/home/baikal/workspace/C50/Huawei_IoT_Agent_Tiny_SDK_Linux//lwm2m/core/objects.c **** {
 384:/home/baikal/workspace/C50/Huawei_IoT_Agent_Tiny_SDK_Linux//lwm2m/core/objects.c ****     lwm2m_object_t *targetP;
 385:/home/baikal/workspace/C50/Huawei_IoT_Agent_Tiny_SDK_Linux//lwm2m/core/objects.c **** 
 386:/home/baikal/workspace/C50/Huawei_IoT_Agent_Tiny_SDK_Linux//lwm2m/core/objects.c ****     LOG_URI(uriP);
 387:/home/baikal/workspace/C50/Huawei_IoT_Agent_Tiny_SDK_Linux//lwm2m/core/objects.c ****     targetP = (lwm2m_object_t *)LWM2M_LIST_FIND(contextP->objectList, uriP->objectId);
 388:/home/baikal/workspace/C50/Huawei_IoT_Agent_Tiny_SDK_Linux//lwm2m/core/objects.c ****     if (NULL == targetP) return COAP_404_NOT_FOUND;
 389:/home/baikal/workspace/C50/Huawei_IoT_Agent_Tiny_SDK_Linux//lwm2m/core/objects.c ****     if (NULL == targetP->executeFunc) return COAP_405_METHOD_NOT_ALLOWED;
 390:/home/baikal/workspace/C50/Huawei_IoT_Agent_Tiny_SDK_Linux//lwm2m/core/objects.c ****     if (NULL == lwm2m_list_find(targetP->instanceList, uriP->instanceId)) return COAP_404_NOT_FOUND
 391:/home/baikal/workspace/C50/Huawei_IoT_Agent_Tiny_SDK_Linux//lwm2m/core/objects.c **** 
 392:/home/baikal/workspace/C50/Huawei_IoT_Agent_Tiny_SDK_Linux//lwm2m/core/objects.c ****     return targetP->executeFunc(uriP->instanceId, uriP->resourceId, buffer, length, targetP);
 393:/home/baikal/workspace/C50/Huawei_IoT_Agent_Tiny_SDK_Linux//lwm2m/core/objects.c **** }
 394:/home/baikal/workspace/C50/Huawei_IoT_Agent_Tiny_SDK_Linux//lwm2m/core/objects.c **** 
 395:/home/baikal/workspace/C50/Huawei_IoT_Agent_Tiny_SDK_Linux//lwm2m/core/objects.c **** uint8_t object_create(lwm2m_context_t *contextP,
 396:/home/baikal/workspace/C50/Huawei_IoT_Agent_Tiny_SDK_Linux//lwm2m/core/objects.c ****                       lwm2m_uri_t *uriP,
 397:/home/baikal/workspace/C50/Huawei_IoT_Agent_Tiny_SDK_Linux//lwm2m/core/objects.c ****                       lwm2m_media_type_t format,
 398:/home/baikal/workspace/C50/Huawei_IoT_Agent_Tiny_SDK_Linux//lwm2m/core/objects.c ****                       uint8_t *buffer,
 399:/home/baikal/workspace/C50/Huawei_IoT_Agent_Tiny_SDK_Linux//lwm2m/core/objects.c ****                       size_t length)
 400:/home/baikal/workspace/C50/Huawei_IoT_Agent_Tiny_SDK_Linux//lwm2m/core/objects.c **** {
 401:/home/baikal/workspace/C50/Huawei_IoT_Agent_Tiny_SDK_Linux//lwm2m/core/objects.c ****     lwm2m_object_t *targetP;
 402:/home/baikal/workspace/C50/Huawei_IoT_Agent_Tiny_SDK_Linux//lwm2m/core/objects.c ****     lwm2m_data_t *dataP = NULL;
 403:/home/baikal/workspace/C50/Huawei_IoT_Agent_Tiny_SDK_Linux//lwm2m/core/objects.c ****     int size = 0;
 404:/home/baikal/workspace/C50/Huawei_IoT_Agent_Tiny_SDK_Linux//lwm2m/core/objects.c ****     uint8_t result;
 405:/home/baikal/workspace/C50/Huawei_IoT_Agent_Tiny_SDK_Linux//lwm2m/core/objects.c **** 
 406:/home/baikal/workspace/C50/Huawei_IoT_Agent_Tiny_SDK_Linux//lwm2m/core/objects.c ****     LOG_URI(uriP);
 407:/home/baikal/workspace/C50/Huawei_IoT_Agent_Tiny_SDK_Linux//lwm2m/core/objects.c **** 
 408:/home/baikal/workspace/C50/Huawei_IoT_Agent_Tiny_SDK_Linux//lwm2m/core/objects.c ****     if (length == 0 || buffer == 0)
 409:/home/baikal/workspace/C50/Huawei_IoT_Agent_Tiny_SDK_Linux//lwm2m/core/objects.c ****     {
 410:/home/baikal/workspace/C50/Huawei_IoT_Agent_Tiny_SDK_Linux//lwm2m/core/objects.c ****         return COAP_400_BAD_REQUEST;
 411:/home/baikal/workspace/C50/Huawei_IoT_Agent_Tiny_SDK_Linux//lwm2m/core/objects.c ****     }
 412:/home/baikal/workspace/C50/Huawei_IoT_Agent_Tiny_SDK_Linux//lwm2m/core/objects.c **** 
 413:/home/baikal/workspace/C50/Huawei_IoT_Agent_Tiny_SDK_Linux//lwm2m/core/objects.c ****     targetP = (lwm2m_object_t *)LWM2M_LIST_FIND(contextP->objectList, uriP->objectId);
 414:/home/baikal/workspace/C50/Huawei_IoT_Agent_Tiny_SDK_Linux//lwm2m/core/objects.c ****     if (NULL == targetP) return COAP_404_NOT_FOUND;
 415:/home/baikal/workspace/C50/Huawei_IoT_Agent_Tiny_SDK_Linux//lwm2m/core/objects.c ****     if (NULL == targetP->createFunc) return COAP_405_METHOD_NOT_ALLOWED;
GAS LISTING /tmp/cct9Gss8.s 			page 13


 416:/home/baikal/workspace/C50/Huawei_IoT_Agent_Tiny_SDK_Linux//lwm2m/core/objects.c **** 
 417:/home/baikal/workspace/C50/Huawei_IoT_Agent_Tiny_SDK_Linux//lwm2m/core/objects.c ****     size = lwm2m_data_parse(uriP, buffer, length, format, &dataP);
 418:/home/baikal/workspace/C50/Huawei_IoT_Agent_Tiny_SDK_Linux//lwm2m/core/objects.c ****     if (size <= 0) return COAP_400_BAD_REQUEST;
 419:/home/baikal/workspace/C50/Huawei_IoT_Agent_Tiny_SDK_Linux//lwm2m/core/objects.c **** 
 420:/home/baikal/workspace/C50/Huawei_IoT_Agent_Tiny_SDK_Linux//lwm2m/core/objects.c ****     switch (dataP[0].type)
 421:/home/baikal/workspace/C50/Huawei_IoT_Agent_Tiny_SDK_Linux//lwm2m/core/objects.c ****     {
 422:/home/baikal/workspace/C50/Huawei_IoT_Agent_Tiny_SDK_Linux//lwm2m/core/objects.c ****     case LWM2M_TYPE_OBJECT:
 423:/home/baikal/workspace/C50/Huawei_IoT_Agent_Tiny_SDK_Linux//lwm2m/core/objects.c ****         result = COAP_400_BAD_REQUEST;
 424:/home/baikal/workspace/C50/Huawei_IoT_Agent_Tiny_SDK_Linux//lwm2m/core/objects.c ****         goto exit;
 425:/home/baikal/workspace/C50/Huawei_IoT_Agent_Tiny_SDK_Linux//lwm2m/core/objects.c **** 
 426:/home/baikal/workspace/C50/Huawei_IoT_Agent_Tiny_SDK_Linux//lwm2m/core/objects.c ****     case LWM2M_TYPE_OBJECT_INSTANCE:
 427:/home/baikal/workspace/C50/Huawei_IoT_Agent_Tiny_SDK_Linux//lwm2m/core/objects.c ****         if (size != 1)
 428:/home/baikal/workspace/C50/Huawei_IoT_Agent_Tiny_SDK_Linux//lwm2m/core/objects.c ****         {
 429:/home/baikal/workspace/C50/Huawei_IoT_Agent_Tiny_SDK_Linux//lwm2m/core/objects.c ****             result = COAP_400_BAD_REQUEST;
 430:/home/baikal/workspace/C50/Huawei_IoT_Agent_Tiny_SDK_Linux//lwm2m/core/objects.c ****             goto exit;
 431:/home/baikal/workspace/C50/Huawei_IoT_Agent_Tiny_SDK_Linux//lwm2m/core/objects.c ****         }
 432:/home/baikal/workspace/C50/Huawei_IoT_Agent_Tiny_SDK_Linux//lwm2m/core/objects.c ****         if (NULL != lwm2m_list_find(targetP->instanceList, dataP[0].id))
 433:/home/baikal/workspace/C50/Huawei_IoT_Agent_Tiny_SDK_Linux//lwm2m/core/objects.c ****         {
 434:/home/baikal/workspace/C50/Huawei_IoT_Agent_Tiny_SDK_Linux//lwm2m/core/objects.c ****             // Instance already exists
 435:/home/baikal/workspace/C50/Huawei_IoT_Agent_Tiny_SDK_Linux//lwm2m/core/objects.c ****             result = COAP_406_NOT_ACCEPTABLE;
 436:/home/baikal/workspace/C50/Huawei_IoT_Agent_Tiny_SDK_Linux//lwm2m/core/objects.c ****             goto exit;
 437:/home/baikal/workspace/C50/Huawei_IoT_Agent_Tiny_SDK_Linux//lwm2m/core/objects.c ****         }
 438:/home/baikal/workspace/C50/Huawei_IoT_Agent_Tiny_SDK_Linux//lwm2m/core/objects.c ****         result = targetP->createFunc(dataP[0].id, dataP[0].value.asChildren.count, dataP[0].value.a
 439:/home/baikal/workspace/C50/Huawei_IoT_Agent_Tiny_SDK_Linux//lwm2m/core/objects.c ****         uriP->instanceId = dataP[0].id;
 440:/home/baikal/workspace/C50/Huawei_IoT_Agent_Tiny_SDK_Linux//lwm2m/core/objects.c ****         uriP->flag |= LWM2M_URI_FLAG_INSTANCE_ID;
 441:/home/baikal/workspace/C50/Huawei_IoT_Agent_Tiny_SDK_Linux//lwm2m/core/objects.c ****         break;
 442:/home/baikal/workspace/C50/Huawei_IoT_Agent_Tiny_SDK_Linux//lwm2m/core/objects.c **** 
 443:/home/baikal/workspace/C50/Huawei_IoT_Agent_Tiny_SDK_Linux//lwm2m/core/objects.c ****     default:
 444:/home/baikal/workspace/C50/Huawei_IoT_Agent_Tiny_SDK_Linux//lwm2m/core/objects.c ****         if (!LWM2M_URI_IS_SET_INSTANCE(uriP))
 445:/home/baikal/workspace/C50/Huawei_IoT_Agent_Tiny_SDK_Linux//lwm2m/core/objects.c ****         {
 446:/home/baikal/workspace/C50/Huawei_IoT_Agent_Tiny_SDK_Linux//lwm2m/core/objects.c ****             uriP->instanceId = lwm2m_list_newId(targetP->instanceList);
 447:/home/baikal/workspace/C50/Huawei_IoT_Agent_Tiny_SDK_Linux//lwm2m/core/objects.c ****             uriP->flag |= LWM2M_URI_FLAG_INSTANCE_ID;
 448:/home/baikal/workspace/C50/Huawei_IoT_Agent_Tiny_SDK_Linux//lwm2m/core/objects.c ****         }
 449:/home/baikal/workspace/C50/Huawei_IoT_Agent_Tiny_SDK_Linux//lwm2m/core/objects.c ****         result = targetP->createFunc(uriP->instanceId, size, dataP, targetP);
 450:/home/baikal/workspace/C50/Huawei_IoT_Agent_Tiny_SDK_Linux//lwm2m/core/objects.c ****         break;
 451:/home/baikal/workspace/C50/Huawei_IoT_Agent_Tiny_SDK_Linux//lwm2m/core/objects.c ****     }
 452:/home/baikal/workspace/C50/Huawei_IoT_Agent_Tiny_SDK_Linux//lwm2m/core/objects.c **** 
 453:/home/baikal/workspace/C50/Huawei_IoT_Agent_Tiny_SDK_Linux//lwm2m/core/objects.c **** exit:
 454:/home/baikal/workspace/C50/Huawei_IoT_Agent_Tiny_SDK_Linux//lwm2m/core/objects.c ****     lwm2m_data_free(size, dataP);
 455:/home/baikal/workspace/C50/Huawei_IoT_Agent_Tiny_SDK_Linux//lwm2m/core/objects.c **** 
 456:/home/baikal/workspace/C50/Huawei_IoT_Agent_Tiny_SDK_Linux//lwm2m/core/objects.c ****     LOG_ARG("result: %u.%2u", (result & 0xFF) >> 5, (result & 0x1F));
 457:/home/baikal/workspace/C50/Huawei_IoT_Agent_Tiny_SDK_Linux//lwm2m/core/objects.c **** 
 458:/home/baikal/workspace/C50/Huawei_IoT_Agent_Tiny_SDK_Linux//lwm2m/core/objects.c ****     return result;
 459:/home/baikal/workspace/C50/Huawei_IoT_Agent_Tiny_SDK_Linux//lwm2m/core/objects.c **** }
 460:/home/baikal/workspace/C50/Huawei_IoT_Agent_Tiny_SDK_Linux//lwm2m/core/objects.c **** 
 461:/home/baikal/workspace/C50/Huawei_IoT_Agent_Tiny_SDK_Linux//lwm2m/core/objects.c **** uint8_t object_delete(lwm2m_context_t *contextP,
 462:/home/baikal/workspace/C50/Huawei_IoT_Agent_Tiny_SDK_Linux//lwm2m/core/objects.c ****                       lwm2m_uri_t *uriP)
 463:/home/baikal/workspace/C50/Huawei_IoT_Agent_Tiny_SDK_Linux//lwm2m/core/objects.c **** {
 464:/home/baikal/workspace/C50/Huawei_IoT_Agent_Tiny_SDK_Linux//lwm2m/core/objects.c ****     lwm2m_object_t *objectP;
 465:/home/baikal/workspace/C50/Huawei_IoT_Agent_Tiny_SDK_Linux//lwm2m/core/objects.c ****     uint8_t result;
 466:/home/baikal/workspace/C50/Huawei_IoT_Agent_Tiny_SDK_Linux//lwm2m/core/objects.c **** 
 467:/home/baikal/workspace/C50/Huawei_IoT_Agent_Tiny_SDK_Linux//lwm2m/core/objects.c ****     LOG_URI(uriP);
 468:/home/baikal/workspace/C50/Huawei_IoT_Agent_Tiny_SDK_Linux//lwm2m/core/objects.c ****     objectP = (lwm2m_object_t *)LWM2M_LIST_FIND(contextP->objectList, uriP->objectId);
 469:/home/baikal/workspace/C50/Huawei_IoT_Agent_Tiny_SDK_Linux//lwm2m/core/objects.c ****     if (NULL == objectP) return COAP_404_NOT_FOUND;
 470:/home/baikal/workspace/C50/Huawei_IoT_Agent_Tiny_SDK_Linux//lwm2m/core/objects.c ****     if (NULL == objectP->deleteFunc) return COAP_405_METHOD_NOT_ALLOWED;
 471:/home/baikal/workspace/C50/Huawei_IoT_Agent_Tiny_SDK_Linux//lwm2m/core/objects.c **** 
 472:/home/baikal/workspace/C50/Huawei_IoT_Agent_Tiny_SDK_Linux//lwm2m/core/objects.c ****     LOG("Entering");
GAS LISTING /tmp/cct9Gss8.s 			page 14


 473:/home/baikal/workspace/C50/Huawei_IoT_Agent_Tiny_SDK_Linux//lwm2m/core/objects.c **** 
 474:/home/baikal/workspace/C50/Huawei_IoT_Agent_Tiny_SDK_Linux//lwm2m/core/objects.c ****     if (LWM2M_URI_IS_SET_INSTANCE(uriP))
 475:/home/baikal/workspace/C50/Huawei_IoT_Agent_Tiny_SDK_Linux//lwm2m/core/objects.c ****     {
 476:/home/baikal/workspace/C50/Huawei_IoT_Agent_Tiny_SDK_Linux//lwm2m/core/objects.c ****         result = objectP->deleteFunc(uriP->instanceId, objectP);
 477:/home/baikal/workspace/C50/Huawei_IoT_Agent_Tiny_SDK_Linux//lwm2m/core/objects.c ****         if (result == COAP_202_DELETED)
 478:/home/baikal/workspace/C50/Huawei_IoT_Agent_Tiny_SDK_Linux//lwm2m/core/objects.c ****         {
 479:/home/baikal/workspace/C50/Huawei_IoT_Agent_Tiny_SDK_Linux//lwm2m/core/objects.c ****             observe_clear(contextP, uriP);
 480:/home/baikal/workspace/C50/Huawei_IoT_Agent_Tiny_SDK_Linux//lwm2m/core/objects.c ****         }
 481:/home/baikal/workspace/C50/Huawei_IoT_Agent_Tiny_SDK_Linux//lwm2m/core/objects.c ****     }
 482:/home/baikal/workspace/C50/Huawei_IoT_Agent_Tiny_SDK_Linux//lwm2m/core/objects.c ****     else
 483:/home/baikal/workspace/C50/Huawei_IoT_Agent_Tiny_SDK_Linux//lwm2m/core/objects.c ****     {
 484:/home/baikal/workspace/C50/Huawei_IoT_Agent_Tiny_SDK_Linux//lwm2m/core/objects.c ****         lwm2m_list_t *instanceP;
 485:/home/baikal/workspace/C50/Huawei_IoT_Agent_Tiny_SDK_Linux//lwm2m/core/objects.c **** 
 486:/home/baikal/workspace/C50/Huawei_IoT_Agent_Tiny_SDK_Linux//lwm2m/core/objects.c ****         result = COAP_202_DELETED;
 487:/home/baikal/workspace/C50/Huawei_IoT_Agent_Tiny_SDK_Linux//lwm2m/core/objects.c ****         instanceP = objectP->instanceList;
 488:/home/baikal/workspace/C50/Huawei_IoT_Agent_Tiny_SDK_Linux//lwm2m/core/objects.c ****         while (NULL != instanceP
 489:/home/baikal/workspace/C50/Huawei_IoT_Agent_Tiny_SDK_Linux//lwm2m/core/objects.c ****                 && result == COAP_202_DELETED)
 490:/home/baikal/workspace/C50/Huawei_IoT_Agent_Tiny_SDK_Linux//lwm2m/core/objects.c ****         {
 491:/home/baikal/workspace/C50/Huawei_IoT_Agent_Tiny_SDK_Linux//lwm2m/core/objects.c ****             uriP->instanceId = instanceP->id;
 492:/home/baikal/workspace/C50/Huawei_IoT_Agent_Tiny_SDK_Linux//lwm2m/core/objects.c ****             result = objectP->deleteFunc(instanceP->id, objectP);
 493:/home/baikal/workspace/C50/Huawei_IoT_Agent_Tiny_SDK_Linux//lwm2m/core/objects.c ****             if (result == COAP_202_DELETED)
 494:/home/baikal/workspace/C50/Huawei_IoT_Agent_Tiny_SDK_Linux//lwm2m/core/objects.c ****             {
 495:/home/baikal/workspace/C50/Huawei_IoT_Agent_Tiny_SDK_Linux//lwm2m/core/objects.c ****                 uriP->flag |= LWM2M_URI_FLAG_INSTANCE_ID;
 496:/home/baikal/workspace/C50/Huawei_IoT_Agent_Tiny_SDK_Linux//lwm2m/core/objects.c ****                 observe_clear(contextP, uriP);
 497:/home/baikal/workspace/C50/Huawei_IoT_Agent_Tiny_SDK_Linux//lwm2m/core/objects.c ****                 uriP->flag &= ~LWM2M_URI_FLAG_INSTANCE_ID;
 498:/home/baikal/workspace/C50/Huawei_IoT_Agent_Tiny_SDK_Linux//lwm2m/core/objects.c ****             }
 499:/home/baikal/workspace/C50/Huawei_IoT_Agent_Tiny_SDK_Linux//lwm2m/core/objects.c ****             instanceP = objectP->instanceList;
 500:/home/baikal/workspace/C50/Huawei_IoT_Agent_Tiny_SDK_Linux//lwm2m/core/objects.c ****         }
 501:/home/baikal/workspace/C50/Huawei_IoT_Agent_Tiny_SDK_Linux//lwm2m/core/objects.c ****     }
 502:/home/baikal/workspace/C50/Huawei_IoT_Agent_Tiny_SDK_Linux//lwm2m/core/objects.c **** 
 503:/home/baikal/workspace/C50/Huawei_IoT_Agent_Tiny_SDK_Linux//lwm2m/core/objects.c ****     LOG_ARG("result: %u.%2u", (result & 0xFF) >> 5, (result & 0x1F));
 504:/home/baikal/workspace/C50/Huawei_IoT_Agent_Tiny_SDK_Linux//lwm2m/core/objects.c **** 
 505:/home/baikal/workspace/C50/Huawei_IoT_Agent_Tiny_SDK_Linux//lwm2m/core/objects.c ****     return result;
 506:/home/baikal/workspace/C50/Huawei_IoT_Agent_Tiny_SDK_Linux//lwm2m/core/objects.c **** }
 507:/home/baikal/workspace/C50/Huawei_IoT_Agent_Tiny_SDK_Linux//lwm2m/core/objects.c **** 
 508:/home/baikal/workspace/C50/Huawei_IoT_Agent_Tiny_SDK_Linux//lwm2m/core/objects.c **** uint8_t object_discover(lwm2m_context_t *contextP,
 509:/home/baikal/workspace/C50/Huawei_IoT_Agent_Tiny_SDK_Linux//lwm2m/core/objects.c ****                         lwm2m_uri_t *uriP,
 510:/home/baikal/workspace/C50/Huawei_IoT_Agent_Tiny_SDK_Linux//lwm2m/core/objects.c ****                         lwm2m_server_t *serverP,
 511:/home/baikal/workspace/C50/Huawei_IoT_Agent_Tiny_SDK_Linux//lwm2m/core/objects.c ****                         uint8_t **bufferP,
 512:/home/baikal/workspace/C50/Huawei_IoT_Agent_Tiny_SDK_Linux//lwm2m/core/objects.c ****                         size_t *lengthP)
 513:/home/baikal/workspace/C50/Huawei_IoT_Agent_Tiny_SDK_Linux//lwm2m/core/objects.c **** {
 514:/home/baikal/workspace/C50/Huawei_IoT_Agent_Tiny_SDK_Linux//lwm2m/core/objects.c ****     uint8_t result;
 515:/home/baikal/workspace/C50/Huawei_IoT_Agent_Tiny_SDK_Linux//lwm2m/core/objects.c ****     lwm2m_object_t *targetP;
 516:/home/baikal/workspace/C50/Huawei_IoT_Agent_Tiny_SDK_Linux//lwm2m/core/objects.c ****     lwm2m_data_t *dataP = NULL;
 517:/home/baikal/workspace/C50/Huawei_IoT_Agent_Tiny_SDK_Linux//lwm2m/core/objects.c ****     int size = 0;
 518:/home/baikal/workspace/C50/Huawei_IoT_Agent_Tiny_SDK_Linux//lwm2m/core/objects.c **** 
 519:/home/baikal/workspace/C50/Huawei_IoT_Agent_Tiny_SDK_Linux//lwm2m/core/objects.c ****     LOG_URI(uriP);
 520:/home/baikal/workspace/C50/Huawei_IoT_Agent_Tiny_SDK_Linux//lwm2m/core/objects.c ****     targetP = (lwm2m_object_t *)LWM2M_LIST_FIND(contextP->objectList, uriP->objectId);
 521:/home/baikal/workspace/C50/Huawei_IoT_Agent_Tiny_SDK_Linux//lwm2m/core/objects.c ****     if (NULL == targetP) return COAP_404_NOT_FOUND;
 522:/home/baikal/workspace/C50/Huawei_IoT_Agent_Tiny_SDK_Linux//lwm2m/core/objects.c ****     if (NULL == targetP->discoverFunc) return COAP_501_NOT_IMPLEMENTED;
 523:/home/baikal/workspace/C50/Huawei_IoT_Agent_Tiny_SDK_Linux//lwm2m/core/objects.c **** 
 524:/home/baikal/workspace/C50/Huawei_IoT_Agent_Tiny_SDK_Linux//lwm2m/core/objects.c ****     if (LWM2M_URI_IS_SET_INSTANCE(uriP))
 525:/home/baikal/workspace/C50/Huawei_IoT_Agent_Tiny_SDK_Linux//lwm2m/core/objects.c ****     {
 526:/home/baikal/workspace/C50/Huawei_IoT_Agent_Tiny_SDK_Linux//lwm2m/core/objects.c ****         if (NULL == lwm2m_list_find(targetP->instanceList, uriP->instanceId)) return COAP_404_NOT_F
 527:/home/baikal/workspace/C50/Huawei_IoT_Agent_Tiny_SDK_Linux//lwm2m/core/objects.c **** 
 528:/home/baikal/workspace/C50/Huawei_IoT_Agent_Tiny_SDK_Linux//lwm2m/core/objects.c ****         // single instance read
 529:/home/baikal/workspace/C50/Huawei_IoT_Agent_Tiny_SDK_Linux//lwm2m/core/objects.c ****         if (LWM2M_URI_IS_SET_RESOURCE(uriP))
GAS LISTING /tmp/cct9Gss8.s 			page 15


 530:/home/baikal/workspace/C50/Huawei_IoT_Agent_Tiny_SDK_Linux//lwm2m/core/objects.c ****         {
 531:/home/baikal/workspace/C50/Huawei_IoT_Agent_Tiny_SDK_Linux//lwm2m/core/objects.c ****             size = 1;
 532:/home/baikal/workspace/C50/Huawei_IoT_Agent_Tiny_SDK_Linux//lwm2m/core/objects.c ****             dataP = lwm2m_data_new(size);
 533:/home/baikal/workspace/C50/Huawei_IoT_Agent_Tiny_SDK_Linux//lwm2m/core/objects.c ****             if (dataP == NULL) return COAP_500_INTERNAL_SERVER_ERROR;
 534:/home/baikal/workspace/C50/Huawei_IoT_Agent_Tiny_SDK_Linux//lwm2m/core/objects.c **** 
 535:/home/baikal/workspace/C50/Huawei_IoT_Agent_Tiny_SDK_Linux//lwm2m/core/objects.c ****             dataP->id = uriP->resourceId;
 536:/home/baikal/workspace/C50/Huawei_IoT_Agent_Tiny_SDK_Linux//lwm2m/core/objects.c ****         }
 537:/home/baikal/workspace/C50/Huawei_IoT_Agent_Tiny_SDK_Linux//lwm2m/core/objects.c **** 
 538:/home/baikal/workspace/C50/Huawei_IoT_Agent_Tiny_SDK_Linux//lwm2m/core/objects.c ****         result = targetP->discoverFunc(uriP->instanceId, &size, &dataP, targetP);
 539:/home/baikal/workspace/C50/Huawei_IoT_Agent_Tiny_SDK_Linux//lwm2m/core/objects.c ****     }
 540:/home/baikal/workspace/C50/Huawei_IoT_Agent_Tiny_SDK_Linux//lwm2m/core/objects.c ****     else
 541:/home/baikal/workspace/C50/Huawei_IoT_Agent_Tiny_SDK_Linux//lwm2m/core/objects.c ****     {
 542:/home/baikal/workspace/C50/Huawei_IoT_Agent_Tiny_SDK_Linux//lwm2m/core/objects.c ****         // multiple object instances read
 543:/home/baikal/workspace/C50/Huawei_IoT_Agent_Tiny_SDK_Linux//lwm2m/core/objects.c ****         lwm2m_list_t *instanceP;
 544:/home/baikal/workspace/C50/Huawei_IoT_Agent_Tiny_SDK_Linux//lwm2m/core/objects.c ****         int i;
 545:/home/baikal/workspace/C50/Huawei_IoT_Agent_Tiny_SDK_Linux//lwm2m/core/objects.c **** 
 546:/home/baikal/workspace/C50/Huawei_IoT_Agent_Tiny_SDK_Linux//lwm2m/core/objects.c ****         result = COAP_205_CONTENT;
 547:/home/baikal/workspace/C50/Huawei_IoT_Agent_Tiny_SDK_Linux//lwm2m/core/objects.c **** 
 548:/home/baikal/workspace/C50/Huawei_IoT_Agent_Tiny_SDK_Linux//lwm2m/core/objects.c ****         size = 0;
 549:/home/baikal/workspace/C50/Huawei_IoT_Agent_Tiny_SDK_Linux//lwm2m/core/objects.c ****         for (instanceP = targetP->instanceList; instanceP != NULL ; instanceP = instanceP->next)
 550:/home/baikal/workspace/C50/Huawei_IoT_Agent_Tiny_SDK_Linux//lwm2m/core/objects.c ****         {
 551:/home/baikal/workspace/C50/Huawei_IoT_Agent_Tiny_SDK_Linux//lwm2m/core/objects.c ****             size++;
 552:/home/baikal/workspace/C50/Huawei_IoT_Agent_Tiny_SDK_Linux//lwm2m/core/objects.c ****         }
 553:/home/baikal/workspace/C50/Huawei_IoT_Agent_Tiny_SDK_Linux//lwm2m/core/objects.c **** 
 554:/home/baikal/workspace/C50/Huawei_IoT_Agent_Tiny_SDK_Linux//lwm2m/core/objects.c ****         if (size != 0)
 555:/home/baikal/workspace/C50/Huawei_IoT_Agent_Tiny_SDK_Linux//lwm2m/core/objects.c ****         {
 556:/home/baikal/workspace/C50/Huawei_IoT_Agent_Tiny_SDK_Linux//lwm2m/core/objects.c ****             dataP = lwm2m_data_new(size);
 557:/home/baikal/workspace/C50/Huawei_IoT_Agent_Tiny_SDK_Linux//lwm2m/core/objects.c ****             if (dataP == NULL) return COAP_500_INTERNAL_SERVER_ERROR;
 558:/home/baikal/workspace/C50/Huawei_IoT_Agent_Tiny_SDK_Linux//lwm2m/core/objects.c **** 
 559:/home/baikal/workspace/C50/Huawei_IoT_Agent_Tiny_SDK_Linux//lwm2m/core/objects.c ****             instanceP = targetP->instanceList;
 560:/home/baikal/workspace/C50/Huawei_IoT_Agent_Tiny_SDK_Linux//lwm2m/core/objects.c ****             i = 0;
 561:/home/baikal/workspace/C50/Huawei_IoT_Agent_Tiny_SDK_Linux//lwm2m/core/objects.c ****             while (instanceP != NULL && result == COAP_205_CONTENT)
 562:/home/baikal/workspace/C50/Huawei_IoT_Agent_Tiny_SDK_Linux//lwm2m/core/objects.c ****             {
 563:/home/baikal/workspace/C50/Huawei_IoT_Agent_Tiny_SDK_Linux//lwm2m/core/objects.c ****                 result = targetP->discoverFunc(instanceP->id, (int *) & (dataP[i].value.asChildren.
 564:/home/baikal/workspace/C50/Huawei_IoT_Agent_Tiny_SDK_Linux//lwm2m/core/objects.c ****                 dataP[i].type = LWM2M_TYPE_OBJECT_INSTANCE;
 565:/home/baikal/workspace/C50/Huawei_IoT_Agent_Tiny_SDK_Linux//lwm2m/core/objects.c ****                 dataP[i].id = instanceP->id;
 566:/home/baikal/workspace/C50/Huawei_IoT_Agent_Tiny_SDK_Linux//lwm2m/core/objects.c ****                 i++;
 567:/home/baikal/workspace/C50/Huawei_IoT_Agent_Tiny_SDK_Linux//lwm2m/core/objects.c ****                 instanceP = instanceP->next;
 568:/home/baikal/workspace/C50/Huawei_IoT_Agent_Tiny_SDK_Linux//lwm2m/core/objects.c ****             }
 569:/home/baikal/workspace/C50/Huawei_IoT_Agent_Tiny_SDK_Linux//lwm2m/core/objects.c ****         }
 570:/home/baikal/workspace/C50/Huawei_IoT_Agent_Tiny_SDK_Linux//lwm2m/core/objects.c ****     }
 571:/home/baikal/workspace/C50/Huawei_IoT_Agent_Tiny_SDK_Linux//lwm2m/core/objects.c **** 
 572:/home/baikal/workspace/C50/Huawei_IoT_Agent_Tiny_SDK_Linux//lwm2m/core/objects.c ****     if (result == COAP_205_CONTENT)
 573:/home/baikal/workspace/C50/Huawei_IoT_Agent_Tiny_SDK_Linux//lwm2m/core/objects.c ****     {
 574:/home/baikal/workspace/C50/Huawei_IoT_Agent_Tiny_SDK_Linux//lwm2m/core/objects.c ****         int len;
 575:/home/baikal/workspace/C50/Huawei_IoT_Agent_Tiny_SDK_Linux//lwm2m/core/objects.c **** 
 576:/home/baikal/workspace/C50/Huawei_IoT_Agent_Tiny_SDK_Linux//lwm2m/core/objects.c ****         len = discover_serialize(contextP, uriP, serverP, size, dataP, bufferP);
 577:/home/baikal/workspace/C50/Huawei_IoT_Agent_Tiny_SDK_Linux//lwm2m/core/objects.c ****         if (len <= 0) result = COAP_500_INTERNAL_SERVER_ERROR;
 578:/home/baikal/workspace/C50/Huawei_IoT_Agent_Tiny_SDK_Linux//lwm2m/core/objects.c ****         else *lengthP = len;
 579:/home/baikal/workspace/C50/Huawei_IoT_Agent_Tiny_SDK_Linux//lwm2m/core/objects.c ****     }
 580:/home/baikal/workspace/C50/Huawei_IoT_Agent_Tiny_SDK_Linux//lwm2m/core/objects.c ****     lwm2m_data_free(size, dataP);
 581:/home/baikal/workspace/C50/Huawei_IoT_Agent_Tiny_SDK_Linux//lwm2m/core/objects.c **** 
 582:/home/baikal/workspace/C50/Huawei_IoT_Agent_Tiny_SDK_Linux//lwm2m/core/objects.c ****     LOG_ARG("result: %u.%2u", (result & 0xFF) >> 5, (result & 0x1F));
 583:/home/baikal/workspace/C50/Huawei_IoT_Agent_Tiny_SDK_Linux//lwm2m/core/objects.c **** 
 584:/home/baikal/workspace/C50/Huawei_IoT_Agent_Tiny_SDK_Linux//lwm2m/core/objects.c ****     return result;
 585:/home/baikal/workspace/C50/Huawei_IoT_Agent_Tiny_SDK_Linux//lwm2m/core/objects.c **** }
 586:/home/baikal/workspace/C50/Huawei_IoT_Agent_Tiny_SDK_Linux//lwm2m/core/objects.c **** 
GAS LISTING /tmp/cct9Gss8.s 			page 16


 587:/home/baikal/workspace/C50/Huawei_IoT_Agent_Tiny_SDK_Linux//lwm2m/core/objects.c **** bool object_isInstanceNew(lwm2m_context_t *contextP,
 588:/home/baikal/workspace/C50/Huawei_IoT_Agent_Tiny_SDK_Linux//lwm2m/core/objects.c ****                           uint16_t objectId,
 589:/home/baikal/workspace/C50/Huawei_IoT_Agent_Tiny_SDK_Linux//lwm2m/core/objects.c ****                           uint16_t instanceId)
 590:/home/baikal/workspace/C50/Huawei_IoT_Agent_Tiny_SDK_Linux//lwm2m/core/objects.c **** {
 591:/home/baikal/workspace/C50/Huawei_IoT_Agent_Tiny_SDK_Linux//lwm2m/core/objects.c ****     lwm2m_object_t *targetP;
 592:/home/baikal/workspace/C50/Huawei_IoT_Agent_Tiny_SDK_Linux//lwm2m/core/objects.c **** 
 593:/home/baikal/workspace/C50/Huawei_IoT_Agent_Tiny_SDK_Linux//lwm2m/core/objects.c ****     LOG("Entering");
 594:/home/baikal/workspace/C50/Huawei_IoT_Agent_Tiny_SDK_Linux//lwm2m/core/objects.c ****     targetP = (lwm2m_object_t *)LWM2M_LIST_FIND(contextP->objectList, objectId);
 595:/home/baikal/workspace/C50/Huawei_IoT_Agent_Tiny_SDK_Linux//lwm2m/core/objects.c ****     if (targetP != NULL)
 596:/home/baikal/workspace/C50/Huawei_IoT_Agent_Tiny_SDK_Linux//lwm2m/core/objects.c ****     {
 597:/home/baikal/workspace/C50/Huawei_IoT_Agent_Tiny_SDK_Linux//lwm2m/core/objects.c ****         if (NULL != lwm2m_list_find(targetP->instanceList, instanceId))
 598:/home/baikal/workspace/C50/Huawei_IoT_Agent_Tiny_SDK_Linux//lwm2m/core/objects.c ****         {
 599:/home/baikal/workspace/C50/Huawei_IoT_Agent_Tiny_SDK_Linux//lwm2m/core/objects.c ****             return false;
 600:/home/baikal/workspace/C50/Huawei_IoT_Agent_Tiny_SDK_Linux//lwm2m/core/objects.c ****         }
 601:/home/baikal/workspace/C50/Huawei_IoT_Agent_Tiny_SDK_Linux//lwm2m/core/objects.c ****     }
 602:/home/baikal/workspace/C50/Huawei_IoT_Agent_Tiny_SDK_Linux//lwm2m/core/objects.c **** 
 603:/home/baikal/workspace/C50/Huawei_IoT_Agent_Tiny_SDK_Linux//lwm2m/core/objects.c ****     return true;
 604:/home/baikal/workspace/C50/Huawei_IoT_Agent_Tiny_SDK_Linux//lwm2m/core/objects.c **** }
 605:/home/baikal/workspace/C50/Huawei_IoT_Agent_Tiny_SDK_Linux//lwm2m/core/objects.c **** 
 606:/home/baikal/workspace/C50/Huawei_IoT_Agent_Tiny_SDK_Linux//lwm2m/core/objects.c **** static int prv_getObjectTemplate(uint8_t *buffer,
 607:/home/baikal/workspace/C50/Huawei_IoT_Agent_Tiny_SDK_Linux//lwm2m/core/objects.c ****                                  size_t length,
 608:/home/baikal/workspace/C50/Huawei_IoT_Agent_Tiny_SDK_Linux//lwm2m/core/objects.c ****                                  uint16_t id)
 609:/home/baikal/workspace/C50/Huawei_IoT_Agent_Tiny_SDK_Linux//lwm2m/core/objects.c **** {
 166              		.loc 1 609 0
 167              		.cfi_startproc
 168              	.LVL19:
 610:/home/baikal/workspace/C50/Huawei_IoT_Agent_Tiny_SDK_Linux//lwm2m/core/objects.c ****     int index;
 611:/home/baikal/workspace/C50/Huawei_IoT_Agent_Tiny_SDK_Linux//lwm2m/core/objects.c ****     int result;
 612:/home/baikal/workspace/C50/Huawei_IoT_Agent_Tiny_SDK_Linux//lwm2m/core/objects.c **** 
 613:/home/baikal/workspace/C50/Huawei_IoT_Agent_Tiny_SDK_Linux//lwm2m/core/objects.c ****     if (length < REG_OBJECT_MIN_LEN) return -1;
 169              		.loc 1 613 0
 170 0000 4883FE04 		cmpq	$4, %rsi
 171 0004 7642     		jbe	.L11
 609:/home/baikal/workspace/C50/Huawei_IoT_Agent_Tiny_SDK_Linux//lwm2m/core/objects.c ****     int index;
 172              		.loc 1 609 0
 173 0006 55       		pushq	%rbp
 174              	.LCFI14:
 175              		.cfi_def_cfa_offset 16
 176              		.cfi_offset 6, -16
 177 0007 53       		pushq	%rbx
 178              	.LCFI15:
 179              		.cfi_def_cfa_offset 24
 180              		.cfi_offset 3, -24
 181 0008 4883EC08 		subq	$8, %rsp
 182              	.LCFI16:
 183              		.cfi_def_cfa_offset 32
 184 000c 89D0     		movl	%edx, %eax
 185 000e 4889F3   		movq	%rsi, %rbx
 186 0011 4889FD   		movq	%rdi, %rbp
 614:/home/baikal/workspace/C50/Huawei_IoT_Agent_Tiny_SDK_Linux//lwm2m/core/objects.c **** 
 615:/home/baikal/workspace/C50/Huawei_IoT_Agent_Tiny_SDK_Linux//lwm2m/core/objects.c ****     buffer[0] = '<';
 187              		.loc 1 615 0
 188 0014 C6073C   		movb	$60, (%rdi)
 616:/home/baikal/workspace/C50/Huawei_IoT_Agent_Tiny_SDK_Linux//lwm2m/core/objects.c ****     buffer[1] = '/';
 189              		.loc 1 616 0
 190 0017 C647012F 		movb	$47, 1(%rdi)
 191              	.LVL20:
GAS LISTING /tmp/cct9Gss8.s 			page 17


 617:/home/baikal/workspace/C50/Huawei_IoT_Agent_Tiny_SDK_Linux//lwm2m/core/objects.c ****     index = 2;
 618:/home/baikal/workspace/C50/Huawei_IoT_Agent_Tiny_SDK_Linux//lwm2m/core/objects.c **** 
 619:/home/baikal/workspace/C50/Huawei_IoT_Agent_Tiny_SDK_Linux//lwm2m/core/objects.c ****     result = utils_intToText(id, buffer + index, length - index);
 192              		.loc 1 619 0
 193 001b 488D56FE 		leaq	-2(%rsi), %rdx
 194              	.LVL21:
 195 001f 488D7702 		leaq	2(%rdi), %rsi
 196              	.LVL22:
 197 0023 0FB7F8   		movzwl	%ax, %edi
 198              	.LVL23:
 199 0026 E8000000 		call	utils_intToText
 199      00
 200              	.LVL24:
 620:/home/baikal/workspace/C50/Huawei_IoT_Agent_Tiny_SDK_Linux//lwm2m/core/objects.c ****     if (result == 0) return -1;
 201              		.loc 1 620 0
 202 002b 85C0     		testl	%eax, %eax
 203 002d 741F     		je	.L12
 621:/home/baikal/workspace/C50/Huawei_IoT_Agent_Tiny_SDK_Linux//lwm2m/core/objects.c ****     index += result;
 204              		.loc 1 621 0
 205 002f 8D5002   		leal	2(%rax), %edx
 206              	.LVL25:
 622:/home/baikal/workspace/C50/Huawei_IoT_Agent_Tiny_SDK_Linux//lwm2m/core/objects.c **** 
 623:/home/baikal/workspace/C50/Huawei_IoT_Agent_Tiny_SDK_Linux//lwm2m/core/objects.c ****     if (length - index < REG_OBJECT_MIN_LEN - 3) return -1;
 207              		.loc 1 623 0
 208 0032 4863D2   		movslq	%edx, %rdx
 209 0035 4829D3   		subq	%rdx, %rbx
 210              	.LVL26:
 211 0038 4883FB01 		cmpq	$1, %rbx
 212 003c 7617     		jbe	.L13
 624:/home/baikal/workspace/C50/Huawei_IoT_Agent_Tiny_SDK_Linux//lwm2m/core/objects.c ****     buffer[index] = '/';
 213              		.loc 1 624 0
 214 003e C6441500 		movb	$47, 0(%rbp,%rdx)
 214      2F
 215              	.LVL27:
 625:/home/baikal/workspace/C50/Huawei_IoT_Agent_Tiny_SDK_Linux//lwm2m/core/objects.c ****     index++;
 626:/home/baikal/workspace/C50/Huawei_IoT_Agent_Tiny_SDK_Linux//lwm2m/core/objects.c **** 
 627:/home/baikal/workspace/C50/Huawei_IoT_Agent_Tiny_SDK_Linux//lwm2m/core/objects.c ****     return index;
 216              		.loc 1 627 0
 217 0043 83C003   		addl	$3, %eax
 218              	.LVL28:
 219 0046 EB12     		jmp	.L10
 220              	.LVL29:
 221              	.L11:
 222              	.LCFI17:
 223              		.cfi_def_cfa_offset 8
 224              		.cfi_restore 3
 225              		.cfi_restore 6
 613:/home/baikal/workspace/C50/Huawei_IoT_Agent_Tiny_SDK_Linux//lwm2m/core/objects.c **** 
 226              		.loc 1 613 0
 227 0048 B8FFFFFF 		movl	$-1, %eax
 227      FF
 628:/home/baikal/workspace/C50/Huawei_IoT_Agent_Tiny_SDK_Linux//lwm2m/core/objects.c **** }
 228              		.loc 1 628 0
 229 004d C3       		ret
 230              	.LVL30:
 231              	.L12:
 232              	.LCFI18:
GAS LISTING /tmp/cct9Gss8.s 			page 18


 233              		.cfi_def_cfa_offset 32
 234              		.cfi_offset 3, -24
 235              		.cfi_offset 6, -16
 620:/home/baikal/workspace/C50/Huawei_IoT_Agent_Tiny_SDK_Linux//lwm2m/core/objects.c ****     index += result;
 236              		.loc 1 620 0
 237 004e B8FFFFFF 		movl	$-1, %eax
 237      FF
 238              	.LVL31:
 239 0053 EB05     		jmp	.L10
 240              	.LVL32:
 241              	.L13:
 623:/home/baikal/workspace/C50/Huawei_IoT_Agent_Tiny_SDK_Linux//lwm2m/core/objects.c ****     buffer[index] = '/';
 242              		.loc 1 623 0
 243 0055 B8FFFFFF 		movl	$-1, %eax
 243      FF
 244              	.LVL33:
 245              	.L10:
 246              		.loc 1 628 0
 247 005a 4883C408 		addq	$8, %rsp
 248              	.LCFI19:
 249              		.cfi_def_cfa_offset 24
 250 005e 5B       		popq	%rbx
 251              	.LCFI20:
 252              		.cfi_restore 3
 253              		.cfi_def_cfa_offset 16
 254 005f 5D       		popq	%rbp
 255              	.LCFI21:
 256              		.cfi_restore 6
 257              		.cfi_def_cfa_offset 8
 258              	.LVL34:
 259 0060 C3       		ret
 260              		.cfi_endproc
 261              	.LFE82:
 263              		.section	.text.prv_findServerInstance,"ax",@progbits
 265              	prv_findServerInstance:
 266              	.LFB85:
 629:/home/baikal/workspace/C50/Huawei_IoT_Agent_Tiny_SDK_Linux//lwm2m/core/objects.c **** 
 630:/home/baikal/workspace/C50/Huawei_IoT_Agent_Tiny_SDK_Linux//lwm2m/core/objects.c **** int object_getRegisterPayloadBufferLength(lwm2m_context_t *contextP)
 631:/home/baikal/workspace/C50/Huawei_IoT_Agent_Tiny_SDK_Linux//lwm2m/core/objects.c **** {
 632:/home/baikal/workspace/C50/Huawei_IoT_Agent_Tiny_SDK_Linux//lwm2m/core/objects.c ****     size_t index;
 633:/home/baikal/workspace/C50/Huawei_IoT_Agent_Tiny_SDK_Linux//lwm2m/core/objects.c ****     int result;
 634:/home/baikal/workspace/C50/Huawei_IoT_Agent_Tiny_SDK_Linux//lwm2m/core/objects.c ****     lwm2m_object_t *objectP;
 635:/home/baikal/workspace/C50/Huawei_IoT_Agent_Tiny_SDK_Linux//lwm2m/core/objects.c ****     char buffer[REG_OBJECT_MIN_LEN + 5];
 636:/home/baikal/workspace/C50/Huawei_IoT_Agent_Tiny_SDK_Linux//lwm2m/core/objects.c **** 
 637:/home/baikal/workspace/C50/Huawei_IoT_Agent_Tiny_SDK_Linux//lwm2m/core/objects.c ****     LOG("Entering");
 638:/home/baikal/workspace/C50/Huawei_IoT_Agent_Tiny_SDK_Linux//lwm2m/core/objects.c ****     index = strlen(REG_START);
 639:/home/baikal/workspace/C50/Huawei_IoT_Agent_Tiny_SDK_Linux//lwm2m/core/objects.c **** 
 640:/home/baikal/workspace/C50/Huawei_IoT_Agent_Tiny_SDK_Linux//lwm2m/core/objects.c ****     if ((contextP->altPath != NULL)
 641:/home/baikal/workspace/C50/Huawei_IoT_Agent_Tiny_SDK_Linux//lwm2m/core/objects.c ****             && (contextP->altPath[0] != 0))
 642:/home/baikal/workspace/C50/Huawei_IoT_Agent_Tiny_SDK_Linux//lwm2m/core/objects.c ****     {
 643:/home/baikal/workspace/C50/Huawei_IoT_Agent_Tiny_SDK_Linux//lwm2m/core/objects.c ****         index += strlen(contextP->altPath);
 644:/home/baikal/workspace/C50/Huawei_IoT_Agent_Tiny_SDK_Linux//lwm2m/core/objects.c ****     }
 645:/home/baikal/workspace/C50/Huawei_IoT_Agent_Tiny_SDK_Linux//lwm2m/core/objects.c ****     else
 646:/home/baikal/workspace/C50/Huawei_IoT_Agent_Tiny_SDK_Linux//lwm2m/core/objects.c ****     {
 647:/home/baikal/workspace/C50/Huawei_IoT_Agent_Tiny_SDK_Linux//lwm2m/core/objects.c ****         index += strlen(REG_DEFAULT_PATH); // "/"
 648:/home/baikal/workspace/C50/Huawei_IoT_Agent_Tiny_SDK_Linux//lwm2m/core/objects.c ****     }
 649:/home/baikal/workspace/C50/Huawei_IoT_Agent_Tiny_SDK_Linux//lwm2m/core/objects.c **** 
GAS LISTING /tmp/cct9Gss8.s 			page 19


 650:/home/baikal/workspace/C50/Huawei_IoT_Agent_Tiny_SDK_Linux//lwm2m/core/objects.c ****     index += strlen(REG_LWM2M_RESOURCE_TYPE);//">;rt=\"oma.lwm2m\";ct=11543,"
 651:/home/baikal/workspace/C50/Huawei_IoT_Agent_Tiny_SDK_Linux//lwm2m/core/objects.c **** 
 652:/home/baikal/workspace/C50/Huawei_IoT_Agent_Tiny_SDK_Linux//lwm2m/core/objects.c ****     for (objectP = contextP->objectList; objectP != NULL; objectP = objectP->next)
 653:/home/baikal/workspace/C50/Huawei_IoT_Agent_Tiny_SDK_Linux//lwm2m/core/objects.c ****     {
 654:/home/baikal/workspace/C50/Huawei_IoT_Agent_Tiny_SDK_Linux//lwm2m/core/objects.c ****         size_t start;
 655:/home/baikal/workspace/C50/Huawei_IoT_Agent_Tiny_SDK_Linux//lwm2m/core/objects.c ****         size_t length;
 656:/home/baikal/workspace/C50/Huawei_IoT_Agent_Tiny_SDK_Linux//lwm2m/core/objects.c **** 
 657:/home/baikal/workspace/C50/Huawei_IoT_Agent_Tiny_SDK_Linux//lwm2m/core/objects.c ****         if (objectP->objID == LWM2M_SECURITY_OBJECT_ID) continue;
 658:/home/baikal/workspace/C50/Huawei_IoT_Agent_Tiny_SDK_Linux//lwm2m/core/objects.c **** 
 659:/home/baikal/workspace/C50/Huawei_IoT_Agent_Tiny_SDK_Linux//lwm2m/core/objects.c ****         start = index;
 660:/home/baikal/workspace/C50/Huawei_IoT_Agent_Tiny_SDK_Linux//lwm2m/core/objects.c ****         result = prv_getObjectTemplate((uint8_t *)buffer, sizeof(buffer), objectP->objID);
 661:/home/baikal/workspace/C50/Huawei_IoT_Agent_Tiny_SDK_Linux//lwm2m/core/objects.c ****         if (result < 0) return 0;
 662:/home/baikal/workspace/C50/Huawei_IoT_Agent_Tiny_SDK_Linux//lwm2m/core/objects.c ****         length = result;
 663:/home/baikal/workspace/C50/Huawei_IoT_Agent_Tiny_SDK_Linux//lwm2m/core/objects.c ****         index += length;
 664:/home/baikal/workspace/C50/Huawei_IoT_Agent_Tiny_SDK_Linux//lwm2m/core/objects.c **** 
 665:/home/baikal/workspace/C50/Huawei_IoT_Agent_Tiny_SDK_Linux//lwm2m/core/objects.c ****         if (objectP->instanceList == NULL)
 666:/home/baikal/workspace/C50/Huawei_IoT_Agent_Tiny_SDK_Linux//lwm2m/core/objects.c ****         {
 667:/home/baikal/workspace/C50/Huawei_IoT_Agent_Tiny_SDK_Linux//lwm2m/core/objects.c ****             index -= 1;
 668:/home/baikal/workspace/C50/Huawei_IoT_Agent_Tiny_SDK_Linux//lwm2m/core/objects.c ****             index += strlen(REG_PATH_END); //">,"
 669:/home/baikal/workspace/C50/Huawei_IoT_Agent_Tiny_SDK_Linux//lwm2m/core/objects.c ****         }
 670:/home/baikal/workspace/C50/Huawei_IoT_Agent_Tiny_SDK_Linux//lwm2m/core/objects.c ****         else
 671:/home/baikal/workspace/C50/Huawei_IoT_Agent_Tiny_SDK_Linux//lwm2m/core/objects.c ****         {
 672:/home/baikal/workspace/C50/Huawei_IoT_Agent_Tiny_SDK_Linux//lwm2m/core/objects.c ****             lwm2m_list_t *targetP;
 673:/home/baikal/workspace/C50/Huawei_IoT_Agent_Tiny_SDK_Linux//lwm2m/core/objects.c ****             for (targetP = objectP->instanceList ; targetP != NULL ; targetP = targetP->next)
 674:/home/baikal/workspace/C50/Huawei_IoT_Agent_Tiny_SDK_Linux//lwm2m/core/objects.c ****             {
 675:/home/baikal/workspace/C50/Huawei_IoT_Agent_Tiny_SDK_Linux//lwm2m/core/objects.c ****                 if (index != start + length)
 676:/home/baikal/workspace/C50/Huawei_IoT_Agent_Tiny_SDK_Linux//lwm2m/core/objects.c ****                 {
 677:/home/baikal/workspace/C50/Huawei_IoT_Agent_Tiny_SDK_Linux//lwm2m/core/objects.c ****                     index += length;
 678:/home/baikal/workspace/C50/Huawei_IoT_Agent_Tiny_SDK_Linux//lwm2m/core/objects.c ****                 }
 679:/home/baikal/workspace/C50/Huawei_IoT_Agent_Tiny_SDK_Linux//lwm2m/core/objects.c **** 
 680:/home/baikal/workspace/C50/Huawei_IoT_Agent_Tiny_SDK_Linux//lwm2m/core/objects.c ****                 result = utils_intToText(targetP->id, (uint8_t *)buffer, sizeof(buffer));
 681:/home/baikal/workspace/C50/Huawei_IoT_Agent_Tiny_SDK_Linux//lwm2m/core/objects.c ****                 if (result == 0) return 0;
 682:/home/baikal/workspace/C50/Huawei_IoT_Agent_Tiny_SDK_Linux//lwm2m/core/objects.c ****                 index += result;
 683:/home/baikal/workspace/C50/Huawei_IoT_Agent_Tiny_SDK_Linux//lwm2m/core/objects.c **** 
 684:/home/baikal/workspace/C50/Huawei_IoT_Agent_Tiny_SDK_Linux//lwm2m/core/objects.c ****                 index += strlen(REG_PATH_END);
 685:/home/baikal/workspace/C50/Huawei_IoT_Agent_Tiny_SDK_Linux//lwm2m/core/objects.c ****             }
 686:/home/baikal/workspace/C50/Huawei_IoT_Agent_Tiny_SDK_Linux//lwm2m/core/objects.c ****         }
 687:/home/baikal/workspace/C50/Huawei_IoT_Agent_Tiny_SDK_Linux//lwm2m/core/objects.c ****     }
 688:/home/baikal/workspace/C50/Huawei_IoT_Agent_Tiny_SDK_Linux//lwm2m/core/objects.c **** 
 689:/home/baikal/workspace/C50/Huawei_IoT_Agent_Tiny_SDK_Linux//lwm2m/core/objects.c ****     index += 1;  // account for trailing null
 690:/home/baikal/workspace/C50/Huawei_IoT_Agent_Tiny_SDK_Linux//lwm2m/core/objects.c **** 
 691:/home/baikal/workspace/C50/Huawei_IoT_Agent_Tiny_SDK_Linux//lwm2m/core/objects.c ****     // Note that object_getRegisterPayload() has REG_PATH_END added after each
 692:/home/baikal/workspace/C50/Huawei_IoT_Agent_Tiny_SDK_Linux//lwm2m/core/objects.c ****     // object or instance, and then the trailing comma is replaced by null. The
 693:/home/baikal/workspace/C50/Huawei_IoT_Agent_Tiny_SDK_Linux//lwm2m/core/objects.c ****     // trailing nulls are not counted as part of the payload length, so this
 694:/home/baikal/workspace/C50/Huawei_IoT_Agent_Tiny_SDK_Linux//lwm2m/core/objects.c ****     // will return a size two bytes greater than what
 695:/home/baikal/workspace/C50/Huawei_IoT_Agent_Tiny_SDK_Linux//lwm2m/core/objects.c ****     // object_getRegisterPayload() returns.
 696:/home/baikal/workspace/C50/Huawei_IoT_Agent_Tiny_SDK_Linux//lwm2m/core/objects.c **** 
 697:/home/baikal/workspace/C50/Huawei_IoT_Agent_Tiny_SDK_Linux//lwm2m/core/objects.c ****     return index;
 698:/home/baikal/workspace/C50/Huawei_IoT_Agent_Tiny_SDK_Linux//lwm2m/core/objects.c **** }
 699:/home/baikal/workspace/C50/Huawei_IoT_Agent_Tiny_SDK_Linux//lwm2m/core/objects.c **** 
 700:/home/baikal/workspace/C50/Huawei_IoT_Agent_Tiny_SDK_Linux//lwm2m/core/objects.c **** int object_getRegisterPayload(lwm2m_context_t *contextP,
 701:/home/baikal/workspace/C50/Huawei_IoT_Agent_Tiny_SDK_Linux//lwm2m/core/objects.c ****                               uint8_t *buffer,
 702:/home/baikal/workspace/C50/Huawei_IoT_Agent_Tiny_SDK_Linux//lwm2m/core/objects.c ****                               size_t bufferLen)
 703:/home/baikal/workspace/C50/Huawei_IoT_Agent_Tiny_SDK_Linux//lwm2m/core/objects.c **** {
 704:/home/baikal/workspace/C50/Huawei_IoT_Agent_Tiny_SDK_Linux//lwm2m/core/objects.c ****     size_t index;
 705:/home/baikal/workspace/C50/Huawei_IoT_Agent_Tiny_SDK_Linux//lwm2m/core/objects.c ****     int result;
 706:/home/baikal/workspace/C50/Huawei_IoT_Agent_Tiny_SDK_Linux//lwm2m/core/objects.c ****     lwm2m_object_t *objectP;
GAS LISTING /tmp/cct9Gss8.s 			page 20


 707:/home/baikal/workspace/C50/Huawei_IoT_Agent_Tiny_SDK_Linux//lwm2m/core/objects.c **** 
 708:/home/baikal/workspace/C50/Huawei_IoT_Agent_Tiny_SDK_Linux//lwm2m/core/objects.c ****     LOG("Entering");
 709:/home/baikal/workspace/C50/Huawei_IoT_Agent_Tiny_SDK_Linux//lwm2m/core/objects.c ****     // index can not be greater than bufferLen
 710:/home/baikal/workspace/C50/Huawei_IoT_Agent_Tiny_SDK_Linux//lwm2m/core/objects.c ****     index = 0;
 711:/home/baikal/workspace/C50/Huawei_IoT_Agent_Tiny_SDK_Linux//lwm2m/core/objects.c **** 
 712:/home/baikal/workspace/C50/Huawei_IoT_Agent_Tiny_SDK_Linux//lwm2m/core/objects.c ****     result = utils_stringCopy((char *)buffer, bufferLen, REG_START);
 713:/home/baikal/workspace/C50/Huawei_IoT_Agent_Tiny_SDK_Linux//lwm2m/core/objects.c ****     if (result < 0) return 0;
 714:/home/baikal/workspace/C50/Huawei_IoT_Agent_Tiny_SDK_Linux//lwm2m/core/objects.c ****     index += result;
 715:/home/baikal/workspace/C50/Huawei_IoT_Agent_Tiny_SDK_Linux//lwm2m/core/objects.c **** 
 716:/home/baikal/workspace/C50/Huawei_IoT_Agent_Tiny_SDK_Linux//lwm2m/core/objects.c ****     if ((contextP->altPath != NULL)
 717:/home/baikal/workspace/C50/Huawei_IoT_Agent_Tiny_SDK_Linux//lwm2m/core/objects.c ****             && (contextP->altPath[0] != 0))
 718:/home/baikal/workspace/C50/Huawei_IoT_Agent_Tiny_SDK_Linux//lwm2m/core/objects.c ****     {
 719:/home/baikal/workspace/C50/Huawei_IoT_Agent_Tiny_SDK_Linux//lwm2m/core/objects.c ****         result = utils_stringCopy((char *)buffer + index, bufferLen - index, contextP->altPath);
 720:/home/baikal/workspace/C50/Huawei_IoT_Agent_Tiny_SDK_Linux//lwm2m/core/objects.c ****     }
 721:/home/baikal/workspace/C50/Huawei_IoT_Agent_Tiny_SDK_Linux//lwm2m/core/objects.c ****     else
 722:/home/baikal/workspace/C50/Huawei_IoT_Agent_Tiny_SDK_Linux//lwm2m/core/objects.c ****     {
 723:/home/baikal/workspace/C50/Huawei_IoT_Agent_Tiny_SDK_Linux//lwm2m/core/objects.c ****         result = utils_stringCopy((char *)buffer + index, bufferLen - index, REG_DEFAULT_PATH);
 724:/home/baikal/workspace/C50/Huawei_IoT_Agent_Tiny_SDK_Linux//lwm2m/core/objects.c ****     }
 725:/home/baikal/workspace/C50/Huawei_IoT_Agent_Tiny_SDK_Linux//lwm2m/core/objects.c ****     if (result < 0) return 0;
 726:/home/baikal/workspace/C50/Huawei_IoT_Agent_Tiny_SDK_Linux//lwm2m/core/objects.c ****     index += result;
 727:/home/baikal/workspace/C50/Huawei_IoT_Agent_Tiny_SDK_Linux//lwm2m/core/objects.c **** 
 728:/home/baikal/workspace/C50/Huawei_IoT_Agent_Tiny_SDK_Linux//lwm2m/core/objects.c ****     result = utils_stringCopy((char *)buffer + index, bufferLen - index, REG_LWM2M_RESOURCE_TYPE);
 729:/home/baikal/workspace/C50/Huawei_IoT_Agent_Tiny_SDK_Linux//lwm2m/core/objects.c ****     if (result < 0) return 0;
 730:/home/baikal/workspace/C50/Huawei_IoT_Agent_Tiny_SDK_Linux//lwm2m/core/objects.c ****     index += result;
 731:/home/baikal/workspace/C50/Huawei_IoT_Agent_Tiny_SDK_Linux//lwm2m/core/objects.c **** 
 732:/home/baikal/workspace/C50/Huawei_IoT_Agent_Tiny_SDK_Linux//lwm2m/core/objects.c ****     for (objectP = contextP->objectList; objectP != NULL; objectP = objectP->next)
 733:/home/baikal/workspace/C50/Huawei_IoT_Agent_Tiny_SDK_Linux//lwm2m/core/objects.c ****     {
 734:/home/baikal/workspace/C50/Huawei_IoT_Agent_Tiny_SDK_Linux//lwm2m/core/objects.c ****         size_t start;
 735:/home/baikal/workspace/C50/Huawei_IoT_Agent_Tiny_SDK_Linux//lwm2m/core/objects.c ****         size_t length;
 736:/home/baikal/workspace/C50/Huawei_IoT_Agent_Tiny_SDK_Linux//lwm2m/core/objects.c **** 
 737:/home/baikal/workspace/C50/Huawei_IoT_Agent_Tiny_SDK_Linux//lwm2m/core/objects.c ****         if (objectP->objID == LWM2M_SECURITY_OBJECT_ID) continue;
 738:/home/baikal/workspace/C50/Huawei_IoT_Agent_Tiny_SDK_Linux//lwm2m/core/objects.c **** 
 739:/home/baikal/workspace/C50/Huawei_IoT_Agent_Tiny_SDK_Linux//lwm2m/core/objects.c ****         start = index;
 740:/home/baikal/workspace/C50/Huawei_IoT_Agent_Tiny_SDK_Linux//lwm2m/core/objects.c ****         result = prv_getObjectTemplate(buffer + index, bufferLen - index, objectP->objID);
 741:/home/baikal/workspace/C50/Huawei_IoT_Agent_Tiny_SDK_Linux//lwm2m/core/objects.c ****         if (result < 0) return 0;
 742:/home/baikal/workspace/C50/Huawei_IoT_Agent_Tiny_SDK_Linux//lwm2m/core/objects.c ****         length = result;
 743:/home/baikal/workspace/C50/Huawei_IoT_Agent_Tiny_SDK_Linux//lwm2m/core/objects.c ****         index += length;
 744:/home/baikal/workspace/C50/Huawei_IoT_Agent_Tiny_SDK_Linux//lwm2m/core/objects.c **** 
 745:/home/baikal/workspace/C50/Huawei_IoT_Agent_Tiny_SDK_Linux//lwm2m/core/objects.c ****         if (objectP->instanceList == NULL)
 746:/home/baikal/workspace/C50/Huawei_IoT_Agent_Tiny_SDK_Linux//lwm2m/core/objects.c ****         {
 747:/home/baikal/workspace/C50/Huawei_IoT_Agent_Tiny_SDK_Linux//lwm2m/core/objects.c ****             index--;
 748:/home/baikal/workspace/C50/Huawei_IoT_Agent_Tiny_SDK_Linux//lwm2m/core/objects.c ****             result = utils_stringCopy((char *)buffer + index, bufferLen - index, REG_PATH_END);
 749:/home/baikal/workspace/C50/Huawei_IoT_Agent_Tiny_SDK_Linux//lwm2m/core/objects.c ****             if (result < 0) return 0;
 750:/home/baikal/workspace/C50/Huawei_IoT_Agent_Tiny_SDK_Linux//lwm2m/core/objects.c ****             index += result;
 751:/home/baikal/workspace/C50/Huawei_IoT_Agent_Tiny_SDK_Linux//lwm2m/core/objects.c ****         }
 752:/home/baikal/workspace/C50/Huawei_IoT_Agent_Tiny_SDK_Linux//lwm2m/core/objects.c ****         else
 753:/home/baikal/workspace/C50/Huawei_IoT_Agent_Tiny_SDK_Linux//lwm2m/core/objects.c ****         {
 754:/home/baikal/workspace/C50/Huawei_IoT_Agent_Tiny_SDK_Linux//lwm2m/core/objects.c ****             lwm2m_list_t *targetP;
 755:/home/baikal/workspace/C50/Huawei_IoT_Agent_Tiny_SDK_Linux//lwm2m/core/objects.c ****             for (targetP = objectP->instanceList ; targetP != NULL ; targetP = targetP->next)
 756:/home/baikal/workspace/C50/Huawei_IoT_Agent_Tiny_SDK_Linux//lwm2m/core/objects.c ****             {
 757:/home/baikal/workspace/C50/Huawei_IoT_Agent_Tiny_SDK_Linux//lwm2m/core/objects.c ****                 if (index != start + length)
 758:/home/baikal/workspace/C50/Huawei_IoT_Agent_Tiny_SDK_Linux//lwm2m/core/objects.c ****                 {
 759:/home/baikal/workspace/C50/Huawei_IoT_Agent_Tiny_SDK_Linux//lwm2m/core/objects.c ****                     if (bufferLen - index <= length) return 0;
 760:/home/baikal/workspace/C50/Huawei_IoT_Agent_Tiny_SDK_Linux//lwm2m/core/objects.c ****                     memcpy(buffer + index, buffer + start, length);
 761:/home/baikal/workspace/C50/Huawei_IoT_Agent_Tiny_SDK_Linux//lwm2m/core/objects.c ****                     index += length;
 762:/home/baikal/workspace/C50/Huawei_IoT_Agent_Tiny_SDK_Linux//lwm2m/core/objects.c ****                 }
 763:/home/baikal/workspace/C50/Huawei_IoT_Agent_Tiny_SDK_Linux//lwm2m/core/objects.c **** 
GAS LISTING /tmp/cct9Gss8.s 			page 21


 764:/home/baikal/workspace/C50/Huawei_IoT_Agent_Tiny_SDK_Linux//lwm2m/core/objects.c ****                 result = utils_intToText(targetP->id, buffer + index, bufferLen - index);
 765:/home/baikal/workspace/C50/Huawei_IoT_Agent_Tiny_SDK_Linux//lwm2m/core/objects.c ****                 if (result == 0) return 0;
 766:/home/baikal/workspace/C50/Huawei_IoT_Agent_Tiny_SDK_Linux//lwm2m/core/objects.c ****                 index += result;
 767:/home/baikal/workspace/C50/Huawei_IoT_Agent_Tiny_SDK_Linux//lwm2m/core/objects.c **** 
 768:/home/baikal/workspace/C50/Huawei_IoT_Agent_Tiny_SDK_Linux//lwm2m/core/objects.c ****                 result = utils_stringCopy((char *)buffer + index, bufferLen - index, REG_PATH_END);
 769:/home/baikal/workspace/C50/Huawei_IoT_Agent_Tiny_SDK_Linux//lwm2m/core/objects.c ****                 if (result < 0) return 0;
 770:/home/baikal/workspace/C50/Huawei_IoT_Agent_Tiny_SDK_Linux//lwm2m/core/objects.c ****                 index += result;
 771:/home/baikal/workspace/C50/Huawei_IoT_Agent_Tiny_SDK_Linux//lwm2m/core/objects.c ****             }
 772:/home/baikal/workspace/C50/Huawei_IoT_Agent_Tiny_SDK_Linux//lwm2m/core/objects.c ****         }
 773:/home/baikal/workspace/C50/Huawei_IoT_Agent_Tiny_SDK_Linux//lwm2m/core/objects.c ****     }
 774:/home/baikal/workspace/C50/Huawei_IoT_Agent_Tiny_SDK_Linux//lwm2m/core/objects.c **** 
 775:/home/baikal/workspace/C50/Huawei_IoT_Agent_Tiny_SDK_Linux//lwm2m/core/objects.c ****     if (index > 0)
 776:/home/baikal/workspace/C50/Huawei_IoT_Agent_Tiny_SDK_Linux//lwm2m/core/objects.c ****     {
 777:/home/baikal/workspace/C50/Huawei_IoT_Agent_Tiny_SDK_Linux//lwm2m/core/objects.c ****         index = index - 1;  // remove trailing ','
 778:/home/baikal/workspace/C50/Huawei_IoT_Agent_Tiny_SDK_Linux//lwm2m/core/objects.c ****     }
 779:/home/baikal/workspace/C50/Huawei_IoT_Agent_Tiny_SDK_Linux//lwm2m/core/objects.c **** 
 780:/home/baikal/workspace/C50/Huawei_IoT_Agent_Tiny_SDK_Linux//lwm2m/core/objects.c ****     buffer[index] = 0;
 781:/home/baikal/workspace/C50/Huawei_IoT_Agent_Tiny_SDK_Linux//lwm2m/core/objects.c **** 
 782:/home/baikal/workspace/C50/Huawei_IoT_Agent_Tiny_SDK_Linux//lwm2m/core/objects.c ****     return index;
 783:/home/baikal/workspace/C50/Huawei_IoT_Agent_Tiny_SDK_Linux//lwm2m/core/objects.c **** }
 784:/home/baikal/workspace/C50/Huawei_IoT_Agent_Tiny_SDK_Linux//lwm2m/core/objects.c **** 
 785:/home/baikal/workspace/C50/Huawei_IoT_Agent_Tiny_SDK_Linux//lwm2m/core/objects.c **** static lwm2m_list_t *prv_findServerInstance(lwm2m_object_t *objectP,
 786:/home/baikal/workspace/C50/Huawei_IoT_Agent_Tiny_SDK_Linux//lwm2m/core/objects.c ****         uint16_t shortID)
 787:/home/baikal/workspace/C50/Huawei_IoT_Agent_Tiny_SDK_Linux//lwm2m/core/objects.c **** {
 267              		.loc 1 787 0
 268              		.cfi_startproc
 269              	.LVL35:
 270 0000 4154     		pushq	%r12
 271              	.LCFI22:
 272              		.cfi_def_cfa_offset 16
 273              		.cfi_offset 12, -16
 274 0002 55       		pushq	%rbp
 275              	.LCFI23:
 276              		.cfi_def_cfa_offset 24
 277              		.cfi_offset 6, -24
 278 0003 53       		pushq	%rbx
 279              	.LCFI24:
 280              		.cfi_def_cfa_offset 32
 281              		.cfi_offset 3, -32
 282 0004 4883EC20 		subq	$32, %rsp
 283              	.LCFI25:
 284              		.cfi_def_cfa_offset 64
 285 0008 4889FD   		movq	%rdi, %rbp
 286 000b 4189F4   		movl	%esi, %r12d
 788:/home/baikal/workspace/C50/Huawei_IoT_Agent_Tiny_SDK_Linux//lwm2m/core/objects.c ****     lwm2m_list_t *instanceP;
 789:/home/baikal/workspace/C50/Huawei_IoT_Agent_Tiny_SDK_Linux//lwm2m/core/objects.c **** 
 790:/home/baikal/workspace/C50/Huawei_IoT_Agent_Tiny_SDK_Linux//lwm2m/core/objects.c ****     instanceP = objectP->instanceList;
 287              		.loc 1 790 0
 288 000e 488B5F10 		movq	16(%rdi), %rbx
 289              	.LVL36:
 791:/home/baikal/workspace/C50/Huawei_IoT_Agent_Tiny_SDK_Linux//lwm2m/core/objects.c ****     while (NULL != instanceP)
 290              		.loc 1 791 0
 291 0012 E99B0000 		jmp	.L16
 291      00
 292              	.LVL37:
 293              	.L21:
 294              	.LBB14:
GAS LISTING /tmp/cct9Gss8.s 			page 22


 792:/home/baikal/workspace/C50/Huawei_IoT_Agent_Tiny_SDK_Linux//lwm2m/core/objects.c ****     {
 793:/home/baikal/workspace/C50/Huawei_IoT_Agent_Tiny_SDK_Linux//lwm2m/core/objects.c ****         int64_t value;
 794:/home/baikal/workspace/C50/Huawei_IoT_Agent_Tiny_SDK_Linux//lwm2m/core/objects.c ****         lwm2m_data_t *dataP;
 795:/home/baikal/workspace/C50/Huawei_IoT_Agent_Tiny_SDK_Linux//lwm2m/core/objects.c ****         int size;
 796:/home/baikal/workspace/C50/Huawei_IoT_Agent_Tiny_SDK_Linux//lwm2m/core/objects.c **** 
 797:/home/baikal/workspace/C50/Huawei_IoT_Agent_Tiny_SDK_Linux//lwm2m/core/objects.c ****         size = 1;
 295              		.loc 1 797 0
 296 0017 C744240C 		movl	$1, 12(%rsp)
 296      01000000 
 798:/home/baikal/workspace/C50/Huawei_IoT_Agent_Tiny_SDK_Linux//lwm2m/core/objects.c ****         dataP = lwm2m_data_new(size);
 297              		.loc 1 798 0
 298 001f BF010000 		movl	$1, %edi
 298      00
 299 0024 E8000000 		call	lwm2m_data_new
 299      00
 300              	.LVL38:
 301 0029 48894424 		movq	%rax, 24(%rsp)
 301      18
 799:/home/baikal/workspace/C50/Huawei_IoT_Agent_Tiny_SDK_Linux//lwm2m/core/objects.c ****         if (dataP == NULL) return NULL;
 302              		.loc 1 799 0
 303 002e 4885C0   		testq	%rax, %rax
 304 0031 7478     		je	.L17
 800:/home/baikal/workspace/C50/Huawei_IoT_Agent_Tiny_SDK_Linux//lwm2m/core/objects.c ****         dataP->id = LWM2M_SERVER_SHORT_ID_ID;
 305              		.loc 1 800 0
 306 0033 66C74004 		movw	$0, 4(%rax)
 306      0000
 801:/home/baikal/workspace/C50/Huawei_IoT_Agent_Tiny_SDK_Linux//lwm2m/core/objects.c **** 
 802:/home/baikal/workspace/C50/Huawei_IoT_Agent_Tiny_SDK_Linux//lwm2m/core/objects.c ****         if (objectP->readFunc(instanceP->id, &size, &dataP, NULL, objectP) != COAP_205_CONTENT)
 307              		.loc 1 802 0
 308 0039 0FB77B08 		movzwl	8(%rbx), %edi
 309 003d 4989E8   		movq	%rbp, %r8
 310 0040 B9000000 		movl	$0, %ecx
 310      00
 311 0045 488D5424 		leaq	24(%rsp), %rdx
 311      18
 312 004a 488D7424 		leaq	12(%rsp), %rsi
 312      0C
 313 004f FF5518   		call	*24(%rbp)
 314              	.LVL39:
 315 0052 3C45     		cmpb	$69, %al
 316 0054 7410     		je	.L18
 803:/home/baikal/workspace/C50/Huawei_IoT_Agent_Tiny_SDK_Linux//lwm2m/core/objects.c ****         {
 804:/home/baikal/workspace/C50/Huawei_IoT_Agent_Tiny_SDK_Linux//lwm2m/core/objects.c ****             lwm2m_data_free(size, dataP);
 317              		.loc 1 804 0
 318 0056 488B7424 		movq	24(%rsp), %rsi
 318      18
 319 005b 8B7C240C 		movl	12(%rsp), %edi
 320 005f E8000000 		call	lwm2m_data_free
 320      00
 321              	.LVL40:
 805:/home/baikal/workspace/C50/Huawei_IoT_Agent_Tiny_SDK_Linux//lwm2m/core/objects.c ****             return NULL;
 322              		.loc 1 805 0
 323 0064 EB45     		jmp	.L17
 324              	.L18:
 806:/home/baikal/workspace/C50/Huawei_IoT_Agent_Tiny_SDK_Linux//lwm2m/core/objects.c ****         }
 807:/home/baikal/workspace/C50/Huawei_IoT_Agent_Tiny_SDK_Linux//lwm2m/core/objects.c **** 
 808:/home/baikal/workspace/C50/Huawei_IoT_Agent_Tiny_SDK_Linux//lwm2m/core/objects.c ****         if (1 == lwm2m_data_decode_int(dataP, &value))
GAS LISTING /tmp/cct9Gss8.s 			page 23


 325              		.loc 1 808 0
 326 0066 488D7424 		leaq	16(%rsp), %rsi
 326      10
 327 006b 488B7C24 		movq	24(%rsp), %rdi
 327      18
 328 0070 E8000000 		call	lwm2m_data_decode_int
 328      00
 329              	.LVL41:
 330 0075 83F801   		cmpl	$1, %eax
 331 0078 751E     		jne	.L19
 809:/home/baikal/workspace/C50/Huawei_IoT_Agent_Tiny_SDK_Linux//lwm2m/core/objects.c ****         {
 810:/home/baikal/workspace/C50/Huawei_IoT_Agent_Tiny_SDK_Linux//lwm2m/core/objects.c ****             if (value == shortID)
 332              		.loc 1 810 0
 333 007a 410FB7C4 		movzwl	%r12w, %eax
 334 007e 483B4424 		cmpq	16(%rsp), %rax
 334      10
 335 0083 7513     		jne	.L19
 811:/home/baikal/workspace/C50/Huawei_IoT_Agent_Tiny_SDK_Linux//lwm2m/core/objects.c ****             {
 812:/home/baikal/workspace/C50/Huawei_IoT_Agent_Tiny_SDK_Linux//lwm2m/core/objects.c ****                 lwm2m_data_free(size, dataP);
 336              		.loc 1 812 0
 337 0085 488B7424 		movq	24(%rsp), %rsi
 337      18
 338 008a 8B7C240C 		movl	12(%rsp), %edi
 339 008e E8000000 		call	lwm2m_data_free
 339      00
 340              	.LVL42:
 341              	.LBE14:
 813:/home/baikal/workspace/C50/Huawei_IoT_Agent_Tiny_SDK_Linux//lwm2m/core/objects.c ****                 break;
 814:/home/baikal/workspace/C50/Huawei_IoT_Agent_Tiny_SDK_Linux//lwm2m/core/objects.c ****             }
 815:/home/baikal/workspace/C50/Huawei_IoT_Agent_Tiny_SDK_Linux//lwm2m/core/objects.c ****         }
 816:/home/baikal/workspace/C50/Huawei_IoT_Agent_Tiny_SDK_Linux//lwm2m/core/objects.c ****         lwm2m_data_free(size, dataP);
 817:/home/baikal/workspace/C50/Huawei_IoT_Agent_Tiny_SDK_Linux//lwm2m/core/objects.c ****         instanceP = instanceP->next;
 818:/home/baikal/workspace/C50/Huawei_IoT_Agent_Tiny_SDK_Linux//lwm2m/core/objects.c ****     }
 819:/home/baikal/workspace/C50/Huawei_IoT_Agent_Tiny_SDK_Linux//lwm2m/core/objects.c **** 
 820:/home/baikal/workspace/C50/Huawei_IoT_Agent_Tiny_SDK_Linux//lwm2m/core/objects.c ****     return instanceP;
 342              		.loc 1 820 0
 343 0093 4889D8   		movq	%rbx, %rax
 344 0096 EB26     		jmp	.L20
 345              	.L19:
 346              	.LBB15:
 816:/home/baikal/workspace/C50/Huawei_IoT_Agent_Tiny_SDK_Linux//lwm2m/core/objects.c ****         instanceP = instanceP->next;
 347              		.loc 1 816 0
 348 0098 488B7424 		movq	24(%rsp), %rsi
 348      18
 349 009d 8B7C240C 		movl	12(%rsp), %edi
 350 00a1 E8000000 		call	lwm2m_data_free
 350      00
 351              	.LVL43:
 817:/home/baikal/workspace/C50/Huawei_IoT_Agent_Tiny_SDK_Linux//lwm2m/core/objects.c ****     }
 352              		.loc 1 817 0
 353 00a6 488B1B   		movq	(%rbx), %rbx
 354              	.LVL44:
 355 00a9 EB07     		jmp	.L16
 356              	.L17:
 799:/home/baikal/workspace/C50/Huawei_IoT_Agent_Tiny_SDK_Linux//lwm2m/core/objects.c ****         dataP->id = LWM2M_SERVER_SHORT_ID_ID;
 357              		.loc 1 799 0 discriminator 2
 358 00ab B8000000 		movl	$0, %eax
GAS LISTING /tmp/cct9Gss8.s 			page 24


 358      00
 359 00b0 EB0C     		jmp	.L20
 360              	.L16:
 361              	.LBE15:
 791:/home/baikal/workspace/C50/Huawei_IoT_Agent_Tiny_SDK_Linux//lwm2m/core/objects.c ****     {
 362              		.loc 1 791 0
 363 00b2 4885DB   		testq	%rbx, %rbx
 364 00b5 0F855CFF 		jne	.L21
 364      FFFF
 365              		.loc 1 820 0
 366 00bb 4889D8   		movq	%rbx, %rax
 367              	.L20:
 821:/home/baikal/workspace/C50/Huawei_IoT_Agent_Tiny_SDK_Linux//lwm2m/core/objects.c **** }
 368              		.loc 1 821 0
 369 00be 4883C420 		addq	$32, %rsp
 370              	.LCFI26:
 371              		.cfi_def_cfa_offset 32
 372 00c2 5B       		popq	%rbx
 373              	.LCFI27:
 374              		.cfi_def_cfa_offset 24
 375              	.LVL45:
 376 00c3 5D       		popq	%rbp
 377              	.LCFI28:
 378              		.cfi_def_cfa_offset 16
 379              	.LVL46:
 380 00c4 415C     		popq	%r12
 381              	.LCFI29:
 382              		.cfi_def_cfa_offset 8
 383              	.LVL47:
 384 00c6 C3       		ret
 385              		.cfi_endproc
 386              	.LFE85:
 388              		.section	.text.prv_getMandatoryInfo,"ax",@progbits
 390              	prv_getMandatoryInfo:
 391              	.LFB86:
 822:/home/baikal/workspace/C50/Huawei_IoT_Agent_Tiny_SDK_Linux//lwm2m/core/objects.c **** 
 823:/home/baikal/workspace/C50/Huawei_IoT_Agent_Tiny_SDK_Linux//lwm2m/core/objects.c **** static int prv_getMandatoryInfo(lwm2m_object_t *objectP,
 824:/home/baikal/workspace/C50/Huawei_IoT_Agent_Tiny_SDK_Linux//lwm2m/core/objects.c ****                                 uint16_t instanceID,
 825:/home/baikal/workspace/C50/Huawei_IoT_Agent_Tiny_SDK_Linux//lwm2m/core/objects.c ****                                 lwm2m_server_t *targetP)
 826:/home/baikal/workspace/C50/Huawei_IoT_Agent_Tiny_SDK_Linux//lwm2m/core/objects.c **** {
 392              		.loc 1 826 0
 393              		.cfi_startproc
 394              	.LVL48:
 395 0000 4154     		pushq	%r12
 396              	.LCFI30:
 397              		.cfi_def_cfa_offset 16
 398              		.cfi_offset 12, -16
 399 0002 55       		pushq	%rbp
 400              	.LCFI31:
 401              		.cfi_def_cfa_offset 24
 402              		.cfi_offset 6, -24
 403 0003 53       		pushq	%rbx
 404              	.LCFI32:
 405              		.cfi_def_cfa_offset 32
 406              		.cfi_offset 3, -32
 407 0004 4883EC20 		subq	$32, %rsp
 408              	.LCFI33:
GAS LISTING /tmp/cct9Gss8.s 			page 25


 409              		.cfi_def_cfa_offset 64
 410 0008 4989FC   		movq	%rdi, %r12
 411 000b 89F3     		movl	%esi, %ebx
 412 000d 4889D5   		movq	%rdx, %rbp
 827:/home/baikal/workspace/C50/Huawei_IoT_Agent_Tiny_SDK_Linux//lwm2m/core/objects.c ****     lwm2m_data_t *dataP;
 828:/home/baikal/workspace/C50/Huawei_IoT_Agent_Tiny_SDK_Linux//lwm2m/core/objects.c ****     int size;
 829:/home/baikal/workspace/C50/Huawei_IoT_Agent_Tiny_SDK_Linux//lwm2m/core/objects.c ****     int64_t value;
 830:/home/baikal/workspace/C50/Huawei_IoT_Agent_Tiny_SDK_Linux//lwm2m/core/objects.c **** 
 831:/home/baikal/workspace/C50/Huawei_IoT_Agent_Tiny_SDK_Linux//lwm2m/core/objects.c ****     size = 2;
 413              		.loc 1 831 0
 414 0010 C7442414 		movl	$2, 20(%rsp)
 414      02000000 
 832:/home/baikal/workspace/C50/Huawei_IoT_Agent_Tiny_SDK_Linux//lwm2m/core/objects.c ****     dataP = lwm2m_data_new(size);
 415              		.loc 1 832 0
 416 0018 BF020000 		movl	$2, %edi
 416      00
 417              	.LVL49:
 418 001d E8000000 		call	lwm2m_data_new
 418      00
 419              	.LVL50:
 420 0022 48894424 		movq	%rax, 24(%rsp)
 420      18
 833:/home/baikal/workspace/C50/Huawei_IoT_Agent_Tiny_SDK_Linux//lwm2m/core/objects.c ****     if (dataP == NULL) return -1;
 421              		.loc 1 833 0
 422 0027 4885C0   		testq	%rax, %rax
 423 002a 0F84B400 		je	.L28
 423      0000
 834:/home/baikal/workspace/C50/Huawei_IoT_Agent_Tiny_SDK_Linux//lwm2m/core/objects.c ****     dataP[0].id = LWM2M_SERVER_LIFETIME_ID;
 424              		.loc 1 834 0
 425 0030 66C74004 		movw	$1, 4(%rax)
 425      0100
 835:/home/baikal/workspace/C50/Huawei_IoT_Agent_Tiny_SDK_Linux//lwm2m/core/objects.c ****     dataP[1].id = LWM2M_SERVER_BINDING_ID;
 426              		.loc 1 835 0
 427 0036 488B4424 		movq	24(%rsp), %rax
 427      18
 428 003b 66C7401C 		movw	$7, 28(%rax)
 428      0700
 836:/home/baikal/workspace/C50/Huawei_IoT_Agent_Tiny_SDK_Linux//lwm2m/core/objects.c **** 
 837:/home/baikal/workspace/C50/Huawei_IoT_Agent_Tiny_SDK_Linux//lwm2m/core/objects.c ****     if (objectP->readFunc(instanceID, &size, &dataP, NULL, objectP) != COAP_205_CONTENT)
 429              		.loc 1 837 0
 430 0041 0FB7FB   		movzwl	%bx, %edi
 431 0044 4D89E0   		movq	%r12, %r8
 432 0047 B9000000 		movl	$0, %ecx
 432      00
 433 004c 488D5424 		leaq	24(%rsp), %rdx
 433      18
 434 0051 488D7424 		leaq	20(%rsp), %rsi
 434      14
 435 0056 41FF5424 		call	*24(%r12)
 435      18
 436              	.LVL51:
 437 005b 3C45     		cmpb	$69, %al
 438 005d 7415     		je	.L25
 838:/home/baikal/workspace/C50/Huawei_IoT_Agent_Tiny_SDK_Linux//lwm2m/core/objects.c ****     {
 839:/home/baikal/workspace/C50/Huawei_IoT_Agent_Tiny_SDK_Linux//lwm2m/core/objects.c ****         lwm2m_data_free(size, dataP);
 439              		.loc 1 839 0
 440 005f 488B7424 		movq	24(%rsp), %rsi
GAS LISTING /tmp/cct9Gss8.s 			page 26


 440      18
 441 0064 8B7C2414 		movl	20(%rsp), %edi
 442 0068 E8000000 		call	lwm2m_data_free
 442      00
 443              	.LVL52:
 840:/home/baikal/workspace/C50/Huawei_IoT_Agent_Tiny_SDK_Linux//lwm2m/core/objects.c ****         return -1;
 444              		.loc 1 840 0
 445 006d B8FFFFFF 		movl	$-1, %eax
 445      FF
 446 0072 EB7C     		jmp	.L24
 447              	.L25:
 841:/home/baikal/workspace/C50/Huawei_IoT_Agent_Tiny_SDK_Linux//lwm2m/core/objects.c ****     }
 842:/home/baikal/workspace/C50/Huawei_IoT_Agent_Tiny_SDK_Linux//lwm2m/core/objects.c **** 
 843:/home/baikal/workspace/C50/Huawei_IoT_Agent_Tiny_SDK_Linux//lwm2m/core/objects.c ****     if (0 == lwm2m_data_decode_int(dataP, &value)
 448              		.loc 1 843 0
 449 0074 488D7424 		leaq	8(%rsp), %rsi
 449      08
 450 0079 488B7C24 		movq	24(%rsp), %rdi
 450      18
 451 007e E8000000 		call	lwm2m_data_decode_int
 451      00
 452              	.LVL53:
 453 0083 85C0     		testl	%eax, %eax
 454 0085 7414     		je	.L26
 844:/home/baikal/workspace/C50/Huawei_IoT_Agent_Tiny_SDK_Linux//lwm2m/core/objects.c ****             || value < 0 || value > 0xFFFFFFFF)            // This is an implementation limit
 455              		.loc 1 844 0
 456 0087 488B4424 		movq	8(%rsp), %rax
 456      08
 457 008c 4885C0   		testq	%rax, %rax
 458 008f 780A     		js	.L26
 459              		.loc 1 844 0 is_stmt 0 discriminator 1
 460 0091 BAFFFFFF 		movl	$4294967295, %edx
 460      FF
 461 0096 4839D0   		cmpq	%rdx, %rax
 462 0099 7E15     		jle	.L27
 463              	.L26:
 845:/home/baikal/workspace/C50/Huawei_IoT_Agent_Tiny_SDK_Linux//lwm2m/core/objects.c ****     {
 846:/home/baikal/workspace/C50/Huawei_IoT_Agent_Tiny_SDK_Linux//lwm2m/core/objects.c ****         lwm2m_data_free(size, dataP);
 464              		.loc 1 846 0 is_stmt 1
 465 009b 488B7424 		movq	24(%rsp), %rsi
 465      18
 466 00a0 8B7C2414 		movl	20(%rsp), %edi
 467 00a4 E8000000 		call	lwm2m_data_free
 467      00
 468              	.LVL54:
 847:/home/baikal/workspace/C50/Huawei_IoT_Agent_Tiny_SDK_Linux//lwm2m/core/objects.c ****         return -1;
 469              		.loc 1 847 0
 470 00a9 B8FFFFFF 		movl	$-1, %eax
 470      FF
 471 00ae EB40     		jmp	.L24
 472              	.L27:
 848:/home/baikal/workspace/C50/Huawei_IoT_Agent_Tiny_SDK_Linux//lwm2m/core/objects.c ****     }
 849:/home/baikal/workspace/C50/Huawei_IoT_Agent_Tiny_SDK_Linux//lwm2m/core/objects.c ****     targetP->lifetime = value;
 473              		.loc 1 849 0
 474 00b0 48894510 		movq	%rax, 16(%rbp)
 850:/home/baikal/workspace/C50/Huawei_IoT_Agent_Tiny_SDK_Linux//lwm2m/core/objects.c **** 
 851:/home/baikal/workspace/C50/Huawei_IoT_Agent_Tiny_SDK_Linux//lwm2m/core/objects.c ****     targetP->binding = utils_stringToBinding(dataP[1].value.asBuffer.buffer, dataP[1].value.asBuffe
GAS LISTING /tmp/cct9Gss8.s 			page 27


 475              		.loc 1 851 0
 476 00b4 488B4424 		movq	24(%rsp), %rax
 476      18
 477 00b9 488B7020 		movq	32(%rax), %rsi
 478 00bd 488B7828 		movq	40(%rax), %rdi
 479 00c1 E8000000 		call	utils_stringToBinding
 479      00
 480              	.LVL55:
 481 00c6 894520   		movl	%eax, 32(%rbp)
 852:/home/baikal/workspace/C50/Huawei_IoT_Agent_Tiny_SDK_Linux//lwm2m/core/objects.c **** 
 853:/home/baikal/workspace/C50/Huawei_IoT_Agent_Tiny_SDK_Linux//lwm2m/core/objects.c ****     lwm2m_data_free(size, dataP);
 482              		.loc 1 853 0
 483 00c9 488B7424 		movq	24(%rsp), %rsi
 483      18
 484 00ce 8B7C2414 		movl	20(%rsp), %edi
 485 00d2 E8000000 		call	lwm2m_data_free
 485      00
 486              	.LVL56:
 854:/home/baikal/workspace/C50/Huawei_IoT_Agent_Tiny_SDK_Linux//lwm2m/core/objects.c **** 
 855:/home/baikal/workspace/C50/Huawei_IoT_Agent_Tiny_SDK_Linux//lwm2m/core/objects.c ****     if (targetP->binding == BINDING_UNKNOWN)
 487              		.loc 1 855 0
 488 00d7 837D2000 		cmpl	$0, 32(%rbp)
 489 00db 750E     		jne	.L29
 856:/home/baikal/workspace/C50/Huawei_IoT_Agent_Tiny_SDK_Linux//lwm2m/core/objects.c ****     {
 857:/home/baikal/workspace/C50/Huawei_IoT_Agent_Tiny_SDK_Linux//lwm2m/core/objects.c ****         return -1;
 490              		.loc 1 857 0
 491 00dd B8FFFFFF 		movl	$-1, %eax
 491      FF
 492 00e2 EB0C     		jmp	.L24
 493              	.L28:
 833:/home/baikal/workspace/C50/Huawei_IoT_Agent_Tiny_SDK_Linux//lwm2m/core/objects.c ****     dataP[0].id = LWM2M_SERVER_LIFETIME_ID;
 494              		.loc 1 833 0
 495 00e4 B8FFFFFF 		movl	$-1, %eax
 495      FF
 496 00e9 EB05     		jmp	.L24
 497              	.L29:
 858:/home/baikal/workspace/C50/Huawei_IoT_Agent_Tiny_SDK_Linux//lwm2m/core/objects.c ****     }
 859:/home/baikal/workspace/C50/Huawei_IoT_Agent_Tiny_SDK_Linux//lwm2m/core/objects.c **** 
 860:/home/baikal/workspace/C50/Huawei_IoT_Agent_Tiny_SDK_Linux//lwm2m/core/objects.c ****     return 0;
 498              		.loc 1 860 0
 499 00eb B8000000 		movl	$0, %eax
 499      00
 500              	.L24:
 861:/home/baikal/workspace/C50/Huawei_IoT_Agent_Tiny_SDK_Linux//lwm2m/core/objects.c **** }
 501              		.loc 1 861 0
 502 00f0 4883C420 		addq	$32, %rsp
 503              	.LCFI34:
 504              		.cfi_def_cfa_offset 32
 505 00f4 5B       		popq	%rbx
 506              	.LCFI35:
 507              		.cfi_def_cfa_offset 24
 508 00f5 5D       		popq	%rbp
 509              	.LCFI36:
 510              		.cfi_def_cfa_offset 16
 511              	.LVL57:
 512 00f6 415C     		popq	%r12
 513              	.LCFI37:
GAS LISTING /tmp/cct9Gss8.s 			page 28


 514              		.cfi_def_cfa_offset 8
 515              	.LVL58:
 516 00f8 C3       		ret
 517              		.cfi_endproc
 518              	.LFE86:
 520              		.section	.text.object_checkReadable,"ax",@progbits
 521              		.globl	object_checkReadable
 523              	object_checkReadable:
 524              	.LFB71:
  99:/home/baikal/workspace/C50/Huawei_IoT_Agent_Tiny_SDK_Linux//lwm2m/core/objects.c ****     uint8_t result;
 525              		.loc 1 99 0
 526              		.cfi_startproc
 527              	.LVL59:
 528 0000 55       		pushq	%rbp
 529              	.LCFI38:
 530              		.cfi_def_cfa_offset 16
 531              		.cfi_offset 6, -16
 532 0001 53       		pushq	%rbx
 533              	.LCFI39:
 534              		.cfi_def_cfa_offset 24
 535              		.cfi_offset 3, -24
 536 0002 4883EC18 		subq	$24, %rsp
 537              	.LCFI40:
 538              		.cfi_def_cfa_offset 48
 539 0006 4889F5   		movq	%rsi, %rbp
 102:/home/baikal/workspace/C50/Huawei_IoT_Agent_Tiny_SDK_Linux//lwm2m/core/objects.c ****     int size;
 540              		.loc 1 102 0
 541 0009 48C74424 		movq	$0, 8(%rsp)
 541      08000000 
 541      00
 106:/home/baikal/workspace/C50/Huawei_IoT_Agent_Tiny_SDK_Linux//lwm2m/core/objects.c ****     if (NULL == targetP) return COAP_404_NOT_FOUND;
 542              		.loc 1 106 0
 543 0012 0FB77602 		movzwl	2(%rsi), %esi
 544              	.LVL60:
 545 0016 488B7F38 		movq	56(%rdi), %rdi
 546              	.LVL61:
 547 001a E8000000 		call	lwm2m_list_find
 547      00
 548              	.LVL62:
 107:/home/baikal/workspace/C50/Huawei_IoT_Agent_Tiny_SDK_Linux//lwm2m/core/objects.c ****     if (NULL == targetP->readFunc) return COAP_405_METHOD_NOT_ALLOWED;
 549              		.loc 1 107 0
 550 001f 4885C0   		testq	%rax, %rax
 551 0022 747A     		je	.L33
 552 0024 4889C3   		movq	%rax, %rbx
 108:/home/baikal/workspace/C50/Huawei_IoT_Agent_Tiny_SDK_Linux//lwm2m/core/objects.c **** 
 553              		.loc 1 108 0
 554 0027 48837818 		cmpq	$0, 24(%rax)
 554      00
 555 002c 7477     		je	.L34
 110:/home/baikal/workspace/C50/Huawei_IoT_Agent_Tiny_SDK_Linux//lwm2m/core/objects.c **** 
 556              		.loc 1 110 0
 557 002e F6450002 		testb	$2, 0(%rbp)
 558 0032 7478     		je	.L35
 112:/home/baikal/workspace/C50/Huawei_IoT_Agent_Tiny_SDK_Linux//lwm2m/core/objects.c **** 
 559              		.loc 1 112 0
 560 0034 0FB77504 		movzwl	4(%rbp), %esi
 561 0038 488B7810 		movq	16(%rax), %rdi
GAS LISTING /tmp/cct9Gss8.s 			page 29


 562 003c E8000000 		call	lwm2m_list_find
 562      00
 563              	.LVL63:
 564 0041 4885C0   		testq	%rax, %rax
 565 0044 746D     		je	.L36
 114:/home/baikal/workspace/C50/Huawei_IoT_Agent_Tiny_SDK_Linux//lwm2m/core/objects.c **** 
 566              		.loc 1 114 0
 567 0046 F6450001 		testb	$1, 0(%rbp)
 568 004a 746E     		je	.L37
 116:/home/baikal/workspace/C50/Huawei_IoT_Agent_Tiny_SDK_Linux//lwm2m/core/objects.c ****     dataP = lwm2m_data_new(1);
 569              		.loc 1 116 0
 570 004c C7442404 		movl	$1, 4(%rsp)
 570      01000000 
 117:/home/baikal/workspace/C50/Huawei_IoT_Agent_Tiny_SDK_Linux//lwm2m/core/objects.c ****     if (dataP == NULL) return COAP_500_INTERNAL_SERVER_ERROR;
 571              		.loc 1 117 0
 572 0054 BF010000 		movl	$1, %edi
 572      00
 573 0059 E8000000 		call	lwm2m_data_new
 573      00
 574              	.LVL64:
 575 005e 48894424 		movq	%rax, 8(%rsp)
 575      08
 118:/home/baikal/workspace/C50/Huawei_IoT_Agent_Tiny_SDK_Linux//lwm2m/core/objects.c **** 
 576              		.loc 1 118 0
 577 0063 4885C0   		testq	%rax, %rax
 578 0066 7459     		je	.L38
 120:/home/baikal/workspace/C50/Huawei_IoT_Agent_Tiny_SDK_Linux//lwm2m/core/objects.c **** 
 579              		.loc 1 120 0
 580 0068 0FB75506 		movzwl	6(%rbp), %edx
 581 006c 66895004 		movw	%dx, 4(%rax)
 122:/home/baikal/workspace/C50/Huawei_IoT_Agent_Tiny_SDK_Linux//lwm2m/core/objects.c ****     lwm2m_data_free(1, dataP);
 582              		.loc 1 122 0
 583 0070 0FB77D04 		movzwl	4(%rbp), %edi
 584 0074 4989D8   		movq	%rbx, %r8
 585 0077 B9000000 		movl	$0, %ecx
 585      00
 586 007c 488D5424 		leaq	8(%rsp), %rdx
 586      08
 587 0081 488D7424 		leaq	4(%rsp), %rsi
 587      04
 588 0086 FF5318   		call	*24(%rbx)
 589              	.LVL65:
 590 0089 89C3     		movl	%eax, %ebx
 591              	.LVL66:
 123:/home/baikal/workspace/C50/Huawei_IoT_Agent_Tiny_SDK_Linux//lwm2m/core/objects.c **** 
 592              		.loc 1 123 0
 593 008b 488B7424 		movq	8(%rsp), %rsi
 593      08
 594 0090 BF010000 		movl	$1, %edi
 594      00
 595 0095 E8000000 		call	lwm2m_data_free
 595      00
 596              	.LVL67:
 125:/home/baikal/workspace/C50/Huawei_IoT_Agent_Tiny_SDK_Linux//lwm2m/core/objects.c **** }
 597              		.loc 1 125 0
 598 009a 89D8     		movl	%ebx, %eax
 599 009c EB28     		jmp	.L32
GAS LISTING /tmp/cct9Gss8.s 			page 30


 600              	.LVL68:
 601              	.L33:
 107:/home/baikal/workspace/C50/Huawei_IoT_Agent_Tiny_SDK_Linux//lwm2m/core/objects.c ****     if (NULL == targetP->readFunc) return COAP_405_METHOD_NOT_ALLOWED;
 602              		.loc 1 107 0
 603 009e B884FFFF 		movl	$-124, %eax
 603      FF
 604              	.LVL69:
 605 00a3 EB21     		jmp	.L32
 606              	.LVL70:
 607              	.L34:
 108:/home/baikal/workspace/C50/Huawei_IoT_Agent_Tiny_SDK_Linux//lwm2m/core/objects.c **** 
 608              		.loc 1 108 0
 609 00a5 B885FFFF 		movl	$-123, %eax
 609      FF
 610              	.LVL71:
 611 00aa EB1A     		jmp	.L32
 612              	.LVL72:
 613              	.L35:
 110:/home/baikal/workspace/C50/Huawei_IoT_Agent_Tiny_SDK_Linux//lwm2m/core/objects.c **** 
 614              		.loc 1 110 0
 615 00ac B8450000 		movl	$69, %eax
 615      00
 616              	.LVL73:
 617 00b1 EB13     		jmp	.L32
 618              	.L36:
 112:/home/baikal/workspace/C50/Huawei_IoT_Agent_Tiny_SDK_Linux//lwm2m/core/objects.c **** 
 619              		.loc 1 112 0
 620 00b3 B884FFFF 		movl	$-124, %eax
 620      FF
 621 00b8 EB0C     		jmp	.L32
 622              	.L37:
 114:/home/baikal/workspace/C50/Huawei_IoT_Agent_Tiny_SDK_Linux//lwm2m/core/objects.c **** 
 623              		.loc 1 114 0
 624 00ba B8450000 		movl	$69, %eax
 624      00
 625 00bf EB05     		jmp	.L32
 626              	.L38:
 118:/home/baikal/workspace/C50/Huawei_IoT_Agent_Tiny_SDK_Linux//lwm2m/core/objects.c **** 
 627              		.loc 1 118 0
 628 00c1 B8A0FFFF 		movl	$-96, %eax
 628      FF
 629              	.LVL74:
 630              	.L32:
 126:/home/baikal/workspace/C50/Huawei_IoT_Agent_Tiny_SDK_Linux//lwm2m/core/objects.c **** 
 631              		.loc 1 126 0
 632 00c6 4883C418 		addq	$24, %rsp
 633              	.LCFI41:
 634              		.cfi_def_cfa_offset 24
 635 00ca 5B       		popq	%rbx
 636              	.LCFI42:
 637              		.cfi_def_cfa_offset 16
 638 00cb 5D       		popq	%rbp
 639              	.LCFI43:
 640              		.cfi_def_cfa_offset 8
 641              	.LVL75:
 642 00cc C3       		ret
 643              		.cfi_endproc
GAS LISTING /tmp/cct9Gss8.s 			page 31


 644              	.LFE71:
 646              		.section	.text.object_checkNumeric,"ax",@progbits
 647              		.globl	object_checkNumeric
 649              	object_checkNumeric:
 650              	.LFB72:
 130:/home/baikal/workspace/C50/Huawei_IoT_Agent_Tiny_SDK_Linux//lwm2m/core/objects.c ****     uint8_t result;
 651              		.loc 1 130 0
 652              		.cfi_startproc
 653              	.LVL76:
 654 0000 55       		pushq	%rbp
 655              	.LCFI44:
 656              		.cfi_def_cfa_offset 16
 657              		.cfi_offset 6, -16
 658 0001 53       		pushq	%rbx
 659              	.LCFI45:
 660              		.cfi_def_cfa_offset 24
 661              		.cfi_offset 3, -24
 662 0002 4883EC18 		subq	$24, %rsp
 663              	.LCFI46:
 664              		.cfi_def_cfa_offset 48
 133:/home/baikal/workspace/C50/Huawei_IoT_Agent_Tiny_SDK_Linux//lwm2m/core/objects.c ****     int size;
 665              		.loc 1 133 0
 666 0006 48C74424 		movq	$0, 8(%rsp)
 666      08000000 
 666      00
 137:/home/baikal/workspace/C50/Huawei_IoT_Agent_Tiny_SDK_Linux//lwm2m/core/objects.c **** 
 667              		.loc 1 137 0
 668 000f F60601   		testb	$1, (%rsi)
 669 0012 0F848900 		je	.L44
 669      0000
 670 0018 4889F3   		movq	%rsi, %rbx
 139:/home/baikal/workspace/C50/Huawei_IoT_Agent_Tiny_SDK_Linux//lwm2m/core/objects.c ****     if (NULL == targetP) return COAP_404_NOT_FOUND;
 671              		.loc 1 139 0
 672 001b 0FB77602 		movzwl	2(%rsi), %esi
 673              	.LVL77:
 674 001f 488B7F38 		movq	56(%rdi), %rdi
 675              	.LVL78:
 676 0023 E8000000 		call	lwm2m_list_find
 676      00
 677              	.LVL79:
 678 0028 4889C5   		movq	%rax, %rbp
 679              	.LVL80:
 140:/home/baikal/workspace/C50/Huawei_IoT_Agent_Tiny_SDK_Linux//lwm2m/core/objects.c ****     if (NULL == targetP->readFunc) return COAP_405_METHOD_NOT_ALLOWED;
 680              		.loc 1 140 0
 681 002b 4885C0   		testq	%rax, %rax
 682 002e 7478     		je	.L45
 141:/home/baikal/workspace/C50/Huawei_IoT_Agent_Tiny_SDK_Linux//lwm2m/core/objects.c **** 
 683              		.loc 1 141 0
 684 0030 48837818 		cmpq	$0, 24(%rax)
 684      00
 685 0035 7478     		je	.L46
 143:/home/baikal/workspace/C50/Huawei_IoT_Agent_Tiny_SDK_Linux//lwm2m/core/objects.c ****     dataP = lwm2m_data_new(1);
 686              		.loc 1 143 0
 687 0037 C7442404 		movl	$1, 4(%rsp)
 687      01000000 
 144:/home/baikal/workspace/C50/Huawei_IoT_Agent_Tiny_SDK_Linux//lwm2m/core/objects.c ****     if (dataP == NULL) return COAP_500_INTERNAL_SERVER_ERROR;
 688              		.loc 1 144 0
GAS LISTING /tmp/cct9Gss8.s 			page 32


 689 003f BF010000 		movl	$1, %edi
 689      00
 690 0044 E8000000 		call	lwm2m_data_new
 690      00
 691              	.LVL81:
 692 0049 48894424 		movq	%rax, 8(%rsp)
 692      08
 145:/home/baikal/workspace/C50/Huawei_IoT_Agent_Tiny_SDK_Linux//lwm2m/core/objects.c **** 
 693              		.loc 1 145 0
 694 004e 4885C0   		testq	%rax, %rax
 695 0051 7463     		je	.L47
 147:/home/baikal/workspace/C50/Huawei_IoT_Agent_Tiny_SDK_Linux//lwm2m/core/objects.c **** 
 696              		.loc 1 147 0
 697 0053 0FB75306 		movzwl	6(%rbx), %edx
 698 0057 66895004 		movw	%dx, 4(%rax)
 149:/home/baikal/workspace/C50/Huawei_IoT_Agent_Tiny_SDK_Linux//lwm2m/core/objects.c ****     if (result == COAP_205_CONTENT)
 699              		.loc 1 149 0
 700 005b 0FB77B04 		movzwl	4(%rbx), %edi
 701 005f 4989E8   		movq	%rbp, %r8
 702 0062 B9000000 		movl	$0, %ecx
 702      00
 703 0067 488D5424 		leaq	8(%rsp), %rdx
 703      08
 704 006c 488D7424 		leaq	4(%rsp), %rsi
 704      04
 705 0071 FF5518   		call	*24(%rbp)
 706              	.LVL82:
 707 0074 89C3     		movl	%eax, %ebx
 708              	.LVL83:
 150:/home/baikal/workspace/C50/Huawei_IoT_Agent_Tiny_SDK_Linux//lwm2m/core/objects.c ****     {
 709              		.loc 1 150 0
 710 0076 3C45     		cmpb	$69, %al
 711 0078 7514     		jne	.L42
 152:/home/baikal/workspace/C50/Huawei_IoT_Agent_Tiny_SDK_Linux//lwm2m/core/objects.c ****         {
 712              		.loc 1 152 0
 713 007a 488B4424 		movq	8(%rsp), %rax
 713      08
 714              	.LVL84:
 715 007f 8B00     		movl	(%rax), %eax
 716 0081 83E806   		subl	$6, %eax
 717 0084 83F801   		cmpl	$1, %eax
 718 0087 7605     		jbe	.L42
 158:/home/baikal/workspace/C50/Huawei_IoT_Agent_Tiny_SDK_Linux//lwm2m/core/objects.c ****         }
 719              		.loc 1 158 0
 720 0089 BB85FFFF 		movl	$-123, %ebx
 720      FF
 721              	.LVL85:
 722              	.L42:
 162:/home/baikal/workspace/C50/Huawei_IoT_Agent_Tiny_SDK_Linux//lwm2m/core/objects.c **** 
 723              		.loc 1 162 0
 724 008e 488B7424 		movq	8(%rsp), %rsi
 724      08
 725 0093 BF010000 		movl	$1, %edi
 725      00
 726 0098 E8000000 		call	lwm2m_data_free
 726      00
 727              	.LVL86:
GAS LISTING /tmp/cct9Gss8.s 			page 33


 164:/home/baikal/workspace/C50/Huawei_IoT_Agent_Tiny_SDK_Linux//lwm2m/core/objects.c **** }
 728              		.loc 1 164 0
 729 009d 89D8     		movl	%ebx, %eax
 730 009f EB1A     		jmp	.L41
 731              	.LVL87:
 732              	.L44:
 137:/home/baikal/workspace/C50/Huawei_IoT_Agent_Tiny_SDK_Linux//lwm2m/core/objects.c **** 
 733              		.loc 1 137 0
 734 00a1 B885FFFF 		movl	$-123, %eax
 734      FF
 735 00a6 EB13     		jmp	.L41
 736              	.LVL88:
 737              	.L45:
 140:/home/baikal/workspace/C50/Huawei_IoT_Agent_Tiny_SDK_Linux//lwm2m/core/objects.c ****     if (NULL == targetP->readFunc) return COAP_405_METHOD_NOT_ALLOWED;
 738              		.loc 1 140 0
 739 00a8 B884FFFF 		movl	$-124, %eax
 739      FF
 740              	.LVL89:
 741 00ad EB0C     		jmp	.L41
 742              	.LVL90:
 743              	.L46:
 141:/home/baikal/workspace/C50/Huawei_IoT_Agent_Tiny_SDK_Linux//lwm2m/core/objects.c **** 
 744              		.loc 1 141 0
 745 00af B885FFFF 		movl	$-123, %eax
 745      FF
 746              	.LVL91:
 747 00b4 EB05     		jmp	.L41
 748              	.L47:
 145:/home/baikal/workspace/C50/Huawei_IoT_Agent_Tiny_SDK_Linux//lwm2m/core/objects.c **** 
 749              		.loc 1 145 0
 750 00b6 B8A0FFFF 		movl	$-96, %eax
 750      FF
 751              	.LVL92:
 752              	.L41:
 165:/home/baikal/workspace/C50/Huawei_IoT_Agent_Tiny_SDK_Linux//lwm2m/core/objects.c **** 
 753              		.loc 1 165 0
 754 00bb 4883C418 		addq	$24, %rsp
 755              	.LCFI47:
 756              		.cfi_def_cfa_offset 24
 757 00bf 5B       		popq	%rbx
 758              	.LCFI48:
 759              		.cfi_def_cfa_offset 16
 760 00c0 5D       		popq	%rbp
 761              	.LCFI49:
 762              		.cfi_def_cfa_offset 8
 763 00c1 C3       		ret
 764              		.cfi_endproc
 765              	.LFE72:
 767              		.section	.text.object_readData,"ax",@progbits
 768              		.globl	object_readData
 770              	object_readData:
 771              	.LFB74:
 214:/home/baikal/workspace/C50/Huawei_IoT_Agent_Tiny_SDK_Linux//lwm2m/core/objects.c ****     uint8_t result;
 772              		.loc 1 214 0
 773              		.cfi_startproc
 774              	.LVL93:
 775 0000 4157     		pushq	%r15
GAS LISTING /tmp/cct9Gss8.s 			page 34


 776              	.LCFI50:
 777              		.cfi_def_cfa_offset 16
 778              		.cfi_offset 15, -16
 779 0002 4156     		pushq	%r14
 780              	.LCFI51:
 781              		.cfi_def_cfa_offset 24
 782              		.cfi_offset 14, -24
 783 0004 4155     		pushq	%r13
 784              	.LCFI52:
 785              		.cfi_def_cfa_offset 32
 786              		.cfi_offset 13, -32
 787 0006 4154     		pushq	%r12
 788              	.LCFI53:
 789              		.cfi_def_cfa_offset 40
 790              		.cfi_offset 12, -40
 791 0008 55       		pushq	%rbp
 792              	.LCFI54:
 793              		.cfi_def_cfa_offset 48
 794              		.cfi_offset 6, -48
 795 0009 53       		pushq	%rbx
 796              	.LCFI55:
 797              		.cfi_def_cfa_offset 56
 798              		.cfi_offset 3, -56
 799 000a 4883EC28 		subq	$40, %rsp
 800              	.LCFI56:
 801              		.cfi_def_cfa_offset 96
 802 000e 4989FF   		movq	%rdi, %r15
 803 0011 4889F5   		movq	%rsi, %rbp
 804 0014 4989D6   		movq	%rdx, %r14
 805 0017 4989CC   		movq	%rcx, %r12
 806 001a 4D89C5   		movq	%r8, %r13
 807 001d 44894C24 		movl	%r9d, 4(%rsp)
 807      04
 219:/home/baikal/workspace/C50/Huawei_IoT_Agent_Tiny_SDK_Linux//lwm2m/core/objects.c ****     if (NULL == targetP) return COAP_404_NOT_FOUND;
 808              		.loc 1 219 0
 809 0022 0FB77602 		movzwl	2(%rsi), %esi
 810              	.LVL94:
 811 0026 488B7F38 		movq	56(%rdi), %rdi
 812              	.LVL95:
 813 002a E8000000 		call	lwm2m_list_find
 813      00
 814              	.LVL96:
 220:/home/baikal/workspace/C50/Huawei_IoT_Agent_Tiny_SDK_Linux//lwm2m/core/objects.c ****     if (NULL == targetP->readFunc) return COAP_405_METHOD_NOT_ALLOWED;
 815              		.loc 1 220 0
 816 002f 4885C0   		testq	%rax, %rax
 817 0032 0F84B601 		je	.L65
 817      0000
 818 0038 4889C3   		movq	%rax, %rbx
 221:/home/baikal/workspace/C50/Huawei_IoT_Agent_Tiny_SDK_Linux//lwm2m/core/objects.c **** 
 819              		.loc 1 221 0
 820 003b 48837818 		cmpq	$0, 24(%rax)
 820      00
 821 0040 0F84AF01 		je	.L66
 821      0000
 223:/home/baikal/workspace/C50/Huawei_IoT_Agent_Tiny_SDK_Linux//lwm2m/core/objects.c ****     {
 822              		.loc 1 223 0
 823 0046 F6450002 		testb	$2, 0(%rbp)
GAS LISTING /tmp/cct9Gss8.s 			page 35


 824 004a 745A     		je	.L52
 225:/home/baikal/workspace/C50/Huawei_IoT_Agent_Tiny_SDK_Linux//lwm2m/core/objects.c **** 
 825              		.loc 1 225 0
 826 004c 0FB77504 		movzwl	4(%rbp), %esi
 827 0050 488B7810 		movq	16(%rax), %rdi
 828 0054 E8000000 		call	lwm2m_list_find
 828      00
 829              	.LVL97:
 830 0059 4885C0   		testq	%rax, %rax
 831 005c 0F849A01 		je	.L67
 831      0000
 228:/home/baikal/workspace/C50/Huawei_IoT_Agent_Tiny_SDK_Linux//lwm2m/core/objects.c ****         {
 832              		.loc 1 228 0
 833 0062 F6450001 		testb	$1, 0(%rbp)
 834 0066 7426     		je	.L53
 230:/home/baikal/workspace/C50/Huawei_IoT_Agent_Tiny_SDK_Linux//lwm2m/core/objects.c ****             *dataP = lwm2m_data_new(*sizeP);
 835              		.loc 1 230 0
 836 0068 41C70601 		movl	$1, (%r14)
 836      000000
 231:/home/baikal/workspace/C50/Huawei_IoT_Agent_Tiny_SDK_Linux//lwm2m/core/objects.c ****             if (*dataP == NULL) return COAP_500_INTERNAL_SERVER_ERROR;
 837              		.loc 1 231 0
 838 006f BF010000 		movl	$1, %edi
 838      00
 839 0074 E8000000 		call	lwm2m_data_new
 839      00
 840              	.LVL98:
 841 0079 49890424 		movq	%rax, (%r12)
 232:/home/baikal/workspace/C50/Huawei_IoT_Agent_Tiny_SDK_Linux//lwm2m/core/objects.c **** 
 842              		.loc 1 232 0
 843 007d 4885C0   		testq	%rax, %rax
 844 0080 0F847D01 		je	.L68
 844      0000
 234:/home/baikal/workspace/C50/Huawei_IoT_Agent_Tiny_SDK_Linux//lwm2m/core/objects.c ****         }
 845              		.loc 1 234 0
 846 0086 0FB75506 		movzwl	6(%rbp), %edx
 847 008a 66895004 		movw	%dx, 4(%rax)
 848              	.L53:
 237:/home/baikal/workspace/C50/Huawei_IoT_Agent_Tiny_SDK_Linux//lwm2m/core/objects.c ****     }
 849              		.loc 1 237 0
 850 008e 0FB77D04 		movzwl	4(%rbp), %edi
 851 0092 4989D8   		movq	%rbx, %r8
 852 0095 4C89E9   		movq	%r13, %rcx
 853 0098 4C89E2   		movq	%r12, %rdx
 854 009b 4C89F6   		movq	%r14, %rsi
 855 009e FF5318   		call	*24(%rbx)
 856              	.LVL99:
 857 00a1 E9620100 		jmp	.L51
 857      00
 858              	.LVL100:
 859              	.L52:
 860              	.LBB16:
 243:/home/baikal/workspace/C50/Huawei_IoT_Agent_Tiny_SDK_Linux//lwm2m/core/objects.c ****         int i;
 861              		.loc 1 243 0
 862 00a6 48C74424 		movq	$0, 24(%rsp)
 862      18000000 
 862      00
 863              	.LVL101:
GAS LISTING /tmp/cct9Gss8.s 			page 36


 249:/home/baikal/workspace/C50/Huawei_IoT_Agent_Tiny_SDK_Linux//lwm2m/core/objects.c ****         for (instanceP = targetP->instanceList; instanceP != NULL ; instanceP = instanceP->next)
 864              		.loc 1 249 0
 865 00af 41C70600 		movl	$0, (%r14)
 865      000000
 250:/home/baikal/workspace/C50/Huawei_IoT_Agent_Tiny_SDK_Linux//lwm2m/core/objects.c ****         {
 866              		.loc 1 250 0
 867 00b6 488B5010 		movq	16(%rax), %rdx
 868              	.LVL102:
 869 00ba EB0C     		jmp	.L54
 870              	.LVL103:
 871              	.L55:
 252:/home/baikal/workspace/C50/Huawei_IoT_Agent_Tiny_SDK_Linux//lwm2m/core/objects.c ****         }
 872              		.loc 1 252 0 discriminator 3
 873 00bc 418B06   		movl	(%r14), %eax
 874 00bf 83C001   		addl	$1, %eax
 875 00c2 418906   		movl	%eax, (%r14)
 250:/home/baikal/workspace/C50/Huawei_IoT_Agent_Tiny_SDK_Linux//lwm2m/core/objects.c ****         {
 876              		.loc 1 250 0 discriminator 3
 877 00c5 488B12   		movq	(%rdx), %rdx
 878              	.LVL104:
 879              	.L54:
 250:/home/baikal/workspace/C50/Huawei_IoT_Agent_Tiny_SDK_Linux//lwm2m/core/objects.c ****         {
 880              		.loc 1 250 0 is_stmt 0 discriminator 1
 881 00c8 4885D2   		testq	%rdx, %rdx
 882 00cb 75EF     		jne	.L55
 255:/home/baikal/workspace/C50/Huawei_IoT_Agent_Tiny_SDK_Linux//lwm2m/core/objects.c ****         {
 883              		.loc 1 255 0 is_stmt 1
 884 00cd 41833E00 		cmpl	$0, (%r14)
 885 00d1 7512     		jne	.L56
 257:/home/baikal/workspace/C50/Huawei_IoT_Agent_Tiny_SDK_Linux//lwm2m/core/objects.c ****         }
 886              		.loc 1 257 0
 887 00d3 49C70424 		movq	$0, (%r12)
 887      00000000 
 247:/home/baikal/workspace/C50/Huawei_IoT_Agent_Tiny_SDK_Linux//lwm2m/core/objects.c **** 
 888              		.loc 1 247 0
 889 00db BD450000 		movl	$69, %ebp
 889      00
 890              	.LVL105:
 891 00e0 E9EF0000 		jmp	.L57
 891      00
 892              	.LVL106:
 893              	.L56:
 261:/home/baikal/workspace/C50/Huawei_IoT_Agent_Tiny_SDK_Linux//lwm2m/core/objects.c ****                                              uriP->objectId, serverId, sizeP, &forbidden)) != COAP_
 894              		.loc 1 261 0
 895 00e5 0FB74C24 		movzwl	4(%rsp), %ecx
 895      04
 896 00ea 0FB75502 		movzwl	2(%rbp), %edx
 897              	.LVL107:
 898 00ee 4C8D4C24 		leaq	24(%rsp), %r9
 898      18
 899 00f3 4D89F0   		movq	%r14, %r8
 900 00f6 4889DE   		movq	%rbx, %rsi
 901 00f9 4C89FF   		movq	%r15, %rdi
 902 00fc E8000000 		call	prv_init_forbidden
 902      00
 903              	.LVL108:
 904 0101 89C5     		movl	%eax, %ebp
GAS LISTING /tmp/cct9Gss8.s 			page 37


 905              	.LVL109:
 906 0103 84C0     		testb	%al, %al
 907 0105 740D     		je	.L58
 264:/home/baikal/workspace/C50/Huawei_IoT_Agent_Tiny_SDK_Linux//lwm2m/core/objects.c ****                 return result;
 908              		.loc 1 264 0
 909 0107 49C70424 		movq	$0, (%r12)
 909      00000000 
 265:/home/baikal/workspace/C50/Huawei_IoT_Agent_Tiny_SDK_Linux//lwm2m/core/objects.c ****             }
 910              		.loc 1 265 0
 911 010f E9F40000 		jmp	.L51
 911      00
 912              	.L58:
 268:/home/baikal/workspace/C50/Huawei_IoT_Agent_Tiny_SDK_Linux//lwm2m/core/objects.c ****             if (*dataP == NULL)
 913              		.loc 1 268 0
 914 0114 418B3E   		movl	(%r14), %edi
 915 0117 E8000000 		call	lwm2m_data_new
 915      00
 916              	.LVL110:
 917 011c 49890424 		movq	%rax, (%r12)
 269:/home/baikal/workspace/C50/Huawei_IoT_Agent_Tiny_SDK_Linux//lwm2m/core/objects.c ****             {
 918              		.loc 1 269 0
 919 0120 4885C0   		testq	%rax, %rax
 920 0123 751D     		jne	.L60
 271:/home/baikal/workspace/C50/Huawei_IoT_Agent_Tiny_SDK_Linux//lwm2m/core/objects.c ****                 {
 921              		.loc 1 271 0
 922 0125 488B7C24 		movq	24(%rsp), %rdi
 922      18
 923 012a 4885FF   		testq	%rdi, %rdi
 924 012d 0F84B400 		je	.L69
 924      0000
 273:/home/baikal/workspace/C50/Huawei_IoT_Agent_Tiny_SDK_Linux//lwm2m/core/objects.c ****                 }
 925              		.loc 1 273 0
 926 0133 E8000000 		call	lwm2m_free
 926      00
 927              	.LVL111:
 275:/home/baikal/workspace/C50/Huawei_IoT_Agent_Tiny_SDK_Linux//lwm2m/core/objects.c ****             }
 928              		.loc 1 275 0
 929 0138 B8A0FFFF 		movl	$-96, %eax
 929      FF
 930 013d E9C60000 		jmp	.L51
 930      00
 931              	.L60:
 278:/home/baikal/workspace/C50/Huawei_IoT_Agent_Tiny_SDK_Linux//lwm2m/core/objects.c ****             i = 0;
 932              		.loc 1 278 0
 933 0142 4C8B7310 		movq	16(%rbx), %r14
 934              	.LVL112:
 280:/home/baikal/workspace/C50/Huawei_IoT_Agent_Tiny_SDK_Linux//lwm2m/core/objects.c ****             while (instanceP != NULL && result == COAP_205_CONTENT)
 935              		.loc 1 280 0
 936 0146 C7442404 		movl	$0, 4(%rsp)
 936      00000000 
 279:/home/baikal/workspace/C50/Huawei_IoT_Agent_Tiny_SDK_Linux//lwm2m/core/objects.c ****             j = 0;
 937              		.loc 1 279 0
 938 014e 41BF0000 		movl	$0, %r15d
 938      0000
 939              	.LVL113:
 281:/home/baikal/workspace/C50/Huawei_IoT_Agent_Tiny_SDK_Linux//lwm2m/core/objects.c ****             {
 940              		.loc 1 281 0
GAS LISTING /tmp/cct9Gss8.s 			page 38


 941 0154 EB6D     		jmp	.L61
 942              	.LVL114:
 943              	.L63:
 283:/home/baikal/workspace/C50/Huawei_IoT_Agent_Tiny_SDK_Linux//lwm2m/core/objects.c ****                 {
 944              		.loc 1 283 0
 945 0156 4963C7   		movslq	%r15d, %rax
 946 0159 488B5424 		movq	24(%rsp), %rdx
 946      18
 947 015e 803C0200 		cmpb	$0, (%rdx,%rax)
 948 0162 7558     		jne	.L62
 285:/home/baikal/workspace/C50/Huawei_IoT_Agent_Tiny_SDK_Linux//lwm2m/core/objects.c ****                     (*dataP)[j].type = LWM2M_TYPE_OBJECT_INSTANCE;
 949              		.loc 1 285 0
 950 0164 48634424 		movslq	4(%rsp), %rax
 950      04
 951 0169 488D0440 		leaq	(%rax,%rax,2), %rax
 952 016d 48C1E003 		salq	$3, %rax
 953 0171 4889C6   		movq	%rax, %rsi
 954 0174 48894424 		movq	%rax, 8(%rsp)
 954      08
 955 0179 49033424 		addq	(%r12), %rsi
 956 017d 488D5610 		leaq	16(%rsi), %rdx
 957 0181 4883C608 		addq	$8, %rsi
 958 0185 410FB77E 		movzwl	8(%r14), %edi
 958      08
 959 018a 4989D8   		movq	%rbx, %r8
 960 018d 4C89E9   		movq	%r13, %rcx
 961 0190 FF5318   		call	*24(%rbx)
 962              	.LVL115:
 963 0193 89C5     		movl	%eax, %ebp
 964              	.LVL116:
 286:/home/baikal/workspace/C50/Huawei_IoT_Agent_Tiny_SDK_Linux//lwm2m/core/objects.c ****                     (*dataP)[j].id = instanceP->id;
 965              		.loc 1 286 0
 966 0195 488B7424 		movq	8(%rsp), %rsi
 966      08
 967 019a 4889F0   		movq	%rsi, %rax
 968              	.LVL117:
 969 019d 49030424 		addq	(%r12), %rax
 970 01a1 C7000200 		movl	$2, (%rax)
 970      0000
 287:/home/baikal/workspace/C50/Huawei_IoT_Agent_Tiny_SDK_Linux//lwm2m/core/objects.c ****                     j++;
 971              		.loc 1 287 0
 972 01a7 4889F0   		movq	%rsi, %rax
 973 01aa 49030424 		addq	(%r12), %rax
 974 01ae 410FB756 		movzwl	8(%r14), %edx
 974      08
 975 01b3 66895004 		movw	%dx, 4(%rax)
 288:/home/baikal/workspace/C50/Huawei_IoT_Agent_Tiny_SDK_Linux//lwm2m/core/objects.c ****                 }
 976              		.loc 1 288 0
 977 01b7 83442404 		addl	$1, 4(%rsp)
 977      01
 978              	.LVL118:
 979              	.L62:
 290:/home/baikal/workspace/C50/Huawei_IoT_Agent_Tiny_SDK_Linux//lwm2m/core/objects.c ****                 i++;
 980              		.loc 1 290 0
 981 01bc 4D8B36   		movq	(%r14), %r14
 982              	.LVL119:
 291:/home/baikal/workspace/C50/Huawei_IoT_Agent_Tiny_SDK_Linux//lwm2m/core/objects.c ****             }
GAS LISTING /tmp/cct9Gss8.s 			page 39


 983              		.loc 1 291 0
 984 01bf 4183C701 		addl	$1, %r15d
 985              	.LVL120:
 986              	.L61:
 281:/home/baikal/workspace/C50/Huawei_IoT_Agent_Tiny_SDK_Linux//lwm2m/core/objects.c ****             {
 987              		.loc 1 281 0
 988 01c3 4D85F6   		testq	%r14, %r14
 989 01c6 0F95C2   		setne	%dl
 990 01c9 4080FD45 		cmpb	$69, %bpl
 991 01cd 0F94C0   		sete	%al
 992 01d0 84C2     		testb	%al, %dl
 993 01d2 7582     		jne	.L63
 994              	.LVL121:
 995              	.L57:
 294:/home/baikal/workspace/C50/Huawei_IoT_Agent_Tiny_SDK_Linux//lwm2m/core/objects.c ****         {
 996              		.loc 1 294 0
 997 01d4 488B7C24 		movq	24(%rsp), %rdi
 997      18
 998 01d9 4885FF   		testq	%rdi, %rdi
 999 01dc 7405     		je	.L64
 296:/home/baikal/workspace/C50/Huawei_IoT_Agent_Tiny_SDK_Linux//lwm2m/core/objects.c ****         }
 1000              		.loc 1 296 0
 1001 01de E8000000 		call	lwm2m_free
 1001      00
 1002              	.LVL122:
 1003              	.L64:
 1004 01e3 89E8     		movl	%ebp, %eax
 1005 01e5 EB21     		jmp	.L51
 1006              	.LVL123:
 1007              	.L69:
 275:/home/baikal/workspace/C50/Huawei_IoT_Agent_Tiny_SDK_Linux//lwm2m/core/objects.c ****             }
 1008              		.loc 1 275 0
 1009 01e7 B8A0FFFF 		movl	$-96, %eax
 1009      FF
 1010 01ec EB1A     		jmp	.L51
 1011              	.LVL124:
 1012              	.L65:
 1013              	.LBE16:
 220:/home/baikal/workspace/C50/Huawei_IoT_Agent_Tiny_SDK_Linux//lwm2m/core/objects.c ****     if (NULL == targetP->readFunc) return COAP_405_METHOD_NOT_ALLOWED;
 1014              		.loc 1 220 0
 1015 01ee B884FFFF 		movl	$-124, %eax
 1015      FF
 1016              	.LVL125:
 1017 01f3 EB13     		jmp	.L51
 1018              	.LVL126:
 1019              	.L66:
 221:/home/baikal/workspace/C50/Huawei_IoT_Agent_Tiny_SDK_Linux//lwm2m/core/objects.c **** 
 1020              		.loc 1 221 0
 1021 01f5 B885FFFF 		movl	$-123, %eax
 1021      FF
 1022              	.LVL127:
 1023 01fa EB0C     		jmp	.L51
 1024              	.L67:
 225:/home/baikal/workspace/C50/Huawei_IoT_Agent_Tiny_SDK_Linux//lwm2m/core/objects.c **** 
 1025              		.loc 1 225 0
 1026 01fc B884FFFF 		movl	$-124, %eax
 1026      FF
GAS LISTING /tmp/cct9Gss8.s 			page 40


 1027 0201 EB05     		jmp	.L51
 1028              	.L68:
 232:/home/baikal/workspace/C50/Huawei_IoT_Agent_Tiny_SDK_Linux//lwm2m/core/objects.c **** 
 1029              		.loc 1 232 0
 1030 0203 B8A0FFFF 		movl	$-96, %eax
 1030      FF
 1031              	.LVL128:
 1032              	.L51:
 302:/home/baikal/workspace/C50/Huawei_IoT_Agent_Tiny_SDK_Linux//lwm2m/core/objects.c **** 
 1033              		.loc 1 302 0
 1034 0208 4883C428 		addq	$40, %rsp
 1035              	.LCFI57:
 1036              		.cfi_def_cfa_offset 56
 1037 020c 5B       		popq	%rbx
 1038              	.LCFI58:
 1039              		.cfi_def_cfa_offset 48
 1040 020d 5D       		popq	%rbp
 1041              	.LCFI59:
 1042              		.cfi_def_cfa_offset 40
 1043 020e 415C     		popq	%r12
 1044              	.LCFI60:
 1045              		.cfi_def_cfa_offset 32
 1046              	.LVL129:
 1047 0210 415D     		popq	%r13
 1048              	.LCFI61:
 1049              		.cfi_def_cfa_offset 24
 1050              	.LVL130:
 1051 0212 415E     		popq	%r14
 1052              	.LCFI62:
 1053              		.cfi_def_cfa_offset 16
 1054 0214 415F     		popq	%r15
 1055              	.LCFI63:
 1056              		.cfi_def_cfa_offset 8
 1057 0216 C3       		ret
 1058              		.cfi_endproc
 1059              	.LFE74:
 1061              		.section	.text.object_read,"ax",@progbits
 1062              		.globl	object_read
 1064              	object_read:
 1065              	.LFB75:
 311:/home/baikal/workspace/C50/Huawei_IoT_Agent_Tiny_SDK_Linux//lwm2m/core/objects.c ****     uint8_t result;
 1066              		.loc 1 311 0
 1067              		.cfi_startproc
 1068              	.LVL131:
 1069 0000 4156     		pushq	%r14
 1070              	.LCFI64:
 1071              		.cfi_def_cfa_offset 16
 1072              		.cfi_offset 14, -16
 1073 0002 4155     		pushq	%r13
 1074              	.LCFI65:
 1075              		.cfi_def_cfa_offset 24
 1076              		.cfi_offset 13, -24
 1077 0004 4154     		pushq	%r12
 1078              	.LCFI66:
 1079              		.cfi_def_cfa_offset 32
 1080              		.cfi_offset 12, -32
 1081 0006 55       		pushq	%rbp
GAS LISTING /tmp/cct9Gss8.s 			page 41


 1082              	.LCFI67:
 1083              		.cfi_def_cfa_offset 40
 1084              		.cfi_offset 6, -40
 1085 0007 53       		pushq	%rbx
 1086              	.LCFI68:
 1087              		.cfi_def_cfa_offset 48
 1088              		.cfi_offset 3, -48
 1089 0008 4883EC10 		subq	$16, %rsp
 1090              	.LCFI69:
 1091              		.cfi_def_cfa_offset 64
 1092 000c 4889F5   		movq	%rsi, %rbp
 1093 000f 4989D4   		movq	%rdx, %r12
 1094 0012 4989CD   		movq	%rcx, %r13
 1095 0015 4D89C6   		movq	%r8, %r14
 313:/home/baikal/workspace/C50/Huawei_IoT_Agent_Tiny_SDK_Linux//lwm2m/core/objects.c ****     int size = 0;
 1096              		.loc 1 313 0
 1097 0018 48C74424 		movq	$0, 8(%rsp)
 1097      08000000 
 1097      00
 314:/home/baikal/workspace/C50/Huawei_IoT_Agent_Tiny_SDK_Linux//lwm2m/core/objects.c ****     int res;
 1098              		.loc 1 314 0
 1099 0021 C7442404 		movl	$0, 4(%rsp)
 1099      00000000 
 318:/home/baikal/workspace/C50/Huawei_IoT_Agent_Tiny_SDK_Linux//lwm2m/core/objects.c **** 
 1100              		.loc 1 318 0
 1101 0029 450FB7C9 		movzwl	%r9w, %r9d
 1102 002d 41B80000 		movl	$0, %r8d
 1102      0000
 1103              	.LVL132:
 1104 0033 488D4C24 		leaq	8(%rsp), %rcx
 1104      08
 1105              	.LVL133:
 1106 0038 488D5424 		leaq	4(%rsp), %rdx
 1106      04
 1107              	.LVL134:
 1108 003d E8000000 		call	object_readData
 1108      00
 1109              	.LVL135:
 1110 0042 89C3     		movl	%eax, %ebx
 1111              	.LVL136:
 320:/home/baikal/workspace/C50/Huawei_IoT_Agent_Tiny_SDK_Linux//lwm2m/core/objects.c ****     {
 1112              		.loc 1 320 0
 1113 0044 3C45     		cmpb	$69, %al
 1114 0046 7527     		jne	.L72
 322:/home/baikal/workspace/C50/Huawei_IoT_Agent_Tiny_SDK_Linux//lwm2m/core/objects.c ****         if (res < 0)
 1115              		.loc 1 322 0
 1116 0048 4D89E8   		movq	%r13, %r8
 1117 004b 4C89E1   		movq	%r12, %rcx
 1118 004e 488B5424 		movq	8(%rsp), %rdx
 1118      08
 1119 0053 8B742404 		movl	4(%rsp), %esi
 1120 0057 4889EF   		movq	%rbp, %rdi
 1121 005a E8000000 		call	lwm2m_data_serialize
 1121      00
 1122              	.LVL137:
 323:/home/baikal/workspace/C50/Huawei_IoT_Agent_Tiny_SDK_Linux//lwm2m/core/objects.c ****         {
 1123              		.loc 1 323 0
GAS LISTING /tmp/cct9Gss8.s 			page 42


 1124 005f 85C0     		testl	%eax, %eax
 1125 0061 7807     		js	.L73
 329:/home/baikal/workspace/C50/Huawei_IoT_Agent_Tiny_SDK_Linux//lwm2m/core/objects.c ****         }
 1126              		.loc 1 329 0
 1127 0063 4898     		cltq
 1128 0065 498906   		movq	%rax, (%r14)
 1129 0068 EB05     		jmp	.L72
 1130              	.L73:
 325:/home/baikal/workspace/C50/Huawei_IoT_Agent_Tiny_SDK_Linux//lwm2m/core/objects.c ****         }
 1131              		.loc 1 325 0
 1132 006a BBA0FFFF 		movl	$-96, %ebx
 1132      FF
 1133              	.LVL138:
 1134              	.L72:
 332:/home/baikal/workspace/C50/Huawei_IoT_Agent_Tiny_SDK_Linux//lwm2m/core/objects.c **** 
 1135              		.loc 1 332 0
 1136 006f 488B7424 		movq	8(%rsp), %rsi
 1136      08
 1137 0074 8B7C2404 		movl	4(%rsp), %edi
 1138 0078 E8000000 		call	lwm2m_data_free
 1138      00
 1139              	.LVL139:
 337:/home/baikal/workspace/C50/Huawei_IoT_Agent_Tiny_SDK_Linux//lwm2m/core/objects.c **** 
 1140              		.loc 1 337 0
 1141 007d 89D8     		movl	%ebx, %eax
 1142 007f 4883C410 		addq	$16, %rsp
 1143              	.LCFI70:
 1144              		.cfi_def_cfa_offset 48
 1145 0083 5B       		popq	%rbx
 1146              	.LCFI71:
 1147              		.cfi_def_cfa_offset 40
 1148              	.LVL140:
 1149 0084 5D       		popq	%rbp
 1150              	.LCFI72:
 1151              		.cfi_def_cfa_offset 32
 1152              	.LVL141:
 1153 0085 415C     		popq	%r12
 1154              	.LCFI73:
 1155              		.cfi_def_cfa_offset 24
 1156              	.LVL142:
 1157 0087 415D     		popq	%r13
 1158              	.LCFI74:
 1159              		.cfi_def_cfa_offset 16
 1160              	.LVL143:
 1161 0089 415E     		popq	%r14
 1162              	.LCFI75:
 1163              		.cfi_def_cfa_offset 8
 1164              	.LVL144:
 1165 008b C3       		ret
 1166              		.cfi_endproc
 1167              	.LFE75:
 1169              		.section	.text.object_write,"ax",@progbits
 1170              		.globl	object_write
 1172              	object_write:
 1173              	.LFB76:
 344:/home/baikal/workspace/C50/Huawei_IoT_Agent_Tiny_SDK_Linux//lwm2m/core/objects.c ****     uint8_t result = NO_ERROR;
 1174              		.loc 1 344 0
GAS LISTING /tmp/cct9Gss8.s 			page 43


 1175              		.cfi_startproc
 1176              	.LVL145:
 1177 0000 4156     		pushq	%r14
 1178              	.LCFI76:
 1179              		.cfi_def_cfa_offset 16
 1180              		.cfi_offset 14, -16
 1181 0002 4155     		pushq	%r13
 1182              	.LCFI77:
 1183              		.cfi_def_cfa_offset 24
 1184              		.cfi_offset 13, -24
 1185 0004 4154     		pushq	%r12
 1186              	.LCFI78:
 1187              		.cfi_def_cfa_offset 32
 1188              		.cfi_offset 12, -32
 1189 0006 55       		pushq	%rbp
 1190              	.LCFI79:
 1191              		.cfi_def_cfa_offset 40
 1192              		.cfi_offset 6, -40
 1193 0007 53       		pushq	%rbx
 1194              	.LCFI80:
 1195              		.cfi_def_cfa_offset 48
 1196              		.cfi_offset 3, -48
 1197 0008 4883EC10 		subq	$16, %rsp
 1198              	.LCFI81:
 1199              		.cfi_def_cfa_offset 64
 1200 000c 4989F4   		movq	%rsi, %r12
 1201 000f 4189D6   		movl	%edx, %r14d
 1202 0012 4889CD   		movq	%rcx, %rbp
 1203 0015 4D89C5   		movq	%r8, %r13
 1204              	.LVL146:
 347:/home/baikal/workspace/C50/Huawei_IoT_Agent_Tiny_SDK_Linux//lwm2m/core/objects.c ****     int size = 0;
 1205              		.loc 1 347 0
 1206 0018 48C74424 		movq	$0, 8(%rsp)
 1206      08000000 
 1206      00
 1207              	.LVL147:
 351:/home/baikal/workspace/C50/Huawei_IoT_Agent_Tiny_SDK_Linux//lwm2m/core/objects.c ****     if (NULL == targetP)
 1208              		.loc 1 351 0
 1209 0021 0FB77602 		movzwl	2(%rsi), %esi
 1210              	.LVL148:
 1211 0025 488B7F38 		movq	56(%rdi), %rdi
 1212              	.LVL149:
 1213 0029 E8000000 		call	lwm2m_list_find
 1213      00
 1214              	.LVL150:
 1215 002e 4889C3   		movq	%rax, %rbx
 1216              	.LVL151:
 352:/home/baikal/workspace/C50/Huawei_IoT_Agent_Tiny_SDK_Linux//lwm2m/core/objects.c ****     {
 1217              		.loc 1 352 0
 1218 0031 4885C0   		testq	%rax, %rax
 1219 0034 742B     		je	.L78
 356:/home/baikal/workspace/C50/Huawei_IoT_Agent_Tiny_SDK_Linux//lwm2m/core/objects.c ****     {
 1220              		.loc 1 356 0
 1221 0036 48837820 		cmpq	$0, 32(%rax)
 1221      00
 1222 003b 7431     		je	.L79
 362:/home/baikal/workspace/C50/Huawei_IoT_Agent_Tiny_SDK_Linux//lwm2m/core/objects.c ****         if (size == 0)
GAS LISTING /tmp/cct9Gss8.s 			page 44


 1223              		.loc 1 362 0
 1224 003d 4C8D4424 		leaq	8(%rsp), %r8
 1224      08
 1225 0042 4489F1   		movl	%r14d, %ecx
 1226 0045 4C89EA   		movq	%r13, %rdx
 1227 0048 4889EE   		movq	%rbp, %rsi
 1228 004b 4C89E7   		movq	%r12, %rdi
 1229 004e E8000000 		call	lwm2m_data_parse
 1229      00
 1230              	.LVL152:
 1231 0053 4189C5   		movl	%eax, %r13d
 1232              	.LVL153:
 363:/home/baikal/workspace/C50/Huawei_IoT_Agent_Tiny_SDK_Linux//lwm2m/core/objects.c ****         {
 1233              		.loc 1 363 0
 1234 0056 85C0     		testl	%eax, %eax
 1235 0058 7421     		je	.L80
 345:/home/baikal/workspace/C50/Huawei_IoT_Agent_Tiny_SDK_Linux//lwm2m/core/objects.c ****     lwm2m_object_t *targetP;
 1236              		.loc 1 345 0
 1237 005a BD000000 		movl	$0, %ebp
 1237      00
 1238              	.LVL154:
 1239 005f EB1F     		jmp	.L76
 1240              	.LVL155:
 1241              	.L78:
 348:/home/baikal/workspace/C50/Huawei_IoT_Agent_Tiny_SDK_Linux//lwm2m/core/objects.c **** 
 1242              		.loc 1 348 0
 1243 0061 41BD0000 		movl	$0, %r13d
 1243      0000
 1244              	.LVL156:
 354:/home/baikal/workspace/C50/Huawei_IoT_Agent_Tiny_SDK_Linux//lwm2m/core/objects.c ****     }
 1245              		.loc 1 354 0
 1246 0067 BD84FFFF 		movl	$-124, %ebp
 1246      FF
 1247              	.LVL157:
 1248 006c EB12     		jmp	.L76
 1249              	.LVL158:
 1250              	.L79:
 348:/home/baikal/workspace/C50/Huawei_IoT_Agent_Tiny_SDK_Linux//lwm2m/core/objects.c **** 
 1251              		.loc 1 348 0
 1252 006e 41BD0000 		movl	$0, %r13d
 1252      0000
 1253              	.LVL159:
 358:/home/baikal/workspace/C50/Huawei_IoT_Agent_Tiny_SDK_Linux//lwm2m/core/objects.c ****     }
 1254              		.loc 1 358 0
 1255 0074 BD85FFFF 		movl	$-123, %ebp
 1255      FF
 1256              	.LVL160:
 1257 0079 EB05     		jmp	.L76
 1258              	.LVL161:
 1259              	.L80:
 365:/home/baikal/workspace/C50/Huawei_IoT_Agent_Tiny_SDK_Linux//lwm2m/core/objects.c ****         }
 1260              		.loc 1 365 0
 1261 007b BD86FFFF 		movl	$-122, %ebp
 1261      FF
 1262              	.LVL162:
 1263              	.L76:
 368:/home/baikal/workspace/C50/Huawei_IoT_Agent_Tiny_SDK_Linux//lwm2m/core/objects.c ****     {
GAS LISTING /tmp/cct9Gss8.s 			page 45


 1264              		.loc 1 368 0
 1265 0080 4084ED   		testb	%bpl, %bpl
 1266 0083 7523     		jne	.L77
 370:/home/baikal/workspace/C50/Huawei_IoT_Agent_Tiny_SDK_Linux//lwm2m/core/objects.c ****         lwm2m_data_free(size, dataP);
 1267              		.loc 1 370 0
 1268 0085 410FB77C 		movzwl	4(%r12), %edi
 1268      2404
 1269 008b 4889D9   		movq	%rbx, %rcx
 1270 008e 488B5424 		movq	8(%rsp), %rdx
 1270      08
 1271 0093 4489EE   		movl	%r13d, %esi
 1272 0096 FF5320   		call	*32(%rbx)
 1273              	.LVL163:
 1274 0099 89C5     		movl	%eax, %ebp
 1275              	.LVL164:
 371:/home/baikal/workspace/C50/Huawei_IoT_Agent_Tiny_SDK_Linux//lwm2m/core/objects.c ****     }
 1276              		.loc 1 371 0
 1277 009b 488B7424 		movq	8(%rsp), %rsi
 1277      08
 1278 00a0 4489EF   		movl	%r13d, %edi
 1279 00a3 E8000000 		call	lwm2m_data_free
 1279      00
 1280              	.LVL165:
 1281              	.L77:
 377:/home/baikal/workspace/C50/Huawei_IoT_Agent_Tiny_SDK_Linux//lwm2m/core/objects.c **** 
 1282              		.loc 1 377 0
 1283 00a8 89E8     		movl	%ebp, %eax
 1284 00aa 4883C410 		addq	$16, %rsp
 1285              	.LCFI82:
 1286              		.cfi_def_cfa_offset 48
 1287 00ae 5B       		popq	%rbx
 1288              	.LCFI83:
 1289              		.cfi_def_cfa_offset 40
 1290              	.LVL166:
 1291 00af 5D       		popq	%rbp
 1292              	.LCFI84:
 1293              		.cfi_def_cfa_offset 32
 1294              	.LVL167:
 1295 00b0 415C     		popq	%r12
 1296              	.LCFI85:
 1297              		.cfi_def_cfa_offset 24
 1298              	.LVL168:
 1299 00b2 415D     		popq	%r13
 1300              	.LCFI86:
 1301              		.cfi_def_cfa_offset 16
 1302              	.LVL169:
 1303 00b4 415E     		popq	%r14
 1304              	.LCFI87:
 1305              		.cfi_def_cfa_offset 8
 1306              	.LVL170:
 1307 00b6 C3       		ret
 1308              		.cfi_endproc
 1309              	.LFE76:
 1311              		.section	.text.object_execute,"ax",@progbits
 1312              		.globl	object_execute
 1314              	object_execute:
 1315              	.LFB77:
GAS LISTING /tmp/cct9Gss8.s 			page 46


 383:/home/baikal/workspace/C50/Huawei_IoT_Agent_Tiny_SDK_Linux//lwm2m/core/objects.c ****     lwm2m_object_t *targetP;
 1316              		.loc 1 383 0
 1317              		.cfi_startproc
 1318              	.LVL171:
 1319 0000 4155     		pushq	%r13
 1320              	.LCFI88:
 1321              		.cfi_def_cfa_offset 16
 1322              		.cfi_offset 13, -16
 1323 0002 4154     		pushq	%r12
 1324              	.LCFI89:
 1325              		.cfi_def_cfa_offset 24
 1326              		.cfi_offset 12, -24
 1327 0004 55       		pushq	%rbp
 1328              	.LCFI90:
 1329              		.cfi_def_cfa_offset 32
 1330              		.cfi_offset 6, -32
 1331 0005 53       		pushq	%rbx
 1332              	.LCFI91:
 1333              		.cfi_def_cfa_offset 40
 1334              		.cfi_offset 3, -40
 1335 0006 4883EC08 		subq	$8, %rsp
 1336              	.LCFI92:
 1337              		.cfi_def_cfa_offset 48
 1338 000a 4889F5   		movq	%rsi, %rbp
 1339 000d 4989D4   		movq	%rdx, %r12
 1340 0010 4989CD   		movq	%rcx, %r13
 387:/home/baikal/workspace/C50/Huawei_IoT_Agent_Tiny_SDK_Linux//lwm2m/core/objects.c ****     if (NULL == targetP) return COAP_404_NOT_FOUND;
 1341              		.loc 1 387 0
 1342 0013 0FB77602 		movzwl	2(%rsi), %esi
 1343              	.LVL172:
 1344 0017 488B7F38 		movq	56(%rdi), %rdi
 1345              	.LVL173:
 1346 001b E8000000 		call	lwm2m_list_find
 1346      00
 1347              	.LVL174:
 388:/home/baikal/workspace/C50/Huawei_IoT_Agent_Tiny_SDK_Linux//lwm2m/core/objects.c ****     if (NULL == targetP->executeFunc) return COAP_405_METHOD_NOT_ALLOWED;
 1348              		.loc 1 388 0
 1349 0020 4885C0   		testq	%rax, %rax
 1350 0023 7432     		je	.L84
 1351 0025 4889C3   		movq	%rax, %rbx
 389:/home/baikal/workspace/C50/Huawei_IoT_Agent_Tiny_SDK_Linux//lwm2m/core/objects.c ****     if (NULL == lwm2m_list_find(targetP->instanceList, uriP->instanceId)) return COAP_404_NOT_FOUND
 1352              		.loc 1 389 0
 1353 0028 48837828 		cmpq	$0, 40(%rax)
 1353      00
 1354 002d 742F     		je	.L85
 390:/home/baikal/workspace/C50/Huawei_IoT_Agent_Tiny_SDK_Linux//lwm2m/core/objects.c **** 
 1355              		.loc 1 390 0
 1356 002f 0FB77504 		movzwl	4(%rbp), %esi
 1357 0033 488B7810 		movq	16(%rax), %rdi
 1358 0037 E8000000 		call	lwm2m_list_find
 1358      00
 1359              	.LVL175:
 1360 003c 4885C0   		testq	%rax, %rax
 1361 003f 7424     		je	.L86
 392:/home/baikal/workspace/C50/Huawei_IoT_Agent_Tiny_SDK_Linux//lwm2m/core/objects.c **** }
 1362              		.loc 1 392 0
 1363 0041 0FB77506 		movzwl	6(%rbp), %esi
GAS LISTING /tmp/cct9Gss8.s 			page 47


 1364 0045 0FB77D04 		movzwl	4(%rbp), %edi
 1365 0049 4989D8   		movq	%rbx, %r8
 1366 004c 4489E9   		movl	%r13d, %ecx
 1367 004f 4C89E2   		movq	%r12, %rdx
 1368 0052 FF5328   		call	*40(%rbx)
 1369              	.LVL176:
 1370 0055 EB13     		jmp	.L83
 1371              	.LVL177:
 1372              	.L84:
 388:/home/baikal/workspace/C50/Huawei_IoT_Agent_Tiny_SDK_Linux//lwm2m/core/objects.c ****     if (NULL == targetP->executeFunc) return COAP_405_METHOD_NOT_ALLOWED;
 1373              		.loc 1 388 0
 1374 0057 B884FFFF 		movl	$-124, %eax
 1374      FF
 1375              	.LVL178:
 1376 005c EB0C     		jmp	.L83
 1377              	.LVL179:
 1378              	.L85:
 389:/home/baikal/workspace/C50/Huawei_IoT_Agent_Tiny_SDK_Linux//lwm2m/core/objects.c ****     if (NULL == lwm2m_list_find(targetP->instanceList, uriP->instanceId)) return COAP_404_NOT_FOUND
 1379              		.loc 1 389 0
 1380 005e B885FFFF 		movl	$-123, %eax
 1380      FF
 1381              	.LVL180:
 1382 0063 EB05     		jmp	.L83
 1383              	.L86:
 390:/home/baikal/workspace/C50/Huawei_IoT_Agent_Tiny_SDK_Linux//lwm2m/core/objects.c **** 
 1384              		.loc 1 390 0
 1385 0065 B884FFFF 		movl	$-124, %eax
 1385      FF
 1386              	.LVL181:
 1387              	.L83:
 393:/home/baikal/workspace/C50/Huawei_IoT_Agent_Tiny_SDK_Linux//lwm2m/core/objects.c **** 
 1388              		.loc 1 393 0
 1389 006a 4883C408 		addq	$8, %rsp
 1390              	.LCFI93:
 1391              		.cfi_def_cfa_offset 40
 1392 006e 5B       		popq	%rbx
 1393              	.LCFI94:
 1394              		.cfi_def_cfa_offset 32
 1395 006f 5D       		popq	%rbp
 1396              	.LCFI95:
 1397              		.cfi_def_cfa_offset 24
 1398              	.LVL182:
 1399 0070 415C     		popq	%r12
 1400              	.LCFI96:
 1401              		.cfi_def_cfa_offset 16
 1402              	.LVL183:
 1403 0072 415D     		popq	%r13
 1404              	.LCFI97:
 1405              		.cfi_def_cfa_offset 8
 1406              	.LVL184:
 1407 0074 C3       		ret
 1408              		.cfi_endproc
 1409              	.LFE77:
 1411              		.section	.text.object_create,"ax",@progbits
 1412              		.globl	object_create
 1414              	object_create:
 1415              	.LFB78:
GAS LISTING /tmp/cct9Gss8.s 			page 48


 400:/home/baikal/workspace/C50/Huawei_IoT_Agent_Tiny_SDK_Linux//lwm2m/core/objects.c ****     lwm2m_object_t *targetP;
 1416              		.loc 1 400 0
 1417              		.cfi_startproc
 1418              	.LVL185:
 1419 0000 4156     		pushq	%r14
 1420              	.LCFI98:
 1421              		.cfi_def_cfa_offset 16
 1422              		.cfi_offset 14, -16
 1423 0002 4155     		pushq	%r13
 1424              	.LCFI99:
 1425              		.cfi_def_cfa_offset 24
 1426              		.cfi_offset 13, -24
 1427 0004 4154     		pushq	%r12
 1428              	.LCFI100:
 1429              		.cfi_def_cfa_offset 32
 1430              		.cfi_offset 12, -32
 1431 0006 55       		pushq	%rbp
 1432              	.LCFI101:
 1433              		.cfi_def_cfa_offset 40
 1434              		.cfi_offset 6, -40
 1435 0007 53       		pushq	%rbx
 1436              	.LCFI102:
 1437              		.cfi_def_cfa_offset 48
 1438              		.cfi_offset 3, -48
 1439 0008 4883EC10 		subq	$16, %rsp
 1440              	.LCFI103:
 1441              		.cfi_def_cfa_offset 64
 402:/home/baikal/workspace/C50/Huawei_IoT_Agent_Tiny_SDK_Linux//lwm2m/core/objects.c ****     int size = 0;
 1442              		.loc 1 402 0
 1443 000c 48C74424 		movq	$0, 8(%rsp)
 1443      08000000 
 1443      00
 1444              	.LVL186:
 408:/home/baikal/workspace/C50/Huawei_IoT_Agent_Tiny_SDK_Linux//lwm2m/core/objects.c ****     {
 1445              		.loc 1 408 0
 1446 0015 4D85C0   		testq	%r8, %r8
 1447 0018 410F94C1 		sete	%r9b
 1448 001c 4885C9   		testq	%rcx, %rcx
 1449 001f 0F94C0   		sete	%al
 1450 0022 4108C1   		orb	%al, %r9b
 1451 0025 0F85FE00 		jne	.L94
 1451      0000
 1452 002b 4C89C5   		movq	%r8, %rbp
 1453 002e 4889CB   		movq	%rcx, %rbx
 1454 0031 4189D5   		movl	%edx, %r13d
 1455 0034 4989F4   		movq	%rsi, %r12
 413:/home/baikal/workspace/C50/Huawei_IoT_Agent_Tiny_SDK_Linux//lwm2m/core/objects.c ****     if (NULL == targetP) return COAP_404_NOT_FOUND;
 1456              		.loc 1 413 0
 1457 0037 0FB77602 		movzwl	2(%rsi), %esi
 1458              	.LVL187:
 1459 003b 488B7F38 		movq	56(%rdi), %rdi
 1460              	.LVL188:
 1461 003f E8000000 		call	lwm2m_list_find
 1461      00
 1462              	.LVL189:
 1463 0044 4989C6   		movq	%rax, %r14
 1464              	.LVL190:
GAS LISTING /tmp/cct9Gss8.s 			page 49


 414:/home/baikal/workspace/C50/Huawei_IoT_Agent_Tiny_SDK_Linux//lwm2m/core/objects.c ****     if (NULL == targetP->createFunc) return COAP_405_METHOD_NOT_ALLOWED;
 1465              		.loc 1 414 0
 1466 0047 4885C0   		testq	%rax, %rax
 1467 004a 0F84E000 		je	.L95
 1467      0000
 415:/home/baikal/workspace/C50/Huawei_IoT_Agent_Tiny_SDK_Linux//lwm2m/core/objects.c **** 
 1468              		.loc 1 415 0
 1469 0050 48837838 		cmpq	$0, 56(%rax)
 1469      00
 1470 0055 0F84DC00 		je	.L96
 1470      0000
 417:/home/baikal/workspace/C50/Huawei_IoT_Agent_Tiny_SDK_Linux//lwm2m/core/objects.c ****     if (size <= 0) return COAP_400_BAD_REQUEST;
 1471              		.loc 1 417 0
 1472 005b 4C8D4424 		leaq	8(%rsp), %r8
 1472      08
 1473 0060 4489E9   		movl	%r13d, %ecx
 1474 0063 4889EA   		movq	%rbp, %rdx
 1475 0066 4889DE   		movq	%rbx, %rsi
 1476 0069 4C89E7   		movq	%r12, %rdi
 1477 006c E8000000 		call	lwm2m_data_parse
 1477      00
 1478              	.LVL191:
 1479 0071 89C5     		movl	%eax, %ebp
 1480              	.LVL192:
 418:/home/baikal/workspace/C50/Huawei_IoT_Agent_Tiny_SDK_Linux//lwm2m/core/objects.c **** 
 1481              		.loc 1 418 0
 1482 0073 85C0     		testl	%eax, %eax
 1483 0075 0F8EC300 		jle	.L97
 1483      0000
 420:/home/baikal/workspace/C50/Huawei_IoT_Agent_Tiny_SDK_Linux//lwm2m/core/objects.c ****     {
 1484              		.loc 1 420 0
 1485 007b 488B5424 		movq	8(%rsp), %rdx
 1485      08
 1486 0080 8B02     		movl	(%rdx), %eax
 1487              	.LVL193:
 1488 0082 83F801   		cmpl	$1, %eax
 1489 0085 747F     		je	.L98
 1490 0087 83F802   		cmpl	$2, %eax
 1491 008a 7547     		jne	.L101
 427:/home/baikal/workspace/C50/Huawei_IoT_Agent_Tiny_SDK_Linux//lwm2m/core/objects.c ****         {
 1492              		.loc 1 427 0
 1493 008c 83FD01   		cmpl	$1, %ebp
 1494 008f 757C     		jne	.L99
 432:/home/baikal/workspace/C50/Huawei_IoT_Agent_Tiny_SDK_Linux//lwm2m/core/objects.c ****         {
 1495              		.loc 1 432 0
 1496 0091 0FB77204 		movzwl	4(%rdx), %esi
 1497 0095 498B7E10 		movq	16(%r14), %rdi
 1498 0099 E8000000 		call	lwm2m_list_find
 1498      00
 1499              	.LVL194:
 1500 009e 4885C0   		testq	%rax, %rax
 1501 00a1 7571     		jne	.L100
 438:/home/baikal/workspace/C50/Huawei_IoT_Agent_Tiny_SDK_Linux//lwm2m/core/objects.c ****         uriP->instanceId = dataP[0].id;
 1502              		.loc 1 438 0
 1503 00a3 488B4424 		movq	8(%rsp), %rax
 1503      08
 1504 00a8 488B5010 		movq	16(%rax), %rdx
GAS LISTING /tmp/cct9Gss8.s 			page 50


 1505 00ac 488B7008 		movq	8(%rax), %rsi
 1506 00b0 0FB77804 		movzwl	4(%rax), %edi
 1507 00b4 4C89F1   		movq	%r14, %rcx
 1508 00b7 41FF5638 		call	*56(%r14)
 1509              	.LVL195:
 1510 00bb 89C3     		movl	%eax, %ebx
 1511              	.LVL196:
 439:/home/baikal/workspace/C50/Huawei_IoT_Agent_Tiny_SDK_Linux//lwm2m/core/objects.c ****         uriP->flag |= LWM2M_URI_FLAG_INSTANCE_ID;
 1512              		.loc 1 439 0
 1513 00bd 488B4424 		movq	8(%rsp), %rax
 1513      08
 1514              	.LVL197:
 1515 00c2 0FB74004 		movzwl	4(%rax), %eax
 1516 00c6 66418944 		movw	%ax, 4(%r12)
 1516      2404
 440:/home/baikal/workspace/C50/Huawei_IoT_Agent_Tiny_SDK_Linux//lwm2m/core/objects.c ****         break;
 1517              		.loc 1 440 0
 1518 00cc 41800C24 		orb	$2, (%r12)
 1518      02
 441:/home/baikal/workspace/C50/Huawei_IoT_Agent_Tiny_SDK_Linux//lwm2m/core/objects.c **** 
 1519              		.loc 1 441 0
 1520 00d1 EB46     		jmp	.L91
 1521              	.LVL198:
 1522              	.L101:
 444:/home/baikal/workspace/C50/Huawei_IoT_Agent_Tiny_SDK_Linux//lwm2m/core/objects.c ****         {
 1523              		.loc 1 444 0
 1524 00d3 41F60424 		testb	$2, (%r12)
 1524      02
 1525 00d8 7514     		jne	.L93
 446:/home/baikal/workspace/C50/Huawei_IoT_Agent_Tiny_SDK_Linux//lwm2m/core/objects.c ****             uriP->flag |= LWM2M_URI_FLAG_INSTANCE_ID;
 1526              		.loc 1 446 0
 1527 00da 498B7E10 		movq	16(%r14), %rdi
 1528 00de E8000000 		call	lwm2m_list_newId
 1528      00
 1529              	.LVL199:
 1530 00e3 66418944 		movw	%ax, 4(%r12)
 1530      2404
 447:/home/baikal/workspace/C50/Huawei_IoT_Agent_Tiny_SDK_Linux//lwm2m/core/objects.c ****         }
 1531              		.loc 1 447 0
 1532 00e9 41800C24 		orb	$2, (%r12)
 1532      02
 1533              	.L93:
 449:/home/baikal/workspace/C50/Huawei_IoT_Agent_Tiny_SDK_Linux//lwm2m/core/objects.c ****         break;
 1534              		.loc 1 449 0
 1535 00ee 410FB77C 		movzwl	4(%r12), %edi
 1535      2404
 1536 00f4 4C89F1   		movq	%r14, %rcx
 1537 00f7 488B5424 		movq	8(%rsp), %rdx
 1537      08
 1538 00fc 89EE     		movl	%ebp, %esi
 1539 00fe 41FF5638 		call	*56(%r14)
 1540              	.LVL200:
 1541 0102 89C3     		movl	%eax, %ebx
 1542              	.LVL201:
 450:/home/baikal/workspace/C50/Huawei_IoT_Agent_Tiny_SDK_Linux//lwm2m/core/objects.c ****     }
 1543              		.loc 1 450 0
 1544 0104 EB13     		jmp	.L91
GAS LISTING /tmp/cct9Gss8.s 			page 51


 1545              	.LVL202:
 1546              	.L98:
 423:/home/baikal/workspace/C50/Huawei_IoT_Agent_Tiny_SDK_Linux//lwm2m/core/objects.c ****         goto exit;
 1547              		.loc 1 423 0
 1548 0106 BB80FFFF 		movl	$-128, %ebx
 1548      FF
 1549              	.LVL203:
 1550 010b EB0C     		jmp	.L91
 1551              	.LVL204:
 1552              	.L99:
 429:/home/baikal/workspace/C50/Huawei_IoT_Agent_Tiny_SDK_Linux//lwm2m/core/objects.c ****             goto exit;
 1553              		.loc 1 429 0
 1554 010d BB80FFFF 		movl	$-128, %ebx
 1554      FF
 1555              	.LVL205:
 1556 0112 EB05     		jmp	.L91
 1557              	.LVL206:
 1558              	.L100:
 435:/home/baikal/workspace/C50/Huawei_IoT_Agent_Tiny_SDK_Linux//lwm2m/core/objects.c ****             goto exit;
 1559              		.loc 1 435 0
 1560 0114 BB86FFFF 		movl	$-122, %ebx
 1560      FF
 1561              	.LVL207:
 1562              	.L91:
 454:/home/baikal/workspace/C50/Huawei_IoT_Agent_Tiny_SDK_Linux//lwm2m/core/objects.c **** 
 1563              		.loc 1 454 0
 1564 0119 488B7424 		movq	8(%rsp), %rsi
 1564      08
 1565 011e 89EF     		movl	%ebp, %edi
 1566 0120 E8000000 		call	lwm2m_data_free
 1566      00
 1567              	.LVL208:
 458:/home/baikal/workspace/C50/Huawei_IoT_Agent_Tiny_SDK_Linux//lwm2m/core/objects.c **** }
 1568              		.loc 1 458 0
 1569 0125 89D8     		movl	%ebx, %eax
 1570 0127 EB1A     		jmp	.L89
 1571              	.LVL209:
 1572              	.L94:
 410:/home/baikal/workspace/C50/Huawei_IoT_Agent_Tiny_SDK_Linux//lwm2m/core/objects.c ****     }
 1573              		.loc 1 410 0
 1574 0129 B880FFFF 		movl	$-128, %eax
 1574      FF
 1575 012e EB13     		jmp	.L89
 1576              	.LVL210:
 1577              	.L95:
 414:/home/baikal/workspace/C50/Huawei_IoT_Agent_Tiny_SDK_Linux//lwm2m/core/objects.c ****     if (NULL == targetP->createFunc) return COAP_405_METHOD_NOT_ALLOWED;
 1578              		.loc 1 414 0
 1579 0130 B884FFFF 		movl	$-124, %eax
 1579      FF
 1580              	.LVL211:
 1581 0135 EB0C     		jmp	.L89
 1582              	.LVL212:
 1583              	.L96:
 415:/home/baikal/workspace/C50/Huawei_IoT_Agent_Tiny_SDK_Linux//lwm2m/core/objects.c **** 
 1584              		.loc 1 415 0
 1585 0137 B885FFFF 		movl	$-123, %eax
 1585      FF
GAS LISTING /tmp/cct9Gss8.s 			page 52


 1586              	.LVL213:
 1587 013c EB05     		jmp	.L89
 1588              	.LVL214:
 1589              	.L97:
 418:/home/baikal/workspace/C50/Huawei_IoT_Agent_Tiny_SDK_Linux//lwm2m/core/objects.c **** 
 1590              		.loc 1 418 0
 1591 013e B880FFFF 		movl	$-128, %eax
 1591      FF
 1592              	.LVL215:
 1593              	.L89:
 459:/home/baikal/workspace/C50/Huawei_IoT_Agent_Tiny_SDK_Linux//lwm2m/core/objects.c **** 
 1594              		.loc 1 459 0
 1595 0143 4883C410 		addq	$16, %rsp
 1596              	.LCFI104:
 1597              		.cfi_def_cfa_offset 48
 1598 0147 5B       		popq	%rbx
 1599              	.LCFI105:
 1600              		.cfi_def_cfa_offset 40
 1601 0148 5D       		popq	%rbp
 1602              	.LCFI106:
 1603              		.cfi_def_cfa_offset 32
 1604 0149 415C     		popq	%r12
 1605              	.LCFI107:
 1606              		.cfi_def_cfa_offset 24
 1607 014b 415D     		popq	%r13
 1608              	.LCFI108:
 1609              		.cfi_def_cfa_offset 16
 1610 014d 415E     		popq	%r14
 1611              	.LCFI109:
 1612              		.cfi_def_cfa_offset 8
 1613 014f C3       		ret
 1614              		.cfi_endproc
 1615              	.LFE78:
 1617              		.section	.text.object_delete,"ax",@progbits
 1618              		.globl	object_delete
 1620              	object_delete:
 1621              	.LFB79:
 463:/home/baikal/workspace/C50/Huawei_IoT_Agent_Tiny_SDK_Linux//lwm2m/core/objects.c ****     lwm2m_object_t *objectP;
 1622              		.loc 1 463 0
 1623              		.cfi_startproc
 1624              	.LVL216:
 1625 0000 4155     		pushq	%r13
 1626              	.LCFI110:
 1627              		.cfi_def_cfa_offset 16
 1628              		.cfi_offset 13, -16
 1629 0002 4154     		pushq	%r12
 1630              	.LCFI111:
 1631              		.cfi_def_cfa_offset 24
 1632              		.cfi_offset 12, -24
 1633 0004 55       		pushq	%rbp
 1634              	.LCFI112:
 1635              		.cfi_def_cfa_offset 32
 1636              		.cfi_offset 6, -32
 1637 0005 53       		pushq	%rbx
 1638              	.LCFI113:
 1639              		.cfi_def_cfa_offset 40
 1640              		.cfi_offset 3, -40
GAS LISTING /tmp/cct9Gss8.s 			page 53


 1641 0006 4883EC08 		subq	$8, %rsp
 1642              	.LCFI114:
 1643              		.cfi_def_cfa_offset 48
 1644 000a 4989FD   		movq	%rdi, %r13
 1645 000d 4989F4   		movq	%rsi, %r12
 468:/home/baikal/workspace/C50/Huawei_IoT_Agent_Tiny_SDK_Linux//lwm2m/core/objects.c ****     if (NULL == objectP) return COAP_404_NOT_FOUND;
 1646              		.loc 1 468 0
 1647 0010 0FB77602 		movzwl	2(%rsi), %esi
 1648              	.LVL217:
 1649 0014 488B7F38 		movq	56(%rdi), %rdi
 1650              	.LVL218:
 1651 0018 E8000000 		call	lwm2m_list_find
 1651      00
 1652              	.LVL219:
 469:/home/baikal/workspace/C50/Huawei_IoT_Agent_Tiny_SDK_Linux//lwm2m/core/objects.c ****     if (NULL == objectP->deleteFunc) return COAP_405_METHOD_NOT_ALLOWED;
 1653              		.loc 1 469 0
 1654 001d 4885C0   		testq	%rax, %rax
 1655 0020 0F848900 		je	.L109
 1655      0000
 1656 0026 4889C5   		movq	%rax, %rbp
 470:/home/baikal/workspace/C50/Huawei_IoT_Agent_Tiny_SDK_Linux//lwm2m/core/objects.c **** 
 1657              		.loc 1 470 0
 1658 0029 488B4040 		movq	64(%rax), %rax
 1659              	.LVL220:
 1660 002d 4885C0   		testq	%rax, %rax
 1661 0030 0F848000 		je	.L110
 1661      0000
 474:/home/baikal/workspace/C50/Huawei_IoT_Agent_Tiny_SDK_Linux//lwm2m/core/objects.c ****     {
 1662              		.loc 1 474 0
 1663 0036 41F60424 		testb	$2, (%r12)
 1663      02
 1664 003b 7420     		je	.L105
 476:/home/baikal/workspace/C50/Huawei_IoT_Agent_Tiny_SDK_Linux//lwm2m/core/objects.c ****         if (result == COAP_202_DELETED)
 1665              		.loc 1 476 0
 1666 003d 410FB77C 		movzwl	4(%r12), %edi
 1666      2404
 1667 0043 4889EE   		movq	%rbp, %rsi
 1668 0046 FFD0     		call	*%rax
 1669              	.LVL221:
 1670 0048 89C3     		movl	%eax, %ebx
 1671              	.LVL222:
 477:/home/baikal/workspace/C50/Huawei_IoT_Agent_Tiny_SDK_Linux//lwm2m/core/objects.c ****         {
 1672              		.loc 1 477 0
 1673 004a 3C42     		cmpb	$66, %al
 1674 004c 756F     		jne	.L111
 479:/home/baikal/workspace/C50/Huawei_IoT_Agent_Tiny_SDK_Linux//lwm2m/core/objects.c ****         }
 1675              		.loc 1 479 0
 1676 004e 4C89E6   		movq	%r12, %rsi
 1677 0051 4C89EF   		movq	%r13, %rdi
 1678 0054 E8000000 		call	observe_clear
 1678      00
 1679              	.LVL223:
 476:/home/baikal/workspace/C50/Huawei_IoT_Agent_Tiny_SDK_Linux//lwm2m/core/objects.c ****         if (result == COAP_202_DELETED)
 1680              		.loc 1 476 0
 1681 0059 89D8     		movl	%ebx, %eax
 1682 005b EB60     		jmp	.L104
 1683              	.LVL224:
GAS LISTING /tmp/cct9Gss8.s 			page 54


 1684              	.L105:
 1685              	.LBB17:
 487:/home/baikal/workspace/C50/Huawei_IoT_Agent_Tiny_SDK_Linux//lwm2m/core/objects.c ****         while (NULL != instanceP
 1686              		.loc 1 487 0
 1687 005d 488B5510 		movq	16(%rbp), %rdx
 1688              	.LVL225:
 486:/home/baikal/workspace/C50/Huawei_IoT_Agent_Tiny_SDK_Linux//lwm2m/core/objects.c ****         instanceP = objectP->instanceList;
 1689              		.loc 1 486 0
 1690 0061 BB420000 		movl	$66, %ebx
 1690      00
 488:/home/baikal/workspace/C50/Huawei_IoT_Agent_Tiny_SDK_Linux//lwm2m/core/objects.c ****                 && result == COAP_202_DELETED)
 1691              		.loc 1 488 0
 1692 0066 EB33     		jmp	.L106
 1693              	.LVL226:
 1694              	.L108:
 491:/home/baikal/workspace/C50/Huawei_IoT_Agent_Tiny_SDK_Linux//lwm2m/core/objects.c ****             result = objectP->deleteFunc(instanceP->id, objectP);
 1695              		.loc 1 491 0
 1696 0068 0FB74208 		movzwl	8(%rdx), %eax
 1697 006c 66418944 		movw	%ax, 4(%r12)
 1697      2404
 492:/home/baikal/workspace/C50/Huawei_IoT_Agent_Tiny_SDK_Linux//lwm2m/core/objects.c ****             if (result == COAP_202_DELETED)
 1698              		.loc 1 492 0
 1699 0072 0FB77A08 		movzwl	8(%rdx), %edi
 1700 0076 4889EE   		movq	%rbp, %rsi
 1701 0079 FF5540   		call	*64(%rbp)
 1702              	.LVL227:
 1703 007c 89C3     		movl	%eax, %ebx
 1704              	.LVL228:
 493:/home/baikal/workspace/C50/Huawei_IoT_Agent_Tiny_SDK_Linux//lwm2m/core/objects.c ****             {
 1705              		.loc 1 493 0
 1706 007e 3C42     		cmpb	$66, %al
 1707 0080 7515     		jne	.L107
 495:/home/baikal/workspace/C50/Huawei_IoT_Agent_Tiny_SDK_Linux//lwm2m/core/objects.c ****                 observe_clear(contextP, uriP);
 1708              		.loc 1 495 0
 1709 0082 41800C24 		orb	$2, (%r12)
 1709      02
 496:/home/baikal/workspace/C50/Huawei_IoT_Agent_Tiny_SDK_Linux//lwm2m/core/objects.c ****                 uriP->flag &= ~LWM2M_URI_FLAG_INSTANCE_ID;
 1710              		.loc 1 496 0
 1711 0087 4C89E6   		movq	%r12, %rsi
 1712 008a 4C89EF   		movq	%r13, %rdi
 1713 008d E8000000 		call	observe_clear
 1713      00
 1714              	.LVL229:
 497:/home/baikal/workspace/C50/Huawei_IoT_Agent_Tiny_SDK_Linux//lwm2m/core/objects.c ****             }
 1715              		.loc 1 497 0
 1716 0092 41802424 		andb	$-3, (%r12)
 1716      FD
 1717              	.L107:
 499:/home/baikal/workspace/C50/Huawei_IoT_Agent_Tiny_SDK_Linux//lwm2m/core/objects.c ****         }
 1718              		.loc 1 499 0
 1719 0097 488B5510 		movq	16(%rbp), %rdx
 1720              	.LVL230:
 1721              	.L106:
 488:/home/baikal/workspace/C50/Huawei_IoT_Agent_Tiny_SDK_Linux//lwm2m/core/objects.c ****                 && result == COAP_202_DELETED)
 1722              		.loc 1 488 0
 1723 009b 4885D2   		testq	%rdx, %rdx
 1724 009e 0F95C1   		setne	%cl
GAS LISTING /tmp/cct9Gss8.s 			page 55


 489:/home/baikal/workspace/C50/Huawei_IoT_Agent_Tiny_SDK_Linux//lwm2m/core/objects.c ****         {
 1725              		.loc 1 489 0
 1726 00a1 80FB42   		cmpb	$66, %bl
 1727 00a4 0F94C0   		sete	%al
 488:/home/baikal/workspace/C50/Huawei_IoT_Agent_Tiny_SDK_Linux//lwm2m/core/objects.c ****                 && result == COAP_202_DELETED)
 1728              		.loc 1 488 0
 1729 00a7 84C1     		testb	%al, %cl
 1730 00a9 75BD     		jne	.L108
 1731 00ab 89D8     		movl	%ebx, %eax
 1732 00ad EB0E     		jmp	.L104
 1733              	.LVL231:
 1734              	.L109:
 1735              	.LBE17:
 469:/home/baikal/workspace/C50/Huawei_IoT_Agent_Tiny_SDK_Linux//lwm2m/core/objects.c ****     if (NULL == objectP->deleteFunc) return COAP_405_METHOD_NOT_ALLOWED;
 1736              		.loc 1 469 0
 1737 00af B884FFFF 		movl	$-124, %eax
 1737      FF
 1738              	.LVL232:
 1739 00b4 EB07     		jmp	.L104
 1740              	.LVL233:
 1741              	.L110:
 470:/home/baikal/workspace/C50/Huawei_IoT_Agent_Tiny_SDK_Linux//lwm2m/core/objects.c **** 
 1742              		.loc 1 470 0
 1743 00b6 B885FFFF 		movl	$-123, %eax
 1743      FF
 1744 00bb EB00     		jmp	.L104
 1745              	.LVL234:
 1746              	.L111:
 1747              	.L104:
 506:/home/baikal/workspace/C50/Huawei_IoT_Agent_Tiny_SDK_Linux//lwm2m/core/objects.c **** 
 1748              		.loc 1 506 0
 1749 00bd 4883C408 		addq	$8, %rsp
 1750              	.LCFI115:
 1751              		.cfi_def_cfa_offset 40
 1752 00c1 5B       		popq	%rbx
 1753              	.LCFI116:
 1754              		.cfi_def_cfa_offset 32
 1755 00c2 5D       		popq	%rbp
 1756              	.LCFI117:
 1757              		.cfi_def_cfa_offset 24
 1758 00c3 415C     		popq	%r12
 1759              	.LCFI118:
 1760              		.cfi_def_cfa_offset 16
 1761              	.LVL235:
 1762 00c5 415D     		popq	%r13
 1763              	.LCFI119:
 1764              		.cfi_def_cfa_offset 8
 1765              	.LVL236:
 1766 00c7 C3       		ret
 1767              		.cfi_endproc
 1768              	.LFE79:
 1770              		.section	.text.object_discover,"ax",@progbits
 1771              		.globl	object_discover
 1773              	object_discover:
 1774              	.LFB80:
 513:/home/baikal/workspace/C50/Huawei_IoT_Agent_Tiny_SDK_Linux//lwm2m/core/objects.c ****     uint8_t result;
 1775              		.loc 1 513 0
GAS LISTING /tmp/cct9Gss8.s 			page 56


 1776              		.cfi_startproc
 1777              	.LVL237:
 1778 0000 4157     		pushq	%r15
 1779              	.LCFI120:
 1780              		.cfi_def_cfa_offset 16
 1781              		.cfi_offset 15, -16
 1782 0002 4156     		pushq	%r14
 1783              	.LCFI121:
 1784              		.cfi_def_cfa_offset 24
 1785              		.cfi_offset 14, -24
 1786 0004 4155     		pushq	%r13
 1787              	.LCFI122:
 1788              		.cfi_def_cfa_offset 32
 1789              		.cfi_offset 13, -32
 1790 0006 4154     		pushq	%r12
 1791              	.LCFI123:
 1792              		.cfi_def_cfa_offset 40
 1793              		.cfi_offset 12, -40
 1794 0008 55       		pushq	%rbp
 1795              	.LCFI124:
 1796              		.cfi_def_cfa_offset 48
 1797              		.cfi_offset 6, -48
 1798 0009 53       		pushq	%rbx
 1799              	.LCFI125:
 1800              		.cfi_def_cfa_offset 56
 1801              		.cfi_offset 3, -56
 1802 000a 4883EC38 		subq	$56, %rsp
 1803              	.LCFI126:
 1804              		.cfi_def_cfa_offset 112
 1805 000e 4989FF   		movq	%rdi, %r15
 1806 0011 4989F5   		movq	%rsi, %r13
 1807 0014 48895424 		movq	%rdx, 8(%rsp)
 1807      08
 1808 0019 48894C24 		movq	%rcx, 16(%rsp)
 1808      10
 1809 001e 4C894424 		movq	%r8, 24(%rsp)
 1809      18
 516:/home/baikal/workspace/C50/Huawei_IoT_Agent_Tiny_SDK_Linux//lwm2m/core/objects.c ****     int size = 0;
 1810              		.loc 1 516 0
 1811 0023 48C74424 		movq	$0, 40(%rsp)
 1811      28000000 
 1811      00
 517:/home/baikal/workspace/C50/Huawei_IoT_Agent_Tiny_SDK_Linux//lwm2m/core/objects.c **** 
 1812              		.loc 1 517 0
 1813 002c C7442424 		movl	$0, 36(%rsp)
 1813      00000000 
 520:/home/baikal/workspace/C50/Huawei_IoT_Agent_Tiny_SDK_Linux//lwm2m/core/objects.c ****     if (NULL == targetP) return COAP_404_NOT_FOUND;
 1814              		.loc 1 520 0
 1815 0034 0FB77602 		movzwl	2(%rsi), %esi
 1816              	.LVL238:
 1817 0038 488B7F38 		movq	56(%rdi), %rdi
 1818              	.LVL239:
 1819 003c E8000000 		call	lwm2m_list_find
 1819      00
 1820              	.LVL240:
 521:/home/baikal/workspace/C50/Huawei_IoT_Agent_Tiny_SDK_Linux//lwm2m/core/objects.c ****     if (NULL == targetP->discoverFunc) return COAP_501_NOT_IMPLEMENTED;
 1821              		.loc 1 521 0
GAS LISTING /tmp/cct9Gss8.s 			page 57


 1822 0041 4885C0   		testq	%rax, %rax
 1823 0044 0F848101 		je	.L123
 1823      0000
 1824 004a 4889C5   		movq	%rax, %rbp
 522:/home/baikal/workspace/C50/Huawei_IoT_Agent_Tiny_SDK_Linux//lwm2m/core/objects.c **** 
 1825              		.loc 1 522 0
 1826 004d 48837848 		cmpq	$0, 72(%rax)
 1826      00
 1827 0052 0F847A01 		je	.L124
 1827      0000
 524:/home/baikal/workspace/C50/Huawei_IoT_Agent_Tiny_SDK_Linux//lwm2m/core/objects.c ****     {
 1828              		.loc 1 524 0
 1829 0058 41F64500 		testb	$2, 0(%r13)
 1829      02
 1830 005d 7465     		je	.L115
 526:/home/baikal/workspace/C50/Huawei_IoT_Agent_Tiny_SDK_Linux//lwm2m/core/objects.c **** 
 1831              		.loc 1 526 0
 1832 005f 410FB775 		movzwl	4(%r13), %esi
 1832      04
 1833 0064 488B7810 		movq	16(%rax), %rdi
 1834 0068 E8000000 		call	lwm2m_list_find
 1834      00
 1835              	.LVL241:
 1836 006d 4885C0   		testq	%rax, %rax
 1837 0070 0F846301 		je	.L125
 1837      0000
 529:/home/baikal/workspace/C50/Huawei_IoT_Agent_Tiny_SDK_Linux//lwm2m/core/objects.c ****         {
 1838              		.loc 1 529 0
 1839 0076 41F64500 		testb	$1, 0(%r13)
 1839      01
 1840 007b 7429     		je	.L116
 531:/home/baikal/workspace/C50/Huawei_IoT_Agent_Tiny_SDK_Linux//lwm2m/core/objects.c ****             dataP = lwm2m_data_new(size);
 1841              		.loc 1 531 0
 1842 007d C7442424 		movl	$1, 36(%rsp)
 1842      01000000 
 532:/home/baikal/workspace/C50/Huawei_IoT_Agent_Tiny_SDK_Linux//lwm2m/core/objects.c ****             if (dataP == NULL) return COAP_500_INTERNAL_SERVER_ERROR;
 1843              		.loc 1 532 0
 1844 0085 BF010000 		movl	$1, %edi
 1844      00
 1845 008a E8000000 		call	lwm2m_data_new
 1845      00
 1846              	.LVL242:
 1847 008f 48894424 		movq	%rax, 40(%rsp)
 1847      28
 533:/home/baikal/workspace/C50/Huawei_IoT_Agent_Tiny_SDK_Linux//lwm2m/core/objects.c **** 
 1848              		.loc 1 533 0
 1849 0094 4885C0   		testq	%rax, %rax
 1850 0097 0F844301 		je	.L126
 1850      0000
 535:/home/baikal/workspace/C50/Huawei_IoT_Agent_Tiny_SDK_Linux//lwm2m/core/objects.c ****         }
 1851              		.loc 1 535 0
 1852 009d 410FB755 		movzwl	6(%r13), %edx
 1852      06
 1853 00a2 66895004 		movw	%dx, 4(%rax)
 1854              	.L116:
 538:/home/baikal/workspace/C50/Huawei_IoT_Agent_Tiny_SDK_Linux//lwm2m/core/objects.c ****     }
 1855              		.loc 1 538 0
GAS LISTING /tmp/cct9Gss8.s 			page 58


 1856 00a6 410FB77D 		movzwl	4(%r13), %edi
 1856      04
 1857 00ab 4889E9   		movq	%rbp, %rcx
 1858 00ae 488D5424 		leaq	40(%rsp), %rdx
 1858      28
 1859 00b3 488D7424 		leaq	36(%rsp), %rsi
 1859      24
 1860 00b8 FF5548   		call	*72(%rbp)
 1861              	.LVL243:
 1862 00bb 88442407 		movb	%al, 7(%rsp)
 1863              	.LVL244:
 1864 00bf E9B80000 		jmp	.L117
 1864      00
 1865              	.LVL245:
 1866              	.L115:
 1867              	.LBB18:
 548:/home/baikal/workspace/C50/Huawei_IoT_Agent_Tiny_SDK_Linux//lwm2m/core/objects.c ****         for (instanceP = targetP->instanceList; instanceP != NULL ; instanceP = instanceP->next)
 1868              		.loc 1 548 0
 1869 00c4 C7442424 		movl	$0, 36(%rsp)
 1869      00000000 
 549:/home/baikal/workspace/C50/Huawei_IoT_Agent_Tiny_SDK_Linux//lwm2m/core/objects.c ****         {
 1870              		.loc 1 549 0
 1871 00cc 488B4010 		movq	16(%rax), %rax
 1872              	.LVL246:
 1873 00d0 EB08     		jmp	.L118
 1874              	.L119:
 551:/home/baikal/workspace/C50/Huawei_IoT_Agent_Tiny_SDK_Linux//lwm2m/core/objects.c ****         }
 1875              		.loc 1 551 0 discriminator 3
 1876 00d2 83442424 		addl	$1, 36(%rsp)
 1876      01
 549:/home/baikal/workspace/C50/Huawei_IoT_Agent_Tiny_SDK_Linux//lwm2m/core/objects.c ****         {
 1877              		.loc 1 549 0 discriminator 3
 1878 00d7 488B00   		movq	(%rax), %rax
 1879              	.LVL247:
 1880              	.L118:
 549:/home/baikal/workspace/C50/Huawei_IoT_Agent_Tiny_SDK_Linux//lwm2m/core/objects.c ****         {
 1881              		.loc 1 549 0 is_stmt 0 discriminator 1
 1882 00da 4885C0   		testq	%rax, %rax
 1883 00dd 75F3     		jne	.L119
 554:/home/baikal/workspace/C50/Huawei_IoT_Agent_Tiny_SDK_Linux//lwm2m/core/objects.c ****         {
 1884              		.loc 1 554 0 is_stmt 1
 1885 00df 8B7C2424 		movl	36(%rsp), %edi
 1886 00e3 85FF     		testl	%edi, %edi
 1887 00e5 0F848C00 		je	.L127
 1887      0000
 556:/home/baikal/workspace/C50/Huawei_IoT_Agent_Tiny_SDK_Linux//lwm2m/core/objects.c ****             if (dataP == NULL) return COAP_500_INTERNAL_SERVER_ERROR;
 1888              		.loc 1 556 0
 1889 00eb E8000000 		call	lwm2m_data_new
 1889      00
 1890              	.LVL248:
 1891 00f0 48894424 		movq	%rax, 40(%rsp)
 1891      28
 557:/home/baikal/workspace/C50/Huawei_IoT_Agent_Tiny_SDK_Linux//lwm2m/core/objects.c **** 
 1892              		.loc 1 557 0
 1893 00f5 4885C0   		testq	%rax, %rax
 1894 00f8 0F84E900 		je	.L128
 1894      0000
GAS LISTING /tmp/cct9Gss8.s 			page 59


 559:/home/baikal/workspace/C50/Huawei_IoT_Agent_Tiny_SDK_Linux//lwm2m/core/objects.c ****             i = 0;
 1895              		.loc 1 559 0
 1896 00fe 4C8B6510 		movq	16(%rbp), %r12
 1897              	.LVL249:
 560:/home/baikal/workspace/C50/Huawei_IoT_Agent_Tiny_SDK_Linux//lwm2m/core/objects.c ****             while (instanceP != NULL && result == COAP_205_CONTENT)
 1898              		.loc 1 560 0
 1899 0102 41BE0000 		movl	$0, %r14d
 1899      0000
 546:/home/baikal/workspace/C50/Huawei_IoT_Agent_Tiny_SDK_Linux//lwm2m/core/objects.c **** 
 1900              		.loc 1 546 0
 1901 0108 C6442407 		movb	$69, 7(%rsp)
 1901      45
 561:/home/baikal/workspace/C50/Huawei_IoT_Agent_Tiny_SDK_Linux//lwm2m/core/objects.c ****             {
 1902              		.loc 1 561 0
 1903 010d EB54     		jmp	.L120
 1904              	.LVL250:
 1905              	.L121:
 563:/home/baikal/workspace/C50/Huawei_IoT_Agent_Tiny_SDK_Linux//lwm2m/core/objects.c ****                 dataP[i].type = LWM2M_TYPE_OBJECT_INSTANCE;
 1906              		.loc 1 563 0
 1907 010f 4963C6   		movslq	%r14d, %rax
 1908 0112 488D0440 		leaq	(%rax,%rax,2), %rax
 1909 0116 488D1CC5 		leaq	0(,%rax,8), %rbx
 1909      00000000 
 1910 011e 4889DE   		movq	%rbx, %rsi
 1911 0121 48037424 		addq	40(%rsp), %rsi
 1911      28
 1912 0126 488D5610 		leaq	16(%rsi), %rdx
 1913 012a 4883C608 		addq	$8, %rsi
 1914 012e 410FB77C 		movzwl	8(%r12), %edi
 1914      2408
 1915 0134 4889E9   		movq	%rbp, %rcx
 1916 0137 FF5548   		call	*72(%rbp)
 1917              	.LVL251:
 1918 013a 88442407 		movb	%al, 7(%rsp)
 1919              	.LVL252:
 564:/home/baikal/workspace/C50/Huawei_IoT_Agent_Tiny_SDK_Linux//lwm2m/core/objects.c ****                 dataP[i].id = instanceP->id;
 1920              		.loc 1 564 0
 1921 013e 4889D8   		movq	%rbx, %rax
 1922              	.LVL253:
 1923 0141 48034424 		addq	40(%rsp), %rax
 1923      28
 1924 0146 C7000200 		movl	$2, (%rax)
 1924      0000
 565:/home/baikal/workspace/C50/Huawei_IoT_Agent_Tiny_SDK_Linux//lwm2m/core/objects.c ****                 i++;
 1925              		.loc 1 565 0
 1926 014c 48035C24 		addq	40(%rsp), %rbx
 1926      28
 1927 0151 410FB744 		movzwl	8(%r12), %eax
 1927      2408
 1928 0157 66894304 		movw	%ax, 4(%rbx)
 566:/home/baikal/workspace/C50/Huawei_IoT_Agent_Tiny_SDK_Linux//lwm2m/core/objects.c ****                 instanceP = instanceP->next;
 1929              		.loc 1 566 0
 1930 015b 4183C601 		addl	$1, %r14d
 1931              	.LVL254:
 567:/home/baikal/workspace/C50/Huawei_IoT_Agent_Tiny_SDK_Linux//lwm2m/core/objects.c ****             }
 1932              		.loc 1 567 0
 1933 015f 4D8B2424 		movq	(%r12), %r12
GAS LISTING /tmp/cct9Gss8.s 			page 60


 1934              	.LVL255:
 1935              	.L120:
 561:/home/baikal/workspace/C50/Huawei_IoT_Agent_Tiny_SDK_Linux//lwm2m/core/objects.c ****             {
 1936              		.loc 1 561 0
 1937 0163 4D85E4   		testq	%r12, %r12
 1938 0166 0F95C2   		setne	%dl
 1939 0169 807C2407 		cmpb	$69, 7(%rsp)
 1939      45
 1940 016e 0F94C0   		sete	%al
 1941 0171 84C2     		testb	%al, %dl
 1942 0173 759A     		jne	.L121
 1943 0175 EB05     		jmp	.L117
 1944              	.LVL256:
 1945              	.L127:
 546:/home/baikal/workspace/C50/Huawei_IoT_Agent_Tiny_SDK_Linux//lwm2m/core/objects.c **** 
 1946              		.loc 1 546 0
 1947 0177 C6442407 		movb	$69, 7(%rsp)
 1947      45
 1948              	.LVL257:
 1949              	.L117:
 1950              	.LBE18:
 572:/home/baikal/workspace/C50/Huawei_IoT_Agent_Tiny_SDK_Linux//lwm2m/core/objects.c ****     {
 1951              		.loc 1 572 0
 1952 017c 807C2407 		cmpb	$69, 7(%rsp)
 1952      45
 1953 0181 7533     		jne	.L122
 1954              	.LBB19:
 576:/home/baikal/workspace/C50/Huawei_IoT_Agent_Tiny_SDK_Linux//lwm2m/core/objects.c ****         if (len <= 0) result = COAP_500_INTERNAL_SERVER_ERROR;
 1955              		.loc 1 576 0
 1956 0183 4C8B4C24 		movq	16(%rsp), %r9
 1956      10
 1957 0188 4C8B4424 		movq	40(%rsp), %r8
 1957      28
 1958 018d 8B4C2424 		movl	36(%rsp), %ecx
 1959 0191 488B5424 		movq	8(%rsp), %rdx
 1959      08
 1960 0196 4C89EE   		movq	%r13, %rsi
 1961 0199 4C89FF   		movq	%r15, %rdi
 1962 019c E8000000 		call	discover_serialize
 1962      00
 1963              	.LVL258:
 577:/home/baikal/workspace/C50/Huawei_IoT_Agent_Tiny_SDK_Linux//lwm2m/core/objects.c ****         else *lengthP = len;
 1964              		.loc 1 577 0
 1965 01a1 85C0     		testl	%eax, %eax
 1966 01a3 7E0C     		jle	.L129
 578:/home/baikal/workspace/C50/Huawei_IoT_Agent_Tiny_SDK_Linux//lwm2m/core/objects.c ****     }
 1967              		.loc 1 578 0
 1968 01a5 4898     		cltq
 1969 01a7 488B4C24 		movq	24(%rsp), %rcx
 1969      18
 1970 01ac 488901   		movq	%rax, (%rcx)
 1971 01af EB05     		jmp	.L122
 1972              	.L129:
 577:/home/baikal/workspace/C50/Huawei_IoT_Agent_Tiny_SDK_Linux//lwm2m/core/objects.c ****         else *lengthP = len;
 1973              		.loc 1 577 0
 1974 01b1 C6442407 		movb	$-96, 7(%rsp)
 1974      A0
GAS LISTING /tmp/cct9Gss8.s 			page 61


 1975              	.LVL259:
 1976              	.L122:
 1977              	.LBE19:
 580:/home/baikal/workspace/C50/Huawei_IoT_Agent_Tiny_SDK_Linux//lwm2m/core/objects.c **** 
 1978              		.loc 1 580 0
 1979 01b6 488B7424 		movq	40(%rsp), %rsi
 1979      28
 1980 01bb 8B7C2424 		movl	36(%rsp), %edi
 1981 01bf E8000000 		call	lwm2m_data_free
 1981      00
 1982              	.LVL260:
 584:/home/baikal/workspace/C50/Huawei_IoT_Agent_Tiny_SDK_Linux//lwm2m/core/objects.c **** }
 1983              		.loc 1 584 0
 1984 01c4 0FB64424 		movzbl	7(%rsp), %eax
 1984      07
 1985 01c9 EB21     		jmp	.L114
 1986              	.LVL261:
 1987              	.L123:
 521:/home/baikal/workspace/C50/Huawei_IoT_Agent_Tiny_SDK_Linux//lwm2m/core/objects.c ****     if (NULL == targetP->discoverFunc) return COAP_501_NOT_IMPLEMENTED;
 1988              		.loc 1 521 0
 1989 01cb B884FFFF 		movl	$-124, %eax
 1989      FF
 1990              	.LVL262:
 1991 01d0 EB1A     		jmp	.L114
 1992              	.LVL263:
 1993              	.L124:
 522:/home/baikal/workspace/C50/Huawei_IoT_Agent_Tiny_SDK_Linux//lwm2m/core/objects.c **** 
 1994              		.loc 1 522 0
 1995 01d2 B8A1FFFF 		movl	$-95, %eax
 1995      FF
 1996              	.LVL264:
 1997 01d7 EB13     		jmp	.L114
 1998              	.L125:
 526:/home/baikal/workspace/C50/Huawei_IoT_Agent_Tiny_SDK_Linux//lwm2m/core/objects.c **** 
 1999              		.loc 1 526 0
 2000 01d9 B884FFFF 		movl	$-124, %eax
 2000      FF
 2001 01de EB0C     		jmp	.L114
 2002              	.L126:
 533:/home/baikal/workspace/C50/Huawei_IoT_Agent_Tiny_SDK_Linux//lwm2m/core/objects.c **** 
 2003              		.loc 1 533 0
 2004 01e0 B8A0FFFF 		movl	$-96, %eax
 2004      FF
 2005 01e5 EB05     		jmp	.L114
 2006              	.LVL265:
 2007              	.L128:
 2008              	.LBB20:
 557:/home/baikal/workspace/C50/Huawei_IoT_Agent_Tiny_SDK_Linux//lwm2m/core/objects.c **** 
 2009              		.loc 1 557 0
 2010 01e7 B8A0FFFF 		movl	$-96, %eax
 2010      FF
 2011              	.LVL266:
 2012              	.L114:
 2013              	.LBE20:
 585:/home/baikal/workspace/C50/Huawei_IoT_Agent_Tiny_SDK_Linux//lwm2m/core/objects.c **** 
 2014              		.loc 1 585 0
 2015 01ec 4883C438 		addq	$56, %rsp
GAS LISTING /tmp/cct9Gss8.s 			page 62


 2016              	.LCFI127:
 2017              		.cfi_def_cfa_offset 56
 2018 01f0 5B       		popq	%rbx
 2019              	.LCFI128:
 2020              		.cfi_def_cfa_offset 48
 2021 01f1 5D       		popq	%rbp
 2022              	.LCFI129:
 2023              		.cfi_def_cfa_offset 40
 2024 01f2 415C     		popq	%r12
 2025              	.LCFI130:
 2026              		.cfi_def_cfa_offset 32
 2027 01f4 415D     		popq	%r13
 2028              	.LCFI131:
 2029              		.cfi_def_cfa_offset 24
 2030              	.LVL267:
 2031 01f6 415E     		popq	%r14
 2032              	.LCFI132:
 2033              		.cfi_def_cfa_offset 16
 2034 01f8 415F     		popq	%r15
 2035              	.LCFI133:
 2036              		.cfi_def_cfa_offset 8
 2037              	.LVL268:
 2038 01fa C3       		ret
 2039              		.cfi_endproc
 2040              	.LFE80:
 2042              		.section	.text.object_isInstanceNew,"ax",@progbits
 2043              		.globl	object_isInstanceNew
 2045              	object_isInstanceNew:
 2046              	.LFB81:
 590:/home/baikal/workspace/C50/Huawei_IoT_Agent_Tiny_SDK_Linux//lwm2m/core/objects.c ****     lwm2m_object_t *targetP;
 2047              		.loc 1 590 0
 2048              		.cfi_startproc
 2049              	.LVL269:
 2050 0000 53       		pushq	%rbx
 2051              	.LCFI134:
 2052              		.cfi_def_cfa_offset 16
 2053              		.cfi_offset 3, -16
 2054 0001 89D3     		movl	%edx, %ebx
 594:/home/baikal/workspace/C50/Huawei_IoT_Agent_Tiny_SDK_Linux//lwm2m/core/objects.c ****     if (targetP != NULL)
 2055              		.loc 1 594 0
 2056 0003 0FB7F6   		movzwl	%si, %esi
 2057 0006 488B7F38 		movq	56(%rdi), %rdi
 2058              	.LVL270:
 2059 000a E8000000 		call	lwm2m_list_find
 2059      00
 2060              	.LVL271:
 595:/home/baikal/workspace/C50/Huawei_IoT_Agent_Tiny_SDK_Linux//lwm2m/core/objects.c ****     {
 2061              		.loc 1 595 0
 2062 000f 4885C0   		testq	%rax, %rax
 2063 0012 7418     		je	.L133
 597:/home/baikal/workspace/C50/Huawei_IoT_Agent_Tiny_SDK_Linux//lwm2m/core/objects.c ****         {
 2064              		.loc 1 597 0
 2065 0014 0FB7F3   		movzwl	%bx, %esi
 2066 0017 488B7810 		movq	16(%rax), %rdi
 2067 001b E8000000 		call	lwm2m_list_find
 2067      00
 2068              	.LVL272:
GAS LISTING /tmp/cct9Gss8.s 			page 63


 2069 0020 4885C0   		testq	%rax, %rax
 2070 0023 740E     		je	.L134
 599:/home/baikal/workspace/C50/Huawei_IoT_Agent_Tiny_SDK_Linux//lwm2m/core/objects.c ****         }
 2071              		.loc 1 599 0
 2072 0025 B8000000 		movl	$0, %eax
 2072      00
 2073 002a EB0C     		jmp	.L132
 2074              	.LVL273:
 2075              	.L133:
 603:/home/baikal/workspace/C50/Huawei_IoT_Agent_Tiny_SDK_Linux//lwm2m/core/objects.c **** }
 2076              		.loc 1 603 0
 2077 002c B8010000 		movl	$1, %eax
 2077      00
 2078              	.LVL274:
 2079 0031 EB05     		jmp	.L132
 2080              	.L134:
 2081 0033 B8010000 		movl	$1, %eax
 2081      00
 2082              	.L132:
 604:/home/baikal/workspace/C50/Huawei_IoT_Agent_Tiny_SDK_Linux//lwm2m/core/objects.c **** 
 2083              		.loc 1 604 0
 2084 0038 5B       		popq	%rbx
 2085              	.LCFI135:
 2086              		.cfi_def_cfa_offset 8
 2087 0039 C3       		ret
 2088              		.cfi_endproc
 2089              	.LFE81:
 2091              		.section	.text.object_getRegisterPayloadBufferLength,"ax",@progbits
 2092              		.globl	object_getRegisterPayloadBufferLength
 2094              	object_getRegisterPayloadBufferLength:
 2095              	.LFB83:
 631:/home/baikal/workspace/C50/Huawei_IoT_Agent_Tiny_SDK_Linux//lwm2m/core/objects.c ****     size_t index;
 2096              		.loc 1 631 0
 2097              		.cfi_startproc
 2098              	.LVL275:
 2099 0000 4156     		pushq	%r14
 2100              	.LCFI136:
 2101              		.cfi_def_cfa_offset 16
 2102              		.cfi_offset 14, -16
 2103 0002 4155     		pushq	%r13
 2104              	.LCFI137:
 2105              		.cfi_def_cfa_offset 24
 2106              		.cfi_offset 13, -24
 2107 0004 4154     		pushq	%r12
 2108              	.LCFI138:
 2109              		.cfi_def_cfa_offset 32
 2110              		.cfi_offset 12, -32
 2111 0006 55       		pushq	%rbp
 2112              	.LCFI139:
 2113              		.cfi_def_cfa_offset 40
 2114              		.cfi_offset 6, -40
 2115 0007 53       		pushq	%rbx
 2116              	.LCFI140:
 2117              		.cfi_def_cfa_offset 48
 2118              		.cfi_offset 3, -48
 2119 0008 4883EC10 		subq	$16, %rsp
 2120              	.LCFI141:
GAS LISTING /tmp/cct9Gss8.s 			page 64


 2121              		.cfi_def_cfa_offset 64
 2122 000c 4889FA   		movq	%rdi, %rdx
 2123              	.LVL276:
 640:/home/baikal/workspace/C50/Huawei_IoT_Agent_Tiny_SDK_Linux//lwm2m/core/objects.c ****             && (contextP->altPath[0] != 0))
 2124              		.loc 1 640 0
 2125 000f 488B7F20 		movq	32(%rdi), %rdi
 2126              	.LVL277:
 2127 0013 4885FF   		testq	%rdi, %rdi
 2128 0016 7418     		je	.L145
 641:/home/baikal/workspace/C50/Huawei_IoT_Agent_Tiny_SDK_Linux//lwm2m/core/objects.c ****     {
 2129              		.loc 1 641 0
 2130 0018 803F00   		cmpb	$0, (%rdi)
 2131 001b 741A     		je	.L146
 643:/home/baikal/workspace/C50/Huawei_IoT_Agent_Tiny_SDK_Linux//lwm2m/core/objects.c ****     }
 2132              		.loc 1 643 0
 2133 001d B8000000 		movl	$0, %eax
 2133      00
 2134 0022 48C7C1FF 		movq	$-1, %rcx
 2134      FFFFFF
 2135 0029 F2AE     		repnz scasb
 2136 002b 48F7D1   		notq	%rcx
 2137              	.LVL278:
 2138 002e EB0C     		jmp	.L137
 2139              	.LVL279:
 2140              	.L145:
 647:/home/baikal/workspace/C50/Huawei_IoT_Agent_Tiny_SDK_Linux//lwm2m/core/objects.c ****     }
 2141              		.loc 1 647 0
 2142 0030 B9020000 		movl	$2, %ecx
 2142      00
 2143 0035 EB05     		jmp	.L137
 2144              	.L146:
 2145 0037 B9020000 		movl	$2, %ecx
 2145      00
 2146              	.LVL280:
 2147              	.L137:
 650:/home/baikal/workspace/C50/Huawei_IoT_Agent_Tiny_SDK_Linux//lwm2m/core/objects.c **** 
 2148              		.loc 1 650 0
 2149 003c 488D5911 		leaq	17(%rcx), %rbx
 2150              	.LVL281:
 652:/home/baikal/workspace/C50/Huawei_IoT_Agent_Tiny_SDK_Linux//lwm2m/core/objects.c ****     {
 2151              		.loc 1 652 0
 2152 0040 4C8B6238 		movq	56(%rdx), %r12
 2153              	.LVL282:
 2154 0044 EB6C     		jmp	.L138
 2155              	.LVL283:
 2156              	.L144:
 2157              	.LBB21:
 657:/home/baikal/workspace/C50/Huawei_IoT_Agent_Tiny_SDK_Linux//lwm2m/core/objects.c **** 
 2158              		.loc 1 657 0
 2159 0046 410FB754 		movzwl	8(%r12), %edx
 2159      2408
 2160 004c 6685D2   		testw	%dx, %dx
 2161 004f 745D     		je	.L139
 2162              	.LVL284:
 660:/home/baikal/workspace/C50/Huawei_IoT_Agent_Tiny_SDK_Linux//lwm2m/core/objects.c ****         if (result < 0) return 0;
 2163              		.loc 1 660 0
 2164 0051 0FB7D2   		movzwl	%dx, %edx
GAS LISTING /tmp/cct9Gss8.s 			page 65


 2165 0054 BE0A0000 		movl	$10, %esi
 2165      00
 2166 0059 4889E7   		movq	%rsp, %rdi
 2167 005c E8000000 		call	prv_getObjectTemplate
 2167      00
 2168              	.LVL285:
 661:/home/baikal/workspace/C50/Huawei_IoT_Agent_Tiny_SDK_Linux//lwm2m/core/objects.c ****         length = result;
 2169              		.loc 1 661 0
 2170 0061 85C0     		testl	%eax, %eax
 2171 0063 7857     		js	.L147
 662:/home/baikal/workspace/C50/Huawei_IoT_Agent_Tiny_SDK_Linux//lwm2m/core/objects.c ****         index += length;
 2172              		.loc 1 662 0
 2173 0065 4C63E8   		movslq	%eax, %r13
 2174              	.LVL286:
 663:/home/baikal/workspace/C50/Huawei_IoT_Agent_Tiny_SDK_Linux//lwm2m/core/objects.c **** 
 2175              		.loc 1 663 0
 2176 0068 4E8D342B 		leaq	(%rbx,%r13), %r14
 2177              	.LVL287:
 665:/home/baikal/workspace/C50/Huawei_IoT_Agent_Tiny_SDK_Linux//lwm2m/core/objects.c ****         {
 2178              		.loc 1 665 0
 2179 006c 498B6C24 		movq	16(%r12), %rbp
 2179      10
 2180 0071 4885ED   		testq	%rbp, %rbp
 2181 0074 7530     		jne	.L148
 2182              	.LVL288:
 668:/home/baikal/workspace/C50/Huawei_IoT_Agent_Tiny_SDK_Linux//lwm2m/core/objects.c ****         }
 2183              		.loc 1 668 0
 2184 0076 498D5E01 		leaq	1(%r14), %rbx
 2185              	.LVL289:
 2186 007a EB32     		jmp	.L139
 2187              	.LVL290:
 2188              	.L143:
 2189              	.LBB22:
 675:/home/baikal/workspace/C50/Huawei_IoT_Agent_Tiny_SDK_Linux//lwm2m/core/objects.c ****                 {
 2190              		.loc 1 675 0
 2191 007c 4C39F3   		cmpq	%r14, %rbx
 2192 007f 7403     		je	.L142
 677:/home/baikal/workspace/C50/Huawei_IoT_Agent_Tiny_SDK_Linux//lwm2m/core/objects.c ****                 }
 2193              		.loc 1 677 0
 2194 0081 4C01EB   		addq	%r13, %rbx
 2195              	.LVL291:
 2196              	.L142:
 680:/home/baikal/workspace/C50/Huawei_IoT_Agent_Tiny_SDK_Linux//lwm2m/core/objects.c ****                 if (result == 0) return 0;
 2197              		.loc 1 680 0
 2198 0084 0FB77D08 		movzwl	8(%rbp), %edi
 2199 0088 BA0A0000 		movl	$10, %edx
 2199      00
 2200 008d 4889E6   		movq	%rsp, %rsi
 2201 0090 E8000000 		call	utils_intToText
 2201      00
 2202              	.LVL292:
 681:/home/baikal/workspace/C50/Huawei_IoT_Agent_Tiny_SDK_Linux//lwm2m/core/objects.c ****                 index += result;
 2203              		.loc 1 681 0
 2204 0095 85C0     		testl	%eax, %eax
 2205 0097 742A     		je	.L149
 682:/home/baikal/workspace/C50/Huawei_IoT_Agent_Tiny_SDK_Linux//lwm2m/core/objects.c **** 
 2206              		.loc 1 682 0 discriminator 2
GAS LISTING /tmp/cct9Gss8.s 			page 66


 2207 0099 4898     		cltq
 2208              	.LVL293:
 684:/home/baikal/workspace/C50/Huawei_IoT_Agent_Tiny_SDK_Linux//lwm2m/core/objects.c ****             }
 2209              		.loc 1 684 0 discriminator 2
 2210 009b 488D5C03 		leaq	2(%rbx,%rax), %rbx
 2210      02
 2211              	.LVL294:
 673:/home/baikal/workspace/C50/Huawei_IoT_Agent_Tiny_SDK_Linux//lwm2m/core/objects.c ****             {
 2212              		.loc 1 673 0 discriminator 2
 2213 00a0 488B6D00 		movq	0(%rbp), %rbp
 2214              	.LVL295:
 2215 00a4 EB03     		jmp	.L141
 2216              	.LVL296:
 2217              	.L148:
 2218              	.LBE22:
 2219 00a6 4C89F3   		movq	%r14, %rbx
 2220              	.LVL297:
 2221              	.L141:
 2222              	.LBB23:
 673:/home/baikal/workspace/C50/Huawei_IoT_Agent_Tiny_SDK_Linux//lwm2m/core/objects.c ****             {
 2223              		.loc 1 673 0 is_stmt 0 discriminator 1
 2224 00a9 4885ED   		testq	%rbp, %rbp
 2225 00ac 75CE     		jne	.L143
 2226              	.LVL298:
 2227              	.L139:
 2228              	.LBE23:
 2229              	.LBE21:
 652:/home/baikal/workspace/C50/Huawei_IoT_Agent_Tiny_SDK_Linux//lwm2m/core/objects.c ****     {
 2230              		.loc 1 652 0 is_stmt 1 discriminator 2
 2231 00ae 4D8B2424 		movq	(%r12), %r12
 2232              	.LVL299:
 2233              	.L138:
 652:/home/baikal/workspace/C50/Huawei_IoT_Agent_Tiny_SDK_Linux//lwm2m/core/objects.c ****     {
 2234              		.loc 1 652 0 is_stmt 0 discriminator 1
 2235 00b2 4D85E4   		testq	%r12, %r12
 2236 00b5 758F     		jne	.L144
 2237              	.LVL300:
 697:/home/baikal/workspace/C50/Huawei_IoT_Agent_Tiny_SDK_Linux//lwm2m/core/objects.c **** }
 2238              		.loc 1 697 0 is_stmt 1
 2239 00b7 8D4301   		leal	1(%rbx), %eax
 2240 00ba EB0C     		jmp	.L140
 2241              	.LVL301:
 2242              	.L147:
 2243              	.LBB25:
 661:/home/baikal/workspace/C50/Huawei_IoT_Agent_Tiny_SDK_Linux//lwm2m/core/objects.c ****         length = result;
 2244              		.loc 1 661 0
 2245 00bc B8000000 		movl	$0, %eax
 2245      00
 2246              	.LVL302:
 2247 00c1 EB05     		jmp	.L140
 2248              	.LVL303:
 2249              	.L149:
 2250              	.LBB24:
 681:/home/baikal/workspace/C50/Huawei_IoT_Agent_Tiny_SDK_Linux//lwm2m/core/objects.c ****                 index += result;
 2251              		.loc 1 681 0
 2252 00c3 B8000000 		movl	$0, %eax
 2252      00
GAS LISTING /tmp/cct9Gss8.s 			page 67


 2253              	.LVL304:
 2254              	.L140:
 2255              	.LBE24:
 2256              	.LBE25:
 698:/home/baikal/workspace/C50/Huawei_IoT_Agent_Tiny_SDK_Linux//lwm2m/core/objects.c **** 
 2257              		.loc 1 698 0
 2258 00c8 4883C410 		addq	$16, %rsp
 2259              	.LCFI142:
 2260              		.cfi_def_cfa_offset 48
 2261 00cc 5B       		popq	%rbx
 2262              	.LCFI143:
 2263              		.cfi_def_cfa_offset 40
 2264 00cd 5D       		popq	%rbp
 2265              	.LCFI144:
 2266              		.cfi_def_cfa_offset 32
 2267 00ce 415C     		popq	%r12
 2268              	.LCFI145:
 2269              		.cfi_def_cfa_offset 24
 2270              	.LVL305:
 2271 00d0 415D     		popq	%r13
 2272              	.LCFI146:
 2273              		.cfi_def_cfa_offset 16
 2274 00d2 415E     		popq	%r14
 2275              	.LCFI147:
 2276              		.cfi_def_cfa_offset 8
 2277 00d4 C3       		ret
 2278              		.cfi_endproc
 2279              	.LFE83:
 2281              		.section	.rodata.str1.1,"aMS",@progbits,1
 2282              	.LC0:
 2283 0000 3C00     		.string	"<"
 2284              	.LC1:
 2285 0002 2F00     		.string	"/"
 2286              	.LC2:
 2287 0004 3E3B7274 		.string	">;rt=\"oma.lwm2m\","
 2287      3D226F6D 
 2287      612E6C77 
 2287      6D326D22 
 2287      2C00
 2288              	.LC3:
 2289 0016 3E2C00   		.string	">,"
 2290              		.section	.text.object_getRegisterPayload,"ax",@progbits
 2291              		.globl	object_getRegisterPayload
 2293              	object_getRegisterPayload:
 2294              	.LFB84:
 703:/home/baikal/workspace/C50/Huawei_IoT_Agent_Tiny_SDK_Linux//lwm2m/core/objects.c ****     size_t index;
 2295              		.loc 1 703 0
 2296              		.cfi_startproc
 2297              	.LVL306:
 2298 0000 4157     		pushq	%r15
 2299              	.LCFI148:
 2300              		.cfi_def_cfa_offset 16
 2301              		.cfi_offset 15, -16
 2302 0002 4156     		pushq	%r14
 2303              	.LCFI149:
 2304              		.cfi_def_cfa_offset 24
 2305              		.cfi_offset 14, -24
GAS LISTING /tmp/cct9Gss8.s 			page 68


 2306 0004 4155     		pushq	%r13
 2307              	.LCFI150:
 2308              		.cfi_def_cfa_offset 32
 2309              		.cfi_offset 13, -32
 2310 0006 4154     		pushq	%r12
 2311              	.LCFI151:
 2312              		.cfi_def_cfa_offset 40
 2313              		.cfi_offset 12, -40
 2314 0008 55       		pushq	%rbp
 2315              	.LCFI152:
 2316              		.cfi_def_cfa_offset 48
 2317              		.cfi_offset 6, -48
 2318 0009 53       		pushq	%rbx
 2319              	.LCFI153:
 2320              		.cfi_def_cfa_offset 56
 2321              		.cfi_offset 3, -56
 2322 000a 4883EC18 		subq	$24, %rsp
 2323              	.LCFI154:
 2324              		.cfi_def_cfa_offset 80
 2325 000e 4989FE   		movq	%rdi, %r14
 2326 0011 4989F5   		movq	%rsi, %r13
 2327 0014 4989D4   		movq	%rdx, %r12
 2328              	.LVL307:
 712:/home/baikal/workspace/C50/Huawei_IoT_Agent_Tiny_SDK_Linux//lwm2m/core/objects.c ****     if (result < 0) return 0;
 2329              		.loc 1 712 0
 2330 0017 BA000000 		movl	$.LC0, %edx
 2330      00
 2331              	.LVL308:
 2332 001c 4C89E6   		movq	%r12, %rsi
 2333              	.LVL309:
 2334 001f 4C89EF   		movq	%r13, %rdi
 2335              	.LVL310:
 2336 0022 E8000000 		call	utils_stringCopy
 2336      00
 2337              	.LVL311:
 713:/home/baikal/workspace/C50/Huawei_IoT_Agent_Tiny_SDK_Linux//lwm2m/core/objects.c ****     index += result;
 2338              		.loc 1 713 0
 2339 0027 85C0     		testl	%eax, %eax
 2340 0029 0F887801 		js	.L162
 2340      0000
 714:/home/baikal/workspace/C50/Huawei_IoT_Agent_Tiny_SDK_Linux//lwm2m/core/objects.c **** 
 2341              		.loc 1 714 0
 2342 002f 4863E8   		movslq	%eax, %rbp
 2343              	.LVL312:
 716:/home/baikal/workspace/C50/Huawei_IoT_Agent_Tiny_SDK_Linux//lwm2m/core/objects.c ****             && (contextP->altPath[0] != 0))
 2344              		.loc 1 716 0
 2345 0032 498B5620 		movq	32(%r14), %rdx
 2346 0036 4885D2   		testq	%rdx, %rdx
 2347 0039 7417     		je	.L153
 717:/home/baikal/workspace/C50/Huawei_IoT_Agent_Tiny_SDK_Linux//lwm2m/core/objects.c ****     {
 2348              		.loc 1 717 0
 2349 003b 803A00   		cmpb	$0, (%rdx)
 2350 003e 7412     		je	.L153
 719:/home/baikal/workspace/C50/Huawei_IoT_Agent_Tiny_SDK_Linux//lwm2m/core/objects.c ****     }
 2351              		.loc 1 719 0
 2352 0040 4C89E6   		movq	%r12, %rsi
 2353 0043 4829EE   		subq	%rbp, %rsi
GAS LISTING /tmp/cct9Gss8.s 			page 69


 2354 0046 498D7C2D 		leaq	0(%r13,%rbp), %rdi
 2354      00
 2355 004b E8000000 		call	utils_stringCopy
 2355      00
 2356              	.LVL313:
 2357 0050 EB15     		jmp	.L154
 2358              	.L153:
 723:/home/baikal/workspace/C50/Huawei_IoT_Agent_Tiny_SDK_Linux//lwm2m/core/objects.c ****     }
 2359              		.loc 1 723 0
 2360 0052 4C89E6   		movq	%r12, %rsi
 2361 0055 4829EE   		subq	%rbp, %rsi
 2362 0058 498D7C2D 		leaq	0(%r13,%rbp), %rdi
 2362      00
 2363 005d BA000000 		movl	$.LC1, %edx
 2363      00
 2364 0062 E8000000 		call	utils_stringCopy
 2364      00
 2365              	.LVL314:
 2366              	.L154:
 725:/home/baikal/workspace/C50/Huawei_IoT_Agent_Tiny_SDK_Linux//lwm2m/core/objects.c ****     index += result;
 2367              		.loc 1 725 0
 2368 0067 85C0     		testl	%eax, %eax
 2369 0069 0F883F01 		js	.L163
 2369      0000
 726:/home/baikal/workspace/C50/Huawei_IoT_Agent_Tiny_SDK_Linux//lwm2m/core/objects.c **** 
 2370              		.loc 1 726 0
 2371 006f 4898     		cltq
 2372 0071 4801C5   		addq	%rax, %rbp
 2373              	.LVL315:
 728:/home/baikal/workspace/C50/Huawei_IoT_Agent_Tiny_SDK_Linux//lwm2m/core/objects.c ****     if (result < 0) return 0;
 2374              		.loc 1 728 0
 2375 0074 4C89E6   		movq	%r12, %rsi
 2376 0077 4829EE   		subq	%rbp, %rsi
 2377 007a 498D7C2D 		leaq	0(%r13,%rbp), %rdi
 2377      00
 2378 007f BA000000 		movl	$.LC2, %edx
 2378      00
 2379 0084 E8000000 		call	utils_stringCopy
 2379      00
 2380              	.LVL316:
 729:/home/baikal/workspace/C50/Huawei_IoT_Agent_Tiny_SDK_Linux//lwm2m/core/objects.c ****     index += result;
 2381              		.loc 1 729 0
 2382 0089 85C0     		testl	%eax, %eax
 2383 008b 0F882401 		js	.L164
 2383      0000
 730:/home/baikal/workspace/C50/Huawei_IoT_Agent_Tiny_SDK_Linux//lwm2m/core/objects.c **** 
 2384              		.loc 1 730 0
 2385 0091 4898     		cltq
 2386 0093 488D1C28 		leaq	(%rax,%rbp), %rbx
 2387              	.LVL317:
 732:/home/baikal/workspace/C50/Huawei_IoT_Agent_Tiny_SDK_Linux//lwm2m/core/objects.c ****     {
 2388              		.loc 1 732 0
 2389 0097 4D8B7E38 		movq	56(%r14), %r15
 2390              	.LVL318:
 2391 009b E9EB0000 		jmp	.L155
 2391      00
 2392              	.LVL319:
GAS LISTING /tmp/cct9Gss8.s 			page 70


 2393              	.L160:
 2394              	.LBB26:
 737:/home/baikal/workspace/C50/Huawei_IoT_Agent_Tiny_SDK_Linux//lwm2m/core/objects.c **** 
 2395              		.loc 1 737 0
 2396 00a0 410FB757 		movzwl	8(%r15), %edx
 2396      08
 2397 00a5 6685D2   		testw	%dx, %dx
 2398 00a8 0F84DA00 		je	.L156
 2398      0000
 2399              	.LVL320:
 740:/home/baikal/workspace/C50/Huawei_IoT_Agent_Tiny_SDK_Linux//lwm2m/core/objects.c ****         if (result < 0) return 0;
 2400              		.loc 1 740 0
 2401 00ae 0FB7D2   		movzwl	%dx, %edx
 2402 00b1 4C89E6   		movq	%r12, %rsi
 2403 00b4 4829DE   		subq	%rbx, %rsi
 2404 00b7 498D441D 		leaq	0(%r13,%rbx), %rax
 2404      00
 2405 00bc 48894424 		movq	%rax, 8(%rsp)
 2405      08
 2406 00c1 4889C7   		movq	%rax, %rdi
 2407 00c4 E8000000 		call	prv_getObjectTemplate
 2407      00
 2408              	.LVL321:
 741:/home/baikal/workspace/C50/Huawei_IoT_Agent_Tiny_SDK_Linux//lwm2m/core/objects.c ****         length = result;
 2409              		.loc 1 741 0
 2410 00c9 85C0     		testl	%eax, %eax
 2411 00cb 0F88EB00 		js	.L165
 2411      0000
 742:/home/baikal/workspace/C50/Huawei_IoT_Agent_Tiny_SDK_Linux//lwm2m/core/objects.c ****         index += length;
 2412              		.loc 1 742 0
 2413 00d1 4C63F0   		movslq	%eax, %r14
 2414              	.LVL322:
 743:/home/baikal/workspace/C50/Huawei_IoT_Agent_Tiny_SDK_Linux//lwm2m/core/objects.c **** 
 2415              		.loc 1 743 0
 2416 00d4 4A8D0433 		leaq	(%rbx,%r14), %rax
 2417              	.LVL323:
 2418 00d8 48890424 		movq	%rax, (%rsp)
 2419              	.LVL324:
 745:/home/baikal/workspace/C50/Huawei_IoT_Agent_Tiny_SDK_Linux//lwm2m/core/objects.c ****         {
 2420              		.loc 1 745 0
 2421 00dc 498B6F10 		movq	16(%r15), %rbp
 2422 00e0 4885ED   		testq	%rbp, %rbp
 2423 00e3 0F859600 		jne	.L166
 2423      0000
 747:/home/baikal/workspace/C50/Huawei_IoT_Agent_Tiny_SDK_Linux//lwm2m/core/objects.c ****             result = utils_stringCopy((char *)buffer + index, bufferLen - index, REG_PATH_END);
 2424              		.loc 1 747 0
 2425 00e9 4889C3   		movq	%rax, %rbx
 2426              	.LVL325:
 2427 00ec 4883EB01 		subq	$1, %rbx
 2428              	.LVL326:
 748:/home/baikal/workspace/C50/Huawei_IoT_Agent_Tiny_SDK_Linux//lwm2m/core/objects.c ****             if (result < 0) return 0;
 2429              		.loc 1 748 0
 2430 00f0 4C89E6   		movq	%r12, %rsi
 2431 00f3 4829DE   		subq	%rbx, %rsi
 2432 00f6 498D7C1D 		leaq	0(%r13,%rbx), %rdi
 2432      00
 2433 00fb BA000000 		movl	$.LC3, %edx
GAS LISTING /tmp/cct9Gss8.s 			page 71


 2433      00
 2434 0100 E8000000 		call	utils_stringCopy
 2434      00
 2435              	.LVL327:
 749:/home/baikal/workspace/C50/Huawei_IoT_Agent_Tiny_SDK_Linux//lwm2m/core/objects.c ****             index += result;
 2436              		.loc 1 749 0
 2437 0105 85C0     		testl	%eax, %eax
 2438 0107 0F88B600 		js	.L167
 2438      0000
 750:/home/baikal/workspace/C50/Huawei_IoT_Agent_Tiny_SDK_Linux//lwm2m/core/objects.c ****         }
 2439              		.loc 1 750 0
 2440 010d 4898     		cltq
 2441 010f 4801C3   		addq	%rax, %rbx
 2442              	.LVL328:
 2443 0112 EB74     		jmp	.L156
 2444              	.LVL329:
 2445              	.L159:
 2446              	.LBB27:
 757:/home/baikal/workspace/C50/Huawei_IoT_Agent_Tiny_SDK_Linux//lwm2m/core/objects.c ****                 {
 2447              		.loc 1 757 0
 2448 0114 483B1C24 		cmpq	(%rsp), %rbx
 2449 0118 7424     		je	.L158
 759:/home/baikal/workspace/C50/Huawei_IoT_Agent_Tiny_SDK_Linux//lwm2m/core/objects.c ****                     memcpy(buffer + index, buffer + start, length);
 2450              		.loc 1 759 0
 2451 011a 4C89E0   		movq	%r12, %rax
 2452 011d 4829D8   		subq	%rbx, %rax
 2453 0120 4939C6   		cmpq	%rax, %r14
 2454 0123 0F83A100 		jnb	.L168
 2454      0000
 760:/home/baikal/workspace/C50/Huawei_IoT_Agent_Tiny_SDK_Linux//lwm2m/core/objects.c ****                     index += length;
 2455              		.loc 1 760 0
 2456 0129 498D7C1D 		leaq	0(%r13,%rbx), %rdi
 2456      00
 2457              	.LVL330:
 2458              	.LBB28:
 2459              	.LBB29:
  53:/usr/include/x86_64-linux-gnu/bits/string3.h **** }
 2460              		.loc 2 53 0
 2461 012e 4C89F2   		movq	%r14, %rdx
 2462 0131 488B7424 		movq	8(%rsp), %rsi
 2462      08
 2463 0136 E8000000 		call	memcpy
 2463      00
 2464              	.LVL331:
 2465              	.LBE29:
 2466              	.LBE28:
 761:/home/baikal/workspace/C50/Huawei_IoT_Agent_Tiny_SDK_Linux//lwm2m/core/objects.c ****                 }
 2467              		.loc 1 761 0
 2468 013b 4C01F3   		addq	%r14, %rbx
 2469              	.LVL332:
 2470              	.L158:
 764:/home/baikal/workspace/C50/Huawei_IoT_Agent_Tiny_SDK_Linux//lwm2m/core/objects.c ****                 if (result == 0) return 0;
 2471              		.loc 1 764 0
 2472 013e 4C89E2   		movq	%r12, %rdx
 2473 0141 4829DA   		subq	%rbx, %rdx
 2474 0144 498D741D 		leaq	0(%r13,%rbx), %rsi
 2474      00
GAS LISTING /tmp/cct9Gss8.s 			page 72


 2475 0149 0FB77D08 		movzwl	8(%rbp), %edi
 2476 014d E8000000 		call	utils_intToText
 2476      00
 2477              	.LVL333:
 765:/home/baikal/workspace/C50/Huawei_IoT_Agent_Tiny_SDK_Linux//lwm2m/core/objects.c ****                 index += result;
 2478              		.loc 1 765 0
 2479 0152 85C0     		testl	%eax, %eax
 2480 0154 747B     		je	.L169
 766:/home/baikal/workspace/C50/Huawei_IoT_Agent_Tiny_SDK_Linux//lwm2m/core/objects.c **** 
 2481              		.loc 1 766 0
 2482 0156 4898     		cltq
 2483 0158 4801C3   		addq	%rax, %rbx
 2484              	.LVL334:
 768:/home/baikal/workspace/C50/Huawei_IoT_Agent_Tiny_SDK_Linux//lwm2m/core/objects.c ****                 if (result < 0) return 0;
 2485              		.loc 1 768 0
 2486 015b 4C89E6   		movq	%r12, %rsi
 2487 015e 4829DE   		subq	%rbx, %rsi
 2488 0161 498D7C1D 		leaq	0(%r13,%rbx), %rdi
 2488      00
 2489 0166 BA000000 		movl	$.LC3, %edx
 2489      00
 2490 016b E8000000 		call	utils_stringCopy
 2490      00
 2491              	.LVL335:
 769:/home/baikal/workspace/C50/Huawei_IoT_Agent_Tiny_SDK_Linux//lwm2m/core/objects.c ****                 index += result;
 2492              		.loc 1 769 0
 2493 0170 85C0     		testl	%eax, %eax
 2494 0172 7864     		js	.L170
 770:/home/baikal/workspace/C50/Huawei_IoT_Agent_Tiny_SDK_Linux//lwm2m/core/objects.c ****             }
 2495              		.loc 1 770 0 discriminator 2
 2496 0174 4898     		cltq
 2497 0176 4801C3   		addq	%rax, %rbx
 2498              	.LVL336:
 755:/home/baikal/workspace/C50/Huawei_IoT_Agent_Tiny_SDK_Linux//lwm2m/core/objects.c ****             {
 2499              		.loc 1 755 0 discriminator 2
 2500 0179 488B6D00 		movq	0(%rbp), %rbp
 2501              	.LVL337:
 2502 017d EB04     		jmp	.L157
 2503              	.LVL338:
 2504              	.L166:
 2505              	.LBE27:
 2506 017f 488B1C24 		movq	(%rsp), %rbx
 2507              	.LVL339:
 2508              	.L157:
 2509              	.LBB30:
 755:/home/baikal/workspace/C50/Huawei_IoT_Agent_Tiny_SDK_Linux//lwm2m/core/objects.c ****             {
 2510              		.loc 1 755 0 is_stmt 0 discriminator 1
 2511 0183 4885ED   		testq	%rbp, %rbp
 2512 0186 758C     		jne	.L159
 2513              	.LVL340:
 2514              	.L156:
 2515              	.LBE30:
 2516              	.LBE26:
 732:/home/baikal/workspace/C50/Huawei_IoT_Agent_Tiny_SDK_Linux//lwm2m/core/objects.c ****     {
 2517              		.loc 1 732 0 is_stmt 1 discriminator 2
 2518 0188 4D8B3F   		movq	(%r15), %r15
 2519              	.LVL341:
GAS LISTING /tmp/cct9Gss8.s 			page 73


 2520              	.L155:
 732:/home/baikal/workspace/C50/Huawei_IoT_Agent_Tiny_SDK_Linux//lwm2m/core/objects.c ****     {
 2521              		.loc 1 732 0 is_stmt 0 discriminator 1
 2522 018b 4D85FF   		testq	%r15, %r15
 2523 018e 0F850CFF 		jne	.L160
 2523      FFFF
 775:/home/baikal/workspace/C50/Huawei_IoT_Agent_Tiny_SDK_Linux//lwm2m/core/objects.c ****     {
 2524              		.loc 1 775 0 is_stmt 1
 2525 0194 4885DB   		testq	%rbx, %rbx
 2526 0197 7404     		je	.L161
 777:/home/baikal/workspace/C50/Huawei_IoT_Agent_Tiny_SDK_Linux//lwm2m/core/objects.c ****     }
 2527              		.loc 1 777 0
 2528 0199 4883EB01 		subq	$1, %rbx
 2529              	.LVL342:
 2530              	.L161:
 780:/home/baikal/workspace/C50/Huawei_IoT_Agent_Tiny_SDK_Linux//lwm2m/core/objects.c **** 
 2531              		.loc 1 780 0
 2532 019d 41C6441D 		movb	$0, 0(%r13,%rbx)
 2532      0000
 782:/home/baikal/workspace/C50/Huawei_IoT_Agent_Tiny_SDK_Linux//lwm2m/core/objects.c **** }
 2533              		.loc 1 782 0
 2534 01a3 89D8     		movl	%ebx, %eax
 2535 01a5 EB36     		jmp	.L152
 2536              	.LVL343:
 2537              	.L162:
 713:/home/baikal/workspace/C50/Huawei_IoT_Agent_Tiny_SDK_Linux//lwm2m/core/objects.c ****     index += result;
 2538              		.loc 1 713 0
 2539 01a7 B8000000 		movl	$0, %eax
 2539      00
 2540              	.LVL344:
 2541 01ac EB2F     		jmp	.L152
 2542              	.LVL345:
 2543              	.L163:
 725:/home/baikal/workspace/C50/Huawei_IoT_Agent_Tiny_SDK_Linux//lwm2m/core/objects.c ****     index += result;
 2544              		.loc 1 725 0
 2545 01ae B8000000 		movl	$0, %eax
 2545      00
 2546              	.LVL346:
 2547 01b3 EB28     		jmp	.L152
 2548              	.LVL347:
 2549              	.L164:
 729:/home/baikal/workspace/C50/Huawei_IoT_Agent_Tiny_SDK_Linux//lwm2m/core/objects.c ****     index += result;
 2550              		.loc 1 729 0
 2551 01b5 B8000000 		movl	$0, %eax
 2551      00
 2552              	.LVL348:
 2553 01ba EB21     		jmp	.L152
 2554              	.LVL349:
 2555              	.L165:
 2556              	.LBB32:
 741:/home/baikal/workspace/C50/Huawei_IoT_Agent_Tiny_SDK_Linux//lwm2m/core/objects.c ****         length = result;
 2557              		.loc 1 741 0
 2558 01bc B8000000 		movl	$0, %eax
 2558      00
 2559              	.LVL350:
 2560 01c1 EB1A     		jmp	.L152
 2561              	.LVL351:
GAS LISTING /tmp/cct9Gss8.s 			page 74


 2562              	.L167:
 749:/home/baikal/workspace/C50/Huawei_IoT_Agent_Tiny_SDK_Linux//lwm2m/core/objects.c ****             index += result;
 2563              		.loc 1 749 0
 2564 01c3 B8000000 		movl	$0, %eax
 2564      00
 2565              	.LVL352:
 2566 01c8 EB13     		jmp	.L152
 2567              	.LVL353:
 2568              	.L168:
 2569              	.LBB31:
 759:/home/baikal/workspace/C50/Huawei_IoT_Agent_Tiny_SDK_Linux//lwm2m/core/objects.c ****                     memcpy(buffer + index, buffer + start, length);
 2570              		.loc 1 759 0
 2571 01ca B8000000 		movl	$0, %eax
 2571      00
 2572 01cf EB0C     		jmp	.L152
 2573              	.LVL354:
 2574              	.L169:
 765:/home/baikal/workspace/C50/Huawei_IoT_Agent_Tiny_SDK_Linux//lwm2m/core/objects.c ****                 index += result;
 2575              		.loc 1 765 0
 2576 01d1 B8000000 		movl	$0, %eax
 2576      00
 2577              	.LVL355:
 2578 01d6 EB05     		jmp	.L152
 2579              	.LVL356:
 2580              	.L170:
 769:/home/baikal/workspace/C50/Huawei_IoT_Agent_Tiny_SDK_Linux//lwm2m/core/objects.c ****                 index += result;
 2581              		.loc 1 769 0
 2582 01d8 B8000000 		movl	$0, %eax
 2582      00
 2583              	.LVL357:
 2584              	.L152:
 2585              	.LBE31:
 2586              	.LBE32:
 783:/home/baikal/workspace/C50/Huawei_IoT_Agent_Tiny_SDK_Linux//lwm2m/core/objects.c **** 
 2587              		.loc 1 783 0
 2588 01dd 4883C418 		addq	$24, %rsp
 2589              	.LCFI155:
 2590              		.cfi_def_cfa_offset 56
 2591 01e1 5B       		popq	%rbx
 2592              	.LCFI156:
 2593              		.cfi_def_cfa_offset 48
 2594 01e2 5D       		popq	%rbp
 2595              	.LCFI157:
 2596              		.cfi_def_cfa_offset 40
 2597 01e3 415C     		popq	%r12
 2598              	.LCFI158:
 2599              		.cfi_def_cfa_offset 32
 2600              	.LVL358:
 2601 01e5 415D     		popq	%r13
 2602              	.LCFI159:
 2603              		.cfi_def_cfa_offset 24
 2604              	.LVL359:
 2605 01e7 415E     		popq	%r14
 2606              	.LCFI160:
 2607              		.cfi_def_cfa_offset 16
 2608 01e9 415F     		popq	%r15
 2609              	.LCFI161:
GAS LISTING /tmp/cct9Gss8.s 			page 75


 2610              		.cfi_def_cfa_offset 8
 2611 01eb C3       		ret
 2612              		.cfi_endproc
 2613              	.LFE84:
 2615              		.section	.text.object_getServers,"ax",@progbits
 2616              		.globl	object_getServers
 2618              	object_getServers:
 2619              	.LFB87:
 862:/home/baikal/workspace/C50/Huawei_IoT_Agent_Tiny_SDK_Linux//lwm2m/core/objects.c **** 
 863:/home/baikal/workspace/C50/Huawei_IoT_Agent_Tiny_SDK_Linux//lwm2m/core/objects.c **** int object_getServers(lwm2m_context_t *contextP, bool checkOnly)
 864:/home/baikal/workspace/C50/Huawei_IoT_Agent_Tiny_SDK_Linux//lwm2m/core/objects.c **** {
 2620              		.loc 1 864 0
 2621              		.cfi_startproc
 2622              	.LVL360:
 2623 0000 4157     		pushq	%r15
 2624              	.LCFI162:
 2625              		.cfi_def_cfa_offset 16
 2626              		.cfi_offset 15, -16
 2627 0002 4156     		pushq	%r14
 2628              	.LCFI163:
 2629              		.cfi_def_cfa_offset 24
 2630              		.cfi_offset 14, -24
 2631 0004 4155     		pushq	%r13
 2632              	.LCFI164:
 2633              		.cfi_def_cfa_offset 32
 2634              		.cfi_offset 13, -32
 2635 0006 4154     		pushq	%r12
 2636              	.LCFI165:
 2637              		.cfi_def_cfa_offset 40
 2638              		.cfi_offset 12, -40
 2639 0008 55       		pushq	%rbp
 2640              	.LCFI166:
 2641              		.cfi_def_cfa_offset 48
 2642              		.cfi_offset 6, -48
 2643 0009 53       		pushq	%rbx
 2644              	.LCFI167:
 2645              		.cfi_def_cfa_offset 56
 2646              		.cfi_offset 3, -56
 2647 000a 4883EC28 		subq	$40, %rsp
 2648              	.LCFI168:
 2649              		.cfi_def_cfa_offset 96
 2650 000e 4189F5   		movl	%esi, %r13d
 2651              	.LVL361:
 865:/home/baikal/workspace/C50/Huawei_IoT_Agent_Tiny_SDK_Linux//lwm2m/core/objects.c ****     lwm2m_object_t *objectP;
 866:/home/baikal/workspace/C50/Huawei_IoT_Agent_Tiny_SDK_Linux//lwm2m/core/objects.c ****     lwm2m_object_t *securityObjP = NULL;
 867:/home/baikal/workspace/C50/Huawei_IoT_Agent_Tiny_SDK_Linux//lwm2m/core/objects.c ****     lwm2m_object_t *serverObjP = NULL;
 868:/home/baikal/workspace/C50/Huawei_IoT_Agent_Tiny_SDK_Linux//lwm2m/core/objects.c ****     lwm2m_list_t *securityInstP;    // instanceID of the server in the LWM2M Security Object
 869:/home/baikal/workspace/C50/Huawei_IoT_Agent_Tiny_SDK_Linux//lwm2m/core/objects.c ****     int number = 0;
 870:/home/baikal/workspace/C50/Huawei_IoT_Agent_Tiny_SDK_Linux//lwm2m/core/objects.c **** 
