GAS LISTING /tmp/ccEvjyYW.s 			page 1


   1              		.file	"object_security.c"
   2              		.text
   3              	.Ltext0:
   4              		.section	.text.prv_security_delete,"ax",@progbits
   6              	prv_security_delete:
   7              	.LFB74:
   8              		.file 1 "/home/baikal/workspace/C50/Huawei_IoT_Agent_Tiny_SDK_Linux//agent_tiny/lwm2m_client/objec
   1:/home/baikal/workspace/C50/Huawei_IoT_Agent_Tiny_SDK_Linux//agent_tiny/lwm2m_client/object_security.c **** /*----------------------------------------------------------------------------
   2:/home/baikal/workspace/C50/Huawei_IoT_Agent_Tiny_SDK_Linux//agent_tiny/lwm2m_client/object_security.c ****  * Copyright (c) <2016-2018>, <Huawei Technologies Co., Ltd>
   3:/home/baikal/workspace/C50/Huawei_IoT_Agent_Tiny_SDK_Linux//agent_tiny/lwm2m_client/object_security.c ****  * All rights reserved.
   4:/home/baikal/workspace/C50/Huawei_IoT_Agent_Tiny_SDK_Linux//agent_tiny/lwm2m_client/object_security.c ****  * Redistribution and use in source and binary forms, with or without modification,
   5:/home/baikal/workspace/C50/Huawei_IoT_Agent_Tiny_SDK_Linux//agent_tiny/lwm2m_client/object_security.c ****  * are permitted provided that the following conditions are met:
   6:/home/baikal/workspace/C50/Huawei_IoT_Agent_Tiny_SDK_Linux//agent_tiny/lwm2m_client/object_security.c ****  * 1. Redistributions of source code must retain the above copyright notice, this list of
   7:/home/baikal/workspace/C50/Huawei_IoT_Agent_Tiny_SDK_Linux//agent_tiny/lwm2m_client/object_security.c ****  * conditions and the following disclaimer.
   8:/home/baikal/workspace/C50/Huawei_IoT_Agent_Tiny_SDK_Linux//agent_tiny/lwm2m_client/object_security.c ****  * 2. Redistributions in binary form must reproduce the above copyright notice, this list
   9:/home/baikal/workspace/C50/Huawei_IoT_Agent_Tiny_SDK_Linux//agent_tiny/lwm2m_client/object_security.c ****  * of conditions and the following disclaimer in the documentation and/or other materials
  10:/home/baikal/workspace/C50/Huawei_IoT_Agent_Tiny_SDK_Linux//agent_tiny/lwm2m_client/object_security.c ****  * provided with the distribution.
  11:/home/baikal/workspace/C50/Huawei_IoT_Agent_Tiny_SDK_Linux//agent_tiny/lwm2m_client/object_security.c ****  * 3. Neither the name of the copyright holder nor the names of its contributors may be used
  12:/home/baikal/workspace/C50/Huawei_IoT_Agent_Tiny_SDK_Linux//agent_tiny/lwm2m_client/object_security.c ****  * to endorse or promote products derived from this software without specific prior written
  13:/home/baikal/workspace/C50/Huawei_IoT_Agent_Tiny_SDK_Linux//agent_tiny/lwm2m_client/object_security.c ****  * permission.
  14:/home/baikal/workspace/C50/Huawei_IoT_Agent_Tiny_SDK_Linux//agent_tiny/lwm2m_client/object_security.c ****  * THIS SOFTWARE IS PROVIDED BY THE COPYRIGHT HOLDERS AND CONTRIBUTORS
  15:/home/baikal/workspace/C50/Huawei_IoT_Agent_Tiny_SDK_Linux//agent_tiny/lwm2m_client/object_security.c ****  * "AS IS" AND ANY EXPRESS OR IMPLIED WARRANTIES, INCLUDING, BUT NOT LIMITED TO,
  16:/home/baikal/workspace/C50/Huawei_IoT_Agent_Tiny_SDK_Linux//agent_tiny/lwm2m_client/object_security.c ****  * THE IMPLIED WARRANTIES OF MERCHANTABILITY AND FITNESS FOR A PARTICULAR
  17:/home/baikal/workspace/C50/Huawei_IoT_Agent_Tiny_SDK_Linux//agent_tiny/lwm2m_client/object_security.c ****  * PURPOSE ARE DISCLAIMED. IN NO EVENT SHALL THE COPYRIGHT HOLDER OR
  18:/home/baikal/workspace/C50/Huawei_IoT_Agent_Tiny_SDK_Linux//agent_tiny/lwm2m_client/object_security.c ****  * CONTRIBUTORS BE LIABLE FOR ANY DIRECT, INDIRECT, INCIDENTAL, SPECIAL,
  19:/home/baikal/workspace/C50/Huawei_IoT_Agent_Tiny_SDK_Linux//agent_tiny/lwm2m_client/object_security.c ****  * EXEMPLARY, OR CONSEQUENTIAL DAMAGES (INCLUDING, BUT NOT LIMITED TO,
  20:/home/baikal/workspace/C50/Huawei_IoT_Agent_Tiny_SDK_Linux//agent_tiny/lwm2m_client/object_security.c ****  * PROCUREMENT OF SUBSTITUTE GOODS OR SERVICES; LOSS OF USE, DATA, OR PROFITS;
  21:/home/baikal/workspace/C50/Huawei_IoT_Agent_Tiny_SDK_Linux//agent_tiny/lwm2m_client/object_security.c ****  * OR BUSINESS INTERRUPTION) HOWEVER CAUSED AND ON ANY THEORY OF LIABILITY,
  22:/home/baikal/workspace/C50/Huawei_IoT_Agent_Tiny_SDK_Linux//agent_tiny/lwm2m_client/object_security.c ****  * WHETHER IN CONTRACT, STRICT LIABILITY, OR TORT (INCLUDING NEGLIGENCE OR
  23:/home/baikal/workspace/C50/Huawei_IoT_Agent_Tiny_SDK_Linux//agent_tiny/lwm2m_client/object_security.c ****  * OTHERWISE) ARISING IN ANY WAY OUT OF THE USE OF THIS SOFTWARE, EVEN IF
  24:/home/baikal/workspace/C50/Huawei_IoT_Agent_Tiny_SDK_Linux//agent_tiny/lwm2m_client/object_security.c ****  * ADVISED OF THE POSSIBILITY OF SUCH DAMAGE.
  25:/home/baikal/workspace/C50/Huawei_IoT_Agent_Tiny_SDK_Linux//agent_tiny/lwm2m_client/object_security.c ****  *---------------------------------------------------------------------------*/
  26:/home/baikal/workspace/C50/Huawei_IoT_Agent_Tiny_SDK_Linux//agent_tiny/lwm2m_client/object_security.c **** /*----------------------------------------------------------------------------
  27:/home/baikal/workspace/C50/Huawei_IoT_Agent_Tiny_SDK_Linux//agent_tiny/lwm2m_client/object_security.c ****  * Notice of Export Control Law
  28:/home/baikal/workspace/C50/Huawei_IoT_Agent_Tiny_SDK_Linux//agent_tiny/lwm2m_client/object_security.c ****  * ===============================================
  29:/home/baikal/workspace/C50/Huawei_IoT_Agent_Tiny_SDK_Linux//agent_tiny/lwm2m_client/object_security.c ****  * Huawei LiteOS may be subject to applicable export control laws and regulations, which might
  30:/home/baikal/workspace/C50/Huawei_IoT_Agent_Tiny_SDK_Linux//agent_tiny/lwm2m_client/object_security.c ****  * include those applicable to Huawei LiteOS of U.S. and the country in which you are located.
  31:/home/baikal/workspace/C50/Huawei_IoT_Agent_Tiny_SDK_Linux//agent_tiny/lwm2m_client/object_security.c ****  * Import, export and usage of Huawei LiteOS in any manner by you shall be in compliance with such
  32:/home/baikal/workspace/C50/Huawei_IoT_Agent_Tiny_SDK_Linux//agent_tiny/lwm2m_client/object_security.c ****  * applicable export control laws and regulations.
  33:/home/baikal/workspace/C50/Huawei_IoT_Agent_Tiny_SDK_Linux//agent_tiny/lwm2m_client/object_security.c ****  *---------------------------------------------------------------------------*/
  34:/home/baikal/workspace/C50/Huawei_IoT_Agent_Tiny_SDK_Linux//agent_tiny/lwm2m_client/object_security.c **** 
  35:/home/baikal/workspace/C50/Huawei_IoT_Agent_Tiny_SDK_Linux//agent_tiny/lwm2m_client/object_security.c **** /*******************************************************************************
  36:/home/baikal/workspace/C50/Huawei_IoT_Agent_Tiny_SDK_Linux//agent_tiny/lwm2m_client/object_security.c ****  *
  37:/home/baikal/workspace/C50/Huawei_IoT_Agent_Tiny_SDK_Linux//agent_tiny/lwm2m_client/object_security.c ****  * Copyright (c) 2013, 2014 Intel Corporation and others.
  38:/home/baikal/workspace/C50/Huawei_IoT_Agent_Tiny_SDK_Linux//agent_tiny/lwm2m_client/object_security.c ****  * All rights reserved. This program and the accompanying materials
  39:/home/baikal/workspace/C50/Huawei_IoT_Agent_Tiny_SDK_Linux//agent_tiny/lwm2m_client/object_security.c ****  * are made available under the terms of the Eclipse Public License v1.0
  40:/home/baikal/workspace/C50/Huawei_IoT_Agent_Tiny_SDK_Linux//agent_tiny/lwm2m_client/object_security.c ****  * and Eclipse Distribution License v1.0 which accompany this distribution.
  41:/home/baikal/workspace/C50/Huawei_IoT_Agent_Tiny_SDK_Linux//agent_tiny/lwm2m_client/object_security.c ****  *
  42:/home/baikal/workspace/C50/Huawei_IoT_Agent_Tiny_SDK_Linux//agent_tiny/lwm2m_client/object_security.c ****  * The Eclipse Public License is available at
  43:/home/baikal/workspace/C50/Huawei_IoT_Agent_Tiny_SDK_Linux//agent_tiny/lwm2m_client/object_security.c ****  *    http://www.eclipse.org/legal/epl-v10.html
  44:/home/baikal/workspace/C50/Huawei_IoT_Agent_Tiny_SDK_Linux//agent_tiny/lwm2m_client/object_security.c ****  * The Eclipse Distribution License is available at
  45:/home/baikal/workspace/C50/Huawei_IoT_Agent_Tiny_SDK_Linux//agent_tiny/lwm2m_client/object_security.c ****  *    http://www.eclipse.org/org/documents/edl-v10.php.
  46:/home/baikal/workspace/C50/Huawei_IoT_Agent_Tiny_SDK_Linux//agent_tiny/lwm2m_client/object_security.c ****  *
  47:/home/baikal/workspace/C50/Huawei_IoT_Agent_Tiny_SDK_Linux//agent_tiny/lwm2m_client/object_security.c ****  * Contributors:
  48:/home/baikal/workspace/C50/Huawei_IoT_Agent_Tiny_SDK_Linux//agent_tiny/lwm2m_client/object_security.c ****  *    David Navarro, Intel Corporation - initial API and implementation
  49:/home/baikal/workspace/C50/Huawei_IoT_Agent_Tiny_SDK_Linux//agent_tiny/lwm2m_client/object_security.c ****  *    Bosch Software Innovations GmbH - Please refer to git log
  50:/home/baikal/workspace/C50/Huawei_IoT_Agent_Tiny_SDK_Linux//agent_tiny/lwm2m_client/object_security.c ****  *    Pascal Rieux - Please refer to git log
GAS LISTING /tmp/ccEvjyYW.s 			page 2


  51:/home/baikal/workspace/C50/Huawei_IoT_Agent_Tiny_SDK_Linux//agent_tiny/lwm2m_client/object_security.c ****  *    Ville Skytt? - Please refer to git log
  52:/home/baikal/workspace/C50/Huawei_IoT_Agent_Tiny_SDK_Linux//agent_tiny/lwm2m_client/object_security.c ****  *
  53:/home/baikal/workspace/C50/Huawei_IoT_Agent_Tiny_SDK_Linux//agent_tiny/lwm2m_client/object_security.c ****  *******************************************************************************/
  54:/home/baikal/workspace/C50/Huawei_IoT_Agent_Tiny_SDK_Linux//agent_tiny/lwm2m_client/object_security.c **** 
  55:/home/baikal/workspace/C50/Huawei_IoT_Agent_Tiny_SDK_Linux//agent_tiny/lwm2m_client/object_security.c **** /*
  56:/home/baikal/workspace/C50/Huawei_IoT_Agent_Tiny_SDK_Linux//agent_tiny/lwm2m_client/object_security.c ****  *  Resources:
  57:/home/baikal/workspace/C50/Huawei_IoT_Agent_Tiny_SDK_Linux//agent_tiny/lwm2m_client/object_security.c ****  *
  58:/home/baikal/workspace/C50/Huawei_IoT_Agent_Tiny_SDK_Linux//agent_tiny/lwm2m_client/object_security.c ****  *          Name            | ID | Operations | Instances | Mandatory |  Type   |  Range  | Units |
  59:/home/baikal/workspace/C50/Huawei_IoT_Agent_Tiny_SDK_Linux//agent_tiny/lwm2m_client/object_security.c ****  *  Server URI              |  0 |            |  Single   |    Yes    | String  |         |       |
  60:/home/baikal/workspace/C50/Huawei_IoT_Agent_Tiny_SDK_Linux//agent_tiny/lwm2m_client/object_security.c ****  *  Bootstrap Server        |  1 |            |  Single   |    Yes    | Boolean |         |       |
  61:/home/baikal/workspace/C50/Huawei_IoT_Agent_Tiny_SDK_Linux//agent_tiny/lwm2m_client/object_security.c ****  *  Security Mode           |  2 |            |  Single   |    Yes    | Integer |   0-3   |       |
  62:/home/baikal/workspace/C50/Huawei_IoT_Agent_Tiny_SDK_Linux//agent_tiny/lwm2m_client/object_security.c ****  *  Public Key or ID        |  3 |            |  Single   |    Yes    | Opaque  |         |       |
  63:/home/baikal/workspace/C50/Huawei_IoT_Agent_Tiny_SDK_Linux//agent_tiny/lwm2m_client/object_security.c ****  *  Server Public Key or ID |  4 |            |  Single   |    Yes    | Opaque  |         |       |
  64:/home/baikal/workspace/C50/Huawei_IoT_Agent_Tiny_SDK_Linux//agent_tiny/lwm2m_client/object_security.c ****  *  Secret Key              |  5 |            |  Single   |    Yes    | Opaque  |         |       |
  65:/home/baikal/workspace/C50/Huawei_IoT_Agent_Tiny_SDK_Linux//agent_tiny/lwm2m_client/object_security.c ****  *  SMS Security Mode       |  6 |            |  Single   |    No     | Integer |  0-255  |       |
  66:/home/baikal/workspace/C50/Huawei_IoT_Agent_Tiny_SDK_Linux//agent_tiny/lwm2m_client/object_security.c ****  *  SMS Binding Key Param.  |  7 |            |  Single   |    No     | Opaque  |   6 B   |       |
  67:/home/baikal/workspace/C50/Huawei_IoT_Agent_Tiny_SDK_Linux//agent_tiny/lwm2m_client/object_security.c ****  *  SMS Binding Secret Keys |  8 |            |  Single   |    No     | Opaque  | 32-48 B |       |
  68:/home/baikal/workspace/C50/Huawei_IoT_Agent_Tiny_SDK_Linux//agent_tiny/lwm2m_client/object_security.c ****  *  Server SMS Number       |  9 |            |  Single   |    No     | String  |         |       |
  69:/home/baikal/workspace/C50/Huawei_IoT_Agent_Tiny_SDK_Linux//agent_tiny/lwm2m_client/object_security.c ****  *  Short Server ID         | 10 |            |  Single   |    No     | Integer | 1-65535 |       |
  70:/home/baikal/workspace/C50/Huawei_IoT_Agent_Tiny_SDK_Linux//agent_tiny/lwm2m_client/object_security.c ****  *  Client Hold Off Time    | 11 |            |  Single   |    No     | Integer |         |   s   |
  71:/home/baikal/workspace/C50/Huawei_IoT_Agent_Tiny_SDK_Linux//agent_tiny/lwm2m_client/object_security.c ****  *  BS Account Timeout      | 12 |            |  Single   |    No     | Integer |         |   s   |
  72:/home/baikal/workspace/C50/Huawei_IoT_Agent_Tiny_SDK_Linux//agent_tiny/lwm2m_client/object_security.c ****  *
  73:/home/baikal/workspace/C50/Huawei_IoT_Agent_Tiny_SDK_Linux//agent_tiny/lwm2m_client/object_security.c ****  */
  74:/home/baikal/workspace/C50/Huawei_IoT_Agent_Tiny_SDK_Linux//agent_tiny/lwm2m_client/object_security.c **** 
  75:/home/baikal/workspace/C50/Huawei_IoT_Agent_Tiny_SDK_Linux//agent_tiny/lwm2m_client/object_security.c **** /*
  76:/home/baikal/workspace/C50/Huawei_IoT_Agent_Tiny_SDK_Linux//agent_tiny/lwm2m_client/object_security.c ****  * Here we implement a very basic LWM2M Security Object which only knows NoSec security mode.
  77:/home/baikal/workspace/C50/Huawei_IoT_Agent_Tiny_SDK_Linux//agent_tiny/lwm2m_client/object_security.c ****  */
  78:/home/baikal/workspace/C50/Huawei_IoT_Agent_Tiny_SDK_Linux//agent_tiny/lwm2m_client/object_security.c **** 
  79:/home/baikal/workspace/C50/Huawei_IoT_Agent_Tiny_SDK_Linux//agent_tiny/lwm2m_client/object_security.c **** #include "internals.h"
  80:/home/baikal/workspace/C50/Huawei_IoT_Agent_Tiny_SDK_Linux//agent_tiny/lwm2m_client/object_security.c **** #include "object_comm.h"
  81:/home/baikal/workspace/C50/Huawei_IoT_Agent_Tiny_SDK_Linux//agent_tiny/lwm2m_client/object_security.c **** 
  82:/home/baikal/workspace/C50/Huawei_IoT_Agent_Tiny_SDK_Linux//agent_tiny/lwm2m_client/object_security.c **** #define SECURITY_HOLD_OFF_TIME 10
  83:/home/baikal/workspace/C50/Huawei_IoT_Agent_Tiny_SDK_Linux//agent_tiny/lwm2m_client/object_security.c **** 
  84:/home/baikal/workspace/C50/Huawei_IoT_Agent_Tiny_SDK_Linux//agent_tiny/lwm2m_client/object_security.c **** static uint8_t prv_get_value(lwm2m_data_t *dataP,
  85:/home/baikal/workspace/C50/Huawei_IoT_Agent_Tiny_SDK_Linux//agent_tiny/lwm2m_client/object_security.c ****                              security_instance_t *targetP)
  86:/home/baikal/workspace/C50/Huawei_IoT_Agent_Tiny_SDK_Linux//agent_tiny/lwm2m_client/object_security.c **** {
  87:/home/baikal/workspace/C50/Huawei_IoT_Agent_Tiny_SDK_Linux//agent_tiny/lwm2m_client/object_security.c ****     switch (dataP->id)
  88:/home/baikal/workspace/C50/Huawei_IoT_Agent_Tiny_SDK_Linux//agent_tiny/lwm2m_client/object_security.c ****     {
  89:/home/baikal/workspace/C50/Huawei_IoT_Agent_Tiny_SDK_Linux//agent_tiny/lwm2m_client/object_security.c ****     case LWM2M_SECURITY_URI_ID:
  90:/home/baikal/workspace/C50/Huawei_IoT_Agent_Tiny_SDK_Linux//agent_tiny/lwm2m_client/object_security.c ****         lwm2m_data_encode_string(targetP->uri, dataP);
  91:/home/baikal/workspace/C50/Huawei_IoT_Agent_Tiny_SDK_Linux//agent_tiny/lwm2m_client/object_security.c ****         return COAP_205_CONTENT;
  92:/home/baikal/workspace/C50/Huawei_IoT_Agent_Tiny_SDK_Linux//agent_tiny/lwm2m_client/object_security.c **** 
  93:/home/baikal/workspace/C50/Huawei_IoT_Agent_Tiny_SDK_Linux//agent_tiny/lwm2m_client/object_security.c ****     case LWM2M_SECURITY_BOOTSTRAP_ID:
  94:/home/baikal/workspace/C50/Huawei_IoT_Agent_Tiny_SDK_Linux//agent_tiny/lwm2m_client/object_security.c ****         lwm2m_data_encode_bool(targetP->isBootstrap, dataP);
  95:/home/baikal/workspace/C50/Huawei_IoT_Agent_Tiny_SDK_Linux//agent_tiny/lwm2m_client/object_security.c ****         return COAP_205_CONTENT;
  96:/home/baikal/workspace/C50/Huawei_IoT_Agent_Tiny_SDK_Linux//agent_tiny/lwm2m_client/object_security.c **** 
  97:/home/baikal/workspace/C50/Huawei_IoT_Agent_Tiny_SDK_Linux//agent_tiny/lwm2m_client/object_security.c ****     case LWM2M_SECURITY_SECURITY_ID:
  98:/home/baikal/workspace/C50/Huawei_IoT_Agent_Tiny_SDK_Linux//agent_tiny/lwm2m_client/object_security.c ****         lwm2m_data_encode_int(targetP->securityMode, dataP);
  99:/home/baikal/workspace/C50/Huawei_IoT_Agent_Tiny_SDK_Linux//agent_tiny/lwm2m_client/object_security.c ****         return COAP_205_CONTENT;
 100:/home/baikal/workspace/C50/Huawei_IoT_Agent_Tiny_SDK_Linux//agent_tiny/lwm2m_client/object_security.c **** 
 101:/home/baikal/workspace/C50/Huawei_IoT_Agent_Tiny_SDK_Linux//agent_tiny/lwm2m_client/object_security.c ****     case LWM2M_SECURITY_PUBLIC_KEY_ID:
 102:/home/baikal/workspace/C50/Huawei_IoT_Agent_Tiny_SDK_Linux//agent_tiny/lwm2m_client/object_security.c ****         lwm2m_data_encode_opaque((uint8_t *)targetP->publicIdentity, targetP->publicIdLen, dataP);
 103:/home/baikal/workspace/C50/Huawei_IoT_Agent_Tiny_SDK_Linux//agent_tiny/lwm2m_client/object_security.c ****         return COAP_205_CONTENT;
 104:/home/baikal/workspace/C50/Huawei_IoT_Agent_Tiny_SDK_Linux//agent_tiny/lwm2m_client/object_security.c **** 
 105:/home/baikal/workspace/C50/Huawei_IoT_Agent_Tiny_SDK_Linux//agent_tiny/lwm2m_client/object_security.c ****     case LWM2M_SECURITY_SERVER_PUBLIC_KEY_ID:
 106:/home/baikal/workspace/C50/Huawei_IoT_Agent_Tiny_SDK_Linux//agent_tiny/lwm2m_client/object_security.c ****         lwm2m_data_encode_opaque((uint8_t *)targetP->serverPublicKey, targetP->serverPublicKeyLen, 
 107:/home/baikal/workspace/C50/Huawei_IoT_Agent_Tiny_SDK_Linux//agent_tiny/lwm2m_client/object_security.c ****         return COAP_205_CONTENT;
GAS LISTING /tmp/ccEvjyYW.s 			page 3


 108:/home/baikal/workspace/C50/Huawei_IoT_Agent_Tiny_SDK_Linux//agent_tiny/lwm2m_client/object_security.c **** 
 109:/home/baikal/workspace/C50/Huawei_IoT_Agent_Tiny_SDK_Linux//agent_tiny/lwm2m_client/object_security.c ****     case LWM2M_SECURITY_SECRET_KEY_ID:
 110:/home/baikal/workspace/C50/Huawei_IoT_Agent_Tiny_SDK_Linux//agent_tiny/lwm2m_client/object_security.c ****         lwm2m_data_encode_opaque((uint8_t *)targetP->secretKey, targetP->secretKeyLen, dataP);
 111:/home/baikal/workspace/C50/Huawei_IoT_Agent_Tiny_SDK_Linux//agent_tiny/lwm2m_client/object_security.c ****         return COAP_205_CONTENT;
 112:/home/baikal/workspace/C50/Huawei_IoT_Agent_Tiny_SDK_Linux//agent_tiny/lwm2m_client/object_security.c **** 
 113:/home/baikal/workspace/C50/Huawei_IoT_Agent_Tiny_SDK_Linux//agent_tiny/lwm2m_client/object_security.c ****     case LWM2M_SECURITY_SMS_SECURITY_ID:
 114:/home/baikal/workspace/C50/Huawei_IoT_Agent_Tiny_SDK_Linux//agent_tiny/lwm2m_client/object_security.c ****         lwm2m_data_encode_int(targetP->smsSecurityMode, dataP);
 115:/home/baikal/workspace/C50/Huawei_IoT_Agent_Tiny_SDK_Linux//agent_tiny/lwm2m_client/object_security.c ****         return COAP_205_CONTENT;
 116:/home/baikal/workspace/C50/Huawei_IoT_Agent_Tiny_SDK_Linux//agent_tiny/lwm2m_client/object_security.c **** 
 117:/home/baikal/workspace/C50/Huawei_IoT_Agent_Tiny_SDK_Linux//agent_tiny/lwm2m_client/object_security.c ****     case LWM2M_SECURITY_SMS_KEY_PARAM_ID:
 118:/home/baikal/workspace/C50/Huawei_IoT_Agent_Tiny_SDK_Linux//agent_tiny/lwm2m_client/object_security.c ****         lwm2m_data_encode_opaque((uint8_t *)targetP->smsParams, targetP->smsParamsLen, dataP);
 119:/home/baikal/workspace/C50/Huawei_IoT_Agent_Tiny_SDK_Linux//agent_tiny/lwm2m_client/object_security.c ****         return COAP_205_CONTENT;
 120:/home/baikal/workspace/C50/Huawei_IoT_Agent_Tiny_SDK_Linux//agent_tiny/lwm2m_client/object_security.c **** 
 121:/home/baikal/workspace/C50/Huawei_IoT_Agent_Tiny_SDK_Linux//agent_tiny/lwm2m_client/object_security.c ****     case LWM2M_SECURITY_SMS_SECRET_KEY_ID:
 122:/home/baikal/workspace/C50/Huawei_IoT_Agent_Tiny_SDK_Linux//agent_tiny/lwm2m_client/object_security.c ****         lwm2m_data_encode_opaque((uint8_t *)targetP->smsSecret, targetP->smsSecretLen, dataP);
 123:/home/baikal/workspace/C50/Huawei_IoT_Agent_Tiny_SDK_Linux//agent_tiny/lwm2m_client/object_security.c ****         return COAP_205_CONTENT;
 124:/home/baikal/workspace/C50/Huawei_IoT_Agent_Tiny_SDK_Linux//agent_tiny/lwm2m_client/object_security.c **** 
 125:/home/baikal/workspace/C50/Huawei_IoT_Agent_Tiny_SDK_Linux//agent_tiny/lwm2m_client/object_security.c ****     case LWM2M_SECURITY_SMS_SERVER_NUMBER_ID:
 126:/home/baikal/workspace/C50/Huawei_IoT_Agent_Tiny_SDK_Linux//agent_tiny/lwm2m_client/object_security.c ****         lwm2m_data_encode_int(0, dataP);
 127:/home/baikal/workspace/C50/Huawei_IoT_Agent_Tiny_SDK_Linux//agent_tiny/lwm2m_client/object_security.c ****         return COAP_205_CONTENT;
 128:/home/baikal/workspace/C50/Huawei_IoT_Agent_Tiny_SDK_Linux//agent_tiny/lwm2m_client/object_security.c **** 
 129:/home/baikal/workspace/C50/Huawei_IoT_Agent_Tiny_SDK_Linux//agent_tiny/lwm2m_client/object_security.c ****     case LWM2M_SECURITY_SHORT_SERVER_ID:
 130:/home/baikal/workspace/C50/Huawei_IoT_Agent_Tiny_SDK_Linux//agent_tiny/lwm2m_client/object_security.c ****         lwm2m_data_encode_int(targetP->shortID, dataP);
 131:/home/baikal/workspace/C50/Huawei_IoT_Agent_Tiny_SDK_Linux//agent_tiny/lwm2m_client/object_security.c ****         return COAP_205_CONTENT;
 132:/home/baikal/workspace/C50/Huawei_IoT_Agent_Tiny_SDK_Linux//agent_tiny/lwm2m_client/object_security.c **** 
 133:/home/baikal/workspace/C50/Huawei_IoT_Agent_Tiny_SDK_Linux//agent_tiny/lwm2m_client/object_security.c ****     case LWM2M_SECURITY_HOLD_OFF_ID:
 134:/home/baikal/workspace/C50/Huawei_IoT_Agent_Tiny_SDK_Linux//agent_tiny/lwm2m_client/object_security.c ****         lwm2m_data_encode_int(targetP->clientHoldOffTime, dataP);
 135:/home/baikal/workspace/C50/Huawei_IoT_Agent_Tiny_SDK_Linux//agent_tiny/lwm2m_client/object_security.c ****         return COAP_205_CONTENT;
 136:/home/baikal/workspace/C50/Huawei_IoT_Agent_Tiny_SDK_Linux//agent_tiny/lwm2m_client/object_security.c **** 
 137:/home/baikal/workspace/C50/Huawei_IoT_Agent_Tiny_SDK_Linux//agent_tiny/lwm2m_client/object_security.c ****     case LWM2M_SECURITY_BOOTSTRAP_TIMEOUT_ID:
 138:/home/baikal/workspace/C50/Huawei_IoT_Agent_Tiny_SDK_Linux//agent_tiny/lwm2m_client/object_security.c ****         lwm2m_data_encode_int(targetP->bootstrapServerAccountTimeout, dataP);
 139:/home/baikal/workspace/C50/Huawei_IoT_Agent_Tiny_SDK_Linux//agent_tiny/lwm2m_client/object_security.c ****         return COAP_205_CONTENT;
 140:/home/baikal/workspace/C50/Huawei_IoT_Agent_Tiny_SDK_Linux//agent_tiny/lwm2m_client/object_security.c **** 
 141:/home/baikal/workspace/C50/Huawei_IoT_Agent_Tiny_SDK_Linux//agent_tiny/lwm2m_client/object_security.c ****     default:
 142:/home/baikal/workspace/C50/Huawei_IoT_Agent_Tiny_SDK_Linux//agent_tiny/lwm2m_client/object_security.c ****         return COAP_404_NOT_FOUND;
 143:/home/baikal/workspace/C50/Huawei_IoT_Agent_Tiny_SDK_Linux//agent_tiny/lwm2m_client/object_security.c ****     }
 144:/home/baikal/workspace/C50/Huawei_IoT_Agent_Tiny_SDK_Linux//agent_tiny/lwm2m_client/object_security.c **** }
 145:/home/baikal/workspace/C50/Huawei_IoT_Agent_Tiny_SDK_Linux//agent_tiny/lwm2m_client/object_security.c **** 
 146:/home/baikal/workspace/C50/Huawei_IoT_Agent_Tiny_SDK_Linux//agent_tiny/lwm2m_client/object_security.c **** static uint8_t prv_security_read(uint16_t instanceId,
 147:/home/baikal/workspace/C50/Huawei_IoT_Agent_Tiny_SDK_Linux//agent_tiny/lwm2m_client/object_security.c ****                                  int *numDataP,
 148:/home/baikal/workspace/C50/Huawei_IoT_Agent_Tiny_SDK_Linux//agent_tiny/lwm2m_client/object_security.c ****                                  lwm2m_data_t **dataArrayP,
 149:/home/baikal/workspace/C50/Huawei_IoT_Agent_Tiny_SDK_Linux//agent_tiny/lwm2m_client/object_security.c ****                                  lwm2m_data_cfg_t *dataCfg,
 150:/home/baikal/workspace/C50/Huawei_IoT_Agent_Tiny_SDK_Linux//agent_tiny/lwm2m_client/object_security.c ****                                  lwm2m_object_t *objectP)
 151:/home/baikal/workspace/C50/Huawei_IoT_Agent_Tiny_SDK_Linux//agent_tiny/lwm2m_client/object_security.c **** {
 152:/home/baikal/workspace/C50/Huawei_IoT_Agent_Tiny_SDK_Linux//agent_tiny/lwm2m_client/object_security.c ****     security_instance_t *targetP;
 153:/home/baikal/workspace/C50/Huawei_IoT_Agent_Tiny_SDK_Linux//agent_tiny/lwm2m_client/object_security.c ****     uint8_t result;
 154:/home/baikal/workspace/C50/Huawei_IoT_Agent_Tiny_SDK_Linux//agent_tiny/lwm2m_client/object_security.c ****     int i;
 155:/home/baikal/workspace/C50/Huawei_IoT_Agent_Tiny_SDK_Linux//agent_tiny/lwm2m_client/object_security.c **** 
 156:/home/baikal/workspace/C50/Huawei_IoT_Agent_Tiny_SDK_Linux//agent_tiny/lwm2m_client/object_security.c ****     targetP = (security_instance_t *)lwm2m_list_find(objectP->instanceList, instanceId);
 157:/home/baikal/workspace/C50/Huawei_IoT_Agent_Tiny_SDK_Linux//agent_tiny/lwm2m_client/object_security.c ****     if (NULL == targetP) return COAP_404_NOT_FOUND;
 158:/home/baikal/workspace/C50/Huawei_IoT_Agent_Tiny_SDK_Linux//agent_tiny/lwm2m_client/object_security.c **** 
 159:/home/baikal/workspace/C50/Huawei_IoT_Agent_Tiny_SDK_Linux//agent_tiny/lwm2m_client/object_security.c ****     // is the server asking for the full instance ?
 160:/home/baikal/workspace/C50/Huawei_IoT_Agent_Tiny_SDK_Linux//agent_tiny/lwm2m_client/object_security.c ****     if (*numDataP == 0)
 161:/home/baikal/workspace/C50/Huawei_IoT_Agent_Tiny_SDK_Linux//agent_tiny/lwm2m_client/object_security.c ****     {
 162:/home/baikal/workspace/C50/Huawei_IoT_Agent_Tiny_SDK_Linux//agent_tiny/lwm2m_client/object_security.c ****         uint16_t resList[] = {LWM2M_SECURITY_URI_ID,
 163:/home/baikal/workspace/C50/Huawei_IoT_Agent_Tiny_SDK_Linux//agent_tiny/lwm2m_client/object_security.c ****                               LWM2M_SECURITY_BOOTSTRAP_ID,
 164:/home/baikal/workspace/C50/Huawei_IoT_Agent_Tiny_SDK_Linux//agent_tiny/lwm2m_client/object_security.c ****                               LWM2M_SECURITY_SECURITY_ID,
GAS LISTING /tmp/ccEvjyYW.s 			page 4


 165:/home/baikal/workspace/C50/Huawei_IoT_Agent_Tiny_SDK_Linux//agent_tiny/lwm2m_client/object_security.c ****                               LWM2M_SECURITY_PUBLIC_KEY_ID,
 166:/home/baikal/workspace/C50/Huawei_IoT_Agent_Tiny_SDK_Linux//agent_tiny/lwm2m_client/object_security.c ****                               LWM2M_SECURITY_SERVER_PUBLIC_KEY_ID,
 167:/home/baikal/workspace/C50/Huawei_IoT_Agent_Tiny_SDK_Linux//agent_tiny/lwm2m_client/object_security.c ****                               LWM2M_SECURITY_SECRET_KEY_ID,
 168:/home/baikal/workspace/C50/Huawei_IoT_Agent_Tiny_SDK_Linux//agent_tiny/lwm2m_client/object_security.c ****                               LWM2M_SECURITY_SMS_SECURITY_ID,
 169:/home/baikal/workspace/C50/Huawei_IoT_Agent_Tiny_SDK_Linux//agent_tiny/lwm2m_client/object_security.c ****                               LWM2M_SECURITY_SMS_KEY_PARAM_ID,
 170:/home/baikal/workspace/C50/Huawei_IoT_Agent_Tiny_SDK_Linux//agent_tiny/lwm2m_client/object_security.c ****                               LWM2M_SECURITY_SMS_SECRET_KEY_ID,
 171:/home/baikal/workspace/C50/Huawei_IoT_Agent_Tiny_SDK_Linux//agent_tiny/lwm2m_client/object_security.c ****                               LWM2M_SECURITY_SMS_SERVER_NUMBER_ID,
 172:/home/baikal/workspace/C50/Huawei_IoT_Agent_Tiny_SDK_Linux//agent_tiny/lwm2m_client/object_security.c ****                               LWM2M_SECURITY_SHORT_SERVER_ID,
 173:/home/baikal/workspace/C50/Huawei_IoT_Agent_Tiny_SDK_Linux//agent_tiny/lwm2m_client/object_security.c ****                               LWM2M_SECURITY_HOLD_OFF_ID,
 174:/home/baikal/workspace/C50/Huawei_IoT_Agent_Tiny_SDK_Linux//agent_tiny/lwm2m_client/object_security.c ****                               LWM2M_SECURITY_BOOTSTRAP_TIMEOUT_ID
 175:/home/baikal/workspace/C50/Huawei_IoT_Agent_Tiny_SDK_Linux//agent_tiny/lwm2m_client/object_security.c ****                              };
 176:/home/baikal/workspace/C50/Huawei_IoT_Agent_Tiny_SDK_Linux//agent_tiny/lwm2m_client/object_security.c ****         int nbRes = sizeof(resList) / sizeof(uint16_t);
 177:/home/baikal/workspace/C50/Huawei_IoT_Agent_Tiny_SDK_Linux//agent_tiny/lwm2m_client/object_security.c **** 
 178:/home/baikal/workspace/C50/Huawei_IoT_Agent_Tiny_SDK_Linux//agent_tiny/lwm2m_client/object_security.c ****         *dataArrayP = lwm2m_data_new(nbRes);
 179:/home/baikal/workspace/C50/Huawei_IoT_Agent_Tiny_SDK_Linux//agent_tiny/lwm2m_client/object_security.c ****         if (*dataArrayP == NULL) return COAP_500_INTERNAL_SERVER_ERROR;
 180:/home/baikal/workspace/C50/Huawei_IoT_Agent_Tiny_SDK_Linux//agent_tiny/lwm2m_client/object_security.c ****         *numDataP = nbRes;
 181:/home/baikal/workspace/C50/Huawei_IoT_Agent_Tiny_SDK_Linux//agent_tiny/lwm2m_client/object_security.c ****         for (i = 0 ; i < nbRes ; i++)
 182:/home/baikal/workspace/C50/Huawei_IoT_Agent_Tiny_SDK_Linux//agent_tiny/lwm2m_client/object_security.c ****         {
 183:/home/baikal/workspace/C50/Huawei_IoT_Agent_Tiny_SDK_Linux//agent_tiny/lwm2m_client/object_security.c ****             (*dataArrayP)[i].id = resList[i];
 184:/home/baikal/workspace/C50/Huawei_IoT_Agent_Tiny_SDK_Linux//agent_tiny/lwm2m_client/object_security.c ****         }
 185:/home/baikal/workspace/C50/Huawei_IoT_Agent_Tiny_SDK_Linux//agent_tiny/lwm2m_client/object_security.c ****     }
 186:/home/baikal/workspace/C50/Huawei_IoT_Agent_Tiny_SDK_Linux//agent_tiny/lwm2m_client/object_security.c **** 
 187:/home/baikal/workspace/C50/Huawei_IoT_Agent_Tiny_SDK_Linux//agent_tiny/lwm2m_client/object_security.c ****     i = 0;
 188:/home/baikal/workspace/C50/Huawei_IoT_Agent_Tiny_SDK_Linux//agent_tiny/lwm2m_client/object_security.c ****     do
 189:/home/baikal/workspace/C50/Huawei_IoT_Agent_Tiny_SDK_Linux//agent_tiny/lwm2m_client/object_security.c ****     {
 190:/home/baikal/workspace/C50/Huawei_IoT_Agent_Tiny_SDK_Linux//agent_tiny/lwm2m_client/object_security.c ****         result = prv_get_value((*dataArrayP) + i, targetP);
 191:/home/baikal/workspace/C50/Huawei_IoT_Agent_Tiny_SDK_Linux//agent_tiny/lwm2m_client/object_security.c ****         i++;
 192:/home/baikal/workspace/C50/Huawei_IoT_Agent_Tiny_SDK_Linux//agent_tiny/lwm2m_client/object_security.c ****     }
 193:/home/baikal/workspace/C50/Huawei_IoT_Agent_Tiny_SDK_Linux//agent_tiny/lwm2m_client/object_security.c ****     while (i < *numDataP && result == COAP_205_CONTENT);
 194:/home/baikal/workspace/C50/Huawei_IoT_Agent_Tiny_SDK_Linux//agent_tiny/lwm2m_client/object_security.c **** 
 195:/home/baikal/workspace/C50/Huawei_IoT_Agent_Tiny_SDK_Linux//agent_tiny/lwm2m_client/object_security.c ****     return result;
 196:/home/baikal/workspace/C50/Huawei_IoT_Agent_Tiny_SDK_Linux//agent_tiny/lwm2m_client/object_security.c **** }
 197:/home/baikal/workspace/C50/Huawei_IoT_Agent_Tiny_SDK_Linux//agent_tiny/lwm2m_client/object_security.c **** 
 198:/home/baikal/workspace/C50/Huawei_IoT_Agent_Tiny_SDK_Linux//agent_tiny/lwm2m_client/object_security.c **** #ifdef LWM2M_BOOTSTRAP
 199:/home/baikal/workspace/C50/Huawei_IoT_Agent_Tiny_SDK_Linux//agent_tiny/lwm2m_client/object_security.c **** 
 200:/home/baikal/workspace/C50/Huawei_IoT_Agent_Tiny_SDK_Linux//agent_tiny/lwm2m_client/object_security.c **** static uint8_t prv_security_write(uint16_t instanceId,
 201:/home/baikal/workspace/C50/Huawei_IoT_Agent_Tiny_SDK_Linux//agent_tiny/lwm2m_client/object_security.c ****                                   int numData,
 202:/home/baikal/workspace/C50/Huawei_IoT_Agent_Tiny_SDK_Linux//agent_tiny/lwm2m_client/object_security.c ****                                   lwm2m_data_t *dataArray,
 203:/home/baikal/workspace/C50/Huawei_IoT_Agent_Tiny_SDK_Linux//agent_tiny/lwm2m_client/object_security.c ****                                   lwm2m_object_t *objectP)
 204:/home/baikal/workspace/C50/Huawei_IoT_Agent_Tiny_SDK_Linux//agent_tiny/lwm2m_client/object_security.c **** {
 205:/home/baikal/workspace/C50/Huawei_IoT_Agent_Tiny_SDK_Linux//agent_tiny/lwm2m_client/object_security.c ****     security_instance_t *targetP;
 206:/home/baikal/workspace/C50/Huawei_IoT_Agent_Tiny_SDK_Linux//agent_tiny/lwm2m_client/object_security.c ****     int i;
 207:/home/baikal/workspace/C50/Huawei_IoT_Agent_Tiny_SDK_Linux//agent_tiny/lwm2m_client/object_security.c ****     uint8_t result = COAP_204_CHANGED;
 208:/home/baikal/workspace/C50/Huawei_IoT_Agent_Tiny_SDK_Linux//agent_tiny/lwm2m_client/object_security.c **** 
 209:/home/baikal/workspace/C50/Huawei_IoT_Agent_Tiny_SDK_Linux//agent_tiny/lwm2m_client/object_security.c ****     targetP = (security_instance_t *)lwm2m_list_find(objectP->instanceList, instanceId);
 210:/home/baikal/workspace/C50/Huawei_IoT_Agent_Tiny_SDK_Linux//agent_tiny/lwm2m_client/object_security.c ****     if (NULL == targetP)
 211:/home/baikal/workspace/C50/Huawei_IoT_Agent_Tiny_SDK_Linux//agent_tiny/lwm2m_client/object_security.c ****     {
 212:/home/baikal/workspace/C50/Huawei_IoT_Agent_Tiny_SDK_Linux//agent_tiny/lwm2m_client/object_security.c ****         return COAP_404_NOT_FOUND;
 213:/home/baikal/workspace/C50/Huawei_IoT_Agent_Tiny_SDK_Linux//agent_tiny/lwm2m_client/object_security.c ****     }
 214:/home/baikal/workspace/C50/Huawei_IoT_Agent_Tiny_SDK_Linux//agent_tiny/lwm2m_client/object_security.c **** 
 215:/home/baikal/workspace/C50/Huawei_IoT_Agent_Tiny_SDK_Linux//agent_tiny/lwm2m_client/object_security.c ****     i = 0;
 216:/home/baikal/workspace/C50/Huawei_IoT_Agent_Tiny_SDK_Linux//agent_tiny/lwm2m_client/object_security.c ****     do
 217:/home/baikal/workspace/C50/Huawei_IoT_Agent_Tiny_SDK_Linux//agent_tiny/lwm2m_client/object_security.c ****     {
 218:/home/baikal/workspace/C50/Huawei_IoT_Agent_Tiny_SDK_Linux//agent_tiny/lwm2m_client/object_security.c ****         switch (dataArray[i].id)
 219:/home/baikal/workspace/C50/Huawei_IoT_Agent_Tiny_SDK_Linux//agent_tiny/lwm2m_client/object_security.c ****         {
 220:/home/baikal/workspace/C50/Huawei_IoT_Agent_Tiny_SDK_Linux//agent_tiny/lwm2m_client/object_security.c ****         case LWM2M_SECURITY_URI_ID:
 221:/home/baikal/workspace/C50/Huawei_IoT_Agent_Tiny_SDK_Linux//agent_tiny/lwm2m_client/object_security.c ****             if (targetP->uri != NULL) lwm2m_free(targetP->uri);
GAS LISTING /tmp/ccEvjyYW.s 			page 5


 222:/home/baikal/workspace/C50/Huawei_IoT_Agent_Tiny_SDK_Linux//agent_tiny/lwm2m_client/object_security.c ****             targetP->uri = (char *)lwm2m_malloc(dataArray[i].value.asBuffer.length + 1);
 223:/home/baikal/workspace/C50/Huawei_IoT_Agent_Tiny_SDK_Linux//agent_tiny/lwm2m_client/object_security.c ****             if (targetP->uri != NULL)
 224:/home/baikal/workspace/C50/Huawei_IoT_Agent_Tiny_SDK_Linux//agent_tiny/lwm2m_client/object_security.c ****             {
 225:/home/baikal/workspace/C50/Huawei_IoT_Agent_Tiny_SDK_Linux//agent_tiny/lwm2m_client/object_security.c ****                 memset(targetP->uri, 0, dataArray[i].value.asBuffer.length + 1);
 226:/home/baikal/workspace/C50/Huawei_IoT_Agent_Tiny_SDK_Linux//agent_tiny/lwm2m_client/object_security.c ****                 strncpy(targetP->uri, (char *)dataArray[i].value.asBuffer.buffer, dataArray[i].valu
 227:/home/baikal/workspace/C50/Huawei_IoT_Agent_Tiny_SDK_Linux//agent_tiny/lwm2m_client/object_security.c ****                 result = COAP_204_CHANGED;
 228:/home/baikal/workspace/C50/Huawei_IoT_Agent_Tiny_SDK_Linux//agent_tiny/lwm2m_client/object_security.c ****             }
 229:/home/baikal/workspace/C50/Huawei_IoT_Agent_Tiny_SDK_Linux//agent_tiny/lwm2m_client/object_security.c ****             else
 230:/home/baikal/workspace/C50/Huawei_IoT_Agent_Tiny_SDK_Linux//agent_tiny/lwm2m_client/object_security.c ****             {
 231:/home/baikal/workspace/C50/Huawei_IoT_Agent_Tiny_SDK_Linux//agent_tiny/lwm2m_client/object_security.c ****                 result = COAP_500_INTERNAL_SERVER_ERROR;
 232:/home/baikal/workspace/C50/Huawei_IoT_Agent_Tiny_SDK_Linux//agent_tiny/lwm2m_client/object_security.c ****             }
 233:/home/baikal/workspace/C50/Huawei_IoT_Agent_Tiny_SDK_Linux//agent_tiny/lwm2m_client/object_security.c ****             break;
 234:/home/baikal/workspace/C50/Huawei_IoT_Agent_Tiny_SDK_Linux//agent_tiny/lwm2m_client/object_security.c **** 
 235:/home/baikal/workspace/C50/Huawei_IoT_Agent_Tiny_SDK_Linux//agent_tiny/lwm2m_client/object_security.c ****         case LWM2M_SECURITY_BOOTSTRAP_ID:
 236:/home/baikal/workspace/C50/Huawei_IoT_Agent_Tiny_SDK_Linux//agent_tiny/lwm2m_client/object_security.c ****             if (1 == lwm2m_data_decode_bool(dataArray + i, &(targetP->isBootstrap)))
 237:/home/baikal/workspace/C50/Huawei_IoT_Agent_Tiny_SDK_Linux//agent_tiny/lwm2m_client/object_security.c ****             {
 238:/home/baikal/workspace/C50/Huawei_IoT_Agent_Tiny_SDK_Linux//agent_tiny/lwm2m_client/object_security.c ****                 result = COAP_204_CHANGED;
 239:/home/baikal/workspace/C50/Huawei_IoT_Agent_Tiny_SDK_Linux//agent_tiny/lwm2m_client/object_security.c ****             }
 240:/home/baikal/workspace/C50/Huawei_IoT_Agent_Tiny_SDK_Linux//agent_tiny/lwm2m_client/object_security.c ****             else
 241:/home/baikal/workspace/C50/Huawei_IoT_Agent_Tiny_SDK_Linux//agent_tiny/lwm2m_client/object_security.c ****             {
 242:/home/baikal/workspace/C50/Huawei_IoT_Agent_Tiny_SDK_Linux//agent_tiny/lwm2m_client/object_security.c ****                 result = COAP_400_BAD_REQUEST;
 243:/home/baikal/workspace/C50/Huawei_IoT_Agent_Tiny_SDK_Linux//agent_tiny/lwm2m_client/object_security.c ****             }
 244:/home/baikal/workspace/C50/Huawei_IoT_Agent_Tiny_SDK_Linux//agent_tiny/lwm2m_client/object_security.c ****             break;
 245:/home/baikal/workspace/C50/Huawei_IoT_Agent_Tiny_SDK_Linux//agent_tiny/lwm2m_client/object_security.c **** 
 246:/home/baikal/workspace/C50/Huawei_IoT_Agent_Tiny_SDK_Linux//agent_tiny/lwm2m_client/object_security.c ****         case LWM2M_SECURITY_SECURITY_ID:
 247:/home/baikal/workspace/C50/Huawei_IoT_Agent_Tiny_SDK_Linux//agent_tiny/lwm2m_client/object_security.c ****         {
 248:/home/baikal/workspace/C50/Huawei_IoT_Agent_Tiny_SDK_Linux//agent_tiny/lwm2m_client/object_security.c ****             int64_t value;
 249:/home/baikal/workspace/C50/Huawei_IoT_Agent_Tiny_SDK_Linux//agent_tiny/lwm2m_client/object_security.c **** 
 250:/home/baikal/workspace/C50/Huawei_IoT_Agent_Tiny_SDK_Linux//agent_tiny/lwm2m_client/object_security.c ****             if (1 == lwm2m_data_decode_int(dataArray + i, &value))
 251:/home/baikal/workspace/C50/Huawei_IoT_Agent_Tiny_SDK_Linux//agent_tiny/lwm2m_client/object_security.c ****             {
 252:/home/baikal/workspace/C50/Huawei_IoT_Agent_Tiny_SDK_Linux//agent_tiny/lwm2m_client/object_security.c ****                 if (value >= 0 && value <= 3)
 253:/home/baikal/workspace/C50/Huawei_IoT_Agent_Tiny_SDK_Linux//agent_tiny/lwm2m_client/object_security.c ****                 {
 254:/home/baikal/workspace/C50/Huawei_IoT_Agent_Tiny_SDK_Linux//agent_tiny/lwm2m_client/object_security.c ****                     targetP->securityMode = value;
 255:/home/baikal/workspace/C50/Huawei_IoT_Agent_Tiny_SDK_Linux//agent_tiny/lwm2m_client/object_security.c ****                     result = COAP_204_CHANGED;
 256:/home/baikal/workspace/C50/Huawei_IoT_Agent_Tiny_SDK_Linux//agent_tiny/lwm2m_client/object_security.c ****                 }
 257:/home/baikal/workspace/C50/Huawei_IoT_Agent_Tiny_SDK_Linux//agent_tiny/lwm2m_client/object_security.c ****                 else
 258:/home/baikal/workspace/C50/Huawei_IoT_Agent_Tiny_SDK_Linux//agent_tiny/lwm2m_client/object_security.c ****                 {
 259:/home/baikal/workspace/C50/Huawei_IoT_Agent_Tiny_SDK_Linux//agent_tiny/lwm2m_client/object_security.c ****                     result = COAP_406_NOT_ACCEPTABLE;
 260:/home/baikal/workspace/C50/Huawei_IoT_Agent_Tiny_SDK_Linux//agent_tiny/lwm2m_client/object_security.c ****                 }
 261:/home/baikal/workspace/C50/Huawei_IoT_Agent_Tiny_SDK_Linux//agent_tiny/lwm2m_client/object_security.c ****             }
 262:/home/baikal/workspace/C50/Huawei_IoT_Agent_Tiny_SDK_Linux//agent_tiny/lwm2m_client/object_security.c ****             else
 263:/home/baikal/workspace/C50/Huawei_IoT_Agent_Tiny_SDK_Linux//agent_tiny/lwm2m_client/object_security.c ****             {
 264:/home/baikal/workspace/C50/Huawei_IoT_Agent_Tiny_SDK_Linux//agent_tiny/lwm2m_client/object_security.c ****                 result = COAP_400_BAD_REQUEST;
 265:/home/baikal/workspace/C50/Huawei_IoT_Agent_Tiny_SDK_Linux//agent_tiny/lwm2m_client/object_security.c ****             }
 266:/home/baikal/workspace/C50/Huawei_IoT_Agent_Tiny_SDK_Linux//agent_tiny/lwm2m_client/object_security.c ****         }
 267:/home/baikal/workspace/C50/Huawei_IoT_Agent_Tiny_SDK_Linux//agent_tiny/lwm2m_client/object_security.c ****         break;
 268:/home/baikal/workspace/C50/Huawei_IoT_Agent_Tiny_SDK_Linux//agent_tiny/lwm2m_client/object_security.c ****         case LWM2M_SECURITY_PUBLIC_KEY_ID:
 269:/home/baikal/workspace/C50/Huawei_IoT_Agent_Tiny_SDK_Linux//agent_tiny/lwm2m_client/object_security.c ****             if (targetP->publicIdentity != NULL) lwm2m_free(targetP->publicIdentity);
 270:/home/baikal/workspace/C50/Huawei_IoT_Agent_Tiny_SDK_Linux//agent_tiny/lwm2m_client/object_security.c ****             targetP->publicIdentity = (char *)lwm2m_malloc(dataArray[i].value.asBuffer.length + 1);
 271:/home/baikal/workspace/C50/Huawei_IoT_Agent_Tiny_SDK_Linux//agent_tiny/lwm2m_client/object_security.c ****             if (targetP->publicIdentity != NULL)
 272:/home/baikal/workspace/C50/Huawei_IoT_Agent_Tiny_SDK_Linux//agent_tiny/lwm2m_client/object_security.c ****             {
 273:/home/baikal/workspace/C50/Huawei_IoT_Agent_Tiny_SDK_Linux//agent_tiny/lwm2m_client/object_security.c ****                 memset(targetP->publicIdentity, 0, dataArray[i].value.asBuffer.length + 1);
 274:/home/baikal/workspace/C50/Huawei_IoT_Agent_Tiny_SDK_Linux//agent_tiny/lwm2m_client/object_security.c ****                 memcpy(targetP->publicIdentity, (char *)dataArray[i].value.asBuffer.buffer, dataArr
 275:/home/baikal/workspace/C50/Huawei_IoT_Agent_Tiny_SDK_Linux//agent_tiny/lwm2m_client/object_security.c ****                 targetP->publicIdLen = dataArray[i].value.asBuffer.length;
 276:/home/baikal/workspace/C50/Huawei_IoT_Agent_Tiny_SDK_Linux//agent_tiny/lwm2m_client/object_security.c ****                 result = COAP_204_CHANGED;
 277:/home/baikal/workspace/C50/Huawei_IoT_Agent_Tiny_SDK_Linux//agent_tiny/lwm2m_client/object_security.c ****             }
 278:/home/baikal/workspace/C50/Huawei_IoT_Agent_Tiny_SDK_Linux//agent_tiny/lwm2m_client/object_security.c ****             else
GAS LISTING /tmp/ccEvjyYW.s 			page 6


 279:/home/baikal/workspace/C50/Huawei_IoT_Agent_Tiny_SDK_Linux//agent_tiny/lwm2m_client/object_security.c ****             {
 280:/home/baikal/workspace/C50/Huawei_IoT_Agent_Tiny_SDK_Linux//agent_tiny/lwm2m_client/object_security.c ****                 result = COAP_500_INTERNAL_SERVER_ERROR;
 281:/home/baikal/workspace/C50/Huawei_IoT_Agent_Tiny_SDK_Linux//agent_tiny/lwm2m_client/object_security.c ****             }
 282:/home/baikal/workspace/C50/Huawei_IoT_Agent_Tiny_SDK_Linux//agent_tiny/lwm2m_client/object_security.c ****             break;
 283:/home/baikal/workspace/C50/Huawei_IoT_Agent_Tiny_SDK_Linux//agent_tiny/lwm2m_client/object_security.c **** 
 284:/home/baikal/workspace/C50/Huawei_IoT_Agent_Tiny_SDK_Linux//agent_tiny/lwm2m_client/object_security.c ****         case LWM2M_SECURITY_SERVER_PUBLIC_KEY_ID:
 285:/home/baikal/workspace/C50/Huawei_IoT_Agent_Tiny_SDK_Linux//agent_tiny/lwm2m_client/object_security.c ****             if (targetP->serverPublicKey != NULL) lwm2m_free(targetP->serverPublicKey);
 286:/home/baikal/workspace/C50/Huawei_IoT_Agent_Tiny_SDK_Linux//agent_tiny/lwm2m_client/object_security.c ****             targetP->serverPublicKey = (char *)lwm2m_malloc(dataArray[i].value.asBuffer.length + 1)
 287:/home/baikal/workspace/C50/Huawei_IoT_Agent_Tiny_SDK_Linux//agent_tiny/lwm2m_client/object_security.c ****             if (targetP->serverPublicKey != NULL)
 288:/home/baikal/workspace/C50/Huawei_IoT_Agent_Tiny_SDK_Linux//agent_tiny/lwm2m_client/object_security.c ****             {
 289:/home/baikal/workspace/C50/Huawei_IoT_Agent_Tiny_SDK_Linux//agent_tiny/lwm2m_client/object_security.c ****                 memset(targetP->serverPublicKey, 0, dataArray[i].value.asBuffer.length + 1);
 290:/home/baikal/workspace/C50/Huawei_IoT_Agent_Tiny_SDK_Linux//agent_tiny/lwm2m_client/object_security.c ****                 memcpy(targetP->serverPublicKey, (char *)dataArray[i].value.asBuffer.buffer, dataAr
 291:/home/baikal/workspace/C50/Huawei_IoT_Agent_Tiny_SDK_Linux//agent_tiny/lwm2m_client/object_security.c ****                 targetP->serverPublicKeyLen = dataArray[i].value.asBuffer.length;
 292:/home/baikal/workspace/C50/Huawei_IoT_Agent_Tiny_SDK_Linux//agent_tiny/lwm2m_client/object_security.c ****                 result = COAP_204_CHANGED;
 293:/home/baikal/workspace/C50/Huawei_IoT_Agent_Tiny_SDK_Linux//agent_tiny/lwm2m_client/object_security.c ****             }
 294:/home/baikal/workspace/C50/Huawei_IoT_Agent_Tiny_SDK_Linux//agent_tiny/lwm2m_client/object_security.c ****             else
 295:/home/baikal/workspace/C50/Huawei_IoT_Agent_Tiny_SDK_Linux//agent_tiny/lwm2m_client/object_security.c ****             {
 296:/home/baikal/workspace/C50/Huawei_IoT_Agent_Tiny_SDK_Linux//agent_tiny/lwm2m_client/object_security.c ****                 result = COAP_500_INTERNAL_SERVER_ERROR;
 297:/home/baikal/workspace/C50/Huawei_IoT_Agent_Tiny_SDK_Linux//agent_tiny/lwm2m_client/object_security.c ****             }
 298:/home/baikal/workspace/C50/Huawei_IoT_Agent_Tiny_SDK_Linux//agent_tiny/lwm2m_client/object_security.c ****             break;
 299:/home/baikal/workspace/C50/Huawei_IoT_Agent_Tiny_SDK_Linux//agent_tiny/lwm2m_client/object_security.c **** 
 300:/home/baikal/workspace/C50/Huawei_IoT_Agent_Tiny_SDK_Linux//agent_tiny/lwm2m_client/object_security.c ****         case LWM2M_SECURITY_SECRET_KEY_ID:
 301:/home/baikal/workspace/C50/Huawei_IoT_Agent_Tiny_SDK_Linux//agent_tiny/lwm2m_client/object_security.c ****             if (targetP->secretKey != NULL) lwm2m_free(targetP->secretKey);
 302:/home/baikal/workspace/C50/Huawei_IoT_Agent_Tiny_SDK_Linux//agent_tiny/lwm2m_client/object_security.c ****             targetP->secretKey = (char *)lwm2m_malloc(dataArray[i].value.asBuffer.length + 1);
 303:/home/baikal/workspace/C50/Huawei_IoT_Agent_Tiny_SDK_Linux//agent_tiny/lwm2m_client/object_security.c ****             if (targetP->secretKey != NULL)
 304:/home/baikal/workspace/C50/Huawei_IoT_Agent_Tiny_SDK_Linux//agent_tiny/lwm2m_client/object_security.c ****             {
 305:/home/baikal/workspace/C50/Huawei_IoT_Agent_Tiny_SDK_Linux//agent_tiny/lwm2m_client/object_security.c ****                 memset(targetP->secretKey, 0, dataArray[i].value.asBuffer.length + 1);
 306:/home/baikal/workspace/C50/Huawei_IoT_Agent_Tiny_SDK_Linux//agent_tiny/lwm2m_client/object_security.c ****                 memcpy(targetP->secretKey, (char *)dataArray[i].value.asBuffer.buffer, dataArray[i]
 307:/home/baikal/workspace/C50/Huawei_IoT_Agent_Tiny_SDK_Linux//agent_tiny/lwm2m_client/object_security.c ****                 targetP->secretKeyLen = dataArray[i].value.asBuffer.length;
 308:/home/baikal/workspace/C50/Huawei_IoT_Agent_Tiny_SDK_Linux//agent_tiny/lwm2m_client/object_security.c ****                 result = COAP_204_CHANGED;
 309:/home/baikal/workspace/C50/Huawei_IoT_Agent_Tiny_SDK_Linux//agent_tiny/lwm2m_client/object_security.c ****             }
 310:/home/baikal/workspace/C50/Huawei_IoT_Agent_Tiny_SDK_Linux//agent_tiny/lwm2m_client/object_security.c ****             else
 311:/home/baikal/workspace/C50/Huawei_IoT_Agent_Tiny_SDK_Linux//agent_tiny/lwm2m_client/object_security.c ****             {
 312:/home/baikal/workspace/C50/Huawei_IoT_Agent_Tiny_SDK_Linux//agent_tiny/lwm2m_client/object_security.c ****                 result = COAP_500_INTERNAL_SERVER_ERROR;
 313:/home/baikal/workspace/C50/Huawei_IoT_Agent_Tiny_SDK_Linux//agent_tiny/lwm2m_client/object_security.c ****             }
 314:/home/baikal/workspace/C50/Huawei_IoT_Agent_Tiny_SDK_Linux//agent_tiny/lwm2m_client/object_security.c ****             break;
 315:/home/baikal/workspace/C50/Huawei_IoT_Agent_Tiny_SDK_Linux//agent_tiny/lwm2m_client/object_security.c **** 
 316:/home/baikal/workspace/C50/Huawei_IoT_Agent_Tiny_SDK_Linux//agent_tiny/lwm2m_client/object_security.c ****         case LWM2M_SECURITY_SMS_SECURITY_ID:
 317:/home/baikal/workspace/C50/Huawei_IoT_Agent_Tiny_SDK_Linux//agent_tiny/lwm2m_client/object_security.c ****             // Let just ignore this
 318:/home/baikal/workspace/C50/Huawei_IoT_Agent_Tiny_SDK_Linux//agent_tiny/lwm2m_client/object_security.c ****             result = COAP_204_CHANGED;
 319:/home/baikal/workspace/C50/Huawei_IoT_Agent_Tiny_SDK_Linux//agent_tiny/lwm2m_client/object_security.c ****             break;
 320:/home/baikal/workspace/C50/Huawei_IoT_Agent_Tiny_SDK_Linux//agent_tiny/lwm2m_client/object_security.c **** 
 321:/home/baikal/workspace/C50/Huawei_IoT_Agent_Tiny_SDK_Linux//agent_tiny/lwm2m_client/object_security.c ****         case LWM2M_SECURITY_SMS_KEY_PARAM_ID:
 322:/home/baikal/workspace/C50/Huawei_IoT_Agent_Tiny_SDK_Linux//agent_tiny/lwm2m_client/object_security.c ****             // Let just ignore this
 323:/home/baikal/workspace/C50/Huawei_IoT_Agent_Tiny_SDK_Linux//agent_tiny/lwm2m_client/object_security.c ****             result = COAP_204_CHANGED;
 324:/home/baikal/workspace/C50/Huawei_IoT_Agent_Tiny_SDK_Linux//agent_tiny/lwm2m_client/object_security.c ****             break;
 325:/home/baikal/workspace/C50/Huawei_IoT_Agent_Tiny_SDK_Linux//agent_tiny/lwm2m_client/object_security.c **** 
 326:/home/baikal/workspace/C50/Huawei_IoT_Agent_Tiny_SDK_Linux//agent_tiny/lwm2m_client/object_security.c ****         case LWM2M_SECURITY_SMS_SECRET_KEY_ID:
 327:/home/baikal/workspace/C50/Huawei_IoT_Agent_Tiny_SDK_Linux//agent_tiny/lwm2m_client/object_security.c ****             // Let just ignore this
 328:/home/baikal/workspace/C50/Huawei_IoT_Agent_Tiny_SDK_Linux//agent_tiny/lwm2m_client/object_security.c ****             result = COAP_204_CHANGED;
 329:/home/baikal/workspace/C50/Huawei_IoT_Agent_Tiny_SDK_Linux//agent_tiny/lwm2m_client/object_security.c ****             break;
 330:/home/baikal/workspace/C50/Huawei_IoT_Agent_Tiny_SDK_Linux//agent_tiny/lwm2m_client/object_security.c **** 
 331:/home/baikal/workspace/C50/Huawei_IoT_Agent_Tiny_SDK_Linux//agent_tiny/lwm2m_client/object_security.c ****         case LWM2M_SECURITY_SMS_SERVER_NUMBER_ID:
 332:/home/baikal/workspace/C50/Huawei_IoT_Agent_Tiny_SDK_Linux//agent_tiny/lwm2m_client/object_security.c ****             // Let just ignore this
 333:/home/baikal/workspace/C50/Huawei_IoT_Agent_Tiny_SDK_Linux//agent_tiny/lwm2m_client/object_security.c ****             result = COAP_204_CHANGED;
 334:/home/baikal/workspace/C50/Huawei_IoT_Agent_Tiny_SDK_Linux//agent_tiny/lwm2m_client/object_security.c ****             break;
 335:/home/baikal/workspace/C50/Huawei_IoT_Agent_Tiny_SDK_Linux//agent_tiny/lwm2m_client/object_security.c **** 
GAS LISTING /tmp/ccEvjyYW.s 			page 7


 336:/home/baikal/workspace/C50/Huawei_IoT_Agent_Tiny_SDK_Linux//agent_tiny/lwm2m_client/object_security.c ****         case LWM2M_SECURITY_SHORT_SERVER_ID:
 337:/home/baikal/workspace/C50/Huawei_IoT_Agent_Tiny_SDK_Linux//agent_tiny/lwm2m_client/object_security.c ****         {
 338:/home/baikal/workspace/C50/Huawei_IoT_Agent_Tiny_SDK_Linux//agent_tiny/lwm2m_client/object_security.c ****             int64_t value;
 339:/home/baikal/workspace/C50/Huawei_IoT_Agent_Tiny_SDK_Linux//agent_tiny/lwm2m_client/object_security.c **** 
 340:/home/baikal/workspace/C50/Huawei_IoT_Agent_Tiny_SDK_Linux//agent_tiny/lwm2m_client/object_security.c ****             if (1 == lwm2m_data_decode_int(dataArray + i, &value))
 341:/home/baikal/workspace/C50/Huawei_IoT_Agent_Tiny_SDK_Linux//agent_tiny/lwm2m_client/object_security.c ****             {
 342:/home/baikal/workspace/C50/Huawei_IoT_Agent_Tiny_SDK_Linux//agent_tiny/lwm2m_client/object_security.c ****                 if (value >= 0 && value <= 0xFFFF)
 343:/home/baikal/workspace/C50/Huawei_IoT_Agent_Tiny_SDK_Linux//agent_tiny/lwm2m_client/object_security.c ****                 {
 344:/home/baikal/workspace/C50/Huawei_IoT_Agent_Tiny_SDK_Linux//agent_tiny/lwm2m_client/object_security.c ****                     targetP->shortID = value;
 345:/home/baikal/workspace/C50/Huawei_IoT_Agent_Tiny_SDK_Linux//agent_tiny/lwm2m_client/object_security.c ****                     result = COAP_204_CHANGED;
 346:/home/baikal/workspace/C50/Huawei_IoT_Agent_Tiny_SDK_Linux//agent_tiny/lwm2m_client/object_security.c ****                 }
 347:/home/baikal/workspace/C50/Huawei_IoT_Agent_Tiny_SDK_Linux//agent_tiny/lwm2m_client/object_security.c ****                 else
 348:/home/baikal/workspace/C50/Huawei_IoT_Agent_Tiny_SDK_Linux//agent_tiny/lwm2m_client/object_security.c ****                 {
 349:/home/baikal/workspace/C50/Huawei_IoT_Agent_Tiny_SDK_Linux//agent_tiny/lwm2m_client/object_security.c ****                     result = COAP_406_NOT_ACCEPTABLE;
 350:/home/baikal/workspace/C50/Huawei_IoT_Agent_Tiny_SDK_Linux//agent_tiny/lwm2m_client/object_security.c ****                 }
 351:/home/baikal/workspace/C50/Huawei_IoT_Agent_Tiny_SDK_Linux//agent_tiny/lwm2m_client/object_security.c ****             }
 352:/home/baikal/workspace/C50/Huawei_IoT_Agent_Tiny_SDK_Linux//agent_tiny/lwm2m_client/object_security.c ****             else
 353:/home/baikal/workspace/C50/Huawei_IoT_Agent_Tiny_SDK_Linux//agent_tiny/lwm2m_client/object_security.c ****             {
 354:/home/baikal/workspace/C50/Huawei_IoT_Agent_Tiny_SDK_Linux//agent_tiny/lwm2m_client/object_security.c ****                 result = COAP_400_BAD_REQUEST;
 355:/home/baikal/workspace/C50/Huawei_IoT_Agent_Tiny_SDK_Linux//agent_tiny/lwm2m_client/object_security.c ****             }
 356:/home/baikal/workspace/C50/Huawei_IoT_Agent_Tiny_SDK_Linux//agent_tiny/lwm2m_client/object_security.c ****         }
 357:/home/baikal/workspace/C50/Huawei_IoT_Agent_Tiny_SDK_Linux//agent_tiny/lwm2m_client/object_security.c ****         break;
 358:/home/baikal/workspace/C50/Huawei_IoT_Agent_Tiny_SDK_Linux//agent_tiny/lwm2m_client/object_security.c **** 
 359:/home/baikal/workspace/C50/Huawei_IoT_Agent_Tiny_SDK_Linux//agent_tiny/lwm2m_client/object_security.c ****         case LWM2M_SECURITY_HOLD_OFF_ID:
 360:/home/baikal/workspace/C50/Huawei_IoT_Agent_Tiny_SDK_Linux//agent_tiny/lwm2m_client/object_security.c ****         {
 361:/home/baikal/workspace/C50/Huawei_IoT_Agent_Tiny_SDK_Linux//agent_tiny/lwm2m_client/object_security.c ****             int64_t value;
 362:/home/baikal/workspace/C50/Huawei_IoT_Agent_Tiny_SDK_Linux//agent_tiny/lwm2m_client/object_security.c **** 
 363:/home/baikal/workspace/C50/Huawei_IoT_Agent_Tiny_SDK_Linux//agent_tiny/lwm2m_client/object_security.c ****             if (1 == lwm2m_data_decode_int(dataArray + i, &value))
 364:/home/baikal/workspace/C50/Huawei_IoT_Agent_Tiny_SDK_Linux//agent_tiny/lwm2m_client/object_security.c ****             {
 365:/home/baikal/workspace/C50/Huawei_IoT_Agent_Tiny_SDK_Linux//agent_tiny/lwm2m_client/object_security.c ****                 if (value >= 0 && value <= UINT32_MAX)
 366:/home/baikal/workspace/C50/Huawei_IoT_Agent_Tiny_SDK_Linux//agent_tiny/lwm2m_client/object_security.c ****                 {
 367:/home/baikal/workspace/C50/Huawei_IoT_Agent_Tiny_SDK_Linux//agent_tiny/lwm2m_client/object_security.c ****                     targetP->clientHoldOffTime = value;
 368:/home/baikal/workspace/C50/Huawei_IoT_Agent_Tiny_SDK_Linux//agent_tiny/lwm2m_client/object_security.c ****                     result = COAP_204_CHANGED;
 369:/home/baikal/workspace/C50/Huawei_IoT_Agent_Tiny_SDK_Linux//agent_tiny/lwm2m_client/object_security.c ****                 }
 370:/home/baikal/workspace/C50/Huawei_IoT_Agent_Tiny_SDK_Linux//agent_tiny/lwm2m_client/object_security.c ****                 else
 371:/home/baikal/workspace/C50/Huawei_IoT_Agent_Tiny_SDK_Linux//agent_tiny/lwm2m_client/object_security.c ****                 {
 372:/home/baikal/workspace/C50/Huawei_IoT_Agent_Tiny_SDK_Linux//agent_tiny/lwm2m_client/object_security.c ****                     result = COAP_406_NOT_ACCEPTABLE;
 373:/home/baikal/workspace/C50/Huawei_IoT_Agent_Tiny_SDK_Linux//agent_tiny/lwm2m_client/object_security.c ****                 }
 374:/home/baikal/workspace/C50/Huawei_IoT_Agent_Tiny_SDK_Linux//agent_tiny/lwm2m_client/object_security.c ****             }
 375:/home/baikal/workspace/C50/Huawei_IoT_Agent_Tiny_SDK_Linux//agent_tiny/lwm2m_client/object_security.c ****             else
 376:/home/baikal/workspace/C50/Huawei_IoT_Agent_Tiny_SDK_Linux//agent_tiny/lwm2m_client/object_security.c ****             {
 377:/home/baikal/workspace/C50/Huawei_IoT_Agent_Tiny_SDK_Linux//agent_tiny/lwm2m_client/object_security.c ****                 result = COAP_400_BAD_REQUEST;
 378:/home/baikal/workspace/C50/Huawei_IoT_Agent_Tiny_SDK_Linux//agent_tiny/lwm2m_client/object_security.c ****             }
 379:/home/baikal/workspace/C50/Huawei_IoT_Agent_Tiny_SDK_Linux//agent_tiny/lwm2m_client/object_security.c ****             break;
 380:/home/baikal/workspace/C50/Huawei_IoT_Agent_Tiny_SDK_Linux//agent_tiny/lwm2m_client/object_security.c ****         }
 381:/home/baikal/workspace/C50/Huawei_IoT_Agent_Tiny_SDK_Linux//agent_tiny/lwm2m_client/object_security.c **** 
 382:/home/baikal/workspace/C50/Huawei_IoT_Agent_Tiny_SDK_Linux//agent_tiny/lwm2m_client/object_security.c ****         case LWM2M_SECURITY_BOOTSTRAP_TIMEOUT_ID:
 383:/home/baikal/workspace/C50/Huawei_IoT_Agent_Tiny_SDK_Linux//agent_tiny/lwm2m_client/object_security.c ****         {
 384:/home/baikal/workspace/C50/Huawei_IoT_Agent_Tiny_SDK_Linux//agent_tiny/lwm2m_client/object_security.c ****             int64_t value;
 385:/home/baikal/workspace/C50/Huawei_IoT_Agent_Tiny_SDK_Linux//agent_tiny/lwm2m_client/object_security.c **** 
 386:/home/baikal/workspace/C50/Huawei_IoT_Agent_Tiny_SDK_Linux//agent_tiny/lwm2m_client/object_security.c ****             if (1 == lwm2m_data_decode_int(dataArray + i, &value))
 387:/home/baikal/workspace/C50/Huawei_IoT_Agent_Tiny_SDK_Linux//agent_tiny/lwm2m_client/object_security.c ****             {
 388:/home/baikal/workspace/C50/Huawei_IoT_Agent_Tiny_SDK_Linux//agent_tiny/lwm2m_client/object_security.c ****                 if (value >= 0 && value <= UINT32_MAX)
 389:/home/baikal/workspace/C50/Huawei_IoT_Agent_Tiny_SDK_Linux//agent_tiny/lwm2m_client/object_security.c ****                 {
 390:/home/baikal/workspace/C50/Huawei_IoT_Agent_Tiny_SDK_Linux//agent_tiny/lwm2m_client/object_security.c ****                     targetP->bootstrapServerAccountTimeout = value;
 391:/home/baikal/workspace/C50/Huawei_IoT_Agent_Tiny_SDK_Linux//agent_tiny/lwm2m_client/object_security.c ****                     result = COAP_204_CHANGED;
 392:/home/baikal/workspace/C50/Huawei_IoT_Agent_Tiny_SDK_Linux//agent_tiny/lwm2m_client/object_security.c ****                 }
GAS LISTING /tmp/ccEvjyYW.s 			page 8


 393:/home/baikal/workspace/C50/Huawei_IoT_Agent_Tiny_SDK_Linux//agent_tiny/lwm2m_client/object_security.c ****                 else
 394:/home/baikal/workspace/C50/Huawei_IoT_Agent_Tiny_SDK_Linux//agent_tiny/lwm2m_client/object_security.c ****                 {
 395:/home/baikal/workspace/C50/Huawei_IoT_Agent_Tiny_SDK_Linux//agent_tiny/lwm2m_client/object_security.c ****                     result = COAP_406_NOT_ACCEPTABLE;
 396:/home/baikal/workspace/C50/Huawei_IoT_Agent_Tiny_SDK_Linux//agent_tiny/lwm2m_client/object_security.c ****                 }
 397:/home/baikal/workspace/C50/Huawei_IoT_Agent_Tiny_SDK_Linux//agent_tiny/lwm2m_client/object_security.c ****             }
 398:/home/baikal/workspace/C50/Huawei_IoT_Agent_Tiny_SDK_Linux//agent_tiny/lwm2m_client/object_security.c ****             else
 399:/home/baikal/workspace/C50/Huawei_IoT_Agent_Tiny_SDK_Linux//agent_tiny/lwm2m_client/object_security.c ****             {
 400:/home/baikal/workspace/C50/Huawei_IoT_Agent_Tiny_SDK_Linux//agent_tiny/lwm2m_client/object_security.c ****                 result = COAP_400_BAD_REQUEST;
 401:/home/baikal/workspace/C50/Huawei_IoT_Agent_Tiny_SDK_Linux//agent_tiny/lwm2m_client/object_security.c ****             }
 402:/home/baikal/workspace/C50/Huawei_IoT_Agent_Tiny_SDK_Linux//agent_tiny/lwm2m_client/object_security.c ****             break;
 403:/home/baikal/workspace/C50/Huawei_IoT_Agent_Tiny_SDK_Linux//agent_tiny/lwm2m_client/object_security.c ****         }
 404:/home/baikal/workspace/C50/Huawei_IoT_Agent_Tiny_SDK_Linux//agent_tiny/lwm2m_client/object_security.c **** 
 405:/home/baikal/workspace/C50/Huawei_IoT_Agent_Tiny_SDK_Linux//agent_tiny/lwm2m_client/object_security.c ****         default:
 406:/home/baikal/workspace/C50/Huawei_IoT_Agent_Tiny_SDK_Linux//agent_tiny/lwm2m_client/object_security.c ****             return COAP_400_BAD_REQUEST;
 407:/home/baikal/workspace/C50/Huawei_IoT_Agent_Tiny_SDK_Linux//agent_tiny/lwm2m_client/object_security.c ****         }
 408:/home/baikal/workspace/C50/Huawei_IoT_Agent_Tiny_SDK_Linux//agent_tiny/lwm2m_client/object_security.c ****         i++;
 409:/home/baikal/workspace/C50/Huawei_IoT_Agent_Tiny_SDK_Linux//agent_tiny/lwm2m_client/object_security.c ****     }
 410:/home/baikal/workspace/C50/Huawei_IoT_Agent_Tiny_SDK_Linux//agent_tiny/lwm2m_client/object_security.c ****     while (i < numData && result == COAP_204_CHANGED);
 411:/home/baikal/workspace/C50/Huawei_IoT_Agent_Tiny_SDK_Linux//agent_tiny/lwm2m_client/object_security.c **** 
 412:/home/baikal/workspace/C50/Huawei_IoT_Agent_Tiny_SDK_Linux//agent_tiny/lwm2m_client/object_security.c ****     return result;
 413:/home/baikal/workspace/C50/Huawei_IoT_Agent_Tiny_SDK_Linux//agent_tiny/lwm2m_client/object_security.c **** }
 414:/home/baikal/workspace/C50/Huawei_IoT_Agent_Tiny_SDK_Linux//agent_tiny/lwm2m_client/object_security.c **** 
 415:/home/baikal/workspace/C50/Huawei_IoT_Agent_Tiny_SDK_Linux//agent_tiny/lwm2m_client/object_security.c **** static uint8_t prv_security_delete(uint16_t id,
 416:/home/baikal/workspace/C50/Huawei_IoT_Agent_Tiny_SDK_Linux//agent_tiny/lwm2m_client/object_security.c ****                                    lwm2m_object_t *objectP)
 417:/home/baikal/workspace/C50/Huawei_IoT_Agent_Tiny_SDK_Linux//agent_tiny/lwm2m_client/object_security.c **** {
   9              		.loc 1 417 0
  10              		.cfi_startproc
  11              	.LVL0:
  12 0000 53       		pushq	%rbx
  13              	.LCFI0:
  14              		.cfi_def_cfa_offset 16
  15              		.cfi_offset 3, -16
  16 0001 4883EC10 		subq	$16, %rsp
  17              	.LCFI1:
  18              		.cfi_def_cfa_offset 32
  19 0005 4889F3   		movq	%rsi, %rbx
 418:/home/baikal/workspace/C50/Huawei_IoT_Agent_Tiny_SDK_Linux//agent_tiny/lwm2m_client/object_security.c ****     security_instance_t *targetP;
 419:/home/baikal/workspace/C50/Huawei_IoT_Agent_Tiny_SDK_Linux//agent_tiny/lwm2m_client/object_security.c **** 
 420:/home/baikal/workspace/C50/Huawei_IoT_Agent_Tiny_SDK_Linux//agent_tiny/lwm2m_client/object_security.c ****     objectP->instanceList = lwm2m_list_remove(objectP->instanceList, id, (lwm2m_list_t **)&targetP)
  20              		.loc 1 420 0
  21 0008 0FB7F7   		movzwl	%di, %esi
  22              	.LVL1:
  23 000b 488B7B10 		movq	16(%rbx), %rdi
  24              	.LVL2:
  25 000f 488D5424 		leaq	8(%rsp), %rdx
  25      08
  26 0014 E8000000 		call	lwm2m_list_remove
  26      00
  27              	.LVL3:
  28 0019 48894310 		movq	%rax, 16(%rbx)
 421:/home/baikal/workspace/C50/Huawei_IoT_Agent_Tiny_SDK_Linux//agent_tiny/lwm2m_client/object_security.c ****     if (NULL == targetP) return COAP_404_NOT_FOUND;
  29              		.loc 1 421 0
  30 001d 488B4424 		movq	8(%rsp), %rax
  30      08
  31 0022 4885C0   		testq	%rax, %rax
  32 0025 741F     		je	.L4
 422:/home/baikal/workspace/C50/Huawei_IoT_Agent_Tiny_SDK_Linux//agent_tiny/lwm2m_client/object_security.c ****     if (NULL != targetP->uri)
GAS LISTING /tmp/ccEvjyYW.s 			page 9


  33              		.loc 1 422 0
  34 0027 488B7810 		movq	16(%rax), %rdi
  35 002b 4885FF   		testq	%rdi, %rdi
  36 002e 7405     		je	.L3
 423:/home/baikal/workspace/C50/Huawei_IoT_Agent_Tiny_SDK_Linux//agent_tiny/lwm2m_client/object_security.c ****     {
 424:/home/baikal/workspace/C50/Huawei_IoT_Agent_Tiny_SDK_Linux//agent_tiny/lwm2m_client/object_security.c ****         lwm2m_free(targetP->uri);
  37              		.loc 1 424 0
  38 0030 E8000000 		call	lwm2m_free
  38      00
  39              	.LVL4:
  40              	.L3:
 425:/home/baikal/workspace/C50/Huawei_IoT_Agent_Tiny_SDK_Linux//agent_tiny/lwm2m_client/object_security.c ****     }
 426:/home/baikal/workspace/C50/Huawei_IoT_Agent_Tiny_SDK_Linux//agent_tiny/lwm2m_client/object_security.c **** 
 427:/home/baikal/workspace/C50/Huawei_IoT_Agent_Tiny_SDK_Linux//agent_tiny/lwm2m_client/object_security.c ****     lwm2m_free(targetP);
  41              		.loc 1 427 0
  42 0035 488B7C24 		movq	8(%rsp), %rdi
  42      08
  43 003a E8000000 		call	lwm2m_free
  43      00
  44              	.LVL5:
 428:/home/baikal/workspace/C50/Huawei_IoT_Agent_Tiny_SDK_Linux//agent_tiny/lwm2m_client/object_security.c **** 
 429:/home/baikal/workspace/C50/Huawei_IoT_Agent_Tiny_SDK_Linux//agent_tiny/lwm2m_client/object_security.c ****     return COAP_202_DELETED;
  45              		.loc 1 429 0
  46 003f B8420000 		movl	$66, %eax
  46      00
  47 0044 EB05     		jmp	.L2
  48              	.L4:
 421:/home/baikal/workspace/C50/Huawei_IoT_Agent_Tiny_SDK_Linux//agent_tiny/lwm2m_client/object_security.c ****     if (NULL != targetP->uri)
  49              		.loc 1 421 0
  50 0046 B884FFFF 		movl	$-124, %eax
  50      FF
  51              	.L2:
 430:/home/baikal/workspace/C50/Huawei_IoT_Agent_Tiny_SDK_Linux//agent_tiny/lwm2m_client/object_security.c **** }
  52              		.loc 1 430 0
  53 004b 4883C410 		addq	$16, %rsp
  54              	.LCFI2:
  55              		.cfi_def_cfa_offset 16
  56 004f 5B       		popq	%rbx
  57              	.LCFI3:
  58              		.cfi_def_cfa_offset 8
  59              	.LVL6:
  60 0050 C3       		ret
  61              		.cfi_endproc
  62              	.LFE74:
  64              		.section	.text.prv_get_value,"ax",@progbits
  66              	prv_get_value:
  67              	.LFB71:
  86:/home/baikal/workspace/C50/Huawei_IoT_Agent_Tiny_SDK_Linux//agent_tiny/lwm2m_client/object_security.c ****     switch (dataP->id)
  68              		.loc 1 86 0
  69              		.cfi_startproc
  70              	.LVL7:
  87:/home/baikal/workspace/C50/Huawei_IoT_Agent_Tiny_SDK_Linux//agent_tiny/lwm2m_client/object_security.c ****     {
  71              		.loc 1 87 0
  72 0000 0FB74704 		movzwl	4(%rdi), %eax
  73 0004 6683F80C 		cmpw	$12, %ax
  74 0008 0F871E01 		ja	.L22
  74      0000
GAS LISTING /tmp/ccEvjyYW.s 			page 10


  86:/home/baikal/workspace/C50/Huawei_IoT_Agent_Tiny_SDK_Linux//agent_tiny/lwm2m_client/object_security.c ****     switch (dataP->id)
  75              		.loc 1 86 0
  76 000e 4883EC08 		subq	$8, %rsp
  77              	.LCFI4:
  78              		.cfi_def_cfa_offset 16
  79 0012 4889FA   		movq	%rdi, %rdx
  87:/home/baikal/workspace/C50/Huawei_IoT_Agent_Tiny_SDK_Linux//agent_tiny/lwm2m_client/object_security.c ****     {
  80              		.loc 1 87 0
  81 0015 0FB7C0   		movzwl	%ax, %eax
  82 0018 FF24C500 		jmp	*.L9(,%rax,8)
  82      000000
  83              		.section	.rodata.prv_get_value,"a",@progbits
  84              		.align 8
  85              		.align 4
  86              	.L9:
  87 0000 00000000 		.quad	.L8
  87      00000000 
  88 0008 00000000 		.quad	.L10
  88      00000000 
  89 0010 00000000 		.quad	.L11
  89      00000000 
  90 0018 00000000 		.quad	.L12
  90      00000000 
  91 0020 00000000 		.quad	.L13
  91      00000000 
  92 0028 00000000 		.quad	.L14
  92      00000000 
  93 0030 00000000 		.quad	.L15
  93      00000000 
  94 0038 00000000 		.quad	.L16
  94      00000000 
  95 0040 00000000 		.quad	.L17
  95      00000000 
  96 0048 00000000 		.quad	.L18
  96      00000000 
  97 0050 00000000 		.quad	.L19
  97      00000000 
  98 0058 00000000 		.quad	.L20
  98      00000000 
  99 0060 00000000 		.quad	.L21
  99      00000000 
 100              		.section	.text.prv_get_value
 101              	.L8:
  90:/home/baikal/workspace/C50/Huawei_IoT_Agent_Tiny_SDK_Linux//agent_tiny/lwm2m_client/object_security.c ****         return COAP_205_CONTENT;
 102              		.loc 1 90 0
 103 001f 488B7E10 		movq	16(%rsi), %rdi
 104              	.LVL8:
 105 0023 4889D6   		movq	%rdx, %rsi
 106              	.LVL9:
 107 0026 E8000000 		call	lwm2m_data_encode_string
 107      00
 108              	.LVL10:
  91:/home/baikal/workspace/C50/Huawei_IoT_Agent_Tiny_SDK_Linux//agent_tiny/lwm2m_client/object_security.c **** 
 109              		.loc 1 91 0
 110 002b B8450000 		movl	$69, %eax
 110      00
 111 0030 E9FD0000 		jmp	.L7
GAS LISTING /tmp/ccEvjyYW.s 			page 11


 111      00
 112              	.LVL11:
 113              	.L10:
  94:/home/baikal/workspace/C50/Huawei_IoT_Agent_Tiny_SDK_Linux//agent_tiny/lwm2m_client/object_security.c ****         return COAP_205_CONTENT;
 114              		.loc 1 94 0
 115 0035 0FB67E18 		movzbl	24(%rsi), %edi
 116 0039 4889D6   		movq	%rdx, %rsi
 117              	.LVL12:
 118 003c E8000000 		call	lwm2m_data_encode_bool
 118      00
 119              	.LVL13:
  95:/home/baikal/workspace/C50/Huawei_IoT_Agent_Tiny_SDK_Linux//agent_tiny/lwm2m_client/object_security.c **** 
 120              		.loc 1 95 0
 121 0041 B8450000 		movl	$69, %eax
 121      00
 122 0046 E9E70000 		jmp	.L7
 122      00
 123              	.LVL14:
 124              	.L11:
  98:/home/baikal/workspace/C50/Huawei_IoT_Agent_Tiny_SDK_Linux//agent_tiny/lwm2m_client/object_security.c ****         return COAP_205_CONTENT;
 125              		.loc 1 98 0
 126 004b 0FB67E19 		movzbl	25(%rsi), %edi
 127 004f 4889D6   		movq	%rdx, %rsi
 128              	.LVL15:
 129 0052 E8000000 		call	lwm2m_data_encode_int
 129      00
 130              	.LVL16:
  99:/home/baikal/workspace/C50/Huawei_IoT_Agent_Tiny_SDK_Linux//agent_tiny/lwm2m_client/object_security.c **** 
 131              		.loc 1 99 0
 132 0057 B8450000 		movl	$69, %eax
 132      00
 133 005c E9D10000 		jmp	.L7
 133      00
 134              	.LVL17:
 135              	.L12:
 102:/home/baikal/workspace/C50/Huawei_IoT_Agent_Tiny_SDK_Linux//agent_tiny/lwm2m_client/object_security.c ****         return COAP_205_CONTENT;
 136              		.loc 1 102 0
 137 0061 488B7E20 		movq	32(%rsi), %rdi
 138 0065 0FB77628 		movzwl	40(%rsi), %esi
 139              	.LVL18:
 140 0069 E8000000 		call	lwm2m_data_encode_opaque
 140      00
 141              	.LVL19:
 103:/home/baikal/workspace/C50/Huawei_IoT_Agent_Tiny_SDK_Linux//agent_tiny/lwm2m_client/object_security.c **** 
 142              		.loc 1 103 0
 143 006e B8450000 		movl	$69, %eax
 143      00
 144 0073 E9BA0000 		jmp	.L7
 144      00
 145              	.LVL20:
 146              	.L13:
 106:/home/baikal/workspace/C50/Huawei_IoT_Agent_Tiny_SDK_Linux//agent_tiny/lwm2m_client/object_security.c ****         return COAP_205_CONTENT;
 147              		.loc 1 106 0
 148 0078 488B7E30 		movq	48(%rsi), %rdi
 149 007c 0FB77638 		movzwl	56(%rsi), %esi
 150              	.LVL21:
 151 0080 E8000000 		call	lwm2m_data_encode_opaque
GAS LISTING /tmp/ccEvjyYW.s 			page 12


 151      00
 152              	.LVL22:
 107:/home/baikal/workspace/C50/Huawei_IoT_Agent_Tiny_SDK_Linux//agent_tiny/lwm2m_client/object_security.c **** 
 153              		.loc 1 107 0
 154 0085 B8450000 		movl	$69, %eax
 154      00
 155 008a E9A30000 		jmp	.L7
 155      00
 156              	.LVL23:
 157              	.L14:
 110:/home/baikal/workspace/C50/Huawei_IoT_Agent_Tiny_SDK_Linux//agent_tiny/lwm2m_client/object_security.c ****         return COAP_205_CONTENT;
 158              		.loc 1 110 0
 159 008f 488B7E40 		movq	64(%rsi), %rdi
 160 0093 0FB77648 		movzwl	72(%rsi), %esi
 161              	.LVL24:
 162 0097 E8000000 		call	lwm2m_data_encode_opaque
 162      00
 163              	.LVL25:
 111:/home/baikal/workspace/C50/Huawei_IoT_Agent_Tiny_SDK_Linux//agent_tiny/lwm2m_client/object_security.c **** 
 164              		.loc 1 111 0
 165 009c B8450000 		movl	$69, %eax
 165      00
 166 00a1 E98C0000 		jmp	.L7
 166      00
 167              	.LVL26:
 168              	.L15:
 114:/home/baikal/workspace/C50/Huawei_IoT_Agent_Tiny_SDK_Linux//agent_tiny/lwm2m_client/object_security.c ****         return COAP_205_CONTENT;
 169              		.loc 1 114 0
 170 00a6 0FB67E4A 		movzbl	74(%rsi), %edi
 171 00aa 4889D6   		movq	%rdx, %rsi
 172              	.LVL27:
 173 00ad E8000000 		call	lwm2m_data_encode_int
 173      00
 174              	.LVL28:
 115:/home/baikal/workspace/C50/Huawei_IoT_Agent_Tiny_SDK_Linux//agent_tiny/lwm2m_client/object_security.c **** 
 175              		.loc 1 115 0
 176 00b2 B8450000 		movl	$69, %eax
 176      00
 177 00b7 EB79     		jmp	.L7
 178              	.LVL29:
 179              	.L16:
 118:/home/baikal/workspace/C50/Huawei_IoT_Agent_Tiny_SDK_Linux//agent_tiny/lwm2m_client/object_security.c ****         return COAP_205_CONTENT;
 180              		.loc 1 118 0
 181 00b9 488B7E50 		movq	80(%rsi), %rdi
 182 00bd 0FB77658 		movzwl	88(%rsi), %esi
 183              	.LVL30:
 184 00c1 E8000000 		call	lwm2m_data_encode_opaque
 184      00
 185              	.LVL31:
 119:/home/baikal/workspace/C50/Huawei_IoT_Agent_Tiny_SDK_Linux//agent_tiny/lwm2m_client/object_security.c **** 
 186              		.loc 1 119 0
 187 00c6 B8450000 		movl	$69, %eax
 187      00
 188 00cb EB65     		jmp	.L7
 189              	.LVL32:
 190              	.L17:
 122:/home/baikal/workspace/C50/Huawei_IoT_Agent_Tiny_SDK_Linux//agent_tiny/lwm2m_client/object_security.c ****         return COAP_205_CONTENT;
GAS LISTING /tmp/ccEvjyYW.s 			page 13


 191              		.loc 1 122 0
 192 00cd 488B7E60 		movq	96(%rsi), %rdi
 193 00d1 0FB77668 		movzwl	104(%rsi), %esi
 194              	.LVL33:
 195 00d5 E8000000 		call	lwm2m_data_encode_opaque
 195      00
 196              	.LVL34:
 123:/home/baikal/workspace/C50/Huawei_IoT_Agent_Tiny_SDK_Linux//agent_tiny/lwm2m_client/object_security.c **** 
 197              		.loc 1 123 0
 198 00da B8450000 		movl	$69, %eax
 198      00
 199 00df EB51     		jmp	.L7
 200              	.LVL35:
 201              	.L18:
 126:/home/baikal/workspace/C50/Huawei_IoT_Agent_Tiny_SDK_Linux//agent_tiny/lwm2m_client/object_security.c ****         return COAP_205_CONTENT;
 202              		.loc 1 126 0
 203 00e1 4889FE   		movq	%rdi, %rsi
 204              	.LVL36:
 205 00e4 BF000000 		movl	$0, %edi
 205      00
 206 00e9 E8000000 		call	lwm2m_data_encode_int
 206      00
 207              	.LVL37:
 127:/home/baikal/workspace/C50/Huawei_IoT_Agent_Tiny_SDK_Linux//agent_tiny/lwm2m_client/object_security.c **** 
 208              		.loc 1 127 0
 209 00ee B8450000 		movl	$69, %eax
 209      00
 210 00f3 EB3D     		jmp	.L7
 211              	.LVL38:
 212              	.L19:
 130:/home/baikal/workspace/C50/Huawei_IoT_Agent_Tiny_SDK_Linux//agent_tiny/lwm2m_client/object_security.c ****         return COAP_205_CONTENT;
 213              		.loc 1 130 0
 214 00f5 0FB77E6A 		movzwl	106(%rsi), %edi
 215 00f9 4889D6   		movq	%rdx, %rsi
 216              	.LVL39:
 217 00fc E8000000 		call	lwm2m_data_encode_int
 217      00
 218              	.LVL40:
 131:/home/baikal/workspace/C50/Huawei_IoT_Agent_Tiny_SDK_Linux//agent_tiny/lwm2m_client/object_security.c **** 
 219              		.loc 1 131 0
 220 0101 B8450000 		movl	$69, %eax
 220      00
 221 0106 EB2A     		jmp	.L7
 222              	.LVL41:
 223              	.L20:
 134:/home/baikal/workspace/C50/Huawei_IoT_Agent_Tiny_SDK_Linux//agent_tiny/lwm2m_client/object_security.c ****         return COAP_205_CONTENT;
 224              		.loc 1 134 0
 225 0108 8B7E6C   		movl	108(%rsi), %edi
 226 010b 4889D6   		movq	%rdx, %rsi
 227              	.LVL42:
 228 010e E8000000 		call	lwm2m_data_encode_int
 228      00
 229              	.LVL43:
 135:/home/baikal/workspace/C50/Huawei_IoT_Agent_Tiny_SDK_Linux//agent_tiny/lwm2m_client/object_security.c **** 
 230              		.loc 1 135 0
 231 0113 B8450000 		movl	$69, %eax
 231      00
GAS LISTING /tmp/ccEvjyYW.s 			page 14


 232 0118 EB18     		jmp	.L7
 233              	.LVL44:
 234              	.L21:
 138:/home/baikal/workspace/C50/Huawei_IoT_Agent_Tiny_SDK_Linux//agent_tiny/lwm2m_client/object_security.c ****         return COAP_205_CONTENT;
 235              		.loc 1 138 0
 236 011a 8B7E70   		movl	112(%rsi), %edi
 237 011d 4889D6   		movq	%rdx, %rsi
 238              	.LVL45:
 239 0120 E8000000 		call	lwm2m_data_encode_int
 239      00
 240              	.LVL46:
 139:/home/baikal/workspace/C50/Huawei_IoT_Agent_Tiny_SDK_Linux//agent_tiny/lwm2m_client/object_security.c **** 
 241              		.loc 1 139 0
 242 0125 B8450000 		movl	$69, %eax
 242      00
 243 012a EB06     		jmp	.L7
 244              	.LVL47:
 245              	.L22:
 246              	.LCFI5:
 247              		.cfi_def_cfa_offset 8
 142:/home/baikal/workspace/C50/Huawei_IoT_Agent_Tiny_SDK_Linux//agent_tiny/lwm2m_client/object_security.c ****     }
 248              		.loc 1 142 0
 249 012c B884FFFF 		movl	$-124, %eax
 249      FF
 250 0131 C3       		ret
 251              	.LVL48:
 252              	.L7:
 253              	.LCFI6:
 254              		.cfi_def_cfa_offset 16
 144:/home/baikal/workspace/C50/Huawei_IoT_Agent_Tiny_SDK_Linux//agent_tiny/lwm2m_client/object_security.c **** 
 255              		.loc 1 144 0
 256 0132 4883C408 		addq	$8, %rsp
 257              	.LCFI7:
 258              		.cfi_def_cfa_offset 8
 259 0136 C3       		ret
 260              		.cfi_endproc
 261              	.LFE71:
 263              		.section	.text.prv_security_read,"ax",@progbits
 265              	prv_security_read:
 266              	.LFB72:
 151:/home/baikal/workspace/C50/Huawei_IoT_Agent_Tiny_SDK_Linux//agent_tiny/lwm2m_client/object_security.c ****     security_instance_t *targetP;
 267              		.loc 1 151 0
 268              		.cfi_startproc
 269              	.LVL49:
 270 0000 4155     		pushq	%r13
 271              	.LCFI8:
 272              		.cfi_def_cfa_offset 16
 273              		.cfi_offset 13, -16
 274 0002 4154     		pushq	%r12
 275              	.LCFI9:
 276              		.cfi_def_cfa_offset 24
 277              		.cfi_offset 12, -24
 278 0004 55       		pushq	%rbp
 279              	.LCFI10:
 280              		.cfi_def_cfa_offset 32
 281              		.cfi_offset 6, -32
 282 0005 53       		pushq	%rbx
GAS LISTING /tmp/ccEvjyYW.s 			page 15


 283              	.LCFI11:
 284              		.cfi_def_cfa_offset 40
 285              		.cfi_offset 3, -40
 286 0006 4883EC28 		subq	$40, %rsp
 287              	.LCFI12:
 288              		.cfi_def_cfa_offset 80
 289 000a 4989F5   		movq	%rsi, %r13
 290 000d 4889D5   		movq	%rdx, %rbp
 156:/home/baikal/workspace/C50/Huawei_IoT_Agent_Tiny_SDK_Linux//agent_tiny/lwm2m_client/object_security.c ****     if (NULL == targetP) return COAP_404_NOT_FOUND;
 291              		.loc 1 156 0
 292 0010 0FB7F7   		movzwl	%di, %esi
 293              	.LVL50:
 294 0013 498B7810 		movq	16(%r8), %rdi
 295              	.LVL51:
 296 0017 E8000000 		call	lwm2m_list_find
 296      00
 297              	.LVL52:
 157:/home/baikal/workspace/C50/Huawei_IoT_Agent_Tiny_SDK_Linux//agent_tiny/lwm2m_client/object_security.c **** 
 298              		.loc 1 157 0
 299 001c 4885C0   		testq	%rax, %rax
 300 001f 0F84E300 		je	.L32
 300      0000
 301 0025 4989C4   		movq	%rax, %r12
 160:/home/baikal/workspace/C50/Huawei_IoT_Agent_Tiny_SDK_Linux//agent_tiny/lwm2m_client/object_security.c ****     {
 302              		.loc 1 160 0
 303 0028 41837D00 		cmpl	$0, 0(%r13)
 303      00
 304 002d 0F85A600 		jne	.L27
 304      0000
 305              	.LBB37:
 162:/home/baikal/workspace/C50/Huawei_IoT_Agent_Tiny_SDK_Linux//agent_tiny/lwm2m_client/object_security.c ****                               LWM2M_SECURITY_BOOTSTRAP_ID,
 306              		.loc 1 162 0
 307 0033 66C70424 		movw	$0, (%rsp)
 307      0000
 308 0039 66C74424 		movw	$1, 2(%rsp)
 308      020100
 309 0040 66C74424 		movw	$2, 4(%rsp)
 309      040200
 310 0047 66C74424 		movw	$3, 6(%rsp)
 310      060300
 311 004e 66C74424 		movw	$4, 8(%rsp)
 311      080400
 312 0055 66C74424 		movw	$5, 10(%rsp)
 312      0A0500
 313 005c 66C74424 		movw	$6, 12(%rsp)
 313      0C0600
 314 0063 66C74424 		movw	$7, 14(%rsp)
 314      0E0700
 315 006a 66C74424 		movw	$8, 16(%rsp)
 315      100800
 316 0071 66C74424 		movw	$9, 18(%rsp)
 316      120900
 317 0078 66C74424 		movw	$10, 20(%rsp)
 317      140A00
 318 007f 66C74424 		movw	$11, 22(%rsp)
 318      160B00
 319 0086 66C74424 		movw	$12, 24(%rsp)
GAS LISTING /tmp/ccEvjyYW.s 			page 16


 319      180C00
 320              	.LVL53:
 178:/home/baikal/workspace/C50/Huawei_IoT_Agent_Tiny_SDK_Linux//agent_tiny/lwm2m_client/object_security.c ****         if (*dataArrayP == NULL) return COAP_500_INTERNAL_SERVER_ERROR;
 321              		.loc 1 178 0
 322 008d BF0D0000 		movl	$13, %edi
 322      00
 323 0092 E8000000 		call	lwm2m_data_new
 323      00
 324              	.LVL54:
 325 0097 48894500 		movq	%rax, 0(%rbp)
 179:/home/baikal/workspace/C50/Huawei_IoT_Agent_Tiny_SDK_Linux//agent_tiny/lwm2m_client/object_security.c ****         *numDataP = nbRes;
 326              		.loc 1 179 0
 327 009b 4885C0   		testq	%rax, %rax
 328 009e 7507     		jne	.L28
 179:/home/baikal/workspace/C50/Huawei_IoT_Agent_Tiny_SDK_Linux//agent_tiny/lwm2m_client/object_security.c ****         *numDataP = nbRes;
 329              		.loc 1 179 0 is_stmt 0 discriminator 1
 330 00a0 B8A0FFFF 		movl	$-96, %eax
 330      FF
 331 00a5 EB66     		jmp	.L26
 332              	.L28:
 180:/home/baikal/workspace/C50/Huawei_IoT_Agent_Tiny_SDK_Linux//agent_tiny/lwm2m_client/object_security.c ****         for (i = 0 ; i < nbRes ; i++)
 333              		.loc 1 180 0 is_stmt 1
 334 00a7 41C74500 		movl	$13, 0(%r13)
 334      0D000000 
 335              	.LVL55:
 181:/home/baikal/workspace/C50/Huawei_IoT_Agent_Tiny_SDK_Linux//agent_tiny/lwm2m_client/object_security.c ****         {
 336              		.loc 1 181 0
 337 00af BA000000 		movl	$0, %edx
 337      00
 338 00b4 EB1E     		jmp	.L29
 339              	.LVL56:
 340              	.L30:
 183:/home/baikal/workspace/C50/Huawei_IoT_Agent_Tiny_SDK_Linux//agent_tiny/lwm2m_client/object_security.c ****         }
 341              		.loc 1 183 0 discriminator 3
 342 00b6 4863CA   		movslq	%edx, %rcx
 343 00b9 488D3449 		leaq	(%rcx,%rcx,2), %rsi
 344 00bd 488D04F5 		leaq	0(,%rsi,8), %rax
 344      00000000 
 345 00c5 48034500 		addq	0(%rbp), %rax
 346 00c9 0FB70C4C 		movzwl	(%rsp,%rcx,2), %ecx
 347 00cd 66894804 		movw	%cx, 4(%rax)
 181:/home/baikal/workspace/C50/Huawei_IoT_Agent_Tiny_SDK_Linux//agent_tiny/lwm2m_client/object_security.c ****         {
 348              		.loc 1 181 0 discriminator 3
 349 00d1 83C201   		addl	$1, %edx
 350              	.LVL57:
 351              	.L29:
 181:/home/baikal/workspace/C50/Huawei_IoT_Agent_Tiny_SDK_Linux//agent_tiny/lwm2m_client/object_security.c ****         {
 352              		.loc 1 181 0 is_stmt 0 discriminator 1
 353 00d4 83FA0C   		cmpl	$12, %edx
 354 00d7 7EDD     		jle	.L30
 355              	.LVL58:
 356              	.L27:
 181:/home/baikal/workspace/C50/Huawei_IoT_Agent_Tiny_SDK_Linux//agent_tiny/lwm2m_client/object_security.c ****         {
 357              		.loc 1 181 0 discriminator 2
 358 00d9 BB000000 		movl	$0, %ebx
 358      00
 359              	.L31:
GAS LISTING /tmp/ccEvjyYW.s 			page 17


 360              	.LVL59:
 361              	.LBE37:
 190:/home/baikal/workspace/C50/Huawei_IoT_Agent_Tiny_SDK_Linux//agent_tiny/lwm2m_client/object_security.c ****         i++;
 362              		.loc 1 190 0 is_stmt 1 discriminator 2
 363 00de 4863C3   		movslq	%ebx, %rax
 364 00e1 488D0440 		leaq	(%rax,%rax,2), %rax
 365 00e5 488D3CC5 		leaq	0(,%rax,8), %rdi
 365      00000000 
 366 00ed 48037D00 		addq	0(%rbp), %rdi
 367 00f1 4C89E6   		movq	%r12, %rsi
 368 00f4 E8000000 		call	prv_get_value
 368      00
 369              	.LVL60:
 191:/home/baikal/workspace/C50/Huawei_IoT_Agent_Tiny_SDK_Linux//agent_tiny/lwm2m_client/object_security.c ****     }
 370              		.loc 1 191 0 discriminator 2
 371 00f9 83C301   		addl	$1, %ebx
 372              	.LVL61:
 193:/home/baikal/workspace/C50/Huawei_IoT_Agent_Tiny_SDK_Linux//agent_tiny/lwm2m_client/object_security.c **** 
 373              		.loc 1 193 0 discriminator 2
 374 00fc 413B5D00 		cmpl	0(%r13), %ebx
 375 0100 7D0B     		jge	.L26
 193:/home/baikal/workspace/C50/Huawei_IoT_Agent_Tiny_SDK_Linux//agent_tiny/lwm2m_client/object_security.c **** 
 376              		.loc 1 193 0 is_stmt 0 discriminator 1
 377 0102 3C45     		cmpb	$69, %al
 378 0104 74D8     		je	.L31
 379 0106 EB05     		jmp	.L26
 380              	.LVL62:
 381              	.L32:
 157:/home/baikal/workspace/C50/Huawei_IoT_Agent_Tiny_SDK_Linux//agent_tiny/lwm2m_client/object_security.c **** 
 382              		.loc 1 157 0 is_stmt 1
 383 0108 B884FFFF 		movl	$-124, %eax
 383      FF
 384              	.LVL63:
 385              	.L26:
 196:/home/baikal/workspace/C50/Huawei_IoT_Agent_Tiny_SDK_Linux//agent_tiny/lwm2m_client/object_security.c **** 
 386              		.loc 1 196 0
 387 010d 4883C428 		addq	$40, %rsp
 388              	.LCFI13:
 389              		.cfi_def_cfa_offset 40
 390 0111 5B       		popq	%rbx
 391              	.LCFI14:
 392              		.cfi_def_cfa_offset 32
 393 0112 5D       		popq	%rbp
 394              	.LCFI15:
 395              		.cfi_def_cfa_offset 24
 396              	.LVL64:
 397 0113 415C     		popq	%r12
 398              	.LCFI16:
 399              		.cfi_def_cfa_offset 16
 400 0115 415D     		popq	%r13
 401              	.LCFI17:
 402              		.cfi_def_cfa_offset 8
 403              	.LVL65:
 404 0117 C3       		ret
 405              		.cfi_endproc
 406              	.LFE72:
 408              		.section	.text.prv_security_write,"ax",@progbits
GAS LISTING /tmp/ccEvjyYW.s 			page 18


 410              	prv_security_write:
 411              	.LFB73:
 204:/home/baikal/workspace/C50/Huawei_IoT_Agent_Tiny_SDK_Linux//agent_tiny/lwm2m_client/object_security.c ****     security_instance_t *targetP;
 412              		.loc 1 204 0
 413              		.cfi_startproc
 414              	.LVL66:
 415 0000 4156     		pushq	%r14
 416              	.LCFI18:
 417              		.cfi_def_cfa_offset 16
 418              		.cfi_offset 14, -16
 419 0002 4155     		pushq	%r13
 420              	.LCFI19:
 421              		.cfi_def_cfa_offset 24
 422              		.cfi_offset 13, -24
 423 0004 4154     		pushq	%r12
 424              	.LCFI20:
 425              		.cfi_def_cfa_offset 32
 426              		.cfi_offset 12, -32
 427 0006 55       		pushq	%rbp
 428              	.LCFI21:
 429              		.cfi_def_cfa_offset 40
 430              		.cfi_offset 6, -40
 431 0007 53       		pushq	%rbx
 432              	.LCFI22:
 433              		.cfi_def_cfa_offset 48
 434              		.cfi_offset 3, -48
 435 0008 4883EC10 		subq	$16, %rsp
 436              	.LCFI23:
 437              		.cfi_def_cfa_offset 64
 438 000c 4189F6   		movl	%esi, %r14d
 439 000f 4989D5   		movq	%rdx, %r13
 440              	.LVL67:
 209:/home/baikal/workspace/C50/Huawei_IoT_Agent_Tiny_SDK_Linux//agent_tiny/lwm2m_client/object_security.c ****     if (NULL == targetP)
 441              		.loc 1 209 0
 442 0012 0FB7F7   		movzwl	%di, %esi
 443              	.LVL68:
 444 0015 488B7910 		movq	16(%rcx), %rdi
 445              	.LVL69:
 446 0019 E8000000 		call	lwm2m_list_find
 446      00
 447              	.LVL70:
 210:/home/baikal/workspace/C50/Huawei_IoT_Agent_Tiny_SDK_Linux//agent_tiny/lwm2m_client/object_security.c ****     {
 448              		.loc 1 210 0
 449 001e 4885C0   		testq	%rax, %rax
 450 0021 0F841503 		je	.L57
 450      0000
 451 0027 4989C4   		movq	%rax, %r12
 452 002a BD000000 		movl	$0, %ebp
 452      00
 453              	.LVL71:
 454              	.L56:
 218:/home/baikal/workspace/C50/Huawei_IoT_Agent_Tiny_SDK_Linux//agent_tiny/lwm2m_client/object_security.c ****         {
 455              		.loc 1 218 0
 456 002f 4863C5   		movslq	%ebp, %rax
 457 0032 488D0440 		leaq	(%rax,%rax,2), %rax
 458 0036 488D1CC5 		leaq	0(,%rax,8), %rbx
 458      00000000 
GAS LISTING /tmp/ccEvjyYW.s 			page 19


 459 003e 4C01EB   		addq	%r13, %rbx
 460 0041 0FB74304 		movzwl	4(%rbx), %eax
 461 0045 6683F80C 		cmpw	$12, %ax
 462 0049 0F87F402 		ja	.L58
 462      0000
 463 004f 0FB7C0   		movzwl	%ax, %eax
 464 0052 FF24C500 		jmp	*.L38(,%rax,8)
 464      000000
 465              		.section	.rodata.prv_security_write,"a",@progbits
 466              		.align 8
 467              		.align 4
 468              	.L38:
 469 0000 00000000 		.quad	.L37
 469      00000000 
 470 0008 00000000 		.quad	.L39
 470      00000000 
 471 0010 00000000 		.quad	.L40
 471      00000000 
 472 0018 00000000 		.quad	.L41
 472      00000000 
 473 0020 00000000 		.quad	.L42
 473      00000000 
 474 0028 00000000 		.quad	.L43
 474      00000000 
 475 0030 00000000 		.quad	.L59
 475      00000000 
 476 0038 00000000 		.quad	.L59
 476      00000000 
 477 0040 00000000 		.quad	.L59
 477      00000000 
 478 0048 00000000 		.quad	.L59
 478      00000000 
 479 0050 00000000 		.quad	.L45
 479      00000000 
 480 0058 00000000 		.quad	.L46
 480      00000000 
 481 0060 00000000 		.quad	.L47
 481      00000000 
 482              		.section	.text.prv_security_write
 483              	.L37:
 221:/home/baikal/workspace/C50/Huawei_IoT_Agent_Tiny_SDK_Linux//agent_tiny/lwm2m_client/object_security.c ****             targetP->uri = (char *)lwm2m_malloc(dataArray[i].value.asBuffer.length + 1);
 484              		.loc 1 221 0
 485 0059 498B7C24 		movq	16(%r12), %rdi
 485      10
 486 005e 4885FF   		testq	%rdi, %rdi
 487 0061 7405     		je	.L48
 221:/home/baikal/workspace/C50/Huawei_IoT_Agent_Tiny_SDK_Linux//agent_tiny/lwm2m_client/object_security.c ****             targetP->uri = (char *)lwm2m_malloc(dataArray[i].value.asBuffer.length + 1);
 488              		.loc 1 221 0 is_stmt 0 discriminator 1
 489 0063 E8000000 		call	lwm2m_free
 489      00
 490              	.LVL72:
 491              	.L48:
 222:/home/baikal/workspace/C50/Huawei_IoT_Agent_Tiny_SDK_Linux//agent_tiny/lwm2m_client/object_security.c ****             if (targetP->uri != NULL)
 492              		.loc 1 222 0 is_stmt 1
 493 0068 488B4308 		movq	8(%rbx), %rax
 494 006c 488D7801 		leaq	1(%rax), %rdi
 495 0070 E8000000 		call	lwm2m_malloc
GAS LISTING /tmp/ccEvjyYW.s 			page 20


 495      00
 496              	.LVL73:
 497 0075 49894424 		movq	%rax, 16(%r12)
 497      10
 223:/home/baikal/workspace/C50/Huawei_IoT_Agent_Tiny_SDK_Linux//agent_tiny/lwm2m_client/object_security.c ****             {
 498              		.loc 1 223 0
 499 007a 4885C0   		testq	%rax, %rax
 500 007d 0F848002 		je	.L60
 500      0000
 225:/home/baikal/workspace/C50/Huawei_IoT_Agent_Tiny_SDK_Linux//agent_tiny/lwm2m_client/object_security.c ****                 strncpy(targetP->uri, (char *)dataArray[i].value.asBuffer.buffer, dataArray[i].valu
 501              		.loc 1 225 0
 502 0083 488B4B08 		movq	8(%rbx), %rcx
 503 0087 488D5101 		leaq	1(%rcx), %rdx
 504              	.LVL74:
 505              	.LBB38:
 506              	.LBB39:
 507              		.file 2 "/usr/include/x86_64-linux-gnu/bits/string3.h"
   1:/usr/include/x86_64-linux-gnu/bits/string3.h **** /* Copyright (C) 2004-2016 Free Software Foundation, Inc.
   2:/usr/include/x86_64-linux-gnu/bits/string3.h ****    This file is part of the GNU C Library.
   3:/usr/include/x86_64-linux-gnu/bits/string3.h **** 
   4:/usr/include/x86_64-linux-gnu/bits/string3.h ****    The GNU C Library is free software; you can redistribute it and/or
   5:/usr/include/x86_64-linux-gnu/bits/string3.h ****    modify it under the terms of the GNU Lesser General Public
   6:/usr/include/x86_64-linux-gnu/bits/string3.h ****    License as published by the Free Software Foundation; either
   7:/usr/include/x86_64-linux-gnu/bits/string3.h ****    version 2.1 of the License, or (at your option) any later version.
   8:/usr/include/x86_64-linux-gnu/bits/string3.h **** 
   9:/usr/include/x86_64-linux-gnu/bits/string3.h ****    The GNU C Library is distributed in the hope that it will be useful,
  10:/usr/include/x86_64-linux-gnu/bits/string3.h ****    but WITHOUT ANY WARRANTY; without even the implied warranty of
  11:/usr/include/x86_64-linux-gnu/bits/string3.h ****    MERCHANTABILITY or FITNESS FOR A PARTICULAR PURPOSE.  See the GNU
  12:/usr/include/x86_64-linux-gnu/bits/string3.h ****    Lesser General Public License for more details.
  13:/usr/include/x86_64-linux-gnu/bits/string3.h **** 
  14:/usr/include/x86_64-linux-gnu/bits/string3.h ****    You should have received a copy of the GNU Lesser General Public
  15:/usr/include/x86_64-linux-gnu/bits/string3.h ****    License along with the GNU C Library; if not, see
  16:/usr/include/x86_64-linux-gnu/bits/string3.h ****    <http://www.gnu.org/licenses/>.  */
  17:/usr/include/x86_64-linux-gnu/bits/string3.h **** 
  18:/usr/include/x86_64-linux-gnu/bits/string3.h **** #ifndef _STRING_H
  19:/usr/include/x86_64-linux-gnu/bits/string3.h **** # error "Never use <bits/string3.h> directly; include <string.h> instead."
  20:/usr/include/x86_64-linux-gnu/bits/string3.h **** #endif
  21:/usr/include/x86_64-linux-gnu/bits/string3.h **** 
  22:/usr/include/x86_64-linux-gnu/bits/string3.h **** #if !__GNUC_PREREQ (5,0)
  23:/usr/include/x86_64-linux-gnu/bits/string3.h **** __warndecl (__warn_memset_zero_len,
  24:/usr/include/x86_64-linux-gnu/bits/string3.h **** 	    "memset used with constant zero length parameter; this could be due to transposed parameters")
  25:/usr/include/x86_64-linux-gnu/bits/string3.h **** #endif
  26:/usr/include/x86_64-linux-gnu/bits/string3.h **** 
  27:/usr/include/x86_64-linux-gnu/bits/string3.h **** #ifndef __cplusplus
  28:/usr/include/x86_64-linux-gnu/bits/string3.h **** /* XXX This is temporarily.  We should not redefine any of the symbols
  29:/usr/include/x86_64-linux-gnu/bits/string3.h ****    and instead integrate the error checking into the original
  30:/usr/include/x86_64-linux-gnu/bits/string3.h ****    definitions.  */
  31:/usr/include/x86_64-linux-gnu/bits/string3.h **** # undef memcpy
  32:/usr/include/x86_64-linux-gnu/bits/string3.h **** # undef memmove
  33:/usr/include/x86_64-linux-gnu/bits/string3.h **** # undef memset
  34:/usr/include/x86_64-linux-gnu/bits/string3.h **** # undef strcat
  35:/usr/include/x86_64-linux-gnu/bits/string3.h **** # undef strcpy
  36:/usr/include/x86_64-linux-gnu/bits/string3.h **** # undef strncat
  37:/usr/include/x86_64-linux-gnu/bits/string3.h **** # undef strncpy
  38:/usr/include/x86_64-linux-gnu/bits/string3.h **** # ifdef __USE_GNU
  39:/usr/include/x86_64-linux-gnu/bits/string3.h **** #  undef mempcpy
  40:/usr/include/x86_64-linux-gnu/bits/string3.h **** #  undef stpcpy
GAS LISTING /tmp/ccEvjyYW.s 			page 21


  41:/usr/include/x86_64-linux-gnu/bits/string3.h **** # endif
  42:/usr/include/x86_64-linux-gnu/bits/string3.h **** # ifdef __USE_MISC
  43:/usr/include/x86_64-linux-gnu/bits/string3.h **** #  undef bcopy
  44:/usr/include/x86_64-linux-gnu/bits/string3.h **** #  undef bzero
  45:/usr/include/x86_64-linux-gnu/bits/string3.h **** # endif
  46:/usr/include/x86_64-linux-gnu/bits/string3.h **** #endif
  47:/usr/include/x86_64-linux-gnu/bits/string3.h **** 
  48:/usr/include/x86_64-linux-gnu/bits/string3.h **** 
  49:/usr/include/x86_64-linux-gnu/bits/string3.h **** __fortify_function void *
  50:/usr/include/x86_64-linux-gnu/bits/string3.h **** __NTH (memcpy (void *__restrict __dest, const void *__restrict __src,
  51:/usr/include/x86_64-linux-gnu/bits/string3.h **** 	       size_t __len))
  52:/usr/include/x86_64-linux-gnu/bits/string3.h **** {
  53:/usr/include/x86_64-linux-gnu/bits/string3.h ****   return __builtin___memcpy_chk (__dest, __src, __len, __bos0 (__dest));
  54:/usr/include/x86_64-linux-gnu/bits/string3.h **** }
  55:/usr/include/x86_64-linux-gnu/bits/string3.h **** 
  56:/usr/include/x86_64-linux-gnu/bits/string3.h **** __fortify_function void *
  57:/usr/include/x86_64-linux-gnu/bits/string3.h **** __NTH (memmove (void *__dest, const void *__src, size_t __len))
  58:/usr/include/x86_64-linux-gnu/bits/string3.h **** {
  59:/usr/include/x86_64-linux-gnu/bits/string3.h ****   return __builtin___memmove_chk (__dest, __src, __len, __bos0 (__dest));
  60:/usr/include/x86_64-linux-gnu/bits/string3.h **** }
  61:/usr/include/x86_64-linux-gnu/bits/string3.h **** 
  62:/usr/include/x86_64-linux-gnu/bits/string3.h **** #ifdef __USE_GNU
  63:/usr/include/x86_64-linux-gnu/bits/string3.h **** __fortify_function void *
  64:/usr/include/x86_64-linux-gnu/bits/string3.h **** __NTH (mempcpy (void *__restrict __dest, const void *__restrict __src,
  65:/usr/include/x86_64-linux-gnu/bits/string3.h **** 		size_t __len))
  66:/usr/include/x86_64-linux-gnu/bits/string3.h **** {
  67:/usr/include/x86_64-linux-gnu/bits/string3.h ****   return __builtin___mempcpy_chk (__dest, __src, __len, __bos0 (__dest));
  68:/usr/include/x86_64-linux-gnu/bits/string3.h **** }
  69:/usr/include/x86_64-linux-gnu/bits/string3.h **** #endif
  70:/usr/include/x86_64-linux-gnu/bits/string3.h **** 
  71:/usr/include/x86_64-linux-gnu/bits/string3.h **** 
  72:/usr/include/x86_64-linux-gnu/bits/string3.h **** /* The first two tests here help to catch a somewhat common problem
  73:/usr/include/x86_64-linux-gnu/bits/string3.h ****    where the second and third parameter are transposed.  This is
  74:/usr/include/x86_64-linux-gnu/bits/string3.h ****    especially problematic if the intended fill value is zero.  In this
  75:/usr/include/x86_64-linux-gnu/bits/string3.h ****    case no work is done at all.  We detect these problems by referring
  76:/usr/include/x86_64-linux-gnu/bits/string3.h ****    non-existing functions.  */
  77:/usr/include/x86_64-linux-gnu/bits/string3.h **** __fortify_function void *
  78:/usr/include/x86_64-linux-gnu/bits/string3.h **** __NTH (memset (void *__dest, int __ch, size_t __len))
  79:/usr/include/x86_64-linux-gnu/bits/string3.h **** {
  80:/usr/include/x86_64-linux-gnu/bits/string3.h ****   /* GCC-5.0 and newer implements these checks in the compiler, so we don't
  81:/usr/include/x86_64-linux-gnu/bits/string3.h ****      need them here.  */
  82:/usr/include/x86_64-linux-gnu/bits/string3.h **** #if !__GNUC_PREREQ (5,0)
  83:/usr/include/x86_64-linux-gnu/bits/string3.h ****   if (__builtin_constant_p (__len) && __len == 0
  84:/usr/include/x86_64-linux-gnu/bits/string3.h ****       && (!__builtin_constant_p (__ch) || __ch != 0))
  85:/usr/include/x86_64-linux-gnu/bits/string3.h ****     {
  86:/usr/include/x86_64-linux-gnu/bits/string3.h ****       __warn_memset_zero_len ();
  87:/usr/include/x86_64-linux-gnu/bits/string3.h ****       return __dest;
  88:/usr/include/x86_64-linux-gnu/bits/string3.h ****     }
  89:/usr/include/x86_64-linux-gnu/bits/string3.h **** #endif
  90:/usr/include/x86_64-linux-gnu/bits/string3.h ****   return __builtin___memset_chk (__dest, __ch, __len, __bos0 (__dest));
 508              		.loc 2 90 0
 509 008b BE000000 		movl	$0, %esi
 509      00
 510 0090 4889C7   		movq	%rax, %rdi
 511 0093 E8000000 		call	memset
 511      00
 512              	.LVL75:
GAS LISTING /tmp/ccEvjyYW.s 			page 22


 513              	.LBE39:
 514              	.LBE38:
 226:/home/baikal/workspace/C50/Huawei_IoT_Agent_Tiny_SDK_Linux//agent_tiny/lwm2m_client/object_security.c ****                 result = COAP_204_CHANGED;
 515              		.loc 1 226 0
 516 0098 488B5308 		movq	8(%rbx), %rdx
 517 009c 488B7310 		movq	16(%rbx), %rsi
 518 00a0 498B7C24 		movq	16(%r12), %rdi
 518      10
 519              	.LVL76:
 520              	.LBB40:
 521              	.LBB41:
  91:/usr/include/x86_64-linux-gnu/bits/string3.h **** }
  92:/usr/include/x86_64-linux-gnu/bits/string3.h **** 
  93:/usr/include/x86_64-linux-gnu/bits/string3.h **** #ifdef __USE_MISC
  94:/usr/include/x86_64-linux-gnu/bits/string3.h **** __fortify_function void
  95:/usr/include/x86_64-linux-gnu/bits/string3.h **** __NTH (bcopy (const void *__src, void *__dest, size_t __len))
  96:/usr/include/x86_64-linux-gnu/bits/string3.h **** {
  97:/usr/include/x86_64-linux-gnu/bits/string3.h ****   (void) __builtin___memmove_chk (__dest, __src, __len, __bos0 (__dest));
  98:/usr/include/x86_64-linux-gnu/bits/string3.h **** }
  99:/usr/include/x86_64-linux-gnu/bits/string3.h **** 
 100:/usr/include/x86_64-linux-gnu/bits/string3.h **** __fortify_function void
 101:/usr/include/x86_64-linux-gnu/bits/string3.h **** __NTH (bzero (void *__dest, size_t __len))
 102:/usr/include/x86_64-linux-gnu/bits/string3.h **** {
 103:/usr/include/x86_64-linux-gnu/bits/string3.h ****   (void) __builtin___memset_chk (__dest, '\0', __len, __bos0 (__dest));
 104:/usr/include/x86_64-linux-gnu/bits/string3.h **** }
 105:/usr/include/x86_64-linux-gnu/bits/string3.h **** #endif
 106:/usr/include/x86_64-linux-gnu/bits/string3.h **** 
 107:/usr/include/x86_64-linux-gnu/bits/string3.h **** __fortify_function char *
 108:/usr/include/x86_64-linux-gnu/bits/string3.h **** __NTH (strcpy (char *__restrict __dest, const char *__restrict __src))
 109:/usr/include/x86_64-linux-gnu/bits/string3.h **** {
 110:/usr/include/x86_64-linux-gnu/bits/string3.h ****   return __builtin___strcpy_chk (__dest, __src, __bos (__dest));
 111:/usr/include/x86_64-linux-gnu/bits/string3.h **** }
 112:/usr/include/x86_64-linux-gnu/bits/string3.h **** 
 113:/usr/include/x86_64-linux-gnu/bits/string3.h **** #ifdef __USE_GNU
 114:/usr/include/x86_64-linux-gnu/bits/string3.h **** __fortify_function char *
 115:/usr/include/x86_64-linux-gnu/bits/string3.h **** __NTH (stpcpy (char *__restrict __dest, const char *__restrict __src))
 116:/usr/include/x86_64-linux-gnu/bits/string3.h **** {
 117:/usr/include/x86_64-linux-gnu/bits/string3.h ****   return __builtin___stpcpy_chk (__dest, __src, __bos (__dest));
 118:/usr/include/x86_64-linux-gnu/bits/string3.h **** }
 119:/usr/include/x86_64-linux-gnu/bits/string3.h **** #endif
 120:/usr/include/x86_64-linux-gnu/bits/string3.h **** 
 121:/usr/include/x86_64-linux-gnu/bits/string3.h **** 
 122:/usr/include/x86_64-linux-gnu/bits/string3.h **** __fortify_function char *
 123:/usr/include/x86_64-linux-gnu/bits/string3.h **** __NTH (strncpy (char *__restrict __dest, const char *__restrict __src,
 124:/usr/include/x86_64-linux-gnu/bits/string3.h **** 		size_t __len))
 125:/usr/include/x86_64-linux-gnu/bits/string3.h **** {
 126:/usr/include/x86_64-linux-gnu/bits/string3.h ****   return __builtin___strncpy_chk (__dest, __src, __len, __bos (__dest));
 522              		.loc 2 126 0
 523 00a5 E8000000 		call	strncpy
 523      00
 524              	.LVL77:
 525              	.LBE41:
 526              	.LBE40:
 227:/home/baikal/workspace/C50/Huawei_IoT_Agent_Tiny_SDK_Linux//agent_tiny/lwm2m_client/object_security.c ****             }
 527              		.loc 1 227 0
 528 00aa B8440000 		movl	$68, %eax
 528      00
GAS LISTING /tmp/ccEvjyYW.s 			page 23


 529 00af E9700200 		jmp	.L44
 529      00
 530              	.LVL78:
 531              	.L39:
 236:/home/baikal/workspace/C50/Huawei_IoT_Agent_Tiny_SDK_Linux//agent_tiny/lwm2m_client/object_security.c ****             {
 532              		.loc 1 236 0
 533 00b4 498D7424 		leaq	24(%r12), %rsi
 533      18
 534 00b9 4889DF   		movq	%rbx, %rdi
 535 00bc E8000000 		call	lwm2m_data_decode_bool
 535      00
 536              	.LVL79:
 537 00c1 83F801   		cmpl	$1, %eax
 538 00c4 0F854002 		jne	.L61
 538      0000
 238:/home/baikal/workspace/C50/Huawei_IoT_Agent_Tiny_SDK_Linux//agent_tiny/lwm2m_client/object_security.c ****             }
 539              		.loc 1 238 0
 540 00ca B8440000 		movl	$68, %eax
 540      00
 541 00cf E9500200 		jmp	.L44
 541      00
 542              	.L40:
 543              	.LBB42:
 250:/home/baikal/workspace/C50/Huawei_IoT_Agent_Tiny_SDK_Linux//agent_tiny/lwm2m_client/object_security.c ****             {
 544              		.loc 1 250 0
 545 00d4 488D7424 		leaq	8(%rsp), %rsi
 545      08
 546 00d9 4889DF   		movq	%rbx, %rdi
 547 00dc E8000000 		call	lwm2m_data_decode_int
 547      00
 548              	.LVL80:
 549 00e1 83F801   		cmpl	$1, %eax
 550 00e4 751A     		jne	.L62
 252:/home/baikal/workspace/C50/Huawei_IoT_Agent_Tiny_SDK_Linux//agent_tiny/lwm2m_client/object_security.c ****                 {
 551              		.loc 1 252 0
 552 00e6 488B4424 		movq	8(%rsp), %rax
 552      08
 553 00eb 4883F803 		cmpq	$3, %rax
 554 00ef 7719     		ja	.L63
 254:/home/baikal/workspace/C50/Huawei_IoT_Agent_Tiny_SDK_Linux//agent_tiny/lwm2m_client/object_security.c ****                     result = COAP_204_CHANGED;
 555              		.loc 1 254 0
 556 00f1 41884424 		movb	%al, 25(%r12)
 556      19
 557              	.LVL81:
 255:/home/baikal/workspace/C50/Huawei_IoT_Agent_Tiny_SDK_Linux//agent_tiny/lwm2m_client/object_security.c ****                 }
 558              		.loc 1 255 0
 559 00f6 B8440000 		movl	$68, %eax
 559      00
 560 00fb E9240200 		jmp	.L44
 560      00
 561              	.LVL82:
 562              	.L62:
 264:/home/baikal/workspace/C50/Huawei_IoT_Agent_Tiny_SDK_Linux//agent_tiny/lwm2m_client/object_security.c ****             }
 563              		.loc 1 264 0
 564 0100 B880FFFF 		movl	$-128, %eax
 564      FF
 565 0105 E91A0200 		jmp	.L44
GAS LISTING /tmp/ccEvjyYW.s 			page 24


 565      00
 566              	.L63:
 259:/home/baikal/workspace/C50/Huawei_IoT_Agent_Tiny_SDK_Linux//agent_tiny/lwm2m_client/object_security.c ****                 }
 567              		.loc 1 259 0
 568 010a B886FFFF 		movl	$-122, %eax
 568      FF
 569              	.LVL83:
 570              	.LBE42:
 267:/home/baikal/workspace/C50/Huawei_IoT_Agent_Tiny_SDK_Linux//agent_tiny/lwm2m_client/object_security.c ****         case LWM2M_SECURITY_PUBLIC_KEY_ID:
 571              		.loc 1 267 0
 572 010f E9100200 		jmp	.L44
 572      00
 573              	.LVL84:
 574              	.L41:
 269:/home/baikal/workspace/C50/Huawei_IoT_Agent_Tiny_SDK_Linux//agent_tiny/lwm2m_client/object_security.c ****             targetP->publicIdentity = (char *)lwm2m_malloc(dataArray[i].value.asBuffer.length + 1);
 575              		.loc 1 269 0
 576 0114 498B7C24 		movq	32(%r12), %rdi
 576      20
 577 0119 4885FF   		testq	%rdi, %rdi
 578 011c 7405     		je	.L50
 269:/home/baikal/workspace/C50/Huawei_IoT_Agent_Tiny_SDK_Linux//agent_tiny/lwm2m_client/object_security.c ****             targetP->publicIdentity = (char *)lwm2m_malloc(dataArray[i].value.asBuffer.length + 1);
 579              		.loc 1 269 0 is_stmt 0 discriminator 1
 580 011e E8000000 		call	lwm2m_free
 580      00
 581              	.LVL85:
 582              	.L50:
 270:/home/baikal/workspace/C50/Huawei_IoT_Agent_Tiny_SDK_Linux//agent_tiny/lwm2m_client/object_security.c ****             if (targetP->publicIdentity != NULL)
 583              		.loc 1 270 0 is_stmt 1
 584 0123 488B4308 		movq	8(%rbx), %rax
 585 0127 488D7801 		leaq	1(%rax), %rdi
 586 012b E8000000 		call	lwm2m_malloc
 586      00
 587              	.LVL86:
 588 0130 49894424 		movq	%rax, 32(%r12)
 588      20
 271:/home/baikal/workspace/C50/Huawei_IoT_Agent_Tiny_SDK_Linux//agent_tiny/lwm2m_client/object_security.c ****             {
 589              		.loc 1 271 0
 590 0135 4885C0   		testq	%rax, %rax
 591 0138 0F84D301 		je	.L64
 591      0000
 273:/home/baikal/workspace/C50/Huawei_IoT_Agent_Tiny_SDK_Linux//agent_tiny/lwm2m_client/object_security.c ****                 memcpy(targetP->publicIdentity, (char *)dataArray[i].value.asBuffer.buffer, dataArr
 592              		.loc 1 273 0
 593 013e 488B4B08 		movq	8(%rbx), %rcx
 594 0142 488D5101 		leaq	1(%rcx), %rdx
 595              	.LVL87:
 596              	.LBB43:
 597              	.LBB44:
  90:/usr/include/x86_64-linux-gnu/bits/string3.h **** }
 598              		.loc 2 90 0
 599 0146 BE000000 		movl	$0, %esi
 599      00
 600 014b 4889C7   		movq	%rax, %rdi
 601 014e E8000000 		call	memset
 601      00
 602              	.LVL88:
 603              	.LBE44:
 604              	.LBE43:
GAS LISTING /tmp/ccEvjyYW.s 			page 25


 274:/home/baikal/workspace/C50/Huawei_IoT_Agent_Tiny_SDK_Linux//agent_tiny/lwm2m_client/object_security.c ****                 targetP->publicIdLen = dataArray[i].value.asBuffer.length;
 605              		.loc 1 274 0
 606 0153 488B5308 		movq	8(%rbx), %rdx
 607 0157 488B7310 		movq	16(%rbx), %rsi
 608 015b 498B7C24 		movq	32(%r12), %rdi
 608      20
 609              	.LVL89:
 610              	.LBB45:
 611              	.LBB46:
  53:/usr/include/x86_64-linux-gnu/bits/string3.h **** }
 612              		.loc 2 53 0
 613 0160 E8000000 		call	memcpy
 613      00
 614              	.LVL90:
 615              	.LBE46:
 616              	.LBE45:
 275:/home/baikal/workspace/C50/Huawei_IoT_Agent_Tiny_SDK_Linux//agent_tiny/lwm2m_client/object_security.c ****                 result = COAP_204_CHANGED;
 617              		.loc 1 275 0
 618 0165 488B4308 		movq	8(%rbx), %rax
 619 0169 66418944 		movw	%ax, 40(%r12)
 619      2428
 620              	.LVL91:
 276:/home/baikal/workspace/C50/Huawei_IoT_Agent_Tiny_SDK_Linux//agent_tiny/lwm2m_client/object_security.c ****             }
 621              		.loc 1 276 0
 622 016f B8440000 		movl	$68, %eax
 622      00
 623 0174 E9AB0100 		jmp	.L44
 623      00
 624              	.LVL92:
 625              	.L42:
 285:/home/baikal/workspace/C50/Huawei_IoT_Agent_Tiny_SDK_Linux//agent_tiny/lwm2m_client/object_security.c ****             targetP->serverPublicKey = (char *)lwm2m_malloc(dataArray[i].value.asBuffer.length + 1)
 626              		.loc 1 285 0
 627 0179 498B7C24 		movq	48(%r12), %rdi
 627      30
 628 017e 4885FF   		testq	%rdi, %rdi
 629 0181 7405     		je	.L51
 285:/home/baikal/workspace/C50/Huawei_IoT_Agent_Tiny_SDK_Linux//agent_tiny/lwm2m_client/object_security.c ****             targetP->serverPublicKey = (char *)lwm2m_malloc(dataArray[i].value.asBuffer.length + 1)
 630              		.loc 1 285 0 is_stmt 0 discriminator 1
 631 0183 E8000000 		call	lwm2m_free
 631      00
 632              	.LVL93:
 633              	.L51:
 286:/home/baikal/workspace/C50/Huawei_IoT_Agent_Tiny_SDK_Linux//agent_tiny/lwm2m_client/object_security.c ****             if (targetP->serverPublicKey != NULL)
 634              		.loc 1 286 0 is_stmt 1
 635 0188 488B4308 		movq	8(%rbx), %rax
 636 018c 488D7801 		leaq	1(%rax), %rdi
 637 0190 E8000000 		call	lwm2m_malloc
 637      00
 638              	.LVL94:
 639 0195 49894424 		movq	%rax, 48(%r12)
 639      30
 287:/home/baikal/workspace/C50/Huawei_IoT_Agent_Tiny_SDK_Linux//agent_tiny/lwm2m_client/object_security.c ****             {
 640              		.loc 1 287 0
 641 019a 4885C0   		testq	%rax, %rax
 642 019d 0F847501 		je	.L65
 642      0000
 289:/home/baikal/workspace/C50/Huawei_IoT_Agent_Tiny_SDK_Linux//agent_tiny/lwm2m_client/object_security.c ****                 memcpy(targetP->serverPublicKey, (char *)dataArray[i].value.asBuffer.buffer, dataAr
GAS LISTING /tmp/ccEvjyYW.s 			page 26


 643              		.loc 1 289 0
 644 01a3 488B4B08 		movq	8(%rbx), %rcx
 645 01a7 488D5101 		leaq	1(%rcx), %rdx
 646              	.LVL95:
 647              	.LBB47:
 648              	.LBB48:
  90:/usr/include/x86_64-linux-gnu/bits/string3.h **** }
 649              		.loc 2 90 0
 650 01ab BE000000 		movl	$0, %esi
 650      00
 651 01b0 4889C7   		movq	%rax, %rdi
 652 01b3 E8000000 		call	memset
 652      00
 653              	.LVL96:
 654              	.LBE48:
 655              	.LBE47:
 290:/home/baikal/workspace/C50/Huawei_IoT_Agent_Tiny_SDK_Linux//agent_tiny/lwm2m_client/object_security.c ****                 targetP->serverPublicKeyLen = dataArray[i].value.asBuffer.length;
 656              		.loc 1 290 0
 657 01b8 488B5308 		movq	8(%rbx), %rdx
 658 01bc 488B7310 		movq	16(%rbx), %rsi
 659 01c0 498B7C24 		movq	48(%r12), %rdi
 659      30
 660              	.LVL97:
 661              	.LBB49:
 662              	.LBB50:
  53:/usr/include/x86_64-linux-gnu/bits/string3.h **** }
 663              		.loc 2 53 0
 664 01c5 E8000000 		call	memcpy
 664      00
 665              	.LVL98:
 666              	.LBE50:
 667              	.LBE49:
 291:/home/baikal/workspace/C50/Huawei_IoT_Agent_Tiny_SDK_Linux//agent_tiny/lwm2m_client/object_security.c ****                 result = COAP_204_CHANGED;
 668              		.loc 1 291 0
 669 01ca 488B4308 		movq	8(%rbx), %rax
 670 01ce 66418944 		movw	%ax, 56(%r12)
 670      2438
 671              	.LVL99:
 292:/home/baikal/workspace/C50/Huawei_IoT_Agent_Tiny_SDK_Linux//agent_tiny/lwm2m_client/object_security.c ****             }
 672              		.loc 1 292 0
 673 01d4 B8440000 		movl	$68, %eax
 673      00
 674 01d9 E9460100 		jmp	.L44
 674      00
 675              	.LVL100:
 676              	.L43:
 301:/home/baikal/workspace/C50/Huawei_IoT_Agent_Tiny_SDK_Linux//agent_tiny/lwm2m_client/object_security.c ****             targetP->secretKey = (char *)lwm2m_malloc(dataArray[i].value.asBuffer.length + 1);
 677              		.loc 1 301 0
 678 01de 498B7C24 		movq	64(%r12), %rdi
 678      40
 679 01e3 4885FF   		testq	%rdi, %rdi
 680 01e6 7405     		je	.L52
 301:/home/baikal/workspace/C50/Huawei_IoT_Agent_Tiny_SDK_Linux//agent_tiny/lwm2m_client/object_security.c ****             targetP->secretKey = (char *)lwm2m_malloc(dataArray[i].value.asBuffer.length + 1);
 681              		.loc 1 301 0 is_stmt 0 discriminator 1
 682 01e8 E8000000 		call	lwm2m_free
 682      00
 683              	.LVL101:
GAS LISTING /tmp/ccEvjyYW.s 			page 27


 684              	.L52:
 302:/home/baikal/workspace/C50/Huawei_IoT_Agent_Tiny_SDK_Linux//agent_tiny/lwm2m_client/object_security.c ****             if (targetP->secretKey != NULL)
 685              		.loc 1 302 0 is_stmt 1
 686 01ed 488B4308 		movq	8(%rbx), %rax
 687 01f1 488D7801 		leaq	1(%rax), %rdi
 688 01f5 E8000000 		call	lwm2m_malloc
 688      00
 689              	.LVL102:
 690 01fa 49894424 		movq	%rax, 64(%r12)
 690      40
 303:/home/baikal/workspace/C50/Huawei_IoT_Agent_Tiny_SDK_Linux//agent_tiny/lwm2m_client/object_security.c ****             {
 691              		.loc 1 303 0
 692 01ff 4885C0   		testq	%rax, %rax
 693 0202 0F841701 		je	.L66
 693      0000
 305:/home/baikal/workspace/C50/Huawei_IoT_Agent_Tiny_SDK_Linux//agent_tiny/lwm2m_client/object_security.c ****                 memcpy(targetP->secretKey, (char *)dataArray[i].value.asBuffer.buffer, dataArray[i]
 694              		.loc 1 305 0
 695 0208 488B4B08 		movq	8(%rbx), %rcx
 696 020c 488D5101 		leaq	1(%rcx), %rdx
 697              	.LVL103:
 698              	.LBB51:
 699              	.LBB52:
  90:/usr/include/x86_64-linux-gnu/bits/string3.h **** }
 700              		.loc 2 90 0
 701 0210 BE000000 		movl	$0, %esi
 701      00
 702 0215 4889C7   		movq	%rax, %rdi
 703 0218 E8000000 		call	memset
 703      00
 704              	.LVL104:
 705              	.LBE52:
 706              	.LBE51:
 306:/home/baikal/workspace/C50/Huawei_IoT_Agent_Tiny_SDK_Linux//agent_tiny/lwm2m_client/object_security.c ****                 targetP->secretKeyLen = dataArray[i].value.asBuffer.length;
 707              		.loc 1 306 0
 708 021d 488B5308 		movq	8(%rbx), %rdx
 709 0221 488B7310 		movq	16(%rbx), %rsi
 710 0225 498B7C24 		movq	64(%r12), %rdi
 710      40
 711              	.LVL105:
 712              	.LBB53:
 713              	.LBB54:
  53:/usr/include/x86_64-linux-gnu/bits/string3.h **** }
 714              		.loc 2 53 0
 715 022a E8000000 		call	memcpy
 715      00
 716              	.LVL106:
 717              	.LBE54:
 718              	.LBE53:
 307:/home/baikal/workspace/C50/Huawei_IoT_Agent_Tiny_SDK_Linux//agent_tiny/lwm2m_client/object_security.c ****                 result = COAP_204_CHANGED;
 719              		.loc 1 307 0
 720 022f 488B4308 		movq	8(%rbx), %rax
 721 0233 66418944 		movw	%ax, 72(%r12)
 721      2448
 722              	.LVL107:
 308:/home/baikal/workspace/C50/Huawei_IoT_Agent_Tiny_SDK_Linux//agent_tiny/lwm2m_client/object_security.c ****             }
 723              		.loc 1 308 0
 724 0239 B8440000 		movl	$68, %eax
GAS LISTING /tmp/ccEvjyYW.s 			page 28


 724      00
 725 023e E9E10000 		jmp	.L44
 725      00
 726              	.LVL108:
 727              	.L45:
 728              	.LBB55:
 340:/home/baikal/workspace/C50/Huawei_IoT_Agent_Tiny_SDK_Linux//agent_tiny/lwm2m_client/object_security.c ****             {
 729              		.loc 1 340 0
 730 0243 488D7424 		leaq	8(%rsp), %rsi
 730      08
 731 0248 4889DF   		movq	%rbx, %rdi
 732 024b E8000000 		call	lwm2m_data_decode_int
 732      00
 733              	.LVL109:
 734 0250 83F801   		cmpl	$1, %eax
 735 0253 751D     		jne	.L67
 342:/home/baikal/workspace/C50/Huawei_IoT_Agent_Tiny_SDK_Linux//agent_tiny/lwm2m_client/object_security.c ****                 {
 736              		.loc 1 342 0
 737 0255 488B4424 		movq	8(%rsp), %rax
 737      08
 738 025a 483DFFFF 		cmpq	$65535, %rax
 738      0000
 739 0260 771A     		ja	.L68
 344:/home/baikal/workspace/C50/Huawei_IoT_Agent_Tiny_SDK_Linux//agent_tiny/lwm2m_client/object_security.c ****                     result = COAP_204_CHANGED;
 740              		.loc 1 344 0
 741 0262 66418944 		movw	%ax, 106(%r12)
 741      246A
 742              	.LVL110:
 345:/home/baikal/workspace/C50/Huawei_IoT_Agent_Tiny_SDK_Linux//agent_tiny/lwm2m_client/object_security.c ****                 }
 743              		.loc 1 345 0
 744 0268 B8440000 		movl	$68, %eax
 744      00
 745 026d E9B20000 		jmp	.L44
 745      00
 746              	.LVL111:
 747              	.L67:
 354:/home/baikal/workspace/C50/Huawei_IoT_Agent_Tiny_SDK_Linux//agent_tiny/lwm2m_client/object_security.c ****             }
 748              		.loc 1 354 0
 749 0272 B880FFFF 		movl	$-128, %eax
 749      FF
 750 0277 E9A80000 		jmp	.L44
 750      00
 751              	.L68:
 349:/home/baikal/workspace/C50/Huawei_IoT_Agent_Tiny_SDK_Linux//agent_tiny/lwm2m_client/object_security.c ****                 }
 752              		.loc 1 349 0
 753 027c B886FFFF 		movl	$-122, %eax
 753      FF
 754              	.LVL112:
 755              	.LBE55:
 357:/home/baikal/workspace/C50/Huawei_IoT_Agent_Tiny_SDK_Linux//agent_tiny/lwm2m_client/object_security.c **** 
 756              		.loc 1 357 0
 757 0281 E99E0000 		jmp	.L44
 757      00
 758              	.LVL113:
 759              	.L46:
 760              	.LBB56:
 363:/home/baikal/workspace/C50/Huawei_IoT_Agent_Tiny_SDK_Linux//agent_tiny/lwm2m_client/object_security.c ****             {
GAS LISTING /tmp/ccEvjyYW.s 			page 29


 761              		.loc 1 363 0
 762 0286 488D7424 		leaq	8(%rsp), %rsi
 762      08
 763 028b 4889DF   		movq	%rbx, %rdi
 764 028e E8000000 		call	lwm2m_data_decode_int
 764      00
 765              	.LVL114:
 766 0293 83F801   		cmpl	$1, %eax
 767 0296 751B     		jne	.L69
 365:/home/baikal/workspace/C50/Huawei_IoT_Agent_Tiny_SDK_Linux//agent_tiny/lwm2m_client/object_security.c ****                 {
 768              		.loc 1 365 0
 769 0298 488B4424 		movq	8(%rsp), %rax
 769      08
 770 029d BAFFFFFF 		movl	$4294967295, %edx
 770      FF
 771 02a2 4839D0   		cmpq	%rdx, %rax
 772 02a5 7713     		ja	.L70
 367:/home/baikal/workspace/C50/Huawei_IoT_Agent_Tiny_SDK_Linux//agent_tiny/lwm2m_client/object_security.c ****                     result = COAP_204_CHANGED;
 773              		.loc 1 367 0
 774 02a7 41894424 		movl	%eax, 108(%r12)
 774      6C
 775              	.LVL115:
 368:/home/baikal/workspace/C50/Huawei_IoT_Agent_Tiny_SDK_Linux//agent_tiny/lwm2m_client/object_security.c ****                 }
 776              		.loc 1 368 0
 777 02ac B8440000 		movl	$68, %eax
 777      00
 778 02b1 EB71     		jmp	.L44
 779              	.LVL116:
 780              	.L69:
 377:/home/baikal/workspace/C50/Huawei_IoT_Agent_Tiny_SDK_Linux//agent_tiny/lwm2m_client/object_security.c ****             }
 781              		.loc 1 377 0
 782 02b3 B880FFFF 		movl	$-128, %eax
 782      FF
 783 02b8 EB6A     		jmp	.L44
 784              	.L70:
 372:/home/baikal/workspace/C50/Huawei_IoT_Agent_Tiny_SDK_Linux//agent_tiny/lwm2m_client/object_security.c ****                 }
 785              		.loc 1 372 0
 786 02ba B886FFFF 		movl	$-122, %eax
 786      FF
 787              	.LVL117:
 788 02bf EB63     		jmp	.L44
 789              	.LVL118:
 790              	.L47:
 791              	.LBE56:
 792              	.LBB57:
 386:/home/baikal/workspace/C50/Huawei_IoT_Agent_Tiny_SDK_Linux//agent_tiny/lwm2m_client/object_security.c ****             {
 793              		.loc 1 386 0
 794 02c1 488D7424 		leaq	8(%rsp), %rsi
 794      08
 795 02c6 4889DF   		movq	%rbx, %rdi
 796 02c9 E8000000 		call	lwm2m_data_decode_int
 796      00
 797              	.LVL119:
 798 02ce 83F801   		cmpl	$1, %eax
 799 02d1 751B     		jne	.L71
 388:/home/baikal/workspace/C50/Huawei_IoT_Agent_Tiny_SDK_Linux//agent_tiny/lwm2m_client/object_security.c ****                 {
 800              		.loc 1 388 0
GAS LISTING /tmp/ccEvjyYW.s 			page 30


 801 02d3 488B4424 		movq	8(%rsp), %rax
 801      08
 802 02d8 BAFFFFFF 		movl	$4294967295, %edx
 802      FF
 803 02dd 4839D0   		cmpq	%rdx, %rax
 804 02e0 7713     		ja	.L72
 390:/home/baikal/workspace/C50/Huawei_IoT_Agent_Tiny_SDK_Linux//agent_tiny/lwm2m_client/object_security.c ****                     result = COAP_204_CHANGED;
 805              		.loc 1 390 0
 806 02e2 41894424 		movl	%eax, 112(%r12)
 806      70
 807              	.LVL120:
 391:/home/baikal/workspace/C50/Huawei_IoT_Agent_Tiny_SDK_Linux//agent_tiny/lwm2m_client/object_security.c ****                 }
 808              		.loc 1 391 0
 809 02e7 B8440000 		movl	$68, %eax
 809      00
 810 02ec EB36     		jmp	.L44
 811              	.LVL121:
 812              	.L71:
 400:/home/baikal/workspace/C50/Huawei_IoT_Agent_Tiny_SDK_Linux//agent_tiny/lwm2m_client/object_security.c ****             }
 813              		.loc 1 400 0
 814 02ee B880FFFF 		movl	$-128, %eax
 814      FF
 815 02f3 EB2F     		jmp	.L44
 816              	.L72:
 395:/home/baikal/workspace/C50/Huawei_IoT_Agent_Tiny_SDK_Linux//agent_tiny/lwm2m_client/object_security.c ****                 }
 817              		.loc 1 395 0
 818 02f5 B886FFFF 		movl	$-122, %eax
 818      FF
 819              	.LVL122:
 820 02fa EB28     		jmp	.L44
 821              	.LVL123:
 822              	.L59:
 823              	.LBE57:
 318:/home/baikal/workspace/C50/Huawei_IoT_Agent_Tiny_SDK_Linux//agent_tiny/lwm2m_client/object_security.c ****             break;
 824              		.loc 1 318 0
 825 02fc B8440000 		movl	$68, %eax
 825      00
 826 0301 EB21     		jmp	.L44
 827              	.L60:
 231:/home/baikal/workspace/C50/Huawei_IoT_Agent_Tiny_SDK_Linux//agent_tiny/lwm2m_client/object_security.c ****             }
 828              		.loc 1 231 0
 829 0303 B8A0FFFF 		movl	$-96, %eax
 829      FF
 830 0308 EB1A     		jmp	.L44
 831              	.L61:
 242:/home/baikal/workspace/C50/Huawei_IoT_Agent_Tiny_SDK_Linux//agent_tiny/lwm2m_client/object_security.c ****             }
 832              		.loc 1 242 0
 833 030a B880FFFF 		movl	$-128, %eax
 833      FF
 834 030f EB13     		jmp	.L44
 835              	.L64:
 280:/home/baikal/workspace/C50/Huawei_IoT_Agent_Tiny_SDK_Linux//agent_tiny/lwm2m_client/object_security.c ****             }
 836              		.loc 1 280 0
 837 0311 B8A0FFFF 		movl	$-96, %eax
 837      FF
 838 0316 EB0C     		jmp	.L44
 839              	.L65:
GAS LISTING /tmp/ccEvjyYW.s 			page 31


 296:/home/baikal/workspace/C50/Huawei_IoT_Agent_Tiny_SDK_Linux//agent_tiny/lwm2m_client/object_security.c ****             }
 840              		.loc 1 296 0
 841 0318 B8A0FFFF 		movl	$-96, %eax
 841      FF
 842 031d EB05     		jmp	.L44
 843              	.L66:
 312:/home/baikal/workspace/C50/Huawei_IoT_Agent_Tiny_SDK_Linux//agent_tiny/lwm2m_client/object_security.c ****             }
 844              		.loc 1 312 0
 845 031f B8A0FFFF 		movl	$-96, %eax
 845      FF
 846              	.L44:
 847              	.LVL124:
 408:/home/baikal/workspace/C50/Huawei_IoT_Agent_Tiny_SDK_Linux//agent_tiny/lwm2m_client/object_security.c ****     }
 848              		.loc 1 408 0
 849 0324 83C501   		addl	$1, %ebp
 850              	.LVL125:
 410:/home/baikal/workspace/C50/Huawei_IoT_Agent_Tiny_SDK_Linux//agent_tiny/lwm2m_client/object_security.c **** 
 851              		.loc 1 410 0
 852 0327 4439F5   		cmpl	%r14d, %ebp
 853 032a 0F9CC1   		setl	%cl
 854 032d 3C44     		cmpb	$68, %al
 855 032f 0F94C2   		sete	%dl
 856 0332 84D1     		testb	%dl, %cl
 857 0334 0F85F5FC 		jne	.L56
 857      FFFF
 858 033a EB0C     		jmp	.L36
 859              	.LVL126:
 860              	.L57:
 212:/home/baikal/workspace/C50/Huawei_IoT_Agent_Tiny_SDK_Linux//agent_tiny/lwm2m_client/object_security.c ****     }
 861              		.loc 1 212 0
 862 033c B884FFFF 		movl	$-124, %eax
 862      FF
 863              	.LVL127:
 864 0341 EB05     		jmp	.L36
 865              	.LVL128:
 866              	.L58:
 406:/home/baikal/workspace/C50/Huawei_IoT_Agent_Tiny_SDK_Linux//agent_tiny/lwm2m_client/object_security.c ****         }
 867              		.loc 1 406 0
 868 0343 B880FFFF 		movl	$-128, %eax
 868      FF
 869              	.LVL129:
 870              	.L36:
 413:/home/baikal/workspace/C50/Huawei_IoT_Agent_Tiny_SDK_Linux//agent_tiny/lwm2m_client/object_security.c **** 
 871              		.loc 1 413 0
 872 0348 4883C410 		addq	$16, %rsp
 873              	.LCFI24:
 874              		.cfi_def_cfa_offset 48
 875 034c 5B       		popq	%rbx
 876              	.LCFI25:
 877              		.cfi_def_cfa_offset 40
 878 034d 5D       		popq	%rbp
 879              	.LCFI26:
 880              		.cfi_def_cfa_offset 32
 881 034e 415C     		popq	%r12
 882              	.LCFI27:
 883              		.cfi_def_cfa_offset 24
 884 0350 415D     		popq	%r13
GAS LISTING /tmp/ccEvjyYW.s 			page 32


 885              	.LCFI28:
 886              		.cfi_def_cfa_offset 16
 887              	.LVL130:
 888 0352 415E     		popq	%r14
 889              	.LCFI29:
 890              		.cfi_def_cfa_offset 8
 891              	.LVL131:
 892 0354 C3       		ret
 893              		.cfi_endproc
 894              	.LFE73:
 896              		.section	.text.prv_security_create,"ax",@progbits
 898              	prv_security_create:
 899              	.LFB75:
 431:/home/baikal/workspace/C50/Huawei_IoT_Agent_Tiny_SDK_Linux//agent_tiny/lwm2m_client/object_security.c **** 
 432:/home/baikal/workspace/C50/Huawei_IoT_Agent_Tiny_SDK_Linux//agent_tiny/lwm2m_client/object_security.c **** static uint8_t prv_security_create(uint16_t instanceId,
 433:/home/baikal/workspace/C50/Huawei_IoT_Agent_Tiny_SDK_Linux//agent_tiny/lwm2m_client/object_security.c ****                                    int numData,
 434:/home/baikal/workspace/C50/Huawei_IoT_Agent_Tiny_SDK_Linux//agent_tiny/lwm2m_client/object_security.c ****                                    lwm2m_data_t *dataArray,
 435:/home/baikal/workspace/C50/Huawei_IoT_Agent_Tiny_SDK_Linux//agent_tiny/lwm2m_client/object_security.c ****                                    lwm2m_object_t *objectP)
 436:/home/baikal/workspace/C50/Huawei_IoT_Agent_Tiny_SDK_Linux//agent_tiny/lwm2m_client/object_security.c **** {
 900              		.loc 1 436 0
 901              		.cfi_startproc
 902              	.LVL132:
 903 0000 4155     		pushq	%r13
 904              	.LCFI30:
 905              		.cfi_def_cfa_offset 16
 906              		.cfi_offset 13, -16
 907 0002 4154     		pushq	%r12
 908              	.LCFI31:
 909              		.cfi_def_cfa_offset 24
 910              		.cfi_offset 12, -24
 911 0004 55       		pushq	%rbp
 912              	.LCFI32:
 913              		.cfi_def_cfa_offset 32
 914              		.cfi_offset 6, -32
 915 0005 53       		pushq	%rbx
 916              	.LCFI33:
 917              		.cfi_def_cfa_offset 40
 918              		.cfi_offset 3, -40
 919 0006 4883EC08 		subq	$8, %rsp
 920              	.LCFI34:
 921              		.cfi_def_cfa_offset 48
 922 000a 89FB     		movl	%edi, %ebx
 923 000c 4189F4   		movl	%esi, %r12d
 924 000f 4989D5   		movq	%rdx, %r13
 925 0012 4889CD   		movq	%rcx, %rbp
 437:/home/baikal/workspace/C50/Huawei_IoT_Agent_Tiny_SDK_Linux//agent_tiny/lwm2m_client/object_security.c ****     security_instance_t *targetP;
 438:/home/baikal/workspace/C50/Huawei_IoT_Agent_Tiny_SDK_Linux//agent_tiny/lwm2m_client/object_security.c ****     uint8_t result;
 439:/home/baikal/workspace/C50/Huawei_IoT_Agent_Tiny_SDK_Linux//agent_tiny/lwm2m_client/object_security.c **** 
 440:/home/baikal/workspace/C50/Huawei_IoT_Agent_Tiny_SDK_Linux//agent_tiny/lwm2m_client/object_security.c ****     targetP = (security_instance_t *)lwm2m_malloc(sizeof(security_instance_t));
 926              		.loc 1 440 0
 927 0015 BF780000 		movl	$120, %edi
 927      00
 928              	.LVL133:
 929 001a E8000000 		call	lwm2m_malloc
 929      00
 930              	.LVL134:
 441:/home/baikal/workspace/C50/Huawei_IoT_Agent_Tiny_SDK_Linux//agent_tiny/lwm2m_client/object_security.c ****     if (NULL == targetP) return COAP_500_INTERNAL_SERVER_ERROR;
GAS LISTING /tmp/ccEvjyYW.s 			page 33


 931              		.loc 1 441 0
 932 001f 4885C0   		testq	%rax, %rax
 933 0022 746A     		je	.L76
 934 0024 4889C6   		movq	%rax, %rsi
 935              	.LVL135:
 936              	.LBB58:
 937              	.LBB59:
  90:/usr/include/x86_64-linux-gnu/bits/string3.h **** }
 938              		.loc 2 90 0
 939 0027 48C70000 		movq	$0, (%rax)
 939      000000
 940 002e 48C74070 		movq	$0, 112(%rax)
 940      00000000 
 941 0036 488D7808 		leaq	8(%rax), %rdi
 942 003a 4883E7F8 		andq	$-8, %rdi
 943 003e 4889C1   		movq	%rax, %rcx
 944 0041 4829F9   		subq	%rdi, %rcx
 945 0044 83C178   		addl	$120, %ecx
 946 0047 C1E903   		shrl	$3, %ecx
 947 004a 89C9     		movl	%ecx, %ecx
 948 004c B8000000 		movl	$0, %eax
 948      00
 949              	.LVL136:
 950 0051 F348AB   		rep stosq
 951              	.LVL137:
 952              	.LBE59:
 953              	.LBE58:
 442:/home/baikal/workspace/C50/Huawei_IoT_Agent_Tiny_SDK_Linux//agent_tiny/lwm2m_client/object_security.c ****     memset(targetP, 0, sizeof(security_instance_t));
 443:/home/baikal/workspace/C50/Huawei_IoT_Agent_Tiny_SDK_Linux//agent_tiny/lwm2m_client/object_security.c **** 
 444:/home/baikal/workspace/C50/Huawei_IoT_Agent_Tiny_SDK_Linux//agent_tiny/lwm2m_client/object_security.c ****     targetP->instanceId = instanceId;
 954              		.loc 1 444 0
 955 0054 66895E08 		movw	%bx, 8(%rsi)
 445:/home/baikal/workspace/C50/Huawei_IoT_Agent_Tiny_SDK_Linux//agent_tiny/lwm2m_client/object_security.c ****     objectP->instanceList = LWM2M_LIST_ADD(objectP->instanceList, targetP);
 956              		.loc 1 445 0
 957 0058 488B7D10 		movq	16(%rbp), %rdi
 958 005c E8000000 		call	lwm2m_list_add
 958      00
 959              	.LVL138:
 960 0061 48894510 		movq	%rax, 16(%rbp)
 446:/home/baikal/workspace/C50/Huawei_IoT_Agent_Tiny_SDK_Linux//agent_tiny/lwm2m_client/object_security.c **** 
 447:/home/baikal/workspace/C50/Huawei_IoT_Agent_Tiny_SDK_Linux//agent_tiny/lwm2m_client/object_security.c ****     result = prv_security_write(instanceId, numData, dataArray, objectP);
 961              		.loc 1 447 0
 962 0065 0FB7DB   		movzwl	%bx, %ebx
 963 0068 4889E9   		movq	%rbp, %rcx
 964 006b 4C89EA   		movq	%r13, %rdx
 965 006e 4489E6   		movl	%r12d, %esi
 966 0071 89DF     		movl	%ebx, %edi
 967 0073 E8000000 		call	prv_security_write
 967      00
 968              	.LVL139:
 969 0078 4189C4   		movl	%eax, %r12d
 970              	.LVL140:
 448:/home/baikal/workspace/C50/Huawei_IoT_Agent_Tiny_SDK_Linux//agent_tiny/lwm2m_client/object_security.c **** 
 449:/home/baikal/workspace/C50/Huawei_IoT_Agent_Tiny_SDK_Linux//agent_tiny/lwm2m_client/object_security.c ****     if (result != COAP_204_CHANGED)
 971              		.loc 1 449 0
 972 007b 3C44     		cmpb	$68, %al
 973 007d 7416     		je	.L77
GAS LISTING /tmp/ccEvjyYW.s 			page 34


 450:/home/baikal/workspace/C50/Huawei_IoT_Agent_Tiny_SDK_Linux//agent_tiny/lwm2m_client/object_security.c ****     {
 451:/home/baikal/workspace/C50/Huawei_IoT_Agent_Tiny_SDK_Linux//agent_tiny/lwm2m_client/object_security.c ****         (void)prv_security_delete(instanceId, objectP);
 974              		.loc 1 451 0
 975 007f 4889EE   		movq	%rbp, %rsi
 976 0082 89DF     		movl	%ebx, %edi
 977 0084 E8000000 		call	prv_security_delete
 977      00
 978              	.LVL141:
 447:/home/baikal/workspace/C50/Huawei_IoT_Agent_Tiny_SDK_Linux//agent_tiny/lwm2m_client/object_security.c **** 
 979              		.loc 1 447 0
 980 0089 4489E0   		movl	%r12d, %eax
 981 008c EB0C     		jmp	.L75
 982              	.LVL142:
 983              	.L76:
 441:/home/baikal/workspace/C50/Huawei_IoT_Agent_Tiny_SDK_Linux//agent_tiny/lwm2m_client/object_security.c ****     memset(targetP, 0, sizeof(security_instance_t));
 984              		.loc 1 441 0
 985 008e B8A0FFFF 		movl	$-96, %eax
 985      FF
 986              	.LVL143:
 987 0093 EB05     		jmp	.L75
 988              	.LVL144:
 989              	.L77:
 452:/home/baikal/workspace/C50/Huawei_IoT_Agent_Tiny_SDK_Linux//agent_tiny/lwm2m_client/object_security.c ****     }
 453:/home/baikal/workspace/C50/Huawei_IoT_Agent_Tiny_SDK_Linux//agent_tiny/lwm2m_client/object_security.c ****     else
 454:/home/baikal/workspace/C50/Huawei_IoT_Agent_Tiny_SDK_Linux//agent_tiny/lwm2m_client/object_security.c ****     {
 455:/home/baikal/workspace/C50/Huawei_IoT_Agent_Tiny_SDK_Linux//agent_tiny/lwm2m_client/object_security.c ****         result = COAP_201_CREATED;
 990              		.loc 1 455 0
 991 0095 B8410000 		movl	$65, %eax
 991      00
 992              	.LVL145:
 993              	.L75:
 456:/home/baikal/workspace/C50/Huawei_IoT_Agent_Tiny_SDK_Linux//agent_tiny/lwm2m_client/object_security.c ****     }
 457:/home/baikal/workspace/C50/Huawei_IoT_Agent_Tiny_SDK_Linux//agent_tiny/lwm2m_client/object_security.c **** 
 458:/home/baikal/workspace/C50/Huawei_IoT_Agent_Tiny_SDK_Linux//agent_tiny/lwm2m_client/object_security.c ****     return result;
 459:/home/baikal/workspace/C50/Huawei_IoT_Agent_Tiny_SDK_Linux//agent_tiny/lwm2m_client/object_security.c **** }
 994              		.loc 1 459 0
 995 009a 4883C408 		addq	$8, %rsp
 996              	.LCFI35:
 997              		.cfi_def_cfa_offset 40
 998 009e 5B       		popq	%rbx
 999              	.LCFI36:
 1000              		.cfi_def_cfa_offset 32
 1001 009f 5D       		popq	%rbp
 1002              	.LCFI37:
 1003              		.cfi_def_cfa_offset 24
 1004              	.LVL146:
 1005 00a0 415C     		popq	%r12
 1006              	.LCFI38:
 1007              		.cfi_def_cfa_offset 16
 1008 00a2 415D     		popq	%r13
 1009              	.LCFI39:
 1010              		.cfi_def_cfa_offset 8
 1011              	.LVL147:
 1012 00a4 C3       		ret
 1013              		.cfi_endproc
 1014              	.LFE75:
 1016              		.section	.text.copy_security_object,"ax",@progbits
GAS LISTING /tmp/ccEvjyYW.s 			page 35


 1017              		.globl	copy_security_object
 1019              	copy_security_object:
 1020              	.LFB76:
 460:/home/baikal/workspace/C50/Huawei_IoT_Agent_Tiny_SDK_Linux//agent_tiny/lwm2m_client/object_security.c **** #endif
 461:/home/baikal/workspace/C50/Huawei_IoT_Agent_Tiny_SDK_Linux//agent_tiny/lwm2m_client/object_security.c **** 
 462:/home/baikal/workspace/C50/Huawei_IoT_Agent_Tiny_SDK_Linux//agent_tiny/lwm2m_client/object_security.c **** void copy_security_object(lwm2m_object_t *objectDest, lwm2m_object_t *objectSrc)
 463:/home/baikal/workspace/C50/Huawei_IoT_Agent_Tiny_SDK_Linux//agent_tiny/lwm2m_client/object_security.c **** {
 1021              		.loc 1 463 0
 1022              		.cfi_startproc
 1023              	.LVL148:
 1024 0000 4155     		pushq	%r13
 1025              	.LCFI40:
 1026              		.cfi_def_cfa_offset 16
 1027              		.cfi_offset 13, -16
 1028 0002 4154     		pushq	%r12
 1029              	.LCFI41:
 1030              		.cfi_def_cfa_offset 24
 1031              		.cfi_offset 12, -24
 1032 0004 55       		pushq	%rbp
 1033              	.LCFI42:
 1034              		.cfi_def_cfa_offset 32
 1035              		.cfi_offset 6, -32
 1036 0005 53       		pushq	%rbx
 1037              	.LCFI43:
 1038              		.cfi_def_cfa_offset 40
 1039              		.cfi_offset 3, -40
 1040 0006 4883EC08 		subq	$8, %rsp
 1041              	.LCFI44:
 1042              		.cfi_def_cfa_offset 48
 1043 000a 4989FD   		movq	%rdi, %r13
 1044              	.LVL149:
 1045              	.LBB60:
 1046              	.LBB61:
  53:/usr/include/x86_64-linux-gnu/bits/string3.h **** }
 1047              		.loc 2 53 0
 1048 000d 488B06   		movq	(%rsi), %rax
 1049 0010 488907   		movq	%rax, (%rdi)
 1050 0013 488B4608 		movq	8(%rsi), %rax
 1051 0017 48894708 		movq	%rax, 8(%rdi)
 1052 001b 488B4610 		movq	16(%rsi), %rax
 1053 001f 48894710 		movq	%rax, 16(%rdi)
 1054 0023 488B4618 		movq	24(%rsi), %rax
 1055 0027 48894718 		movq	%rax, 24(%rdi)
 1056 002b 488B4620 		movq	32(%rsi), %rax
 1057 002f 48894720 		movq	%rax, 32(%rdi)
 1058 0033 488B4628 		movq	40(%rsi), %rax
 1059 0037 48894728 		movq	%rax, 40(%rdi)
 1060 003b 488B4630 		movq	48(%rsi), %rax
 1061 003f 48894730 		movq	%rax, 48(%rdi)
 1062 0043 488B4638 		movq	56(%rsi), %rax
 1063 0047 48894738 		movq	%rax, 56(%rdi)
 1064 004b 488B4640 		movq	64(%rsi), %rax
 1065 004f 48894740 		movq	%rax, 64(%rdi)
 1066 0053 488B4648 		movq	72(%rsi), %rax
 1067 0057 48894748 		movq	%rax, 72(%rdi)
 1068              	.LVL150:
 1069              	.LBE61:
GAS LISTING /tmp/ccEvjyYW.s 			page 36


 1070              	.LBE60:
 464:/home/baikal/workspace/C50/Huawei_IoT_Agent_Tiny_SDK_Linux//agent_tiny/lwm2m_client/object_security.c ****     security_instance_t *instanceSrc;
 465:/home/baikal/workspace/C50/Huawei_IoT_Agent_Tiny_SDK_Linux//agent_tiny/lwm2m_client/object_security.c ****     security_instance_t *previousInstanceDest = NULL;
 466:/home/baikal/workspace/C50/Huawei_IoT_Agent_Tiny_SDK_Linux//agent_tiny/lwm2m_client/object_security.c ****     memcpy(objectDest, objectSrc, sizeof(lwm2m_object_t));
 467:/home/baikal/workspace/C50/Huawei_IoT_Agent_Tiny_SDK_Linux//agent_tiny/lwm2m_client/object_security.c ****     objectDest->instanceList = NULL;
 1071              		.loc 1 467 0
 1072 005b 48C74710 		movq	$0, 16(%rdi)
 1072      00000000 
 468:/home/baikal/workspace/C50/Huawei_IoT_Agent_Tiny_SDK_Linux//agent_tiny/lwm2m_client/object_security.c ****     objectDest->userData = NULL;
 1073              		.loc 1 468 0
 1074 0063 48C74750 		movq	$0, 80(%rdi)
 1074      00000000 
 469:/home/baikal/workspace/C50/Huawei_IoT_Agent_Tiny_SDK_Linux//agent_tiny/lwm2m_client/object_security.c **** 
 470:/home/baikal/workspace/C50/Huawei_IoT_Agent_Tiny_SDK_Linux//agent_tiny/lwm2m_client/object_security.c ****     instanceSrc = (security_instance_t *)objectSrc->instanceList;
 1075              		.loc 1 470 0
 1076 006b 488B5E10 		movq	16(%rsi), %rbx
 1077              	.LVL151:
 465:/home/baikal/workspace/C50/Huawei_IoT_Agent_Tiny_SDK_Linux//agent_tiny/lwm2m_client/object_security.c ****     memcpy(objectDest, objectSrc, sizeof(lwm2m_object_t));
 1078              		.loc 1 465 0
 1079 006f 41BC0000 		movl	$0, %r12d
 1079      0000
 471:/home/baikal/workspace/C50/Huawei_IoT_Agent_Tiny_SDK_Linux//agent_tiny/lwm2m_client/object_security.c ****     while (instanceSrc != NULL)
 1080              		.loc 1 471 0
 1081 0075 E9180100 		jmp	.L80
 1081      00
 1082              	.LVL152:
 1083              	.L86:
 1084              	.LBB62:
 472:/home/baikal/workspace/C50/Huawei_IoT_Agent_Tiny_SDK_Linux//agent_tiny/lwm2m_client/object_security.c ****     {
 473:/home/baikal/workspace/C50/Huawei_IoT_Agent_Tiny_SDK_Linux//agent_tiny/lwm2m_client/object_security.c ****         security_instance_t *instanceDest = (security_instance_t *)lwm2m_malloc(sizeof(security_ins
 1085              		.loc 1 473 0
 1086 007a BF780000 		movl	$120, %edi
 1086      00
 1087 007f E8000000 		call	lwm2m_malloc
 1087      00
 1088              	.LVL153:
 1089 0084 4889C5   		movq	%rax, %rbp
 1090              	.LVL154:
 474:/home/baikal/workspace/C50/Huawei_IoT_Agent_Tiny_SDK_Linux//agent_tiny/lwm2m_client/object_security.c ****         if (NULL == instanceDest)
 1091              		.loc 1 474 0
 1092 0087 4885C0   		testq	%rax, %rax
 1093 008a 0F840B01 		je	.L79
 1093      0000
 1094              	.LVL155:
 1095              	.LBB63:
 1096              	.LBB64:
  53:/usr/include/x86_64-linux-gnu/bits/string3.h **** }
 1097              		.loc 2 53 0
 1098 0090 488B03   		movq	(%rbx), %rax
 1099              	.LVL156:
 1100 0093 48894500 		movq	%rax, 0(%rbp)
 1101 0097 488B4308 		movq	8(%rbx), %rax
 1102 009b 48894508 		movq	%rax, 8(%rbp)
 1103 009f 488B4310 		movq	16(%rbx), %rax
 1104 00a3 48894510 		movq	%rax, 16(%rbp)
 1105 00a7 488B4318 		movq	24(%rbx), %rax
 1106 00ab 48894518 		movq	%rax, 24(%rbp)
GAS LISTING /tmp/ccEvjyYW.s 			page 37


 1107 00af 488B4320 		movq	32(%rbx), %rax
 1108 00b3 48894520 		movq	%rax, 32(%rbp)
 1109 00b7 488B4328 		movq	40(%rbx), %rax
 1110 00bb 48894528 		movq	%rax, 40(%rbp)
 1111 00bf 488B4330 		movq	48(%rbx), %rax
 1112 00c3 48894530 		movq	%rax, 48(%rbp)
 1113 00c7 488B4338 		movq	56(%rbx), %rax
 1114 00cb 48894538 		movq	%rax, 56(%rbp)
 1115 00cf 488B4340 		movq	64(%rbx), %rax
 1116 00d3 48894540 		movq	%rax, 64(%rbp)
 1117 00d7 488B4348 		movq	72(%rbx), %rax
 1118 00db 48894548 		movq	%rax, 72(%rbp)
 1119 00df 488B4350 		movq	80(%rbx), %rax
 1120 00e3 48894550 		movq	%rax, 80(%rbp)
 1121 00e7 488B4358 		movq	88(%rbx), %rax
 1122 00eb 48894558 		movq	%rax, 88(%rbp)
 1123 00ef 488B4360 		movq	96(%rbx), %rax
 1124 00f3 48894560 		movq	%rax, 96(%rbp)
 1125 00f7 488B4368 		movq	104(%rbx), %rax
 1126 00fb 48894568 		movq	%rax, 104(%rbp)
 1127 00ff 488B4370 		movq	112(%rbx), %rax
 1128 0103 48894570 		movq	%rax, 112(%rbp)
 1129              	.LVL157:
 1130              	.LBE64:
 1131              	.LBE63:
 475:/home/baikal/workspace/C50/Huawei_IoT_Agent_Tiny_SDK_Linux//agent_tiny/lwm2m_client/object_security.c ****         {
 476:/home/baikal/workspace/C50/Huawei_IoT_Agent_Tiny_SDK_Linux//agent_tiny/lwm2m_client/object_security.c ****             return;
 477:/home/baikal/workspace/C50/Huawei_IoT_Agent_Tiny_SDK_Linux//agent_tiny/lwm2m_client/object_security.c ****         }
 478:/home/baikal/workspace/C50/Huawei_IoT_Agent_Tiny_SDK_Linux//agent_tiny/lwm2m_client/object_security.c ****         memcpy(instanceDest, instanceSrc, sizeof(security_instance_t));
 479:/home/baikal/workspace/C50/Huawei_IoT_Agent_Tiny_SDK_Linux//agent_tiny/lwm2m_client/object_security.c ****         instanceDest->uri = (char *)lwm2m_malloc(strlen(instanceSrc->uri) + 1);
 1132              		.loc 1 479 0
 1133 0107 488B7B10 		movq	16(%rbx), %rdi
 1134 010b B8000000 		movl	$0, %eax
 1134      00
 1135 0110 48C7C1FF 		movq	$-1, %rcx
 1135      FFFFFF
 1136 0117 F2AE     		repnz scasb
 1137 0119 48F7D1   		notq	%rcx
 1138 011c 4889CF   		movq	%rcx, %rdi
 1139 011f E8000000 		call	lwm2m_malloc
 1139      00
 1140              	.LVL158:
 1141 0124 4989C0   		movq	%rax, %r8
 1142 0127 48894510 		movq	%rax, 16(%rbp)
 480:/home/baikal/workspace/C50/Huawei_IoT_Agent_Tiny_SDK_Linux//agent_tiny/lwm2m_client/object_security.c ****         if (instanceDest->uri == NULL)
 1143              		.loc 1 480 0
 1144 012b 4885C0   		testq	%rax, %rax
 1145 012e 750A     		jne	.L82
 481:/home/baikal/workspace/C50/Huawei_IoT_Agent_Tiny_SDK_Linux//agent_tiny/lwm2m_client/object_security.c ****         {
 482:/home/baikal/workspace/C50/Huawei_IoT_Agent_Tiny_SDK_Linux//agent_tiny/lwm2m_client/object_security.c ****             lwm2m_free(instanceDest);
 1146              		.loc 1 482 0
 1147 0130 4889EF   		movq	%rbp, %rdi
 1148 0133 E8000000 		call	lwm2m_free
 1148      00
 1149              	.LVL159:
 483:/home/baikal/workspace/C50/Huawei_IoT_Agent_Tiny_SDK_Linux//agent_tiny/lwm2m_client/object_security.c ****             return;
 1150              		.loc 1 483 0
GAS LISTING /tmp/ccEvjyYW.s 			page 38


 1151 0138 EB61     		jmp	.L79
 1152              	.L82:
 484:/home/baikal/workspace/C50/Huawei_IoT_Agent_Tiny_SDK_Linux//agent_tiny/lwm2m_client/object_security.c ****         }
 485:/home/baikal/workspace/C50/Huawei_IoT_Agent_Tiny_SDK_Linux//agent_tiny/lwm2m_client/object_security.c ****         strncpy(instanceDest->uri, instanceSrc->uri, strlen(instanceSrc->uri) + 1);
 1153              		.loc 1 485 0
 1154 013a 488B7310 		movq	16(%rbx), %rsi
 1155 013e B8000000 		movl	$0, %eax
 1155      00
 1156 0143 48C7C1FF 		movq	$-1, %rcx
 1156      FFFFFF
 1157 014a 4889F7   		movq	%rsi, %rdi
 1158 014d F2AE     		repnz scasb
 1159 014f 4889CA   		movq	%rcx, %rdx
 1160 0152 48F7D2   		notq	%rdx
 1161              	.LVL160:
 1162              	.LBB65:
 1163              	.LBB66:
 1164              		.loc 2 126 0
 1165 0155 4C89C7   		movq	%r8, %rdi
 1166 0158 E8000000 		call	strncpy
 1166      00
 1167              	.LVL161:
 1168              	.LBE66:
 1169              	.LBE65:
 486:/home/baikal/workspace/C50/Huawei_IoT_Agent_Tiny_SDK_Linux//agent_tiny/lwm2m_client/object_security.c ****         if (instanceSrc->securityMode == LWM2M_SECURITY_MODE_PRE_SHARED_KEY)
 1170              		.loc 1 486 0
 1171 015d 807B1900 		cmpb	$0, 25(%rbx)
 1172 0161 751A     		jne	.L83
 487:/home/baikal/workspace/C50/Huawei_IoT_Agent_Tiny_SDK_Linux//agent_tiny/lwm2m_client/object_security.c ****         {
 488:/home/baikal/workspace/C50/Huawei_IoT_Agent_Tiny_SDK_Linux//agent_tiny/lwm2m_client/object_security.c ****             instanceDest->publicIdentity = lwm2m_strdup(instanceSrc->publicIdentity);
 1173              		.loc 1 488 0
 1174 0163 488B7B20 		movq	32(%rbx), %rdi
 1175 0167 E8000000 		call	lwm2m_strdup
 1175      00
 1176              	.LVL162:
 1177 016c 48894520 		movq	%rax, 32(%rbp)
 489:/home/baikal/workspace/C50/Huawei_IoT_Agent_Tiny_SDK_Linux//agent_tiny/lwm2m_client/object_security.c ****             instanceDest->secretKey = lwm2m_strdup(instanceSrc->secretKey);
 1178              		.loc 1 489 0
 1179 0170 488B7B40 		movq	64(%rbx), %rdi
 1180 0174 E8000000 		call	lwm2m_strdup
 1180      00
 1181              	.LVL163:
 1182 0179 48894540 		movq	%rax, 64(%rbp)
 1183              	.L83:
 490:/home/baikal/workspace/C50/Huawei_IoT_Agent_Tiny_SDK_Linux//agent_tiny/lwm2m_client/object_security.c ****         }
 491:/home/baikal/workspace/C50/Huawei_IoT_Agent_Tiny_SDK_Linux//agent_tiny/lwm2m_client/object_security.c ****         instanceSrc = (security_instance_t *)instanceSrc->next;
 1184              		.loc 1 491 0
 1185 017d 488B1B   		movq	(%rbx), %rbx
 1186              	.LVL164:
 492:/home/baikal/workspace/C50/Huawei_IoT_Agent_Tiny_SDK_Linux//agent_tiny/lwm2m_client/object_security.c ****         if (previousInstanceDest == NULL)
 1187              		.loc 1 492 0
 1188 0180 4D85E4   		testq	%r12, %r12
 1189 0183 7506     		jne	.L84
 493:/home/baikal/workspace/C50/Huawei_IoT_Agent_Tiny_SDK_Linux//agent_tiny/lwm2m_client/object_security.c ****         {
 494:/home/baikal/workspace/C50/Huawei_IoT_Agent_Tiny_SDK_Linux//agent_tiny/lwm2m_client/object_security.c ****             objectDest->instanceList = (lwm2m_list_t *)instanceDest;
 1190              		.loc 1 494 0
 1191 0185 49896D10 		movq	%rbp, 16(%r13)
GAS LISTING /tmp/ccEvjyYW.s 			page 39


 1192 0189 EB04     		jmp	.L85
 1193              	.L84:
 495:/home/baikal/workspace/C50/Huawei_IoT_Agent_Tiny_SDK_Linux//agent_tiny/lwm2m_client/object_security.c ****         }
 496:/home/baikal/workspace/C50/Huawei_IoT_Agent_Tiny_SDK_Linux//agent_tiny/lwm2m_client/object_security.c ****         else
 497:/home/baikal/workspace/C50/Huawei_IoT_Agent_Tiny_SDK_Linux//agent_tiny/lwm2m_client/object_security.c ****         {
 498:/home/baikal/workspace/C50/Huawei_IoT_Agent_Tiny_SDK_Linux//agent_tiny/lwm2m_client/object_security.c ****             previousInstanceDest->next = instanceDest;
 1194              		.loc 1 498 0
 1195 018b 49892C24 		movq	%rbp, (%r12)
 1196              	.L85:
 1197              	.LBE62:
 463:/home/baikal/workspace/C50/Huawei_IoT_Agent_Tiny_SDK_Linux//agent_tiny/lwm2m_client/object_security.c ****     security_instance_t *instanceSrc;
 1198              		.loc 1 463 0
 1199 018f 4989EC   		movq	%rbp, %r12
 1200              	.LVL165:
 1201              	.L80:
 471:/home/baikal/workspace/C50/Huawei_IoT_Agent_Tiny_SDK_Linux//agent_tiny/lwm2m_client/object_security.c ****     {
 1202              		.loc 1 471 0
 1203 0192 4885DB   		testq	%rbx, %rbx
 1204 0195 0F85DFFE 		jne	.L86
 1204      FFFF
 1205              	.L79:
 499:/home/baikal/workspace/C50/Huawei_IoT_Agent_Tiny_SDK_Linux//agent_tiny/lwm2m_client/object_security.c ****         }
 500:/home/baikal/workspace/C50/Huawei_IoT_Agent_Tiny_SDK_Linux//agent_tiny/lwm2m_client/object_security.c ****         previousInstanceDest = instanceDest;
 501:/home/baikal/workspace/C50/Huawei_IoT_Agent_Tiny_SDK_Linux//agent_tiny/lwm2m_client/object_security.c ****     }
 502:/home/baikal/workspace/C50/Huawei_IoT_Agent_Tiny_SDK_Linux//agent_tiny/lwm2m_client/object_security.c **** }
 1206              		.loc 1 502 0
 1207 019b 4883C408 		addq	$8, %rsp
 1208              	.LCFI45:
 1209              		.cfi_def_cfa_offset 40
 1210 019f 5B       		popq	%rbx
 1211              	.LCFI46:
 1212              		.cfi_def_cfa_offset 32
 1213              	.LVL166:
 1214 01a0 5D       		popq	%rbp
 1215              	.LCFI47:
 1216              		.cfi_def_cfa_offset 24
 1217 01a1 415C     		popq	%r12
 1218              	.LCFI48:
 1219              		.cfi_def_cfa_offset 16
 1220              	.LVL167:
 1221 01a3 415D     		popq	%r13
 1222              	.LCFI49:
 1223              		.cfi_def_cfa_offset 8
 1224              	.LVL168:
 1225 01a5 C3       		ret
 1226              		.cfi_endproc
 1227              	.LFE76:
 1229              		.section	.text.display_security_object,"ax",@progbits
 1230              		.globl	display_security_object
 1232              	display_security_object:
 1233              	.LFB77:
 503:/home/baikal/workspace/C50/Huawei_IoT_Agent_Tiny_SDK_Linux//agent_tiny/lwm2m_client/object_security.c **** 
 504:/home/baikal/workspace/C50/Huawei_IoT_Agent_Tiny_SDK_Linux//agent_tiny/lwm2m_client/object_security.c **** void display_security_object(lwm2m_object_t *object)
 505:/home/baikal/workspace/C50/Huawei_IoT_Agent_Tiny_SDK_Linux//agent_tiny/lwm2m_client/object_security.c **** {
 1234              		.loc 1 505 0
 1235              		.cfi_startproc
 1236              	.LVL169:
GAS LISTING /tmp/ccEvjyYW.s 			page 40


 1237 0000 F3C3     		rep ret
 1238              		.cfi_endproc
 1239              	.LFE77:
 1241              		.section	.text.clean_security_object,"ax",@progbits
 1242              		.globl	clean_security_object
 1244              	clean_security_object:
 1245              	.LFB78:
 506:/home/baikal/workspace/C50/Huawei_IoT_Agent_Tiny_SDK_Linux//agent_tiny/lwm2m_client/object_security.c **** #ifdef WITH_LOGS
 507:/home/baikal/workspace/C50/Huawei_IoT_Agent_Tiny_SDK_Linux//agent_tiny/lwm2m_client/object_security.c ****     fprintf(stdout, "  /%u: Security object, instances:\r\n", object->objID);
 508:/home/baikal/workspace/C50/Huawei_IoT_Agent_Tiny_SDK_Linux//agent_tiny/lwm2m_client/object_security.c ****     security_instance_t *instance = (security_instance_t *)object->instanceList;
 509:/home/baikal/workspace/C50/Huawei_IoT_Agent_Tiny_SDK_Linux//agent_tiny/lwm2m_client/object_security.c ****     while (instance != NULL)
 510:/home/baikal/workspace/C50/Huawei_IoT_Agent_Tiny_SDK_Linux//agent_tiny/lwm2m_client/object_security.c ****     {
 511:/home/baikal/workspace/C50/Huawei_IoT_Agent_Tiny_SDK_Linux//agent_tiny/lwm2m_client/object_security.c ****         fprintf(stdout, "    /%u/%u: instanceId: %u, uri: %s, isBootstrap: %s, shortId: %u, clientH
 512:/home/baikal/workspace/C50/Huawei_IoT_Agent_Tiny_SDK_Linux//agent_tiny/lwm2m_client/object_security.c ****                 object->objID, instance->instanceId,
 513:/home/baikal/workspace/C50/Huawei_IoT_Agent_Tiny_SDK_Linux//agent_tiny/lwm2m_client/object_security.c ****                 instance->instanceId, instance->uri, instance->isBootstrap ? "true" : "false",
 514:/home/baikal/workspace/C50/Huawei_IoT_Agent_Tiny_SDK_Linux//agent_tiny/lwm2m_client/object_security.c ****                 instance->shortID, instance->clientHoldOffTime);
 515:/home/baikal/workspace/C50/Huawei_IoT_Agent_Tiny_SDK_Linux//agent_tiny/lwm2m_client/object_security.c ****         instance = (security_instance_t *)instance->next;
 516:/home/baikal/workspace/C50/Huawei_IoT_Agent_Tiny_SDK_Linux//agent_tiny/lwm2m_client/object_security.c ****     }
 517:/home/baikal/workspace/C50/Huawei_IoT_Agent_Tiny_SDK_Linux//agent_tiny/lwm2m_client/object_security.c **** #endif
 518:/home/baikal/workspace/C50/Huawei_IoT_Agent_Tiny_SDK_Linux//agent_tiny/lwm2m_client/object_security.c **** }
 519:/home/baikal/workspace/C50/Huawei_IoT_Agent_Tiny_SDK_Linux//agent_tiny/lwm2m_client/object_security.c **** 
 520:/home/baikal/workspace/C50/Huawei_IoT_Agent_Tiny_SDK_Linux//agent_tiny/lwm2m_client/object_security.c **** void clean_security_object(lwm2m_object_t *objectP)
 521:/home/baikal/workspace/C50/Huawei_IoT_Agent_Tiny_SDK_Linux//agent_tiny/lwm2m_client/object_security.c **** {
 1246              		.loc 1 521 0
 1247              		.cfi_startproc
 1248              	.LVL170:
 1249              		.loc 1 521 0
 1250 0000 55       		pushq	%rbp
 1251              	.LCFI50:
 1252              		.cfi_def_cfa_offset 16
 1253              		.cfi_offset 6, -16
 1254 0001 53       		pushq	%rbx
 1255              	.LCFI51:
 1256              		.cfi_def_cfa_offset 24
 1257              		.cfi_offset 3, -24
 1258 0002 4883EC08 		subq	$8, %rsp
 1259              	.LCFI52:
 1260              		.cfi_def_cfa_offset 32
 1261 0006 4889FD   		movq	%rdi, %rbp
 522:/home/baikal/workspace/C50/Huawei_IoT_Agent_Tiny_SDK_Linux//agent_tiny/lwm2m_client/object_security.c ****     if(NULL == objectP)
 1262              		.loc 1 522 0
 1263 0009 4885FF   		testq	%rdi, %rdi
 1264 000c 7537     		jne	.L91
 1265 000e EB46     		jmp	.L89
 1266              	.LVL171:
 1267              	.L94:
 1268              	.LBB67:
 523:/home/baikal/workspace/C50/Huawei_IoT_Agent_Tiny_SDK_Linux//agent_tiny/lwm2m_client/object_security.c ****     {
 524:/home/baikal/workspace/C50/Huawei_IoT_Agent_Tiny_SDK_Linux//agent_tiny/lwm2m_client/object_security.c ****         return;
 525:/home/baikal/workspace/C50/Huawei_IoT_Agent_Tiny_SDK_Linux//agent_tiny/lwm2m_client/object_security.c ****     }
 526:/home/baikal/workspace/C50/Huawei_IoT_Agent_Tiny_SDK_Linux//agent_tiny/lwm2m_client/object_security.c ****     while (objectP->instanceList != NULL)
 527:/home/baikal/workspace/C50/Huawei_IoT_Agent_Tiny_SDK_Linux//agent_tiny/lwm2m_client/object_security.c ****     {
 528:/home/baikal/workspace/C50/Huawei_IoT_Agent_Tiny_SDK_Linux//agent_tiny/lwm2m_client/object_security.c ****         security_instance_t *securityInstance = (security_instance_t *)objectP->instanceList;
 529:/home/baikal/workspace/C50/Huawei_IoT_Agent_Tiny_SDK_Linux//agent_tiny/lwm2m_client/object_security.c ****         objectP->instanceList = objectP->instanceList->next;
 1269              		.loc 1 529 0
 1270 0010 488B03   		movq	(%rbx), %rax
 1271 0013 48894510 		movq	%rax, 16(%rbp)
GAS LISTING /tmp/ccEvjyYW.s 			page 41


 530:/home/baikal/workspace/C50/Huawei_IoT_Agent_Tiny_SDK_Linux//agent_tiny/lwm2m_client/object_security.c ****         if (NULL != securityInstance->uri)
 1272              		.loc 1 530 0
 1273 0017 488B7B10 		movq	16(%rbx), %rdi
 1274 001b 4885FF   		testq	%rdi, %rdi
 1275 001e 7405     		je	.L92
 531:/home/baikal/workspace/C50/Huawei_IoT_Agent_Tiny_SDK_Linux//agent_tiny/lwm2m_client/object_security.c ****         {
 532:/home/baikal/workspace/C50/Huawei_IoT_Agent_Tiny_SDK_Linux//agent_tiny/lwm2m_client/object_security.c ****             lwm2m_free(securityInstance->uri);
 1276              		.loc 1 532 0
 1277 0020 E8000000 		call	lwm2m_free
 1277      00
 1278              	.LVL172:
 1279              	.L92:
 533:/home/baikal/workspace/C50/Huawei_IoT_Agent_Tiny_SDK_Linux//agent_tiny/lwm2m_client/object_security.c ****         }
 534:/home/baikal/workspace/C50/Huawei_IoT_Agent_Tiny_SDK_Linux//agent_tiny/lwm2m_client/object_security.c ****         if (securityInstance->securityMode == LWM2M_SECURITY_MODE_PRE_SHARED_KEY)
 1280              		.loc 1 534 0
 1281 0025 807B1900 		cmpb	$0, 25(%rbx)
 1282 0029 7512     		jne	.L93
 535:/home/baikal/workspace/C50/Huawei_IoT_Agent_Tiny_SDK_Linux//agent_tiny/lwm2m_client/object_security.c ****         {
 536:/home/baikal/workspace/C50/Huawei_IoT_Agent_Tiny_SDK_Linux//agent_tiny/lwm2m_client/object_security.c ****             lwm2m_free(securityInstance->publicIdentity);
 1283              		.loc 1 536 0
 1284 002b 488B7B20 		movq	32(%rbx), %rdi
 1285 002f E8000000 		call	lwm2m_free
 1285      00
 1286              	.LVL173:
 537:/home/baikal/workspace/C50/Huawei_IoT_Agent_Tiny_SDK_Linux//agent_tiny/lwm2m_client/object_security.c ****             lwm2m_free(securityInstance->secretKey);
 1287              		.loc 1 537 0
 1288 0034 488B7B40 		movq	64(%rbx), %rdi
 1289 0038 E8000000 		call	lwm2m_free
 1289      00
 1290              	.LVL174:
 1291              	.L93:
 538:/home/baikal/workspace/C50/Huawei_IoT_Agent_Tiny_SDK_Linux//agent_tiny/lwm2m_client/object_security.c ****         }
 539:/home/baikal/workspace/C50/Huawei_IoT_Agent_Tiny_SDK_Linux//agent_tiny/lwm2m_client/object_security.c ****         lwm2m_free(securityInstance);
 1292              		.loc 1 539 0
 1293 003d 4889DF   		movq	%rbx, %rdi
 1294 0040 E8000000 		call	lwm2m_free
 1294      00
 1295              	.LVL175:
 1296              	.L91:
 1297              	.LBE67:
 526:/home/baikal/workspace/C50/Huawei_IoT_Agent_Tiny_SDK_Linux//agent_tiny/lwm2m_client/object_security.c ****     {
 1298              		.loc 1 526 0
 1299 0045 488B5D10 		movq	16(%rbp), %rbx
 1300 0049 4885DB   		testq	%rbx, %rbx
 1301 004c 75C2     		jne	.L94
 540:/home/baikal/workspace/C50/Huawei_IoT_Agent_Tiny_SDK_Linux//agent_tiny/lwm2m_client/object_security.c ****     }
 541:/home/baikal/workspace/C50/Huawei_IoT_Agent_Tiny_SDK_Linux//agent_tiny/lwm2m_client/object_security.c **** 
 542:/home/baikal/workspace/C50/Huawei_IoT_Agent_Tiny_SDK_Linux//agent_tiny/lwm2m_client/object_security.c ****     lwm2m_free(objectP);
 1302              		.loc 1 542 0
 1303 004e 4889EF   		movq	%rbp, %rdi
 1304 0051 E8000000 		call	lwm2m_free
 1304      00
 1305              	.LVL176:
 1306              	.L89:
 543:/home/baikal/workspace/C50/Huawei_IoT_Agent_Tiny_SDK_Linux//agent_tiny/lwm2m_client/object_security.c **** }
 1307              		.loc 1 543 0
 1308 0056 4883C408 		addq	$8, %rsp
GAS LISTING /tmp/ccEvjyYW.s 			page 42


 1309              	.LCFI53:
 1310              		.cfi_def_cfa_offset 24
 1311 005a 5B       		popq	%rbx
 1312              	.LCFI54:
 1313              		.cfi_def_cfa_offset 16
 1314 005b 5D       		popq	%rbp
 1315              	.LCFI55:
 1316              		.cfi_def_cfa_offset 8
 1317              	.LVL177:
 1318 005c C3       		ret
 1319              		.cfi_endproc
 1320              	.LFE78:
 1322              		.section	.rodata.str1.1,"aMS",@progbits,1
 1323              	.LC0:
 1324 0000 636F6170 		.string	"coaps://%s:%s"
 1324      733A2F2F 
 1324      25733A25 
 1324      7300
 1325              	.LC1:
 1326 000e 636F6170 		.string	"coap://%s:%s"
 1326      3A2F2F25 
 1326      733A2573 
 1326      00
 1327              		.section	.text.get_security_object,"ax",@progbits
 1328              		.globl	get_security_object
 1330              	get_security_object:
 1331              	.LFB79:
 544:/home/baikal/workspace/C50/Huawei_IoT_Agent_Tiny_SDK_Linux//agent_tiny/lwm2m_client/object_security.c **** /*
 545:/home/baikal/workspace/C50/Huawei_IoT_Agent_Tiny_SDK_Linux//agent_tiny/lwm2m_client/object_security.c ****  * modify date:  2018-06-25
 546:/home/baikal/workspace/C50/Huawei_IoT_Agent_Tiny_SDK_Linux//agent_tiny/lwm2m_client/object_security.c ****  * description:  add one or two instance for security object. id 0 for iot server(uri,psk), id 1 fo
 547:/home/baikal/workspace/C50/Huawei_IoT_Agent_Tiny_SDK_Linux//agent_tiny/lwm2m_client/object_security.c ****  * return:       a object: lwm2m_object_t
 548:/home/baikal/workspace/C50/Huawei_IoT_Agent_Tiny_SDK_Linux//agent_tiny/lwm2m_client/object_security.c ****  * pay attention:
 549:/home/baikal/workspace/C50/Huawei_IoT_Agent_Tiny_SDK_Linux//agent_tiny/lwm2m_client/object_security.c ****  */
 550:/home/baikal/workspace/C50/Huawei_IoT_Agent_Tiny_SDK_Linux//agent_tiny/lwm2m_client/object_security.c **** lwm2m_object_t *get_security_object(uint16_t serverId, atiny_param_t *atiny_params, lwm2m_context_t
 551:/home/baikal/workspace/C50/Huawei_IoT_Agent_Tiny_SDK_Linux//agent_tiny/lwm2m_client/object_security.c **** {
 1332              		.loc 1 551 0
 1333              		.cfi_startproc
 1334              	.LVL178:
 1335 0000 4157     		pushq	%r15
 1336              	.LCFI56:
 1337              		.cfi_def_cfa_offset 16
 1338              		.cfi_offset 15, -16
 1339 0002 4156     		pushq	%r14
 1340              	.LCFI57:
 1341              		.cfi_def_cfa_offset 24
 1342              		.cfi_offset 14, -24
 1343 0004 4155     		pushq	%r13
 1344              	.LCFI58:
 1345              		.cfi_def_cfa_offset 32
 1346              		.cfi_offset 13, -32
 1347 0006 4154     		pushq	%r12
 1348              	.LCFI59:
 1349              		.cfi_def_cfa_offset 40
 1350              		.cfi_offset 12, -40
 1351 0008 55       		pushq	%rbp
 1352              	.LCFI60:
 1353              		.cfi_def_cfa_offset 48
GAS LISTING /tmp/ccEvjyYW.s 			page 43


 1354              		.cfi_offset 6, -48
 1355 0009 53       		pushq	%rbx
 1356              	.LCFI61:
 1357              		.cfi_def_cfa_offset 56
 1358              		.cfi_offset 3, -56
 1359 000a 4883EC58 		subq	$88, %rsp
 1360              	.LCFI62:
 1361              		.cfi_def_cfa_offset 144
 1362 000e 66897C24 		movw	%di, 14(%rsp)
 1362      0E
 1363              	.LVL179:
 552:/home/baikal/workspace/C50/Huawei_IoT_Agent_Tiny_SDK_Linux//agent_tiny/lwm2m_client/object_security.c ****     //const int URI_MAX_LEN = 64;
 553:/home/baikal/workspace/C50/Huawei_IoT_Agent_Tiny_SDK_Linux//agent_tiny/lwm2m_client/object_security.c **** #define URI_MAX_LEN 64
 554:/home/baikal/workspace/C50/Huawei_IoT_Agent_Tiny_SDK_Linux//agent_tiny/lwm2m_client/object_security.c ****     lwm2m_object_t *securityObj = NULL;
 555:/home/baikal/workspace/C50/Huawei_IoT_Agent_Tiny_SDK_Linux//agent_tiny/lwm2m_client/object_security.c ****     char serverUri[URI_MAX_LEN];
 556:/home/baikal/workspace/C50/Huawei_IoT_Agent_Tiny_SDK_Linux//agent_tiny/lwm2m_client/object_security.c ****     security_instance_t *targetP = NULL;
 557:/home/baikal/workspace/C50/Huawei_IoT_Agent_Tiny_SDK_Linux//agent_tiny/lwm2m_client/object_security.c ****     int i = 0;
 558:/home/baikal/workspace/C50/Huawei_IoT_Agent_Tiny_SDK_Linux//agent_tiny/lwm2m_client/object_security.c ****     char *bsPskId = NULL;
 559:/home/baikal/workspace/C50/Huawei_IoT_Agent_Tiny_SDK_Linux//agent_tiny/lwm2m_client/object_security.c ****     char *psk = NULL;
 560:/home/baikal/workspace/C50/Huawei_IoT_Agent_Tiny_SDK_Linux//agent_tiny/lwm2m_client/object_security.c ****     uint16_t pskLen = 0;
 561:/home/baikal/workspace/C50/Huawei_IoT_Agent_Tiny_SDK_Linux//agent_tiny/lwm2m_client/object_security.c **** 
 562:/home/baikal/workspace/C50/Huawei_IoT_Agent_Tiny_SDK_Linux//agent_tiny/lwm2m_client/object_security.c ****     const uint8_t INS_IOT_SERVER_FLAG = 0x01;
 563:/home/baikal/workspace/C50/Huawei_IoT_Agent_Tiny_SDK_Linux//agent_tiny/lwm2m_client/object_security.c ****     const uint8_t INS_BS_SERVER_FLAG = 0x02;
 564:/home/baikal/workspace/C50/Huawei_IoT_Agent_Tiny_SDK_Linux//agent_tiny/lwm2m_client/object_security.c ****     uint8_t  ins_flag = 0x00;
 565:/home/baikal/workspace/C50/Huawei_IoT_Agent_Tiny_SDK_Linux//agent_tiny/lwm2m_client/object_security.c ****     uint8_t total_ins = 1;
 566:/home/baikal/workspace/C50/Huawei_IoT_Agent_Tiny_SDK_Linux//agent_tiny/lwm2m_client/object_security.c ****     uint8_t security_params_index = 0;
 567:/home/baikal/workspace/C50/Huawei_IoT_Agent_Tiny_SDK_Linux//agent_tiny/lwm2m_client/object_security.c **** 
 568:/home/baikal/workspace/C50/Huawei_IoT_Agent_Tiny_SDK_Linux//agent_tiny/lwm2m_client/object_security.c **** 
 569:/home/baikal/workspace/C50/Huawei_IoT_Agent_Tiny_SDK_Linux//agent_tiny/lwm2m_client/object_security.c ****     switch(atiny_params->bootstrap_mode)
 1364              		.loc 1 569 0
 1365 0013 8B4610   		movl	16(%rsi), %eax
 1366 0016 83F801   		cmpl	$1, %eax
 1367 0019 742D     		je	.L114
 1368 001b 83F801   		cmpl	$1, %eax
 1369 001e 720A     		jb	.L99
 1370 0020 83F802   		cmpl	$2, %eax
 1371 0023 7411     		je	.L100
 1372 0025 E9DB0200 		jmp	.L117
 1372      00
 1373              	.L99:
 570:/home/baikal/workspace/C50/Huawei_IoT_Agent_Tiny_SDK_Linux//agent_tiny/lwm2m_client/object_security.c ****     {
 571:/home/baikal/workspace/C50/Huawei_IoT_Agent_Tiny_SDK_Linux//agent_tiny/lwm2m_client/object_security.c ****     case BOOTSTRAP_FACTORY:
 572:/home/baikal/workspace/C50/Huawei_IoT_Agent_Tiny_SDK_Linux//agent_tiny/lwm2m_client/object_security.c ****         ins_flag |= INS_IOT_SERVER_FLAG;
 573:/home/baikal/workspace/C50/Huawei_IoT_Agent_Tiny_SDK_Linux//agent_tiny/lwm2m_client/object_security.c ****         total_ins = 1;
 1374              		.loc 1 573 0
 1375 002a C644240D 		movb	$1, 13(%rsp)
 1375      01
 572:/home/baikal/workspace/C50/Huawei_IoT_Agent_Tiny_SDK_Linux//agent_tiny/lwm2m_client/object_security.c ****         total_ins = 1;
 1376              		.loc 1 572 0
 1377 002f C644240C 		movb	$1, 12(%rsp)
 1377      01
 1378 0034 EB28     		jmp	.L98
 1379              	.L100:
 574:/home/baikal/workspace/C50/Huawei_IoT_Agent_Tiny_SDK_Linux//agent_tiny/lwm2m_client/object_security.c ****         break;
 575:/home/baikal/workspace/C50/Huawei_IoT_Agent_Tiny_SDK_Linux//agent_tiny/lwm2m_client/object_security.c ****     case BOOTSTRAP_SEQUENCE:
 576:/home/baikal/workspace/C50/Huawei_IoT_Agent_Tiny_SDK_Linux//agent_tiny/lwm2m_client/object_security.c ****         if(lwm2m_context->bs_sequence_state == BS_SEQUENCE_STATE_FACTORY)
 1380              		.loc 1 576 0
GAS LISTING /tmp/ccEvjyYW.s 			page 44


 1381 0036 837A0401 		cmpl	$1, 4(%rdx)
 1382 003a 7518     		jne	.L115
 577:/home/baikal/workspace/C50/Huawei_IoT_Agent_Tiny_SDK_Linux//agent_tiny/lwm2m_client/object_security.c ****         {
 578:/home/baikal/workspace/C50/Huawei_IoT_Agent_Tiny_SDK_Linux//agent_tiny/lwm2m_client/object_security.c ****             ins_flag |= INS_IOT_SERVER_FLAG;
 579:/home/baikal/workspace/C50/Huawei_IoT_Agent_Tiny_SDK_Linux//agent_tiny/lwm2m_client/object_security.c ****             ins_flag |= INS_BS_SERVER_FLAG;
 580:/home/baikal/workspace/C50/Huawei_IoT_Agent_Tiny_SDK_Linux//agent_tiny/lwm2m_client/object_security.c **** 
 581:/home/baikal/workspace/C50/Huawei_IoT_Agent_Tiny_SDK_Linux//agent_tiny/lwm2m_client/object_security.c ****             total_ins = 2;
 1383              		.loc 1 581 0
 1384 003c C644240D 		movb	$2, 13(%rsp)
 1384      02
 579:/home/baikal/workspace/C50/Huawei_IoT_Agent_Tiny_SDK_Linux//agent_tiny/lwm2m_client/object_security.c **** 
 1385              		.loc 1 579 0
 1386 0041 C644240C 		movb	$3, 12(%rsp)
 1386      03
 1387 0046 EB16     		jmp	.L98
 1388              	.L114:
 582:/home/baikal/workspace/C50/Huawei_IoT_Agent_Tiny_SDK_Linux//agent_tiny/lwm2m_client/object_security.c ****         }
 583:/home/baikal/workspace/C50/Huawei_IoT_Agent_Tiny_SDK_Linux//agent_tiny/lwm2m_client/object_security.c ****         else
 584:/home/baikal/workspace/C50/Huawei_IoT_Agent_Tiny_SDK_Linux//agent_tiny/lwm2m_client/object_security.c ****         {
 585:/home/baikal/workspace/C50/Huawei_IoT_Agent_Tiny_SDK_Linux//agent_tiny/lwm2m_client/object_security.c ****             ins_flag |= INS_BS_SERVER_FLAG;
 586:/home/baikal/workspace/C50/Huawei_IoT_Agent_Tiny_SDK_Linux//agent_tiny/lwm2m_client/object_security.c ****             total_ins = 1;
 587:/home/baikal/workspace/C50/Huawei_IoT_Agent_Tiny_SDK_Linux//agent_tiny/lwm2m_client/object_security.c ****         }
 588:/home/baikal/workspace/C50/Huawei_IoT_Agent_Tiny_SDK_Linux//agent_tiny/lwm2m_client/object_security.c ****         break;
 589:/home/baikal/workspace/C50/Huawei_IoT_Agent_Tiny_SDK_Linux//agent_tiny/lwm2m_client/object_security.c ****     case BOOTSTRAP_CLIENT_INITIATED:
 590:/home/baikal/workspace/C50/Huawei_IoT_Agent_Tiny_SDK_Linux//agent_tiny/lwm2m_client/object_security.c ****         ins_flag |= INS_BS_SERVER_FLAG;
 591:/home/baikal/workspace/C50/Huawei_IoT_Agent_Tiny_SDK_Linux//agent_tiny/lwm2m_client/object_security.c ****         total_ins = 1;
 1389              		.loc 1 591 0
 1390 0048 C644240D 		movb	$1, 13(%rsp)
 1390      01
 590:/home/baikal/workspace/C50/Huawei_IoT_Agent_Tiny_SDK_Linux//agent_tiny/lwm2m_client/object_security.c ****         total_ins = 1;
 1391              		.loc 1 590 0
 1392 004d C644240C 		movb	$2, 12(%rsp)
 1392      02
 1393 0052 EB0A     		jmp	.L98
 1394              	.L115:
 586:/home/baikal/workspace/C50/Huawei_IoT_Agent_Tiny_SDK_Linux//agent_tiny/lwm2m_client/object_security.c ****         }
 1395              		.loc 1 586 0
 1396 0054 C644240D 		movb	$1, 13(%rsp)
 1396      01
 585:/home/baikal/workspace/C50/Huawei_IoT_Agent_Tiny_SDK_Linux//agent_tiny/lwm2m_client/object_security.c ****             total_ins = 1;
 1397              		.loc 1 585 0
 1398 0059 C644240C 		movb	$2, 12(%rsp)
 1398      02
 1399              	.L98:
 1400 005e 4989F4   		movq	%rsi, %r12
 1401              	.LVL180:
 592:/home/baikal/workspace/C50/Huawei_IoT_Agent_Tiny_SDK_Linux//agent_tiny/lwm2m_client/object_security.c ****         break;
 593:/home/baikal/workspace/C50/Huawei_IoT_Agent_Tiny_SDK_Linux//agent_tiny/lwm2m_client/object_security.c ****     default:
 594:/home/baikal/workspace/C50/Huawei_IoT_Agent_Tiny_SDK_Linux//agent_tiny/lwm2m_client/object_security.c ****         return NULL;
 595:/home/baikal/workspace/C50/Huawei_IoT_Agent_Tiny_SDK_Linux//agent_tiny/lwm2m_client/object_security.c ****         //break;
 596:/home/baikal/workspace/C50/Huawei_IoT_Agent_Tiny_SDK_Linux//agent_tiny/lwm2m_client/object_security.c ****     }
 597:/home/baikal/workspace/C50/Huawei_IoT_Agent_Tiny_SDK_Linux//agent_tiny/lwm2m_client/object_security.c **** 
 598:/home/baikal/workspace/C50/Huawei_IoT_Agent_Tiny_SDK_Linux//agent_tiny/lwm2m_client/object_security.c ****     securityObj = (lwm2m_object_t *)lwm2m_malloc(sizeof(lwm2m_object_t));
 1402              		.loc 1 598 0
 1403 0061 BF580000 		movl	$88, %edi
 1403      00
 1404              	.LVL181:
GAS LISTING /tmp/ccEvjyYW.s 			page 45


 1405 0066 E8000000 		call	lwm2m_malloc
 1405      00
 1406              	.LVL182:
 1407 006b 4989C6   		movq	%rax, %r14
 1408              	.LVL183:
 599:/home/baikal/workspace/C50/Huawei_IoT_Agent_Tiny_SDK_Linux//agent_tiny/lwm2m_client/object_security.c ****     if (NULL == securityObj)
 1409              		.loc 1 599 0
 1410 006e 4885C0   		testq	%rax, %rax
 1411 0071 0F849502 		je	.L116
 1411      0000
 1412              	.LVL184:
 1413              	.LBB68:
 1414              	.LBB69:
  90:/usr/include/x86_64-linux-gnu/bits/string3.h **** }
 1415              		.loc 2 90 0
 1416 0077 48C70000 		movq	$0, (%rax)
 1416      000000
 1417              	.LVL185:
 1418 007e 48C74050 		movq	$0, 80(%rax)
 1418      00000000 
 1419 0086 488D7808 		leaq	8(%rax), %rdi
 1420 008a 4883E7F8 		andq	$-8, %rdi
 1421 008e 4889C1   		movq	%rax, %rcx
 1422 0091 4829F9   		subq	%rdi, %rcx
 1423 0094 83C158   		addl	$88, %ecx
 1424 0097 C1E903   		shrl	$3, %ecx
 1425 009a 89C9     		movl	%ecx, %ecx
 1426 009c B8000000 		movl	$0, %eax
 1426      00
 1427              	.LVL186:
 1428 00a1 F348AB   		rep stosq
 1429              	.LVL187:
 1430              	.LBE69:
 1431              	.LBE68:
 600:/home/baikal/workspace/C50/Huawei_IoT_Agent_Tiny_SDK_Linux//agent_tiny/lwm2m_client/object_security.c ****     {
 601:/home/baikal/workspace/C50/Huawei_IoT_Agent_Tiny_SDK_Linux//agent_tiny/lwm2m_client/object_security.c ****         return NULL;
 602:/home/baikal/workspace/C50/Huawei_IoT_Agent_Tiny_SDK_Linux//agent_tiny/lwm2m_client/object_security.c ****     }
 603:/home/baikal/workspace/C50/Huawei_IoT_Agent_Tiny_SDK_Linux//agent_tiny/lwm2m_client/object_security.c **** 
 604:/home/baikal/workspace/C50/Huawei_IoT_Agent_Tiny_SDK_Linux//agent_tiny/lwm2m_client/object_security.c ****     memset(securityObj, 0, sizeof(lwm2m_object_t));
 605:/home/baikal/workspace/C50/Huawei_IoT_Agent_Tiny_SDK_Linux//agent_tiny/lwm2m_client/object_security.c ****     securityObj->objID = LWM2M_SECURITY_OBJECT_ID;
 1432              		.loc 1 605 0
 1433 00a4 6641C746 		movw	$0, 8(%r14)
 1433      080000
 606:/home/baikal/workspace/C50/Huawei_IoT_Agent_Tiny_SDK_Linux//agent_tiny/lwm2m_client/object_security.c **** 
 607:/home/baikal/workspace/C50/Huawei_IoT_Agent_Tiny_SDK_Linux//agent_tiny/lwm2m_client/object_security.c **** 
 608:/home/baikal/workspace/C50/Huawei_IoT_Agent_Tiny_SDK_Linux//agent_tiny/lwm2m_client/object_security.c ****     //at most, have two instance. in fact
 609:/home/baikal/workspace/C50/Huawei_IoT_Agent_Tiny_SDK_Linux//agent_tiny/lwm2m_client/object_security.c ****     for(i = 0; i < total_ins; i++)
 1434              		.loc 1 609 0
 1435 00ab 41BF0000 		movl	$0, %r15d
 1435      0000
 1436 00b1 E91C0200 		jmp	.L101
 1436      00
 1437              	.LVL188:
 1438              	.L112:
 610:/home/baikal/workspace/C50/Huawei_IoT_Agent_Tiny_SDK_Linux//agent_tiny/lwm2m_client/object_security.c ****     {
 611:/home/baikal/workspace/C50/Huawei_IoT_Agent_Tiny_SDK_Linux//agent_tiny/lwm2m_client/object_security.c ****         //Manually create an hardcoded instance
 612:/home/baikal/workspace/C50/Huawei_IoT_Agent_Tiny_SDK_Linux//agent_tiny/lwm2m_client/object_security.c ****         targetP = (security_instance_t *)lwm2m_malloc(sizeof(security_instance_t));
GAS LISTING /tmp/ccEvjyYW.s 			page 46


 1439              		.loc 1 612 0
 1440 00b6 BF780000 		movl	$120, %edi
 1440      00
 1441 00bb E8000000 		call	lwm2m_malloc
 1441      00
 1442              	.LVL189:
 1443 00c0 4889C3   		movq	%rax, %rbx
 1444              	.LVL190:
 613:/home/baikal/workspace/C50/Huawei_IoT_Agent_Tiny_SDK_Linux//agent_tiny/lwm2m_client/object_security.c ****         if (NULL == targetP)
 1445              		.loc 1 613 0
 1446 00c3 4885C0   		testq	%rax, %rax
 1447 00c6 7512     		jne	.L102
 614:/home/baikal/workspace/C50/Huawei_IoT_Agent_Tiny_SDK_Linux//agent_tiny/lwm2m_client/object_security.c ****         {
 615:/home/baikal/workspace/C50/Huawei_IoT_Agent_Tiny_SDK_Linux//agent_tiny/lwm2m_client/object_security.c ****             //lwm2m_free(securityObj);
 616:/home/baikal/workspace/C50/Huawei_IoT_Agent_Tiny_SDK_Linux//agent_tiny/lwm2m_client/object_security.c ****             clean_security_object(securityObj);
 1448              		.loc 1 616 0
 1449 00c8 4C89F7   		movq	%r14, %rdi
 1450 00cb E8000000 		call	clean_security_object
 1450      00
 1451              	.LVL191:
 617:/home/baikal/workspace/C50/Huawei_IoT_Agent_Tiny_SDK_Linux//agent_tiny/lwm2m_client/object_security.c ****             return NULL;
 1452              		.loc 1 617 0
 1453 00d0 B8000000 		movl	$0, %eax
 1453      00
 1454 00d5 E9370200 		jmp	.L97
 1454      00
 1455              	.LVL192:
 1456              	.L102:
 1457              	.LBB70:
 1458              	.LBB71:
  90:/usr/include/x86_64-linux-gnu/bits/string3.h **** }
 1459              		.loc 2 90 0
 1460 00da 48C70000 		movq	$0, (%rax)
 1460      000000
 1461 00e1 48C74070 		movq	$0, 112(%rax)
 1461      00000000 
 1462 00e9 488D7808 		leaq	8(%rax), %rdi
 1463 00ed 4883E7F8 		andq	$-8, %rdi
 1464 00f1 4889C1   		movq	%rax, %rcx
 1465 00f4 4829F9   		subq	%rdi, %rcx
 1466 00f7 83C178   		addl	$120, %ecx
 1467 00fa C1E903   		shrl	$3, %ecx
 1468 00fd 89C9     		movl	%ecx, %ecx
 1469 00ff B8000000 		movl	$0, %eax
 1469      00
 1470              	.LVL193:
 1471 0104 F348AB   		rep stosq
 1472              	.LVL194:
 1473              	.LBE71:
 1474              	.LBE70:
 618:/home/baikal/workspace/C50/Huawei_IoT_Agent_Tiny_SDK_Linux//agent_tiny/lwm2m_client/object_security.c ****         }
 619:/home/baikal/workspace/C50/Huawei_IoT_Agent_Tiny_SDK_Linux//agent_tiny/lwm2m_client/object_security.c **** 
 620:/home/baikal/workspace/C50/Huawei_IoT_Agent_Tiny_SDK_Linux//agent_tiny/lwm2m_client/object_security.c ****         memset(targetP, 0, sizeof(security_instance_t));
 621:/home/baikal/workspace/C50/Huawei_IoT_Agent_Tiny_SDK_Linux//agent_tiny/lwm2m_client/object_security.c ****         if((ins_flag & INS_IOT_SERVER_FLAG) && (ins_flag & INS_BS_SERVER_FLAG))
 1475              		.loc 1 621 0
 1476 0107 0FB64424 		movzbl	12(%rsp), %eax
 1476      0C
GAS LISTING /tmp/ccEvjyYW.s 			page 47


 1477 010c 83E003   		andl	$3, %eax
 1478 010f 3C03     		cmpb	$3, %al
 1479 0111 7511     		jne	.L103
 622:/home/baikal/workspace/C50/Huawei_IoT_Agent_Tiny_SDK_Linux//agent_tiny/lwm2m_client/object_security.c ****         {
 623:/home/baikal/workspace/C50/Huawei_IoT_Agent_Tiny_SDK_Linux//agent_tiny/lwm2m_client/object_security.c ****             targetP->instanceId = i;   //i=0 for iot_server, i=1 for bs_server
 1480              		.loc 1 623 0
 1481 0113 6644897B 		movw	%r15w, 8(%rbx)
 1481      08
 624:/home/baikal/workspace/C50/Huawei_IoT_Agent_Tiny_SDK_Linux//agent_tiny/lwm2m_client/object_security.c ****             targetP->isBootstrap = ((i == 0) ? (false) : (true));
 1482              		.loc 1 624 0
 1483 0118 4585FF   		testl	%r15d, %r15d
 1484 011b 0F954318 		setne	24(%rbx)
 625:/home/baikal/workspace/C50/Huawei_IoT_Agent_Tiny_SDK_Linux//agent_tiny/lwm2m_client/object_security.c ****             security_params_index = i;
 1485              		.loc 1 625 0
 1486 011f 4489FD   		movl	%r15d, %ebp
 1487              	.LVL195:
 1488 0122 EB27     		jmp	.L104
 1489              	.LVL196:
 1490              	.L103:
 626:/home/baikal/workspace/C50/Huawei_IoT_Agent_Tiny_SDK_Linux//agent_tiny/lwm2m_client/object_security.c ****         }
 627:/home/baikal/workspace/C50/Huawei_IoT_Agent_Tiny_SDK_Linux//agent_tiny/lwm2m_client/object_security.c ****         else
 628:/home/baikal/workspace/C50/Huawei_IoT_Agent_Tiny_SDK_Linux//agent_tiny/lwm2m_client/object_security.c ****         {
 629:/home/baikal/workspace/C50/Huawei_IoT_Agent_Tiny_SDK_Linux//agent_tiny/lwm2m_client/object_security.c ****             if(ins_flag & INS_IOT_SERVER_FLAG)
 1491              		.loc 1 629 0
 1492 0124 F644240C 		testb	$1, 12(%rsp)
 1492      01
 1493 0129 7411     		je	.L105
 630:/home/baikal/workspace/C50/Huawei_IoT_Agent_Tiny_SDK_Linux//agent_tiny/lwm2m_client/object_security.c ****             {
 631:/home/baikal/workspace/C50/Huawei_IoT_Agent_Tiny_SDK_Linux//agent_tiny/lwm2m_client/object_security.c ****                 targetP->instanceId = 0;
 1494              		.loc 1 631 0
 1495 012b 66C74308 		movw	$0, 8(%rbx)
 1495      0000
 632:/home/baikal/workspace/C50/Huawei_IoT_Agent_Tiny_SDK_Linux//agent_tiny/lwm2m_client/object_security.c ****                 targetP->isBootstrap = false;
 1496              		.loc 1 632 0
 1497 0131 C6431800 		movb	$0, 24(%rbx)
 1498              	.LVL197:
 633:/home/baikal/workspace/C50/Huawei_IoT_Agent_Tiny_SDK_Linux//agent_tiny/lwm2m_client/object_security.c ****                 security_params_index = 0;
 1499              		.loc 1 633 0
 1500 0135 BD000000 		movl	$0, %ebp
 1500      00
 1501 013a EB0F     		jmp	.L104
 1502              	.LVL198:
 1503              	.L105:
 634:/home/baikal/workspace/C50/Huawei_IoT_Agent_Tiny_SDK_Linux//agent_tiny/lwm2m_client/object_security.c ****             }
 635:/home/baikal/workspace/C50/Huawei_IoT_Agent_Tiny_SDK_Linux//agent_tiny/lwm2m_client/object_security.c ****             else  //if(ins_flag & INS_BS_SERVER_FLAG)  //even if not set INS_BS_SERVER_FLAG, still 
 636:/home/baikal/workspace/C50/Huawei_IoT_Agent_Tiny_SDK_Linux//agent_tiny/lwm2m_client/object_security.c ****             {
 637:/home/baikal/workspace/C50/Huawei_IoT_Agent_Tiny_SDK_Linux//agent_tiny/lwm2m_client/object_security.c ****                 targetP->instanceId = 1;
 1504              		.loc 1 637 0
 1505 013c 66C74308 		movw	$1, 8(%rbx)
 1505      0100
 638:/home/baikal/workspace/C50/Huawei_IoT_Agent_Tiny_SDK_Linux//agent_tiny/lwm2m_client/object_security.c ****                 targetP->isBootstrap = true;
 1506              		.loc 1 638 0
 1507 0142 C6431801 		movb	$1, 24(%rbx)
 1508              	.LVL199:
 639:/home/baikal/workspace/C50/Huawei_IoT_Agent_Tiny_SDK_Linux//agent_tiny/lwm2m_client/object_security.c ****                 security_params_index = 1;
 1509              		.loc 1 639 0
 1510 0146 BD010000 		movl	$1, %ebp
GAS LISTING /tmp/ccEvjyYW.s 			page 48


 1510      00
 1511              	.LVL200:
 1512              	.L104:
 640:/home/baikal/workspace/C50/Huawei_IoT_Agent_Tiny_SDK_Linux//agent_tiny/lwm2m_client/object_security.c ****             }
 641:/home/baikal/workspace/C50/Huawei_IoT_Agent_Tiny_SDK_Linux//agent_tiny/lwm2m_client/object_security.c ****         }
 642:/home/baikal/workspace/C50/Huawei_IoT_Agent_Tiny_SDK_Linux//agent_tiny/lwm2m_client/object_security.c ****         // After instance id is initialized
 643:/home/baikal/workspace/C50/Huawei_IoT_Agent_Tiny_SDK_Linux//agent_tiny/lwm2m_client/object_security.c ****         securityObj->instanceList = LWM2M_LIST_ADD(securityObj->instanceList, targetP);
 1513              		.loc 1 643 0
 1514 014b 498B7E10 		movq	16(%r14), %rdi
 1515 014f 4889DE   		movq	%rbx, %rsi
 1516 0152 E8000000 		call	lwm2m_list_add
 1516      00
 1517              	.LVL201:
 1518 0157 49894610 		movq	%rax, 16(%r14)
 644:/home/baikal/workspace/C50/Huawei_IoT_Agent_Tiny_SDK_Linux//agent_tiny/lwm2m_client/object_security.c **** 
 645:/home/baikal/workspace/C50/Huawei_IoT_Agent_Tiny_SDK_Linux//agent_tiny/lwm2m_client/object_security.c ****         bsPskId = atiny_params->security_params[security_params_index].psk_Id;
 1519              		.loc 1 645 0
 1520 015b 400FB6C5 		movzbl	%bpl, %eax
 1521 015f 4863D0   		movslq	%eax, %rdx
 1522 0162 488D0C95 		leaq	0(,%rdx,4), %rcx
 1522      00000000 
 1523 016a 488D3C11 		leaq	(%rcx,%rdx), %rdi
 1524 016e 488D34FD 		leaq	0(,%rdi,8), %rsi
 1524      00000000 
 1525 0176 4D8B6C34 		movq	40(%r12,%rsi), %r13
 1525      28
 1526              	.LVL202:
 646:/home/baikal/workspace/C50/Huawei_IoT_Agent_Tiny_SDK_Linux//agent_tiny/lwm2m_client/object_security.c ****         psk = atiny_params->security_params[security_params_index].psk;
 1527              		.loc 1 646 0
 1528 017b 498B6C34 		movq	48(%r12,%rsi), %rbp
 1528      30
 1529              	.LVL203:
 647:/home/baikal/workspace/C50/Huawei_IoT_Agent_Tiny_SDK_Linux//agent_tiny/lwm2m_client/object_security.c ****         pskLen = atiny_params->security_params[security_params_index].psk_len;
 1530              		.loc 1 647 0
 1531 0180 410FB774 		movzwl	56(%r12,%rsi), %esi
 1531      3438
 1532 0186 66897424 		movw	%si, 10(%rsp)
 1532      0A
 1533              	.LVL204:
 648:/home/baikal/workspace/C50/Huawei_IoT_Agent_Tiny_SDK_Linux//agent_tiny/lwm2m_client/object_security.c **** 
 649:/home/baikal/workspace/C50/Huawei_IoT_Agent_Tiny_SDK_Linux//agent_tiny/lwm2m_client/object_security.c ****         if (psk != NULL)
 1534              		.loc 1 649 0
 1535 018b 4885ED   		testq	%rbp, %rbp
 1536 018e 742D     		je	.L106
 650:/home/baikal/workspace/C50/Huawei_IoT_Agent_Tiny_SDK_Linux//agent_tiny/lwm2m_client/object_security.c ****         {
 651:/home/baikal/workspace/C50/Huawei_IoT_Agent_Tiny_SDK_Linux//agent_tiny/lwm2m_client/object_security.c ****             (void)atiny_snprintf(serverUri, URI_MAX_LEN, "coaps://%s:%s", atiny_params->security_pa
 1537              		.loc 1 651 0
 1538 0190 488D14FD 		leaq	0(,%rdi,8), %rdx
 1538      00000000 
 1539 0198 498B4C14 		movq	24(%r12,%rdx), %rcx
 1539      18
 1540 019d 4D8B4414 		movq	32(%r12,%rdx), %r8
 1540      20
 1541 01a2 BA000000 		movl	$.LC0, %edx
 1541      00
 1542 01a7 BE400000 		movl	$64, %esi
 1542      00
GAS LISTING /tmp/ccEvjyYW.s 			page 49


 1543              	.LVL205:
 1544 01ac 488D7C24 		leaq	16(%rsp), %rdi
 1544      10
 1545              	.LVL206:
 1546 01b1 B8000000 		movl	$0, %eax
 1546      00
 1547              	.LVL207:
 1548 01b6 E8000000 		call	atiny_snprintf
 1548      00
 1549              	.LVL208:
 1550 01bb EB39     		jmp	.L107
 1551              	.LVL209:
 1552              	.L106:
 652:/home/baikal/workspace/C50/Huawei_IoT_Agent_Tiny_SDK_Linux//agent_tiny/lwm2m_client/object_security.c ****                                  atiny_params->security_params[security_params_index].server_port);
 653:/home/baikal/workspace/C50/Huawei_IoT_Agent_Tiny_SDK_Linux//agent_tiny/lwm2m_client/object_security.c ****         }
 654:/home/baikal/workspace/C50/Huawei_IoT_Agent_Tiny_SDK_Linux//agent_tiny/lwm2m_client/object_security.c ****         else
 655:/home/baikal/workspace/C50/Huawei_IoT_Agent_Tiny_SDK_Linux//agent_tiny/lwm2m_client/object_security.c ****         {
 656:/home/baikal/workspace/C50/Huawei_IoT_Agent_Tiny_SDK_Linux//agent_tiny/lwm2m_client/object_security.c ****             (void)atiny_snprintf(serverUri, URI_MAX_LEN, "coap://%s:%s", atiny_params->security_par
 1553              		.loc 1 656 0
 1554 01bd 4898     		cltq
 1555 01bf 488D0C85 		leaq	0(,%rax,4), %rcx
 1555      00000000 
 1556 01c7 488D3401 		leaq	(%rcx,%rax), %rsi
 1557              	.LVL210:
 1558 01cb 488D14F5 		leaq	0(,%rsi,8), %rdx
 1558      00000000 
 1559 01d3 498B4C14 		movq	24(%r12,%rdx), %rcx
 1559      18
 1560 01d8 4D8B4414 		movq	32(%r12,%rdx), %r8
 1560      20
 1561 01dd BA000000 		movl	$.LC1, %edx
 1561      00
 1562 01e2 BE400000 		movl	$64, %esi
 1562      00
 1563 01e7 488D7C24 		leaq	16(%rsp), %rdi
 1563      10
 1564              	.LVL211:
 1565 01ec B8000000 		movl	$0, %eax
 1565      00
 1566              	.LVL212:
 1567 01f1 E8000000 		call	atiny_snprintf
 1567      00
 1568              	.LVL213:
 1569              	.L107:
 657:/home/baikal/workspace/C50/Huawei_IoT_Agent_Tiny_SDK_Linux//agent_tiny/lwm2m_client/object_security.c ****                                  atiny_params->security_params[security_params_index].server_port);
 658:/home/baikal/workspace/C50/Huawei_IoT_Agent_Tiny_SDK_Linux//agent_tiny/lwm2m_client/object_security.c ****         }
 659:/home/baikal/workspace/C50/Huawei_IoT_Agent_Tiny_SDK_Linux//agent_tiny/lwm2m_client/object_security.c **** 
 660:/home/baikal/workspace/C50/Huawei_IoT_Agent_Tiny_SDK_Linux//agent_tiny/lwm2m_client/object_security.c ****         targetP->uri = (char *)lwm2m_strdup(serverUri);
 1570              		.loc 1 660 0
 1571 01f6 488D7C24 		leaq	16(%rsp), %rdi
 1571      10
 1572 01fb E8000000 		call	lwm2m_strdup
 1572      00
 1573              	.LVL214:
 1574 0200 48894310 		movq	%rax, 16(%rbx)
 661:/home/baikal/workspace/C50/Huawei_IoT_Agent_Tiny_SDK_Linux//agent_tiny/lwm2m_client/object_security.c ****         if (NULL == targetP->uri)
 1575              		.loc 1 661 0
GAS LISTING /tmp/ccEvjyYW.s 			page 50


 1576 0204 4885C0   		testq	%rax, %rax
 1577 0207 7512     		jne	.L108
 662:/home/baikal/workspace/C50/Huawei_IoT_Agent_Tiny_SDK_Linux//agent_tiny/lwm2m_client/object_security.c ****         {
 663:/home/baikal/workspace/C50/Huawei_IoT_Agent_Tiny_SDK_Linux//agent_tiny/lwm2m_client/object_security.c ****             //lwm2m_free(securityObj);
 664:/home/baikal/workspace/C50/Huawei_IoT_Agent_Tiny_SDK_Linux//agent_tiny/lwm2m_client/object_security.c ****             //lwm2m_free(targetP);
 665:/home/baikal/workspace/C50/Huawei_IoT_Agent_Tiny_SDK_Linux//agent_tiny/lwm2m_client/object_security.c ****             clean_security_object(securityObj);
 1578              		.loc 1 665 0
 1579 0209 4C89F7   		movq	%r14, %rdi
 1580 020c E8000000 		call	clean_security_object
 1580      00
 1581              	.LVL215:
 666:/home/baikal/workspace/C50/Huawei_IoT_Agent_Tiny_SDK_Linux//agent_tiny/lwm2m_client/object_security.c ****             return NULL;
 1582              		.loc 1 666 0
 1583 0211 B8000000 		movl	$0, %eax
 1583      00
 1584 0216 E9F60000 		jmp	.L97
 1584      00
 1585              	.L108:
 667:/home/baikal/workspace/C50/Huawei_IoT_Agent_Tiny_SDK_Linux//agent_tiny/lwm2m_client/object_security.c ****         }
 668:/home/baikal/workspace/C50/Huawei_IoT_Agent_Tiny_SDK_Linux//agent_tiny/lwm2m_client/object_security.c **** 
 669:/home/baikal/workspace/C50/Huawei_IoT_Agent_Tiny_SDK_Linux//agent_tiny/lwm2m_client/object_security.c ****         targetP->securityMode = LWM2M_SECURITY_MODE_NONE;
 1586              		.loc 1 669 0
 1587 021b C6431903 		movb	$3, 25(%rbx)
 670:/home/baikal/workspace/C50/Huawei_IoT_Agent_Tiny_SDK_Linux//agent_tiny/lwm2m_client/object_security.c ****         if (bsPskId != NULL && psk != NULL)
 1588              		.loc 1 670 0
 1589 021f 4D85ED   		testq	%r13, %r13
 1590 0222 0F95C2   		setne	%dl
 1591 0225 4885ED   		testq	%rbp, %rbp
 1592 0228 0F95C0   		setne	%al
 1593 022b 84C2     		testb	%al, %dl
 1594 022d 0F848B00 		je	.L109
 1594      0000
 671:/home/baikal/workspace/C50/Huawei_IoT_Agent_Tiny_SDK_Linux//agent_tiny/lwm2m_client/object_security.c ****         {
 672:/home/baikal/workspace/C50/Huawei_IoT_Agent_Tiny_SDK_Linux//agent_tiny/lwm2m_client/object_security.c ****             targetP->securityMode = LWM2M_SECURITY_MODE_PRE_SHARED_KEY;
 1595              		.loc 1 672 0
 1596 0233 C6431900 		movb	$0, 25(%rbx)
 673:/home/baikal/workspace/C50/Huawei_IoT_Agent_Tiny_SDK_Linux//agent_tiny/lwm2m_client/object_security.c ****             targetP->publicIdentity = (char *)lwm2m_strdup(bsPskId);
 1597              		.loc 1 673 0
 1598 0237 4C89EF   		movq	%r13, %rdi
 1599 023a E8000000 		call	lwm2m_strdup
 1599      00
 1600              	.LVL216:
 1601 023f 48894320 		movq	%rax, 32(%rbx)
 674:/home/baikal/workspace/C50/Huawei_IoT_Agent_Tiny_SDK_Linux//agent_tiny/lwm2m_client/object_security.c ****             if(targetP->publicIdentity == NULL)
 1602              		.loc 1 674 0
 1603 0243 4885C0   		testq	%rax, %rax
 1604 0246 7512     		jne	.L110
 675:/home/baikal/workspace/C50/Huawei_IoT_Agent_Tiny_SDK_Linux//agent_tiny/lwm2m_client/object_security.c ****             {
 676:/home/baikal/workspace/C50/Huawei_IoT_Agent_Tiny_SDK_Linux//agent_tiny/lwm2m_client/object_security.c ****                 clean_security_object(securityObj);
 1605              		.loc 1 676 0
 1606 0248 4C89F7   		movq	%r14, %rdi
 1607 024b E8000000 		call	clean_security_object
 1607      00
 1608              	.LVL217:
 677:/home/baikal/workspace/C50/Huawei_IoT_Agent_Tiny_SDK_Linux//agent_tiny/lwm2m_client/object_security.c ****                 return NULL;
 1609              		.loc 1 677 0
 1610 0250 B8000000 		movl	$0, %eax
GAS LISTING /tmp/ccEvjyYW.s 			page 51


 1610      00
 1611 0255 E9B70000 		jmp	.L97
 1611      00
 1612              	.L110:
 678:/home/baikal/workspace/C50/Huawei_IoT_Agent_Tiny_SDK_Linux//agent_tiny/lwm2m_client/object_security.c ****             }
 679:/home/baikal/workspace/C50/Huawei_IoT_Agent_Tiny_SDK_Linux//agent_tiny/lwm2m_client/object_security.c ****             targetP->publicIdLen = strlen(bsPskId);
 1613              		.loc 1 679 0
 1614 025a B8000000 		movl	$0, %eax
 1614      00
 1615 025f 48C7C1FF 		movq	$-1, %rcx
 1615      FFFFFF
 1616 0266 4C89EF   		movq	%r13, %rdi
 1617 0269 F2AE     		repnz scasb
 1618              	.LVL218:
 1619 026b 4889C8   		movq	%rcx, %rax
 1620 026e 48F7D0   		notq	%rax
 1621 0271 4883E801 		subq	$1, %rax
 1622 0275 66894328 		movw	%ax, 40(%rbx)
 680:/home/baikal/workspace/C50/Huawei_IoT_Agent_Tiny_SDK_Linux//agent_tiny/lwm2m_client/object_security.c ****             if (pskLen > 0)
 1623              		.loc 1 680 0
 1624 0279 66837C24 		cmpw	$0, 10(%rsp)
 1624      0A00
 1625 027f 743D     		je	.L109
 681:/home/baikal/workspace/C50/Huawei_IoT_Agent_Tiny_SDK_Linux//agent_tiny/lwm2m_client/object_security.c ****             {
 682:/home/baikal/workspace/C50/Huawei_IoT_Agent_Tiny_SDK_Linux//agent_tiny/lwm2m_client/object_security.c ****                 targetP->secretKey = (char *)lwm2m_malloc(pskLen);
 1626              		.loc 1 682 0
 1627 0281 440FB76C 		movzwl	10(%rsp), %r13d
 1627      240A
 1628 0287 4C89EF   		movq	%r13, %rdi
 1629 028a E8000000 		call	lwm2m_malloc
 1629      00
 1630              	.LVL219:
 1631 028f 48894340 		movq	%rax, 64(%rbx)
 683:/home/baikal/workspace/C50/Huawei_IoT_Agent_Tiny_SDK_Linux//agent_tiny/lwm2m_client/object_security.c ****                 if (targetP->secretKey == NULL)
 1632              		.loc 1 683 0
 1633 0293 4885C0   		testq	%rax, %rax
 1634 0296 750F     		jne	.L111
 684:/home/baikal/workspace/C50/Huawei_IoT_Agent_Tiny_SDK_Linux//agent_tiny/lwm2m_client/object_security.c ****                 {
 685:/home/baikal/workspace/C50/Huawei_IoT_Agent_Tiny_SDK_Linux//agent_tiny/lwm2m_client/object_security.c ****                     clean_security_object(securityObj);
 1635              		.loc 1 685 0
 1636 0298 4C89F7   		movq	%r14, %rdi
 1637 029b E8000000 		call	clean_security_object
 1637      00
 1638              	.LVL220:
 686:/home/baikal/workspace/C50/Huawei_IoT_Agent_Tiny_SDK_Linux//agent_tiny/lwm2m_client/object_security.c ****                     return NULL;
 1639              		.loc 1 686 0
 1640 02a0 B8000000 		movl	$0, %eax
 1640      00
 1641 02a5 EB6A     		jmp	.L97
 1642              	.L111:
 1643              	.LVL221:
 1644              	.LBB72:
 1645              	.LBB73:
  53:/usr/include/x86_64-linux-gnu/bits/string3.h **** }
 1646              		.loc 2 53 0
 1647 02a7 4C89EA   		movq	%r13, %rdx
 1648 02aa 4889EE   		movq	%rbp, %rsi
GAS LISTING /tmp/ccEvjyYW.s 			page 52


 1649 02ad 4889C7   		movq	%rax, %rdi
 1650 02b0 E8000000 		call	memcpy
 1650      00
 1651              	.LVL222:
 1652              	.LBE73:
 1653              	.LBE72:
 687:/home/baikal/workspace/C50/Huawei_IoT_Agent_Tiny_SDK_Linux//agent_tiny/lwm2m_client/object_security.c ****                 }
 688:/home/baikal/workspace/C50/Huawei_IoT_Agent_Tiny_SDK_Linux//agent_tiny/lwm2m_client/object_security.c ****                 memcpy(targetP->secretKey, psk, pskLen);
 689:/home/baikal/workspace/C50/Huawei_IoT_Agent_Tiny_SDK_Linux//agent_tiny/lwm2m_client/object_security.c ****                 targetP->secretKeyLen = pskLen;
 1654              		.loc 1 689 0
 1655 02b5 0FB74424 		movzwl	10(%rsp), %eax
 1655      0A
 1656 02ba 66894348 		movw	%ax, 72(%rbx)
 1657              	.L109:
 690:/home/baikal/workspace/C50/Huawei_IoT_Agent_Tiny_SDK_Linux//agent_tiny/lwm2m_client/object_security.c ****             }
 691:/home/baikal/workspace/C50/Huawei_IoT_Agent_Tiny_SDK_Linux//agent_tiny/lwm2m_client/object_security.c ****         }
 692:/home/baikal/workspace/C50/Huawei_IoT_Agent_Tiny_SDK_Linux//agent_tiny/lwm2m_client/object_security.c **** 
 693:/home/baikal/workspace/C50/Huawei_IoT_Agent_Tiny_SDK_Linux//agent_tiny/lwm2m_client/object_security.c ****         targetP->shortID = serverId;
 1658              		.loc 1 693 0 discriminator 2
 1659 02be 0FB74424 		movzwl	14(%rsp), %eax
 1659      0E
 1660 02c3 6689436A 		movw	%ax, 106(%rbx)
 694:/home/baikal/workspace/C50/Huawei_IoT_Agent_Tiny_SDK_Linux//agent_tiny/lwm2m_client/object_security.c ****         //10? is suitable? it could be changed by the bs server. for lwm2m_server_t member lifetime
 695:/home/baikal/workspace/C50/Huawei_IoT_Agent_Tiny_SDK_Linux//agent_tiny/lwm2m_client/object_security.c ****         targetP->clientHoldOffTime = SECURITY_HOLD_OFF_TIME;
 1661              		.loc 1 695 0 discriminator 2
 1662 02c7 C7436C0A 		movl	$10, 108(%rbx)
 1662      000000
 609:/home/baikal/workspace/C50/Huawei_IoT_Agent_Tiny_SDK_Linux//agent_tiny/lwm2m_client/object_security.c ****     {
 1663              		.loc 1 609 0 discriminator 2
 1664 02ce 4183C701 		addl	$1, %r15d
 1665              	.LVL223:
 1666              	.L101:
 609:/home/baikal/workspace/C50/Huawei_IoT_Agent_Tiny_SDK_Linux//agent_tiny/lwm2m_client/object_security.c ****     {
 1667              		.loc 1 609 0 is_stmt 0 discriminator 1
 1668 02d2 0FB64424 		movzbl	13(%rsp), %eax
 1668      0D
 1669 02d7 4139C7   		cmpl	%eax, %r15d
 1670 02da 0F8CD6FD 		jl	.L112
 1670      FFFF
 696:/home/baikal/workspace/C50/Huawei_IoT_Agent_Tiny_SDK_Linux//agent_tiny/lwm2m_client/object_security.c ****     } //end for loop
 697:/home/baikal/workspace/C50/Huawei_IoT_Agent_Tiny_SDK_Linux//agent_tiny/lwm2m_client/object_security.c **** 
 698:/home/baikal/workspace/C50/Huawei_IoT_Agent_Tiny_SDK_Linux//agent_tiny/lwm2m_client/object_security.c **** 
 699:/home/baikal/workspace/C50/Huawei_IoT_Agent_Tiny_SDK_Linux//agent_tiny/lwm2m_client/object_security.c ****     securityObj->readFunc = prv_security_read;
 1671              		.loc 1 699 0 is_stmt 1
 1672 02e0 49C74618 		movq	$prv_security_read, 24(%r14)
 1672      00000000 
 700:/home/baikal/workspace/C50/Huawei_IoT_Agent_Tiny_SDK_Linux//agent_tiny/lwm2m_client/object_security.c **** #ifdef LWM2M_BOOTSTRAP
 701:/home/baikal/workspace/C50/Huawei_IoT_Agent_Tiny_SDK_Linux//agent_tiny/lwm2m_client/object_security.c ****     securityObj->writeFunc = prv_security_write;
 1673              		.loc 1 701 0
 1674 02e8 49C74620 		movq	$prv_security_write, 32(%r14)
 1674      00000000 
 702:/home/baikal/workspace/C50/Huawei_IoT_Agent_Tiny_SDK_Linux//agent_tiny/lwm2m_client/object_security.c ****     securityObj->createFunc = prv_security_create;
 1675              		.loc 1 702 0
 1676 02f0 49C74638 		movq	$prv_security_create, 56(%r14)
 1676      00000000 
 703:/home/baikal/workspace/C50/Huawei_IoT_Agent_Tiny_SDK_Linux//agent_tiny/lwm2m_client/object_security.c ****     securityObj->deleteFunc = prv_security_delete;
 1677              		.loc 1 703 0
GAS LISTING /tmp/ccEvjyYW.s 			page 53


 1678 02f8 49C74640 		movq	$prv_security_delete, 64(%r14)
 1678      00000000 
 704:/home/baikal/workspace/C50/Huawei_IoT_Agent_Tiny_SDK_Linux//agent_tiny/lwm2m_client/object_security.c **** #endif
 705:/home/baikal/workspace/C50/Huawei_IoT_Agent_Tiny_SDK_Linux//agent_tiny/lwm2m_client/object_security.c **** 
 706:/home/baikal/workspace/C50/Huawei_IoT_Agent_Tiny_SDK_Linux//agent_tiny/lwm2m_client/object_security.c ****     return securityObj;
 1679              		.loc 1 706 0
 1680 0300 4C89F0   		movq	%r14, %rax
 1681 0303 EB0C     		jmp	.L97
 1682              	.LVL224:
 1683              	.L117:
 594:/home/baikal/workspace/C50/Huawei_IoT_Agent_Tiny_SDK_Linux//agent_tiny/lwm2m_client/object_security.c ****         //break;
 1684              		.loc 1 594 0
 1685 0305 B8000000 		movl	$0, %eax
 1685      00
 1686 030a EB05     		jmp	.L97
 1687              	.LVL225:
 1688              	.L116:
 601:/home/baikal/workspace/C50/Huawei_IoT_Agent_Tiny_SDK_Linux//agent_tiny/lwm2m_client/object_security.c ****     }
 1689              		.loc 1 601 0
 1690 030c B8000000 		movl	$0, %eax
 1690      00
 1691              	.LVL226:
 1692              	.L97:
 707:/home/baikal/workspace/C50/Huawei_IoT_Agent_Tiny_SDK_Linux//agent_tiny/lwm2m_client/object_security.c **** }
 1693              		.loc 1 707 0
 1694 0311 4883C458 		addq	$88, %rsp
 1695              	.LCFI63:
 1696              		.cfi_def_cfa_offset 56
 1697 0315 5B       		popq	%rbx
 1698              	.LCFI64:
 1699              		.cfi_def_cfa_offset 48
 1700 0316 5D       		popq	%rbp
 1701              	.LCFI65:
 1702              		.cfi_def_cfa_offset 40
 1703 0317 415C     		popq	%r12
 1704              	.LCFI66:
 1705              		.cfi_def_cfa_offset 32
 1706 0319 415D     		popq	%r13
 1707              	.LCFI67:
 1708              		.cfi_def_cfa_offset 24
 1709 031b 415E     		popq	%r14
 1710              	.LCFI68:
 1711              		.cfi_def_cfa_offset 16
 1712 031d 415F     		popq	%r15
 1713              	.LCFI69:
 1714              		.cfi_def_cfa_offset 8
 1715 031f C3       		ret
 1716              		.cfi_endproc
 1717              	.LFE79:
 1719              		.section	.text.security_get_uri,"ax",@progbits
 1720              		.globl	security_get_uri
 1722              	security_get_uri:
 1723              	.LFB80:
 708:/home/baikal/workspace/C50/Huawei_IoT_Agent_Tiny_SDK_Linux//agent_tiny/lwm2m_client/object_security.c **** 
 709:/home/baikal/workspace/C50/Huawei_IoT_Agent_Tiny_SDK_Linux//agent_tiny/lwm2m_client/object_security.c **** 
 710:/home/baikal/workspace/C50/Huawei_IoT_Agent_Tiny_SDK_Linux//agent_tiny/lwm2m_client/object_security.c **** 
 711:/home/baikal/workspace/C50/Huawei_IoT_Agent_Tiny_SDK_Linux//agent_tiny/lwm2m_client/object_security.c **** /********************* Security Obj Helpers **********************/
GAS LISTING /tmp/ccEvjyYW.s 			page 54


 712:/home/baikal/workspace/C50/Huawei_IoT_Agent_Tiny_SDK_Linux//agent_tiny/lwm2m_client/object_security.c **** 
 713:/home/baikal/workspace/C50/Huawei_IoT_Agent_Tiny_SDK_Linux//agent_tiny/lwm2m_client/object_security.c **** char *security_get_uri(lwm2m_object_t *objectP, uint16_t secObjInstID)
 714:/home/baikal/workspace/C50/Huawei_IoT_Agent_Tiny_SDK_Linux//agent_tiny/lwm2m_client/object_security.c **** {
 1724              		.loc 1 714 0
 1725              		.cfi_startproc
 1726              	.LVL227:
 1727 0000 4883EC08 		subq	$8, %rsp
 1728              	.LCFI70:
 1729              		.cfi_def_cfa_offset 16
 715:/home/baikal/workspace/C50/Huawei_IoT_Agent_Tiny_SDK_Linux//agent_tiny/lwm2m_client/object_security.c ****     security_instance_t *targetP = (security_instance_t *)LWM2M_LIST_FIND(objectP->instanceList, se
 1730              		.loc 1 715 0
 1731 0004 0FB7F6   		movzwl	%si, %esi
 1732 0007 488B7F10 		movq	16(%rdi), %rdi
 1733              	.LVL228:
 1734 000b E8000000 		call	lwm2m_list_find
 1734      00
 1735              	.LVL229:
 716:/home/baikal/workspace/C50/Huawei_IoT_Agent_Tiny_SDK_Linux//agent_tiny/lwm2m_client/object_security.c **** 
 717:/home/baikal/workspace/C50/Huawei_IoT_Agent_Tiny_SDK_Linux//agent_tiny/lwm2m_client/object_security.c ****     if (NULL != targetP)
 1736              		.loc 1 717 0
 1737 0010 4885C0   		testq	%rax, %rax
 1738 0013 740B     		je	.L121
 718:/home/baikal/workspace/C50/Huawei_IoT_Agent_Tiny_SDK_Linux//agent_tiny/lwm2m_client/object_security.c ****     {
 719:/home/baikal/workspace/C50/Huawei_IoT_Agent_Tiny_SDK_Linux//agent_tiny/lwm2m_client/object_security.c ****         return lwm2m_strdup(targetP->uri);
 1739              		.loc 1 719 0
 1740 0015 488B7810 		movq	16(%rax), %rdi
 1741 0019 E8000000 		call	lwm2m_strdup
 1741      00
 1742              	.LVL230:
 1743 001e EB05     		jmp	.L120
 1744              	.LVL231:
 1745              	.L121:
 720:/home/baikal/workspace/C50/Huawei_IoT_Agent_Tiny_SDK_Linux//agent_tiny/lwm2m_client/object_security.c ****     }
 721:/home/baikal/workspace/C50/Huawei_IoT_Agent_Tiny_SDK_Linux//agent_tiny/lwm2m_client/object_security.c **** 
 722:/home/baikal/workspace/C50/Huawei_IoT_Agent_Tiny_SDK_Linux//agent_tiny/lwm2m_client/object_security.c ****     return NULL;
 1746              		.loc 1 722 0
 1747 0020 B8000000 		movl	$0, %eax
 1747      00
 1748              	.LVL232:
 1749              	.L120:
 723:/home/baikal/workspace/C50/Huawei_IoT_Agent_Tiny_SDK_Linux//agent_tiny/lwm2m_client/object_security.c **** }
 1750              		.loc 1 723 0
 1751 0025 4883C408 		addq	$8, %rsp
 1752              	.LCFI71:
 1753              		.cfi_def_cfa_offset 8
 1754 0029 C3       		ret
 1755              		.cfi_endproc
 1756              	.LFE80:
 1758              		.text
 1759              	.Letext0:
 1760              		.file 3 "/usr/include/stdint.h"
 1761              		.file 4 "/usr/lib/gcc/x86_64-linux-gnu/5/include/stddef.h"
 1762              		.file 5 "/usr/include/x86_64-linux-gnu/bits/types.h"
 1763              		.file 6 "/usr/include/time.h"
 1764              		.file 7 "/home/baikal/workspace/C50/Huawei_IoT_Agent_Tiny_SDK_Linux//lwm2m/core/er-coap-13/er-coap
 1765              		.file 8 "/usr/include/libio.h"
 1766              		.file 9 "/home/baikal/workspace/C50/Huawei_IoT_Agent_Tiny_SDK_Linux//lwm2m/core/liblwm2m.h"
GAS LISTING /tmp/ccEvjyYW.s 			page 55


 1767              		.file 10 "/home/baikal/workspace/C50/Huawei_IoT_Agent_Tiny_SDK_Linux//agent_tiny/lwm2m_client/agen
 1768              		.file 11 "/home/baikal/workspace/C50/Huawei_IoT_Agent_Tiny_SDK_Linux//agent_tiny/lwm2m_client/obje
 1769              		.file 12 "/usr/include/stdio.h"
 1770              		.file 13 "/home/baikal/workspace/C50/Huawei_IoT_Agent_Tiny_SDK_Linux//agent_tiny/osadapter/atiny_a
 1771              		.file 14 "<built-in>"
GAS LISTING /tmp/ccEvjyYW.s 			page 56

