GAS LISTING /tmp/ccGR9aQU.s 			page 1


   1              		.file	"observe.c"
   2              		.text
   3              	.Ltext0:
   4              		.section	.text.prv_findObserved,"ax",@progbits
   6              	prv_findObserved:
   7              	.LFB64:
   8              		.file 1 "/home/baikal/workspace/C50/Huawei_IoT_Agent_Tiny_SDK_Linux//lwm2m/core/observe.c"
   1:/home/baikal/workspace/C50/Huawei_IoT_Agent_Tiny_SDK_Linux//lwm2m/core/observe.c **** /*----------------------------------------------------------------------------
   2:/home/baikal/workspace/C50/Huawei_IoT_Agent_Tiny_SDK_Linux//lwm2m/core/observe.c ****  * Copyright (c) <2016-2018>, <Huawei Technologies Co., Ltd>
   3:/home/baikal/workspace/C50/Huawei_IoT_Agent_Tiny_SDK_Linux//lwm2m/core/observe.c ****  * All rights reserved.
   4:/home/baikal/workspace/C50/Huawei_IoT_Agent_Tiny_SDK_Linux//lwm2m/core/observe.c ****  * Redistribution and use in source and binary forms, with or without modification,
   5:/home/baikal/workspace/C50/Huawei_IoT_Agent_Tiny_SDK_Linux//lwm2m/core/observe.c ****  * are permitted provided that the following conditions are met:
   6:/home/baikal/workspace/C50/Huawei_IoT_Agent_Tiny_SDK_Linux//lwm2m/core/observe.c ****  * 1. Redistributions of source code must retain the above copyright notice, this list of
   7:/home/baikal/workspace/C50/Huawei_IoT_Agent_Tiny_SDK_Linux//lwm2m/core/observe.c ****  * conditions and the following disclaimer.
   8:/home/baikal/workspace/C50/Huawei_IoT_Agent_Tiny_SDK_Linux//lwm2m/core/observe.c ****  * 2. Redistributions in binary form must reproduce the above copyright notice, this list
   9:/home/baikal/workspace/C50/Huawei_IoT_Agent_Tiny_SDK_Linux//lwm2m/core/observe.c ****  * of conditions and the following disclaimer in the documentation and/or other materials
  10:/home/baikal/workspace/C50/Huawei_IoT_Agent_Tiny_SDK_Linux//lwm2m/core/observe.c ****  * provided with the distribution.
  11:/home/baikal/workspace/C50/Huawei_IoT_Agent_Tiny_SDK_Linux//lwm2m/core/observe.c ****  * 3. Neither the name of the copyright holder nor the names of its contributors may be used
  12:/home/baikal/workspace/C50/Huawei_IoT_Agent_Tiny_SDK_Linux//lwm2m/core/observe.c ****  * to endorse or promote products derived from this software without specific prior written
  13:/home/baikal/workspace/C50/Huawei_IoT_Agent_Tiny_SDK_Linux//lwm2m/core/observe.c ****  * permission.
  14:/home/baikal/workspace/C50/Huawei_IoT_Agent_Tiny_SDK_Linux//lwm2m/core/observe.c ****  * THIS SOFTWARE IS PROVIDED BY THE COPYRIGHT HOLDERS AND CONTRIBUTORS
  15:/home/baikal/workspace/C50/Huawei_IoT_Agent_Tiny_SDK_Linux//lwm2m/core/observe.c ****  * "AS IS" AND ANY EXPRESS OR IMPLIED WARRANTIES, INCLUDING, BUT NOT LIMITED TO,
  16:/home/baikal/workspace/C50/Huawei_IoT_Agent_Tiny_SDK_Linux//lwm2m/core/observe.c ****  * THE IMPLIED WARRANTIES OF MERCHANTABILITY AND FITNESS FOR A PARTICULAR
  17:/home/baikal/workspace/C50/Huawei_IoT_Agent_Tiny_SDK_Linux//lwm2m/core/observe.c ****  * PURPOSE ARE DISCLAIMED. IN NO EVENT SHALL THE COPYRIGHT HOLDER OR
  18:/home/baikal/workspace/C50/Huawei_IoT_Agent_Tiny_SDK_Linux//lwm2m/core/observe.c ****  * CONTRIBUTORS BE LIABLE FOR ANY DIRECT, INDIRECT, INCIDENTAL, SPECIAL,
  19:/home/baikal/workspace/C50/Huawei_IoT_Agent_Tiny_SDK_Linux//lwm2m/core/observe.c ****  * EXEMPLARY, OR CONSEQUENTIAL DAMAGES (INCLUDING, BUT NOT LIMITED TO,
  20:/home/baikal/workspace/C50/Huawei_IoT_Agent_Tiny_SDK_Linux//lwm2m/core/observe.c ****  * PROCUREMENT OF SUBSTITUTE GOODS OR SERVICES; LOSS OF USE, DATA, OR PROFITS;
  21:/home/baikal/workspace/C50/Huawei_IoT_Agent_Tiny_SDK_Linux//lwm2m/core/observe.c ****  * OR BUSINESS INTERRUPTION) HOWEVER CAUSED AND ON ANY THEORY OF LIABILITY,
  22:/home/baikal/workspace/C50/Huawei_IoT_Agent_Tiny_SDK_Linux//lwm2m/core/observe.c ****  * WHETHER IN CONTRACT, STRICT LIABILITY, OR TORT (INCLUDING NEGLIGENCE OR
  23:/home/baikal/workspace/C50/Huawei_IoT_Agent_Tiny_SDK_Linux//lwm2m/core/observe.c ****  * OTHERWISE) ARISING IN ANY WAY OUT OF THE USE OF THIS SOFTWARE, EVEN IF
  24:/home/baikal/workspace/C50/Huawei_IoT_Agent_Tiny_SDK_Linux//lwm2m/core/observe.c ****  * ADVISED OF THE POSSIBILITY OF SUCH DAMAGE.
  25:/home/baikal/workspace/C50/Huawei_IoT_Agent_Tiny_SDK_Linux//lwm2m/core/observe.c ****  *---------------------------------------------------------------------------*/
  26:/home/baikal/workspace/C50/Huawei_IoT_Agent_Tiny_SDK_Linux//lwm2m/core/observe.c **** /*----------------------------------------------------------------------------
  27:/home/baikal/workspace/C50/Huawei_IoT_Agent_Tiny_SDK_Linux//lwm2m/core/observe.c ****  * Notice of Export Control Law
  28:/home/baikal/workspace/C50/Huawei_IoT_Agent_Tiny_SDK_Linux//lwm2m/core/observe.c ****  * ===============================================
  29:/home/baikal/workspace/C50/Huawei_IoT_Agent_Tiny_SDK_Linux//lwm2m/core/observe.c ****  * Huawei LiteOS may be subject to applicable export control laws and regulations, which might
  30:/home/baikal/workspace/C50/Huawei_IoT_Agent_Tiny_SDK_Linux//lwm2m/core/observe.c ****  * include those applicable to Huawei LiteOS of U.S. and the country in which you are located.
  31:/home/baikal/workspace/C50/Huawei_IoT_Agent_Tiny_SDK_Linux//lwm2m/core/observe.c ****  * Import, export and usage of Huawei LiteOS in any manner by you shall be in compliance with such
  32:/home/baikal/workspace/C50/Huawei_IoT_Agent_Tiny_SDK_Linux//lwm2m/core/observe.c ****  * applicable export control laws and regulations.
  33:/home/baikal/workspace/C50/Huawei_IoT_Agent_Tiny_SDK_Linux//lwm2m/core/observe.c ****  *---------------------------------------------------------------------------*/
  34:/home/baikal/workspace/C50/Huawei_IoT_Agent_Tiny_SDK_Linux//lwm2m/core/observe.c **** 
  35:/home/baikal/workspace/C50/Huawei_IoT_Agent_Tiny_SDK_Linux//lwm2m/core/observe.c **** /*******************************************************************************
  36:/home/baikal/workspace/C50/Huawei_IoT_Agent_Tiny_SDK_Linux//lwm2m/core/observe.c ****  *
  37:/home/baikal/workspace/C50/Huawei_IoT_Agent_Tiny_SDK_Linux//lwm2m/core/observe.c ****  * Copyright (c) 2013, 2014 Intel Corporation and others.
  38:/home/baikal/workspace/C50/Huawei_IoT_Agent_Tiny_SDK_Linux//lwm2m/core/observe.c ****  * All rights reserved. This program and the accompanying materials
  39:/home/baikal/workspace/C50/Huawei_IoT_Agent_Tiny_SDK_Linux//lwm2m/core/observe.c ****  * are made available under the terms of the Eclipse Public License v1.0
  40:/home/baikal/workspace/C50/Huawei_IoT_Agent_Tiny_SDK_Linux//lwm2m/core/observe.c ****  * and Eclipse Distribution License v1.0 which accompany this distribution.
  41:/home/baikal/workspace/C50/Huawei_IoT_Agent_Tiny_SDK_Linux//lwm2m/core/observe.c ****  *
  42:/home/baikal/workspace/C50/Huawei_IoT_Agent_Tiny_SDK_Linux//lwm2m/core/observe.c ****  * The Eclipse Public License is available at
  43:/home/baikal/workspace/C50/Huawei_IoT_Agent_Tiny_SDK_Linux//lwm2m/core/observe.c ****  *    http://www.eclipse.org/legal/epl-v10.html
  44:/home/baikal/workspace/C50/Huawei_IoT_Agent_Tiny_SDK_Linux//lwm2m/core/observe.c ****  * The Eclipse Distribution License is available at
  45:/home/baikal/workspace/C50/Huawei_IoT_Agent_Tiny_SDK_Linux//lwm2m/core/observe.c ****  *    http://www.eclipse.org/org/documents/edl-v10.php.
  46:/home/baikal/workspace/C50/Huawei_IoT_Agent_Tiny_SDK_Linux//lwm2m/core/observe.c ****  *
  47:/home/baikal/workspace/C50/Huawei_IoT_Agent_Tiny_SDK_Linux//lwm2m/core/observe.c ****  * Contributors:
  48:/home/baikal/workspace/C50/Huawei_IoT_Agent_Tiny_SDK_Linux//lwm2m/core/observe.c ****  *    David Navarro, Intel Corporation - initial API and implementation
  49:/home/baikal/workspace/C50/Huawei_IoT_Agent_Tiny_SDK_Linux//lwm2m/core/observe.c ****  *    Toby Jaffey - Please refer to git log
  50:/home/baikal/workspace/C50/Huawei_IoT_Agent_Tiny_SDK_Linux//lwm2m/core/observe.c ****  *    Bosch Software Innovations GmbH - Please refer to git log
GAS LISTING /tmp/ccGR9aQU.s 			page 2


  51:/home/baikal/workspace/C50/Huawei_IoT_Agent_Tiny_SDK_Linux//lwm2m/core/observe.c ****  *
  52:/home/baikal/workspace/C50/Huawei_IoT_Agent_Tiny_SDK_Linux//lwm2m/core/observe.c ****  *******************************************************************************/
  53:/home/baikal/workspace/C50/Huawei_IoT_Agent_Tiny_SDK_Linux//lwm2m/core/observe.c **** 
  54:/home/baikal/workspace/C50/Huawei_IoT_Agent_Tiny_SDK_Linux//lwm2m/core/observe.c **** /*
  55:/home/baikal/workspace/C50/Huawei_IoT_Agent_Tiny_SDK_Linux//lwm2m/core/observe.c ****  Copyright (c) 2013, 2014 Intel Corporation
  56:/home/baikal/workspace/C50/Huawei_IoT_Agent_Tiny_SDK_Linux//lwm2m/core/observe.c **** 
  57:/home/baikal/workspace/C50/Huawei_IoT_Agent_Tiny_SDK_Linux//lwm2m/core/observe.c ****  Redistribution and use in source and binary forms, with or without modification,
  58:/home/baikal/workspace/C50/Huawei_IoT_Agent_Tiny_SDK_Linux//lwm2m/core/observe.c ****  are permitted provided that the following conditions are met:
  59:/home/baikal/workspace/C50/Huawei_IoT_Agent_Tiny_SDK_Linux//lwm2m/core/observe.c **** 
  60:/home/baikal/workspace/C50/Huawei_IoT_Agent_Tiny_SDK_Linux//lwm2m/core/observe.c ****      * Redistributions of source code must retain the above copyright notice,
  61:/home/baikal/workspace/C50/Huawei_IoT_Agent_Tiny_SDK_Linux//lwm2m/core/observe.c ****        this list of conditions and the following disclaimer.
  62:/home/baikal/workspace/C50/Huawei_IoT_Agent_Tiny_SDK_Linux//lwm2m/core/observe.c ****      * Redistributions in binary form must reproduce the above copyright notice,
  63:/home/baikal/workspace/C50/Huawei_IoT_Agent_Tiny_SDK_Linux//lwm2m/core/observe.c ****        this list of conditions and the following disclaimer in the documentation
  64:/home/baikal/workspace/C50/Huawei_IoT_Agent_Tiny_SDK_Linux//lwm2m/core/observe.c ****        and/or other materials provided with the distribution.
  65:/home/baikal/workspace/C50/Huawei_IoT_Agent_Tiny_SDK_Linux//lwm2m/core/observe.c ****      * Neither the name of Intel Corporation nor the names of its contributors
  66:/home/baikal/workspace/C50/Huawei_IoT_Agent_Tiny_SDK_Linux//lwm2m/core/observe.c ****        may be used to endorse or promote products derived from this software
  67:/home/baikal/workspace/C50/Huawei_IoT_Agent_Tiny_SDK_Linux//lwm2m/core/observe.c ****        without specific prior written permission.
  68:/home/baikal/workspace/C50/Huawei_IoT_Agent_Tiny_SDK_Linux//lwm2m/core/observe.c **** 
  69:/home/baikal/workspace/C50/Huawei_IoT_Agent_Tiny_SDK_Linux//lwm2m/core/observe.c ****  THIS SOFTWARE IS PROVIDED BY THE COPYRIGHT HOLDERS AND CONTRIBUTORS "AS IS" AND
  70:/home/baikal/workspace/C50/Huawei_IoT_Agent_Tiny_SDK_Linux//lwm2m/core/observe.c ****  ANY EXPRESS OR IMPLIED WARRANTIES, INCLUDING, BUT NOT LIMITED TO, THE IMPLIED
  71:/home/baikal/workspace/C50/Huawei_IoT_Agent_Tiny_SDK_Linux//lwm2m/core/observe.c ****  WARRANTIES OF MERCHANTABILITY AND FITNESS FOR A PARTICULAR PURPOSE ARE DISCLAIMED.
  72:/home/baikal/workspace/C50/Huawei_IoT_Agent_Tiny_SDK_Linux//lwm2m/core/observe.c ****  IN NO EVENT SHALL THE COPYRIGHT OWNER OR CONTRIBUTORS BE LIABLE FOR ANY DIRECT,
  73:/home/baikal/workspace/C50/Huawei_IoT_Agent_Tiny_SDK_Linux//lwm2m/core/observe.c ****  INDIRECT, INCIDENTAL, SPECIAL, EXEMPLARY, OR CONSEQUENTIAL DAMAGES (INCLUDING,
  74:/home/baikal/workspace/C50/Huawei_IoT_Agent_Tiny_SDK_Linux//lwm2m/core/observe.c ****  BUT NOT LIMITED TO, PROCUREMENT OF SUBSTITUTE GOODS OR SERVICES; LOSS OF USE,
  75:/home/baikal/workspace/C50/Huawei_IoT_Agent_Tiny_SDK_Linux//lwm2m/core/observe.c ****  DATA, OR PROFITS; OR BUSINESS INTERRUPTION) HOWEVER CAUSED AND ON ANY THEORY OF
  76:/home/baikal/workspace/C50/Huawei_IoT_Agent_Tiny_SDK_Linux//lwm2m/core/observe.c ****  LIABILITY, WHETHER IN CONTRACT, STRICT LIABILITY, OR TORT (INCLUDING NEGLIGENCE OR
  77:/home/baikal/workspace/C50/Huawei_IoT_Agent_Tiny_SDK_Linux//lwm2m/core/observe.c ****  OTHERWISE) ARISING IN ANY WAY OUT OF THE USE OF THIS SOFTWARE, EVEN IF ADVISED OF
  78:/home/baikal/workspace/C50/Huawei_IoT_Agent_Tiny_SDK_Linux//lwm2m/core/observe.c ****  THE POSSIBILITY OF SUCH DAMAGE.
  79:/home/baikal/workspace/C50/Huawei_IoT_Agent_Tiny_SDK_Linux//lwm2m/core/observe.c **** 
  80:/home/baikal/workspace/C50/Huawei_IoT_Agent_Tiny_SDK_Linux//lwm2m/core/observe.c ****  David Navarro <david.navarro@intel.com>
  81:/home/baikal/workspace/C50/Huawei_IoT_Agent_Tiny_SDK_Linux//lwm2m/core/observe.c **** 
  82:/home/baikal/workspace/C50/Huawei_IoT_Agent_Tiny_SDK_Linux//lwm2m/core/observe.c **** */
  83:/home/baikal/workspace/C50/Huawei_IoT_Agent_Tiny_SDK_Linux//lwm2m/core/observe.c **** 
  84:/home/baikal/workspace/C50/Huawei_IoT_Agent_Tiny_SDK_Linux//lwm2m/core/observe.c **** #include "internals.h"
  85:/home/baikal/workspace/C50/Huawei_IoT_Agent_Tiny_SDK_Linux//lwm2m/core/observe.c **** #include "atiny_adapter.h"
  86:/home/baikal/workspace/C50/Huawei_IoT_Agent_Tiny_SDK_Linux//lwm2m/core/observe.c **** #include <stdio.h>
  87:/home/baikal/workspace/C50/Huawei_IoT_Agent_Tiny_SDK_Linux//lwm2m/core/observe.c **** 
  88:/home/baikal/workspace/C50/Huawei_IoT_Agent_Tiny_SDK_Linux//lwm2m/core/observe.c **** 
  89:/home/baikal/workspace/C50/Huawei_IoT_Agent_Tiny_SDK_Linux//lwm2m/core/observe.c **** #ifdef LWM2M_CLIENT_MODE
  90:/home/baikal/workspace/C50/Huawei_IoT_Agent_Tiny_SDK_Linux//lwm2m/core/observe.c **** 
  91:/home/baikal/workspace/C50/Huawei_IoT_Agent_Tiny_SDK_Linux//lwm2m/core/observe.c **** #define RES_M_STATE  3
  92:/home/baikal/workspace/C50/Huawei_IoT_Agent_Tiny_SDK_Linux//lwm2m/core/observe.c **** 
  93:/home/baikal/workspace/C50/Huawei_IoT_Agent_Tiny_SDK_Linux//lwm2m/core/observe.c **** static lwm2m_transaction_callback_t  observe_call_back;
  94:/home/baikal/workspace/C50/Huawei_IoT_Agent_Tiny_SDK_Linux//lwm2m/core/observe.c **** 
  95:/home/baikal/workspace/C50/Huawei_IoT_Agent_Tiny_SDK_Linux//lwm2m/core/observe.c **** void lwm2m_register_observe_ack_call_back(lwm2m_transaction_callback_t callback)
  96:/home/baikal/workspace/C50/Huawei_IoT_Agent_Tiny_SDK_Linux//lwm2m/core/observe.c **** {
  97:/home/baikal/workspace/C50/Huawei_IoT_Agent_Tiny_SDK_Linux//lwm2m/core/observe.c ****     observe_call_back = callback;
  98:/home/baikal/workspace/C50/Huawei_IoT_Agent_Tiny_SDK_Linux//lwm2m/core/observe.c **** }
  99:/home/baikal/workspace/C50/Huawei_IoT_Agent_Tiny_SDK_Linux//lwm2m/core/observe.c **** 
 100:/home/baikal/workspace/C50/Huawei_IoT_Agent_Tiny_SDK_Linux//lwm2m/core/observe.c **** 
 101:/home/baikal/workspace/C50/Huawei_IoT_Agent_Tiny_SDK_Linux//lwm2m/core/observe.c **** static lwm2m_observed_t *prv_findObserved(lwm2m_context_t *contextP,
 102:/home/baikal/workspace/C50/Huawei_IoT_Agent_Tiny_SDK_Linux//lwm2m/core/observe.c ****         lwm2m_uri_t *uriP)
 103:/home/baikal/workspace/C50/Huawei_IoT_Agent_Tiny_SDK_Linux//lwm2m/core/observe.c **** {
   9              		.loc 1 103 0
  10              		.cfi_startproc
  11              	.LVL0:
 104:/home/baikal/workspace/C50/Huawei_IoT_Agent_Tiny_SDK_Linux//lwm2m/core/observe.c ****     lwm2m_observed_t *targetP;
GAS LISTING /tmp/ccGR9aQU.s 			page 3


 105:/home/baikal/workspace/C50/Huawei_IoT_Agent_Tiny_SDK_Linux//lwm2m/core/observe.c **** 
 106:/home/baikal/workspace/C50/Huawei_IoT_Agent_Tiny_SDK_Linux//lwm2m/core/observe.c ****     targetP = contextP->observedList;
  12              		.loc 1 106 0
  13 0000 488B4740 		movq	64(%rdi), %rax
  14              	.LVL1:
 107:/home/baikal/workspace/C50/Huawei_IoT_Agent_Tiny_SDK_Linux//lwm2m/core/observe.c ****     while (targetP != NULL
  15              		.loc 1 107 0
  16 0004 EB03     		jmp	.L2
  17              	.LVL2:
  18              	.L4:
 108:/home/baikal/workspace/C50/Huawei_IoT_Agent_Tiny_SDK_Linux//lwm2m/core/observe.c ****             && (targetP->uri.objectId != uriP->objectId
 109:/home/baikal/workspace/C50/Huawei_IoT_Agent_Tiny_SDK_Linux//lwm2m/core/observe.c ****                 || targetP->uri.flag != uriP->flag
 110:/home/baikal/workspace/C50/Huawei_IoT_Agent_Tiny_SDK_Linux//lwm2m/core/observe.c ****                 || (LWM2M_URI_IS_SET_INSTANCE(uriP) && targetP->uri.instanceId != uriP->instanceId)
 111:/home/baikal/workspace/C50/Huawei_IoT_Agent_Tiny_SDK_Linux//lwm2m/core/observe.c ****                 || (LWM2M_URI_IS_SET_RESOURCE(uriP) && targetP->uri.resourceId != uriP->resourceId)
 112:/home/baikal/workspace/C50/Huawei_IoT_Agent_Tiny_SDK_Linux//lwm2m/core/observe.c ****     {
 113:/home/baikal/workspace/C50/Huawei_IoT_Agent_Tiny_SDK_Linux//lwm2m/core/observe.c ****         targetP = targetP->next;
  19              		.loc 1 113 0
  20 0006 488B00   		movq	(%rax), %rax
  21              	.LVL3:
  22              	.L2:
 107:/home/baikal/workspace/C50/Huawei_IoT_Agent_Tiny_SDK_Linux//lwm2m/core/observe.c ****     while (targetP != NULL
  23              		.loc 1 107 0
  24 0009 4885C0   		testq	%rax, %rax
  25 000c 7430     		je	.L3
 108:/home/baikal/workspace/C50/Huawei_IoT_Agent_Tiny_SDK_Linux//lwm2m/core/observe.c ****             && (targetP->uri.objectId != uriP->objectId
  26              		.loc 1 108 0
  27 000e 0FB74E02 		movzwl	2(%rsi), %ecx
  28 0012 6639480A 		cmpw	%cx, 10(%rax)
  29 0016 75EE     		jne	.L4
 109:/home/baikal/workspace/C50/Huawei_IoT_Agent_Tiny_SDK_Linux//lwm2m/core/observe.c ****                 || (LWM2M_URI_IS_SET_INSTANCE(uriP) && targetP->uri.instanceId != uriP->instanceId)
  30              		.loc 1 109 0
  31 0018 0FB616   		movzbl	(%rsi), %edx
  32 001b 385008   		cmpb	%dl, 8(%rax)
  33 001e 75E6     		jne	.L4
 110:/home/baikal/workspace/C50/Huawei_IoT_Agent_Tiny_SDK_Linux//lwm2m/core/observe.c ****                 || (LWM2M_URI_IS_SET_RESOURCE(uriP) && targetP->uri.resourceId != uriP->resourceId)
  34              		.loc 1 110 0
  35 0020 F6C202   		testb	$2, %dl
  36 0023 740A     		je	.L5
 110:/home/baikal/workspace/C50/Huawei_IoT_Agent_Tiny_SDK_Linux//lwm2m/core/observe.c ****                 || (LWM2M_URI_IS_SET_RESOURCE(uriP) && targetP->uri.resourceId != uriP->resourceId)
  37              		.loc 1 110 0 is_stmt 0 discriminator 1
  38 0025 0FB77E04 		movzwl	4(%rsi), %edi
  39 0029 6639780C 		cmpw	%di, 12(%rax)
  40 002d 75D7     		jne	.L4
  41              	.L5:
 111:/home/baikal/workspace/C50/Huawei_IoT_Agent_Tiny_SDK_Linux//lwm2m/core/observe.c ****     {
  42              		.loc 1 111 0 is_stmt 1
  43 002f F6C201   		testb	$1, %dl
  44 0032 740A     		je	.L3
 111:/home/baikal/workspace/C50/Huawei_IoT_Agent_Tiny_SDK_Linux//lwm2m/core/observe.c ****     {
  45              		.loc 1 111 0 is_stmt 0 discriminator 1
  46 0034 0FB77E06 		movzwl	6(%rsi), %edi
  47 0038 6639780E 		cmpw	%di, 14(%rax)
  48 003c 75C8     		jne	.L4
  49              	.L3:
 114:/home/baikal/workspace/C50/Huawei_IoT_Agent_Tiny_SDK_Linux//lwm2m/core/observe.c ****     }
 115:/home/baikal/workspace/C50/Huawei_IoT_Agent_Tiny_SDK_Linux//lwm2m/core/observe.c **** 
 116:/home/baikal/workspace/C50/Huawei_IoT_Agent_Tiny_SDK_Linux//lwm2m/core/observe.c ****     return targetP;
GAS LISTING /tmp/ccGR9aQU.s 			page 4


 117:/home/baikal/workspace/C50/Huawei_IoT_Agent_Tiny_SDK_Linux//lwm2m/core/observe.c **** }
  50              		.loc 1 117 0 is_stmt 1
  51 003e F3C3     		rep ret
  52              		.cfi_endproc
  53              	.LFE64:
  55              		.section	.text.prv_unlinkObserved,"ax",@progbits
  57              	prv_unlinkObserved:
  58              	.LFB65:
 118:/home/baikal/workspace/C50/Huawei_IoT_Agent_Tiny_SDK_Linux//lwm2m/core/observe.c **** 
 119:/home/baikal/workspace/C50/Huawei_IoT_Agent_Tiny_SDK_Linux//lwm2m/core/observe.c **** static void prv_unlinkObserved(lwm2m_context_t *contextP,
 120:/home/baikal/workspace/C50/Huawei_IoT_Agent_Tiny_SDK_Linux//lwm2m/core/observe.c ****                                lwm2m_observed_t *observedP)
 121:/home/baikal/workspace/C50/Huawei_IoT_Agent_Tiny_SDK_Linux//lwm2m/core/observe.c **** {
  59              		.loc 1 121 0
  60              		.cfi_startproc
  61              	.LVL4:
 122:/home/baikal/workspace/C50/Huawei_IoT_Agent_Tiny_SDK_Linux//lwm2m/core/observe.c ****     if (contextP->observedList == observedP)
  62              		.loc 1 122 0
  63 0000 488B5740 		movq	64(%rdi), %rdx
  64 0004 4839F2   		cmpq	%rsi, %rdx
  65 0007 750B     		jne	.L7
 123:/home/baikal/workspace/C50/Huawei_IoT_Agent_Tiny_SDK_Linux//lwm2m/core/observe.c ****     {
 124:/home/baikal/workspace/C50/Huawei_IoT_Agent_Tiny_SDK_Linux//lwm2m/core/observe.c ****         contextP->observedList = contextP->observedList->next;
  66              		.loc 1 124 0
  67 0009 488B02   		movq	(%rdx), %rax
  68 000c 48894740 		movq	%rax, 64(%rdi)
  69 0010 C3       		ret
  70              	.LVL5:
  71              	.L10:
  72              	.LBB28:
 125:/home/baikal/workspace/C50/Huawei_IoT_Agent_Tiny_SDK_Linux//lwm2m/core/observe.c ****     }
 126:/home/baikal/workspace/C50/Huawei_IoT_Agent_Tiny_SDK_Linux//lwm2m/core/observe.c ****     else
 127:/home/baikal/workspace/C50/Huawei_IoT_Agent_Tiny_SDK_Linux//lwm2m/core/observe.c ****     {
 128:/home/baikal/workspace/C50/Huawei_IoT_Agent_Tiny_SDK_Linux//lwm2m/core/observe.c ****         lwm2m_observed_t *parentP;
 129:/home/baikal/workspace/C50/Huawei_IoT_Agent_Tiny_SDK_Linux//lwm2m/core/observe.c **** 
 130:/home/baikal/workspace/C50/Huawei_IoT_Agent_Tiny_SDK_Linux//lwm2m/core/observe.c ****         parentP = contextP->observedList;
 131:/home/baikal/workspace/C50/Huawei_IoT_Agent_Tiny_SDK_Linux//lwm2m/core/observe.c ****         while (parentP->next != NULL
 132:/home/baikal/workspace/C50/Huawei_IoT_Agent_Tiny_SDK_Linux//lwm2m/core/observe.c ****                 && parentP->next != observedP)
 133:/home/baikal/workspace/C50/Huawei_IoT_Agent_Tiny_SDK_Linux//lwm2m/core/observe.c ****         {
 134:/home/baikal/workspace/C50/Huawei_IoT_Agent_Tiny_SDK_Linux//lwm2m/core/observe.c ****             parentP = parentP->next;
  73              		.loc 1 134 0
  74 0011 4889C2   		movq	%rax, %rdx
  75              	.LVL6:
  76              	.L7:
 131:/home/baikal/workspace/C50/Huawei_IoT_Agent_Tiny_SDK_Linux//lwm2m/core/observe.c ****                 && parentP->next != observedP)
  77              		.loc 1 131 0
  78 0014 488B02   		movq	(%rdx), %rax
  79 0017 4885C0   		testq	%rax, %rax
  80 001a 7405     		je	.L9
 132:/home/baikal/workspace/C50/Huawei_IoT_Agent_Tiny_SDK_Linux//lwm2m/core/observe.c ****         {
  81              		.loc 1 132 0
  82 001c 4839C6   		cmpq	%rax, %rsi
  83 001f 75F0     		jne	.L10
  84              	.L9:
 135:/home/baikal/workspace/C50/Huawei_IoT_Agent_Tiny_SDK_Linux//lwm2m/core/observe.c ****         }
 136:/home/baikal/workspace/C50/Huawei_IoT_Agent_Tiny_SDK_Linux//lwm2m/core/observe.c ****         if (parentP->next != NULL)
  85              		.loc 1 136 0
  86 0021 4885C0   		testq	%rax, %rax
GAS LISTING /tmp/ccGR9aQU.s 			page 5


  87 0024 7406     		je	.L6
 137:/home/baikal/workspace/C50/Huawei_IoT_Agent_Tiny_SDK_Linux//lwm2m/core/observe.c ****         {
 138:/home/baikal/workspace/C50/Huawei_IoT_Agent_Tiny_SDK_Linux//lwm2m/core/observe.c ****             parentP->next = parentP->next->next;
  88              		.loc 1 138 0
  89 0026 488B00   		movq	(%rax), %rax
  90 0029 488902   		movq	%rax, (%rdx)
  91              	.L6:
  92 002c F3C3     		rep ret
  93              	.LBE28:
  94              		.cfi_endproc
  95              	.LFE65:
  97              		.section	.text.prv_findWatcher,"ax",@progbits
  99              	prv_findWatcher:
 100              	.LFB66:
 139:/home/baikal/workspace/C50/Huawei_IoT_Agent_Tiny_SDK_Linux//lwm2m/core/observe.c ****         }
 140:/home/baikal/workspace/C50/Huawei_IoT_Agent_Tiny_SDK_Linux//lwm2m/core/observe.c ****     }
 141:/home/baikal/workspace/C50/Huawei_IoT_Agent_Tiny_SDK_Linux//lwm2m/core/observe.c **** }
 142:/home/baikal/workspace/C50/Huawei_IoT_Agent_Tiny_SDK_Linux//lwm2m/core/observe.c **** 
 143:/home/baikal/workspace/C50/Huawei_IoT_Agent_Tiny_SDK_Linux//lwm2m/core/observe.c **** static lwm2m_watcher_t *prv_findWatcher(lwm2m_observed_t *observedP,
 144:/home/baikal/workspace/C50/Huawei_IoT_Agent_Tiny_SDK_Linux//lwm2m/core/observe.c ****                                         lwm2m_server_t *serverP)
 145:/home/baikal/workspace/C50/Huawei_IoT_Agent_Tiny_SDK_Linux//lwm2m/core/observe.c **** {
 101              		.loc 1 145 0
 102              		.cfi_startproc
 103              	.LVL7:
 146:/home/baikal/workspace/C50/Huawei_IoT_Agent_Tiny_SDK_Linux//lwm2m/core/observe.c ****     lwm2m_watcher_t *targetP;
 147:/home/baikal/workspace/C50/Huawei_IoT_Agent_Tiny_SDK_Linux//lwm2m/core/observe.c **** 
 148:/home/baikal/workspace/C50/Huawei_IoT_Agent_Tiny_SDK_Linux//lwm2m/core/observe.c ****     targetP = observedP->watcherList;
 104              		.loc 1 148 0
 105 0000 488B4710 		movq	16(%rdi), %rax
 106              	.LVL8:
 149:/home/baikal/workspace/C50/Huawei_IoT_Agent_Tiny_SDK_Linux//lwm2m/core/observe.c ****     while (targetP != NULL
 107              		.loc 1 149 0
 108 0004 EB03     		jmp	.L12
 109              	.L14:
 150:/home/baikal/workspace/C50/Huawei_IoT_Agent_Tiny_SDK_Linux//lwm2m/core/observe.c ****             && targetP->server != serverP)
 151:/home/baikal/workspace/C50/Huawei_IoT_Agent_Tiny_SDK_Linux//lwm2m/core/observe.c ****     {
 152:/home/baikal/workspace/C50/Huawei_IoT_Agent_Tiny_SDK_Linux//lwm2m/core/observe.c ****         targetP = targetP->next;
 110              		.loc 1 152 0
 111 0006 488B00   		movq	(%rax), %rax
 112              	.LVL9:
 113              	.L12:
 149:/home/baikal/workspace/C50/Huawei_IoT_Agent_Tiny_SDK_Linux//lwm2m/core/observe.c ****     while (targetP != NULL
 114              		.loc 1 149 0
 115 0009 4885C0   		testq	%rax, %rax
 116 000c 7406     		je	.L13
 150:/home/baikal/workspace/C50/Huawei_IoT_Agent_Tiny_SDK_Linux//lwm2m/core/observe.c ****             && targetP->server != serverP)
 117              		.loc 1 150 0
 118 000e 48397010 		cmpq	%rsi, 16(%rax)
 119 0012 75F2     		jne	.L14
 120              	.L13:
 153:/home/baikal/workspace/C50/Huawei_IoT_Agent_Tiny_SDK_Linux//lwm2m/core/observe.c ****     }
 154:/home/baikal/workspace/C50/Huawei_IoT_Agent_Tiny_SDK_Linux//lwm2m/core/observe.c **** 
 155:/home/baikal/workspace/C50/Huawei_IoT_Agent_Tiny_SDK_Linux//lwm2m/core/observe.c ****     return targetP;
 156:/home/baikal/workspace/C50/Huawei_IoT_Agent_Tiny_SDK_Linux//lwm2m/core/observe.c **** }
 121              		.loc 1 156 0
 122 0014 F3C3     		rep ret
 123              		.cfi_endproc
GAS LISTING /tmp/ccGR9aQU.s 			page 6


 124              	.LFE66:
 126              		.section	.text.prv_getWatcher,"ax",@progbits
 128              	prv_getWatcher:
 129              	.LFB67:
 157:/home/baikal/workspace/C50/Huawei_IoT_Agent_Tiny_SDK_Linux//lwm2m/core/observe.c **** 
 158:/home/baikal/workspace/C50/Huawei_IoT_Agent_Tiny_SDK_Linux//lwm2m/core/observe.c **** static lwm2m_watcher_t *prv_getWatcher(lwm2m_context_t *contextP,
 159:/home/baikal/workspace/C50/Huawei_IoT_Agent_Tiny_SDK_Linux//lwm2m/core/observe.c ****                                        lwm2m_uri_t *uriP,
 160:/home/baikal/workspace/C50/Huawei_IoT_Agent_Tiny_SDK_Linux//lwm2m/core/observe.c ****                                        lwm2m_server_t *serverP)
 161:/home/baikal/workspace/C50/Huawei_IoT_Agent_Tiny_SDK_Linux//lwm2m/core/observe.c **** {
 130              		.loc 1 161 0
 131              		.cfi_startproc
 132              	.LVL10:
 133 0000 4156     		pushq	%r14
 134              	.LCFI0:
 135              		.cfi_def_cfa_offset 16
 136              		.cfi_offset 14, -16
 137 0002 4155     		pushq	%r13
 138              	.LCFI1:
 139              		.cfi_def_cfa_offset 24
 140              		.cfi_offset 13, -24
 141 0004 4154     		pushq	%r12
 142              	.LCFI2:
 143              		.cfi_def_cfa_offset 32
 144              		.cfi_offset 12, -32
 145 0006 55       		pushq	%rbp
 146              	.LCFI3:
 147              		.cfi_def_cfa_offset 40
 148              		.cfi_offset 6, -40
 149 0007 53       		pushq	%rbx
 150              	.LCFI4:
 151              		.cfi_def_cfa_offset 48
 152              		.cfi_offset 3, -48
 153 0008 4989FC   		movq	%rdi, %r12
 154 000b 4889F3   		movq	%rsi, %rbx
 155 000e 4989D5   		movq	%rdx, %r13
 156              	.LVL11:
 162:/home/baikal/workspace/C50/Huawei_IoT_Agent_Tiny_SDK_Linux//lwm2m/core/observe.c ****     lwm2m_observed_t *observedP;
 163:/home/baikal/workspace/C50/Huawei_IoT_Agent_Tiny_SDK_Linux//lwm2m/core/observe.c ****     bool allocatedObserver;
 164:/home/baikal/workspace/C50/Huawei_IoT_Agent_Tiny_SDK_Linux//lwm2m/core/observe.c ****     lwm2m_watcher_t *watcherP;
 165:/home/baikal/workspace/C50/Huawei_IoT_Agent_Tiny_SDK_Linux//lwm2m/core/observe.c **** 
 166:/home/baikal/workspace/C50/Huawei_IoT_Agent_Tiny_SDK_Linux//lwm2m/core/observe.c ****     allocatedObserver = false;
 167:/home/baikal/workspace/C50/Huawei_IoT_Agent_Tiny_SDK_Linux//lwm2m/core/observe.c **** 
 168:/home/baikal/workspace/C50/Huawei_IoT_Agent_Tiny_SDK_Linux//lwm2m/core/observe.c ****     observedP = prv_findObserved(contextP, uriP);
 157              		.loc 1 168 0
 158 0011 E8000000 		call	prv_findObserved
 158      00
 159              	.LVL12:
 169:/home/baikal/workspace/C50/Huawei_IoT_Agent_Tiny_SDK_Linux//lwm2m/core/observe.c ****     if (observedP == NULL)
 160              		.loc 1 169 0
 161 0016 4885C0   		testq	%rax, %rax
 162 0019 755E     		jne	.L19
 170:/home/baikal/workspace/C50/Huawei_IoT_Agent_Tiny_SDK_Linux//lwm2m/core/observe.c ****     {
 171:/home/baikal/workspace/C50/Huawei_IoT_Agent_Tiny_SDK_Linux//lwm2m/core/observe.c ****         observedP = (lwm2m_observed_t *)lwm2m_malloc(sizeof(lwm2m_observed_t));
 163              		.loc 1 171 0
 164 001b BF180000 		movl	$24, %edi
 164      00
 165 0020 E8000000 		call	lwm2m_malloc
GAS LISTING /tmp/ccGR9aQU.s 			page 7


 165      00
 166              	.LVL13:
 167 0025 4889C5   		movq	%rax, %rbp
 168              	.LVL14:
 172:/home/baikal/workspace/C50/Huawei_IoT_Agent_Tiny_SDK_Linux//lwm2m/core/observe.c ****         if (observedP == NULL) return NULL;
 169              		.loc 1 172 0
 170 0028 4885C0   		testq	%rax, %rax
 171 002b 0F84E400 		je	.L20
 171      0000
 172              	.LVL15:
 173              	.LBB29:
 174              	.LBB30:
 175              		.file 2 "/usr/include/x86_64-linux-gnu/bits/string3.h"
   1:/usr/include/x86_64-linux-gnu/bits/string3.h **** /* Copyright (C) 2004-2016 Free Software Foundation, Inc.
   2:/usr/include/x86_64-linux-gnu/bits/string3.h ****    This file is part of the GNU C Library.
   3:/usr/include/x86_64-linux-gnu/bits/string3.h **** 
   4:/usr/include/x86_64-linux-gnu/bits/string3.h ****    The GNU C Library is free software; you can redistribute it and/or
   5:/usr/include/x86_64-linux-gnu/bits/string3.h ****    modify it under the terms of the GNU Lesser General Public
   6:/usr/include/x86_64-linux-gnu/bits/string3.h ****    License as published by the Free Software Foundation; either
   7:/usr/include/x86_64-linux-gnu/bits/string3.h ****    version 2.1 of the License, or (at your option) any later version.
   8:/usr/include/x86_64-linux-gnu/bits/string3.h **** 
   9:/usr/include/x86_64-linux-gnu/bits/string3.h ****    The GNU C Library is distributed in the hope that it will be useful,
  10:/usr/include/x86_64-linux-gnu/bits/string3.h ****    but WITHOUT ANY WARRANTY; without even the implied warranty of
  11:/usr/include/x86_64-linux-gnu/bits/string3.h ****    MERCHANTABILITY or FITNESS FOR A PARTICULAR PURPOSE.  See the GNU
  12:/usr/include/x86_64-linux-gnu/bits/string3.h ****    Lesser General Public License for more details.
  13:/usr/include/x86_64-linux-gnu/bits/string3.h **** 
  14:/usr/include/x86_64-linux-gnu/bits/string3.h ****    You should have received a copy of the GNU Lesser General Public
  15:/usr/include/x86_64-linux-gnu/bits/string3.h ****    License along with the GNU C Library; if not, see
  16:/usr/include/x86_64-linux-gnu/bits/string3.h ****    <http://www.gnu.org/licenses/>.  */
  17:/usr/include/x86_64-linux-gnu/bits/string3.h **** 
  18:/usr/include/x86_64-linux-gnu/bits/string3.h **** #ifndef _STRING_H
  19:/usr/include/x86_64-linux-gnu/bits/string3.h **** # error "Never use <bits/string3.h> directly; include <string.h> instead."
  20:/usr/include/x86_64-linux-gnu/bits/string3.h **** #endif
  21:/usr/include/x86_64-linux-gnu/bits/string3.h **** 
  22:/usr/include/x86_64-linux-gnu/bits/string3.h **** #if !__GNUC_PREREQ (5,0)
  23:/usr/include/x86_64-linux-gnu/bits/string3.h **** __warndecl (__warn_memset_zero_len,
  24:/usr/include/x86_64-linux-gnu/bits/string3.h **** 	    "memset used with constant zero length parameter; this could be due to transposed parameters")
  25:/usr/include/x86_64-linux-gnu/bits/string3.h **** #endif
  26:/usr/include/x86_64-linux-gnu/bits/string3.h **** 
  27:/usr/include/x86_64-linux-gnu/bits/string3.h **** #ifndef __cplusplus
  28:/usr/include/x86_64-linux-gnu/bits/string3.h **** /* XXX This is temporarily.  We should not redefine any of the symbols
  29:/usr/include/x86_64-linux-gnu/bits/string3.h ****    and instead integrate the error checking into the original
  30:/usr/include/x86_64-linux-gnu/bits/string3.h ****    definitions.  */
  31:/usr/include/x86_64-linux-gnu/bits/string3.h **** # undef memcpy
  32:/usr/include/x86_64-linux-gnu/bits/string3.h **** # undef memmove
  33:/usr/include/x86_64-linux-gnu/bits/string3.h **** # undef memset
  34:/usr/include/x86_64-linux-gnu/bits/string3.h **** # undef strcat
  35:/usr/include/x86_64-linux-gnu/bits/string3.h **** # undef strcpy
  36:/usr/include/x86_64-linux-gnu/bits/string3.h **** # undef strncat
  37:/usr/include/x86_64-linux-gnu/bits/string3.h **** # undef strncpy
  38:/usr/include/x86_64-linux-gnu/bits/string3.h **** # ifdef __USE_GNU
  39:/usr/include/x86_64-linux-gnu/bits/string3.h **** #  undef mempcpy
  40:/usr/include/x86_64-linux-gnu/bits/string3.h **** #  undef stpcpy
  41:/usr/include/x86_64-linux-gnu/bits/string3.h **** # endif
  42:/usr/include/x86_64-linux-gnu/bits/string3.h **** # ifdef __USE_MISC
  43:/usr/include/x86_64-linux-gnu/bits/string3.h **** #  undef bcopy
  44:/usr/include/x86_64-linux-gnu/bits/string3.h **** #  undef bzero
GAS LISTING /tmp/ccGR9aQU.s 			page 8


  45:/usr/include/x86_64-linux-gnu/bits/string3.h **** # endif
  46:/usr/include/x86_64-linux-gnu/bits/string3.h **** #endif
  47:/usr/include/x86_64-linux-gnu/bits/string3.h **** 
  48:/usr/include/x86_64-linux-gnu/bits/string3.h **** 
  49:/usr/include/x86_64-linux-gnu/bits/string3.h **** __fortify_function void *
  50:/usr/include/x86_64-linux-gnu/bits/string3.h **** __NTH (memcpy (void *__restrict __dest, const void *__restrict __src,
  51:/usr/include/x86_64-linux-gnu/bits/string3.h **** 	       size_t __len))
  52:/usr/include/x86_64-linux-gnu/bits/string3.h **** {
  53:/usr/include/x86_64-linux-gnu/bits/string3.h ****   return __builtin___memcpy_chk (__dest, __src, __len, __bos0 (__dest));
  54:/usr/include/x86_64-linux-gnu/bits/string3.h **** }
  55:/usr/include/x86_64-linux-gnu/bits/string3.h **** 
  56:/usr/include/x86_64-linux-gnu/bits/string3.h **** __fortify_function void *
  57:/usr/include/x86_64-linux-gnu/bits/string3.h **** __NTH (memmove (void *__dest, const void *__src, size_t __len))
  58:/usr/include/x86_64-linux-gnu/bits/string3.h **** {
  59:/usr/include/x86_64-linux-gnu/bits/string3.h ****   return __builtin___memmove_chk (__dest, __src, __len, __bos0 (__dest));
  60:/usr/include/x86_64-linux-gnu/bits/string3.h **** }
  61:/usr/include/x86_64-linux-gnu/bits/string3.h **** 
  62:/usr/include/x86_64-linux-gnu/bits/string3.h **** #ifdef __USE_GNU
  63:/usr/include/x86_64-linux-gnu/bits/string3.h **** __fortify_function void *
  64:/usr/include/x86_64-linux-gnu/bits/string3.h **** __NTH (mempcpy (void *__restrict __dest, const void *__restrict __src,
  65:/usr/include/x86_64-linux-gnu/bits/string3.h **** 		size_t __len))
  66:/usr/include/x86_64-linux-gnu/bits/string3.h **** {
  67:/usr/include/x86_64-linux-gnu/bits/string3.h ****   return __builtin___mempcpy_chk (__dest, __src, __len, __bos0 (__dest));
  68:/usr/include/x86_64-linux-gnu/bits/string3.h **** }
  69:/usr/include/x86_64-linux-gnu/bits/string3.h **** #endif
  70:/usr/include/x86_64-linux-gnu/bits/string3.h **** 
  71:/usr/include/x86_64-linux-gnu/bits/string3.h **** 
  72:/usr/include/x86_64-linux-gnu/bits/string3.h **** /* The first two tests here help to catch a somewhat common problem
  73:/usr/include/x86_64-linux-gnu/bits/string3.h ****    where the second and third parameter are transposed.  This is
  74:/usr/include/x86_64-linux-gnu/bits/string3.h ****    especially problematic if the intended fill value is zero.  In this
  75:/usr/include/x86_64-linux-gnu/bits/string3.h ****    case no work is done at all.  We detect these problems by referring
  76:/usr/include/x86_64-linux-gnu/bits/string3.h ****    non-existing functions.  */
  77:/usr/include/x86_64-linux-gnu/bits/string3.h **** __fortify_function void *
  78:/usr/include/x86_64-linux-gnu/bits/string3.h **** __NTH (memset (void *__dest, int __ch, size_t __len))
  79:/usr/include/x86_64-linux-gnu/bits/string3.h **** {
  80:/usr/include/x86_64-linux-gnu/bits/string3.h ****   /* GCC-5.0 and newer implements these checks in the compiler, so we don't
  81:/usr/include/x86_64-linux-gnu/bits/string3.h ****      need them here.  */
  82:/usr/include/x86_64-linux-gnu/bits/string3.h **** #if !__GNUC_PREREQ (5,0)
  83:/usr/include/x86_64-linux-gnu/bits/string3.h ****   if (__builtin_constant_p (__len) && __len == 0
  84:/usr/include/x86_64-linux-gnu/bits/string3.h ****       && (!__builtin_constant_p (__ch) || __ch != 0))
  85:/usr/include/x86_64-linux-gnu/bits/string3.h ****     {
  86:/usr/include/x86_64-linux-gnu/bits/string3.h ****       __warn_memset_zero_len ();
  87:/usr/include/x86_64-linux-gnu/bits/string3.h ****       return __dest;
  88:/usr/include/x86_64-linux-gnu/bits/string3.h ****     }
  89:/usr/include/x86_64-linux-gnu/bits/string3.h **** #endif
  90:/usr/include/x86_64-linux-gnu/bits/string3.h ****   return __builtin___memset_chk (__dest, __ch, __len, __bos0 (__dest));
 176              		.loc 2 90 0
 177 0031 48C70000 		movq	$0, (%rax)
 177      000000
 178 0038 48C74008 		movq	$0, 8(%rax)
 178      00000000 
 179 0040 48C74010 		movq	$0, 16(%rax)
 179      00000000 
 180              	.LVL16:
 181 0048 488B03   		movq	(%rbx), %rax
 182              	.LVL17:
 183              	.LBE30:
GAS LISTING /tmp/ccGR9aQU.s 			page 9


 184              	.LBE29:
 185              	.LBB31:
 186              	.LBB32:
  53:/usr/include/x86_64-linux-gnu/bits/string3.h **** }
 187              		.loc 2 53 0
 188 004b 48894508 		movq	%rax, 8(%rbp)
 189              	.LVL18:
 190              	.LBE32:
 191              	.LBE31:
 173:/home/baikal/workspace/C50/Huawei_IoT_Agent_Tiny_SDK_Linux//lwm2m/core/observe.c ****         allocatedObserver = true;
 174:/home/baikal/workspace/C50/Huawei_IoT_Agent_Tiny_SDK_Linux//lwm2m/core/observe.c ****         memset(observedP, 0, sizeof(lwm2m_observed_t));
 175:/home/baikal/workspace/C50/Huawei_IoT_Agent_Tiny_SDK_Linux//lwm2m/core/observe.c ****         memcpy(&(observedP->uri), uriP, sizeof(lwm2m_uri_t));
 176:/home/baikal/workspace/C50/Huawei_IoT_Agent_Tiny_SDK_Linux//lwm2m/core/observe.c ****         atiny_mutex_lock(contextP->observe_mutex);
 192              		.loc 1 176 0
 193 004f 498B7C24 		movq	72(%r12), %rdi
 193      48
 194 0054 E8000000 		call	atiny_mutex_lock
 194      00
 195              	.LVL19:
 177:/home/baikal/workspace/C50/Huawei_IoT_Agent_Tiny_SDK_Linux//lwm2m/core/observe.c ****         observedP->next = contextP->observedList;
 196              		.loc 1 177 0
 197 0059 498B4424 		movq	64(%r12), %rax
 197      40
 198 005e 48894500 		movq	%rax, 0(%rbp)
 178:/home/baikal/workspace/C50/Huawei_IoT_Agent_Tiny_SDK_Linux//lwm2m/core/observe.c ****         contextP->observedList = observedP;
 199              		.loc 1 178 0
 200 0062 49896C24 		movq	%rbp, 64(%r12)
 200      40
 179:/home/baikal/workspace/C50/Huawei_IoT_Agent_Tiny_SDK_Linux//lwm2m/core/observe.c ****         atiny_mutex_unlock(contextP->observe_mutex);
 201              		.loc 1 179 0
 202 0067 498B7C24 		movq	72(%r12), %rdi
 202      48
 203 006c E8000000 		call	atiny_mutex_unlock
 203      00
 204              	.LVL20:
 173:/home/baikal/workspace/C50/Huawei_IoT_Agent_Tiny_SDK_Linux//lwm2m/core/observe.c ****         memset(observedP, 0, sizeof(lwm2m_observed_t));
 205              		.loc 1 173 0
 206 0071 41BE0100 		movl	$1, %r14d
 206      0000
 207 0077 EB09     		jmp	.L16
 208              	.LVL21:
 209              	.L19:
 210 0079 4889C5   		movq	%rax, %rbp
 166:/home/baikal/workspace/C50/Huawei_IoT_Agent_Tiny_SDK_Linux//lwm2m/core/observe.c **** 
 211              		.loc 1 166 0
 212 007c 41BE0000 		movl	$0, %r14d
 212      0000
 213              	.LVL22:
 214              	.L16:
 180:/home/baikal/workspace/C50/Huawei_IoT_Agent_Tiny_SDK_Linux//lwm2m/core/observe.c ****     }
 181:/home/baikal/workspace/C50/Huawei_IoT_Agent_Tiny_SDK_Linux//lwm2m/core/observe.c **** 
 182:/home/baikal/workspace/C50/Huawei_IoT_Agent_Tiny_SDK_Linux//lwm2m/core/observe.c ****     watcherP = prv_findWatcher(observedP, serverP);
 215              		.loc 1 182 0
 216 0082 4C89EE   		movq	%r13, %rsi
 217 0085 4889EF   		movq	%rbp, %rdi
 218 0088 E8000000 		call	prv_findWatcher
 218      00
GAS LISTING /tmp/ccGR9aQU.s 			page 10


 219              	.LVL23:
 183:/home/baikal/workspace/C50/Huawei_IoT_Agent_Tiny_SDK_Linux//lwm2m/core/observe.c ****     if (watcherP == NULL)
 220              		.loc 1 183 0
 221 008d 4885C0   		testq	%rax, %rax
 222 0090 0F858B00 		jne	.L17
 222      0000
 184:/home/baikal/workspace/C50/Huawei_IoT_Agent_Tiny_SDK_Linux//lwm2m/core/observe.c ****     {
 185:/home/baikal/workspace/C50/Huawei_IoT_Agent_Tiny_SDK_Linux//lwm2m/core/observe.c ****         watcherP = (lwm2m_watcher_t *)lwm2m_malloc(sizeof(lwm2m_watcher_t));
 223              		.loc 1 185 0
 224 0096 BF500000 		movl	$80, %edi
 224      00
 225 009b E8000000 		call	lwm2m_malloc
 225      00
 226              	.LVL24:
 227 00a0 4889C3   		movq	%rax, %rbx
 228              	.LVL25:
 186:/home/baikal/workspace/C50/Huawei_IoT_Agent_Tiny_SDK_Linux//lwm2m/core/observe.c ****         if (watcherP == NULL)
 229              		.loc 1 186 0
 230 00a3 4885C0   		testq	%rax, %rax
 231 00a6 7514     		jne	.L18
 187:/home/baikal/workspace/C50/Huawei_IoT_Agent_Tiny_SDK_Linux//lwm2m/core/observe.c ****         {
 188:/home/baikal/workspace/C50/Huawei_IoT_Agent_Tiny_SDK_Linux//lwm2m/core/observe.c ****             if (allocatedObserver == true)
 232              		.loc 1 188 0
 233 00a8 4584F6   		testb	%r14b, %r14b
 234 00ab 746F     		je	.L22
 189:/home/baikal/workspace/C50/Huawei_IoT_Agent_Tiny_SDK_Linux//lwm2m/core/observe.c ****             {
 190:/home/baikal/workspace/C50/Huawei_IoT_Agent_Tiny_SDK_Linux//lwm2m/core/observe.c ****                 lwm2m_free(observedP);
 235              		.loc 1 190 0
 236 00ad 4889EF   		movq	%rbp, %rdi
 237 00b0 E8000000 		call	lwm2m_free
 237      00
 238              	.LVL26:
 191:/home/baikal/workspace/C50/Huawei_IoT_Agent_Tiny_SDK_Linux//lwm2m/core/observe.c ****             }
 192:/home/baikal/workspace/C50/Huawei_IoT_Agent_Tiny_SDK_Linux//lwm2m/core/observe.c ****             return NULL;
 239              		.loc 1 192 0
 240 00b5 B8000000 		movl	$0, %eax
 240      00
 241 00ba EB65     		jmp	.L17
 242              	.LVL27:
 243              	.L18:
 244              	.LBB33:
 245              	.LBB34:
 246              		.loc 2 90 0
 247 00bc 48C70000 		movq	$0, (%rax)
 247      000000
 248 00c3 48C74048 		movq	$0, 72(%rax)
 248      00000000 
 249 00cb 488D7808 		leaq	8(%rax), %rdi
 250 00cf 4883E7F8 		andq	$-8, %rdi
 251 00d3 4889C1   		movq	%rax, %rcx
 252 00d6 4829F9   		subq	%rdi, %rcx
 253 00d9 83C150   		addl	$80, %ecx
 254 00dc C1E903   		shrl	$3, %ecx
 255 00df 89C9     		movl	%ecx, %ecx
 256 00e1 B8000000 		movl	$0, %eax
 256      00
 257              	.LVL28:
GAS LISTING /tmp/ccGR9aQU.s 			page 11


 258 00e6 F348AB   		rep stosq
 259              	.LVL29:
 260              	.LBE34:
 261              	.LBE33:
 193:/home/baikal/workspace/C50/Huawei_IoT_Agent_Tiny_SDK_Linux//lwm2m/core/observe.c ****         }
 194:/home/baikal/workspace/C50/Huawei_IoT_Agent_Tiny_SDK_Linux//lwm2m/core/observe.c ****         memset(watcherP, 0, sizeof(lwm2m_watcher_t));
 195:/home/baikal/workspace/C50/Huawei_IoT_Agent_Tiny_SDK_Linux//lwm2m/core/observe.c ****         watcherP->active = false;
 262              		.loc 1 195 0
 263 00e9 C6430800 		movb	$0, 8(%rbx)
 196:/home/baikal/workspace/C50/Huawei_IoT_Agent_Tiny_SDK_Linux//lwm2m/core/observe.c ****         watcherP->server = serverP;
 264              		.loc 1 196 0
 265 00ed 4C896B10 		movq	%r13, 16(%rbx)
 197:/home/baikal/workspace/C50/Huawei_IoT_Agent_Tiny_SDK_Linux//lwm2m/core/observe.c ****         atiny_mutex_lock(contextP->observe_mutex);
 266              		.loc 1 197 0
 267 00f1 498B7C24 		movq	72(%r12), %rdi
 267      48
 268 00f6 E8000000 		call	atiny_mutex_lock
 268      00
 269              	.LVL30:
 198:/home/baikal/workspace/C50/Huawei_IoT_Agent_Tiny_SDK_Linux//lwm2m/core/observe.c ****         watcherP->next = observedP->watcherList;
 270              		.loc 1 198 0
 271 00fb 488B4510 		movq	16(%rbp), %rax
 272 00ff 488903   		movq	%rax, (%rbx)
 199:/home/baikal/workspace/C50/Huawei_IoT_Agent_Tiny_SDK_Linux//lwm2m/core/observe.c ****         observedP->watcherList = watcherP;
 273              		.loc 1 199 0
 274 0102 48895D10 		movq	%rbx, 16(%rbp)
 200:/home/baikal/workspace/C50/Huawei_IoT_Agent_Tiny_SDK_Linux//lwm2m/core/observe.c ****         atiny_mutex_unlock(contextP->observe_mutex);
 275              		.loc 1 200 0
 276 0106 498B7C24 		movq	72(%r12), %rdi
 276      48
 277 010b E8000000 		call	atiny_mutex_unlock
 277      00
 278              	.LVL31:
 185:/home/baikal/workspace/C50/Huawei_IoT_Agent_Tiny_SDK_Linux//lwm2m/core/observe.c ****         if (watcherP == NULL)
 279              		.loc 1 185 0
 280 0110 4889D8   		movq	%rbx, %rax
 281 0113 EB0C     		jmp	.L17
 282              	.LVL32:
 283              	.L20:
 172:/home/baikal/workspace/C50/Huawei_IoT_Agent_Tiny_SDK_Linux//lwm2m/core/observe.c ****         allocatedObserver = true;
 284              		.loc 1 172 0
 285 0115 B8000000 		movl	$0, %eax
 285      00
 286              	.LVL33:
 287 011a EB05     		jmp	.L17
 288              	.LVL34:
 289              	.L22:
 192:/home/baikal/workspace/C50/Huawei_IoT_Agent_Tiny_SDK_Linux//lwm2m/core/observe.c ****         }
 290              		.loc 1 192 0
 291 011c B8000000 		movl	$0, %eax
 291      00
 292              	.LVL35:
 293              	.L17:
 201:/home/baikal/workspace/C50/Huawei_IoT_Agent_Tiny_SDK_Linux//lwm2m/core/observe.c ****     }
 202:/home/baikal/workspace/C50/Huawei_IoT_Agent_Tiny_SDK_Linux//lwm2m/core/observe.c **** 
 203:/home/baikal/workspace/C50/Huawei_IoT_Agent_Tiny_SDK_Linux//lwm2m/core/observe.c ****     return watcherP;
 204:/home/baikal/workspace/C50/Huawei_IoT_Agent_Tiny_SDK_Linux//lwm2m/core/observe.c **** }
GAS LISTING /tmp/ccGR9aQU.s 			page 12


 294              		.loc 1 204 0
 295 0121 5B       		popq	%rbx
 296              	.LCFI5:
 297              		.cfi_def_cfa_offset 40
 298 0122 5D       		popq	%rbp
 299              	.LCFI6:
 300              		.cfi_def_cfa_offset 32
 301              	.LVL36:
 302 0123 415C     		popq	%r12
 303              	.LCFI7:
 304              		.cfi_def_cfa_offset 24
 305              	.LVL37:
 306 0125 415D     		popq	%r13
 307              	.LCFI8:
 308              		.cfi_def_cfa_offset 16
 309              	.LVL38:
 310 0127 415E     		popq	%r14
 311              	.LCFI9:
 312              		.cfi_def_cfa_offset 8
 313 0129 C3       		ret
 314              		.cfi_endproc
 315              	.LFE67:
 317              		.section	.text.lwm2m_register_observe_ack_call_back,"ax",@progbits
 318              		.globl	lwm2m_register_observe_ack_call_back
 320              	lwm2m_register_observe_ack_call_back:
 321              	.LFB63:
  96:/home/baikal/workspace/C50/Huawei_IoT_Agent_Tiny_SDK_Linux//lwm2m/core/observe.c ****     observe_call_back = callback;
 322              		.loc 1 96 0
 323              		.cfi_startproc
 324              	.LVL39:
  97:/home/baikal/workspace/C50/Huawei_IoT_Agent_Tiny_SDK_Linux//lwm2m/core/observe.c **** }
 325              		.loc 1 97 0
 326 0000 48893D00 		movq	%rdi, observe_call_back(%rip)
 326      000000
 327 0007 C3       		ret
 328              		.cfi_endproc
 329              	.LFE63:
 331              		.section	.text.observe_cancel,"ax",@progbits
 332              		.globl	observe_cancel
 334              	observe_cancel:
 335              	.LFB69:
 205:/home/baikal/workspace/C50/Huawei_IoT_Agent_Tiny_SDK_Linux//lwm2m/core/observe.c **** 
 206:/home/baikal/workspace/C50/Huawei_IoT_Agent_Tiny_SDK_Linux//lwm2m/core/observe.c **** uint8_t observe_handleRequest(lwm2m_context_t *contextP,
 207:/home/baikal/workspace/C50/Huawei_IoT_Agent_Tiny_SDK_Linux//lwm2m/core/observe.c ****                               lwm2m_uri_t *uriP,
 208:/home/baikal/workspace/C50/Huawei_IoT_Agent_Tiny_SDK_Linux//lwm2m/core/observe.c ****                               lwm2m_server_t *serverP,
 209:/home/baikal/workspace/C50/Huawei_IoT_Agent_Tiny_SDK_Linux//lwm2m/core/observe.c ****                               int size,
 210:/home/baikal/workspace/C50/Huawei_IoT_Agent_Tiny_SDK_Linux//lwm2m/core/observe.c ****                               lwm2m_data_t *dataP,
 211:/home/baikal/workspace/C50/Huawei_IoT_Agent_Tiny_SDK_Linux//lwm2m/core/observe.c ****                               coap_packet_t *message,
 212:/home/baikal/workspace/C50/Huawei_IoT_Agent_Tiny_SDK_Linux//lwm2m/core/observe.c ****                               coap_packet_t *response)
 213:/home/baikal/workspace/C50/Huawei_IoT_Agent_Tiny_SDK_Linux//lwm2m/core/observe.c **** {
 214:/home/baikal/workspace/C50/Huawei_IoT_Agent_Tiny_SDK_Linux//lwm2m/core/observe.c ****     lwm2m_watcher_t *watcherP;
 215:/home/baikal/workspace/C50/Huawei_IoT_Agent_Tiny_SDK_Linux//lwm2m/core/observe.c ****     uint32_t count;
 216:/home/baikal/workspace/C50/Huawei_IoT_Agent_Tiny_SDK_Linux//lwm2m/core/observe.c **** 
 217:/home/baikal/workspace/C50/Huawei_IoT_Agent_Tiny_SDK_Linux//lwm2m/core/observe.c ****     LOG_ARG("Code: %02X, server status: %s", message->code, STR_STATUS(serverP->status));
 218:/home/baikal/workspace/C50/Huawei_IoT_Agent_Tiny_SDK_Linux//lwm2m/core/observe.c ****     LOG_URI(uriP);
 219:/home/baikal/workspace/C50/Huawei_IoT_Agent_Tiny_SDK_Linux//lwm2m/core/observe.c **** 
 220:/home/baikal/workspace/C50/Huawei_IoT_Agent_Tiny_SDK_Linux//lwm2m/core/observe.c ****     coap_get_header_observe(message, &count);
GAS LISTING /tmp/ccGR9aQU.s 			page 13


 221:/home/baikal/workspace/C50/Huawei_IoT_Agent_Tiny_SDK_Linux//lwm2m/core/observe.c **** 
 222:/home/baikal/workspace/C50/Huawei_IoT_Agent_Tiny_SDK_Linux//lwm2m/core/observe.c ****     switch (count)
 223:/home/baikal/workspace/C50/Huawei_IoT_Agent_Tiny_SDK_Linux//lwm2m/core/observe.c ****     {
 224:/home/baikal/workspace/C50/Huawei_IoT_Agent_Tiny_SDK_Linux//lwm2m/core/observe.c ****     case 0:
 225:/home/baikal/workspace/C50/Huawei_IoT_Agent_Tiny_SDK_Linux//lwm2m/core/observe.c ****         if (!LWM2M_URI_IS_SET_INSTANCE(uriP) && LWM2M_URI_IS_SET_RESOURCE(uriP)) return COAP_400_BA
 226:/home/baikal/workspace/C50/Huawei_IoT_Agent_Tiny_SDK_Linux//lwm2m/core/observe.c ****         if (message->token_len == 0) return COAP_400_BAD_REQUEST;
 227:/home/baikal/workspace/C50/Huawei_IoT_Agent_Tiny_SDK_Linux//lwm2m/core/observe.c **** 
 228:/home/baikal/workspace/C50/Huawei_IoT_Agent_Tiny_SDK_Linux//lwm2m/core/observe.c ****         watcherP = prv_getWatcher(contextP, uriP, serverP);
 229:/home/baikal/workspace/C50/Huawei_IoT_Agent_Tiny_SDK_Linux//lwm2m/core/observe.c ****         if (watcherP == NULL) return COAP_500_INTERNAL_SERVER_ERROR;
 230:/home/baikal/workspace/C50/Huawei_IoT_Agent_Tiny_SDK_Linux//lwm2m/core/observe.c **** 
 231:/home/baikal/workspace/C50/Huawei_IoT_Agent_Tiny_SDK_Linux//lwm2m/core/observe.c ****         watcherP->tokenLen = message->token_len;
 232:/home/baikal/workspace/C50/Huawei_IoT_Agent_Tiny_SDK_Linux//lwm2m/core/observe.c ****         memcpy(watcherP->token, message->token, message->token_len);
 233:/home/baikal/workspace/C50/Huawei_IoT_Agent_Tiny_SDK_Linux//lwm2m/core/observe.c ****         watcherP->active = true;
 234:/home/baikal/workspace/C50/Huawei_IoT_Agent_Tiny_SDK_Linux//lwm2m/core/observe.c ****         watcherP->lastTime = lwm2m_gettime();
 235:/home/baikal/workspace/C50/Huawei_IoT_Agent_Tiny_SDK_Linux//lwm2m/core/observe.c ****         if (IS_OPTION(message, COAP_OPTION_ACCEPT))
 236:/home/baikal/workspace/C50/Huawei_IoT_Agent_Tiny_SDK_Linux//lwm2m/core/observe.c ****         {
 237:/home/baikal/workspace/C50/Huawei_IoT_Agent_Tiny_SDK_Linux//lwm2m/core/observe.c ****             watcherP->format = utils_convertMediaType((coap_content_type_t)message->accept[0]);
 238:/home/baikal/workspace/C50/Huawei_IoT_Agent_Tiny_SDK_Linux//lwm2m/core/observe.c ****         }
 239:/home/baikal/workspace/C50/Huawei_IoT_Agent_Tiny_SDK_Linux//lwm2m/core/observe.c ****         else
 240:/home/baikal/workspace/C50/Huawei_IoT_Agent_Tiny_SDK_Linux//lwm2m/core/observe.c ****         {
 241:/home/baikal/workspace/C50/Huawei_IoT_Agent_Tiny_SDK_Linux//lwm2m/core/observe.c ****             watcherP->format = LWM2M_CONTENT_TLV;
 242:/home/baikal/workspace/C50/Huawei_IoT_Agent_Tiny_SDK_Linux//lwm2m/core/observe.c ****         }
 243:/home/baikal/workspace/C50/Huawei_IoT_Agent_Tiny_SDK_Linux//lwm2m/core/observe.c **** 
 244:/home/baikal/workspace/C50/Huawei_IoT_Agent_Tiny_SDK_Linux//lwm2m/core/observe.c ****         if (LWM2M_URI_IS_SET_RESOURCE(uriP))
 245:/home/baikal/workspace/C50/Huawei_IoT_Agent_Tiny_SDK_Linux//lwm2m/core/observe.c ****         {
 246:/home/baikal/workspace/C50/Huawei_IoT_Agent_Tiny_SDK_Linux//lwm2m/core/observe.c ****             switch (dataP->type)
 247:/home/baikal/workspace/C50/Huawei_IoT_Agent_Tiny_SDK_Linux//lwm2m/core/observe.c ****             {
 248:/home/baikal/workspace/C50/Huawei_IoT_Agent_Tiny_SDK_Linux//lwm2m/core/observe.c ****             case LWM2M_TYPE_INTEGER:
 249:/home/baikal/workspace/C50/Huawei_IoT_Agent_Tiny_SDK_Linux//lwm2m/core/observe.c ****                 if (1 != lwm2m_data_decode_int(dataP, &(watcherP->lastValue.asInteger))) return COA
 250:/home/baikal/workspace/C50/Huawei_IoT_Agent_Tiny_SDK_Linux//lwm2m/core/observe.c ****                 break;
 251:/home/baikal/workspace/C50/Huawei_IoT_Agent_Tiny_SDK_Linux//lwm2m/core/observe.c ****             case LWM2M_TYPE_FLOAT:
 252:/home/baikal/workspace/C50/Huawei_IoT_Agent_Tiny_SDK_Linux//lwm2m/core/observe.c ****                 if (1 != lwm2m_data_decode_float(dataP, &(watcherP->lastValue.asFloat))) return COA
 253:/home/baikal/workspace/C50/Huawei_IoT_Agent_Tiny_SDK_Linux//lwm2m/core/observe.c ****                 break;
 254:/home/baikal/workspace/C50/Huawei_IoT_Agent_Tiny_SDK_Linux//lwm2m/core/observe.c ****             default:
 255:/home/baikal/workspace/C50/Huawei_IoT_Agent_Tiny_SDK_Linux//lwm2m/core/observe.c ****                 break;
 256:/home/baikal/workspace/C50/Huawei_IoT_Agent_Tiny_SDK_Linux//lwm2m/core/observe.c ****             }
 257:/home/baikal/workspace/C50/Huawei_IoT_Agent_Tiny_SDK_Linux//lwm2m/core/observe.c ****         }
 258:/home/baikal/workspace/C50/Huawei_IoT_Agent_Tiny_SDK_Linux//lwm2m/core/observe.c **** 
 259:/home/baikal/workspace/C50/Huawei_IoT_Agent_Tiny_SDK_Linux//lwm2m/core/observe.c ****         coap_set_header_observe(response, watcherP->counter++);
 260:/home/baikal/workspace/C50/Huawei_IoT_Agent_Tiny_SDK_Linux//lwm2m/core/observe.c **** 
 261:/home/baikal/workspace/C50/Huawei_IoT_Agent_Tiny_SDK_Linux//lwm2m/core/observe.c ****         return COAP_205_CONTENT;
 262:/home/baikal/workspace/C50/Huawei_IoT_Agent_Tiny_SDK_Linux//lwm2m/core/observe.c **** 
 263:/home/baikal/workspace/C50/Huawei_IoT_Agent_Tiny_SDK_Linux//lwm2m/core/observe.c ****     case 1:
 264:/home/baikal/workspace/C50/Huawei_IoT_Agent_Tiny_SDK_Linux//lwm2m/core/observe.c ****         // cancellation
 265:/home/baikal/workspace/C50/Huawei_IoT_Agent_Tiny_SDK_Linux//lwm2m/core/observe.c ****         observe_cancel(contextP, LWM2M_MAX_ID, serverP->sessionH);
 266:/home/baikal/workspace/C50/Huawei_IoT_Agent_Tiny_SDK_Linux//lwm2m/core/observe.c ****         return COAP_205_CONTENT;
 267:/home/baikal/workspace/C50/Huawei_IoT_Agent_Tiny_SDK_Linux//lwm2m/core/observe.c **** 
 268:/home/baikal/workspace/C50/Huawei_IoT_Agent_Tiny_SDK_Linux//lwm2m/core/observe.c ****     default:
 269:/home/baikal/workspace/C50/Huawei_IoT_Agent_Tiny_SDK_Linux//lwm2m/core/observe.c ****         return COAP_400_BAD_REQUEST;
 270:/home/baikal/workspace/C50/Huawei_IoT_Agent_Tiny_SDK_Linux//lwm2m/core/observe.c ****     }
 271:/home/baikal/workspace/C50/Huawei_IoT_Agent_Tiny_SDK_Linux//lwm2m/core/observe.c **** }
 272:/home/baikal/workspace/C50/Huawei_IoT_Agent_Tiny_SDK_Linux//lwm2m/core/observe.c **** 
 273:/home/baikal/workspace/C50/Huawei_IoT_Agent_Tiny_SDK_Linux//lwm2m/core/observe.c **** void observe_cancel(lwm2m_context_t *contextP,
 274:/home/baikal/workspace/C50/Huawei_IoT_Agent_Tiny_SDK_Linux//lwm2m/core/observe.c ****                     uint16_t mid,
 275:/home/baikal/workspace/C50/Huawei_IoT_Agent_Tiny_SDK_Linux//lwm2m/core/observe.c ****                     void *fromSessionH)
 276:/home/baikal/workspace/C50/Huawei_IoT_Agent_Tiny_SDK_Linux//lwm2m/core/observe.c **** {
 336              		.loc 1 276 0
GAS LISTING /tmp/ccGR9aQU.s 			page 14


 337              		.cfi_startproc
 338              	.LVL40:
 339 0000 4157     		pushq	%r15
 340              	.LCFI10:
 341              		.cfi_def_cfa_offset 16
 342              		.cfi_offset 15, -16
 343 0002 4156     		pushq	%r14
 344              	.LCFI11:
 345              		.cfi_def_cfa_offset 24
 346              		.cfi_offset 14, -24
 347 0004 4155     		pushq	%r13
 348              	.LCFI12:
 349              		.cfi_def_cfa_offset 32
 350              		.cfi_offset 13, -32
 351 0006 4154     		pushq	%r12
 352              	.LCFI13:
 353              		.cfi_def_cfa_offset 40
 354              		.cfi_offset 12, -40
 355 0008 55       		pushq	%rbp
 356              	.LCFI14:
 357              		.cfi_def_cfa_offset 48
 358              		.cfi_offset 6, -48
 359 0009 53       		pushq	%rbx
 360              	.LCFI15:
 361              		.cfi_def_cfa_offset 56
 362              		.cfi_offset 3, -56
 363 000a 4883EC08 		subq	$8, %rsp
 364              	.LCFI16:
 365              		.cfi_def_cfa_offset 64
 366 000e 4989FD   		movq	%rdi, %r13
 367 0011 4989D6   		movq	%rdx, %r14
 368 0014 89F5     		movl	%esi, %ebp
 277:/home/baikal/workspace/C50/Huawei_IoT_Agent_Tiny_SDK_Linux//lwm2m/core/observe.c ****     lwm2m_observed_t *observedP;
 278:/home/baikal/workspace/C50/Huawei_IoT_Agent_Tiny_SDK_Linux//lwm2m/core/observe.c **** 
 279:/home/baikal/workspace/C50/Huawei_IoT_Agent_Tiny_SDK_Linux//lwm2m/core/observe.c ****     LOG_ARG("mid: %d", mid);
 280:/home/baikal/workspace/C50/Huawei_IoT_Agent_Tiny_SDK_Linux//lwm2m/core/observe.c **** 
 281:/home/baikal/workspace/C50/Huawei_IoT_Agent_Tiny_SDK_Linux//lwm2m/core/observe.c ****     for (observedP = contextP->observedList;
 369              		.loc 1 281 0
 370 0016 4C8B6740 		movq	64(%rdi), %r12
 371              	.LVL41:
 372 001a E9E20000 		jmp	.L26
 372      00
 373              	.LVL42:
 374              	.L37:
 375              	.LBB35:
 282:/home/baikal/workspace/C50/Huawei_IoT_Agent_Tiny_SDK_Linux//lwm2m/core/observe.c ****             observedP != NULL;
 283:/home/baikal/workspace/C50/Huawei_IoT_Agent_Tiny_SDK_Linux//lwm2m/core/observe.c ****             observedP = observedP->next)
 284:/home/baikal/workspace/C50/Huawei_IoT_Agent_Tiny_SDK_Linux//lwm2m/core/observe.c ****     {
 285:/home/baikal/workspace/C50/Huawei_IoT_Agent_Tiny_SDK_Linux//lwm2m/core/observe.c ****         lwm2m_watcher_t *targetP = NULL;
 286:/home/baikal/workspace/C50/Huawei_IoT_Agent_Tiny_SDK_Linux//lwm2m/core/observe.c **** 
 287:/home/baikal/workspace/C50/Huawei_IoT_Agent_Tiny_SDK_Linux//lwm2m/core/observe.c ****         if ((LWM2M_MAX_ID == mid || observedP->watcherList->lastMid == mid)
 376              		.loc 1 287 0
 377 001f 6683FDFF 		cmpw	$-1, %bp
 378 0023 740B     		je	.L27
 379              		.loc 1 287 0 is_stmt 0 discriminator 1
 380 0025 498B4424 		movq	16(%r12), %rax
 380      10
GAS LISTING /tmp/ccGR9aQU.s 			page 15


 381 002a 663B6844 		cmpw	68(%rax), %bp
 382 002e 752C     		jne	.L28
 383              	.L27:
 288:/home/baikal/workspace/C50/Huawei_IoT_Agent_Tiny_SDK_Linux//lwm2m/core/observe.c ****                 && lwm2m_session_is_equal(observedP->watcherList->server->sessionH, fromSessionH, c
 384              		.loc 1 288 0 is_stmt 1
 385 0030 498B4424 		movq	16(%r12), %rax
 385      10
 386 0035 488B4010 		movq	16(%rax), %rax
 387 0039 498B5560 		movq	96(%r13), %rdx
 388 003d 488B7828 		movq	40(%rax), %rdi
 389 0041 4C89F6   		movq	%r14, %rsi
 390 0044 E8000000 		call	lwm2m_session_is_equal
 390      00
 391              	.LVL43:
 392 0049 84C0     		testb	%al, %al
 393 004b 740F     		je	.L28
 289:/home/baikal/workspace/C50/Huawei_IoT_Agent_Tiny_SDK_Linux//lwm2m/core/observe.c ****         {
 290:/home/baikal/workspace/C50/Huawei_IoT_Agent_Tiny_SDK_Linux//lwm2m/core/observe.c ****             targetP = observedP->watcherList;
 394              		.loc 1 290 0
 395 004d 4D8B7C24 		movq	16(%r12), %r15
 395      10
 396              	.LVL44:
 291:/home/baikal/workspace/C50/Huawei_IoT_Agent_Tiny_SDK_Linux//lwm2m/core/observe.c ****             observedP->watcherList = observedP->watcherList->next;
 397              		.loc 1 291 0
 398 0052 498B07   		movq	(%r15), %rax
 399 0055 49894424 		movq	%rax, 16(%r12)
 399      10
 400 005a EB3E     		jmp	.L29
 401              	.LVL45:
 402              	.L28:
 403              	.LBB36:
 292:/home/baikal/workspace/C50/Huawei_IoT_Agent_Tiny_SDK_Linux//lwm2m/core/observe.c ****         }
 293:/home/baikal/workspace/C50/Huawei_IoT_Agent_Tiny_SDK_Linux//lwm2m/core/observe.c ****         else
 294:/home/baikal/workspace/C50/Huawei_IoT_Agent_Tiny_SDK_Linux//lwm2m/core/observe.c ****         {
 295:/home/baikal/workspace/C50/Huawei_IoT_Agent_Tiny_SDK_Linux//lwm2m/core/observe.c ****             lwm2m_watcher_t *parentP;
 296:/home/baikal/workspace/C50/Huawei_IoT_Agent_Tiny_SDK_Linux//lwm2m/core/observe.c **** 
 297:/home/baikal/workspace/C50/Huawei_IoT_Agent_Tiny_SDK_Linux//lwm2m/core/observe.c ****             parentP = observedP->watcherList;
 404              		.loc 1 297 0
 405 005c 498B5C24 		movq	16(%r12), %rbx
 405      10
 406              	.LVL46:
 298:/home/baikal/workspace/C50/Huawei_IoT_Agent_Tiny_SDK_Linux//lwm2m/core/observe.c ****             while (parentP->next != NULL
 407              		.loc 1 298 0
 408 0061 EB03     		jmp	.L30
 409              	.L32:
 299:/home/baikal/workspace/C50/Huawei_IoT_Agent_Tiny_SDK_Linux//lwm2m/core/observe.c ****                     && (parentP->next->lastMid != mid
 300:/home/baikal/workspace/C50/Huawei_IoT_Agent_Tiny_SDK_Linux//lwm2m/core/observe.c ****                         || lwm2m_session_is_equal(parentP->next->server->sessionH, fromSessionH, co
 301:/home/baikal/workspace/C50/Huawei_IoT_Agent_Tiny_SDK_Linux//lwm2m/core/observe.c ****             {
 302:/home/baikal/workspace/C50/Huawei_IoT_Agent_Tiny_SDK_Linux//lwm2m/core/observe.c ****                 parentP = parentP->next;
 410              		.loc 1 302 0
 411 0063 488B1B   		movq	(%rbx), %rbx
 412              	.LVL47:
 413              	.L30:
 298:/home/baikal/workspace/C50/Huawei_IoT_Agent_Tiny_SDK_Linux//lwm2m/core/observe.c ****             while (parentP->next != NULL
 414              		.loc 1 298 0
 415 0066 488B03   		movq	(%rbx), %rax
 416 0069 4885C0   		testq	%rax, %rax
GAS LISTING /tmp/ccGR9aQU.s 			page 16


 417 006c 741E     		je	.L31
 299:/home/baikal/workspace/C50/Huawei_IoT_Agent_Tiny_SDK_Linux//lwm2m/core/observe.c ****                     && (parentP->next->lastMid != mid
 418              		.loc 1 299 0
 419 006e 663B6844 		cmpw	68(%rax), %bp
 420 0072 75EF     		jne	.L32
 300:/home/baikal/workspace/C50/Huawei_IoT_Agent_Tiny_SDK_Linux//lwm2m/core/observe.c ****             {
 421              		.loc 1 300 0
 422 0074 488B4010 		movq	16(%rax), %rax
 423 0078 498B5560 		movq	96(%r13), %rdx
 424 007c 488B7828 		movq	40(%rax), %rdi
 425 0080 4C89F6   		movq	%r14, %rsi
 426 0083 E8000000 		call	lwm2m_session_is_equal
 426      00
 427              	.LVL48:
 428 0088 84C0     		testb	%al, %al
 429 008a 75D7     		jne	.L32
 430              	.L31:
 303:/home/baikal/workspace/C50/Huawei_IoT_Agent_Tiny_SDK_Linux//lwm2m/core/observe.c ****             }
 304:/home/baikal/workspace/C50/Huawei_IoT_Agent_Tiny_SDK_Linux//lwm2m/core/observe.c ****             if (parentP->next != NULL)
 431              		.loc 1 304 0
 432 008c 4C8B3B   		movq	(%rbx), %r15
 433 008f 4D85FF   		testq	%r15, %r15
 434 0092 7406     		je	.L29
 435              	.LVL49:
 305:/home/baikal/workspace/C50/Huawei_IoT_Agent_Tiny_SDK_Linux//lwm2m/core/observe.c ****             {
 306:/home/baikal/workspace/C50/Huawei_IoT_Agent_Tiny_SDK_Linux//lwm2m/core/observe.c ****                 targetP = parentP->next;
 307:/home/baikal/workspace/C50/Huawei_IoT_Agent_Tiny_SDK_Linux//lwm2m/core/observe.c ****                 parentP->next = parentP->next->next;
 436              		.loc 1 307 0
 437 0094 498B07   		movq	(%r15), %rax
 438 0097 488903   		movq	%rax, (%rbx)
 439              	.LVL50:
 440              	.L29:
 441              	.LBE36:
 308:/home/baikal/workspace/C50/Huawei_IoT_Agent_Tiny_SDK_Linux//lwm2m/core/observe.c ****             }
 309:/home/baikal/workspace/C50/Huawei_IoT_Agent_Tiny_SDK_Linux//lwm2m/core/observe.c ****         }
 310:/home/baikal/workspace/C50/Huawei_IoT_Agent_Tiny_SDK_Linux//lwm2m/core/observe.c ****         if (targetP != NULL)
 442              		.loc 1 310 0
 443 009a 4D85FF   		testq	%r15, %r15
 444 009d 745E     		je	.L33
 311:/home/baikal/workspace/C50/Huawei_IoT_Agent_Tiny_SDK_Linux//lwm2m/core/observe.c ****         {
 312:/home/baikal/workspace/C50/Huawei_IoT_Agent_Tiny_SDK_Linux//lwm2m/core/observe.c ****             atiny_mutex_lock(contextP->observe_mutex);
 445              		.loc 1 312 0
 446 009f 498B7D48 		movq	72(%r13), %rdi
 447 00a3 E8000000 		call	atiny_mutex_lock
 447      00
 448              	.LVL51:
 313:/home/baikal/workspace/C50/Huawei_IoT_Agent_Tiny_SDK_Linux//lwm2m/core/observe.c ****             lwm2m_notify_even(MODULE_URI, OBSERVE_UNSUBSCRIBE, (char *) & (observedP->uri), sizeof(
 449              		.loc 1 313 0
 450 00a8 498D5424 		leaq	8(%r12), %rdx
 450      08
 451 00ad B9080000 		movl	$8, %ecx
 451      00
 452 00b2 BE000000 		movl	$0, %esi
 452      00
 453 00b7 BF020000 		movl	$2, %edi
 453      00
 454 00bc E8000000 		call	lwm2m_notify_even
GAS LISTING /tmp/ccGR9aQU.s 			page 17


 454      00
 455              	.LVL52:
 314:/home/baikal/workspace/C50/Huawei_IoT_Agent_Tiny_SDK_Linux//lwm2m/core/observe.c ****             if (targetP->parameters != NULL) lwm2m_free(targetP->parameters);
 456              		.loc 1 314 0
 457 00c1 498B7F18 		movq	24(%r15), %rdi
 458 00c5 4885FF   		testq	%rdi, %rdi
 459 00c8 7405     		je	.L34
 460              		.loc 1 314 0 is_stmt 0 discriminator 1
 461 00ca E8000000 		call	lwm2m_free
 461      00
 462              	.LVL53:
 463              	.L34:
 315:/home/baikal/workspace/C50/Huawei_IoT_Agent_Tiny_SDK_Linux//lwm2m/core/observe.c ****             lwm2m_free(targetP);
 464              		.loc 1 315 0 is_stmt 1
 465 00cf 4C89FF   		movq	%r15, %rdi
 466 00d2 E8000000 		call	lwm2m_free
 466      00
 467              	.LVL54:
 316:/home/baikal/workspace/C50/Huawei_IoT_Agent_Tiny_SDK_Linux//lwm2m/core/observe.c ****             if (observedP->watcherList == NULL)
 468              		.loc 1 316 0
 469 00d7 49837C24 		cmpq	$0, 16(%r12)
 469      1000
 470 00dd 7513     		jne	.L35
 317:/home/baikal/workspace/C50/Huawei_IoT_Agent_Tiny_SDK_Linux//lwm2m/core/observe.c ****             {
 318:/home/baikal/workspace/C50/Huawei_IoT_Agent_Tiny_SDK_Linux//lwm2m/core/observe.c ****                 prv_unlinkObserved(contextP, observedP);
 471              		.loc 1 318 0
 472 00df 4C89E6   		movq	%r12, %rsi
 473 00e2 4C89EF   		movq	%r13, %rdi
 474 00e5 E8000000 		call	prv_unlinkObserved
 474      00
 475              	.LVL55:
 319:/home/baikal/workspace/C50/Huawei_IoT_Agent_Tiny_SDK_Linux//lwm2m/core/observe.c ****                 lwm2m_free(observedP);
 476              		.loc 1 319 0
 477 00ea 4C89E7   		movq	%r12, %rdi
 478 00ed E8000000 		call	lwm2m_free
 478      00
 479              	.LVL56:
 480              	.L35:
 320:/home/baikal/workspace/C50/Huawei_IoT_Agent_Tiny_SDK_Linux//lwm2m/core/observe.c ****             }
 321:/home/baikal/workspace/C50/Huawei_IoT_Agent_Tiny_SDK_Linux//lwm2m/core/observe.c ****             atiny_mutex_unlock(contextP->observe_mutex);
 481              		.loc 1 321 0
 482 00f2 498B7D48 		movq	72(%r13), %rdi
 483 00f6 E8000000 		call	atiny_mutex_unlock
 483      00
 484              	.LVL57:
 322:/home/baikal/workspace/C50/Huawei_IoT_Agent_Tiny_SDK_Linux//lwm2m/core/observe.c ****             return;
 485              		.loc 1 322 0
 486 00fb EB0D     		jmp	.L25
 487              	.L33:
 488              	.LBE35:
 283:/home/baikal/workspace/C50/Huawei_IoT_Agent_Tiny_SDK_Linux//lwm2m/core/observe.c ****     {
 489              		.loc 1 283 0
 490 00fd 4D8B2424 		movq	(%r12), %r12
 491              	.LVL58:
 492              	.L26:
 281:/home/baikal/workspace/C50/Huawei_IoT_Agent_Tiny_SDK_Linux//lwm2m/core/observe.c ****             observedP != NULL;
 493              		.loc 1 281 0 discriminator 1
GAS LISTING /tmp/ccGR9aQU.s 			page 18


 494 0101 4D85E4   		testq	%r12, %r12
 495 0104 0F8515FF 		jne	.L37
 495      FFFF
 496              	.L25:
 323:/home/baikal/workspace/C50/Huawei_IoT_Agent_Tiny_SDK_Linux//lwm2m/core/observe.c ****         }
 324:/home/baikal/workspace/C50/Huawei_IoT_Agent_Tiny_SDK_Linux//lwm2m/core/observe.c ****     }
 325:/home/baikal/workspace/C50/Huawei_IoT_Agent_Tiny_SDK_Linux//lwm2m/core/observe.c **** }
 497              		.loc 1 325 0
 498 010a 4883C408 		addq	$8, %rsp
 499              	.LCFI17:
 500              		.cfi_def_cfa_offset 56
 501 010e 5B       		popq	%rbx
 502              	.LCFI18:
 503              		.cfi_def_cfa_offset 48
 504 010f 5D       		popq	%rbp
 505              	.LCFI19:
 506              		.cfi_def_cfa_offset 40
 507              	.LVL59:
 508 0110 415C     		popq	%r12
 509              	.LCFI20:
 510              		.cfi_def_cfa_offset 32
 511              	.LVL60:
 512 0112 415D     		popq	%r13
 513              	.LCFI21:
 514              		.cfi_def_cfa_offset 24
 515              	.LVL61:
 516 0114 415E     		popq	%r14
 517              	.LCFI22:
 518              		.cfi_def_cfa_offset 16
 519              	.LVL62:
 520 0116 415F     		popq	%r15
 521              	.LCFI23:
 522              		.cfi_def_cfa_offset 8
 523 0118 C3       		ret
 524              		.cfi_endproc
 525              	.LFE69:
 527              		.section	.text.observe_handleRequest,"ax",@progbits
 528              		.globl	observe_handleRequest
 530              	observe_handleRequest:
 531              	.LFB68:
 213:/home/baikal/workspace/C50/Huawei_IoT_Agent_Tiny_SDK_Linux//lwm2m/core/observe.c ****     lwm2m_watcher_t *watcherP;
 532              		.loc 1 213 0
 533              		.cfi_startproc
 534              	.LVL63:
 535 0000 4156     		pushq	%r14
 536              	.LCFI24:
 537              		.cfi_def_cfa_offset 16
 538              		.cfi_offset 14, -16
 539 0002 4155     		pushq	%r13
 540              	.LCFI25:
 541              		.cfi_def_cfa_offset 24
 542              		.cfi_offset 13, -24
 543 0004 4154     		pushq	%r12
 544              	.LCFI26:
 545              		.cfi_def_cfa_offset 32
 546              		.cfi_offset 12, -32
 547 0006 55       		pushq	%rbp
GAS LISTING /tmp/ccGR9aQU.s 			page 19


 548              	.LCFI27:
 549              		.cfi_def_cfa_offset 40
 550              		.cfi_offset 6, -40
 551 0007 53       		pushq	%rbx
 552              	.LCFI28:
 553              		.cfi_def_cfa_offset 48
 554              		.cfi_offset 3, -48
 555 0008 4883EC10 		subq	$16, %rsp
 556              	.LCFI29:
 557              		.cfi_def_cfa_offset 64
 558 000c 4989FC   		movq	%rdi, %r12
 559 000f 4889F5   		movq	%rsi, %rbp
 560 0012 4989D5   		movq	%rdx, %r13
 561 0015 4D89C6   		movq	%r8, %r14
 562 0018 4C89CB   		movq	%r9, %rbx
 220:/home/baikal/workspace/C50/Huawei_IoT_Agent_Tiny_SDK_Linux//lwm2m/core/observe.c **** 
 563              		.loc 1 220 0
 564 001b 488D7424 		leaq	12(%rsp), %rsi
 564      0C
 565              	.LVL64:
 566 0020 4C89CF   		movq	%r9, %rdi
 567              	.LVL65:
 568 0023 E8000000 		call	coap_get_header_observe
 568      00
 569              	.LVL66:
 222:/home/baikal/workspace/C50/Huawei_IoT_Agent_Tiny_SDK_Linux//lwm2m/core/observe.c ****     {
 570              		.loc 1 222 0
 571 0028 8B44240C 		movl	12(%rsp), %eax
 572 002c 85C0     		testl	%eax, %eax
 573 002e 740E     		je	.L41
 574 0030 83F801   		cmpl	$1, %eax
 575 0033 0F84EA00 		je	.L42
 575      0000
 576 0039 E9FD0000 		jmp	.L54
 576      00
 577              	.L41:
 225:/home/baikal/workspace/C50/Huawei_IoT_Agent_Tiny_SDK_Linux//lwm2m/core/observe.c ****         if (message->token_len == 0) return COAP_400_BAD_REQUEST;
 578              		.loc 1 225 0
 579 003e 0FB64500 		movzbl	0(%rbp), %eax
 580 0042 83E003   		andl	$3, %eax
 581 0045 3C01     		cmpb	$1, %al
 582 0047 0F84F500 		je	.L49
 582      0000
 226:/home/baikal/workspace/C50/Huawei_IoT_Agent_Tiny_SDK_Linux//lwm2m/core/observe.c **** 
 583              		.loc 1 226 0
 584 004d 80BB8400 		cmpb	$0, 132(%rbx)
 584      000000
 585 0054 0F84EF00 		je	.L50
 585      0000
 228:/home/baikal/workspace/C50/Huawei_IoT_Agent_Tiny_SDK_Linux//lwm2m/core/observe.c ****         if (watcherP == NULL) return COAP_500_INTERNAL_SERVER_ERROR;
 586              		.loc 1 228 0
 587 005a 4C89EA   		movq	%r13, %rdx
 588 005d 4889EE   		movq	%rbp, %rsi
 589 0060 4C89E7   		movq	%r12, %rdi
 590 0063 E8000000 		call	prv_getWatcher
 590      00
 591              	.LVL67:
GAS LISTING /tmp/ccGR9aQU.s 			page 20


 592 0068 4989C4   		movq	%rax, %r12
 593              	.LVL68:
 229:/home/baikal/workspace/C50/Huawei_IoT_Agent_Tiny_SDK_Linux//lwm2m/core/observe.c **** 
 594              		.loc 1 229 0
 595 006b 4885C0   		testq	%rax, %rax
 596 006e 0F84DC00 		je	.L51
 596      0000
 231:/home/baikal/workspace/C50/Huawei_IoT_Agent_Tiny_SDK_Linux//lwm2m/core/observe.c ****         memcpy(watcherP->token, message->token, message->token_len);
 597              		.loc 1 231 0
 598 0074 0FB68384 		movzbl	132(%rbx), %eax
 598      000000
 599              	.LVL69:
 600 007b 49894424 		movq	%rax, 48(%r12)
 600      30
 232:/home/baikal/workspace/C50/Huawei_IoT_Agent_Tiny_SDK_Linux//lwm2m/core/observe.c ****         watcherP->active = true;
 601              		.loc 1 232 0
 602 0080 0FB69384 		movzbl	132(%rbx), %edx
 602      000000
 603 0087 488DB385 		leaq	133(%rbx), %rsi
 603      000000
 604 008e 498D7C24 		leaq	36(%r12), %rdi
 604      24
 605              	.LVL70:
 606              	.LBB37:
 607              	.LBB38:
  53:/usr/include/x86_64-linux-gnu/bits/string3.h **** }
 608              		.loc 2 53 0
 609 0093 E8000000 		call	memcpy
 609      00
 610              	.LVL71:
 611              	.LBE38:
 612              	.LBE37:
 233:/home/baikal/workspace/C50/Huawei_IoT_Agent_Tiny_SDK_Linux//lwm2m/core/observe.c ****         watcherP->lastTime = lwm2m_gettime();
 613              		.loc 1 233 0
 614 0098 41C64424 		movb	$1, 8(%r12)
 614      0801
 234:/home/baikal/workspace/C50/Huawei_IoT_Agent_Tiny_SDK_Linux//lwm2m/core/observe.c ****         if (IS_OPTION(message, COAP_OPTION_ACCEPT))
 615              		.loc 1 234 0
 616 009e E8000000 		call	lwm2m_gettime
 616      00
 617              	.LVL72:
 618 00a3 49894424 		movq	%rax, 56(%r12)
 618      38
 235:/home/baikal/workspace/C50/Huawei_IoT_Agent_Tiny_SDK_Linux//lwm2m/core/observe.c ****         {
 619              		.loc 1 235 0
 620 00a8 F6431602 		testb	$2, 22(%rbx)
 621 00ac 7413     		je	.L43
 237:/home/baikal/workspace/C50/Huawei_IoT_Agent_Tiny_SDK_Linux//lwm2m/core/observe.c ****         }
 622              		.loc 1 237 0
 623 00ae 0FB7BB8E 		movzwl	142(%rbx), %edi
 623      000000
 624 00b5 E8000000 		call	utils_convertMediaType
 624      00
 625              	.LVL73:
 626 00ba 41894424 		movl	%eax, 32(%r12)
 626      20
 627 00bf EB09     		jmp	.L44
GAS LISTING /tmp/ccGR9aQU.s 			page 21


 628              	.L43:
 241:/home/baikal/workspace/C50/Huawei_IoT_Agent_Tiny_SDK_Linux//lwm2m/core/observe.c ****         }
 629              		.loc 1 241 0
 630 00c1 41C74424 		movl	$11542, 32(%r12)
 630      20162D00 
 630      00
 631              	.L44:
 244:/home/baikal/workspace/C50/Huawei_IoT_Agent_Tiny_SDK_Linux//lwm2m/core/observe.c ****         {
 632              		.loc 1 244 0
 633 00ca F6450001 		testb	$1, 0(%rbp)
 634 00ce 7435     		je	.L45
 246:/home/baikal/workspace/C50/Huawei_IoT_Agent_Tiny_SDK_Linux//lwm2m/core/observe.c ****             {
 635              		.loc 1 246 0
 636 00d0 418B06   		movl	(%r14), %eax
 637 00d3 83F806   		cmpl	$6, %eax
 638 00d6 7407     		je	.L46
 639 00d8 83F807   		cmpl	$7, %eax
 640 00db 7416     		je	.L47
 641 00dd EB26     		jmp	.L45
 642              	.L46:
 249:/home/baikal/workspace/C50/Huawei_IoT_Agent_Tiny_SDK_Linux//lwm2m/core/observe.c ****                 break;
 643              		.loc 1 249 0
 644 00df 498D7424 		leaq	72(%r12), %rsi
 644      48
 645 00e4 4C89F7   		movq	%r14, %rdi
 646 00e7 E8000000 		call	lwm2m_data_decode_int
 646      00
 647              	.LVL74:
 648 00ec 83F801   		cmpl	$1, %eax
 649 00ef 7566     		jne	.L52
 650 00f1 EB12     		jmp	.L45
 651              	.L47:
 252:/home/baikal/workspace/C50/Huawei_IoT_Agent_Tiny_SDK_Linux//lwm2m/core/observe.c ****                 break;
 652              		.loc 1 252 0
 653 00f3 498D7424 		leaq	72(%r12), %rsi
 653      48
 654 00f8 4C89F7   		movq	%r14, %rdi
 655 00fb E8000000 		call	lwm2m_data_decode_float
 655      00
 656              	.LVL75:
 657 0100 83F801   		cmpl	$1, %eax
 658 0103 7559     		jne	.L53
 659              	.L45:
 259:/home/baikal/workspace/C50/Huawei_IoT_Agent_Tiny_SDK_Linux//lwm2m/core/observe.c **** 
 660              		.loc 1 259 0
 661 0105 418B7424 		movl	64(%r12), %esi
 661      40
 662 010a 8D4601   		leal	1(%rsi), %eax
 663 010d 41894424 		movl	%eax, 64(%r12)
 663      40
 664 0112 488B7C24 		movq	64(%rsp), %rdi
 664      40
 665 0117 E8000000 		call	coap_set_header_observe
 665      00
 666              	.LVL76:
 261:/home/baikal/workspace/C50/Huawei_IoT_Agent_Tiny_SDK_Linux//lwm2m/core/observe.c **** 
 667              		.loc 1 261 0
GAS LISTING /tmp/ccGR9aQU.s 			page 22


 668 011c B8450000 		movl	$69, %eax
 668      00
 669 0121 EB40     		jmp	.L40
 670              	.LVL77:
 671              	.L42:
 265:/home/baikal/workspace/C50/Huawei_IoT_Agent_Tiny_SDK_Linux//lwm2m/core/observe.c ****         return COAP_205_CONTENT;
 672              		.loc 1 265 0
 673 0123 498B5528 		movq	40(%r13), %rdx
 674 0127 BEFFFF00 		movl	$65535, %esi
 674      00
 675 012c 4C89E7   		movq	%r12, %rdi
 676 012f E8000000 		call	observe_cancel
 676      00
 677              	.LVL78:
 266:/home/baikal/workspace/C50/Huawei_IoT_Agent_Tiny_SDK_Linux//lwm2m/core/observe.c **** 
 678              		.loc 1 266 0
 679 0134 B8450000 		movl	$69, %eax
 679      00
 680 0139 EB28     		jmp	.L40
 681              	.L54:
 269:/home/baikal/workspace/C50/Huawei_IoT_Agent_Tiny_SDK_Linux//lwm2m/core/observe.c ****     }
 682              		.loc 1 269 0
 683 013b B880FFFF 		movl	$-128, %eax
 683      FF
 684 0140 EB21     		jmp	.L40
 685              	.L49:
 225:/home/baikal/workspace/C50/Huawei_IoT_Agent_Tiny_SDK_Linux//lwm2m/core/observe.c ****         if (message->token_len == 0) return COAP_400_BAD_REQUEST;
 686              		.loc 1 225 0
 687 0142 B880FFFF 		movl	$-128, %eax
 687      FF
 688 0147 EB1A     		jmp	.L40
 689              	.L50:
 226:/home/baikal/workspace/C50/Huawei_IoT_Agent_Tiny_SDK_Linux//lwm2m/core/observe.c **** 
 690              		.loc 1 226 0
 691 0149 B880FFFF 		movl	$-128, %eax
 691      FF
 692 014e EB13     		jmp	.L40
 693              	.LVL79:
 694              	.L51:
 229:/home/baikal/workspace/C50/Huawei_IoT_Agent_Tiny_SDK_Linux//lwm2m/core/observe.c **** 
 695              		.loc 1 229 0
 696 0150 B8A0FFFF 		movl	$-96, %eax
 696      FF
 697              	.LVL80:
 698 0155 EB0C     		jmp	.L40
 699              	.L52:
 249:/home/baikal/workspace/C50/Huawei_IoT_Agent_Tiny_SDK_Linux//lwm2m/core/observe.c ****                 break;
 700              		.loc 1 249 0
 701 0157 B8A0FFFF 		movl	$-96, %eax
 701      FF
 702 015c EB05     		jmp	.L40
 703              	.L53:
 252:/home/baikal/workspace/C50/Huawei_IoT_Agent_Tiny_SDK_Linux//lwm2m/core/observe.c ****                 break;
 704              		.loc 1 252 0
 705 015e B8A0FFFF 		movl	$-96, %eax
 705      FF
 706              	.LVL81:
GAS LISTING /tmp/ccGR9aQU.s 			page 23


 707              	.L40:
 271:/home/baikal/workspace/C50/Huawei_IoT_Agent_Tiny_SDK_Linux//lwm2m/core/observe.c **** 
 708              		.loc 1 271 0
 709 0163 4883C410 		addq	$16, %rsp
 710              	.LCFI30:
 711              		.cfi_def_cfa_offset 48
 712 0167 5B       		popq	%rbx
 713              	.LCFI31:
 714              		.cfi_def_cfa_offset 40
 715              	.LVL82:
 716 0168 5D       		popq	%rbp
 717              	.LCFI32:
 718              		.cfi_def_cfa_offset 32
 719              	.LVL83:
 720 0169 415C     		popq	%r12
 721              	.LCFI33:
 722              		.cfi_def_cfa_offset 24
 723 016b 415D     		popq	%r13
 724              	.LCFI34:
 725              		.cfi_def_cfa_offset 16
 726              	.LVL84:
 727 016d 415E     		popq	%r14
 728              	.LCFI35:
 729              		.cfi_def_cfa_offset 8
 730              	.LVL85:
 731 016f C3       		ret
 732              		.cfi_endproc
 733              	.LFE68:
 735              		.section	.text.observe_clear,"ax",@progbits
 736              		.globl	observe_clear
 738              	observe_clear:
 739              	.LFB70:
 326:/home/baikal/workspace/C50/Huawei_IoT_Agent_Tiny_SDK_Linux//lwm2m/core/observe.c **** 
 327:/home/baikal/workspace/C50/Huawei_IoT_Agent_Tiny_SDK_Linux//lwm2m/core/observe.c **** void observe_clear(lwm2m_context_t *contextP,
 328:/home/baikal/workspace/C50/Huawei_IoT_Agent_Tiny_SDK_Linux//lwm2m/core/observe.c ****                    lwm2m_uri_t *uriP)
 329:/home/baikal/workspace/C50/Huawei_IoT_Agent_Tiny_SDK_Linux//lwm2m/core/observe.c **** {
 740              		.loc 1 329 0
 741              		.cfi_startproc
 742              	.LVL86:
 743 0000 4156     		pushq	%r14
 744              	.LCFI36:
 745              		.cfi_def_cfa_offset 16
 746              		.cfi_offset 14, -16
 747 0002 4155     		pushq	%r13
 748              	.LCFI37:
 749              		.cfi_def_cfa_offset 24
 750              		.cfi_offset 13, -24
 751 0004 4154     		pushq	%r12
 752              	.LCFI38:
 753              		.cfi_def_cfa_offset 32
 754              		.cfi_offset 12, -32
 755 0006 55       		pushq	%rbp
 756              	.LCFI39:
 757              		.cfi_def_cfa_offset 40
 758              		.cfi_offset 6, -40
 759 0007 53       		pushq	%rbx
 760              	.LCFI40:
GAS LISTING /tmp/ccGR9aQU.s 			page 24


 761              		.cfi_def_cfa_offset 48
 762              		.cfi_offset 3, -48
 763 0008 4989FD   		movq	%rdi, %r13
 764 000b 4989F4   		movq	%rsi, %r12
 330:/home/baikal/workspace/C50/Huawei_IoT_Agent_Tiny_SDK_Linux//lwm2m/core/observe.c ****     lwm2m_observed_t *observedP;
 331:/home/baikal/workspace/C50/Huawei_IoT_Agent_Tiny_SDK_Linux//lwm2m/core/observe.c **** 
 332:/home/baikal/workspace/C50/Huawei_IoT_Agent_Tiny_SDK_Linux//lwm2m/core/observe.c ****     LOG_URI(uriP);
 333:/home/baikal/workspace/C50/Huawei_IoT_Agent_Tiny_SDK_Linux//lwm2m/core/observe.c **** 
 334:/home/baikal/workspace/C50/Huawei_IoT_Agent_Tiny_SDK_Linux//lwm2m/core/observe.c ****     observedP = contextP->observedList;
 765              		.loc 1 334 0
 766 000e 488B6F40 		movq	64(%rdi), %rbp
 767              	.LVL87:
 335:/home/baikal/workspace/C50/Huawei_IoT_Agent_Tiny_SDK_Linux//lwm2m/core/observe.c ****     while(observedP != NULL)
 768              		.loc 1 335 0
 769 0012 EB76     		jmp	.L57
 770              	.LVL88:
 771              	.L64:
 336:/home/baikal/workspace/C50/Huawei_IoT_Agent_Tiny_SDK_Linux//lwm2m/core/observe.c ****     {
 337:/home/baikal/workspace/C50/Huawei_IoT_Agent_Tiny_SDK_Linux//lwm2m/core/observe.c ****         if (observedP->uri.objectId == uriP->objectId
 772              		.loc 1 337 0
 773 0014 410FB744 		movzwl	2(%r12), %eax
 773      2402
 774 001a 6639450A 		cmpw	%ax, 10(%rbp)
 775 001e 7566     		jne	.L58
 338:/home/baikal/workspace/C50/Huawei_IoT_Agent_Tiny_SDK_Linux//lwm2m/core/observe.c ****                 && (LWM2M_URI_IS_SET_INSTANCE(uriP) == false
 776              		.loc 1 338 0
 777 0020 41F60424 		testb	$2, (%r12)
 777      02
 778 0025 740C     		je	.L59
 339:/home/baikal/workspace/C50/Huawei_IoT_Agent_Tiny_SDK_Linux//lwm2m/core/observe.c ****                     || observedP->uri.instanceId == uriP->instanceId))
 779              		.loc 1 339 0
 780 0027 410FB744 		movzwl	4(%r12), %eax
 780      2404
 781 002d 6639450C 		cmpw	%ax, 12(%rbp)
 782 0031 7553     		jne	.L58
 783              	.L59:
 784              	.LBB39:
 340:/home/baikal/workspace/C50/Huawei_IoT_Agent_Tiny_SDK_Linux//lwm2m/core/observe.c ****         {
 341:/home/baikal/workspace/C50/Huawei_IoT_Agent_Tiny_SDK_Linux//lwm2m/core/observe.c ****             lwm2m_observed_t *nextP;
 342:/home/baikal/workspace/C50/Huawei_IoT_Agent_Tiny_SDK_Linux//lwm2m/core/observe.c ****             lwm2m_watcher_t *watcherP;
 343:/home/baikal/workspace/C50/Huawei_IoT_Agent_Tiny_SDK_Linux//lwm2m/core/observe.c **** 
 344:/home/baikal/workspace/C50/Huawei_IoT_Agent_Tiny_SDK_Linux//lwm2m/core/observe.c ****             atiny_mutex_lock(contextP->observe_mutex);
 785              		.loc 1 344 0
 786 0033 498B7D48 		movq	72(%r13), %rdi
 787 0037 E8000000 		call	atiny_mutex_lock
 787      00
 788              	.LVL89:
 345:/home/baikal/workspace/C50/Huawei_IoT_Agent_Tiny_SDK_Linux//lwm2m/core/observe.c ****             nextP = observedP->next;
 789              		.loc 1 345 0
 790 003c 4C8B7500 		movq	0(%rbp), %r14
 791              	.LVL90:
 346:/home/baikal/workspace/C50/Huawei_IoT_Agent_Tiny_SDK_Linux//lwm2m/core/observe.c **** 
 347:/home/baikal/workspace/C50/Huawei_IoT_Agent_Tiny_SDK_Linux//lwm2m/core/observe.c ****             for (watcherP = observedP->watcherList; watcherP != NULL; watcherP = watcherP->next)
 792              		.loc 1 347 0
 793 0040 488B5D10 		movq	16(%rbp), %rbx
 794              	.LVL91:
 795 0044 EB11     		jmp	.L60
GAS LISTING /tmp/ccGR9aQU.s 			page 25


 796              	.L62:
 348:/home/baikal/workspace/C50/Huawei_IoT_Agent_Tiny_SDK_Linux//lwm2m/core/observe.c ****             {
 349:/home/baikal/workspace/C50/Huawei_IoT_Agent_Tiny_SDK_Linux//lwm2m/core/observe.c ****                 if (watcherP->parameters != NULL) lwm2m_free(watcherP->parameters);
 797              		.loc 1 349 0
 798 0046 488B7B18 		movq	24(%rbx), %rdi
 799 004a 4885FF   		testq	%rdi, %rdi
 800 004d 7405     		je	.L61
 801              		.loc 1 349 0 is_stmt 0 discriminator 1
 802 004f E8000000 		call	lwm2m_free
 802      00
 803              	.LVL92:
 804              	.L61:
 347:/home/baikal/workspace/C50/Huawei_IoT_Agent_Tiny_SDK_Linux//lwm2m/core/observe.c ****             {
 805              		.loc 1 347 0 is_stmt 1 discriminator 2
 806 0054 488B1B   		movq	(%rbx), %rbx
 807              	.LVL93:
 808              	.L60:
 347:/home/baikal/workspace/C50/Huawei_IoT_Agent_Tiny_SDK_Linux//lwm2m/core/observe.c ****             {
 809              		.loc 1 347 0 is_stmt 0 discriminator 1
 810 0057 4885DB   		testq	%rbx, %rbx
 811 005a 75EA     		jne	.L62
 350:/home/baikal/workspace/C50/Huawei_IoT_Agent_Tiny_SDK_Linux//lwm2m/core/observe.c ****             }
 351:/home/baikal/workspace/C50/Huawei_IoT_Agent_Tiny_SDK_Linux//lwm2m/core/observe.c ****             LWM2M_LIST_FREE(observedP->watcherList);
 812              		.loc 1 351 0 is_stmt 1
 813 005c 488B7D10 		movq	16(%rbp), %rdi
 814 0060 E8000000 		call	lwm2m_list_free
 814      00
 815              	.LVL94:
 352:/home/baikal/workspace/C50/Huawei_IoT_Agent_Tiny_SDK_Linux//lwm2m/core/observe.c **** 
 353:/home/baikal/workspace/C50/Huawei_IoT_Agent_Tiny_SDK_Linux//lwm2m/core/observe.c ****             prv_unlinkObserved(contextP, observedP);
 816              		.loc 1 353 0
 817 0065 4889EE   		movq	%rbp, %rsi
 818 0068 4C89EF   		movq	%r13, %rdi
 819 006b E8000000 		call	prv_unlinkObserved
 819      00
 820              	.LVL95:
 354:/home/baikal/workspace/C50/Huawei_IoT_Agent_Tiny_SDK_Linux//lwm2m/core/observe.c ****             lwm2m_free(observedP);
 821              		.loc 1 354 0
 822 0070 4889EF   		movq	%rbp, %rdi
 823 0073 E8000000 		call	lwm2m_free
 823      00
 824              	.LVL96:
 355:/home/baikal/workspace/C50/Huawei_IoT_Agent_Tiny_SDK_Linux//lwm2m/core/observe.c **** 
 356:/home/baikal/workspace/C50/Huawei_IoT_Agent_Tiny_SDK_Linux//lwm2m/core/observe.c ****             observedP = nextP;
 357:/home/baikal/workspace/C50/Huawei_IoT_Agent_Tiny_SDK_Linux//lwm2m/core/observe.c ****             atiny_mutex_unlock(contextP->observe_mutex);
 825              		.loc 1 357 0
 826 0078 498B7D48 		movq	72(%r13), %rdi
 827 007c E8000000 		call	atiny_mutex_unlock
 827      00
 828              	.LVL97:
 356:/home/baikal/workspace/C50/Huawei_IoT_Agent_Tiny_SDK_Linux//lwm2m/core/observe.c ****             atiny_mutex_unlock(contextP->observe_mutex);
 829              		.loc 1 356 0
 830 0081 4C89F5   		movq	%r14, %rbp
 831              	.LBE39:
 340:/home/baikal/workspace/C50/Huawei_IoT_Agent_Tiny_SDK_Linux//lwm2m/core/observe.c ****             lwm2m_observed_t *nextP;
 832              		.loc 1 340 0
 833 0084 EB04     		jmp	.L57
GAS LISTING /tmp/ccGR9aQU.s 			page 26


 834              	.LVL98:
 835              	.L58:
 358:/home/baikal/workspace/C50/Huawei_IoT_Agent_Tiny_SDK_Linux//lwm2m/core/observe.c ****         }
 359:/home/baikal/workspace/C50/Huawei_IoT_Agent_Tiny_SDK_Linux//lwm2m/core/observe.c ****         else
 360:/home/baikal/workspace/C50/Huawei_IoT_Agent_Tiny_SDK_Linux//lwm2m/core/observe.c ****         {
 361:/home/baikal/workspace/C50/Huawei_IoT_Agent_Tiny_SDK_Linux//lwm2m/core/observe.c ****             observedP = observedP->next;
 836              		.loc 1 361 0
 837 0086 488B6D00 		movq	0(%rbp), %rbp
 838              	.LVL99:
 839              	.L57:
 335:/home/baikal/workspace/C50/Huawei_IoT_Agent_Tiny_SDK_Linux//lwm2m/core/observe.c ****     {
 840              		.loc 1 335 0
 841 008a 4885ED   		testq	%rbp, %rbp
 842 008d 7585     		jne	.L64
 362:/home/baikal/workspace/C50/Huawei_IoT_Agent_Tiny_SDK_Linux//lwm2m/core/observe.c ****         }
 363:/home/baikal/workspace/C50/Huawei_IoT_Agent_Tiny_SDK_Linux//lwm2m/core/observe.c ****     }
 364:/home/baikal/workspace/C50/Huawei_IoT_Agent_Tiny_SDK_Linux//lwm2m/core/observe.c **** }
 843              		.loc 1 364 0
 844 008f 5B       		popq	%rbx
 845              	.LCFI41:
 846              		.cfi_def_cfa_offset 40
 847 0090 5D       		popq	%rbp
 848              	.LCFI42:
 849              		.cfi_def_cfa_offset 32
 850              	.LVL100:
 851 0091 415C     		popq	%r12
 852              	.LCFI43:
 853              		.cfi_def_cfa_offset 24
 854              	.LVL101:
 855 0093 415D     		popq	%r13
 856              	.LCFI44:
 857              		.cfi_def_cfa_offset 16
 858              	.LVL102:
 859 0095 415E     		popq	%r14
 860              	.LCFI45:
 861              		.cfi_def_cfa_offset 8
 862 0097 C3       		ret
 863              		.cfi_endproc
 864              	.LFE70:
 866              		.section	.text.observe_setParameters,"ax",@progbits
 867              		.globl	observe_setParameters
 869              	observe_setParameters:
 870              	.LFB71:
 365:/home/baikal/workspace/C50/Huawei_IoT_Agent_Tiny_SDK_Linux//lwm2m/core/observe.c **** 
 366:/home/baikal/workspace/C50/Huawei_IoT_Agent_Tiny_SDK_Linux//lwm2m/core/observe.c **** uint8_t observe_setParameters(lwm2m_context_t *contextP,
 367:/home/baikal/workspace/C50/Huawei_IoT_Agent_Tiny_SDK_Linux//lwm2m/core/observe.c ****                               lwm2m_uri_t *uriP,
 368:/home/baikal/workspace/C50/Huawei_IoT_Agent_Tiny_SDK_Linux//lwm2m/core/observe.c ****                               lwm2m_server_t *serverP,
 369:/home/baikal/workspace/C50/Huawei_IoT_Agent_Tiny_SDK_Linux//lwm2m/core/observe.c ****                               lwm2m_attributes_t *attrP)
 370:/home/baikal/workspace/C50/Huawei_IoT_Agent_Tiny_SDK_Linux//lwm2m/core/observe.c **** {
 871              		.loc 1 370 0
 872              		.cfi_startproc
 873              	.LVL103:
 371:/home/baikal/workspace/C50/Huawei_IoT_Agent_Tiny_SDK_Linux//lwm2m/core/observe.c ****     uint8_t result;
 372:/home/baikal/workspace/C50/Huawei_IoT_Agent_Tiny_SDK_Linux//lwm2m/core/observe.c ****     lwm2m_watcher_t *watcherP;
 373:/home/baikal/workspace/C50/Huawei_IoT_Agent_Tiny_SDK_Linux//lwm2m/core/observe.c **** 
 374:/home/baikal/workspace/C50/Huawei_IoT_Agent_Tiny_SDK_Linux//lwm2m/core/observe.c ****     LOG_URI(uriP);
 375:/home/baikal/workspace/C50/Huawei_IoT_Agent_Tiny_SDK_Linux//lwm2m/core/observe.c ****     LOG_ARG("toSet: %08X, toClear: %08X, minPeriod: %d, maxPeriod: %d, greaterThan: %f, lessThan: %
GAS LISTING /tmp/ccGR9aQU.s 			page 27


 376:/home/baikal/workspace/C50/Huawei_IoT_Agent_Tiny_SDK_Linux//lwm2m/core/observe.c ****             attrP->toSet, attrP->toClear, attrP->minPeriod, attrP->maxPeriod, attrP->greaterThan, a
 377:/home/baikal/workspace/C50/Huawei_IoT_Agent_Tiny_SDK_Linux//lwm2m/core/observe.c **** 
 378:/home/baikal/workspace/C50/Huawei_IoT_Agent_Tiny_SDK_Linux//lwm2m/core/observe.c ****     if (!LWM2M_URI_IS_SET_INSTANCE(uriP) && LWM2M_URI_IS_SET_RESOURCE(uriP)) return COAP_400_BAD_RE
 874              		.loc 1 378 0
 875 0000 0FB606   		movzbl	(%rsi), %eax
 876 0003 83E003   		andl	$3, %eax
 877 0006 3C01     		cmpb	$1, %al
 878 0008 0F847201 		je	.L82
 878      0000
 370:/home/baikal/workspace/C50/Huawei_IoT_Agent_Tiny_SDK_Linux//lwm2m/core/observe.c ****     uint8_t result;
 879              		.loc 1 370 0
 880 000e 4155     		pushq	%r13
 881              	.LCFI46:
 882              		.cfi_def_cfa_offset 16
 883              		.cfi_offset 13, -16
 884 0010 4154     		pushq	%r12
 885              	.LCFI47:
 886              		.cfi_def_cfa_offset 24
 887              		.cfi_offset 12, -24
 888 0012 55       		pushq	%rbp
 889              	.LCFI48:
 890              		.cfi_def_cfa_offset 32
 891              		.cfi_offset 6, -32
 892 0013 53       		pushq	%rbx
 893              	.LCFI49:
 894              		.cfi_def_cfa_offset 40
 895              		.cfi_offset 3, -40
 896 0014 4883EC08 		subq	$8, %rsp
 897              	.LCFI50:
 898              		.cfi_def_cfa_offset 48
 899 0018 4889CD   		movq	%rcx, %rbp
 900 001b 4989D4   		movq	%rdx, %r12
 901 001e 4889F3   		movq	%rsi, %rbx
 902 0021 4989FD   		movq	%rdi, %r13
 379:/home/baikal/workspace/C50/Huawei_IoT_Agent_Tiny_SDK_Linux//lwm2m/core/observe.c **** 
 380:/home/baikal/workspace/C50/Huawei_IoT_Agent_Tiny_SDK_Linux//lwm2m/core/observe.c ****     result = object_checkReadable(contextP, uriP);
 903              		.loc 1 380 0
 904 0024 E8000000 		call	object_checkReadable
 904      00
 905              	.LVL104:
 381:/home/baikal/workspace/C50/Huawei_IoT_Agent_Tiny_SDK_Linux//lwm2m/core/observe.c ****     if (COAP_205_CONTENT != result) return result;
 906              		.loc 1 381 0
 907 0029 3C45     		cmpb	$69, %al
 908 002b 0F857601 		jne	.L67
 908      0000
 382:/home/baikal/workspace/C50/Huawei_IoT_Agent_Tiny_SDK_Linux//lwm2m/core/observe.c **** 
 383:/home/baikal/workspace/C50/Huawei_IoT_Agent_Tiny_SDK_Linux//lwm2m/core/observe.c ****     if (0 != (attrP->toSet & ATTR_FLAG_NUMERIC))
 909              		.loc 1 383 0
 910 0031 F645001C 		testb	$28, 0(%rbp)
 911 0035 7413     		je	.L68
 384:/home/baikal/workspace/C50/Huawei_IoT_Agent_Tiny_SDK_Linux//lwm2m/core/observe.c ****     {
 385:/home/baikal/workspace/C50/Huawei_IoT_Agent_Tiny_SDK_Linux//lwm2m/core/observe.c ****         result = object_checkNumeric(contextP, uriP);
 912              		.loc 1 385 0
 913 0037 4889DE   		movq	%rbx, %rsi
 914 003a 4C89EF   		movq	%r13, %rdi
 915 003d E8000000 		call	object_checkNumeric
 915      00
GAS LISTING /tmp/ccGR9aQU.s 			page 28


 916              	.LVL105:
 386:/home/baikal/workspace/C50/Huawei_IoT_Agent_Tiny_SDK_Linux//lwm2m/core/observe.c ****         if (COAP_205_CONTENT != result) return result;
 917              		.loc 1 386 0
 918 0042 3C45     		cmpb	$69, %al
 919 0044 0F855D01 		jne	.L67
 919      0000
 920              	.L68:
 387:/home/baikal/workspace/C50/Huawei_IoT_Agent_Tiny_SDK_Linux//lwm2m/core/observe.c ****     }
 388:/home/baikal/workspace/C50/Huawei_IoT_Agent_Tiny_SDK_Linux//lwm2m/core/observe.c **** 
 389:/home/baikal/workspace/C50/Huawei_IoT_Agent_Tiny_SDK_Linux//lwm2m/core/observe.c ****     watcherP = prv_getWatcher(contextP, uriP, serverP);
 921              		.loc 1 389 0
 922 004a 4C89E2   		movq	%r12, %rdx
 923 004d 4889DE   		movq	%rbx, %rsi
 924 0050 4C89EF   		movq	%r13, %rdi
 925 0053 E8000000 		call	prv_getWatcher
 925      00
 926              	.LVL106:
 927 0058 4889C3   		movq	%rax, %rbx
 928              	.LVL107:
 390:/home/baikal/workspace/C50/Huawei_IoT_Agent_Tiny_SDK_Linux//lwm2m/core/observe.c ****     if (watcherP == NULL) return COAP_500_INTERNAL_SERVER_ERROR;
 929              		.loc 1 390 0
 930 005b 4885C0   		testq	%rax, %rax
 931 005e 0F842201 		je	.L85
 931      0000
 391:/home/baikal/workspace/C50/Huawei_IoT_Agent_Tiny_SDK_Linux//lwm2m/core/observe.c **** 
 392:/home/baikal/workspace/C50/Huawei_IoT_Agent_Tiny_SDK_Linux//lwm2m/core/observe.c ****     // Check rule lt?value + 2*stp?values < gt?value
 393:/home/baikal/workspace/C50/Huawei_IoT_Agent_Tiny_SDK_Linux//lwm2m/core/observe.c ****     if ((((attrP->toSet | (watcherP->parameters ? watcherP->parameters->toSet : 0)) & ~attrP->toCle
 932              		.loc 1 393 0
 933 0064 0FB67D00 		movzbl	0(%rbp), %edi
 934 0068 400FB6C7 		movzbl	%dil, %eax
 935              	.LVL108:
 936 006c 488B4B18 		movq	24(%rbx), %rcx
 937 0070 4885C9   		testq	%rcx, %rcx
 938 0073 7405     		je	.L86
 939              		.loc 1 393 0 is_stmt 0 discriminator 1
 940 0075 0FB611   		movzbl	(%rcx), %edx
 941 0078 EB05     		jmp	.L69
 942              	.L86:
 943              		.loc 1 393 0
 944 007a BA000000 		movl	$0, %edx
 944      00
 945              	.L69:
 946              		.loc 1 393 0 discriminator 4
 947 007f 09D0     		orl	%edx, %eax
 948 0081 0FB67501 		movzbl	1(%rbp), %esi
 949 0085 400FB6D6 		movzbl	%sil, %edx
 950 0089 F7D2     		notl	%edx
 951 008b 21D0     		andl	%edx, %eax
 952 008d 83E01C   		andl	$28, %eax
 953 0090 83F81C   		cmpl	$28, %eax
 954 0093 7547     		jne	.L70
 955              	.LBB40:
 394:/home/baikal/workspace/C50/Huawei_IoT_Agent_Tiny_SDK_Linux//lwm2m/core/observe.c ****     {
 395:/home/baikal/workspace/C50/Huawei_IoT_Agent_Tiny_SDK_Linux//lwm2m/core/observe.c ****         float gt;
 396:/home/baikal/workspace/C50/Huawei_IoT_Agent_Tiny_SDK_Linux//lwm2m/core/observe.c ****         float lt;
 397:/home/baikal/workspace/C50/Huawei_IoT_Agent_Tiny_SDK_Linux//lwm2m/core/observe.c ****         float stp;
 398:/home/baikal/workspace/C50/Huawei_IoT_Agent_Tiny_SDK_Linux//lwm2m/core/observe.c **** 
GAS LISTING /tmp/ccGR9aQU.s 			page 29


 399:/home/baikal/workspace/C50/Huawei_IoT_Agent_Tiny_SDK_Linux//lwm2m/core/observe.c ****         if (0 != (attrP->toSet & LWM2M_ATTR_FLAG_GREATER_THAN))
 956              		.loc 1 399 0 is_stmt 1
 957 0095 40F6C704 		testb	$4, %dil
 958 0099 7407     		je	.L71
 400:/home/baikal/workspace/C50/Huawei_IoT_Agent_Tiny_SDK_Linux//lwm2m/core/observe.c ****         {
 401:/home/baikal/workspace/C50/Huawei_IoT_Agent_Tiny_SDK_Linux//lwm2m/core/observe.c ****             gt = attrP->greaterThan;
 959              		.loc 1 401 0
 960 009b F20F5A4D 		cvtsd2ss	16(%rbp), %xmm1
 960      10
 961              	.LVL109:
 962 00a0 EB05     		jmp	.L72
 963              	.LVL110:
 964              	.L71:
 402:/home/baikal/workspace/C50/Huawei_IoT_Agent_Tiny_SDK_Linux//lwm2m/core/observe.c ****         }
 403:/home/baikal/workspace/C50/Huawei_IoT_Agent_Tiny_SDK_Linux//lwm2m/core/observe.c ****         else
 404:/home/baikal/workspace/C50/Huawei_IoT_Agent_Tiny_SDK_Linux//lwm2m/core/observe.c ****         {
 405:/home/baikal/workspace/C50/Huawei_IoT_Agent_Tiny_SDK_Linux//lwm2m/core/observe.c ****             gt = watcherP->parameters->greaterThan;
 965              		.loc 1 405 0
 966 00a2 F20F5A49 		cvtsd2ss	16(%rcx), %xmm1
 966      10
 967              	.LVL111:
 968              	.L72:
 406:/home/baikal/workspace/C50/Huawei_IoT_Agent_Tiny_SDK_Linux//lwm2m/core/observe.c ****         }
 407:/home/baikal/workspace/C50/Huawei_IoT_Agent_Tiny_SDK_Linux//lwm2m/core/observe.c ****         if (0 != (attrP->toSet & LWM2M_ATTR_FLAG_LESS_THAN))
 969              		.loc 1 407 0
 970 00a7 40F6C708 		testb	$8, %dil
 971 00ab 7407     		je	.L73
 408:/home/baikal/workspace/C50/Huawei_IoT_Agent_Tiny_SDK_Linux//lwm2m/core/observe.c ****         {
 409:/home/baikal/workspace/C50/Huawei_IoT_Agent_Tiny_SDK_Linux//lwm2m/core/observe.c ****             lt = attrP->lessThan;
 972              		.loc 1 409 0
 973 00ad F20F5A55 		cvtsd2ss	24(%rbp), %xmm2
 973      18
 974              	.LVL112:
 975 00b2 EB05     		jmp	.L74
 976              	.LVL113:
 977              	.L73:
 410:/home/baikal/workspace/C50/Huawei_IoT_Agent_Tiny_SDK_Linux//lwm2m/core/observe.c ****         }
 411:/home/baikal/workspace/C50/Huawei_IoT_Agent_Tiny_SDK_Linux//lwm2m/core/observe.c ****         else
 412:/home/baikal/workspace/C50/Huawei_IoT_Agent_Tiny_SDK_Linux//lwm2m/core/observe.c ****         {
 413:/home/baikal/workspace/C50/Huawei_IoT_Agent_Tiny_SDK_Linux//lwm2m/core/observe.c ****             lt = watcherP->parameters->lessThan;
 978              		.loc 1 413 0
 979 00b4 F20F5A51 		cvtsd2ss	24(%rcx), %xmm2
 979      18
 980              	.LVL114:
 981              	.L74:
 414:/home/baikal/workspace/C50/Huawei_IoT_Agent_Tiny_SDK_Linux//lwm2m/core/observe.c ****         }
 415:/home/baikal/workspace/C50/Huawei_IoT_Agent_Tiny_SDK_Linux//lwm2m/core/observe.c ****         if (0 != (attrP->toSet & LWM2M_ATTR_FLAG_STEP))
 982              		.loc 1 415 0
 983 00b9 40F6C710 		testb	$16, %dil
 984 00bd 7407     		je	.L75
 416:/home/baikal/workspace/C50/Huawei_IoT_Agent_Tiny_SDK_Linux//lwm2m/core/observe.c ****         {
 417:/home/baikal/workspace/C50/Huawei_IoT_Agent_Tiny_SDK_Linux//lwm2m/core/observe.c ****             stp = attrP->step;
 985              		.loc 1 417 0
 986 00bf F20F5A45 		cvtsd2ss	32(%rbp), %xmm0
 986      20
 987              	.LVL115:
 988 00c4 EB05     		jmp	.L76
GAS LISTING /tmp/ccGR9aQU.s 			page 30


 989              	.LVL116:
 990              	.L75:
 418:/home/baikal/workspace/C50/Huawei_IoT_Agent_Tiny_SDK_Linux//lwm2m/core/observe.c ****         }
 419:/home/baikal/workspace/C50/Huawei_IoT_Agent_Tiny_SDK_Linux//lwm2m/core/observe.c ****         else
 420:/home/baikal/workspace/C50/Huawei_IoT_Agent_Tiny_SDK_Linux//lwm2m/core/observe.c ****         {
 421:/home/baikal/workspace/C50/Huawei_IoT_Agent_Tiny_SDK_Linux//lwm2m/core/observe.c ****             stp = watcherP->parameters->step;
 991              		.loc 1 421 0
 992 00c6 F20F5A41 		cvtsd2ss	32(%rcx), %xmm0
 992      20
 993              	.LVL117:
 994              	.L76:
 422:/home/baikal/workspace/C50/Huawei_IoT_Agent_Tiny_SDK_Linux//lwm2m/core/observe.c ****         }
 423:/home/baikal/workspace/C50/Huawei_IoT_Agent_Tiny_SDK_Linux//lwm2m/core/observe.c **** 
 424:/home/baikal/workspace/C50/Huawei_IoT_Agent_Tiny_SDK_Linux//lwm2m/core/observe.c ****         if (lt + (2 * stp) >= gt) return COAP_400_BAD_REQUEST;
 995              		.loc 1 424 0
 996 00cb F30F58C0 		addss	%xmm0, %xmm0
 997              	.LVL118:
 998 00cf F30F58C2 		addss	%xmm2, %xmm0
 999 00d3 0F2EC1   		ucomiss	%xmm1, %xmm0
 1000 00d6 0F83B100 		jnb	.L87
 1000      0000
 1001              	.LVL119:
 1002              	.L70:
 1003              	.LBE40:
 425:/home/baikal/workspace/C50/Huawei_IoT_Agent_Tiny_SDK_Linux//lwm2m/core/observe.c ****     }
 426:/home/baikal/workspace/C50/Huawei_IoT_Agent_Tiny_SDK_Linux//lwm2m/core/observe.c **** 
 427:/home/baikal/workspace/C50/Huawei_IoT_Agent_Tiny_SDK_Linux//lwm2m/core/observe.c ****     if (watcherP->parameters == NULL)
 1004              		.loc 1 427 0
 1005 00dc 4885C9   		testq	%rcx, %rcx
 1006 00df 7537     		jne	.L77
 428:/home/baikal/workspace/C50/Huawei_IoT_Agent_Tiny_SDK_Linux//lwm2m/core/observe.c ****     {
 429:/home/baikal/workspace/C50/Huawei_IoT_Agent_Tiny_SDK_Linux//lwm2m/core/observe.c ****         if (attrP->toSet != 0)
 1007              		.loc 1 429 0
 1008 00e1 4084FF   		testb	%dil, %dil
 1009 00e4 0F84AA00 		je	.L88
 1009      0000
 430:/home/baikal/workspace/C50/Huawei_IoT_Agent_Tiny_SDK_Linux//lwm2m/core/observe.c ****         {
 431:/home/baikal/workspace/C50/Huawei_IoT_Agent_Tiny_SDK_Linux//lwm2m/core/observe.c ****             watcherP->parameters = (lwm2m_attributes_t *)lwm2m_malloc(sizeof(lwm2m_attributes_t));
 1010              		.loc 1 431 0
 1011 00ea BF280000 		movl	$40, %edi
 1011      00
 1012 00ef E8000000 		call	lwm2m_malloc
 1012      00
 1013              	.LVL120:
 1014 00f4 48894318 		movq	%rax, 24(%rbx)
 432:/home/baikal/workspace/C50/Huawei_IoT_Agent_Tiny_SDK_Linux//lwm2m/core/observe.c ****             if (watcherP->parameters == NULL) return COAP_500_INTERNAL_SERVER_ERROR;
 1015              		.loc 1 432 0
 1016 00f8 4885C0   		testq	%rax, %rax
 1017 00fb 0F849A00 		je	.L89
 1017      0000
 1018              	.LVL121:
 1019              	.LBB41:
 1020              	.LBB42:
  53:/usr/include/x86_64-linux-gnu/bits/string3.h **** }
 1021              		.loc 2 53 0
 1022 0101 B90A0000 		movl	$10, %ecx
 1022      00
GAS LISTING /tmp/ccGR9aQU.s 			page 31


 1023 0106 4889C7   		movq	%rax, %rdi
 1024 0109 4889EE   		movq	%rbp, %rsi
 1025 010c F3A5     		rep movsl
 1026              	.LBE42:
 1027              	.LBE41:
 433:/home/baikal/workspace/C50/Huawei_IoT_Agent_Tiny_SDK_Linux//lwm2m/core/observe.c ****             memcpy(watcherP->parameters, attrP, sizeof(lwm2m_attributes_t));
 434:/home/baikal/workspace/C50/Huawei_IoT_Agent_Tiny_SDK_Linux//lwm2m/core/observe.c ****         }
 435:/home/baikal/workspace/C50/Huawei_IoT_Agent_Tiny_SDK_Linux//lwm2m/core/observe.c ****     }
 436:/home/baikal/workspace/C50/Huawei_IoT_Agent_Tiny_SDK_Linux//lwm2m/core/observe.c ****     else
 437:/home/baikal/workspace/C50/Huawei_IoT_Agent_Tiny_SDK_Linux//lwm2m/core/observe.c ****     {
 438:/home/baikal/workspace/C50/Huawei_IoT_Agent_Tiny_SDK_Linux//lwm2m/core/observe.c ****         watcherP->parameters->toSet &= ~attrP->toClear;
 439:/home/baikal/workspace/C50/Huawei_IoT_Agent_Tiny_SDK_Linux//lwm2m/core/observe.c ****         if (attrP->toSet & LWM2M_ATTR_FLAG_MIN_PERIOD)
 440:/home/baikal/workspace/C50/Huawei_IoT_Agent_Tiny_SDK_Linux//lwm2m/core/observe.c ****         {
 441:/home/baikal/workspace/C50/Huawei_IoT_Agent_Tiny_SDK_Linux//lwm2m/core/observe.c ****             watcherP->parameters->minPeriod = attrP->minPeriod;
 442:/home/baikal/workspace/C50/Huawei_IoT_Agent_Tiny_SDK_Linux//lwm2m/core/observe.c ****         }
 443:/home/baikal/workspace/C50/Huawei_IoT_Agent_Tiny_SDK_Linux//lwm2m/core/observe.c ****         if (attrP->toSet & LWM2M_ATTR_FLAG_MAX_PERIOD)
 444:/home/baikal/workspace/C50/Huawei_IoT_Agent_Tiny_SDK_Linux//lwm2m/core/observe.c ****         {
 445:/home/baikal/workspace/C50/Huawei_IoT_Agent_Tiny_SDK_Linux//lwm2m/core/observe.c ****             watcherP->parameters->maxPeriod = attrP->maxPeriod;
 446:/home/baikal/workspace/C50/Huawei_IoT_Agent_Tiny_SDK_Linux//lwm2m/core/observe.c ****         }
 447:/home/baikal/workspace/C50/Huawei_IoT_Agent_Tiny_SDK_Linux//lwm2m/core/observe.c ****         if (attrP->toSet & LWM2M_ATTR_FLAG_GREATER_THAN)
 448:/home/baikal/workspace/C50/Huawei_IoT_Agent_Tiny_SDK_Linux//lwm2m/core/observe.c ****         {
 449:/home/baikal/workspace/C50/Huawei_IoT_Agent_Tiny_SDK_Linux//lwm2m/core/observe.c ****             watcherP->parameters->greaterThan = attrP->greaterThan;
 450:/home/baikal/workspace/C50/Huawei_IoT_Agent_Tiny_SDK_Linux//lwm2m/core/observe.c ****         }
 451:/home/baikal/workspace/C50/Huawei_IoT_Agent_Tiny_SDK_Linux//lwm2m/core/observe.c ****         if (attrP->toSet & LWM2M_ATTR_FLAG_LESS_THAN)
 452:/home/baikal/workspace/C50/Huawei_IoT_Agent_Tiny_SDK_Linux//lwm2m/core/observe.c ****         {
 453:/home/baikal/workspace/C50/Huawei_IoT_Agent_Tiny_SDK_Linux//lwm2m/core/observe.c ****             watcherP->parameters->lessThan = attrP->lessThan;
 454:/home/baikal/workspace/C50/Huawei_IoT_Agent_Tiny_SDK_Linux//lwm2m/core/observe.c ****         }
 455:/home/baikal/workspace/C50/Huawei_IoT_Agent_Tiny_SDK_Linux//lwm2m/core/observe.c ****         if (attrP->toSet & LWM2M_ATTR_FLAG_STEP)
 456:/home/baikal/workspace/C50/Huawei_IoT_Agent_Tiny_SDK_Linux//lwm2m/core/observe.c ****         {
 457:/home/baikal/workspace/C50/Huawei_IoT_Agent_Tiny_SDK_Linux//lwm2m/core/observe.c ****             watcherP->parameters->step = attrP->step;
 458:/home/baikal/workspace/C50/Huawei_IoT_Agent_Tiny_SDK_Linux//lwm2m/core/observe.c ****         }
 459:/home/baikal/workspace/C50/Huawei_IoT_Agent_Tiny_SDK_Linux//lwm2m/core/observe.c ****     }
 460:/home/baikal/workspace/C50/Huawei_IoT_Agent_Tiny_SDK_Linux//lwm2m/core/observe.c **** 
 461:/home/baikal/workspace/C50/Huawei_IoT_Agent_Tiny_SDK_Linux//lwm2m/core/observe.c ****     LOG_ARG("Final toSet: %08X, minPeriod: %d, maxPeriod: %d, greaterThan: %f, lessThan: %f, step: 
 462:/home/baikal/workspace/C50/Huawei_IoT_Agent_Tiny_SDK_Linux//lwm2m/core/observe.c ****             watcherP->parameters->toSet, watcherP->parameters->minPeriod, watcherP->parameters->max
 463:/home/baikal/workspace/C50/Huawei_IoT_Agent_Tiny_SDK_Linux//lwm2m/core/observe.c **** 
 464:/home/baikal/workspace/C50/Huawei_IoT_Agent_Tiny_SDK_Linux//lwm2m/core/observe.c ****     return COAP_204_CHANGED;
 1028              		.loc 1 464 0
 1029 010e B8440000 		movl	$68, %eax
 1029      00
 1030              	.LVL122:
 1031 0113 E98F0000 		jmp	.L67
 1031      00
 1032              	.LVL123:
 1033              	.L77:
 438:/home/baikal/workspace/C50/Huawei_IoT_Agent_Tiny_SDK_Linux//lwm2m/core/observe.c ****         if (attrP->toSet & LWM2M_ATTR_FLAG_MIN_PERIOD)
 1034              		.loc 1 438 0
 1035 0118 F7D6     		notl	%esi
 1036 011a 402031   		andb	%sil, (%rcx)
 439:/home/baikal/workspace/C50/Huawei_IoT_Agent_Tiny_SDK_Linux//lwm2m/core/observe.c ****         {
 1037              		.loc 1 439 0
 1038 011d F6450001 		testb	$1, 0(%rbp)
 1039 0121 740A     		je	.L78
 441:/home/baikal/workspace/C50/Huawei_IoT_Agent_Tiny_SDK_Linux//lwm2m/core/observe.c ****         }
 1040              		.loc 1 441 0
 1041 0123 488B4318 		movq	24(%rbx), %rax
 1042 0127 8B5504   		movl	4(%rbp), %edx
GAS LISTING /tmp/ccGR9aQU.s 			page 32


 1043 012a 895004   		movl	%edx, 4(%rax)
 1044              	.L78:
 443:/home/baikal/workspace/C50/Huawei_IoT_Agent_Tiny_SDK_Linux//lwm2m/core/observe.c ****         {
 1045              		.loc 1 443 0
 1046 012d F6450002 		testb	$2, 0(%rbp)
 1047 0131 740A     		je	.L79
 445:/home/baikal/workspace/C50/Huawei_IoT_Agent_Tiny_SDK_Linux//lwm2m/core/observe.c ****         }
 1048              		.loc 1 445 0
 1049 0133 488B4318 		movq	24(%rbx), %rax
 1050 0137 8B5508   		movl	8(%rbp), %edx
 1051 013a 895008   		movl	%edx, 8(%rax)
 1052              	.L79:
 447:/home/baikal/workspace/C50/Huawei_IoT_Agent_Tiny_SDK_Linux//lwm2m/core/observe.c ****         {
 1053              		.loc 1 447 0
 1054 013d F6450004 		testb	$4, 0(%rbp)
 1055 0141 740E     		je	.L80
 449:/home/baikal/workspace/C50/Huawei_IoT_Agent_Tiny_SDK_Linux//lwm2m/core/observe.c ****         }
 1056              		.loc 1 449 0
 1057 0143 488B4318 		movq	24(%rbx), %rax
 1058 0147 F20F1045 		movsd	16(%rbp), %xmm0
 1058      10
 1059 014c F20F1140 		movsd	%xmm0, 16(%rax)
 1059      10
 1060              	.L80:
 451:/home/baikal/workspace/C50/Huawei_IoT_Agent_Tiny_SDK_Linux//lwm2m/core/observe.c ****         {
 1061              		.loc 1 451 0
 1062 0151 F6450008 		testb	$8, 0(%rbp)
 1063 0155 740E     		je	.L81
 453:/home/baikal/workspace/C50/Huawei_IoT_Agent_Tiny_SDK_Linux//lwm2m/core/observe.c ****         }
 1064              		.loc 1 453 0
 1065 0157 488B4318 		movq	24(%rbx), %rax
 1066 015b F20F1045 		movsd	24(%rbp), %xmm0
 1066      18
 1067 0160 F20F1140 		movsd	%xmm0, 24(%rax)
 1067      18
 1068              	.L81:
 455:/home/baikal/workspace/C50/Huawei_IoT_Agent_Tiny_SDK_Linux//lwm2m/core/observe.c ****         {
 1069              		.loc 1 455 0
 1070 0165 F6450010 		testb	$16, 0(%rbp)
 1071 0169 7437     		je	.L90
 457:/home/baikal/workspace/C50/Huawei_IoT_Agent_Tiny_SDK_Linux//lwm2m/core/observe.c ****         }
 1072              		.loc 1 457 0
 1073 016b 488B4318 		movq	24(%rbx), %rax
 1074 016f F20F1045 		movsd	32(%rbp), %xmm0
 1074      20
 1075 0174 F20F1140 		movsd	%xmm0, 32(%rax)
 1075      20
 1076              		.loc 1 464 0
 1077 0179 B8440000 		movl	$68, %eax
 1077      00
 1078 017e EB27     		jmp	.L67
 1079              	.LVL124:
 1080              	.L82:
 1081              	.LCFI51:
 1082              		.cfi_def_cfa_offset 8
 1083              		.cfi_restore 3
 1084              		.cfi_restore 6
GAS LISTING /tmp/ccGR9aQU.s 			page 33


 1085              		.cfi_restore 12
 1086              		.cfi_restore 13
 378:/home/baikal/workspace/C50/Huawei_IoT_Agent_Tiny_SDK_Linux//lwm2m/core/observe.c **** 
 1087              		.loc 1 378 0
 1088 0180 B880FFFF 		movl	$-128, %eax
 1088      FF
 465:/home/baikal/workspace/C50/Huawei_IoT_Agent_Tiny_SDK_Linux//lwm2m/core/observe.c **** }
 1089              		.loc 1 465 0
 1090 0185 C3       		ret
 1091              	.LVL125:
 1092              	.L85:
 1093              	.LCFI52:
 1094              		.cfi_def_cfa_offset 48
 1095              		.cfi_offset 3, -40
 1096              		.cfi_offset 6, -32
 1097              		.cfi_offset 12, -24
 1098              		.cfi_offset 13, -16
 390:/home/baikal/workspace/C50/Huawei_IoT_Agent_Tiny_SDK_Linux//lwm2m/core/observe.c **** 
 1099              		.loc 1 390 0
 1100 0186 B8A0FFFF 		movl	$-96, %eax
 1100      FF
 1101              	.LVL126:
 1102 018b EB1A     		jmp	.L67
 1103              	.LVL127:
 1104              	.L87:
 1105              	.LBB43:
 424:/home/baikal/workspace/C50/Huawei_IoT_Agent_Tiny_SDK_Linux//lwm2m/core/observe.c ****     }
 1106              		.loc 1 424 0
 1107 018d B880FFFF 		movl	$-128, %eax
 1107      FF
 1108 0192 EB13     		jmp	.L67
 1109              	.LVL128:
 1110              	.L88:
 1111              	.LBE43:
 464:/home/baikal/workspace/C50/Huawei_IoT_Agent_Tiny_SDK_Linux//lwm2m/core/observe.c **** }
 1112              		.loc 1 464 0
 1113 0194 B8440000 		movl	$68, %eax
 1113      00
 1114 0199 EB0C     		jmp	.L67
 1115              	.L89:
 432:/home/baikal/workspace/C50/Huawei_IoT_Agent_Tiny_SDK_Linux//lwm2m/core/observe.c ****             memcpy(watcherP->parameters, attrP, sizeof(lwm2m_attributes_t));
 1116              		.loc 1 432 0
 1117 019b B8A0FFFF 		movl	$-96, %eax
 1117      FF
 1118 01a0 EB05     		jmp	.L67
 1119              	.L90:
 464:/home/baikal/workspace/C50/Huawei_IoT_Agent_Tiny_SDK_Linux//lwm2m/core/observe.c **** }
 1120              		.loc 1 464 0
 1121 01a2 B8440000 		movl	$68, %eax
 1121      00
 1122              	.LVL129:
 1123              	.L67:
 1124              		.loc 1 465 0
 1125 01a7 4883C408 		addq	$8, %rsp
 1126              	.LCFI53:
 1127              		.cfi_def_cfa_offset 40
 1128 01ab 5B       		popq	%rbx
GAS LISTING /tmp/ccGR9aQU.s 			page 34


 1129              	.LCFI54:
 1130              		.cfi_restore 3
 1131              		.cfi_def_cfa_offset 32
 1132 01ac 5D       		popq	%rbp
 1133              	.LCFI55:
 1134              		.cfi_restore 6
 1135              		.cfi_def_cfa_offset 24
 1136              	.LVL130:
 1137 01ad 415C     		popq	%r12
 1138              	.LCFI56:
 1139              		.cfi_restore 12
 1140              		.cfi_def_cfa_offset 16
 1141              	.LVL131:
 1142 01af 415D     		popq	%r13
 1143              	.LCFI57:
 1144              		.cfi_restore 13
 1145              		.cfi_def_cfa_offset 8
 1146              	.LVL132:
 1147 01b1 C3       		ret
 1148              		.cfi_endproc
 1149              	.LFE71:
 1151              		.section	.text.observe_findByUri,"ax",@progbits
 1152              		.globl	observe_findByUri
 1154              	observe_findByUri:
 1155              	.LFB72:
 466:/home/baikal/workspace/C50/Huawei_IoT_Agent_Tiny_SDK_Linux//lwm2m/core/observe.c **** 
 467:/home/baikal/workspace/C50/Huawei_IoT_Agent_Tiny_SDK_Linux//lwm2m/core/observe.c **** lwm2m_observed_t *observe_findByUri(lwm2m_context_t *contextP,
 468:/home/baikal/workspace/C50/Huawei_IoT_Agent_Tiny_SDK_Linux//lwm2m/core/observe.c ****                                     lwm2m_uri_t *uriP)
 469:/home/baikal/workspace/C50/Huawei_IoT_Agent_Tiny_SDK_Linux//lwm2m/core/observe.c **** {
 1156              		.loc 1 469 0
 1157              		.cfi_startproc
 1158              	.LVL133:
 470:/home/baikal/workspace/C50/Huawei_IoT_Agent_Tiny_SDK_Linux//lwm2m/core/observe.c ****     lwm2m_observed_t *targetP;
 471:/home/baikal/workspace/C50/Huawei_IoT_Agent_Tiny_SDK_Linux//lwm2m/core/observe.c **** 
 472:/home/baikal/workspace/C50/Huawei_IoT_Agent_Tiny_SDK_Linux//lwm2m/core/observe.c ****     LOG_URI(uriP);
 473:/home/baikal/workspace/C50/Huawei_IoT_Agent_Tiny_SDK_Linux//lwm2m/core/observe.c ****     targetP = contextP->observedList;
 1159              		.loc 1 473 0
 1160 0000 488B4740 		movq	64(%rdi), %rax
 1161              	.LVL134:
 474:/home/baikal/workspace/C50/Huawei_IoT_Agent_Tiny_SDK_Linux//lwm2m/core/observe.c ****     while (targetP != NULL)
 1162              		.loc 1 474 0
 1163 0004 EB50     		jmp	.L93
 1164              	.LVL135:
 1165              	.L99:
 475:/home/baikal/workspace/C50/Huawei_IoT_Agent_Tiny_SDK_Linux//lwm2m/core/observe.c ****     {
 476:/home/baikal/workspace/C50/Huawei_IoT_Agent_Tiny_SDK_Linux//lwm2m/core/observe.c ****         if (targetP->uri.objectId == uriP->objectId)
 1166              		.loc 1 476 0
 1167 0006 0FB77E02 		movzwl	2(%rsi), %edi
 1168 000a 6639780A 		cmpw	%di, 10(%rax)
 1169 000e 7543     		jne	.L94
 477:/home/baikal/workspace/C50/Huawei_IoT_Agent_Tiny_SDK_Linux//lwm2m/core/observe.c ****         {
 478:/home/baikal/workspace/C50/Huawei_IoT_Agent_Tiny_SDK_Linux//lwm2m/core/observe.c ****             if ((!LWM2M_URI_IS_SET_INSTANCE(uriP) && !LWM2M_URI_IS_SET_INSTANCE(&(targetP->uri)))
 1170              		.loc 1 478 0
 1171 0010 0FB616   		movzbl	(%rsi), %edx
 1172 0013 89D1     		movl	%edx, %ecx
 1173 0015 83E102   		andl	$2, %ecx
 1174 0018 7506     		jne	.L95
GAS LISTING /tmp/ccGR9aQU.s 			page 35


 1175              		.loc 1 478 0 is_stmt 0 discriminator 1
 1176 001a F6400802 		testb	$2, 8(%rax)
 1177 001e 7414     		je	.L96
 1178              	.L95:
 479:/home/baikal/workspace/C50/Huawei_IoT_Agent_Tiny_SDK_Linux//lwm2m/core/observe.c ****                     || (LWM2M_URI_IS_SET_INSTANCE(uriP) && LWM2M_URI_IS_SET_INSTANCE(&(targetP->uri
 1179              		.loc 1 479 0 is_stmt 1
 1180 0020 84C9     		testb	%cl, %cl
 1181 0022 742F     		je	.L94
 1182              		.loc 1 479 0 is_stmt 0 discriminator 1
 1183 0024 F6400802 		testb	$2, 8(%rax)
 1184 0028 7429     		je	.L94
 1185              		.loc 1 479 0 discriminator 2
 1186 002a 0FB7480C 		movzwl	12(%rax), %ecx
 1187 002e 66394E04 		cmpw	%cx, 4(%rsi)
 1188 0032 751F     		jne	.L94
 1189              	.L96:
 480:/home/baikal/workspace/C50/Huawei_IoT_Agent_Tiny_SDK_Linux//lwm2m/core/observe.c ****             {
 481:/home/baikal/workspace/C50/Huawei_IoT_Agent_Tiny_SDK_Linux//lwm2m/core/observe.c ****                 if ((!LWM2M_URI_IS_SET_RESOURCE(uriP) && !LWM2M_URI_IS_SET_RESOURCE(&(targetP->uri)
 1190              		.loc 1 481 0 is_stmt 1
 1191 0034 83E201   		andl	$1, %edx
 1192 0037 7506     		jne	.L97
 1193              		.loc 1 481 0 is_stmt 0 discriminator 1
 1194 0039 F6400801 		testb	$1, 8(%rax)
 1195 003d 741C     		je	.L98
 1196              	.L97:
 482:/home/baikal/workspace/C50/Huawei_IoT_Agent_Tiny_SDK_Linux//lwm2m/core/observe.c ****                         || (LWM2M_URI_IS_SET_RESOURCE(uriP) && LWM2M_URI_IS_SET_RESOURCE(&(targetP-
 1197              		.loc 1 482 0 is_stmt 1
 1198 003f 84D2     		testb	%dl, %dl
 1199 0041 7410     		je	.L94
 1200              		.loc 1 482 0 is_stmt 0 discriminator 1
 1201 0043 F6400801 		testb	$1, 8(%rax)
 1202 0047 740A     		je	.L94
 1203              		.loc 1 482 0 discriminator 2
 1204 0049 0FB7500E 		movzwl	14(%rax), %edx
 1205 004d 66395606 		cmpw	%dx, 6(%rsi)
 1206 0051 7408     		je	.L98
 1207              	.L94:
 483:/home/baikal/workspace/C50/Huawei_IoT_Agent_Tiny_SDK_Linux//lwm2m/core/observe.c ****                 {
 484:/home/baikal/workspace/C50/Huawei_IoT_Agent_Tiny_SDK_Linux//lwm2m/core/observe.c ****                     LOG_ARG("Found one with%s observers.", targetP->watcherList ? "" : " no");
 485:/home/baikal/workspace/C50/Huawei_IoT_Agent_Tiny_SDK_Linux//lwm2m/core/observe.c ****                     LOG_URI(&(targetP->uri));
 486:/home/baikal/workspace/C50/Huawei_IoT_Agent_Tiny_SDK_Linux//lwm2m/core/observe.c ****                     return targetP;
 487:/home/baikal/workspace/C50/Huawei_IoT_Agent_Tiny_SDK_Linux//lwm2m/core/observe.c ****                 }
 488:/home/baikal/workspace/C50/Huawei_IoT_Agent_Tiny_SDK_Linux//lwm2m/core/observe.c ****             }
 489:/home/baikal/workspace/C50/Huawei_IoT_Agent_Tiny_SDK_Linux//lwm2m/core/observe.c ****         }
 490:/home/baikal/workspace/C50/Huawei_IoT_Agent_Tiny_SDK_Linux//lwm2m/core/observe.c ****         targetP = targetP->next;
 1208              		.loc 1 490 0 is_stmt 1
 1209 0053 488B00   		movq	(%rax), %rax
 1210              	.LVL136:
 1211              	.L93:
 474:/home/baikal/workspace/C50/Huawei_IoT_Agent_Tiny_SDK_Linux//lwm2m/core/observe.c ****     {
 1212              		.loc 1 474 0
 1213 0056 4885C0   		testq	%rax, %rax
 1214 0059 75AB     		jne	.L99
 1215              	.L98:
 491:/home/baikal/workspace/C50/Huawei_IoT_Agent_Tiny_SDK_Linux//lwm2m/core/observe.c ****     }
 492:/home/baikal/workspace/C50/Huawei_IoT_Agent_Tiny_SDK_Linux//lwm2m/core/observe.c **** 
 493:/home/baikal/workspace/C50/Huawei_IoT_Agent_Tiny_SDK_Linux//lwm2m/core/observe.c ****     LOG("Found nothing");
GAS LISTING /tmp/ccGR9aQU.s 			page 36


 494:/home/baikal/workspace/C50/Huawei_IoT_Agent_Tiny_SDK_Linux//lwm2m/core/observe.c ****     return NULL;
 495:/home/baikal/workspace/C50/Huawei_IoT_Agent_Tiny_SDK_Linux//lwm2m/core/observe.c **** }
 1216              		.loc 1 495 0
 1217 005b F3C3     		rep ret
 1218              		.cfi_endproc
 1219              	.LFE72:
 1221              		.section	.text.lwm2m_resource_value_changed,"ax",@progbits
 1222              		.globl	lwm2m_resource_value_changed
 1224              	lwm2m_resource_value_changed:
 1225              	.LFB73:
 496:/home/baikal/workspace/C50/Huawei_IoT_Agent_Tiny_SDK_Linux//lwm2m/core/observe.c **** 
 497:/home/baikal/workspace/C50/Huawei_IoT_Agent_Tiny_SDK_Linux//lwm2m/core/observe.c **** void lwm2m_resource_value_changed(lwm2m_context_t *contextP,
 498:/home/baikal/workspace/C50/Huawei_IoT_Agent_Tiny_SDK_Linux//lwm2m/core/observe.c ****                                   lwm2m_uri_t *uriP)
 499:/home/baikal/workspace/C50/Huawei_IoT_Agent_Tiny_SDK_Linux//lwm2m/core/observe.c **** {
 1226              		.loc 1 499 0
 1227              		.cfi_startproc
 1228              	.LVL137:
 500:/home/baikal/workspace/C50/Huawei_IoT_Agent_Tiny_SDK_Linux//lwm2m/core/observe.c ****     lwm2m_observed_t *targetP;
 501:/home/baikal/workspace/C50/Huawei_IoT_Agent_Tiny_SDK_Linux//lwm2m/core/observe.c **** 
 502:/home/baikal/workspace/C50/Huawei_IoT_Agent_Tiny_SDK_Linux//lwm2m/core/observe.c ****     LOG_URI(uriP);
 503:/home/baikal/workspace/C50/Huawei_IoT_Agent_Tiny_SDK_Linux//lwm2m/core/observe.c ****     targetP = contextP->observedList;
 1229              		.loc 1 503 0
 1230 0000 488B5740 		movq	64(%rdi), %rdx
 1231              	.LVL138:
 504:/home/baikal/workspace/C50/Huawei_IoT_Agent_Tiny_SDK_Linux//lwm2m/core/observe.c ****     while (targetP != NULL)
 1232              		.loc 1 504 0
 1233 0004 EB50     		jmp	.L103
 1234              	.L110:
 505:/home/baikal/workspace/C50/Huawei_IoT_Agent_Tiny_SDK_Linux//lwm2m/core/observe.c ****     {
 506:/home/baikal/workspace/C50/Huawei_IoT_Agent_Tiny_SDK_Linux//lwm2m/core/observe.c ****         if (targetP->uri.objectId == uriP->objectId)
 1235              		.loc 1 506 0
 1236 0006 0FB74602 		movzwl	2(%rsi), %eax
 1237 000a 6639420A 		cmpw	%ax, 10(%rdx)
 1238 000e 7543     		jne	.L104
 507:/home/baikal/workspace/C50/Huawei_IoT_Agent_Tiny_SDK_Linux//lwm2m/core/observe.c ****         {
 508:/home/baikal/workspace/C50/Huawei_IoT_Agent_Tiny_SDK_Linux//lwm2m/core/observe.c ****             if (!LWM2M_URI_IS_SET_INSTANCE(uriP)
 1239              		.loc 1 508 0
 1240 0010 0FB606   		movzbl	(%rsi), %eax
 1241 0013 A802     		testb	$2, %al
 1242 0015 7410     		je	.L105
 509:/home/baikal/workspace/C50/Huawei_IoT_Agent_Tiny_SDK_Linux//lwm2m/core/observe.c ****                     || (targetP->uri.flag & LWM2M_URI_FLAG_INSTANCE_ID) == 0
 1243              		.loc 1 509 0
 1244 0017 F6420802 		testb	$2, 8(%rdx)
 1245 001b 740A     		je	.L105
 510:/home/baikal/workspace/C50/Huawei_IoT_Agent_Tiny_SDK_Linux//lwm2m/core/observe.c ****                     || uriP->instanceId == targetP->uri.instanceId)
 1246              		.loc 1 510 0
 1247 001d 0FB74A0C 		movzwl	12(%rdx), %ecx
 1248 0021 66394E04 		cmpw	%cx, 4(%rsi)
 1249 0025 752C     		jne	.L104
 1250              	.L105:
 511:/home/baikal/workspace/C50/Huawei_IoT_Agent_Tiny_SDK_Linux//lwm2m/core/observe.c ****             {
 512:/home/baikal/workspace/C50/Huawei_IoT_Agent_Tiny_SDK_Linux//lwm2m/core/observe.c ****                 if (!LWM2M_URI_IS_SET_RESOURCE(uriP)
 1251              		.loc 1 512 0
 1252 0027 A801     		testb	$1, %al
 1253 0029 7410     		je	.L106
 513:/home/baikal/workspace/C50/Huawei_IoT_Agent_Tiny_SDK_Linux//lwm2m/core/observe.c ****                         || (targetP->uri.flag & LWM2M_URI_FLAG_RESOURCE_ID) == 0
 1254              		.loc 1 513 0
GAS LISTING /tmp/ccGR9aQU.s 			page 37


 1255 002b F6420801 		testb	$1, 8(%rdx)
 1256 002f 740A     		je	.L106
 514:/home/baikal/workspace/C50/Huawei_IoT_Agent_Tiny_SDK_Linux//lwm2m/core/observe.c ****                         || uriP->resourceId == targetP->uri.resourceId)
 1257              		.loc 1 514 0
 1258 0031 0FB7420E 		movzwl	14(%rdx), %eax
 1259 0035 66394606 		cmpw	%ax, 6(%rsi)
 1260 0039 7518     		jne	.L104
 1261              	.L106:
 1262              	.LBB44:
 515:/home/baikal/workspace/C50/Huawei_IoT_Agent_Tiny_SDK_Linux//lwm2m/core/observe.c ****                 {
 516:/home/baikal/workspace/C50/Huawei_IoT_Agent_Tiny_SDK_Linux//lwm2m/core/observe.c ****                     lwm2m_watcher_t *watcherP;
 517:/home/baikal/workspace/C50/Huawei_IoT_Agent_Tiny_SDK_Linux//lwm2m/core/observe.c **** 
 518:/home/baikal/workspace/C50/Huawei_IoT_Agent_Tiny_SDK_Linux//lwm2m/core/observe.c ****                     LOG("Found an observation");
 519:/home/baikal/workspace/C50/Huawei_IoT_Agent_Tiny_SDK_Linux//lwm2m/core/observe.c ****                     LOG_URI(&(targetP->uri));
 520:/home/baikal/workspace/C50/Huawei_IoT_Agent_Tiny_SDK_Linux//lwm2m/core/observe.c **** 
 521:/home/baikal/workspace/C50/Huawei_IoT_Agent_Tiny_SDK_Linux//lwm2m/core/observe.c ****                     for (watcherP = targetP->watcherList ; watcherP != NULL ; watcherP = watcherP->
 1263              		.loc 1 521 0
 1264 003b 488B4210 		movq	16(%rdx), %rax
 1265              	.LVL139:
 1266 003f EB0D     		jmp	.L107
 1267              	.L109:
 522:/home/baikal/workspace/C50/Huawei_IoT_Agent_Tiny_SDK_Linux//lwm2m/core/observe.c ****                     {
 523:/home/baikal/workspace/C50/Huawei_IoT_Agent_Tiny_SDK_Linux//lwm2m/core/observe.c ****                         if (watcherP->active == true)
 1268              		.loc 1 523 0
 1269 0041 80780800 		cmpb	$0, 8(%rax)
 1270 0045 7404     		je	.L108
 524:/home/baikal/workspace/C50/Huawei_IoT_Agent_Tiny_SDK_Linux//lwm2m/core/observe.c ****                         {
 525:/home/baikal/workspace/C50/Huawei_IoT_Agent_Tiny_SDK_Linux//lwm2m/core/observe.c ****                             LOG("Tagging a watcher");
 526:/home/baikal/workspace/C50/Huawei_IoT_Agent_Tiny_SDK_Linux//lwm2m/core/observe.c ****                             watcherP->update = true;
 1271              		.loc 1 526 0
 1272 0047 C6400901 		movb	$1, 9(%rax)
 1273              	.L108:
 521:/home/baikal/workspace/C50/Huawei_IoT_Agent_Tiny_SDK_Linux//lwm2m/core/observe.c ****                     {
 1274              		.loc 1 521 0 discriminator 2
 1275 004b 488B00   		movq	(%rax), %rax
 1276              	.LVL140:
 1277              	.L107:
 521:/home/baikal/workspace/C50/Huawei_IoT_Agent_Tiny_SDK_Linux//lwm2m/core/observe.c ****                     {
 1278              		.loc 1 521 0 is_stmt 0 discriminator 1
 1279 004e 4885C0   		testq	%rax, %rax
 1280 0051 75EE     		jne	.L109
 1281              	.LVL141:
 1282              	.L104:
 1283              	.LBE44:
 527:/home/baikal/workspace/C50/Huawei_IoT_Agent_Tiny_SDK_Linux//lwm2m/core/observe.c ****                         }
 528:/home/baikal/workspace/C50/Huawei_IoT_Agent_Tiny_SDK_Linux//lwm2m/core/observe.c ****                     }
 529:/home/baikal/workspace/C50/Huawei_IoT_Agent_Tiny_SDK_Linux//lwm2m/core/observe.c ****                 }
 530:/home/baikal/workspace/C50/Huawei_IoT_Agent_Tiny_SDK_Linux//lwm2m/core/observe.c ****             }
 531:/home/baikal/workspace/C50/Huawei_IoT_Agent_Tiny_SDK_Linux//lwm2m/core/observe.c ****         }
 532:/home/baikal/workspace/C50/Huawei_IoT_Agent_Tiny_SDK_Linux//lwm2m/core/observe.c ****         targetP = targetP->next;
 1284              		.loc 1 532 0 is_stmt 1
 1285 0053 488B12   		movq	(%rdx), %rdx
 1286              	.LVL142:
 1287              	.L103:
 504:/home/baikal/workspace/C50/Huawei_IoT_Agent_Tiny_SDK_Linux//lwm2m/core/observe.c ****     {
 1288              		.loc 1 504 0
 1289 0056 4885D2   		testq	%rdx, %rdx
GAS LISTING /tmp/ccGR9aQU.s 			page 38


 1290 0059 75AB     		jne	.L110
 533:/home/baikal/workspace/C50/Huawei_IoT_Agent_Tiny_SDK_Linux//lwm2m/core/observe.c ****     }
 534:/home/baikal/workspace/C50/Huawei_IoT_Agent_Tiny_SDK_Linux//lwm2m/core/observe.c **** 
 535:/home/baikal/workspace/C50/Huawei_IoT_Agent_Tiny_SDK_Linux//lwm2m/core/observe.c **** }
 1291              		.loc 1 535 0
 1292 005b F3C3     		rep ret
 1293              		.cfi_endproc
 1294              	.LFE73:
 1296              		.section	.text.observe_send_transaction,"ax",@progbits
 1297              		.globl	observe_send_transaction
 1299              	observe_send_transaction:
 1300              	.LFB74:
 536:/home/baikal/workspace/C50/Huawei_IoT_Agent_Tiny_SDK_Linux//lwm2m/core/observe.c **** 
 537:/home/baikal/workspace/C50/Huawei_IoT_Agent_Tiny_SDK_Linux//lwm2m/core/observe.c **** int observe_send_transaction(lwm2m_context_t *contextP, lwm2m_data_cfg_t  *cfg, lwm2m_watcher_t *wa
 538:/home/baikal/workspace/C50/Huawei_IoT_Agent_Tiny_SDK_Linux//lwm2m/core/observe.c ****                              uint8_t *buffer, size_t length)
 539:/home/baikal/workspace/C50/Huawei_IoT_Agent_Tiny_SDK_Linux//lwm2m/core/observe.c **** {
 1301              		.loc 1 539 0
 1302              		.cfi_startproc
 1303              	.LVL143:
 1304 0000 4157     		pushq	%r15
 1305              	.LCFI58:
 1306              		.cfi_def_cfa_offset 16
 1307              		.cfi_offset 15, -16
 1308 0002 4156     		pushq	%r14
 1309              	.LCFI59:
 1310              		.cfi_def_cfa_offset 24
 1311              		.cfi_offset 14, -24
 1312 0004 4155     		pushq	%r13
 1313              	.LCFI60:
 1314              		.cfi_def_cfa_offset 32
 1315              		.cfi_offset 13, -32
 1316 0006 4154     		pushq	%r12
 1317              	.LCFI61:
 1318              		.cfi_def_cfa_offset 40
 1319              		.cfi_offset 12, -40
 1320 0008 55       		pushq	%rbp
 1321              	.LCFI62:
 1322              		.cfi_def_cfa_offset 48
 1323              		.cfi_offset 6, -48
 1324 0009 53       		pushq	%rbx
 1325              	.LCFI63:
 1326              		.cfi_def_cfa_offset 56
 1327              		.cfi_offset 3, -56
 1328 000a 4883EC10 		subq	$16, %rsp
 1329              	.LCFI64:
 1330              		.cfi_def_cfa_offset 72
 1331 000e 4989FC   		movq	%rdi, %r12
 1332 0011 4989F5   		movq	%rsi, %r13
 1333 0014 4889D5   		movq	%rdx, %rbp
 1334 0017 4989CE   		movq	%rcx, %r14
 1335 001a 4D89C7   		movq	%r8, %r15
 540:/home/baikal/workspace/C50/Huawei_IoT_Agent_Tiny_SDK_Linux//lwm2m/core/observe.c ****     lwm2m_transaction_t *transaction;
 541:/home/baikal/workspace/C50/Huawei_IoT_Agent_Tiny_SDK_Linux//lwm2m/core/observe.c ****     int ret;
 542:/home/baikal/workspace/C50/Huawei_IoT_Agent_Tiny_SDK_Linux//lwm2m/core/observe.c **** 
 543:/home/baikal/workspace/C50/Huawei_IoT_Agent_Tiny_SDK_Linux//lwm2m/core/observe.c ****     transaction = transaction_new(watcherP->server->sessionH, COAP_205_CONTENT, NULL, NULL, watcher
 1336              		.loc 1 543 0
 1337 001d 488D4224 		leaq	36(%rdx), %rax
GAS LISTING /tmp/ccGR9aQU.s 			page 39


 1338 0021 488B5210 		movq	16(%rdx), %rdx
 1339              	.LVL144:
 1340 0025 488B7A28 		movq	40(%rdx), %rdi
 1341              	.LVL145:
 1342 0029 50       		pushq	%rax
 1343              	.LCFI65:
 1344              		.cfi_def_cfa_offset 80
 1345 002a 440FB64D 		movzbl	48(%rbp), %r9d
 1345      30
 1346 002f 440FB745 		movzwl	68(%rbp), %r8d
 1346      44
 1347              	.LVL146:
 1348 0034 B9000000 		movl	$0, %ecx
 1348      00
 1349              	.LVL147:
 1350 0039 BA000000 		movl	$0, %edx
 1350      00
 1351 003e BE450000 		movl	$69, %esi
 1351      00
 1352              	.LVL148:
 1353 0043 E8000000 		call	transaction_new
 1353      00
 1354              	.LVL149:
 544:/home/baikal/workspace/C50/Huawei_IoT_Agent_Tiny_SDK_Linux//lwm2m/core/observe.c ****     if(NULL == transaction)
 1355              		.loc 1 544 0
 1356 0048 4883C410 		addq	$16, %rsp
 1357              	.LCFI66:
 1358              		.cfi_def_cfa_offset 64
 1359 004c 4885C0   		testq	%rax, %rax
 1360 004f 7470     		je	.L113
 1361 0051 4889C3   		movq	%rax, %rbx
 545:/home/baikal/workspace/C50/Huawei_IoT_Agent_Tiny_SDK_Linux//lwm2m/core/observe.c ****     {
 546:/home/baikal/workspace/C50/Huawei_IoT_Agent_Tiny_SDK_Linux//lwm2m/core/observe.c ****         LOG("transaction_new null");
 547:/home/baikal/workspace/C50/Huawei_IoT_Agent_Tiny_SDK_Linux//lwm2m/core/observe.c ****         return COAP_500_INTERNAL_SERVER_ERROR;
 548:/home/baikal/workspace/C50/Huawei_IoT_Agent_Tiny_SDK_Linux//lwm2m/core/observe.c ****     }
 549:/home/baikal/workspace/C50/Huawei_IoT_Agent_Tiny_SDK_Linux//lwm2m/core/observe.c ****     transaction->cfg.callback = cfg->callback;
 1362              		.loc 1 549 0
 1363 0054 498B4508 		movq	8(%r13), %rax
 1364              	.LVL150:
 1365 0058 48894358 		movq	%rax, 88(%rbx)
 550:/home/baikal/workspace/C50/Huawei_IoT_Agent_Tiny_SDK_Linux//lwm2m/core/observe.c ****     transaction->cfg.cookie = cfg->cookie;
 1366              		.loc 1 550 0
 1367 005c 418B4504 		movl	4(%r13), %eax
 1368 0060 894354   		movl	%eax, 84(%rbx)
 551:/home/baikal/workspace/C50/Huawei_IoT_Agent_Tiny_SDK_Linux//lwm2m/core/observe.c ****     transaction->cfg.type = cfg->type;
 1369              		.loc 1 551 0
 1370 0063 418B4500 		movl	0(%r13), %eax
 1371 0067 894350   		movl	%eax, 80(%rbx)
 552:/home/baikal/workspace/C50/Huawei_IoT_Agent_Tiny_SDK_Linux//lwm2m/core/observe.c ****     transaction->callback = observe_call_back;
 1372              		.loc 1 552 0
 1373 006a 488B0500 		movq	observe_call_back(%rip), %rax
 1373      000000
 1374 0071 48894360 		movq	%rax, 96(%rbx)
 553:/home/baikal/workspace/C50/Huawei_IoT_Agent_Tiny_SDK_Linux//lwm2m/core/observe.c ****     coap_set_header_content_type(transaction->message, watcherP->format);
 1375              		.loc 1 553 0
 1376 0075 8B7520   		movl	32(%rbp), %esi
 1377 0078 488B7B38 		movq	56(%rbx), %rdi
GAS LISTING /tmp/ccGR9aQU.s 			page 40


 1378 007c E8000000 		call	coap_set_header_content_type
 1378      00
 1379              	.LVL151:
 554:/home/baikal/workspace/C50/Huawei_IoT_Agent_Tiny_SDK_Linux//lwm2m/core/observe.c ****     coap_set_header_observe(transaction->message, watcherP->counter++);
 1380              		.loc 1 554 0
 1381 0081 8B7540   		movl	64(%rbp), %esi
 1382 0084 8D4601   		leal	1(%rsi), %eax
 1383 0087 894540   		movl	%eax, 64(%rbp)
 1384 008a 488B7B38 		movq	56(%rbx), %rdi
 1385 008e E8000000 		call	coap_set_header_observe
 1385      00
 1386              	.LVL152:
 555:/home/baikal/workspace/C50/Huawei_IoT_Agent_Tiny_SDK_Linux//lwm2m/core/observe.c ****     coap_set_payload(transaction->message, buffer, length);
 1387              		.loc 1 555 0
 1388 0093 488B7B38 		movq	56(%rbx), %rdi
 1389 0097 4C89FA   		movq	%r15, %rdx
 1390 009a 4C89F6   		movq	%r14, %rsi
 1391 009d E8000000 		call	coap_set_payload
 1391      00
 1392              	.LVL153:
 556:/home/baikal/workspace/C50/Huawei_IoT_Agent_Tiny_SDK_Linux//lwm2m/core/observe.c ****     contextP->transactionList = (lwm2m_transaction_t *)LWM2M_LIST_ADD(contextP->transactionList, tr
 1393              		.loc 1 556 0
 1394 00a2 498B7C24 		movq	88(%r12), %rdi
 1394      58
 1395 00a7 4889DE   		movq	%rbx, %rsi
 1396 00aa E8000000 		call	lwm2m_list_add
 1396      00
 1397              	.LVL154:
 1398 00af 49894424 		movq	%rax, 88(%r12)
 1398      58
 557:/home/baikal/workspace/C50/Huawei_IoT_Agent_Tiny_SDK_Linux//lwm2m/core/observe.c ****     ret = transaction_send(contextP, transaction);
 1399              		.loc 1 557 0
 1400 00b4 4889DE   		movq	%rbx, %rsi
 1401 00b7 4C89E7   		movq	%r12, %rdi
 1402 00ba E8000000 		call	transaction_send
 1402      00
 1403              	.LVL155:
 558:/home/baikal/workspace/C50/Huawei_IoT_Agent_Tiny_SDK_Linux//lwm2m/core/observe.c ****     LOG_ARG("notify con msg, cookie:%d type:%d,ret:%d", transaction->cfg.cookie, transaction->cfg.t
 559:/home/baikal/workspace/C50/Huawei_IoT_Agent_Tiny_SDK_Linux//lwm2m/core/observe.c ****     return ret;
 1404              		.loc 1 559 0
 1405 00bf EB05     		jmp	.L112
 1406              	.LVL156:
 1407              	.L113:
 547:/home/baikal/workspace/C50/Huawei_IoT_Agent_Tiny_SDK_Linux//lwm2m/core/observe.c ****     }
 1408              		.loc 1 547 0
 1409 00c1 B8A00000 		movl	$160, %eax
 1409      00
 1410              	.LVL157:
 1411              	.L112:
 560:/home/baikal/workspace/C50/Huawei_IoT_Agent_Tiny_SDK_Linux//lwm2m/core/observe.c **** }
 1412              		.loc 1 560 0
 1413 00c6 4883C408 		addq	$8, %rsp
 1414              	.LCFI67:
 1415              		.cfi_def_cfa_offset 56
 1416 00ca 5B       		popq	%rbx
 1417              	.LCFI68:
 1418              		.cfi_def_cfa_offset 48
GAS LISTING /tmp/ccGR9aQU.s 			page 41


 1419 00cb 5D       		popq	%rbp
 1420              	.LCFI69:
 1421              		.cfi_def_cfa_offset 40
 1422              	.LVL158:
 1423 00cc 415C     		popq	%r12
 1424              	.LCFI70:
 1425              		.cfi_def_cfa_offset 32
 1426              	.LVL159:
 1427 00ce 415D     		popq	%r13
 1428              	.LCFI71:
 1429              		.cfi_def_cfa_offset 24
 1430              	.LVL160:
 1431 00d0 415E     		popq	%r14
 1432              	.LCFI72:
 1433              		.cfi_def_cfa_offset 16
 1434              	.LVL161:
 1435 00d2 415F     		popq	%r15
 1436              	.LCFI73:
 1437              		.cfi_def_cfa_offset 8
 1438              	.LVL162:
 1439 00d4 C3       		ret
 1440              		.cfi_endproc
 1441              	.LFE74:
 1443              		.section	.text.observe_app_step,"ax",@progbits
 1444              		.globl	observe_app_step
 1446              	observe_app_step:
 1447              	.LFB75:
 561:/home/baikal/workspace/C50/Huawei_IoT_Agent_Tiny_SDK_Linux//lwm2m/core/observe.c **** 
 562:/home/baikal/workspace/C50/Huawei_IoT_Agent_Tiny_SDK_Linux//lwm2m/core/observe.c **** void observe_app_step(lwm2m_context_t *contextP,
 563:/home/baikal/workspace/C50/Huawei_IoT_Agent_Tiny_SDK_Linux//lwm2m/core/observe.c ****                       lwm2m_observed_t *targetP,
 564:/home/baikal/workspace/C50/Huawei_IoT_Agent_Tiny_SDK_Linux//lwm2m/core/observe.c ****                       time_t currentTime,
 565:/home/baikal/workspace/C50/Huawei_IoT_Agent_Tiny_SDK_Linux//lwm2m/core/observe.c ****                       time_t *timeoutP)
 566:/home/baikal/workspace/C50/Huawei_IoT_Agent_Tiny_SDK_Linux//lwm2m/core/observe.c **** {
 1448              		.loc 1 566 0
 1449              		.cfi_startproc
 1450              	.LVL163:
 1451 0000 4157     		pushq	%r15
 1452              	.LCFI74:
 1453              		.cfi_def_cfa_offset 16
 1454              		.cfi_offset 15, -16
 1455 0002 4156     		pushq	%r14
 1456              	.LCFI75:
 1457              		.cfi_def_cfa_offset 24
 1458              		.cfi_offset 14, -24
 1459 0004 4155     		pushq	%r13
 1460              	.LCFI76:
 1461              		.cfi_def_cfa_offset 32
 1462              		.cfi_offset 13, -32
 1463 0006 4154     		pushq	%r12
 1464              	.LCFI77:
 1465              		.cfi_def_cfa_offset 40
 1466              		.cfi_offset 12, -40
 1467 0008 55       		pushq	%rbp
 1468              	.LCFI78:
 1469              		.cfi_def_cfa_offset 48
 1470              		.cfi_offset 6, -48
 1471 0009 53       		pushq	%rbx
GAS LISTING /tmp/ccGR9aQU.s 			page 42


 1472              	.LCFI79:
 1473              		.cfi_def_cfa_offset 56
 1474              		.cfi_offset 3, -56
 1475 000a 4881EC08 		subq	$264, %rsp
 1475      010000
 1476              	.LCFI80:
 1477              		.cfi_def_cfa_offset 320
 1478 0011 4889FD   		movq	%rdi, %rbp
 1479 0014 4989F7   		movq	%rsi, %r15
 1480 0017 4989D5   		movq	%rdx, %r13
 567:/home/baikal/workspace/C50/Huawei_IoT_Agent_Tiny_SDK_Linux//lwm2m/core/observe.c ****     LOG("Entering");
 568:/home/baikal/workspace/C50/Huawei_IoT_Agent_Tiny_SDK_Linux//lwm2m/core/observe.c ****     lwm2m_watcher_t *watcherP;
 569:/home/baikal/workspace/C50/Huawei_IoT_Agent_Tiny_SDK_Linux//lwm2m/core/observe.c ****     uint8_t *buffer = NULL;
 1481              		.loc 1 569 0
 1482 001a 48C78424 		movq	$0, 248(%rsp)
 1482      F8000000 
 1482      00000000 
 1483              	.LVL164:
 570:/home/baikal/workspace/C50/Huawei_IoT_Agent_Tiny_SDK_Linux//lwm2m/core/observe.c ****     size_t length = 0;
 571:/home/baikal/workspace/C50/Huawei_IoT_Agent_Tiny_SDK_Linux//lwm2m/core/observe.c ****     lwm2m_data_t *dataP = NULL;
 1484              		.loc 1 571 0
 1485 0026 48C78424 		movq	$0, 240(%rsp)
 1485      F0000000 
 1485      00000000 
 572:/home/baikal/workspace/C50/Huawei_IoT_Agent_Tiny_SDK_Linux//lwm2m/core/observe.c ****     lwm2m_data_cfg_t  cfg = {0, 0, NULL};
 1486              		.loc 1 572 0
 1487 0032 C78424E0 		movl	$0, 224(%rsp)
 1487      00000000 
 1487      000000
 1488 003d C78424E4 		movl	$0, 228(%rsp)
 1488      00000000 
 1488      000000
 1489 0048 48C78424 		movq	$0, 232(%rsp)
 1489      E8000000 
 1489      00000000 
 573:/home/baikal/workspace/C50/Huawei_IoT_Agent_Tiny_SDK_Linux//lwm2m/core/observe.c ****     int size = 0;
 1490              		.loc 1 573 0
 1491 0054 C78424DC 		movl	$0, 220(%rsp)
 1491      00000000 
 1491      000000
 570:/home/baikal/workspace/C50/Huawei_IoT_Agent_Tiny_SDK_Linux//lwm2m/core/observe.c ****     size_t length = 0;
 1492              		.loc 1 570 0
 1493 005f 41BC0000 		movl	$0, %r12d
 1493      0000
 574:/home/baikal/workspace/C50/Huawei_IoT_Agent_Tiny_SDK_Linux//lwm2m/core/observe.c **** 
 575:/home/baikal/workspace/C50/Huawei_IoT_Agent_Tiny_SDK_Linux//lwm2m/core/observe.c ****     while (COAP_205_CONTENT == object_readData(contextP, &targetP->uri, &size, &dataP, &cfg, 0))
 1494              		.loc 1 575 0
 1495 0065 E9870100 		jmp	.L116
 1495      00
 1496              	.LVL165:
 1497              	.L127:
 576:/home/baikal/workspace/C50/Huawei_IoT_Agent_Tiny_SDK_Linux//lwm2m/core/observe.c ****     {
 577:/home/baikal/workspace/C50/Huawei_IoT_Agent_Tiny_SDK_Linux//lwm2m/core/observe.c **** 
 578:/home/baikal/workspace/C50/Huawei_IoT_Agent_Tiny_SDK_Linux//lwm2m/core/observe.c ****         for (watcherP = targetP->watcherList ; watcherP != NULL ; watcherP = watcherP->next)
 1498              		.loc 1 578 0
 1499 006a 498B5F10 		movq	16(%r15), %rbx
 1500              	.LVL166:
GAS LISTING /tmp/ccGR9aQU.s 			page 43


 1501 006e E9320100 		jmp	.L117
 1501      00
 1502              	.L124:
 1503              	.LBB45:
 579:/home/baikal/workspace/C50/Huawei_IoT_Agent_Tiny_SDK_Linux//lwm2m/core/observe.c ****         {
 580:/home/baikal/workspace/C50/Huawei_IoT_Agent_Tiny_SDK_Linux//lwm2m/core/observe.c ****             int res;
 581:/home/baikal/workspace/C50/Huawei_IoT_Agent_Tiny_SDK_Linux//lwm2m/core/observe.c ****             if (buffer == NULL)
 1504              		.loc 1 581 0
 1505 0073 4883BC24 		cmpq	$0, 248(%rsp)
 1505      F8000000 
 1505      00
 1506 007c 756A     		jne	.L118
 582:/home/baikal/workspace/C50/Huawei_IoT_Agent_Tiny_SDK_Linux//lwm2m/core/observe.c ****             {
 583:/home/baikal/workspace/C50/Huawei_IoT_Agent_Tiny_SDK_Linux//lwm2m/core/observe.c ****                 res = lwm2m_data_serialize(&targetP->uri, size, dataP, &(watcherP->format), &buffer
 1507              		.loc 1 583 0
 1508 007e 488D4B20 		leaq	32(%rbx), %rcx
 1509 0082 4C8D8424 		leaq	248(%rsp), %r8
 1509      F8000000 
 1510 008a 488B9424 		movq	240(%rsp), %rdx
 1510      F0000000 
 1511 0092 8BB424DC 		movl	220(%rsp), %esi
 1511      000000
 1512 0099 4C89F7   		movq	%r14, %rdi
 1513 009c E8000000 		call	lwm2m_data_serialize
 1513      00
 1514              	.LVL167:
 584:/home/baikal/workspace/C50/Huawei_IoT_Agent_Tiny_SDK_Linux//lwm2m/core/observe.c ****                 if (res < 0)
 1515              		.loc 1 584 0
 1516 00a1 85C0     		testl	%eax, %eax
 1517 00a3 7940     		jns	.L119
 585:/home/baikal/workspace/C50/Huawei_IoT_Agent_Tiny_SDK_Linux//lwm2m/core/observe.c ****                 {
 586:/home/baikal/workspace/C50/Huawei_IoT_Agent_Tiny_SDK_Linux//lwm2m/core/observe.c ****                     if (dataP != NULL)
 1518              		.loc 1 586 0
 1519 00a5 488BB424 		movq	240(%rsp), %rsi
 1519      F0000000 
 1520 00ad 4885F6   		testq	%rsi, %rsi
 1521 00b0 7418     		je	.L120
 587:/home/baikal/workspace/C50/Huawei_IoT_Agent_Tiny_SDK_Linux//lwm2m/core/observe.c ****                     {
 588:/home/baikal/workspace/C50/Huawei_IoT_Agent_Tiny_SDK_Linux//lwm2m/core/observe.c ****                         lwm2m_data_free(size, dataP);
 1522              		.loc 1 588 0
 1523 00b2 8BBC24DC 		movl	220(%rsp), %edi
 1523      000000
 1524 00b9 E8000000 		call	lwm2m_data_free
 1524      00
 1525              	.LVL168:
 589:/home/baikal/workspace/C50/Huawei_IoT_Agent_Tiny_SDK_Linux//lwm2m/core/observe.c ****                         dataP = NULL;
 1526              		.loc 1 589 0
 1527 00be 48C78424 		movq	$0, 240(%rsp)
 1527      F0000000 
 1527      00000000 
 1528              	.L120:
 590:/home/baikal/workspace/C50/Huawei_IoT_Agent_Tiny_SDK_Linux//lwm2m/core/observe.c ****                     }
 591:/home/baikal/workspace/C50/Huawei_IoT_Agent_Tiny_SDK_Linux//lwm2m/core/observe.c ****                     if (buffer != NULL)
 1529              		.loc 1 591 0
 1530 00ca 488BBC24 		movq	248(%rsp), %rdi
 1530      F8000000 
 1531 00d2 4885FF   		testq	%rdi, %rdi
GAS LISTING /tmp/ccGR9aQU.s 			page 44


 1532 00d5 0F84D300 		je	.L121
 1532      0000
 592:/home/baikal/workspace/C50/Huawei_IoT_Agent_Tiny_SDK_Linux//lwm2m/core/observe.c ****                     {
 593:/home/baikal/workspace/C50/Huawei_IoT_Agent_Tiny_SDK_Linux//lwm2m/core/observe.c ****                         lwm2m_free(buffer);
 1533              		.loc 1 593 0
 1534 00db E8000000 		call	lwm2m_free
 1534      00
 1535              	.LVL169:
 1536 00e0 E9C90000 		jmp	.L121
 1536      00
 1537              	.LVL170:
 1538              	.L119:
 594:/home/baikal/workspace/C50/Huawei_IoT_Agent_Tiny_SDK_Linux//lwm2m/core/observe.c ****                     }
 595:/home/baikal/workspace/C50/Huawei_IoT_Agent_Tiny_SDK_Linux//lwm2m/core/observe.c ****                     break;
 596:/home/baikal/workspace/C50/Huawei_IoT_Agent_Tiny_SDK_Linux//lwm2m/core/observe.c ****                 }
 597:/home/baikal/workspace/C50/Huawei_IoT_Agent_Tiny_SDK_Linux//lwm2m/core/observe.c ****                 else
 598:/home/baikal/workspace/C50/Huawei_IoT_Agent_Tiny_SDK_Linux//lwm2m/core/observe.c ****                 {
 599:/home/baikal/workspace/C50/Huawei_IoT_Agent_Tiny_SDK_Linux//lwm2m/core/observe.c ****                     length = (size_t)res;
 1539              		.loc 1 599 0
 1540 00e5 4C63E0   		movslq	%eax, %r12
 1541              	.LVL171:
 1542              	.L118:
 600:/home/baikal/workspace/C50/Huawei_IoT_Agent_Tiny_SDK_Linux//lwm2m/core/observe.c ****                 }
 601:/home/baikal/workspace/C50/Huawei_IoT_Agent_Tiny_SDK_Linux//lwm2m/core/observe.c ****             }
 602:/home/baikal/workspace/C50/Huawei_IoT_Agent_Tiny_SDK_Linux//lwm2m/core/observe.c **** 
 603:/home/baikal/workspace/C50/Huawei_IoT_Agent_Tiny_SDK_Linux//lwm2m/core/observe.c ****             if (watcherP->active == true)
 1543              		.loc 1 603 0
 1544 00e8 807B0800 		cmpb	$0, 8(%rbx)
 1545 00ec 0F84B000 		je	.L122
 1545      0000
 604:/home/baikal/workspace/C50/Huawei_IoT_Agent_Tiny_SDK_Linux//lwm2m/core/observe.c ****             {
 605:/home/baikal/workspace/C50/Huawei_IoT_Agent_Tiny_SDK_Linux//lwm2m/core/observe.c ****                 watcherP->lastTime = currentTime;
 1546              		.loc 1 605 0
 1547 00f2 4C896B38 		movq	%r13, 56(%rbx)
 606:/home/baikal/workspace/C50/Huawei_IoT_Agent_Tiny_SDK_Linux//lwm2m/core/observe.c ****                 watcherP->lastMid = contextP->nextMID++;
 1548              		.loc 1 606 0
 1549 00f6 0FB74550 		movzwl	80(%rbp), %eax
 1550 00fa 8D5001   		leal	1(%rax), %edx
 1551 00fd 66895550 		movw	%dx, 80(%rbp)
 1552 0101 66894344 		movw	%ax, 68(%rbx)
 607:/home/baikal/workspace/C50/Huawei_IoT_Agent_Tiny_SDK_Linux//lwm2m/core/observe.c **** 
 608:/home/baikal/workspace/C50/Huawei_IoT_Agent_Tiny_SDK_Linux//lwm2m/core/observe.c ****                 if (cfg.callback == NULL)
 1553              		.loc 1 608 0
 1554 0105 4883BC24 		cmpq	$0, 232(%rsp)
 1554      E8000000 
 1554      00
 1555 010e 7574     		jne	.L123
 1556              	.LBB46:
 609:/home/baikal/workspace/C50/Huawei_IoT_Agent_Tiny_SDK_Linux//lwm2m/core/observe.c ****                 {
 610:/home/baikal/workspace/C50/Huawei_IoT_Agent_Tiny_SDK_Linux//lwm2m/core/observe.c ****                     coap_packet_t message[1];
 611:/home/baikal/workspace/C50/Huawei_IoT_Agent_Tiny_SDK_Linux//lwm2m/core/observe.c ****                     coap_init_message(message, COAP_TYPE_NON, COAP_205_CONTENT, 0);
 1557              		.loc 1 611 0
 1558 0110 B9000000 		movl	$0, %ecx
 1558      00
 1559 0115 BA450000 		movl	$69, %edx
 1559      00
 1560 011a BE010000 		movl	$1, %esi
GAS LISTING /tmp/ccGR9aQU.s 			page 45


 1560      00
 1561 011f 4889E7   		movq	%rsp, %rdi
 1562 0122 E8000000 		call	coap_init_message
 1562      00
 1563              	.LVL172:
 612:/home/baikal/workspace/C50/Huawei_IoT_Agent_Tiny_SDK_Linux//lwm2m/core/observe.c ****                     coap_set_header_content_type(message, watcherP->format);
 1564              		.loc 1 612 0
 1565 0127 8B7320   		movl	32(%rbx), %esi
 1566 012a 4889E7   		movq	%rsp, %rdi
 1567 012d E8000000 		call	coap_set_header_content_type
 1567      00
 1568              	.LVL173:
 613:/home/baikal/workspace/C50/Huawei_IoT_Agent_Tiny_SDK_Linux//lwm2m/core/observe.c ****                     coap_set_payload(message, buffer, length);
 1569              		.loc 1 613 0
 1570 0132 4C89E2   		movq	%r12, %rdx
 1571 0135 488BB424 		movq	248(%rsp), %rsi
 1571      F8000000 
 1572 013d 4889E7   		movq	%rsp, %rdi
 1573 0140 E8000000 		call	coap_set_payload
 1573      00
 1574              	.LVL174:
 614:/home/baikal/workspace/C50/Huawei_IoT_Agent_Tiny_SDK_Linux//lwm2m/core/observe.c ****                     message->mid = watcherP->lastMid;
 1575              		.loc 1 614 0
 1576 0145 0FB74344 		movzwl	68(%rbx), %eax
 1577 0149 66894424 		movw	%ax, 18(%rsp)
 1577      12
 615:/home/baikal/workspace/C50/Huawei_IoT_Agent_Tiny_SDK_Linux//lwm2m/core/observe.c ****                     coap_set_header_token(message, watcherP->token, watcherP->tokenLen);
 1578              		.loc 1 615 0
 1579 014e 488D7324 		leaq	36(%rbx), %rsi
 1580 0152 488B5330 		movq	48(%rbx), %rdx
 1581 0156 4889E7   		movq	%rsp, %rdi
 1582 0159 E8000000 		call	coap_set_header_token
 1582      00
 1583              	.LVL175:
 616:/home/baikal/workspace/C50/Huawei_IoT_Agent_Tiny_SDK_Linux//lwm2m/core/observe.c ****                     coap_set_header_observe(message, watcherP->counter++);
 1584              		.loc 1 616 0
 1585 015e 8B7340   		movl	64(%rbx), %esi
 1586 0161 8D4601   		leal	1(%rsi), %eax
 1587 0164 894340   		movl	%eax, 64(%rbx)
 1588 0167 4889E7   		movq	%rsp, %rdi
 1589 016a E8000000 		call	coap_set_header_observe
 1589      00
 1590              	.LVL176:
 617:/home/baikal/workspace/C50/Huawei_IoT_Agent_Tiny_SDK_Linux//lwm2m/core/observe.c ****                     (void)message_send(contextP, message, watcherP->server->sessionH);
 1591              		.loc 1 617 0
 1592 016f 488B4310 		movq	16(%rbx), %rax
 1593 0173 488B5028 		movq	40(%rax), %rdx
 1594 0177 4889E6   		movq	%rsp, %rsi
 1595 017a 4889EF   		movq	%rbp, %rdi
 1596 017d E8000000 		call	message_send
 1596      00
 1597              	.LVL177:
 1598              	.LBE46:
 1599 0182 EB1E     		jmp	.L122
 1600              	.L123:
 618:/home/baikal/workspace/C50/Huawei_IoT_Agent_Tiny_SDK_Linux//lwm2m/core/observe.c ****                     LOG_ARG("notify no con msg, msgid:", message->mid);
 619:/home/baikal/workspace/C50/Huawei_IoT_Agent_Tiny_SDK_Linux//lwm2m/core/observe.c ****                 }
GAS LISTING /tmp/ccGR9aQU.s 			page 46


 620:/home/baikal/workspace/C50/Huawei_IoT_Agent_Tiny_SDK_Linux//lwm2m/core/observe.c ****                 else
 621:/home/baikal/workspace/C50/Huawei_IoT_Agent_Tiny_SDK_Linux//lwm2m/core/observe.c ****                 {
 622:/home/baikal/workspace/C50/Huawei_IoT_Agent_Tiny_SDK_Linux//lwm2m/core/observe.c ****                     (void)observe_send_transaction(contextP, &cfg, watcherP, buffer, length);
 1601              		.loc 1 622 0
 1602 0184 4D89E0   		movq	%r12, %r8
 1603 0187 488B8C24 		movq	248(%rsp), %rcx
 1603      F8000000 
 1604 018f 4889DA   		movq	%rbx, %rdx
 1605 0192 488DB424 		leaq	224(%rsp), %rsi
 1605      E0000000 
 1606 019a 4889EF   		movq	%rbp, %rdi
 1607 019d E8000000 		call	observe_send_transaction
 1607      00
 1608              	.LVL178:
 1609              	.L122:
 1610              	.LBE45:
 578:/home/baikal/workspace/C50/Huawei_IoT_Agent_Tiny_SDK_Linux//lwm2m/core/observe.c ****         {
 1611              		.loc 1 578 0 discriminator 2
 1612 01a2 488B1B   		movq	(%rbx), %rbx
 1613              	.LVL179:
 1614              	.L117:
 578:/home/baikal/workspace/C50/Huawei_IoT_Agent_Tiny_SDK_Linux//lwm2m/core/observe.c ****         {
 1615              		.loc 1 578 0 is_stmt 0 discriminator 1
 1616 01a5 4885DB   		testq	%rbx, %rbx
 1617 01a8 0F85C5FE 		jne	.L124
 1617      FFFF
 1618              	.L121:
 623:/home/baikal/workspace/C50/Huawei_IoT_Agent_Tiny_SDK_Linux//lwm2m/core/observe.c ****                 }
 624:/home/baikal/workspace/C50/Huawei_IoT_Agent_Tiny_SDK_Linux//lwm2m/core/observe.c ****             }
 625:/home/baikal/workspace/C50/Huawei_IoT_Agent_Tiny_SDK_Linux//lwm2m/core/observe.c ****         }
 626:/home/baikal/workspace/C50/Huawei_IoT_Agent_Tiny_SDK_Linux//lwm2m/core/observe.c **** 
 627:/home/baikal/workspace/C50/Huawei_IoT_Agent_Tiny_SDK_Linux//lwm2m/core/observe.c ****         if (dataP != NULL)
 1619              		.loc 1 627 0 is_stmt 1
 1620 01ae 488BB424 		movq	240(%rsp), %rsi
 1620      F0000000 
 1621 01b6 4885F6   		testq	%rsi, %rsi
 1622 01b9 7418     		je	.L125
 628:/home/baikal/workspace/C50/Huawei_IoT_Agent_Tiny_SDK_Linux//lwm2m/core/observe.c ****         {
 629:/home/baikal/workspace/C50/Huawei_IoT_Agent_Tiny_SDK_Linux//lwm2m/core/observe.c ****             lwm2m_data_free(size, dataP);
 1623              		.loc 1 629 0
 1624 01bb 8BBC24DC 		movl	220(%rsp), %edi
 1624      000000
 1625 01c2 E8000000 		call	lwm2m_data_free
 1625      00
 1626              	.LVL180:
 630:/home/baikal/workspace/C50/Huawei_IoT_Agent_Tiny_SDK_Linux//lwm2m/core/observe.c ****             dataP = NULL;
 1627              		.loc 1 630 0
 1628 01c7 48C78424 		movq	$0, 240(%rsp)
 1628      F0000000 
 1628      00000000 
 1629              	.L125:
 631:/home/baikal/workspace/C50/Huawei_IoT_Agent_Tiny_SDK_Linux//lwm2m/core/observe.c ****         }
 632:/home/baikal/workspace/C50/Huawei_IoT_Agent_Tiny_SDK_Linux//lwm2m/core/observe.c ****         if (buffer != NULL)
 1630              		.loc 1 632 0
 1631 01d3 488BBC24 		movq	248(%rsp), %rdi
 1631      F8000000 
 1632 01db 4885FF   		testq	%rdi, %rdi
GAS LISTING /tmp/ccGR9aQU.s 			page 47


 1633 01de 7411     		je	.L116
 633:/home/baikal/workspace/C50/Huawei_IoT_Agent_Tiny_SDK_Linux//lwm2m/core/observe.c ****         {
 634:/home/baikal/workspace/C50/Huawei_IoT_Agent_Tiny_SDK_Linux//lwm2m/core/observe.c ****             lwm2m_free(buffer);
 1634              		.loc 1 634 0
 1635 01e0 E8000000 		call	lwm2m_free
 1635      00
 1636              	.LVL181:
 635:/home/baikal/workspace/C50/Huawei_IoT_Agent_Tiny_SDK_Linux//lwm2m/core/observe.c ****             buffer = NULL;
 1637              		.loc 1 635 0
 1638 01e5 48C78424 		movq	$0, 248(%rsp)
 1638      F8000000 
 1638      00000000 
 1639              	.LVL182:
 1640              	.L116:
 575:/home/baikal/workspace/C50/Huawei_IoT_Agent_Tiny_SDK_Linux//lwm2m/core/observe.c ****     {
 1641              		.loc 1 575 0
 1642 01f1 4D8D7708 		leaq	8(%r15), %r14
 1643 01f5 41B90000 		movl	$0, %r9d
 1643      0000
 1644 01fb 4C8D8424 		leaq	224(%rsp), %r8
 1644      E0000000 
 1645 0203 488D8C24 		leaq	240(%rsp), %rcx
 1645      F0000000 
 1646 020b 488D9424 		leaq	220(%rsp), %rdx
 1646      DC000000 
 1647 0213 4C89F6   		movq	%r14, %rsi
 1648 0216 4889EF   		movq	%rbp, %rdi
 1649 0219 E8000000 		call	object_readData
 1649      00
 1650              	.LVL183:
 1651 021e 3C45     		cmpb	$69, %al
 1652 0220 0F8444FE 		je	.L127
 1652      FFFF
 636:/home/baikal/workspace/C50/Huawei_IoT_Agent_Tiny_SDK_Linux//lwm2m/core/observe.c ****         }
 637:/home/baikal/workspace/C50/Huawei_IoT_Agent_Tiny_SDK_Linux//lwm2m/core/observe.c ****     }
 638:/home/baikal/workspace/C50/Huawei_IoT_Agent_Tiny_SDK_Linux//lwm2m/core/observe.c **** 
 639:/home/baikal/workspace/C50/Huawei_IoT_Agent_Tiny_SDK_Linux//lwm2m/core/observe.c ****     if (dataP != NULL)
 1653              		.loc 1 639 0
 1654 0226 488BB424 		movq	240(%rsp), %rsi
 1654      F0000000 
 1655 022e 4885F6   		testq	%rsi, %rsi
 1656 0231 740C     		je	.L115
 640:/home/baikal/workspace/C50/Huawei_IoT_Agent_Tiny_SDK_Linux//lwm2m/core/observe.c ****     {
 641:/home/baikal/workspace/C50/Huawei_IoT_Agent_Tiny_SDK_Linux//lwm2m/core/observe.c ****         lwm2m_data_free(size, dataP);
 1657              		.loc 1 641 0
 1658 0233 8BBC24DC 		movl	220(%rsp), %edi
 1658      000000
 1659 023a E8000000 		call	lwm2m_data_free
 1659      00
 1660              	.LVL184:
 1661              	.L115:
 642:/home/baikal/workspace/C50/Huawei_IoT_Agent_Tiny_SDK_Linux//lwm2m/core/observe.c ****     }
 643:/home/baikal/workspace/C50/Huawei_IoT_Agent_Tiny_SDK_Linux//lwm2m/core/observe.c **** }
 1662              		.loc 1 643 0
 1663 023f 4881C408 		addq	$264, %rsp
 1663      010000
 1664              	.LCFI81:
GAS LISTING /tmp/ccGR9aQU.s 			page 48


 1665              		.cfi_def_cfa_offset 56
 1666 0246 5B       		popq	%rbx
 1667              	.LCFI82:
 1668              		.cfi_def_cfa_offset 48
 1669 0247 5D       		popq	%rbp
 1670              	.LCFI83:
 1671              		.cfi_def_cfa_offset 40
 1672              	.LVL185:
 1673 0248 415C     		popq	%r12
 1674              	.LCFI84:
 1675              		.cfi_def_cfa_offset 32
 1676              	.LVL186:
 1677 024a 415D     		popq	%r13
 1678              	.LCFI85:
 1679              		.cfi_def_cfa_offset 24
 1680              	.LVL187:
 1681 024c 415E     		popq	%r14
 1682              	.LCFI86:
 1683              		.cfi_def_cfa_offset 16
 1684 024e 415F     		popq	%r15
 1685              	.LCFI87:
 1686              		.cfi_def_cfa_offset 8
 1687              	.LVL188:
 1688 0250 C3       		ret
 1689              		.cfi_endproc
 1690              	.LFE75:
 1692              		.section	.text.observe_step,"ax",@progbits
 1693              		.globl	observe_step
 1695              	observe_step:
 1696              	.LFB76:
 644:/home/baikal/workspace/C50/Huawei_IoT_Agent_Tiny_SDK_Linux//lwm2m/core/observe.c **** 
 645:/home/baikal/workspace/C50/Huawei_IoT_Agent_Tiny_SDK_Linux//lwm2m/core/observe.c **** void observe_step(lwm2m_context_t *contextP,
 646:/home/baikal/workspace/C50/Huawei_IoT_Agent_Tiny_SDK_Linux//lwm2m/core/observe.c ****                   time_t currentTime,
 647:/home/baikal/workspace/C50/Huawei_IoT_Agent_Tiny_SDK_Linux//lwm2m/core/observe.c ****                   time_t *timeoutP)
 648:/home/baikal/workspace/C50/Huawei_IoT_Agent_Tiny_SDK_Linux//lwm2m/core/observe.c **** {
 1697              		.loc 1 648 0
 1698              		.cfi_startproc
 1699              	.LVL189:
 1700 0000 4157     		pushq	%r15
 1701              	.LCFI88:
 1702              		.cfi_def_cfa_offset 16
 1703              		.cfi_offset 15, -16
 1704 0002 4156     		pushq	%r14
 1705              	.LCFI89:
 1706              		.cfi_def_cfa_offset 24
 1707              		.cfi_offset 14, -24
 1708 0004 4155     		pushq	%r13
 1709              	.LCFI90:
 1710              		.cfi_def_cfa_offset 32
 1711              		.cfi_offset 13, -32
 1712 0006 4154     		pushq	%r12
 1713              	.LCFI91:
 1714              		.cfi_def_cfa_offset 40
 1715              		.cfi_offset 12, -40
 1716 0008 55       		pushq	%rbp
 1717              	.LCFI92:
 1718              		.cfi_def_cfa_offset 48
GAS LISTING /tmp/ccGR9aQU.s 			page 49


 1719              		.cfi_offset 6, -48
 1720 0009 53       		pushq	%rbx
 1721              	.LCFI93:
 1722              		.cfi_def_cfa_offset 56
 1723              		.cfi_offset 3, -56
 1724 000a 4881EC28 		subq	$296, %rsp
 1724      010000
 1725              	.LCFI94:
 1726              		.cfi_def_cfa_offset 352
 1727 0011 4989FC   		movq	%rdi, %r12
 1728 0014 4989F5   		movq	%rsi, %r13
 1729 0017 4989D7   		movq	%rdx, %r15
 649:/home/baikal/workspace/C50/Huawei_IoT_Agent_Tiny_SDK_Linux//lwm2m/core/observe.c ****     lwm2m_observed_t *targetP;
 650:/home/baikal/workspace/C50/Huawei_IoT_Agent_Tiny_SDK_Linux//lwm2m/core/observe.c **** 
 651:/home/baikal/workspace/C50/Huawei_IoT_Agent_Tiny_SDK_Linux//lwm2m/core/observe.c ****     LOG("Entering");
 652:/home/baikal/workspace/C50/Huawei_IoT_Agent_Tiny_SDK_Linux//lwm2m/core/observe.c ****     for (targetP = contextP->observedList ; targetP != NULL ; targetP = targetP->next)
 1730              		.loc 1 652 0
 1731 001a 488B4740 		movq	64(%rdi), %rax
 1732 001e 48894424 		movq	%rax, 8(%rsp)
 1732      08
 1733              	.LVL190:
 1734 0023 E9A40500 		jmp	.L131
 1734      00
 1735              	.LVL191:
 1736              	.L181:
 1737              	.LBB47:
 653:/home/baikal/workspace/C50/Huawei_IoT_Agent_Tiny_SDK_Linux//lwm2m/core/observe.c ****     {
 654:/home/baikal/workspace/C50/Huawei_IoT_Agent_Tiny_SDK_Linux//lwm2m/core/observe.c ****         lwm2m_watcher_t *watcherP;
 655:/home/baikal/workspace/C50/Huawei_IoT_Agent_Tiny_SDK_Linux//lwm2m/core/observe.c ****         uint8_t *buffer = NULL;
 1738              		.loc 1 655 0
 1739 0028 48C74424 		movq	$0, 24(%rsp)
 1739      18000000 
 1739      00
 656:/home/baikal/workspace/C50/Huawei_IoT_Agent_Tiny_SDK_Linux//lwm2m/core/observe.c ****         size_t length = 0;
 1740              		.loc 1 656 0
 1741 0031 48C74424 		movq	$0, 32(%rsp)
 1741      20000000 
 1741      00
 657:/home/baikal/workspace/C50/Huawei_IoT_Agent_Tiny_SDK_Linux//lwm2m/core/observe.c ****         lwm2m_data_t *dataP = NULL;
 1742              		.loc 1 657 0
 1743 003a 48C74424 		movq	$0, 40(%rsp)
 1743      28000000 
 1743      00
 658:/home/baikal/workspace/C50/Huawei_IoT_Agent_Tiny_SDK_Linux//lwm2m/core/observe.c ****         lwm2m_data_cfg_t  cfg = {0, 0, NULL};
 1744              		.loc 1 658 0
 1745 0043 C7442440 		movl	$0, 64(%rsp)
 1745      00000000 
 1746 004b C7442444 		movl	$0, 68(%rsp)
 1746      00000000 
 1747 0053 48C74424 		movq	$0, 72(%rsp)
 1747      48000000 
 1747      00
 659:/home/baikal/workspace/C50/Huawei_IoT_Agent_Tiny_SDK_Linux//lwm2m/core/observe.c ****         int size = 0;
 1748              		.loc 1 659 0
 1749 005c C7442414 		movl	$0, 20(%rsp)
 1749      00000000 
 660:/home/baikal/workspace/C50/Huawei_IoT_Agent_Tiny_SDK_Linux//lwm2m/core/observe.c ****         double floatValue = 0;
GAS LISTING /tmp/ccGR9aQU.s 			page 50


 1750              		.loc 1 660 0
 1751 0064 48C74424 		movq	$0, 48(%rsp)
 1751      30000000 
 1751      00
 661:/home/baikal/workspace/C50/Huawei_IoT_Agent_Tiny_SDK_Linux//lwm2m/core/observe.c ****         int64_t integerValue = 0;
 1752              		.loc 1 661 0
 1753 006d 48C74424 		movq	$0, 56(%rsp)
 1753      38000000 
 1753      00
 1754              	.LVL192:
 662:/home/baikal/workspace/C50/Huawei_IoT_Agent_Tiny_SDK_Linux//lwm2m/core/observe.c ****         bool storeValue = false;
 663:/home/baikal/workspace/C50/Huawei_IoT_Agent_Tiny_SDK_Linux//lwm2m/core/observe.c ****         coap_packet_t message[1];
 664:/home/baikal/workspace/C50/Huawei_IoT_Agent_Tiny_SDK_Linux//lwm2m/core/observe.c ****         time_t interval;
 665:/home/baikal/workspace/C50/Huawei_IoT_Agent_Tiny_SDK_Linux//lwm2m/core/observe.c **** 
 666:/home/baikal/workspace/C50/Huawei_IoT_Agent_Tiny_SDK_Linux//lwm2m/core/observe.c ****         LOG_URI(&(targetP->uri));
 667:/home/baikal/workspace/C50/Huawei_IoT_Agent_Tiny_SDK_Linux//lwm2m/core/observe.c **** 
 668:/home/baikal/workspace/C50/Huawei_IoT_Agent_Tiny_SDK_Linux//lwm2m/core/observe.c **** 
 669:/home/baikal/workspace/C50/Huawei_IoT_Agent_Tiny_SDK_Linux//lwm2m/core/observe.c ****         if (dm_isUriOpaqueHandle(&(targetP->uri)))
 1755              		.loc 1 669 0
 1756 0076 488B4424 		movq	8(%rsp), %rax
 1756      08
 1757 007b 6683780A 		cmpw	$19, 10(%rax)
 1757      13
 1758 0080 7516     		jne	.L132
 670:/home/baikal/workspace/C50/Huawei_IoT_Agent_Tiny_SDK_Linux//lwm2m/core/observe.c ****         {
 671:/home/baikal/workspace/C50/Huawei_IoT_Agent_Tiny_SDK_Linux//lwm2m/core/observe.c ****             observe_app_step(contextP, targetP, currentTime, timeoutP);
 1759              		.loc 1 671 0
 1760 0082 4C89F9   		movq	%r15, %rcx
 1761 0085 4C89EA   		movq	%r13, %rdx
 1762 0088 4889C6   		movq	%rax, %rsi
 1763 008b 4C89E7   		movq	%r12, %rdi
 1764 008e E8000000 		call	observe_app_step
 1764      00
 1765              	.LVL193:
 672:/home/baikal/workspace/C50/Huawei_IoT_Agent_Tiny_SDK_Linux//lwm2m/core/observe.c ****             continue;
 1766              		.loc 1 672 0
 1767 0093 E9270500 		jmp	.L180
 1767      00
 1768              	.L132:
 673:/home/baikal/workspace/C50/Huawei_IoT_Agent_Tiny_SDK_Linux//lwm2m/core/observe.c ****         }
 674:/home/baikal/workspace/C50/Huawei_IoT_Agent_Tiny_SDK_Linux//lwm2m/core/observe.c **** 
 675:/home/baikal/workspace/C50/Huawei_IoT_Agent_Tiny_SDK_Linux//lwm2m/core/observe.c ****         cfg.callback = NULL;
 676:/home/baikal/workspace/C50/Huawei_IoT_Agent_Tiny_SDK_Linux//lwm2m/core/observe.c ****         if (LWM2M_URI_IS_SET_RESOURCE(&targetP->uri))
 1769              		.loc 1 676 0
 1770 0098 488B4424 		movq	8(%rsp), %rax
 1770      08
 1771 009d F6400801 		testb	$1, 8(%rax)
 1772 00a1 0F848000 		je	.L182
 1772      0000
 677:/home/baikal/workspace/C50/Huawei_IoT_Agent_Tiny_SDK_Linux//lwm2m/core/observe.c ****         {
 678:/home/baikal/workspace/C50/Huawei_IoT_Agent_Tiny_SDK_Linux//lwm2m/core/observe.c ****             if (COAP_205_CONTENT != object_readData(contextP, &targetP->uri, &size, &dataP, &cfg, 0
 1773              		.loc 1 678 0
 1774 00a7 488D7008 		leaq	8(%rax), %rsi
 1775 00ab 41B90000 		movl	$0, %r9d
 1775      0000
 1776 00b1 4C8D4424 		leaq	64(%rsp), %r8
 1776      40
GAS LISTING /tmp/ccGR9aQU.s 			page 51


 1777 00b6 488D4C24 		leaq	40(%rsp), %rcx
 1777      28
 1778 00bb 488D5424 		leaq	20(%rsp), %rdx
 1778      14
 1779 00c0 4C89E7   		movq	%r12, %rdi
 1780 00c3 E8000000 		call	object_readData
 1780      00
 1781              	.LVL194:
 1782 00c8 3C45     		cmpb	$69, %al
 1783 00ca 0F85EF04 		jne	.L180
 1783      0000
 679:/home/baikal/workspace/C50/Huawei_IoT_Agent_Tiny_SDK_Linux//lwm2m/core/observe.c ****             switch (dataP->type)
 1784              		.loc 1 679 0
 1785 00d0 488B7C24 		movq	40(%rsp), %rdi
 1785      28
 1786 00d5 8B07     		movl	(%rdi), %eax
 1787 00d7 83F806   		cmpl	$6, %eax
 1788 00da 7407     		je	.L135
 1789 00dc 83F807   		cmpl	$7, %eax
 1790 00df 7424     		je	.L136
 1791 00e1 EB4C     		jmp	.L214
 1792              	.L135:
 680:/home/baikal/workspace/C50/Huawei_IoT_Agent_Tiny_SDK_Linux//lwm2m/core/observe.c ****             {
 681:/home/baikal/workspace/C50/Huawei_IoT_Agent_Tiny_SDK_Linux//lwm2m/core/observe.c ****             case LWM2M_TYPE_INTEGER:
 682:/home/baikal/workspace/C50/Huawei_IoT_Agent_Tiny_SDK_Linux//lwm2m/core/observe.c ****                 if (1 != lwm2m_data_decode_int(dataP, &integerValue))
 1793              		.loc 1 682 0
 1794 00e3 488D7424 		leaq	56(%rsp), %rsi
 1794      38
 1795 00e8 E8000000 		call	lwm2m_data_decode_int
 1795      00
 1796              	.LVL195:
 1797 00ed 83F801   		cmpl	$1, %eax
 1798 00f0 7445     		je	.L184
 683:/home/baikal/workspace/C50/Huawei_IoT_Agent_Tiny_SDK_Linux//lwm2m/core/observe.c ****                 {
 684:/home/baikal/workspace/C50/Huawei_IoT_Agent_Tiny_SDK_Linux//lwm2m/core/observe.c ****                     lwm2m_data_free(size, dataP);
 1799              		.loc 1 684 0
 1800 00f2 488B7424 		movq	40(%rsp), %rsi
 1800      28
 1801 00f7 8B7C2414 		movl	20(%rsp), %edi
 1802 00fb E8000000 		call	lwm2m_data_free
 1802      00
 1803              	.LVL196:
 685:/home/baikal/workspace/C50/Huawei_IoT_Agent_Tiny_SDK_Linux//lwm2m/core/observe.c ****                     continue;
 1804              		.loc 1 685 0
 1805 0100 E9BA0400 		jmp	.L180
 1805      00
 1806              	.L136:
 686:/home/baikal/workspace/C50/Huawei_IoT_Agent_Tiny_SDK_Linux//lwm2m/core/observe.c ****                 }
 687:/home/baikal/workspace/C50/Huawei_IoT_Agent_Tiny_SDK_Linux//lwm2m/core/observe.c ****                 storeValue = true;
 688:/home/baikal/workspace/C50/Huawei_IoT_Agent_Tiny_SDK_Linux//lwm2m/core/observe.c ****                 break;
 689:/home/baikal/workspace/C50/Huawei_IoT_Agent_Tiny_SDK_Linux//lwm2m/core/observe.c ****             case LWM2M_TYPE_FLOAT:
 690:/home/baikal/workspace/C50/Huawei_IoT_Agent_Tiny_SDK_Linux//lwm2m/core/observe.c ****                 if (1 != lwm2m_data_decode_float(dataP, &floatValue))
 1807              		.loc 1 690 0
 1808 0105 488D7424 		leaq	48(%rsp), %rsi
 1808      30
 1809 010a E8000000 		call	lwm2m_data_decode_float
 1809      00
GAS LISTING /tmp/ccGR9aQU.s 			page 52


 1810              	.LVL197:
 1811 010f 83F801   		cmpl	$1, %eax
 1812 0112 742B     		je	.L185
 691:/home/baikal/workspace/C50/Huawei_IoT_Agent_Tiny_SDK_Linux//lwm2m/core/observe.c ****                 {
 692:/home/baikal/workspace/C50/Huawei_IoT_Agent_Tiny_SDK_Linux//lwm2m/core/observe.c ****                     lwm2m_data_free(size, dataP);
 1813              		.loc 1 692 0
 1814 0114 488B7424 		movq	40(%rsp), %rsi
 1814      28
 1815 0119 8B7C2414 		movl	20(%rsp), %edi
 1816 011d E8000000 		call	lwm2m_data_free
 1816      00
 1817              	.LVL198:
 693:/home/baikal/workspace/C50/Huawei_IoT_Agent_Tiny_SDK_Linux//lwm2m/core/observe.c ****                     continue;
 1818              		.loc 1 693 0
 1819 0122 E9980400 		jmp	.L180
 1819      00
 1820              	.L182:
 662:/home/baikal/workspace/C50/Huawei_IoT_Agent_Tiny_SDK_Linux//lwm2m/core/observe.c ****         coap_packet_t message[1];
 1821              		.loc 1 662 0
 1822 0127 41BE0000 		movl	$0, %r14d
 1822      0000
 1823 012d EB16     		jmp	.L134
 1824              	.L214:
 1825 012f 41BE0000 		movl	$0, %r14d
 1825      0000
 1826 0135 EB0E     		jmp	.L134
 1827              	.L184:
 687:/home/baikal/workspace/C50/Huawei_IoT_Agent_Tiny_SDK_Linux//lwm2m/core/observe.c ****                 break;
 1828              		.loc 1 687 0
 1829 0137 41BE0100 		movl	$1, %r14d
 1829      0000
 1830 013d EB06     		jmp	.L134
 1831              	.L185:
 694:/home/baikal/workspace/C50/Huawei_IoT_Agent_Tiny_SDK_Linux//lwm2m/core/observe.c ****                 }
 695:/home/baikal/workspace/C50/Huawei_IoT_Agent_Tiny_SDK_Linux//lwm2m/core/observe.c ****                 storeValue = true;
 1832              		.loc 1 695 0
 1833 013f 41BE0100 		movl	$1, %r14d
 1833      0000
 1834              	.L134:
 1835              	.LVL199:
 696:/home/baikal/workspace/C50/Huawei_IoT_Agent_Tiny_SDK_Linux//lwm2m/core/observe.c ****                 break;
 697:/home/baikal/workspace/C50/Huawei_IoT_Agent_Tiny_SDK_Linux//lwm2m/core/observe.c ****             default:
 698:/home/baikal/workspace/C50/Huawei_IoT_Agent_Tiny_SDK_Linux//lwm2m/core/observe.c ****                 break;
 699:/home/baikal/workspace/C50/Huawei_IoT_Agent_Tiny_SDK_Linux//lwm2m/core/observe.c ****             }
 700:/home/baikal/workspace/C50/Huawei_IoT_Agent_Tiny_SDK_Linux//lwm2m/core/observe.c ****         }
 701:/home/baikal/workspace/C50/Huawei_IoT_Agent_Tiny_SDK_Linux//lwm2m/core/observe.c ****         for (watcherP = targetP->watcherList ; watcherP != NULL ; watcherP = watcherP->next)
 1836              		.loc 1 701 0
 1837 0145 488B4424 		movq	8(%rsp), %rax
 1837      08
 1838 014a 488B5810 		movq	16(%rax), %rbx
 1839              	.LVL200:
 1840 014e E9410400 		jmp	.L137
 1840      00
 1841              	.L177:
 702:/home/baikal/workspace/C50/Huawei_IoT_Agent_Tiny_SDK_Linux//lwm2m/core/observe.c ****         {
 703:/home/baikal/workspace/C50/Huawei_IoT_Agent_Tiny_SDK_Linux//lwm2m/core/observe.c ****             if (watcherP->active == true)
 1842              		.loc 1 703 0
GAS LISTING /tmp/ccGR9aQU.s 			page 53


 1843 0153 807B0800 		cmpb	$0, 8(%rbx)
 1844 0157 0F843404 		je	.L138
 1844      0000
 1845              	.LVL201:
 1846              	.LBB48:
 704:/home/baikal/workspace/C50/Huawei_IoT_Agent_Tiny_SDK_Linux//lwm2m/core/observe.c ****             {
 705:/home/baikal/workspace/C50/Huawei_IoT_Agent_Tiny_SDK_Linux//lwm2m/core/observe.c ****                 bool notify = false;
 706:/home/baikal/workspace/C50/Huawei_IoT_Agent_Tiny_SDK_Linux//lwm2m/core/observe.c **** 
 707:/home/baikal/workspace/C50/Huawei_IoT_Agent_Tiny_SDK_Linux//lwm2m/core/observe.c ****                 if (watcherP->update == true)
 1847              		.loc 1 707 0
 1848 015d 807B0900 		cmpb	$0, 9(%rbx)
 1849 0161 0F844F02 		je	.L186
 1849      0000
 708:/home/baikal/workspace/C50/Huawei_IoT_Agent_Tiny_SDK_Linux//lwm2m/core/observe.c ****                 {
 709:/home/baikal/workspace/C50/Huawei_IoT_Agent_Tiny_SDK_Linux//lwm2m/core/observe.c ****                     // value changed, should we notify the server ?
 710:/home/baikal/workspace/C50/Huawei_IoT_Agent_Tiny_SDK_Linux//lwm2m/core/observe.c **** 
 711:/home/baikal/workspace/C50/Huawei_IoT_Agent_Tiny_SDK_Linux//lwm2m/core/observe.c ****                     if (watcherP->parameters == NULL || watcherP->parameters->toSet == 0)
 1850              		.loc 1 711 0
 1851 0167 488B4318 		movq	24(%rbx), %rax
 1852 016b 4885C0   		testq	%rax, %rax
 1853 016e 740C     		je	.L187
 1854              		.loc 1 711 0 is_stmt 0 discriminator 1
 1855 0170 803800   		cmpb	$0, (%rax)
 1856 0173 740E     		je	.L188
 705:/home/baikal/workspace/C50/Huawei_IoT_Agent_Tiny_SDK_Linux//lwm2m/core/observe.c **** 
 1857              		.loc 1 705 0 is_stmt 1
 1858 0175 BD000000 		movl	$0, %ebp
 1858      00
 1859 017a EB0C     		jmp	.L140
 1860              	.L187:
 712:/home/baikal/workspace/C50/Huawei_IoT_Agent_Tiny_SDK_Linux//lwm2m/core/observe.c ****                     {
 713:/home/baikal/workspace/C50/Huawei_IoT_Agent_Tiny_SDK_Linux//lwm2m/core/observe.c ****                         // no conditions
 714:/home/baikal/workspace/C50/Huawei_IoT_Agent_Tiny_SDK_Linux//lwm2m/core/observe.c ****                         notify = true;
 1861              		.loc 1 714 0
 1862 017c BD010000 		movl	$1, %ebp
 1862      00
 1863 0181 EB05     		jmp	.L140
 1864              	.L188:
 1865 0183 BD010000 		movl	$1, %ebp
 1865      00
 1866              	.L140:
 1867              	.LVL202:
 715:/home/baikal/workspace/C50/Huawei_IoT_Agent_Tiny_SDK_Linux//lwm2m/core/observe.c ****                         LOG("Notify with no conditions");
 716:/home/baikal/workspace/C50/Huawei_IoT_Agent_Tiny_SDK_Linux//lwm2m/core/observe.c ****                         LOG_URI(&(targetP->uri));
 717:/home/baikal/workspace/C50/Huawei_IoT_Agent_Tiny_SDK_Linux//lwm2m/core/observe.c ****                     }
 718:/home/baikal/workspace/C50/Huawei_IoT_Agent_Tiny_SDK_Linux//lwm2m/core/observe.c **** 
 719:/home/baikal/workspace/C50/Huawei_IoT_Agent_Tiny_SDK_Linux//lwm2m/core/observe.c ****                     if (notify == false
 1868              		.loc 1 719 0
 1869 0188 4084ED   		testb	%bpl, %bpl
 1870 018b 0F85FD01 		jne	.L141
 1870      0000
 720:/home/baikal/workspace/C50/Huawei_IoT_Agent_Tiny_SDK_Linux//lwm2m/core/observe.c ****                             && watcherP->parameters != NULL
 1871              		.loc 1 720 0
 1872 0191 4885C0   		testq	%rax, %rax
 1873 0194 0F84F401 		je	.L141
 1873      0000
 721:/home/baikal/workspace/C50/Huawei_IoT_Agent_Tiny_SDK_Linux//lwm2m/core/observe.c ****                             && (watcherP->parameters->toSet & ATTR_FLAG_NUMERIC) != 0)
GAS LISTING /tmp/ccGR9aQU.s 			page 54


 1874              		.loc 1 721 0
 1875 019a 0FB610   		movzbl	(%rax), %edx
 1876 019d F6C21C   		testb	$28, %dl
 1877 01a0 0F84E801 		je	.L141
 1877      0000
 722:/home/baikal/workspace/C50/Huawei_IoT_Agent_Tiny_SDK_Linux//lwm2m/core/observe.c ****                     {
 723:/home/baikal/workspace/C50/Huawei_IoT_Agent_Tiny_SDK_Linux//lwm2m/core/observe.c ****                         if ((watcherP->parameters->toSet & LWM2M_ATTR_FLAG_LESS_THAN) != 0)
 1878              		.loc 1 723 0
 1879 01a6 F6C208   		testb	$8, %dl
 1880 01a9 0F849900 		je	.L142
 1880      0000
 724:/home/baikal/workspace/C50/Huawei_IoT_Agent_Tiny_SDK_Linux//lwm2m/core/observe.c ****                         {
 725:/home/baikal/workspace/C50/Huawei_IoT_Agent_Tiny_SDK_Linux//lwm2m/core/observe.c ****                             LOG("Checking lower threshold");
 726:/home/baikal/workspace/C50/Huawei_IoT_Agent_Tiny_SDK_Linux//lwm2m/core/observe.c ****                             // Did we cross the lower threshold ?
 727:/home/baikal/workspace/C50/Huawei_IoT_Agent_Tiny_SDK_Linux//lwm2m/core/observe.c ****                             switch (dataP->type)
 1881              		.loc 1 727 0
 1882 01af 488B4C24 		movq	40(%rsp), %rcx
 1882      28
 1883 01b4 8B09     		movl	(%rcx), %ecx
 1884 01b6 83F906   		cmpl	$6, %ecx
 1885 01b9 740A     		je	.L143
 1886 01bb 83F907   		cmpl	$7, %ecx
 1887 01be 7443     		je	.L144
 1888 01c0 E9830000 		jmp	.L142
 1888      00
 1889              	.L143:
 728:/home/baikal/workspace/C50/Huawei_IoT_Agent_Tiny_SDK_Linux//lwm2m/core/observe.c ****                             {
 729:/home/baikal/workspace/C50/Huawei_IoT_Agent_Tiny_SDK_Linux//lwm2m/core/observe.c ****                             case LWM2M_TYPE_INTEGER:
 730:/home/baikal/workspace/C50/Huawei_IoT_Agent_Tiny_SDK_Linux//lwm2m/core/observe.c ****                                 if ((integerValue <= watcherP->parameters->lessThan
 1890              		.loc 1 730 0
 1891 01c5 660FEFC9 		pxor	%xmm1, %xmm1
 1892 01c9 F2480F2A 		cvtsi2sdq	56(%rsp), %xmm1
 1892      4C2438
 1893 01d0 F20F1040 		movsd	24(%rax), %xmm0
 1893      18
 1894 01d5 660F2EC1 		ucomisd	%xmm1, %xmm0
 1895 01d9 7210     		jb	.L145
 731:/home/baikal/workspace/C50/Huawei_IoT_Agent_Tiny_SDK_Linux//lwm2m/core/observe.c ****                                         && watcherP->lastValue.asInteger > watcherP->parameters->le
 1896              		.loc 1 731 0
 1897 01db 660FEFD2 		pxor	%xmm2, %xmm2
 1898 01df F2480F2A 		cvtsi2sdq	72(%rbx), %xmm2
 1898      5348
 1899 01e5 660F2ED0 		ucomisd	%xmm0, %xmm2
 1900 01e9 7743     		ja	.L189
 1901              	.L145:
 732:/home/baikal/workspace/C50/Huawei_IoT_Agent_Tiny_SDK_Linux//lwm2m/core/observe.c ****                                         || (integerValue >= watcherP->parameters->lessThan
 1902              		.loc 1 732 0
 1903 01eb 660F2EC8 		ucomisd	%xmm0, %xmm1
 1904 01ef 7257     		jb	.L142
 733:/home/baikal/workspace/C50/Huawei_IoT_Agent_Tiny_SDK_Linux//lwm2m/core/observe.c ****                                             && watcherP->lastValue.asInteger < watcherP->parameters
 1905              		.loc 1 733 0
 1906 01f1 660FEFC9 		pxor	%xmm1, %xmm1
 1907 01f5 F2480F2A 		cvtsi2sdq	72(%rbx), %xmm1
 1907      4B48
 1908 01fb 660F2EC1 		ucomisd	%xmm1, %xmm0
 1909 01ff 7734     		ja	.L190
 1910 0201 EB45     		jmp	.L142
GAS LISTING /tmp/ccGR9aQU.s 			page 55


 1911              	.L144:
 734:/home/baikal/workspace/C50/Huawei_IoT_Agent_Tiny_SDK_Linux//lwm2m/core/observe.c ****                                 {
 735:/home/baikal/workspace/C50/Huawei_IoT_Agent_Tiny_SDK_Linux//lwm2m/core/observe.c ****                                     LOG("Notify on lower threshold crossing");
 736:/home/baikal/workspace/C50/Huawei_IoT_Agent_Tiny_SDK_Linux//lwm2m/core/observe.c ****                                     notify = true;
 737:/home/baikal/workspace/C50/Huawei_IoT_Agent_Tiny_SDK_Linux//lwm2m/core/observe.c ****                                 }
 738:/home/baikal/workspace/C50/Huawei_IoT_Agent_Tiny_SDK_Linux//lwm2m/core/observe.c ****                                 break;
 739:/home/baikal/workspace/C50/Huawei_IoT_Agent_Tiny_SDK_Linux//lwm2m/core/observe.c ****                             case LWM2M_TYPE_FLOAT:
 740:/home/baikal/workspace/C50/Huawei_IoT_Agent_Tiny_SDK_Linux//lwm2m/core/observe.c ****                                 if ((floatValue <= watcherP->parameters->lessThan
 1912              		.loc 1 740 0
 1913 0203 F20F1040 		movsd	24(%rax), %xmm0
 1913      18
 1914 0208 F20F104C 		movsd	48(%rsp), %xmm1
 1914      2430
 1915 020e 660F2EC1 		ucomisd	%xmm1, %xmm0
 1916 0212 720B     		jb	.L148
 741:/home/baikal/workspace/C50/Huawei_IoT_Agent_Tiny_SDK_Linux//lwm2m/core/observe.c ****                                         && watcherP->lastValue.asFloat > watcherP->parameters->less
 1917              		.loc 1 741 0
 1918 0214 F20F1053 		movsd	72(%rbx), %xmm2
 1918      48
 1919 0219 660F2ED0 		ucomisd	%xmm0, %xmm2
 1920 021d 771D     		ja	.L191
 1921              	.L148:
 742:/home/baikal/workspace/C50/Huawei_IoT_Agent_Tiny_SDK_Linux//lwm2m/core/observe.c ****                                         || (floatValue >= watcherP->parameters->lessThan
 1922              		.loc 1 742 0
 1923 021f 660F2EC8 		ucomisd	%xmm0, %xmm1
 1924 0223 7223     		jb	.L142
 743:/home/baikal/workspace/C50/Huawei_IoT_Agent_Tiny_SDK_Linux//lwm2m/core/observe.c ****                                             && watcherP->lastValue.asFloat < watcherP->parameters->
 1925              		.loc 1 743 0
 1926 0225 660F2E43 		ucomisd	72(%rbx), %xmm0
 1926      48
 1927 022a 7717     		ja	.L192
 1928 022c EB1A     		jmp	.L142
 1929              	.L189:
 736:/home/baikal/workspace/C50/Huawei_IoT_Agent_Tiny_SDK_Linux//lwm2m/core/observe.c ****                                 }
 1930              		.loc 1 736 0
 1931 022e BD010000 		movl	$1, %ebp
 1931      00
 1932              	.LVL203:
 1933 0233 EB13     		jmp	.L142
 1934              	.LVL204:
 1935              	.L190:
 1936 0235 BD010000 		movl	$1, %ebp
 1936      00
 1937              	.LVL205:
 1938 023a EB0C     		jmp	.L142
 1939              	.LVL206:
 1940              	.L191:
 744:/home/baikal/workspace/C50/Huawei_IoT_Agent_Tiny_SDK_Linux//lwm2m/core/observe.c ****                                 {
 745:/home/baikal/workspace/C50/Huawei_IoT_Agent_Tiny_SDK_Linux//lwm2m/core/observe.c ****                                     LOG("Notify on lower threshold crossing");
 746:/home/baikal/workspace/C50/Huawei_IoT_Agent_Tiny_SDK_Linux//lwm2m/core/observe.c ****                                     notify = true;
 1941              		.loc 1 746 0
 1942 023c BD010000 		movl	$1, %ebp
 1942      00
 1943              	.LVL207:
 1944 0241 EB05     		jmp	.L142
 1945              	.LVL208:
 1946              	.L192:
GAS LISTING /tmp/ccGR9aQU.s 			page 56


 1947 0243 BD010000 		movl	$1, %ebp
 1947      00
 1948              	.LVL209:
 1949              	.L142:
 747:/home/baikal/workspace/C50/Huawei_IoT_Agent_Tiny_SDK_Linux//lwm2m/core/observe.c ****                                 }
 748:/home/baikal/workspace/C50/Huawei_IoT_Agent_Tiny_SDK_Linux//lwm2m/core/observe.c ****                                 break;
 749:/home/baikal/workspace/C50/Huawei_IoT_Agent_Tiny_SDK_Linux//lwm2m/core/observe.c ****                             default:
 750:/home/baikal/workspace/C50/Huawei_IoT_Agent_Tiny_SDK_Linux//lwm2m/core/observe.c ****                                 break;
 751:/home/baikal/workspace/C50/Huawei_IoT_Agent_Tiny_SDK_Linux//lwm2m/core/observe.c ****                             }
 752:/home/baikal/workspace/C50/Huawei_IoT_Agent_Tiny_SDK_Linux//lwm2m/core/observe.c ****                         }
 753:/home/baikal/workspace/C50/Huawei_IoT_Agent_Tiny_SDK_Linux//lwm2m/core/observe.c ****                         if ((watcherP->parameters->toSet & LWM2M_ATTR_FLAG_GREATER_THAN) != 0)
 1950              		.loc 1 753 0
 1951 0248 F6C204   		testb	$4, %dl
 1952 024b 0F849900 		je	.L151
 1952      0000
 754:/home/baikal/workspace/C50/Huawei_IoT_Agent_Tiny_SDK_Linux//lwm2m/core/observe.c ****                         {
 755:/home/baikal/workspace/C50/Huawei_IoT_Agent_Tiny_SDK_Linux//lwm2m/core/observe.c ****                             LOG("Checking upper threshold");
 756:/home/baikal/workspace/C50/Huawei_IoT_Agent_Tiny_SDK_Linux//lwm2m/core/observe.c ****                             // Did we cross the upper threshold ?
 757:/home/baikal/workspace/C50/Huawei_IoT_Agent_Tiny_SDK_Linux//lwm2m/core/observe.c ****                             switch (dataP->type)
 1953              		.loc 1 757 0
 1954 0251 488B4C24 		movq	40(%rsp), %rcx
 1954      28
 1955 0256 8B09     		movl	(%rcx), %ecx
 1956 0258 83F906   		cmpl	$6, %ecx
 1957 025b 740A     		je	.L152
 1958 025d 83F907   		cmpl	$7, %ecx
 1959 0260 7443     		je	.L153
 1960 0262 E9830000 		jmp	.L151
 1960      00
 1961              	.L152:
 758:/home/baikal/workspace/C50/Huawei_IoT_Agent_Tiny_SDK_Linux//lwm2m/core/observe.c ****                             {
 759:/home/baikal/workspace/C50/Huawei_IoT_Agent_Tiny_SDK_Linux//lwm2m/core/observe.c ****                             case LWM2M_TYPE_INTEGER:
 760:/home/baikal/workspace/C50/Huawei_IoT_Agent_Tiny_SDK_Linux//lwm2m/core/observe.c ****                                 if ((integerValue <= watcherP->parameters->greaterThan
 1962              		.loc 1 760 0
 1963 0267 660FEFC9 		pxor	%xmm1, %xmm1
 1964 026b F2480F2A 		cvtsi2sdq	56(%rsp), %xmm1
 1964      4C2438
 1965 0272 F20F1040 		movsd	16(%rax), %xmm0
 1965      10
 1966 0277 660F2EC1 		ucomisd	%xmm1, %xmm0
 1967 027b 7210     		jb	.L154
 761:/home/baikal/workspace/C50/Huawei_IoT_Agent_Tiny_SDK_Linux//lwm2m/core/observe.c ****                                         && watcherP->lastValue.asInteger > watcherP->parameters->gr
 1968              		.loc 1 761 0
 1969 027d 660FEFD2 		pxor	%xmm2, %xmm2
 1970 0281 F2480F2A 		cvtsi2sdq	72(%rbx), %xmm2
 1970      5348
 1971 0287 660F2ED0 		ucomisd	%xmm0, %xmm2
 1972 028b 7743     		ja	.L193
 1973              	.L154:
 762:/home/baikal/workspace/C50/Huawei_IoT_Agent_Tiny_SDK_Linux//lwm2m/core/observe.c ****                                         || (integerValue >= watcherP->parameters->greaterThan
 1974              		.loc 1 762 0
 1975 028d 660F2EC8 		ucomisd	%xmm0, %xmm1
 1976 0291 7257     		jb	.L151
 763:/home/baikal/workspace/C50/Huawei_IoT_Agent_Tiny_SDK_Linux//lwm2m/core/observe.c ****                                             && watcherP->lastValue.asInteger < watcherP->parameters
 1977              		.loc 1 763 0
 1978 0293 660FEFC9 		pxor	%xmm1, %xmm1
 1979 0297 F2480F2A 		cvtsi2sdq	72(%rbx), %xmm1
GAS LISTING /tmp/ccGR9aQU.s 			page 57


 1979      4B48
 1980 029d 660F2EC1 		ucomisd	%xmm1, %xmm0
 1981 02a1 7734     		ja	.L194
 1982 02a3 EB45     		jmp	.L151
 1983              	.L153:
 764:/home/baikal/workspace/C50/Huawei_IoT_Agent_Tiny_SDK_Linux//lwm2m/core/observe.c ****                                 {
 765:/home/baikal/workspace/C50/Huawei_IoT_Agent_Tiny_SDK_Linux//lwm2m/core/observe.c ****                                     LOG("Notify on lower upper crossing");
 766:/home/baikal/workspace/C50/Huawei_IoT_Agent_Tiny_SDK_Linux//lwm2m/core/observe.c ****                                     notify = true;
 767:/home/baikal/workspace/C50/Huawei_IoT_Agent_Tiny_SDK_Linux//lwm2m/core/observe.c ****                                 }
 768:/home/baikal/workspace/C50/Huawei_IoT_Agent_Tiny_SDK_Linux//lwm2m/core/observe.c ****                                 break;
 769:/home/baikal/workspace/C50/Huawei_IoT_Agent_Tiny_SDK_Linux//lwm2m/core/observe.c ****                             case LWM2M_TYPE_FLOAT:
 770:/home/baikal/workspace/C50/Huawei_IoT_Agent_Tiny_SDK_Linux//lwm2m/core/observe.c ****                                 if ((floatValue <= watcherP->parameters->greaterThan
 1984              		.loc 1 770 0
 1985 02a5 F20F1040 		movsd	16(%rax), %xmm0
 1985      10
 1986 02aa F20F104C 		movsd	48(%rsp), %xmm1
 1986      2430
 1987 02b0 660F2EC1 		ucomisd	%xmm1, %xmm0
 1988 02b4 720B     		jb	.L157
 771:/home/baikal/workspace/C50/Huawei_IoT_Agent_Tiny_SDK_Linux//lwm2m/core/observe.c ****                                         && watcherP->lastValue.asFloat > watcherP->parameters->grea
 1989              		.loc 1 771 0
 1990 02b6 F20F1053 		movsd	72(%rbx), %xmm2
 1990      48
 1991 02bb 660F2ED0 		ucomisd	%xmm0, %xmm2
 1992 02bf 771D     		ja	.L195
 1993              	.L157:
 772:/home/baikal/workspace/C50/Huawei_IoT_Agent_Tiny_SDK_Linux//lwm2m/core/observe.c ****                                         || (floatValue >= watcherP->parameters->greaterThan
 1994              		.loc 1 772 0
 1995 02c1 660F2EC8 		ucomisd	%xmm0, %xmm1
 1996 02c5 7223     		jb	.L151
 773:/home/baikal/workspace/C50/Huawei_IoT_Agent_Tiny_SDK_Linux//lwm2m/core/observe.c ****                                             && watcherP->lastValue.asFloat < watcherP->parameters->
 1997              		.loc 1 773 0
 1998 02c7 660F2E43 		ucomisd	72(%rbx), %xmm0
 1998      48
 1999 02cc 7717     		ja	.L196
 2000 02ce EB1A     		jmp	.L151
 2001              	.L193:
 766:/home/baikal/workspace/C50/Huawei_IoT_Agent_Tiny_SDK_Linux//lwm2m/core/observe.c ****                                 }
 2002              		.loc 1 766 0
 2003 02d0 BD010000 		movl	$1, %ebp
 2003      00
 2004              	.LVL210:
 2005 02d5 EB13     		jmp	.L151
 2006              	.LVL211:
 2007              	.L194:
 2008 02d7 BD010000 		movl	$1, %ebp
 2008      00
 2009              	.LVL212:
 2010 02dc EB0C     		jmp	.L151
 2011              	.LVL213:
 2012              	.L195:
 774:/home/baikal/workspace/C50/Huawei_IoT_Agent_Tiny_SDK_Linux//lwm2m/core/observe.c ****                                 {
 775:/home/baikal/workspace/C50/Huawei_IoT_Agent_Tiny_SDK_Linux//lwm2m/core/observe.c ****                                     LOG("Notify on lower upper crossing");
 776:/home/baikal/workspace/C50/Huawei_IoT_Agent_Tiny_SDK_Linux//lwm2m/core/observe.c ****                                     notify = true;
 2013              		.loc 1 776 0
 2014 02de BD010000 		movl	$1, %ebp
 2014      00
GAS LISTING /tmp/ccGR9aQU.s 			page 58


 2015              	.LVL214:
 2016 02e3 EB05     		jmp	.L151
 2017              	.LVL215:
 2018              	.L196:
 2019 02e5 BD010000 		movl	$1, %ebp
 2019      00
 2020              	.LVL216:
 2021              	.L151:
 777:/home/baikal/workspace/C50/Huawei_IoT_Agent_Tiny_SDK_Linux//lwm2m/core/observe.c ****                                 }
 778:/home/baikal/workspace/C50/Huawei_IoT_Agent_Tiny_SDK_Linux//lwm2m/core/observe.c ****                                 break;
 779:/home/baikal/workspace/C50/Huawei_IoT_Agent_Tiny_SDK_Linux//lwm2m/core/observe.c ****                             default:
 780:/home/baikal/workspace/C50/Huawei_IoT_Agent_Tiny_SDK_Linux//lwm2m/core/observe.c ****                                 break;
 781:/home/baikal/workspace/C50/Huawei_IoT_Agent_Tiny_SDK_Linux//lwm2m/core/observe.c ****                             }
 782:/home/baikal/workspace/C50/Huawei_IoT_Agent_Tiny_SDK_Linux//lwm2m/core/observe.c ****                         }
 783:/home/baikal/workspace/C50/Huawei_IoT_Agent_Tiny_SDK_Linux//lwm2m/core/observe.c ****                         if ((watcherP->parameters->toSet & LWM2M_ATTR_FLAG_STEP) != 0)
 2022              		.loc 1 783 0
 2023 02ea F6C210   		testb	$16, %dl
 2024 02ed 0F849B00 		je	.L141
 2024      0000
 784:/home/baikal/workspace/C50/Huawei_IoT_Agent_Tiny_SDK_Linux//lwm2m/core/observe.c ****                         {
 785:/home/baikal/workspace/C50/Huawei_IoT_Agent_Tiny_SDK_Linux//lwm2m/core/observe.c ****                             LOG("Checking step");
 786:/home/baikal/workspace/C50/Huawei_IoT_Agent_Tiny_SDK_Linux//lwm2m/core/observe.c **** 
 787:/home/baikal/workspace/C50/Huawei_IoT_Agent_Tiny_SDK_Linux//lwm2m/core/observe.c ****                             switch (dataP->type)
 2025              		.loc 1 787 0
 2026 02f3 488B5424 		movq	40(%rsp), %rdx
 2026      28
 2027 02f8 8B12     		movl	(%rdx), %edx
 2028 02fa 83FA06   		cmpl	$6, %edx
 2029 02fd 740A     		je	.L160
 2030 02ff 83FA07   		cmpl	$7, %edx
 2031 0302 743D     		je	.L161
 2032 0304 E9850000 		jmp	.L141
 2032      00
 2033              	.L160:
 2034              	.LBB49:
 788:/home/baikal/workspace/C50/Huawei_IoT_Agent_Tiny_SDK_Linux//lwm2m/core/observe.c ****                             {
 789:/home/baikal/workspace/C50/Huawei_IoT_Agent_Tiny_SDK_Linux//lwm2m/core/observe.c ****                             case LWM2M_TYPE_INTEGER:
 790:/home/baikal/workspace/C50/Huawei_IoT_Agent_Tiny_SDK_Linux//lwm2m/core/observe.c ****                             {
 791:/home/baikal/workspace/C50/Huawei_IoT_Agent_Tiny_SDK_Linux//lwm2m/core/observe.c ****                                 int64_t diff;
 792:/home/baikal/workspace/C50/Huawei_IoT_Agent_Tiny_SDK_Linux//lwm2m/core/observe.c **** 
 793:/home/baikal/workspace/C50/Huawei_IoT_Agent_Tiny_SDK_Linux//lwm2m/core/observe.c ****                                 diff = integerValue - watcherP->lastValue.asInteger;
 2035              		.loc 1 793 0
 2036 0309 488B5424 		movq	56(%rsp), %rdx
 2036      38
 2037              	.LVL217:
 794:/home/baikal/workspace/C50/Huawei_IoT_Agent_Tiny_SDK_Linux//lwm2m/core/observe.c ****                                 if ((diff < 0 && (0 - diff) >= watcherP->parameters->step)
 2038              		.loc 1 794 0
 2039 030e 482B5348 		subq	72(%rbx), %rdx
 2040              	.LVL218:
 2041 0312 7916     		jns	.L162
 2042              		.loc 1 794 0 is_stmt 0 discriminator 1
 2043 0314 4889D1   		movq	%rdx, %rcx
 2044 0317 48F7D9   		negq	%rcx
 2045 031a 660FEFC0 		pxor	%xmm0, %xmm0
 2046 031e F2480F2A 		cvtsi2sdq	%rcx, %xmm0
 2046      C1
 2047 0323 660F2E40 		ucomisd	32(%rax), %xmm0
GAS LISTING /tmp/ccGR9aQU.s 			page 59


 2047      20
 2048 0328 734A     		jnb	.L197
 2049              	.L162:
 795:/home/baikal/workspace/C50/Huawei_IoT_Agent_Tiny_SDK_Linux//lwm2m/core/observe.c ****                                         || (diff >= 0 && diff >= watcherP->parameters->step))
 2050              		.loc 1 795 0 is_stmt 1
 2051 032a 4885D2   		testq	%rdx, %rdx
 2052 032d 785F     		js	.L141
 2053              		.loc 1 795 0 is_stmt 0 discriminator 1
 2054 032f 660FEFC0 		pxor	%xmm0, %xmm0
 2055 0333 F2480F2A 		cvtsi2sdq	%rdx, %xmm0
 2055      C2
 2056 0338 660F2E40 		ucomisd	32(%rax), %xmm0
 2056      20
 2057 033d 733C     		jnb	.L198
 2058 033f EB4D     		jmp	.L141
 2059              	.LVL219:
 2060              	.L161:
 2061              	.LBE49:
 2062              	.LBB50:
 796:/home/baikal/workspace/C50/Huawei_IoT_Agent_Tiny_SDK_Linux//lwm2m/core/observe.c ****                                 {
 797:/home/baikal/workspace/C50/Huawei_IoT_Agent_Tiny_SDK_Linux//lwm2m/core/observe.c ****                                     LOG("Notify on step condition");
 798:/home/baikal/workspace/C50/Huawei_IoT_Agent_Tiny_SDK_Linux//lwm2m/core/observe.c ****                                     notify = true;
 799:/home/baikal/workspace/C50/Huawei_IoT_Agent_Tiny_SDK_Linux//lwm2m/core/observe.c ****                                 }
 800:/home/baikal/workspace/C50/Huawei_IoT_Agent_Tiny_SDK_Linux//lwm2m/core/observe.c ****                             }
 801:/home/baikal/workspace/C50/Huawei_IoT_Agent_Tiny_SDK_Linux//lwm2m/core/observe.c ****                             break;
 802:/home/baikal/workspace/C50/Huawei_IoT_Agent_Tiny_SDK_Linux//lwm2m/core/observe.c ****                             case LWM2M_TYPE_FLOAT:
 803:/home/baikal/workspace/C50/Huawei_IoT_Agent_Tiny_SDK_Linux//lwm2m/core/observe.c ****                             {
 804:/home/baikal/workspace/C50/Huawei_IoT_Agent_Tiny_SDK_Linux//lwm2m/core/observe.c ****                                 double diff;
 805:/home/baikal/workspace/C50/Huawei_IoT_Agent_Tiny_SDK_Linux//lwm2m/core/observe.c **** 
 806:/home/baikal/workspace/C50/Huawei_IoT_Agent_Tiny_SDK_Linux//lwm2m/core/observe.c ****                                 diff = floatValue - watcherP->lastValue.asFloat;
 2063              		.loc 1 806 0 is_stmt 1
 2064 0341 F20F1044 		movsd	48(%rsp), %xmm0
 2064      2430
 2065 0347 F20F5C43 		subsd	72(%rbx), %xmm0
 2065      48
 2066              	.LVL220:
 807:/home/baikal/workspace/C50/Huawei_IoT_Agent_Tiny_SDK_Linux//lwm2m/core/observe.c ****                                 if ((diff < 0 && (0 - diff) >= watcherP->parameters->step)
 2067              		.loc 1 807 0
 2068 034c 660FEFC9 		pxor	%xmm1, %xmm1
 2069 0350 660F2EC8 		ucomisd	%xmm0, %xmm1
 2070 0354 760B     		jbe	.L163
 2071              		.loc 1 807 0 is_stmt 0 discriminator 1
 2072 0356 F20F5CC8 		subsd	%xmm0, %xmm1
 2073 035a 660F2E48 		ucomisd	32(%rax), %xmm1
 2073      20
 2074 035f 7321     		jnb	.L199
 2075              	.L163:
 808:/home/baikal/workspace/C50/Huawei_IoT_Agent_Tiny_SDK_Linux//lwm2m/core/observe.c ****                                         || (diff >= 0 && diff >= watcherP->parameters->step))
 2076              		.loc 1 808 0 is_stmt 1
 2077 0361 660F2E05 		ucomisd	.LC0(%rip), %xmm0
 2077      00000000 
 2078 0369 7223     		jb	.L141
 2079              		.loc 1 808 0 is_stmt 0 discriminator 1
 2080 036b 660F2E40 		ucomisd	32(%rax), %xmm0
 2080      20
 2081 0370 7317     		jnb	.L200
 2082 0372 EB1A     		jmp	.L141
GAS LISTING /tmp/ccGR9aQU.s 			page 60


 2083              	.LVL221:
 2084              	.L197:
 2085              	.LBE50:
 2086              	.LBB51:
 798:/home/baikal/workspace/C50/Huawei_IoT_Agent_Tiny_SDK_Linux//lwm2m/core/observe.c ****                                 }
 2087              		.loc 1 798 0 is_stmt 1
 2088 0374 BD010000 		movl	$1, %ebp
 2088      00
 2089              	.LVL222:
 2090 0379 EB13     		jmp	.L141
 2091              	.LVL223:
 2092              	.L198:
 2093 037b BD010000 		movl	$1, %ebp
 2093      00
 2094              	.LVL224:
 2095 0380 EB0C     		jmp	.L141
 2096              	.LVL225:
 2097              	.L199:
 2098              	.LBE51:
 2099              	.LBB52:
 809:/home/baikal/workspace/C50/Huawei_IoT_Agent_Tiny_SDK_Linux//lwm2m/core/observe.c ****                                 {
 810:/home/baikal/workspace/C50/Huawei_IoT_Agent_Tiny_SDK_Linux//lwm2m/core/observe.c ****                                     LOG("Notify on step condition");
 811:/home/baikal/workspace/C50/Huawei_IoT_Agent_Tiny_SDK_Linux//lwm2m/core/observe.c ****                                     notify = true;
 2100              		.loc 1 811 0
 2101 0382 BD010000 		movl	$1, %ebp
 2101      00
 2102              	.LVL226:
 2103 0387 EB05     		jmp	.L141
 2104              	.LVL227:
 2105              	.L200:
 2106 0389 BD010000 		movl	$1, %ebp
 2106      00
 2107              	.LVL228:
 2108              	.L141:
 2109              	.LBE52:
 812:/home/baikal/workspace/C50/Huawei_IoT_Agent_Tiny_SDK_Linux//lwm2m/core/observe.c ****                                 }
 813:/home/baikal/workspace/C50/Huawei_IoT_Agent_Tiny_SDK_Linux//lwm2m/core/observe.c ****                             }
 814:/home/baikal/workspace/C50/Huawei_IoT_Agent_Tiny_SDK_Linux//lwm2m/core/observe.c ****                             break;
 815:/home/baikal/workspace/C50/Huawei_IoT_Agent_Tiny_SDK_Linux//lwm2m/core/observe.c ****                             default:
 816:/home/baikal/workspace/C50/Huawei_IoT_Agent_Tiny_SDK_Linux//lwm2m/core/observe.c ****                                 break;
 817:/home/baikal/workspace/C50/Huawei_IoT_Agent_Tiny_SDK_Linux//lwm2m/core/observe.c ****                             }
 818:/home/baikal/workspace/C50/Huawei_IoT_Agent_Tiny_SDK_Linux//lwm2m/core/observe.c ****                         }
 819:/home/baikal/workspace/C50/Huawei_IoT_Agent_Tiny_SDK_Linux//lwm2m/core/observe.c ****                     }
 820:/home/baikal/workspace/C50/Huawei_IoT_Agent_Tiny_SDK_Linux//lwm2m/core/observe.c **** 
 821:/home/baikal/workspace/C50/Huawei_IoT_Agent_Tiny_SDK_Linux//lwm2m/core/observe.c ****                     if (watcherP->parameters != NULL
 2110              		.loc 1 821 0
 2111 038e 4885C0   		testq	%rax, %rax
 2112 0391 7436     		je	.L139
 822:/home/baikal/workspace/C50/Huawei_IoT_Agent_Tiny_SDK_Linux//lwm2m/core/observe.c ****                             && (watcherP->parameters->toSet & LWM2M_ATTR_FLAG_MIN_PERIOD) != 0)
 2113              		.loc 1 822 0
 2114 0393 F60001   		testb	$1, (%rax)
 2115 0396 7431     		je	.L139
 823:/home/baikal/workspace/C50/Huawei_IoT_Agent_Tiny_SDK_Linux//lwm2m/core/observe.c ****                     {
 824:/home/baikal/workspace/C50/Huawei_IoT_Agent_Tiny_SDK_Linux//lwm2m/core/observe.c ****                         LOG_ARG("Checking minimal period (%d s)", watcherP->parameters->minPeriod);
 825:/home/baikal/workspace/C50/Huawei_IoT_Agent_Tiny_SDK_Linux//lwm2m/core/observe.c **** 
 826:/home/baikal/workspace/C50/Huawei_IoT_Agent_Tiny_SDK_Linux//lwm2m/core/observe.c ****                         if (watcherP->lastTime + watcherP->parameters->minPeriod > currentTime)
 2116              		.loc 1 826 0
GAS LISTING /tmp/ccGR9aQU.s 			page 61


 2117 0398 8B4004   		movl	4(%rax), %eax
 2118 039b 48034338 		addq	56(%rbx), %rax
 2119 039f 4C39E8   		cmpq	%r13, %rax
 2120 03a2 7E19     		jle	.L201
 827:/home/baikal/workspace/C50/Huawei_IoT_Agent_Tiny_SDK_Linux//lwm2m/core/observe.c ****                         {
 828:/home/baikal/workspace/C50/Huawei_IoT_Agent_Tiny_SDK_Linux//lwm2m/core/observe.c ****                             // Minimum Period did not elapse yet
 829:/home/baikal/workspace/C50/Huawei_IoT_Agent_Tiny_SDK_Linux//lwm2m/core/observe.c ****                             interval = watcherP->lastTime + watcherP->parameters->minPeriod - curre
 2121              		.loc 1 829 0
 2122 03a4 4C29E8   		subq	%r13, %rax
 2123              	.LVL229:
 830:/home/baikal/workspace/C50/Huawei_IoT_Agent_Tiny_SDK_Linux//lwm2m/core/observe.c ****                             if (*timeoutP > interval) *timeoutP = interval;
 2124              		.loc 1 830 0
 2125 03a7 493B07   		cmpq	(%r15), %rax
 2126 03aa 7D18     		jge	.L202
 2127              		.loc 1 830 0 is_stmt 0 discriminator 1
 2128 03ac 498907   		movq	%rax, (%r15)
 831:/home/baikal/workspace/C50/Huawei_IoT_Agent_Tiny_SDK_Linux//lwm2m/core/observe.c ****                             notify = false;
 2129              		.loc 1 831 0 is_stmt 1 discriminator 1
 2130 03af BD000000 		movl	$0, %ebp
 2130      00
 2131              	.LVL230:
 2132 03b4 EB13     		jmp	.L139
 2133              	.LVL231:
 2134              	.L186:
 705:/home/baikal/workspace/C50/Huawei_IoT_Agent_Tiny_SDK_Linux//lwm2m/core/observe.c **** 
 2135              		.loc 1 705 0
 2136 03b6 BD000000 		movl	$0, %ebp
 2136      00
 2137 03bb EB0C     		jmp	.L139
 2138              	.LVL232:
 2139              	.L201:
 832:/home/baikal/workspace/C50/Huawei_IoT_Agent_Tiny_SDK_Linux//lwm2m/core/observe.c ****                         }
 833:/home/baikal/workspace/C50/Huawei_IoT_Agent_Tiny_SDK_Linux//lwm2m/core/observe.c ****                         else
 834:/home/baikal/workspace/C50/Huawei_IoT_Agent_Tiny_SDK_Linux//lwm2m/core/observe.c ****                         {
 835:/home/baikal/workspace/C50/Huawei_IoT_Agent_Tiny_SDK_Linux//lwm2m/core/observe.c ****                             LOG("Notify on minimal period");
 836:/home/baikal/workspace/C50/Huawei_IoT_Agent_Tiny_SDK_Linux//lwm2m/core/observe.c ****                             notify = true;
 2140              		.loc 1 836 0
 2141 03bd BD010000 		movl	$1, %ebp
 2141      00
 2142              	.LVL233:
 2143 03c2 EB05     		jmp	.L139
 2144              	.LVL234:
 2145              	.L202:
 831:/home/baikal/workspace/C50/Huawei_IoT_Agent_Tiny_SDK_Linux//lwm2m/core/observe.c ****                         }
 2146              		.loc 1 831 0
 2147 03c4 BD000000 		movl	$0, %ebp
 2147      00
 2148              	.LVL235:
 2149              	.L139:
 837:/home/baikal/workspace/C50/Huawei_IoT_Agent_Tiny_SDK_Linux//lwm2m/core/observe.c ****                         }
 838:/home/baikal/workspace/C50/Huawei_IoT_Agent_Tiny_SDK_Linux//lwm2m/core/observe.c ****                     }
 839:/home/baikal/workspace/C50/Huawei_IoT_Agent_Tiny_SDK_Linux//lwm2m/core/observe.c ****                 }
 840:/home/baikal/workspace/C50/Huawei_IoT_Agent_Tiny_SDK_Linux//lwm2m/core/observe.c **** 
 841:/home/baikal/workspace/C50/Huawei_IoT_Agent_Tiny_SDK_Linux//lwm2m/core/observe.c ****                 // Is the Maximum Period reached ?
 842:/home/baikal/workspace/C50/Huawei_IoT_Agent_Tiny_SDK_Linux//lwm2m/core/observe.c ****                 if (notify == false
 2150              		.loc 1 842 0
 2151 03c9 4084ED   		testb	%bpl, %bpl
GAS LISTING /tmp/ccGR9aQU.s 			page 62


 2152 03cc 751F     		jne	.L166
 843:/home/baikal/workspace/C50/Huawei_IoT_Agent_Tiny_SDK_Linux//lwm2m/core/observe.c ****                         && watcherP->parameters != NULL
 2153              		.loc 1 843 0
 2154 03ce 488B4318 		movq	24(%rbx), %rax
 2155 03d2 4885C0   		testq	%rax, %rax
 2156 03d5 7416     		je	.L166
 844:/home/baikal/workspace/C50/Huawei_IoT_Agent_Tiny_SDK_Linux//lwm2m/core/observe.c ****                         && (watcherP->parameters->toSet & LWM2M_ATTR_FLAG_MAX_PERIOD) != 0)
 2157              		.loc 1 844 0
 2158 03d7 F60002   		testb	$2, (%rax)
 2159 03da 7411     		je	.L166
 845:/home/baikal/workspace/C50/Huawei_IoT_Agent_Tiny_SDK_Linux//lwm2m/core/observe.c ****                 {
 846:/home/baikal/workspace/C50/Huawei_IoT_Agent_Tiny_SDK_Linux//lwm2m/core/observe.c ****                     LOG_ARG("Checking maximal period (%d s)", watcherP->parameters->maxPeriod);
 847:/home/baikal/workspace/C50/Huawei_IoT_Agent_Tiny_SDK_Linux//lwm2m/core/observe.c **** 
 848:/home/baikal/workspace/C50/Huawei_IoT_Agent_Tiny_SDK_Linux//lwm2m/core/observe.c ****                     if (watcherP->lastTime + watcherP->parameters->maxPeriod <= currentTime)
 2160              		.loc 1 848 0
 2161 03dc 8B4008   		movl	8(%rax), %eax
 2162 03df 48034338 		addq	56(%rbx), %rax
 2163 03e3 4939C5   		cmpq	%rax, %r13
 2164 03e6 7C05     		jl	.L166
 849:/home/baikal/workspace/C50/Huawei_IoT_Agent_Tiny_SDK_Linux//lwm2m/core/observe.c ****                     {
 850:/home/baikal/workspace/C50/Huawei_IoT_Agent_Tiny_SDK_Linux//lwm2m/core/observe.c ****                         LOG("Notify on maximal period");
 851:/home/baikal/workspace/C50/Huawei_IoT_Agent_Tiny_SDK_Linux//lwm2m/core/observe.c ****                         notify = true;
 2165              		.loc 1 851 0
 2166 03e8 BD010000 		movl	$1, %ebp
 2166      00
 2167              	.LVL236:
 2168              	.L166:
 852:/home/baikal/workspace/C50/Huawei_IoT_Agent_Tiny_SDK_Linux//lwm2m/core/observe.c ****                     }
 853:/home/baikal/workspace/C50/Huawei_IoT_Agent_Tiny_SDK_Linux//lwm2m/core/observe.c ****                 }
 854:/home/baikal/workspace/C50/Huawei_IoT_Agent_Tiny_SDK_Linux//lwm2m/core/observe.c **** 
 855:/home/baikal/workspace/C50/Huawei_IoT_Agent_Tiny_SDK_Linux//lwm2m/core/observe.c ****                 if (notify == true)
 2169              		.loc 1 855 0
 2170 03ed 4084ED   		testb	%bpl, %bpl
 2171 03f0 0F844D01 		je	.L167
 2171      0000
 856:/home/baikal/workspace/C50/Huawei_IoT_Agent_Tiny_SDK_Linux//lwm2m/core/observe.c ****                 {
 857:/home/baikal/workspace/C50/Huawei_IoT_Agent_Tiny_SDK_Linux//lwm2m/core/observe.c ****                     if (buffer == NULL)
 2172              		.loc 1 857 0
 2173 03f6 48837C24 		cmpq	$0, 24(%rsp)
 2173      1800
 2174 03fc 0F85AF00 		jne	.L168
 2174      0000
 858:/home/baikal/workspace/C50/Huawei_IoT_Agent_Tiny_SDK_Linux//lwm2m/core/observe.c ****                     {
 859:/home/baikal/workspace/C50/Huawei_IoT_Agent_Tiny_SDK_Linux//lwm2m/core/observe.c ****                         if (dataP != NULL)
 2175              		.loc 1 859 0
 2176 0402 488B5424 		movq	40(%rsp), %rdx
 2176      28
 2177 0407 4885D2   		testq	%rdx, %rdx
 2178 040a 742C     		je	.L169
 2179              	.LBB53:
 860:/home/baikal/workspace/C50/Huawei_IoT_Agent_Tiny_SDK_Linux//lwm2m/core/observe.c ****                         {
 861:/home/baikal/workspace/C50/Huawei_IoT_Agent_Tiny_SDK_Linux//lwm2m/core/observe.c ****                             int res;
 862:/home/baikal/workspace/C50/Huawei_IoT_Agent_Tiny_SDK_Linux//lwm2m/core/observe.c **** 
 863:/home/baikal/workspace/C50/Huawei_IoT_Agent_Tiny_SDK_Linux//lwm2m/core/observe.c ****                             res = lwm2m_data_serialize(&targetP->uri, size, dataP, &(watcherP->form
 2180              		.loc 1 863 0
 2181 040c 488D4B20 		leaq	32(%rbx), %rcx
 2182 0410 488B4424 		movq	8(%rsp), %rax
GAS LISTING /tmp/ccGR9aQU.s 			page 63


 2182      08
 2183 0415 488D7808 		leaq	8(%rax), %rdi
 2184 0419 4C8D4424 		leaq	24(%rsp), %r8
 2184      18
 2185 041e 8B742414 		movl	20(%rsp), %esi
 2186 0422 E8000000 		call	lwm2m_data_serialize
 2186      00
 2187              	.LVL237:
 864:/home/baikal/workspace/C50/Huawei_IoT_Agent_Tiny_SDK_Linux//lwm2m/core/observe.c ****                             if (res < 0)
 2188              		.loc 1 864 0
 2189 0427 85C0     		testl	%eax, %eax
 2190 0429 0F886E01 		js	.L170
 2190      0000
 865:/home/baikal/workspace/C50/Huawei_IoT_Agent_Tiny_SDK_Linux//lwm2m/core/observe.c ****                             {
 866:/home/baikal/workspace/C50/Huawei_IoT_Agent_Tiny_SDK_Linux//lwm2m/core/observe.c ****                                 break;
 867:/home/baikal/workspace/C50/Huawei_IoT_Agent_Tiny_SDK_Linux//lwm2m/core/observe.c ****                             }
 868:/home/baikal/workspace/C50/Huawei_IoT_Agent_Tiny_SDK_Linux//lwm2m/core/observe.c ****                             else
 869:/home/baikal/workspace/C50/Huawei_IoT_Agent_Tiny_SDK_Linux//lwm2m/core/observe.c ****                             {
 870:/home/baikal/workspace/C50/Huawei_IoT_Agent_Tiny_SDK_Linux//lwm2m/core/observe.c ****                                 length = (size_t)res;
 2191              		.loc 1 870 0
 2192 042f 4898     		cltq
 2193 0431 48894424 		movq	%rax, 32(%rsp)
 2193      20
 2194              	.LBE53:
 2195 0436 EB37     		jmp	.L171
 2196              	.LVL238:
 2197              	.L169:
 871:/home/baikal/workspace/C50/Huawei_IoT_Agent_Tiny_SDK_Linux//lwm2m/core/observe.c ****                             }
 872:/home/baikal/workspace/C50/Huawei_IoT_Agent_Tiny_SDK_Linux//lwm2m/core/observe.c **** 
 873:/home/baikal/workspace/C50/Huawei_IoT_Agent_Tiny_SDK_Linux//lwm2m/core/observe.c ****                         }
 874:/home/baikal/workspace/C50/Huawei_IoT_Agent_Tiny_SDK_Linux//lwm2m/core/observe.c ****                         else
 875:/home/baikal/workspace/C50/Huawei_IoT_Agent_Tiny_SDK_Linux//lwm2m/core/observe.c ****                         {
 876:/home/baikal/workspace/C50/Huawei_IoT_Agent_Tiny_SDK_Linux//lwm2m/core/observe.c ****                             if (COAP_205_CONTENT != object_read(contextP, &targetP->uri, &(watcherP
 2198              		.loc 1 876 0
 2199 0438 488D5320 		leaq	32(%rbx), %rdx
 2200 043c 488B4424 		movq	8(%rsp), %rax
 2200      08
 2201 0441 488D7008 		leaq	8(%rax), %rsi
 2202 0445 41B90000 		movl	$0, %r9d
 2202      0000
 2203 044b 4C8D4424 		leaq	32(%rsp), %r8
 2203      20
 2204 0450 488D4C24 		leaq	24(%rsp), %rcx
 2204      18
 2205 0455 4C89E7   		movq	%r12, %rdi
 2206 0458 E8000000 		call	object_read
 2206      00
 2207              	.LVL239:
 2208 045d 3C45     		cmpb	$69, %al
 2209 045f 740E     		je	.L171
 877:/home/baikal/workspace/C50/Huawei_IoT_Agent_Tiny_SDK_Linux//lwm2m/core/observe.c ****                             {
 878:/home/baikal/workspace/C50/Huawei_IoT_Agent_Tiny_SDK_Linux//lwm2m/core/observe.c ****                                 buffer = NULL;
 2210              		.loc 1 878 0
 2211 0461 48C74424 		movq	$0, 24(%rsp)
 2211      18000000 
 2211      00
 879:/home/baikal/workspace/C50/Huawei_IoT_Agent_Tiny_SDK_Linux//lwm2m/core/observe.c ****                                 break;
GAS LISTING /tmp/ccGR9aQU.s 			page 64


 2212              		.loc 1 879 0
 2213 046a E92E0100 		jmp	.L170
 2213      00
 2214              	.L171:
 880:/home/baikal/workspace/C50/Huawei_IoT_Agent_Tiny_SDK_Linux//lwm2m/core/observe.c ****                             }
 881:/home/baikal/workspace/C50/Huawei_IoT_Agent_Tiny_SDK_Linux//lwm2m/core/observe.c ****                         }
 882:/home/baikal/workspace/C50/Huawei_IoT_Agent_Tiny_SDK_Linux//lwm2m/core/observe.c **** 
 883:/home/baikal/workspace/C50/Huawei_IoT_Agent_Tiny_SDK_Linux//lwm2m/core/observe.c ****                         if(NULL == cfg.callback)
 2215              		.loc 1 883 0
 2216 046f 48837C24 		cmpq	$0, 72(%rsp)
 2216      4800
 2217 0475 753A     		jne	.L168
 884:/home/baikal/workspace/C50/Huawei_IoT_Agent_Tiny_SDK_Linux//lwm2m/core/observe.c ****                         {
 885:/home/baikal/workspace/C50/Huawei_IoT_Agent_Tiny_SDK_Linux//lwm2m/core/observe.c ****                             coap_init_message(message, COAP_TYPE_NON, COAP_205_CONTENT, 0);
 2218              		.loc 1 885 0
 2219 0477 B9000000 		movl	$0, %ecx
 2219      00
 2220 047c BA450000 		movl	$69, %edx
 2220      00
 2221 0481 BE010000 		movl	$1, %esi
 2221      00
 2222 0486 488D7C24 		leaq	80(%rsp), %rdi
 2222      50
 2223 048b E8000000 		call	coap_init_message
 2223      00
 2224              	.LVL240:
 886:/home/baikal/workspace/C50/Huawei_IoT_Agent_Tiny_SDK_Linux//lwm2m/core/observe.c ****                             coap_set_header_content_type(message, watcherP->format);
 2225              		.loc 1 886 0
 2226 0490 8B7320   		movl	32(%rbx), %esi
 2227 0493 488D7C24 		leaq	80(%rsp), %rdi
 2227      50
 2228 0498 E8000000 		call	coap_set_header_content_type
 2228      00
 2229              	.LVL241:
 887:/home/baikal/workspace/C50/Huawei_IoT_Agent_Tiny_SDK_Linux//lwm2m/core/observe.c ****                             coap_set_payload(message, buffer, length);
 2230              		.loc 1 887 0
 2231 049d 488B5424 		movq	32(%rsp), %rdx
 2231      20
 2232 04a2 488B7424 		movq	24(%rsp), %rsi
 2232      18
 2233 04a7 488D7C24 		leaq	80(%rsp), %rdi
 2233      50
 2234 04ac E8000000 		call	coap_set_payload
 2234      00
 2235              	.LVL242:
 2236              	.L168:
 888:/home/baikal/workspace/C50/Huawei_IoT_Agent_Tiny_SDK_Linux//lwm2m/core/observe.c ****                             LOG_ARG("non observe, msgid:", message->mid);
 889:/home/baikal/workspace/C50/Huawei_IoT_Agent_Tiny_SDK_Linux//lwm2m/core/observe.c ****                         }
 890:/home/baikal/workspace/C50/Huawei_IoT_Agent_Tiny_SDK_Linux//lwm2m/core/observe.c ****                     }
 891:/home/baikal/workspace/C50/Huawei_IoT_Agent_Tiny_SDK_Linux//lwm2m/core/observe.c **** 
 892:/home/baikal/workspace/C50/Huawei_IoT_Agent_Tiny_SDK_Linux//lwm2m/core/observe.c ****                     watcherP->lastTime = currentTime;
 2237              		.loc 1 892 0
 2238 04b1 4C896B38 		movq	%r13, 56(%rbx)
 893:/home/baikal/workspace/C50/Huawei_IoT_Agent_Tiny_SDK_Linux//lwm2m/core/observe.c ****                     watcherP->lastMid = contextP->nextMID++;
 2239              		.loc 1 893 0
 2240 04b5 410FB744 		movzwl	80(%r12), %eax
 2240      2450
GAS LISTING /tmp/ccGR9aQU.s 			page 65


 2241 04bb 8D5001   		leal	1(%rax), %edx
 2242 04be 66418954 		movw	%dx, 80(%r12)
 2242      2450
 2243 04c4 66894344 		movw	%ax, 68(%rbx)
 894:/home/baikal/workspace/C50/Huawei_IoT_Agent_Tiny_SDK_Linux//lwm2m/core/observe.c ****                     if(NULL == cfg.callback)
 2244              		.loc 1 894 0
 2245 04c8 48837C24 		cmpq	$0, 72(%rsp)
 2245      4800
 2246 04ce 7541     		jne	.L172
 895:/home/baikal/workspace/C50/Huawei_IoT_Agent_Tiny_SDK_Linux//lwm2m/core/observe.c ****                     {
 896:/home/baikal/workspace/C50/Huawei_IoT_Agent_Tiny_SDK_Linux//lwm2m/core/observe.c **** 
 897:/home/baikal/workspace/C50/Huawei_IoT_Agent_Tiny_SDK_Linux//lwm2m/core/observe.c ****                         message->mid = watcherP->lastMid;
 2247              		.loc 1 897 0
 2248 04d0 66894424 		movw	%ax, 98(%rsp)
 2248      62
 898:/home/baikal/workspace/C50/Huawei_IoT_Agent_Tiny_SDK_Linux//lwm2m/core/observe.c ****                         coap_set_header_token(message, watcherP->token, watcherP->tokenLen);
 2249              		.loc 1 898 0
 2250 04d5 488D7324 		leaq	36(%rbx), %rsi
 2251 04d9 488B5330 		movq	48(%rbx), %rdx
 2252 04dd 488D7C24 		leaq	80(%rsp), %rdi
 2252      50
 2253 04e2 E8000000 		call	coap_set_header_token
 2253      00
 2254              	.LVL243:
 899:/home/baikal/workspace/C50/Huawei_IoT_Agent_Tiny_SDK_Linux//lwm2m/core/observe.c ****                         coap_set_header_observe(message, watcherP->counter++);
 2255              		.loc 1 899 0
 2256 04e7 8B7340   		movl	64(%rbx), %esi
 2257 04ea 8D4601   		leal	1(%rsi), %eax
 2258 04ed 894340   		movl	%eax, 64(%rbx)
 2259 04f0 488D7C24 		leaq	80(%rsp), %rdi
 2259      50
 2260 04f5 E8000000 		call	coap_set_header_observe
 2260      00
 2261              	.LVL244:
 900:/home/baikal/workspace/C50/Huawei_IoT_Agent_Tiny_SDK_Linux//lwm2m/core/observe.c ****                         (void)message_send(contextP, message, watcherP->server->sessionH);
 2262              		.loc 1 900 0
 2263 04fa 488B4310 		movq	16(%rbx), %rax
 2264 04fe 488B5028 		movq	40(%rax), %rdx
 2265 0502 488D7424 		leaq	80(%rsp), %rsi
 2265      50
 2266 0507 4C89E7   		movq	%r12, %rdi
 2267 050a E8000000 		call	message_send
 2267      00
 2268              	.LVL245:
 2269 050f EB1A     		jmp	.L173
 2270              	.L172:
 901:/home/baikal/workspace/C50/Huawei_IoT_Agent_Tiny_SDK_Linux//lwm2m/core/observe.c **** 
 902:/home/baikal/workspace/C50/Huawei_IoT_Agent_Tiny_SDK_Linux//lwm2m/core/observe.c ****                     }
 903:/home/baikal/workspace/C50/Huawei_IoT_Agent_Tiny_SDK_Linux//lwm2m/core/observe.c ****                     else
 904:/home/baikal/workspace/C50/Huawei_IoT_Agent_Tiny_SDK_Linux//lwm2m/core/observe.c ****                     {
 905:/home/baikal/workspace/C50/Huawei_IoT_Agent_Tiny_SDK_Linux//lwm2m/core/observe.c ****                         (void)observe_send_transaction(contextP, &cfg, watcherP, buffer, length);
 2271              		.loc 1 905 0
 2272 0511 4C8B4424 		movq	32(%rsp), %r8
 2272      20
 2273 0516 488B4C24 		movq	24(%rsp), %rcx
 2273      18
 2274 051b 4889DA   		movq	%rbx, %rdx
GAS LISTING /tmp/ccGR9aQU.s 			page 66


 2275 051e 488D7424 		leaq	64(%rsp), %rsi
 2275      40
 2276 0523 4C89E7   		movq	%r12, %rdi
 2277 0526 E8000000 		call	observe_send_transaction
 2277      00
 2278              	.LVL246:
 2279              	.L173:
 906:/home/baikal/workspace/C50/Huawei_IoT_Agent_Tiny_SDK_Linux//lwm2m/core/observe.c ****                     }
 907:/home/baikal/workspace/C50/Huawei_IoT_Agent_Tiny_SDK_Linux//lwm2m/core/observe.c ****                     atiny_mutex_lock(contextP->observe_mutex);
 2280              		.loc 1 907 0
 2281 052b 498B7C24 		movq	72(%r12), %rdi
 2281      48
 2282 0530 E8000000 		call	atiny_mutex_lock
 2282      00
 2283              	.LVL247:
 908:/home/baikal/workspace/C50/Huawei_IoT_Agent_Tiny_SDK_Linux//lwm2m/core/observe.c ****                     watcherP->update = false;
 2284              		.loc 1 908 0
 2285 0535 C6430900 		movb	$0, 9(%rbx)
 909:/home/baikal/workspace/C50/Huawei_IoT_Agent_Tiny_SDK_Linux//lwm2m/core/observe.c ****                     atiny_mutex_unlock(contextP->observe_mutex);
 2286              		.loc 1 909 0
 2287 0539 498B7C24 		movq	72(%r12), %rdi
 2287      48
 2288 053e E8000000 		call	atiny_mutex_unlock
 2288      00
 2289              	.LVL248:
 2290              	.L167:
 910:/home/baikal/workspace/C50/Huawei_IoT_Agent_Tiny_SDK_Linux//lwm2m/core/observe.c ****                 }
 911:/home/baikal/workspace/C50/Huawei_IoT_Agent_Tiny_SDK_Linux//lwm2m/core/observe.c **** 
 912:/home/baikal/workspace/C50/Huawei_IoT_Agent_Tiny_SDK_Linux//lwm2m/core/observe.c ****                 // Store this value
 913:/home/baikal/workspace/C50/Huawei_IoT_Agent_Tiny_SDK_Linux//lwm2m/core/observe.c ****                 if (notify == true && storeValue == true)
 2291              		.loc 1 913 0
 2292 0543 4184EE   		testb	%bpl, %r14b
 2293 0546 7429     		je	.L174
 914:/home/baikal/workspace/C50/Huawei_IoT_Agent_Tiny_SDK_Linux//lwm2m/core/observe.c ****                 {
 915:/home/baikal/workspace/C50/Huawei_IoT_Agent_Tiny_SDK_Linux//lwm2m/core/observe.c ****                     switch (dataP->type)
 2294              		.loc 1 915 0
 2295 0548 488B4424 		movq	40(%rsp), %rax
 2295      28
 2296 054d 8B00     		movl	(%rax), %eax
 2297 054f 83F806   		cmpl	$6, %eax
 2298 0552 7407     		je	.L175
 2299 0554 83F807   		cmpl	$7, %eax
 2300 0557 740D     		je	.L176
 2301 0559 EB16     		jmp	.L174
 2302              	.L175:
 916:/home/baikal/workspace/C50/Huawei_IoT_Agent_Tiny_SDK_Linux//lwm2m/core/observe.c ****                     {
 917:/home/baikal/workspace/C50/Huawei_IoT_Agent_Tiny_SDK_Linux//lwm2m/core/observe.c ****                     case LWM2M_TYPE_INTEGER:
 918:/home/baikal/workspace/C50/Huawei_IoT_Agent_Tiny_SDK_Linux//lwm2m/core/observe.c ****                         watcherP->lastValue.asInteger = integerValue;
 2303              		.loc 1 918 0
 2304 055b 488B4424 		movq	56(%rsp), %rax
 2304      38
 2305 0560 48894348 		movq	%rax, 72(%rbx)
 919:/home/baikal/workspace/C50/Huawei_IoT_Agent_Tiny_SDK_Linux//lwm2m/core/observe.c ****                         break;
 2306              		.loc 1 919 0
 2307 0564 EB0B     		jmp	.L174
 2308              	.L176:
 920:/home/baikal/workspace/C50/Huawei_IoT_Agent_Tiny_SDK_Linux//lwm2m/core/observe.c ****                     case LWM2M_TYPE_FLOAT:
GAS LISTING /tmp/ccGR9aQU.s 			page 67


 921:/home/baikal/workspace/C50/Huawei_IoT_Agent_Tiny_SDK_Linux//lwm2m/core/observe.c ****                         watcherP->lastValue.asFloat = floatValue;
 2309              		.loc 1 921 0
 2310 0566 F20F1044 		movsd	48(%rsp), %xmm0
 2310      2430
 2311 056c F20F1143 		movsd	%xmm0, 72(%rbx)
 2311      48
 2312              	.L174:
 922:/home/baikal/workspace/C50/Huawei_IoT_Agent_Tiny_SDK_Linux//lwm2m/core/observe.c ****                         break;
 923:/home/baikal/workspace/C50/Huawei_IoT_Agent_Tiny_SDK_Linux//lwm2m/core/observe.c ****                     default:
 924:/home/baikal/workspace/C50/Huawei_IoT_Agent_Tiny_SDK_Linux//lwm2m/core/observe.c ****                         break;
 925:/home/baikal/workspace/C50/Huawei_IoT_Agent_Tiny_SDK_Linux//lwm2m/core/observe.c ****                     }
 926:/home/baikal/workspace/C50/Huawei_IoT_Agent_Tiny_SDK_Linux//lwm2m/core/observe.c ****                 }
 927:/home/baikal/workspace/C50/Huawei_IoT_Agent_Tiny_SDK_Linux//lwm2m/core/observe.c **** 
 928:/home/baikal/workspace/C50/Huawei_IoT_Agent_Tiny_SDK_Linux//lwm2m/core/observe.c ****                 if (watcherP->parameters != NULL && (watcherP->parameters->toSet & LWM2M_ATTR_FLAG_
 2313              		.loc 1 928 0
 2314 0571 488B4318 		movq	24(%rbx), %rax
 2315 0575 4885C0   		testq	%rax, %rax
 2316 0578 7417     		je	.L138
 2317              		.loc 1 928 0 is_stmt 0 discriminator 1
 2318 057a F60002   		testb	$2, (%rax)
 2319 057d 7412     		je	.L138
 929:/home/baikal/workspace/C50/Huawei_IoT_Agent_Tiny_SDK_Linux//lwm2m/core/observe.c ****                 {
 930:/home/baikal/workspace/C50/Huawei_IoT_Agent_Tiny_SDK_Linux//lwm2m/core/observe.c ****                     // update timers
 931:/home/baikal/workspace/C50/Huawei_IoT_Agent_Tiny_SDK_Linux//lwm2m/core/observe.c ****                     interval = watcherP->lastTime + watcherP->parameters->maxPeriod - currentTime;
 2320              		.loc 1 931 0 is_stmt 1
 2321 057f 8B4008   		movl	8(%rax), %eax
 2322 0582 48034338 		addq	56(%rbx), %rax
 2323 0586 4C29E8   		subq	%r13, %rax
 2324              	.LVL249:
 932:/home/baikal/workspace/C50/Huawei_IoT_Agent_Tiny_SDK_Linux//lwm2m/core/observe.c ****                     if (*timeoutP > interval) *timeoutP = interval;
 2325              		.loc 1 932 0
 2326 0589 493B07   		cmpq	(%r15), %rax
 2327 058c 7D03     		jge	.L138
 2328              		.loc 1 932 0 is_stmt 0 discriminator 1
 2329 058e 498907   		movq	%rax, (%r15)
 2330              	.LVL250:
 2331              	.L138:
 2332              	.LBE48:
 701:/home/baikal/workspace/C50/Huawei_IoT_Agent_Tiny_SDK_Linux//lwm2m/core/observe.c ****         {
 2333              		.loc 1 701 0 is_stmt 1 discriminator 2
 2334 0591 488B1B   		movq	(%rbx), %rbx
 2335              	.LVL251:
 2336              	.L137:
 701:/home/baikal/workspace/C50/Huawei_IoT_Agent_Tiny_SDK_Linux//lwm2m/core/observe.c ****         {
 2337              		.loc 1 701 0 is_stmt 0 discriminator 1
 2338 0594 4885DB   		testq	%rbx, %rbx
 2339 0597 0F85B6FB 		jne	.L177
 2339      FFFF
 2340              	.L170:
 933:/home/baikal/workspace/C50/Huawei_IoT_Agent_Tiny_SDK_Linux//lwm2m/core/observe.c ****                 }
 934:/home/baikal/workspace/C50/Huawei_IoT_Agent_Tiny_SDK_Linux//lwm2m/core/observe.c ****             }
 935:/home/baikal/workspace/C50/Huawei_IoT_Agent_Tiny_SDK_Linux//lwm2m/core/observe.c ****         }
 936:/home/baikal/workspace/C50/Huawei_IoT_Agent_Tiny_SDK_Linux//lwm2m/core/observe.c ****         if (dataP != NULL) lwm2m_data_free(size, dataP);
 2341              		.loc 1 936 0 is_stmt 1
 2342 059d 488B7424 		movq	40(%rsp), %rsi
 2342      28
 2343 05a2 4885F6   		testq	%rsi, %rsi
GAS LISTING /tmp/ccGR9aQU.s 			page 68


 2344 05a5 7409     		je	.L178
 2345              		.loc 1 936 0 is_stmt 0 discriminator 1
 2346 05a7 8B7C2414 		movl	20(%rsp), %edi
 2347 05ab E8000000 		call	lwm2m_data_free
 2347      00
 2348              	.LVL252:
 2349              	.L178:
 937:/home/baikal/workspace/C50/Huawei_IoT_Agent_Tiny_SDK_Linux//lwm2m/core/observe.c ****         if (buffer != NULL) lwm2m_free(buffer);
 2350              		.loc 1 937 0 is_stmt 1
 2351 05b0 488B7C24 		movq	24(%rsp), %rdi
 2351      18
 2352 05b5 4885FF   		testq	%rdi, %rdi
 2353 05b8 7405     		je	.L180
 2354              		.loc 1 937 0 is_stmt 0 discriminator 1
 2355 05ba E8000000 		call	lwm2m_free
 2355      00
 2356              	.LVL253:
 2357              	.L180:
 2358              	.LBE47:
 652:/home/baikal/workspace/C50/Huawei_IoT_Agent_Tiny_SDK_Linux//lwm2m/core/observe.c ****     {
 2359              		.loc 1 652 0 is_stmt 1 discriminator 2
 2360 05bf 488B4424 		movq	8(%rsp), %rax
 2360      08
 2361 05c4 488B00   		movq	(%rax), %rax
 2362 05c7 48894424 		movq	%rax, 8(%rsp)
 2362      08
 2363              	.LVL254:
 2364              	.L131:
 652:/home/baikal/workspace/C50/Huawei_IoT_Agent_Tiny_SDK_Linux//lwm2m/core/observe.c ****     {
 2365              		.loc 1 652 0 is_stmt 0 discriminator 1
 2366 05cc 48837C24 		cmpq	$0, 8(%rsp)
 2366      0800
 2367 05d2 0F8550FA 		jne	.L181
 2367      FFFF
 938:/home/baikal/workspace/C50/Huawei_IoT_Agent_Tiny_SDK_Linux//lwm2m/core/observe.c ****     }
 939:/home/baikal/workspace/C50/Huawei_IoT_Agent_Tiny_SDK_Linux//lwm2m/core/observe.c **** }
 2368              		.loc 1 939 0 is_stmt 1
 2369 05d8 4881C428 		addq	$296, %rsp
 2369      010000
 2370              	.LCFI95:
 2371              		.cfi_def_cfa_offset 56
 2372 05df 5B       		popq	%rbx
 2373              	.LCFI96:
 2374              		.cfi_def_cfa_offset 48
 2375 05e0 5D       		popq	%rbp
 2376              	.LCFI97:
 2377              		.cfi_def_cfa_offset 40
 2378 05e1 415C     		popq	%r12
 2379              	.LCFI98:
 2380              		.cfi_def_cfa_offset 32
 2381              	.LVL255:
 2382 05e3 415D     		popq	%r13
 2383              	.LCFI99:
 2384              		.cfi_def_cfa_offset 24
 2385              	.LVL256:
 2386 05e5 415E     		popq	%r14
 2387              	.LCFI100:
GAS LISTING /tmp/ccGR9aQU.s 			page 69


 2388              		.cfi_def_cfa_offset 16
 2389 05e7 415F     		popq	%r15
 2390              	.LCFI101:
 2391              		.cfi_def_cfa_offset 8
 2392              	.LVL257:
 2393 05e9 C3       		ret
 2394              		.cfi_endproc
 2395              	.LFE76:
 2397              		.section	.text.lwm2m_get_observe_info,"ax",@progbits
 2398              		.globl	lwm2m_get_observe_info
 2400              	lwm2m_get_observe_info:
 2401              	.LFB77:
 940:/home/baikal/workspace/C50/Huawei_IoT_Agent_Tiny_SDK_Linux//lwm2m/core/observe.c **** 
 941:/home/baikal/workspace/C50/Huawei_IoT_Agent_Tiny_SDK_Linux//lwm2m/core/observe.c **** 
 942:/home/baikal/workspace/C50/Huawei_IoT_Agent_Tiny_SDK_Linux//lwm2m/core/observe.c **** 
 943:/home/baikal/workspace/C50/Huawei_IoT_Agent_Tiny_SDK_Linux//lwm2m/core/observe.c **** uint8_t lwm2m_get_observe_info(lwm2m_context_t *contextP, lwm2m_observe_info_t *observe_info)
 944:/home/baikal/workspace/C50/Huawei_IoT_Agent_Tiny_SDK_Linux//lwm2m/core/observe.c **** {
 2402              		.loc 1 944 0
 2403              		.cfi_startproc
 2404              	.LVL258:
 945:/home/baikal/workspace/C50/Huawei_IoT_Agent_Tiny_SDK_Linux//lwm2m/core/observe.c ****     lwm2m_observed_t *targetP;
 946:/home/baikal/workspace/C50/Huawei_IoT_Agent_Tiny_SDK_Linux//lwm2m/core/observe.c ****     lwm2m_watcher_t *watcherP;
 947:/home/baikal/workspace/C50/Huawei_IoT_Agent_Tiny_SDK_Linux//lwm2m/core/observe.c **** 
 948:/home/baikal/workspace/C50/Huawei_IoT_Agent_Tiny_SDK_Linux//lwm2m/core/observe.c ****     if((NULL == observe_info) || (NULL == contextP))
 2405              		.loc 1 948 0
 2406 0000 4885F6   		testq	%rsi, %rsi
 2407 0003 0F94C2   		sete	%dl
 2408 0006 4885FF   		testq	%rdi, %rdi
 2409 0009 0F94C0   		sete	%al
 2410 000c 08C2     		orb	%al, %dl
 2411 000e 7557     		jne	.L222
 949:/home/baikal/workspace/C50/Huawei_IoT_Agent_Tiny_SDK_Linux//lwm2m/core/observe.c ****     {
 950:/home/baikal/workspace/C50/Huawei_IoT_Agent_Tiny_SDK_Linux//lwm2m/core/observe.c ****         LOG("null pointer\n");
 951:/home/baikal/workspace/C50/Huawei_IoT_Agent_Tiny_SDK_Linux//lwm2m/core/observe.c ****         return COAP_500_INTERNAL_SERVER_ERROR;
 952:/home/baikal/workspace/C50/Huawei_IoT_Agent_Tiny_SDK_Linux//lwm2m/core/observe.c ****     }
 953:/home/baikal/workspace/C50/Huawei_IoT_Agent_Tiny_SDK_Linux//lwm2m/core/observe.c **** 
 954:/home/baikal/workspace/C50/Huawei_IoT_Agent_Tiny_SDK_Linux//lwm2m/core/observe.c ****     for (targetP = contextP->observedList ; targetP != NULL ; targetP = targetP->next)
 2412              		.loc 1 954 0
 2413 0010 488B4740 		movq	64(%rdi), %rax
 2414              	.LVL259:
 2415 0014 EB46     		jmp	.L218
 2416              	.L221:
 955:/home/baikal/workspace/C50/Huawei_IoT_Agent_Tiny_SDK_Linux//lwm2m/core/observe.c ****     {
 956:/home/baikal/workspace/C50/Huawei_IoT_Agent_Tiny_SDK_Linux//lwm2m/core/observe.c ****         if((!LWM2M_URI_IS_SET_RESOURCE(&targetP->uri))
 2417              		.loc 1 956 0
 2418 0016 F6400801 		testb	$1, 8(%rax)
 2419 001a 7417     		je	.L219
 957:/home/baikal/workspace/C50/Huawei_IoT_Agent_Tiny_SDK_Linux//lwm2m/core/observe.c ****                 || (targetP->uri.objectId != LWM2M_FIRMWARE_UPDATE_OBJECT_ID)
 958:/home/baikal/workspace/C50/Huawei_IoT_Agent_Tiny_SDK_Linux//lwm2m/core/observe.c ****                 || (targetP->uri.instanceId != 0)
 959:/home/baikal/workspace/C50/Huawei_IoT_Agent_Tiny_SDK_Linux//lwm2m/core/observe.c ****                 || (targetP->uri.resourceId != RES_M_STATE))
 2420              		.loc 1 959 0
 2421 001c 488B5008 		movq	8(%rax), %rdx
 2422 0020 66BA0000 		movw	$0, %dx
 2423 0024 48B90000 		movabsq	$844424930459648, %rcx
 2423      05000000 
 2423      0300
 2424 002e 4839CA   		cmpq	%rcx, %rdx
GAS LISTING /tmp/ccGR9aQU.s 			page 70


 2425 0031 7405     		je	.L220
 2426              	.L219:
 954:/home/baikal/workspace/C50/Huawei_IoT_Agent_Tiny_SDK_Linux//lwm2m/core/observe.c ****     {
 2427              		.loc 1 954 0
 2428 0033 488B00   		movq	(%rax), %rax
 2429              	.LVL260:
 2430 0036 EB24     		jmp	.L218
 2431              	.L220:
 960:/home/baikal/workspace/C50/Huawei_IoT_Agent_Tiny_SDK_Linux//lwm2m/core/observe.c ****         {
 961:/home/baikal/workspace/C50/Huawei_IoT_Agent_Tiny_SDK_Linux//lwm2m/core/observe.c ****             continue;
 962:/home/baikal/workspace/C50/Huawei_IoT_Agent_Tiny_SDK_Linux//lwm2m/core/observe.c ****         }
 963:/home/baikal/workspace/C50/Huawei_IoT_Agent_Tiny_SDK_Linux//lwm2m/core/observe.c ****         watcherP = targetP->watcherList;
 2432              		.loc 1 963 0
 2433 0038 488B4010 		movq	16(%rax), %rax
 2434              	.LVL261:
 964:/home/baikal/workspace/C50/Huawei_IoT_Agent_Tiny_SDK_Linux//lwm2m/core/observe.c ****         observe_info->counter = watcherP->counter;
 2435              		.loc 1 964 0
 2436 003c 8B5040   		movl	64(%rax), %edx
 2437 003f 895610   		movl	%edx, 16(%rsi)
 2438              	.LVL262:
 2439 0042 488B5024 		movq	36(%rax), %rdx
 2440              	.LBB54:
 2441              	.LBB55:
  53:/usr/include/x86_64-linux-gnu/bits/string3.h **** }
 2442              		.loc 2 53 0
 2443 0046 48895604 		movq	%rdx, 4(%rsi)
 2444              	.LVL263:
 2445              	.LBE55:
 2446              	.LBE54:
 965:/home/baikal/workspace/C50/Huawei_IoT_Agent_Tiny_SDK_Linux//lwm2m/core/observe.c ****         memcpy(observe_info->token, watcherP->token, sizeof(observe_info->token));
 966:/home/baikal/workspace/C50/Huawei_IoT_Agent_Tiny_SDK_Linux//lwm2m/core/observe.c ****         observe_info->tokenLen = watcherP->tokenLen;
 2447              		.loc 1 966 0
 2448 004a 488B5030 		movq	48(%rax), %rdx
 2449 004e 89560C   		movl	%edx, 12(%rsi)
 967:/home/baikal/workspace/C50/Huawei_IoT_Agent_Tiny_SDK_Linux//lwm2m/core/observe.c ****         observe_info->format = watcherP->format;
 2450              		.loc 1 967 0
 2451 0051 8B4020   		movl	32(%rax), %eax
 2452              	.LVL264:
 2453 0054 8906     		movl	%eax, (%rsi)
 968:/home/baikal/workspace/C50/Huawei_IoT_Agent_Tiny_SDK_Linux//lwm2m/core/observe.c ****         return COAP_NO_ERROR;
 2454              		.loc 1 968 0
 2455 0056 B8000000 		movl	$0, %eax
 2455      00
 2456 005b C3       		ret
 2457              	.LVL265:
 2458              	.L218:
 954:/home/baikal/workspace/C50/Huawei_IoT_Agent_Tiny_SDK_Linux//lwm2m/core/observe.c ****     {
 2459              		.loc 1 954 0 discriminator 1
 2460 005c 4885C0   		testq	%rax, %rax
 2461 005f 75B5     		jne	.L221
 969:/home/baikal/workspace/C50/Huawei_IoT_Agent_Tiny_SDK_Linux//lwm2m/core/observe.c ****     }
 970:/home/baikal/workspace/C50/Huawei_IoT_Agent_Tiny_SDK_Linux//lwm2m/core/observe.c ****     return COAP_500_INTERNAL_SERVER_ERROR;
 2462              		.loc 1 970 0
 2463 0061 B8A0FFFF 		movl	$-96, %eax
 2463      FF
 2464              	.LVL266:
 2465 0066 C3       		ret
GAS LISTING /tmp/ccGR9aQU.s 			page 71


 2466              	.L222:
 951:/home/baikal/workspace/C50/Huawei_IoT_Agent_Tiny_SDK_Linux//lwm2m/core/observe.c ****     }
 2467              		.loc 1 951 0
 2468 0067 B8A0FFFF 		movl	$-96, %eax
 2468      FF
 971:/home/baikal/workspace/C50/Huawei_IoT_Agent_Tiny_SDK_Linux//lwm2m/core/observe.c **** }
 2469              		.loc 1 971 0
 2470 006c C3       		ret
 2471              		.cfi_endproc
 2472              	.LFE77:
 2474              		.section	.text.lwm2m_send_notify,"ax",@progbits
 2475              		.globl	lwm2m_send_notify
 2477              	lwm2m_send_notify:
 2478              	.LFB78:
 972:/home/baikal/workspace/C50/Huawei_IoT_Agent_Tiny_SDK_Linux//lwm2m/core/observe.c **** 
 973:/home/baikal/workspace/C50/Huawei_IoT_Agent_Tiny_SDK_Linux//lwm2m/core/observe.c **** uint8_t lwm2m_send_notify(lwm2m_context_t *contextP, lwm2m_observe_info_t *observe_info, int firmwa
 974:/home/baikal/workspace/C50/Huawei_IoT_Agent_Tiny_SDK_Linux//lwm2m/core/observe.c **** {
 2479              		.loc 1 974 0
 2480              		.cfi_startproc
 2481              	.LVL267:
 2482 0000 4156     		pushq	%r14
 2483              	.LCFI102:
 2484              		.cfi_def_cfa_offset 16
 2485              		.cfi_offset 14, -16
 2486 0002 4155     		pushq	%r13
 2487              	.LCFI103:
 2488              		.cfi_def_cfa_offset 24
 2489              		.cfi_offset 13, -24
 2490 0004 4154     		pushq	%r12
 2491              	.LCFI104:
 2492              		.cfi_def_cfa_offset 32
 2493              		.cfi_offset 12, -32
 2494 0006 55       		pushq	%rbp
 2495              	.LCFI105:
 2496              		.cfi_def_cfa_offset 40
 2497              		.cfi_offset 6, -40
 2498 0007 53       		pushq	%rbx
 2499              	.LCFI106:
 2500              		.cfi_def_cfa_offset 48
 2501              		.cfi_offset 3, -48
 2502 0008 4881EC90 		subq	$144, %rsp
 2502      000000
 2503              	.LCFI107:
 2504              		.cfi_def_cfa_offset 192
 975:/home/baikal/workspace/C50/Huawei_IoT_Agent_Tiny_SDK_Linux//lwm2m/core/observe.c ****     lwm2m_uri_t uri;
 976:/home/baikal/workspace/C50/Huawei_IoT_Agent_Tiny_SDK_Linux//lwm2m/core/observe.c ****     int res;
 977:/home/baikal/workspace/C50/Huawei_IoT_Agent_Tiny_SDK_Linux//lwm2m/core/observe.c ****     lwm2m_data_t data;
 978:/home/baikal/workspace/C50/Huawei_IoT_Agent_Tiny_SDK_Linux//lwm2m/core/observe.c ****     lwm2m_media_type_t format;
 979:/home/baikal/workspace/C50/Huawei_IoT_Agent_Tiny_SDK_Linux//lwm2m/core/observe.c ****     uint8_t *buffer = NULL;
 2505              		.loc 1 979 0
 2506 000f 48C74424 		movq	$0, 80(%rsp)
 2506      50000000 
 2506      00
 980:/home/baikal/workspace/C50/Huawei_IoT_Agent_Tiny_SDK_Linux//lwm2m/core/observe.c ****     lwm2m_server_t *server;
 981:/home/baikal/workspace/C50/Huawei_IoT_Agent_Tiny_SDK_Linux//lwm2m/core/observe.c ****     lwm2m_watcher_t watcherP;
 982:/home/baikal/workspace/C50/Huawei_IoT_Agent_Tiny_SDK_Linux//lwm2m/core/observe.c **** 
 983:/home/baikal/workspace/C50/Huawei_IoT_Agent_Tiny_SDK_Linux//lwm2m/core/observe.c **** 
GAS LISTING /tmp/ccGR9aQU.s 			page 72


 984:/home/baikal/workspace/C50/Huawei_IoT_Agent_Tiny_SDK_Linux//lwm2m/core/observe.c ****     if((NULL == observe_info) || (NULL == contextP) || (NULL == cfg))
 2507              		.loc 1 984 0
 2508 0018 4885F6   		testq	%rsi, %rsi
 2509 001b 410F94C0 		sete	%r8b
 2510 001f 4885FF   		testq	%rdi, %rdi
 2511 0022 0F94C0   		sete	%al
 2512 0025 4108C0   		orb	%al, %r8b
 2513 0028 0F851D01 		jne	.L226
 2513      0000
 2514              		.loc 1 984 0 is_stmt 0 discriminator 1
 2515 002e 4885C9   		testq	%rcx, %rcx
 2516 0031 0F841B01 		je	.L227
 2516      0000
 2517 0037 4989CC   		movq	%rcx, %r12
 2518 003a 4189D5   		movl	%edx, %r13d
 2519 003d 4889F5   		movq	%rsi, %rbp
 2520 0040 4889FB   		movq	%rdi, %rbx
 985:/home/baikal/workspace/C50/Huawei_IoT_Agent_Tiny_SDK_Linux//lwm2m/core/observe.c ****     {
 986:/home/baikal/workspace/C50/Huawei_IoT_Agent_Tiny_SDK_Linux//lwm2m/core/observe.c ****         LOG("null pointer\n");
 987:/home/baikal/workspace/C50/Huawei_IoT_Agent_Tiny_SDK_Linux//lwm2m/core/observe.c ****         return COAP_500_INTERNAL_SERVER_ERROR;
 988:/home/baikal/workspace/C50/Huawei_IoT_Agent_Tiny_SDK_Linux//lwm2m/core/observe.c ****     }
 989:/home/baikal/workspace/C50/Huawei_IoT_Agent_Tiny_SDK_Linux//lwm2m/core/observe.c **** 
 990:/home/baikal/workspace/C50/Huawei_IoT_Agent_Tiny_SDK_Linux//lwm2m/core/observe.c ****     server = registration_get_registered_server(contextP);
 2521              		.loc 1 990 0 is_stmt 1
 2522 0043 E8000000 		call	registration_get_registered_server
 2522      00
 2523              	.LVL268:
 2524 0048 4989C6   		movq	%rax, %r14
 2525              	.LVL269:
 991:/home/baikal/workspace/C50/Huawei_IoT_Agent_Tiny_SDK_Linux//lwm2m/core/observe.c ****     if(NULL == server)
 2526              		.loc 1 991 0
 2527 004b 4885C0   		testq	%rax, %rax
 2528 004e 0F840501 		je	.L228
 2528      0000
 992:/home/baikal/workspace/C50/Huawei_IoT_Agent_Tiny_SDK_Linux//lwm2m/core/observe.c ****     {
 993:/home/baikal/workspace/C50/Huawei_IoT_Agent_Tiny_SDK_Linux//lwm2m/core/observe.c ****         LOG("registration_get_registered_server fail\n");
 994:/home/baikal/workspace/C50/Huawei_IoT_Agent_Tiny_SDK_Linux//lwm2m/core/observe.c ****         return COAP_500_INTERNAL_SERVER_ERROR;
 995:/home/baikal/workspace/C50/Huawei_IoT_Agent_Tiny_SDK_Linux//lwm2m/core/observe.c ****     }
 996:/home/baikal/workspace/C50/Huawei_IoT_Agent_Tiny_SDK_Linux//lwm2m/core/observe.c **** 
 997:/home/baikal/workspace/C50/Huawei_IoT_Agent_Tiny_SDK_Linux//lwm2m/core/observe.c ****     uri.objectId = LWM2M_FIRMWARE_UPDATE_OBJECT_ID;
 2529              		.loc 1 997 0
 2530 0054 66C78424 		movw	$5, 130(%rsp)
 2530      82000000 
 2530      0500
 998:/home/baikal/workspace/C50/Huawei_IoT_Agent_Tiny_SDK_Linux//lwm2m/core/observe.c ****     uri.instanceId = 0;
 2531              		.loc 1 998 0
 2532 005e 66C78424 		movw	$0, 132(%rsp)
 2532      84000000 
 2532      0000
 999:/home/baikal/workspace/C50/Huawei_IoT_Agent_Tiny_SDK_Linux//lwm2m/core/observe.c ****     uri.resourceId = RES_M_STATE;
 2533              		.loc 1 999 0
 2534 0068 66C78424 		movw	$3, 134(%rsp)
 2534      86000000 
 2534      0300
1000:/home/baikal/workspace/C50/Huawei_IoT_Agent_Tiny_SDK_Linux//lwm2m/core/observe.c ****     uri.flag = (LWM2M_URI_FLAG_OBJECT_ID | LWM2M_URI_FLAG_INSTANCE_ID | LWM2M_URI_FLAG_RESOURCE_ID)
 2535              		.loc 1 1000 0
 2536 0072 C6842480 		movb	$7, 128(%rsp)
GAS LISTING /tmp/ccGR9aQU.s 			page 73


 2536      00000007 
1001:/home/baikal/workspace/C50/Huawei_IoT_Agent_Tiny_SDK_Linux//lwm2m/core/observe.c **** 
1002:/home/baikal/workspace/C50/Huawei_IoT_Agent_Tiny_SDK_Linux//lwm2m/core/observe.c ****     format = (lwm2m_media_type_t)observe_info->format;
 2537              		.loc 1 1002 0
 2538 007a 8B4500   		movl	0(%rbp), %eax
 2539              	.LVL270:
 2540 007d 8944245C 		movl	%eax, 92(%rsp)
 2541              	.LVL271:
 2542              	.LBB56:
 2543              	.LBB57:
 2544              		.loc 2 90 0
 2545 0081 48C74424 		movq	$0, 96(%rsp)
 2545      60000000 
 2545      00
 2546 008a 48C74424 		movq	$0, 104(%rsp)
 2546      68000000 
 2546      00
 2547 0093 48C74424 		movq	$0, 112(%rsp)
 2547      70000000 
 2547      00
 2548              	.LVL272:
 2549              	.LBE57:
 2550              	.LBE56:
1003:/home/baikal/workspace/C50/Huawei_IoT_Agent_Tiny_SDK_Linux//lwm2m/core/observe.c ****     memset(&data, 0, sizeof(data));
1004:/home/baikal/workspace/C50/Huawei_IoT_Agent_Tiny_SDK_Linux//lwm2m/core/observe.c ****     data.id = uri.resourceId;
 2551              		.loc 1 1004 0
 2552 009c 66C74424 		movw	$3, 100(%rsp)
 2552      640300
1005:/home/baikal/workspace/C50/Huawei_IoT_Agent_Tiny_SDK_Linux//lwm2m/core/observe.c ****     lwm2m_data_encode_int(firmware_update_state, &data);
 2553              		.loc 1 1005 0
 2554 00a3 4963FD   		movslq	%r13d, %rdi
 2555 00a6 488D7424 		leaq	96(%rsp), %rsi
 2555      60
 2556 00ab E8000000 		call	lwm2m_data_encode_int
 2556      00
 2557              	.LVL273:
1006:/home/baikal/workspace/C50/Huawei_IoT_Agent_Tiny_SDK_Linux//lwm2m/core/observe.c ****     res = lwm2m_data_serialize(&uri, 1, &data, &format, &buffer);
 2558              		.loc 1 1006 0
 2559 00b0 4C8D4424 		leaq	80(%rsp), %r8
 2559      50
 2560 00b5 488D4C24 		leaq	92(%rsp), %rcx
 2560      5C
 2561 00ba 488D5424 		leaq	96(%rsp), %rdx
 2561      60
 2562 00bf BE010000 		movl	$1, %esi
 2562      00
 2563 00c4 488DBC24 		leaq	128(%rsp), %rdi
 2563      80000000 
 2564 00cc E8000000 		call	lwm2m_data_serialize
 2564      00
 2565              	.LVL274:
 2566 00d1 4189C0   		movl	%eax, %r8d
 2567              	.LVL275:
1007:/home/baikal/workspace/C50/Huawei_IoT_Agent_Tiny_SDK_Linux//lwm2m/core/observe.c ****     if (res < 0)
 2568              		.loc 1 1007 0
 2569 00d4 85C0     		testl	%eax, %eax
 2570 00d6 7916     		jns	.L225
GAS LISTING /tmp/ccGR9aQU.s 			page 74


1008:/home/baikal/workspace/C50/Huawei_IoT_Agent_Tiny_SDK_Linux//lwm2m/core/observe.c ****     {
1009:/home/baikal/workspace/C50/Huawei_IoT_Agent_Tiny_SDK_Linux//lwm2m/core/observe.c ****         LOG("lwm2m_data_serialize fail\n");
1010:/home/baikal/workspace/C50/Huawei_IoT_Agent_Tiny_SDK_Linux//lwm2m/core/observe.c ****         if (buffer != NULL)
 2571              		.loc 1 1010 0
 2572 00d8 488B7C24 		movq	80(%rsp), %rdi
 2572      50
 2573 00dd 4885FF   		testq	%rdi, %rdi
 2574 00e0 747E     		je	.L229
1011:/home/baikal/workspace/C50/Huawei_IoT_Agent_Tiny_SDK_Linux//lwm2m/core/observe.c ****         {
1012:/home/baikal/workspace/C50/Huawei_IoT_Agent_Tiny_SDK_Linux//lwm2m/core/observe.c ****             lwm2m_free(buffer);
 2575              		.loc 1 1012 0
 2576 00e2 E8000000 		call	lwm2m_free
 2576      00
 2577              	.LVL276:
1013:/home/baikal/workspace/C50/Huawei_IoT_Agent_Tiny_SDK_Linux//lwm2m/core/observe.c ****         }
1014:/home/baikal/workspace/C50/Huawei_IoT_Agent_Tiny_SDK_Linux//lwm2m/core/observe.c ****         return COAP_500_INTERNAL_SERVER_ERROR;
 2578              		.loc 1 1014 0
 2579 00e7 B8A0FFFF 		movl	$-96, %eax
 2579      FF
 2580 00ec EB77     		jmp	.L224
 2581              	.LVL277:
 2582              	.L225:
 2583              	.LBB58:
 2584              	.LBB59:
 2585              		.loc 2 90 0
 2586 00ee 4889E2   		movq	%rsp, %rdx
 2587 00f1 B90A0000 		movl	$10, %ecx
 2587      00
 2588 00f6 B8000000 		movl	$0, %eax
 2588      00
 2589              	.LVL278:
 2590 00fb 4889E7   		movq	%rsp, %rdi
 2591 00fe F348AB   		rep stosq
 2592              	.LVL279:
 2593              	.LBE59:
 2594              	.LBE58:
1015:/home/baikal/workspace/C50/Huawei_IoT_Agent_Tiny_SDK_Linux//lwm2m/core/observe.c ****     }
1016:/home/baikal/workspace/C50/Huawei_IoT_Agent_Tiny_SDK_Linux//lwm2m/core/observe.c **** 
1017:/home/baikal/workspace/C50/Huawei_IoT_Agent_Tiny_SDK_Linux//lwm2m/core/observe.c ****     memset(&watcherP, 0, sizeof(watcherP));
1018:/home/baikal/workspace/C50/Huawei_IoT_Agent_Tiny_SDK_Linux//lwm2m/core/observe.c ****     watcherP.lastMid = contextP->nextMID++;
 2595              		.loc 1 1018 0
 2596 0101 0FB74350 		movzwl	80(%rbx), %eax
 2597 0105 8D4801   		leal	1(%rax), %ecx
 2598 0108 66894B50 		movw	%cx, 80(%rbx)
 2599 010c 66894424 		movw	%ax, 68(%rsp)
 2599      44
1019:/home/baikal/workspace/C50/Huawei_IoT_Agent_Tiny_SDK_Linux//lwm2m/core/observe.c ****     watcherP.tokenLen = observe_info->tokenLen;
 2600              		.loc 1 1019 0
 2601 0111 8B450C   		movl	12(%rbp), %eax
 2602 0114 48894424 		movq	%rax, 48(%rsp)
 2602      30
 2603              	.LVL280:
 2604 0119 488B4504 		movq	4(%rbp), %rax
 2605 011d 48894424 		movq	%rax, 36(%rsp)
 2605      24
 2606              	.LVL281:
1020:/home/baikal/workspace/C50/Huawei_IoT_Agent_Tiny_SDK_Linux//lwm2m/core/observe.c ****     memcpy(watcherP.token, observe_info->token, sizeof(watcherP.token));
GAS LISTING /tmp/ccGR9aQU.s 			page 75


1021:/home/baikal/workspace/C50/Huawei_IoT_Agent_Tiny_SDK_Linux//lwm2m/core/observe.c ****     watcherP.format = format;
 2607              		.loc 1 1021 0
 2608 0122 8B44245C 		movl	92(%rsp), %eax
 2609 0126 89442420 		movl	%eax, 32(%rsp)
1022:/home/baikal/workspace/C50/Huawei_IoT_Agent_Tiny_SDK_Linux//lwm2m/core/observe.c ****     watcherP.counter = observe_info->counter;
 2610              		.loc 1 1022 0
 2611 012a 8B4510   		movl	16(%rbp), %eax
 2612 012d 89442440 		movl	%eax, 64(%rsp)
1023:/home/baikal/workspace/C50/Huawei_IoT_Agent_Tiny_SDK_Linux//lwm2m/core/observe.c ****     watcherP.server = server;
 2613              		.loc 1 1023 0
 2614 0131 4C897424 		movq	%r14, 16(%rsp)
 2614      10
1024:/home/baikal/workspace/C50/Huawei_IoT_Agent_Tiny_SDK_Linux//lwm2m/core/observe.c **** 
1025:/home/baikal/workspace/C50/Huawei_IoT_Agent_Tiny_SDK_Linux//lwm2m/core/observe.c ****     return (uint8_t)observe_send_transaction(contextP, cfg, &watcherP, buffer, res);
 2615              		.loc 1 1025 0
 2616 0136 4D63C0   		movslq	%r8d, %r8
 2617 0139 488B4C24 		movq	80(%rsp), %rcx
 2617      50
 2618 013e 4C89E6   		movq	%r12, %rsi
 2619 0141 4889DF   		movq	%rbx, %rdi
 2620 0144 E8000000 		call	observe_send_transaction
 2620      00
 2621              	.LVL282:
 2622 0149 EB1A     		jmp	.L224
 2623              	.LVL283:
 2624              	.L226:
 987:/home/baikal/workspace/C50/Huawei_IoT_Agent_Tiny_SDK_Linux//lwm2m/core/observe.c ****     }
 2625              		.loc 1 987 0
 2626 014b B8A0FFFF 		movl	$-96, %eax
 2626      FF
 2627 0150 EB13     		jmp	.L224
 2628              	.L227:
 2629 0152 B8A0FFFF 		movl	$-96, %eax
 2629      FF
 2630 0157 EB0C     		jmp	.L224
 2631              	.LVL284:
 2632              	.L228:
 994:/home/baikal/workspace/C50/Huawei_IoT_Agent_Tiny_SDK_Linux//lwm2m/core/observe.c ****     }
 2633              		.loc 1 994 0
 2634 0159 B8A0FFFF 		movl	$-96, %eax
 2634      FF
 2635              	.LVL285:
 2636 015e EB05     		jmp	.L224
 2637              	.LVL286:
 2638              	.L229:
1014:/home/baikal/workspace/C50/Huawei_IoT_Agent_Tiny_SDK_Linux//lwm2m/core/observe.c ****     }
 2639              		.loc 1 1014 0
 2640 0160 B8A0FFFF 		movl	$-96, %eax
 2640      FF
 2641              	.LVL287:
 2642              	.L224:
1026:/home/baikal/workspace/C50/Huawei_IoT_Agent_Tiny_SDK_Linux//lwm2m/core/observe.c **** }
 2643              		.loc 1 1026 0
 2644 0165 4881C490 		addq	$144, %rsp
 2644      000000
 2645              	.LCFI108:
 2646              		.cfi_def_cfa_offset 48
GAS LISTING /tmp/ccGR9aQU.s 			page 76


 2647 016c 5B       		popq	%rbx
 2648              	.LCFI109:
 2649              		.cfi_def_cfa_offset 40
 2650 016d 5D       		popq	%rbp
 2651              	.LCFI110:
 2652              		.cfi_def_cfa_offset 32
 2653 016e 415C     		popq	%r12
 2654              	.LCFI111:
 2655              		.cfi_def_cfa_offset 24
 2656 0170 415D     		popq	%r13
 2657              	.LCFI112:
 2658              		.cfi_def_cfa_offset 16
 2659 0172 415E     		popq	%r14
 2660              	.LCFI113:
 2661              		.cfi_def_cfa_offset 8
 2662 0174 C3       		ret
 2663              		.cfi_endproc
 2664              	.LFE78:
 2666              		.section	.bss.observe_call_back,"aw",@nobits
 2667              		.align 8
 2670              	observe_call_back:
 2671 0000 00000000 		.zero	8
 2671      00000000 
 2672              		.section	.rodata.cst8,"aM",@progbits,8
 2673              		.align 8
 2674              	.LC0:
 2675 0000 00000000 		.long	0
 2676 0004 00000000 		.long	0
 2677              		.text
 2678              	.Letext0:
 2679              		.file 3 "/usr/include/stdint.h"
 2680              		.file 4 "/usr/lib/gcc/x86_64-linux-gnu/5/include/stddef.h"
 2681              		.file 5 "/usr/include/x86_64-linux-gnu/bits/types.h"
 2682              		.file 6 "/usr/include/time.h"
 2683              		.file 7 "/home/baikal/workspace/C50/Huawei_IoT_Agent_Tiny_SDK_Linux//lwm2m/core/er-coap-13/er-coap
 2684              		.file 8 "/usr/include/libio.h"
 2685              		.file 9 "/home/baikal/workspace/C50/Huawei_IoT_Agent_Tiny_SDK_Linux//lwm2m/core/liblwm2m.h"
 2686              		.file 10 "/home/baikal/workspace/C50/Huawei_IoT_Agent_Tiny_SDK_Linux//lwm2m/core/internals.h"
 2687              		.file 11 "/usr/include/stdio.h"
 2688              		.file 12 "/home/baikal/workspace/C50/Huawei_IoT_Agent_Tiny_SDK_Linux//agent_tiny/osadapter/atiny_a
GAS LISTING /tmp/ccGR9aQU.s 			page 77


DEFINED SYMBOLS
                            *ABS*:0000000000000000 observe.c
     /tmp/ccGR9aQU.s:6      .text.prv_findObserved:0000000000000000 prv_findObserved
     /tmp/ccGR9aQU.s:57     .text.prv_unlinkObserved:0000000000000000 prv_unlinkObserved
     /tmp/ccGR9aQU.s:99     .text.prv_findWatcher:0000000000000000 prv_findWatcher
     /tmp/ccGR9aQU.s:128    .text.prv_getWatcher:0000000000000000 prv_getWatcher
     /tmp/ccGR9aQU.s:320    .text.lwm2m_register_observe_ack_call_back:0000000000000000 lwm2m_register_observe_ack_call_back
     /tmp/ccGR9aQU.s:2670   .bss.observe_call_back:0000000000000000 observe_call_back
     /tmp/ccGR9aQU.s:334    .text.observe_cancel:0000000000000000 observe_cancel
     /tmp/ccGR9aQU.s:530    .text.observe_handleRequest:0000000000000000 observe_handleRequest
     /tmp/ccGR9aQU.s:738    .text.observe_clear:0000000000000000 observe_clear
     /tmp/ccGR9aQU.s:869    .text.observe_setParameters:0000000000000000 observe_setParameters
     /tmp/ccGR9aQU.s:1154   .text.observe_findByUri:0000000000000000 observe_findByUri
     /tmp/ccGR9aQU.s:1224   .text.lwm2m_resource_value_changed:0000000000000000 lwm2m_resource_value_changed
     /tmp/ccGR9aQU.s:1299   .text.observe_send_transaction:0000000000000000 observe_send_transaction
     /tmp/ccGR9aQU.s:1446   .text.observe_app_step:0000000000000000 observe_app_step
     /tmp/ccGR9aQU.s:1695   .text.observe_step:0000000000000000 observe_step
     /tmp/ccGR9aQU.s:2400   .text.lwm2m_get_observe_info:0000000000000000 lwm2m_get_observe_info
     /tmp/ccGR9aQU.s:2477   .text.lwm2m_send_notify:0000000000000000 lwm2m_send_notify
     /tmp/ccGR9aQU.s:2674   .rodata.cst8:0000000000000000 .LC0

UNDEFINED SYMBOLS
lwm2m_malloc
atiny_mutex_lock
atiny_mutex_unlock
lwm2m_free
lwm2m_session_is_equal
lwm2m_notify_even
coap_get_header_observe
memcpy
lwm2m_gettime
utils_convertMediaType
lwm2m_data_decode_int
lwm2m_data_decode_float
coap_set_header_observe
lwm2m_list_free
object_checkReadable
object_checkNumeric
transaction_new
coap_set_header_content_type
coap_set_payload
lwm2m_list_add
transaction_send
lwm2m_data_serialize
lwm2m_data_free
coap_init_message
coap_set_header_token
message_send
object_readData
object_read
registration_get_registered_server
lwm2m_data_encode_int
