GAS LISTING /tmp/ccj9abZH.s 			page 1


   1              		.file	"packet.c"
   2              		.text
   3              	.Ltext0:
   4              		.section	.text.handle_request,"ax",@progbits
   6              	handle_request:
   7              	.LFB64:
   8              		.file 1 "/home/baikal/workspace/C50/Huawei_IoT_Agent_Tiny_SDK_Linux//lwm2m/core/packet.c"
   1:/home/baikal/workspace/C50/Huawei_IoT_Agent_Tiny_SDK_Linux//lwm2m/core/packet.c **** /*----------------------------------------------------------------------------
   2:/home/baikal/workspace/C50/Huawei_IoT_Agent_Tiny_SDK_Linux//lwm2m/core/packet.c ****  * Copyright (c) <2016-2018>, <Huawei Technologies Co., Ltd>
   3:/home/baikal/workspace/C50/Huawei_IoT_Agent_Tiny_SDK_Linux//lwm2m/core/packet.c ****  * All rights reserved.
   4:/home/baikal/workspace/C50/Huawei_IoT_Agent_Tiny_SDK_Linux//lwm2m/core/packet.c ****  * Redistribution and use in source and binary forms, with or without modification,
   5:/home/baikal/workspace/C50/Huawei_IoT_Agent_Tiny_SDK_Linux//lwm2m/core/packet.c ****  * are permitted provided that the following conditions are met:
   6:/home/baikal/workspace/C50/Huawei_IoT_Agent_Tiny_SDK_Linux//lwm2m/core/packet.c ****  * 1. Redistributions of source code must retain the above copyright notice, this list of
   7:/home/baikal/workspace/C50/Huawei_IoT_Agent_Tiny_SDK_Linux//lwm2m/core/packet.c ****  * conditions and the following disclaimer.
   8:/home/baikal/workspace/C50/Huawei_IoT_Agent_Tiny_SDK_Linux//lwm2m/core/packet.c ****  * 2. Redistributions in binary form must reproduce the above copyright notice, this list
   9:/home/baikal/workspace/C50/Huawei_IoT_Agent_Tiny_SDK_Linux//lwm2m/core/packet.c ****  * of conditions and the following disclaimer in the documentation and/or other materials
  10:/home/baikal/workspace/C50/Huawei_IoT_Agent_Tiny_SDK_Linux//lwm2m/core/packet.c ****  * provided with the distribution.
  11:/home/baikal/workspace/C50/Huawei_IoT_Agent_Tiny_SDK_Linux//lwm2m/core/packet.c ****  * 3. Neither the name of the copyright holder nor the names of its contributors may be used
  12:/home/baikal/workspace/C50/Huawei_IoT_Agent_Tiny_SDK_Linux//lwm2m/core/packet.c ****  * to endorse or promote products derived from this software without specific prior written
  13:/home/baikal/workspace/C50/Huawei_IoT_Agent_Tiny_SDK_Linux//lwm2m/core/packet.c ****  * permission.
  14:/home/baikal/workspace/C50/Huawei_IoT_Agent_Tiny_SDK_Linux//lwm2m/core/packet.c ****  * THIS SOFTWARE IS PROVIDED BY THE COPYRIGHT HOLDERS AND CONTRIBUTORS
  15:/home/baikal/workspace/C50/Huawei_IoT_Agent_Tiny_SDK_Linux//lwm2m/core/packet.c ****  * "AS IS" AND ANY EXPRESS OR IMPLIED WARRANTIES, INCLUDING, BUT NOT LIMITED TO,
  16:/home/baikal/workspace/C50/Huawei_IoT_Agent_Tiny_SDK_Linux//lwm2m/core/packet.c ****  * THE IMPLIED WARRANTIES OF MERCHANTABILITY AND FITNESS FOR A PARTICULAR
  17:/home/baikal/workspace/C50/Huawei_IoT_Agent_Tiny_SDK_Linux//lwm2m/core/packet.c ****  * PURPOSE ARE DISCLAIMED. IN NO EVENT SHALL THE COPYRIGHT HOLDER OR
  18:/home/baikal/workspace/C50/Huawei_IoT_Agent_Tiny_SDK_Linux//lwm2m/core/packet.c ****  * CONTRIBUTORS BE LIABLE FOR ANY DIRECT, INDIRECT, INCIDENTAL, SPECIAL,
  19:/home/baikal/workspace/C50/Huawei_IoT_Agent_Tiny_SDK_Linux//lwm2m/core/packet.c ****  * EXEMPLARY, OR CONSEQUENTIAL DAMAGES (INCLUDING, BUT NOT LIMITED TO,
  20:/home/baikal/workspace/C50/Huawei_IoT_Agent_Tiny_SDK_Linux//lwm2m/core/packet.c ****  * PROCUREMENT OF SUBSTITUTE GOODS OR SERVICES; LOSS OF USE, DATA, OR PROFITS;
  21:/home/baikal/workspace/C50/Huawei_IoT_Agent_Tiny_SDK_Linux//lwm2m/core/packet.c ****  * OR BUSINESS INTERRUPTION) HOWEVER CAUSED AND ON ANY THEORY OF LIABILITY,
  22:/home/baikal/workspace/C50/Huawei_IoT_Agent_Tiny_SDK_Linux//lwm2m/core/packet.c ****  * WHETHER IN CONTRACT, STRICT LIABILITY, OR TORT (INCLUDING NEGLIGENCE OR
  23:/home/baikal/workspace/C50/Huawei_IoT_Agent_Tiny_SDK_Linux//lwm2m/core/packet.c ****  * OTHERWISE) ARISING IN ANY WAY OUT OF THE USE OF THIS SOFTWARE, EVEN IF
  24:/home/baikal/workspace/C50/Huawei_IoT_Agent_Tiny_SDK_Linux//lwm2m/core/packet.c ****  * ADVISED OF THE POSSIBILITY OF SUCH DAMAGE.
  25:/home/baikal/workspace/C50/Huawei_IoT_Agent_Tiny_SDK_Linux//lwm2m/core/packet.c ****  *---------------------------------------------------------------------------*/
  26:/home/baikal/workspace/C50/Huawei_IoT_Agent_Tiny_SDK_Linux//lwm2m/core/packet.c **** /*----------------------------------------------------------------------------
  27:/home/baikal/workspace/C50/Huawei_IoT_Agent_Tiny_SDK_Linux//lwm2m/core/packet.c ****  * Notice of Export Control Law
  28:/home/baikal/workspace/C50/Huawei_IoT_Agent_Tiny_SDK_Linux//lwm2m/core/packet.c ****  * ===============================================
  29:/home/baikal/workspace/C50/Huawei_IoT_Agent_Tiny_SDK_Linux//lwm2m/core/packet.c ****  * Huawei LiteOS may be subject to applicable export control laws and regulations, which might
  30:/home/baikal/workspace/C50/Huawei_IoT_Agent_Tiny_SDK_Linux//lwm2m/core/packet.c ****  * include those applicable to Huawei LiteOS of U.S. and the country in which you are located.
  31:/home/baikal/workspace/C50/Huawei_IoT_Agent_Tiny_SDK_Linux//lwm2m/core/packet.c ****  * Import, export and usage of Huawei LiteOS in any manner by you shall be in compliance with such
  32:/home/baikal/workspace/C50/Huawei_IoT_Agent_Tiny_SDK_Linux//lwm2m/core/packet.c ****  * applicable export control laws and regulations.
  33:/home/baikal/workspace/C50/Huawei_IoT_Agent_Tiny_SDK_Linux//lwm2m/core/packet.c ****  *---------------------------------------------------------------------------*/
  34:/home/baikal/workspace/C50/Huawei_IoT_Agent_Tiny_SDK_Linux//lwm2m/core/packet.c **** 
  35:/home/baikal/workspace/C50/Huawei_IoT_Agent_Tiny_SDK_Linux//lwm2m/core/packet.c **** /*******************************************************************************
  36:/home/baikal/workspace/C50/Huawei_IoT_Agent_Tiny_SDK_Linux//lwm2m/core/packet.c ****  *
  37:/home/baikal/workspace/C50/Huawei_IoT_Agent_Tiny_SDK_Linux//lwm2m/core/packet.c ****  * Copyright (c) 2013, 2014 Intel Corporation and others.
  38:/home/baikal/workspace/C50/Huawei_IoT_Agent_Tiny_SDK_Linux//lwm2m/core/packet.c ****  * All rights reserved. This program and the accompanying materials
  39:/home/baikal/workspace/C50/Huawei_IoT_Agent_Tiny_SDK_Linux//lwm2m/core/packet.c ****  * are made available under the terms of the Eclipse Public License v1.0
  40:/home/baikal/workspace/C50/Huawei_IoT_Agent_Tiny_SDK_Linux//lwm2m/core/packet.c ****  * and Eclipse Distribution License v1.0 which accompany this distribution.
  41:/home/baikal/workspace/C50/Huawei_IoT_Agent_Tiny_SDK_Linux//lwm2m/core/packet.c ****  *
  42:/home/baikal/workspace/C50/Huawei_IoT_Agent_Tiny_SDK_Linux//lwm2m/core/packet.c ****  * The Eclipse Public License is available at
  43:/home/baikal/workspace/C50/Huawei_IoT_Agent_Tiny_SDK_Linux//lwm2m/core/packet.c ****  *    http://www.eclipse.org/legal/epl-v10.html
  44:/home/baikal/workspace/C50/Huawei_IoT_Agent_Tiny_SDK_Linux//lwm2m/core/packet.c ****  * The Eclipse Distribution License is available at
  45:/home/baikal/workspace/C50/Huawei_IoT_Agent_Tiny_SDK_Linux//lwm2m/core/packet.c ****  *    http://www.eclipse.org/org/documents/edl-v10.php.
  46:/home/baikal/workspace/C50/Huawei_IoT_Agent_Tiny_SDK_Linux//lwm2m/core/packet.c ****  *
  47:/home/baikal/workspace/C50/Huawei_IoT_Agent_Tiny_SDK_Linux//lwm2m/core/packet.c ****  * Contributors:
  48:/home/baikal/workspace/C50/Huawei_IoT_Agent_Tiny_SDK_Linux//lwm2m/core/packet.c ****  *    David Navarro, Intel Corporation - initial API and implementation
  49:/home/baikal/workspace/C50/Huawei_IoT_Agent_Tiny_SDK_Linux//lwm2m/core/packet.c ****  *    domedambrosio - Please refer to git log
  50:/home/baikal/workspace/C50/Huawei_IoT_Agent_Tiny_SDK_Linux//lwm2m/core/packet.c ****  *    Fabien Fleutot - Please refer to git log
GAS LISTING /tmp/ccj9abZH.s 			page 2


  51:/home/baikal/workspace/C50/Huawei_IoT_Agent_Tiny_SDK_Linux//lwm2m/core/packet.c ****  *    Fabien Fleutot - Please refer to git log
  52:/home/baikal/workspace/C50/Huawei_IoT_Agent_Tiny_SDK_Linux//lwm2m/core/packet.c ****  *    Simon Bernard - Please refer to git log
  53:/home/baikal/workspace/C50/Huawei_IoT_Agent_Tiny_SDK_Linux//lwm2m/core/packet.c ****  *    Toby Jaffey - Please refer to git log
  54:/home/baikal/workspace/C50/Huawei_IoT_Agent_Tiny_SDK_Linux//lwm2m/core/packet.c ****  *    Pascal Rieux - Please refer to git log
  55:/home/baikal/workspace/C50/Huawei_IoT_Agent_Tiny_SDK_Linux//lwm2m/core/packet.c ****  *    Bosch Software Innovations GmbH - Please refer to git log
  56:/home/baikal/workspace/C50/Huawei_IoT_Agent_Tiny_SDK_Linux//lwm2m/core/packet.c ****  *
  57:/home/baikal/workspace/C50/Huawei_IoT_Agent_Tiny_SDK_Linux//lwm2m/core/packet.c ****  *******************************************************************************/
  58:/home/baikal/workspace/C50/Huawei_IoT_Agent_Tiny_SDK_Linux//lwm2m/core/packet.c **** 
  59:/home/baikal/workspace/C50/Huawei_IoT_Agent_Tiny_SDK_Linux//lwm2m/core/packet.c **** /*
  60:/home/baikal/workspace/C50/Huawei_IoT_Agent_Tiny_SDK_Linux//lwm2m/core/packet.c ****  Copyright (c) 2013, 2014 Intel Corporation
  61:/home/baikal/workspace/C50/Huawei_IoT_Agent_Tiny_SDK_Linux//lwm2m/core/packet.c **** 
  62:/home/baikal/workspace/C50/Huawei_IoT_Agent_Tiny_SDK_Linux//lwm2m/core/packet.c ****  Redistribution and use in source and binary forms, with or without modification,
  63:/home/baikal/workspace/C50/Huawei_IoT_Agent_Tiny_SDK_Linux//lwm2m/core/packet.c ****  are permitted provided that the following conditions are met:
  64:/home/baikal/workspace/C50/Huawei_IoT_Agent_Tiny_SDK_Linux//lwm2m/core/packet.c **** 
  65:/home/baikal/workspace/C50/Huawei_IoT_Agent_Tiny_SDK_Linux//lwm2m/core/packet.c ****      * Redistributions of source code must retain the above copyright notice,
  66:/home/baikal/workspace/C50/Huawei_IoT_Agent_Tiny_SDK_Linux//lwm2m/core/packet.c ****        this list of conditions and the following disclaimer.
  67:/home/baikal/workspace/C50/Huawei_IoT_Agent_Tiny_SDK_Linux//lwm2m/core/packet.c ****      * Redistributions in binary form must reproduce the above copyright notice,
  68:/home/baikal/workspace/C50/Huawei_IoT_Agent_Tiny_SDK_Linux//lwm2m/core/packet.c ****        this list of conditions and the following disclaimer in the documentation
  69:/home/baikal/workspace/C50/Huawei_IoT_Agent_Tiny_SDK_Linux//lwm2m/core/packet.c ****        and/or other materials provided with the distribution.
  70:/home/baikal/workspace/C50/Huawei_IoT_Agent_Tiny_SDK_Linux//lwm2m/core/packet.c ****      * Neither the name of Intel Corporation nor the names of its contributors
  71:/home/baikal/workspace/C50/Huawei_IoT_Agent_Tiny_SDK_Linux//lwm2m/core/packet.c ****        may be used to endorse or promote products derived from this software
  72:/home/baikal/workspace/C50/Huawei_IoT_Agent_Tiny_SDK_Linux//lwm2m/core/packet.c ****        without specific prior written permission.
  73:/home/baikal/workspace/C50/Huawei_IoT_Agent_Tiny_SDK_Linux//lwm2m/core/packet.c **** 
  74:/home/baikal/workspace/C50/Huawei_IoT_Agent_Tiny_SDK_Linux//lwm2m/core/packet.c ****  THIS SOFTWARE IS PROVIDED BY THE COPYRIGHT HOLDERS AND CONTRIBUTORS "AS IS" AND
  75:/home/baikal/workspace/C50/Huawei_IoT_Agent_Tiny_SDK_Linux//lwm2m/core/packet.c ****  ANY EXPRESS OR IMPLIED WARRANTIES, INCLUDING, BUT NOT LIMITED TO, THE IMPLIED
  76:/home/baikal/workspace/C50/Huawei_IoT_Agent_Tiny_SDK_Linux//lwm2m/core/packet.c ****  WARRANTIES OF MERCHANTABILITY AND FITNESS FOR A PARTICULAR PURPOSE ARE DISCLAIMED.
  77:/home/baikal/workspace/C50/Huawei_IoT_Agent_Tiny_SDK_Linux//lwm2m/core/packet.c ****  IN NO EVENT SHALL THE COPYRIGHT OWNER OR CONTRIBUTORS BE LIABLE FOR ANY DIRECT,
  78:/home/baikal/workspace/C50/Huawei_IoT_Agent_Tiny_SDK_Linux//lwm2m/core/packet.c ****  INDIRECT, INCIDENTAL, SPECIAL, EXEMPLARY, OR CONSEQUENTIAL DAMAGES (INCLUDING,
  79:/home/baikal/workspace/C50/Huawei_IoT_Agent_Tiny_SDK_Linux//lwm2m/core/packet.c ****  BUT NOT LIMITED TO, PROCUREMENT OF SUBSTITUTE GOODS OR SERVICES; LOSS OF USE,
  80:/home/baikal/workspace/C50/Huawei_IoT_Agent_Tiny_SDK_Linux//lwm2m/core/packet.c ****  DATA, OR PROFITS; OR BUSINESS INTERRUPTION) HOWEVER CAUSED AND ON ANY THEORY OF
  81:/home/baikal/workspace/C50/Huawei_IoT_Agent_Tiny_SDK_Linux//lwm2m/core/packet.c ****  LIABILITY, WHETHER IN CONTRACT, STRICT LIABILITY, OR TORT (INCLUDING NEGLIGENCE OR
  82:/home/baikal/workspace/C50/Huawei_IoT_Agent_Tiny_SDK_Linux//lwm2m/core/packet.c ****  OTHERWISE) ARISING IN ANY WAY OUT OF THE USE OF THIS SOFTWARE, EVEN IF ADVISED OF
  83:/home/baikal/workspace/C50/Huawei_IoT_Agent_Tiny_SDK_Linux//lwm2m/core/packet.c ****  THE POSSIBILITY OF SUCH DAMAGE.
  84:/home/baikal/workspace/C50/Huawei_IoT_Agent_Tiny_SDK_Linux//lwm2m/core/packet.c **** 
  85:/home/baikal/workspace/C50/Huawei_IoT_Agent_Tiny_SDK_Linux//lwm2m/core/packet.c ****  David Navarro <david.navarro@intel.com>
  86:/home/baikal/workspace/C50/Huawei_IoT_Agent_Tiny_SDK_Linux//lwm2m/core/packet.c **** 
  87:/home/baikal/workspace/C50/Huawei_IoT_Agent_Tiny_SDK_Linux//lwm2m/core/packet.c **** */
  88:/home/baikal/workspace/C50/Huawei_IoT_Agent_Tiny_SDK_Linux//lwm2m/core/packet.c **** 
  89:/home/baikal/workspace/C50/Huawei_IoT_Agent_Tiny_SDK_Linux//lwm2m/core/packet.c **** /*
  90:/home/baikal/workspace/C50/Huawei_IoT_Agent_Tiny_SDK_Linux//lwm2m/core/packet.c **** Contains code snippets which are:
  91:/home/baikal/workspace/C50/Huawei_IoT_Agent_Tiny_SDK_Linux//lwm2m/core/packet.c **** 
  92:/home/baikal/workspace/C50/Huawei_IoT_Agent_Tiny_SDK_Linux//lwm2m/core/packet.c ****  * Copyright (c) 2013, Institute for Pervasive Computing, ETH Zurich
  93:/home/baikal/workspace/C50/Huawei_IoT_Agent_Tiny_SDK_Linux//lwm2m/core/packet.c ****  * All rights reserved.
  94:/home/baikal/workspace/C50/Huawei_IoT_Agent_Tiny_SDK_Linux//lwm2m/core/packet.c ****  *
  95:/home/baikal/workspace/C50/Huawei_IoT_Agent_Tiny_SDK_Linux//lwm2m/core/packet.c ****  * Redistribution and use in source and binary forms, with or without
  96:/home/baikal/workspace/C50/Huawei_IoT_Agent_Tiny_SDK_Linux//lwm2m/core/packet.c ****  * modification, are permitted provided that the following conditions
  97:/home/baikal/workspace/C50/Huawei_IoT_Agent_Tiny_SDK_Linux//lwm2m/core/packet.c ****  * are met:
  98:/home/baikal/workspace/C50/Huawei_IoT_Agent_Tiny_SDK_Linux//lwm2m/core/packet.c ****  * 1. Redistributions of source code must retain the above copyright
  99:/home/baikal/workspace/C50/Huawei_IoT_Agent_Tiny_SDK_Linux//lwm2m/core/packet.c ****  *    notice, this list of conditions and the following disclaimer.
 100:/home/baikal/workspace/C50/Huawei_IoT_Agent_Tiny_SDK_Linux//lwm2m/core/packet.c ****  * 2. Redistributions in binary form must reproduce the above copyright
 101:/home/baikal/workspace/C50/Huawei_IoT_Agent_Tiny_SDK_Linux//lwm2m/core/packet.c ****  *    notice, this list of conditions and the following disclaimer in the
 102:/home/baikal/workspace/C50/Huawei_IoT_Agent_Tiny_SDK_Linux//lwm2m/core/packet.c ****  *    documentation and/or other materials provided with the distribution.
 103:/home/baikal/workspace/C50/Huawei_IoT_Agent_Tiny_SDK_Linux//lwm2m/core/packet.c ****  * 3. Neither the name of the Institute nor the names of its contributors
 104:/home/baikal/workspace/C50/Huawei_IoT_Agent_Tiny_SDK_Linux//lwm2m/core/packet.c ****  *    may be used to endorse or promote products derived from this software
 105:/home/baikal/workspace/C50/Huawei_IoT_Agent_Tiny_SDK_Linux//lwm2m/core/packet.c ****  *    without specific prior written permission.
 106:/home/baikal/workspace/C50/Huawei_IoT_Agent_Tiny_SDK_Linux//lwm2m/core/packet.c ****  *
 107:/home/baikal/workspace/C50/Huawei_IoT_Agent_Tiny_SDK_Linux//lwm2m/core/packet.c ****  * THIS SOFTWARE IS PROVIDED BY THE INSTITUTE AND CONTRIBUTORS ``AS IS'' AND
GAS LISTING /tmp/ccj9abZH.s 			page 3


 108:/home/baikal/workspace/C50/Huawei_IoT_Agent_Tiny_SDK_Linux//lwm2m/core/packet.c ****  * ANY EXPRESS OR IMPLIED WARRANTIES, INCLUDING, BUT NOT LIMITED TO, THE
 109:/home/baikal/workspace/C50/Huawei_IoT_Agent_Tiny_SDK_Linux//lwm2m/core/packet.c ****  * IMPLIED WARRANTIES OF MERCHANTABILITY AND FITNESS FOR A PARTICULAR PURPOSE
 110:/home/baikal/workspace/C50/Huawei_IoT_Agent_Tiny_SDK_Linux//lwm2m/core/packet.c ****  * ARE DISCLAIMED.  IN NO EVENT SHALL THE INSTITUTE OR CONTRIBUTORS BE LIABLE
 111:/home/baikal/workspace/C50/Huawei_IoT_Agent_Tiny_SDK_Linux//lwm2m/core/packet.c ****  * FOR ANY DIRECT, INDIRECT, INCIDENTAL, SPECIAL, EXEMPLARY, OR CONSEQUENTIAL
 112:/home/baikal/workspace/C50/Huawei_IoT_Agent_Tiny_SDK_Linux//lwm2m/core/packet.c ****  * DAMAGES (INCLUDING, BUT NOT LIMITED TO, PROCUREMENT OF SUBSTITUTE GOODS
 113:/home/baikal/workspace/C50/Huawei_IoT_Agent_Tiny_SDK_Linux//lwm2m/core/packet.c ****  * OR SERVICES; LOSS OF USE, DATA, OR PROFITS; OR BUSINESS INTERRUPTION)
 114:/home/baikal/workspace/C50/Huawei_IoT_Agent_Tiny_SDK_Linux//lwm2m/core/packet.c ****  * HOWEVER CAUSED AND ON ANY THEORY OF LIABILITY, WHETHER IN CONTRACT, STRICT
 115:/home/baikal/workspace/C50/Huawei_IoT_Agent_Tiny_SDK_Linux//lwm2m/core/packet.c ****  * LIABILITY, OR TORT (INCLUDING NEGLIGENCE OR OTHERWISE) ARISING IN ANY WAY
 116:/home/baikal/workspace/C50/Huawei_IoT_Agent_Tiny_SDK_Linux//lwm2m/core/packet.c ****  * OUT OF THE USE OF THIS SOFTWARE, EVEN IF ADVISED OF THE POSSIBILITY OF
 117:/home/baikal/workspace/C50/Huawei_IoT_Agent_Tiny_SDK_Linux//lwm2m/core/packet.c ****  * SUCH DAMAGE.
 118:/home/baikal/workspace/C50/Huawei_IoT_Agent_Tiny_SDK_Linux//lwm2m/core/packet.c **** 
 119:/home/baikal/workspace/C50/Huawei_IoT_Agent_Tiny_SDK_Linux//lwm2m/core/packet.c **** */
 120:/home/baikal/workspace/C50/Huawei_IoT_Agent_Tiny_SDK_Linux//lwm2m/core/packet.c **** 
 121:/home/baikal/workspace/C50/Huawei_IoT_Agent_Tiny_SDK_Linux//lwm2m/core/packet.c **** 
 122:/home/baikal/workspace/C50/Huawei_IoT_Agent_Tiny_SDK_Linux//lwm2m/core/packet.c **** #include "internals.h"
 123:/home/baikal/workspace/C50/Huawei_IoT_Agent_Tiny_SDK_Linux//lwm2m/core/packet.c **** 
 124:/home/baikal/workspace/C50/Huawei_IoT_Agent_Tiny_SDK_Linux//lwm2m/core/packet.c **** #include <stdlib.h>
 125:/home/baikal/workspace/C50/Huawei_IoT_Agent_Tiny_SDK_Linux//lwm2m/core/packet.c **** #include <string.h>
 126:/home/baikal/workspace/C50/Huawei_IoT_Agent_Tiny_SDK_Linux//lwm2m/core/packet.c **** 
 127:/home/baikal/workspace/C50/Huawei_IoT_Agent_Tiny_SDK_Linux//lwm2m/core/packet.c **** #include <stdio.h>
 128:/home/baikal/workspace/C50/Huawei_IoT_Agent_Tiny_SDK_Linux//lwm2m/core/packet.c **** #include "commandline.h"
 129:/home/baikal/workspace/C50/Huawei_IoT_Agent_Tiny_SDK_Linux//lwm2m/core/packet.c **** 
 130:/home/baikal/workspace/C50/Huawei_IoT_Agent_Tiny_SDK_Linux//lwm2m/core/packet.c **** static void handle_reset(lwm2m_context_t *contextP,
 131:/home/baikal/workspace/C50/Huawei_IoT_Agent_Tiny_SDK_Linux//lwm2m/core/packet.c ****                          void *fromSessionH,
 132:/home/baikal/workspace/C50/Huawei_IoT_Agent_Tiny_SDK_Linux//lwm2m/core/packet.c ****                          coap_packet_t *message)
 133:/home/baikal/workspace/C50/Huawei_IoT_Agent_Tiny_SDK_Linux//lwm2m/core/packet.c **** {
 134:/home/baikal/workspace/C50/Huawei_IoT_Agent_Tiny_SDK_Linux//lwm2m/core/packet.c **** #ifdef LWM2M_CLIENT_MODE
 135:/home/baikal/workspace/C50/Huawei_IoT_Agent_Tiny_SDK_Linux//lwm2m/core/packet.c ****     LOG("Entering");
 136:/home/baikal/workspace/C50/Huawei_IoT_Agent_Tiny_SDK_Linux//lwm2m/core/packet.c ****     observe_cancel(contextP, message->mid, fromSessionH);
 137:/home/baikal/workspace/C50/Huawei_IoT_Agent_Tiny_SDK_Linux//lwm2m/core/packet.c **** #endif
 138:/home/baikal/workspace/C50/Huawei_IoT_Agent_Tiny_SDK_Linux//lwm2m/core/packet.c **** }
 139:/home/baikal/workspace/C50/Huawei_IoT_Agent_Tiny_SDK_Linux//lwm2m/core/packet.c **** 
 140:/home/baikal/workspace/C50/Huawei_IoT_Agent_Tiny_SDK_Linux//lwm2m/core/packet.c **** static uint8_t handle_request(lwm2m_context_t *contextP,
 141:/home/baikal/workspace/C50/Huawei_IoT_Agent_Tiny_SDK_Linux//lwm2m/core/packet.c ****                               void *fromSessionH,
 142:/home/baikal/workspace/C50/Huawei_IoT_Agent_Tiny_SDK_Linux//lwm2m/core/packet.c ****                               coap_packet_t *message,
 143:/home/baikal/workspace/C50/Huawei_IoT_Agent_Tiny_SDK_Linux//lwm2m/core/packet.c ****                               coap_packet_t *response)
 144:/home/baikal/workspace/C50/Huawei_IoT_Agent_Tiny_SDK_Linux//lwm2m/core/packet.c **** {
   9              		.loc 1 144 0
  10              		.cfi_startproc
  11              	.LVL0:
  12 0000 4156     		pushq	%r14
  13              	.LCFI0:
  14              		.cfi_def_cfa_offset 16
  15              		.cfi_offset 14, -16
  16 0002 4155     		pushq	%r13
  17              	.LCFI1:
  18              		.cfi_def_cfa_offset 24
  19              		.cfi_offset 13, -24
  20 0004 4154     		pushq	%r12
  21              	.LCFI2:
  22              		.cfi_def_cfa_offset 32
  23              		.cfi_offset 12, -32
  24 0006 55       		pushq	%rbp
  25              	.LCFI3:
  26              		.cfi_def_cfa_offset 40
  27              		.cfi_offset 6, -40
  28 0007 53       		pushq	%rbx
GAS LISTING /tmp/ccj9abZH.s 			page 4


  29              	.LCFI4:
  30              		.cfi_def_cfa_offset 48
  31              		.cfi_offset 3, -48
  32 0008 4989FC   		movq	%rdi, %r12
  33 000b 4989F6   		movq	%rsi, %r14
  34 000e 4889D3   		movq	%rdx, %rbx
  35 0011 4989CD   		movq	%rcx, %r13
  36              	.LVL1:
 145:/home/baikal/workspace/C50/Huawei_IoT_Agent_Tiny_SDK_Linux//lwm2m/core/packet.c ****     lwm2m_uri_t *uriP;
 146:/home/baikal/workspace/C50/Huawei_IoT_Agent_Tiny_SDK_Linux//lwm2m/core/packet.c ****     uint8_t result = COAP_IGNORE;
 147:/home/baikal/workspace/C50/Huawei_IoT_Agent_Tiny_SDK_Linux//lwm2m/core/packet.c **** 
 148:/home/baikal/workspace/C50/Huawei_IoT_Agent_Tiny_SDK_Linux//lwm2m/core/packet.c ****     LOG("Entering");
 149:/home/baikal/workspace/C50/Huawei_IoT_Agent_Tiny_SDK_Linux//lwm2m/core/packet.c **** 
 150:/home/baikal/workspace/C50/Huawei_IoT_Agent_Tiny_SDK_Linux//lwm2m/core/packet.c **** #ifdef LWM2M_CLIENT_MODE
 151:/home/baikal/workspace/C50/Huawei_IoT_Agent_Tiny_SDK_Linux//lwm2m/core/packet.c ****     uriP = uri_decode(contextP->altPath, message->uri_path);
  37              		.loc 1 151 0
  38 0014 488B7278 		movq	120(%rdx), %rsi
  39              	.LVL2:
  40 0018 488B7F20 		movq	32(%rdi), %rdi
  41              	.LVL3:
  42 001c E8000000 		call	uri_decode
  42      00
  43              	.LVL4:
 152:/home/baikal/workspace/C50/Huawei_IoT_Agent_Tiny_SDK_Linux//lwm2m/core/packet.c **** #else
 153:/home/baikal/workspace/C50/Huawei_IoT_Agent_Tiny_SDK_Linux//lwm2m/core/packet.c ****     uriP = uri_decode(NULL, message->uri_path);
 154:/home/baikal/workspace/C50/Huawei_IoT_Agent_Tiny_SDK_Linux//lwm2m/core/packet.c **** #endif
 155:/home/baikal/workspace/C50/Huawei_IoT_Agent_Tiny_SDK_Linux//lwm2m/core/packet.c **** 
 156:/home/baikal/workspace/C50/Huawei_IoT_Agent_Tiny_SDK_Linux//lwm2m/core/packet.c ****     if (uriP == NULL) return COAP_400_BAD_REQUEST;
  44              		.loc 1 156 0
  45 0021 4885C0   		testq	%rax, %rax
  46 0024 0F84CC00 		je	.L9
  46      0000
  47 002a 4889C5   		movq	%rax, %rbp
 157:/home/baikal/workspace/C50/Huawei_IoT_Agent_Tiny_SDK_Linux//lwm2m/core/packet.c **** 
 158:/home/baikal/workspace/C50/Huawei_IoT_Agent_Tiny_SDK_Linux//lwm2m/core/packet.c ****     switch(uriP->flag & LWM2M_URI_MASK_TYPE)
  48              		.loc 1 158 0
  49 002d 0FB600   		movzbl	(%rax), %eax
  50              	.LVL5:
  51 0030 83E070   		andl	$112, %eax
  52 0033 3C10     		cmpb	$16, %al
  53 0035 7458     		je	.L4
  54 0037 3C40     		cmpb	$64, %al
  55 0039 7469     		je	.L5
  56 003b 84C0     		testb	%al, %al
  57 003d 757A     		jne	.L15
  58              	.LBB2:
 159:/home/baikal/workspace/C50/Huawei_IoT_Agent_Tiny_SDK_Linux//lwm2m/core/packet.c ****     {
 160:/home/baikal/workspace/C50/Huawei_IoT_Agent_Tiny_SDK_Linux//lwm2m/core/packet.c **** #ifdef LWM2M_CLIENT_MODE
 161:/home/baikal/workspace/C50/Huawei_IoT_Agent_Tiny_SDK_Linux//lwm2m/core/packet.c ****     case LWM2M_URI_FLAG_DM:
 162:/home/baikal/workspace/C50/Huawei_IoT_Agent_Tiny_SDK_Linux//lwm2m/core/packet.c ****     {
 163:/home/baikal/workspace/C50/Huawei_IoT_Agent_Tiny_SDK_Linux//lwm2m/core/packet.c ****         lwm2m_server_t *serverP;
 164:/home/baikal/workspace/C50/Huawei_IoT_Agent_Tiny_SDK_Linux//lwm2m/core/packet.c **** 
 165:/home/baikal/workspace/C50/Huawei_IoT_Agent_Tiny_SDK_Linux//lwm2m/core/packet.c ****         serverP = utils_findServer(contextP, fromSessionH);
  59              		.loc 1 165 0
  60 003f 4C89F6   		movq	%r14, %rsi
  61 0042 4C89E7   		movq	%r12, %rdi
  62 0045 E8000000 		call	utils_findServer
GAS LISTING /tmp/ccj9abZH.s 			page 5


  62      00
  63              	.LVL6:
 166:/home/baikal/workspace/C50/Huawei_IoT_Agent_Tiny_SDK_Linux//lwm2m/core/packet.c ****         if (serverP != NULL)
  64              		.loc 1 166 0
  65 004a 4885C0   		testq	%rax, %rax
  66 004d 7418     		je	.L7
 167:/home/baikal/workspace/C50/Huawei_IoT_Agent_Tiny_SDK_Linux//lwm2m/core/packet.c ****         {
 168:/home/baikal/workspace/C50/Huawei_IoT_Agent_Tiny_SDK_Linux//lwm2m/core/packet.c ****             result = dm_handleRequest(contextP, uriP, serverP, message, response);
  67              		.loc 1 168 0
  68 004f 4D89E8   		movq	%r13, %r8
  69 0052 4889D9   		movq	%rbx, %rcx
  70 0055 4889C2   		movq	%rax, %rdx
  71 0058 4889EE   		movq	%rbp, %rsi
  72 005b 4C89E7   		movq	%r12, %rdi
  73 005e E8000000 		call	dm_handleRequest
  73      00
  74              	.LVL7:
  75 0063 89C3     		movl	%eax, %ebx
  76              	.LVL8:
  77 0065 EB6C     		jmp	.L3
  78              	.LVL9:
  79              	.L7:
 169:/home/baikal/workspace/C50/Huawei_IoT_Agent_Tiny_SDK_Linux//lwm2m/core/packet.c ****         }
 170:/home/baikal/workspace/C50/Huawei_IoT_Agent_Tiny_SDK_Linux//lwm2m/core/packet.c **** #ifdef LWM2M_BOOTSTRAP
 171:/home/baikal/workspace/C50/Huawei_IoT_Agent_Tiny_SDK_Linux//lwm2m/core/packet.c ****         else
 172:/home/baikal/workspace/C50/Huawei_IoT_Agent_Tiny_SDK_Linux//lwm2m/core/packet.c ****         {
 173:/home/baikal/workspace/C50/Huawei_IoT_Agent_Tiny_SDK_Linux//lwm2m/core/packet.c ****             serverP = utils_findBootstrapServer(contextP, fromSessionH);
  80              		.loc 1 173 0
  81 0067 4C89F6   		movq	%r14, %rsi
  82 006a 4C89E7   		movq	%r12, %rdi
  83 006d E8000000 		call	utils_findBootstrapServer
  83      00
  84              	.LVL10:
 174:/home/baikal/workspace/C50/Huawei_IoT_Agent_Tiny_SDK_Linux//lwm2m/core/packet.c ****             if (serverP != NULL)
  85              		.loc 1 174 0
  86 0072 4885C0   		testq	%rax, %rax
  87 0075 7449     		je	.L11
 175:/home/baikal/workspace/C50/Huawei_IoT_Agent_Tiny_SDK_Linux//lwm2m/core/packet.c ****             {
 176:/home/baikal/workspace/C50/Huawei_IoT_Agent_Tiny_SDK_Linux//lwm2m/core/packet.c ****                 result = bootstrap_handleCommand(contextP, uriP, serverP, message, response);
  88              		.loc 1 176 0
  89 0077 4D89E8   		movq	%r13, %r8
  90 007a 4889D9   		movq	%rbx, %rcx
  91 007d 4889C2   		movq	%rax, %rdx
  92 0080 4889EE   		movq	%rbp, %rsi
  93 0083 4C89E7   		movq	%r12, %rdi
  94 0086 E8000000 		call	bootstrap_handleCommand
  94      00
  95              	.LVL11:
  96 008b 89C3     		movl	%eax, %ebx
  97              	.LVL12:
  98 008d EB44     		jmp	.L3
  99              	.LVL13:
 100              	.L4:
 101              	.LBE2:
 177:/home/baikal/workspace/C50/Huawei_IoT_Agent_Tiny_SDK_Linux//lwm2m/core/packet.c ****             }
 178:/home/baikal/workspace/C50/Huawei_IoT_Agent_Tiny_SDK_Linux//lwm2m/core/packet.c ****         }
 179:/home/baikal/workspace/C50/Huawei_IoT_Agent_Tiny_SDK_Linux//lwm2m/core/packet.c **** #endif
GAS LISTING /tmp/ccj9abZH.s 			page 6


 180:/home/baikal/workspace/C50/Huawei_IoT_Agent_Tiny_SDK_Linux//lwm2m/core/packet.c ****     }
 181:/home/baikal/workspace/C50/Huawei_IoT_Agent_Tiny_SDK_Linux//lwm2m/core/packet.c ****     break;
 182:/home/baikal/workspace/C50/Huawei_IoT_Agent_Tiny_SDK_Linux//lwm2m/core/packet.c **** 
 183:/home/baikal/workspace/C50/Huawei_IoT_Agent_Tiny_SDK_Linux//lwm2m/core/packet.c **** #ifdef LWM2M_BOOTSTRAP
 184:/home/baikal/workspace/C50/Huawei_IoT_Agent_Tiny_SDK_Linux//lwm2m/core/packet.c ****     case LWM2M_URI_FLAG_DELETE_ALL:
 185:/home/baikal/workspace/C50/Huawei_IoT_Agent_Tiny_SDK_Linux//lwm2m/core/packet.c ****         if (COAP_DELETE != message->code)
 102              		.loc 1 185 0
 103 008f 807B1004 		cmpb	$4, 16(%rbx)
 104 0093 7532     		jne	.L12
 186:/home/baikal/workspace/C50/Huawei_IoT_Agent_Tiny_SDK_Linux//lwm2m/core/packet.c ****         {
 187:/home/baikal/workspace/C50/Huawei_IoT_Agent_Tiny_SDK_Linux//lwm2m/core/packet.c ****             result = COAP_400_BAD_REQUEST;
 188:/home/baikal/workspace/C50/Huawei_IoT_Agent_Tiny_SDK_Linux//lwm2m/core/packet.c ****         }
 189:/home/baikal/workspace/C50/Huawei_IoT_Agent_Tiny_SDK_Linux//lwm2m/core/packet.c ****         else
 190:/home/baikal/workspace/C50/Huawei_IoT_Agent_Tiny_SDK_Linux//lwm2m/core/packet.c ****         {
 191:/home/baikal/workspace/C50/Huawei_IoT_Agent_Tiny_SDK_Linux//lwm2m/core/packet.c ****             result = bootstrap_handleDeleteAll(contextP, fromSessionH);
 105              		.loc 1 191 0
 106 0095 4C89F6   		movq	%r14, %rsi
 107 0098 4C89E7   		movq	%r12, %rdi
 108 009b E8000000 		call	bootstrap_handleDeleteAll
 108      00
 109              	.LVL14:
 110 00a0 89C3     		movl	%eax, %ebx
 111              	.LVL15:
 112 00a2 EB2F     		jmp	.L3
 113              	.LVL16:
 114              	.L5:
 192:/home/baikal/workspace/C50/Huawei_IoT_Agent_Tiny_SDK_Linux//lwm2m/core/packet.c ****         }
 193:/home/baikal/workspace/C50/Huawei_IoT_Agent_Tiny_SDK_Linux//lwm2m/core/packet.c ****         break;
 194:/home/baikal/workspace/C50/Huawei_IoT_Agent_Tiny_SDK_Linux//lwm2m/core/packet.c **** 
 195:/home/baikal/workspace/C50/Huawei_IoT_Agent_Tiny_SDK_Linux//lwm2m/core/packet.c ****     case LWM2M_URI_FLAG_BOOTSTRAP:
 196:/home/baikal/workspace/C50/Huawei_IoT_Agent_Tiny_SDK_Linux//lwm2m/core/packet.c ****         if (message->code == COAP_POST)
 115              		.loc 1 196 0
 116 00a4 807B1002 		cmpb	$2, 16(%rbx)
 117 00a8 7524     		jne	.L13
 197:/home/baikal/workspace/C50/Huawei_IoT_Agent_Tiny_SDK_Linux//lwm2m/core/packet.c ****         {
 198:/home/baikal/workspace/C50/Huawei_IoT_Agent_Tiny_SDK_Linux//lwm2m/core/packet.c ****             result = bootstrap_handleFinish(contextP, fromSessionH);
 118              		.loc 1 198 0
 119 00aa 4C89F6   		movq	%r14, %rsi
 120 00ad 4C89E7   		movq	%r12, %rdi
 121 00b0 E8000000 		call	bootstrap_handleFinish
 121      00
 122              	.LVL17:
 123 00b5 89C3     		movl	%eax, %ebx
 124              	.LVL18:
 125 00b7 EB1A     		jmp	.L3
 126              	.LVL19:
 127              	.L15:
 199:/home/baikal/workspace/C50/Huawei_IoT_Agent_Tiny_SDK_Linux//lwm2m/core/packet.c ****         }
 200:/home/baikal/workspace/C50/Huawei_IoT_Agent_Tiny_SDK_Linux//lwm2m/core/packet.c ****         break;
 201:/home/baikal/workspace/C50/Huawei_IoT_Agent_Tiny_SDK_Linux//lwm2m/core/packet.c **** #endif
 202:/home/baikal/workspace/C50/Huawei_IoT_Agent_Tiny_SDK_Linux//lwm2m/core/packet.c **** #endif
 203:/home/baikal/workspace/C50/Huawei_IoT_Agent_Tiny_SDK_Linux//lwm2m/core/packet.c **** 
 204:/home/baikal/workspace/C50/Huawei_IoT_Agent_Tiny_SDK_Linux//lwm2m/core/packet.c **** #ifdef LWM2M_SERVER_MODE
 205:/home/baikal/workspace/C50/Huawei_IoT_Agent_Tiny_SDK_Linux//lwm2m/core/packet.c ****     case LWM2M_URI_FLAG_REGISTRATION:
 206:/home/baikal/workspace/C50/Huawei_IoT_Agent_Tiny_SDK_Linux//lwm2m/core/packet.c ****         result = registration_handleRequest(contextP, uriP, fromSessionH, message, response);
 207:/home/baikal/workspace/C50/Huawei_IoT_Agent_Tiny_SDK_Linux//lwm2m/core/packet.c ****         break;
 208:/home/baikal/workspace/C50/Huawei_IoT_Agent_Tiny_SDK_Linux//lwm2m/core/packet.c **** #endif
GAS LISTING /tmp/ccj9abZH.s 			page 7


 209:/home/baikal/workspace/C50/Huawei_IoT_Agent_Tiny_SDK_Linux//lwm2m/core/packet.c **** #ifdef LWM2M_BOOTSTRAP_SERVER_MODE
 210:/home/baikal/workspace/C50/Huawei_IoT_Agent_Tiny_SDK_Linux//lwm2m/core/packet.c ****     case LWM2M_URI_FLAG_BOOTSTRAP:
 211:/home/baikal/workspace/C50/Huawei_IoT_Agent_Tiny_SDK_Linux//lwm2m/core/packet.c ****         result = bootstrap_handleRequest(contextP, uriP, fromSessionH, message, response);
 212:/home/baikal/workspace/C50/Huawei_IoT_Agent_Tiny_SDK_Linux//lwm2m/core/packet.c ****         break;
 213:/home/baikal/workspace/C50/Huawei_IoT_Agent_Tiny_SDK_Linux//lwm2m/core/packet.c **** #endif
 214:/home/baikal/workspace/C50/Huawei_IoT_Agent_Tiny_SDK_Linux//lwm2m/core/packet.c ****     default:
 215:/home/baikal/workspace/C50/Huawei_IoT_Agent_Tiny_SDK_Linux//lwm2m/core/packet.c ****         result = COAP_IGNORE;
 128              		.loc 1 215 0
 129 00b9 BB010000 		movl	$1, %ebx
 129      00
 130              	.LVL20:
 131 00be EB13     		jmp	.L3
 132              	.LVL21:
 133              	.L11:
 146:/home/baikal/workspace/C50/Huawei_IoT_Agent_Tiny_SDK_Linux//lwm2m/core/packet.c **** 
 134              		.loc 1 146 0
 135 00c0 BB010000 		movl	$1, %ebx
 135      00
 136              	.LVL22:
 137 00c5 EB0C     		jmp	.L3
 138              	.LVL23:
 139              	.L12:
 187:/home/baikal/workspace/C50/Huawei_IoT_Agent_Tiny_SDK_Linux//lwm2m/core/packet.c ****         }
 140              		.loc 1 187 0
 141 00c7 BB80FFFF 		movl	$-128, %ebx
 141      FF
 142              	.LVL24:
 143 00cc EB05     		jmp	.L3
 144              	.LVL25:
 145              	.L13:
 146:/home/baikal/workspace/C50/Huawei_IoT_Agent_Tiny_SDK_Linux//lwm2m/core/packet.c **** 
 146              		.loc 1 146 0
 147 00ce BB010000 		movl	$1, %ebx
 147      00
 148              	.LVL26:
 149              	.L3:
 216:/home/baikal/workspace/C50/Huawei_IoT_Agent_Tiny_SDK_Linux//lwm2m/core/packet.c ****         break;
 217:/home/baikal/workspace/C50/Huawei_IoT_Agent_Tiny_SDK_Linux//lwm2m/core/packet.c ****     }
 218:/home/baikal/workspace/C50/Huawei_IoT_Agent_Tiny_SDK_Linux//lwm2m/core/packet.c **** 
 219:/home/baikal/workspace/C50/Huawei_IoT_Agent_Tiny_SDK_Linux//lwm2m/core/packet.c ****     coap_set_status_code(response, result);
 150              		.loc 1 219 0
 151 00d3 0FB6F3   		movzbl	%bl, %esi
 152 00d6 4C89EF   		movq	%r13, %rdi
 153 00d9 E8000000 		call	coap_set_status_code
 153      00
 154              	.LVL27:
 220:/home/baikal/workspace/C50/Huawei_IoT_Agent_Tiny_SDK_Linux//lwm2m/core/packet.c **** 
 221:/home/baikal/workspace/C50/Huawei_IoT_Agent_Tiny_SDK_Linux//lwm2m/core/packet.c ****     if (COAP_IGNORE < result && result < COAP_400_BAD_REQUEST)
 155              		.loc 1 221 0
 156 00de 8D43FE   		leal	-2(%rbx), %eax
 157 00e1 3C7D     		cmpb	$125, %al
 158 00e3 7705     		ja	.L8
 222:/home/baikal/workspace/C50/Huawei_IoT_Agent_Tiny_SDK_Linux//lwm2m/core/packet.c ****     {
 223:/home/baikal/workspace/C50/Huawei_IoT_Agent_Tiny_SDK_Linux//lwm2m/core/packet.c ****         result = NO_ERROR;
 159              		.loc 1 223 0
 160 00e5 BB000000 		movl	$0, %ebx
 160      00
GAS LISTING /tmp/ccj9abZH.s 			page 8


 161              	.LVL28:
 162              	.L8:
 224:/home/baikal/workspace/C50/Huawei_IoT_Agent_Tiny_SDK_Linux//lwm2m/core/packet.c ****     }
 225:/home/baikal/workspace/C50/Huawei_IoT_Agent_Tiny_SDK_Linux//lwm2m/core/packet.c **** 
 226:/home/baikal/workspace/C50/Huawei_IoT_Agent_Tiny_SDK_Linux//lwm2m/core/packet.c ****     lwm2m_free(uriP);
 163              		.loc 1 226 0
 164 00ea 4889EF   		movq	%rbp, %rdi
 165 00ed E8000000 		call	lwm2m_free
 165      00
 166              	.LVL29:
 227:/home/baikal/workspace/C50/Huawei_IoT_Agent_Tiny_SDK_Linux//lwm2m/core/packet.c ****     return result;
 167              		.loc 1 227 0
 168 00f2 89D8     		movl	%ebx, %eax
 169 00f4 EB05     		jmp	.L2
 170              	.LVL30:
 171              	.L9:
 156:/home/baikal/workspace/C50/Huawei_IoT_Agent_Tiny_SDK_Linux//lwm2m/core/packet.c **** 
 172              		.loc 1 156 0
 173 00f6 B880FFFF 		movl	$-128, %eax
 173      FF
 174              	.LVL31:
 175              	.L2:
 228:/home/baikal/workspace/C50/Huawei_IoT_Agent_Tiny_SDK_Linux//lwm2m/core/packet.c **** }
 176              		.loc 1 228 0
 177 00fb 5B       		popq	%rbx
 178              	.LCFI5:
 179              		.cfi_def_cfa_offset 40
 180 00fc 5D       		popq	%rbp
 181              	.LCFI6:
 182              		.cfi_def_cfa_offset 32
 183 00fd 415C     		popq	%r12
 184              	.LCFI7:
 185              		.cfi_def_cfa_offset 24
 186              	.LVL32:
 187 00ff 415D     		popq	%r13
 188              	.LCFI8:
 189              		.cfi_def_cfa_offset 16
 190              	.LVL33:
 191 0101 415E     		popq	%r14
 192              	.LCFI9:
 193              		.cfi_def_cfa_offset 8
 194              	.LVL34:
 195 0103 C3       		ret
 196              		.cfi_endproc
 197              	.LFE64:
 199              		.section	.text.handle_reset,"ax",@progbits
 201              	handle_reset:
 202              	.LFB63:
 133:/home/baikal/workspace/C50/Huawei_IoT_Agent_Tiny_SDK_Linux//lwm2m/core/packet.c **** #ifdef LWM2M_CLIENT_MODE
 203              		.loc 1 133 0
 204              		.cfi_startproc
 205              	.LVL35:
 206 0000 4883EC08 		subq	$8, %rsp
 207              	.LCFI10:
 208              		.cfi_def_cfa_offset 16
 209 0004 4889F0   		movq	%rsi, %rax
 136:/home/baikal/workspace/C50/Huawei_IoT_Agent_Tiny_SDK_Linux//lwm2m/core/packet.c **** #endif
GAS LISTING /tmp/ccj9abZH.s 			page 9


 210              		.loc 1 136 0
 211 0007 0FB77212 		movzwl	18(%rdx), %esi
 212              	.LVL36:
 213 000b 4889C2   		movq	%rax, %rdx
 214              	.LVL37:
 215 000e E8000000 		call	observe_cancel
 215      00
 216              	.LVL38:
 138:/home/baikal/workspace/C50/Huawei_IoT_Agent_Tiny_SDK_Linux//lwm2m/core/packet.c **** 
 217              		.loc 1 138 0
 218 0013 4883C408 		addq	$8, %rsp
 219              	.LCFI11:
 220              		.cfi_def_cfa_offset 8
 221 0017 C3       		ret
 222              		.cfi_endproc
 223              	.LFE63:
 225              		.section	.text.message_send,"ax",@progbits
 226              		.globl	message_send
 228              	message_send:
 229              	.LFB66:
 229:/home/baikal/workspace/C50/Huawei_IoT_Agent_Tiny_SDK_Linux//lwm2m/core/packet.c **** 
 230:/home/baikal/workspace/C50/Huawei_IoT_Agent_Tiny_SDK_Linux//lwm2m/core/packet.c **** /* This function is an adaptation of function coap_receive() from Erbium's er-coap-13-engine.c.
 231:/home/baikal/workspace/C50/Huawei_IoT_Agent_Tiny_SDK_Linux//lwm2m/core/packet.c ****  * Erbium is Copyright (c) 2013, Institute for Pervasive Computing, ETH Zurich
 232:/home/baikal/workspace/C50/Huawei_IoT_Agent_Tiny_SDK_Linux//lwm2m/core/packet.c ****  * All rights reserved.
 233:/home/baikal/workspace/C50/Huawei_IoT_Agent_Tiny_SDK_Linux//lwm2m/core/packet.c ****  */
 234:/home/baikal/workspace/C50/Huawei_IoT_Agent_Tiny_SDK_Linux//lwm2m/core/packet.c **** void lwm2m_handle_packet(lwm2m_context_t *contextP,
 235:/home/baikal/workspace/C50/Huawei_IoT_Agent_Tiny_SDK_Linux//lwm2m/core/packet.c ****                          uint8_t *buffer,
 236:/home/baikal/workspace/C50/Huawei_IoT_Agent_Tiny_SDK_Linux//lwm2m/core/packet.c ****                          int length,
 237:/home/baikal/workspace/C50/Huawei_IoT_Agent_Tiny_SDK_Linux//lwm2m/core/packet.c ****                          void *fromSessionH)
 238:/home/baikal/workspace/C50/Huawei_IoT_Agent_Tiny_SDK_Linux//lwm2m/core/packet.c **** {
 239:/home/baikal/workspace/C50/Huawei_IoT_Agent_Tiny_SDK_Linux//lwm2m/core/packet.c ****     uint8_t coap_error_code = NO_ERROR;
 240:/home/baikal/workspace/C50/Huawei_IoT_Agent_Tiny_SDK_Linux//lwm2m/core/packet.c ****     static coap_packet_t message[1];
 241:/home/baikal/workspace/C50/Huawei_IoT_Agent_Tiny_SDK_Linux//lwm2m/core/packet.c ****     static coap_packet_t response[1];
 242:/home/baikal/workspace/C50/Huawei_IoT_Agent_Tiny_SDK_Linux//lwm2m/core/packet.c **** 
 243:/home/baikal/workspace/C50/Huawei_IoT_Agent_Tiny_SDK_Linux//lwm2m/core/packet.c ****     LOG("Entering");
 244:/home/baikal/workspace/C50/Huawei_IoT_Agent_Tiny_SDK_Linux//lwm2m/core/packet.c ****     coap_error_code = coap_parse_message(message, buffer, (uint16_t)length);
 245:/home/baikal/workspace/C50/Huawei_IoT_Agent_Tiny_SDK_Linux//lwm2m/core/packet.c ****     if (coap_error_code == NO_ERROR)
 246:/home/baikal/workspace/C50/Huawei_IoT_Agent_Tiny_SDK_Linux//lwm2m/core/packet.c ****     {
 247:/home/baikal/workspace/C50/Huawei_IoT_Agent_Tiny_SDK_Linux//lwm2m/core/packet.c ****         LOG_ARG("Parsed: ver %u, type %u, tkl %u, code %u.%.2u, mid %u, Content type: %d",
 248:/home/baikal/workspace/C50/Huawei_IoT_Agent_Tiny_SDK_Linux//lwm2m/core/packet.c ****                 message->version, message->type, message->token_len, message->code >> 5, message->c
 249:/home/baikal/workspace/C50/Huawei_IoT_Agent_Tiny_SDK_Linux//lwm2m/core/packet.c ****         //LOG_ARG("Payload: %.*s", message->payload_len, message->payload);   //%s can not used for
 250:/home/baikal/workspace/C50/Huawei_IoT_Agent_Tiny_SDK_Linux//lwm2m/core/packet.c ****         if (message->code >= COAP_GET && message->code <= COAP_DELETE)
 251:/home/baikal/workspace/C50/Huawei_IoT_Agent_Tiny_SDK_Linux//lwm2m/core/packet.c ****         {
 252:/home/baikal/workspace/C50/Huawei_IoT_Agent_Tiny_SDK_Linux//lwm2m/core/packet.c ****             uint32_t block_num = 0;
 253:/home/baikal/workspace/C50/Huawei_IoT_Agent_Tiny_SDK_Linux//lwm2m/core/packet.c ****             uint16_t block_size = REST_MAX_CHUNK_SIZE;
 254:/home/baikal/workspace/C50/Huawei_IoT_Agent_Tiny_SDK_Linux//lwm2m/core/packet.c ****             uint32_t block_offset = 0;
 255:/home/baikal/workspace/C50/Huawei_IoT_Agent_Tiny_SDK_Linux//lwm2m/core/packet.c ****             int64_t new_offset = 0;
 256:/home/baikal/workspace/C50/Huawei_IoT_Agent_Tiny_SDK_Linux//lwm2m/core/packet.c **** 
 257:/home/baikal/workspace/C50/Huawei_IoT_Agent_Tiny_SDK_Linux//lwm2m/core/packet.c ****             /* prepare response */
 258:/home/baikal/workspace/C50/Huawei_IoT_Agent_Tiny_SDK_Linux//lwm2m/core/packet.c ****             if (message->type == COAP_TYPE_CON)
 259:/home/baikal/workspace/C50/Huawei_IoT_Agent_Tiny_SDK_Linux//lwm2m/core/packet.c ****             {
 260:/home/baikal/workspace/C50/Huawei_IoT_Agent_Tiny_SDK_Linux//lwm2m/core/packet.c ****                 /* Reliable CON requests are answered with an ACK. */
 261:/home/baikal/workspace/C50/Huawei_IoT_Agent_Tiny_SDK_Linux//lwm2m/core/packet.c ****                 coap_init_message(response, COAP_TYPE_ACK, COAP_205_CONTENT, message->mid);
 262:/home/baikal/workspace/C50/Huawei_IoT_Agent_Tiny_SDK_Linux//lwm2m/core/packet.c ****             }
 263:/home/baikal/workspace/C50/Huawei_IoT_Agent_Tiny_SDK_Linux//lwm2m/core/packet.c ****             else
 264:/home/baikal/workspace/C50/Huawei_IoT_Agent_Tiny_SDK_Linux//lwm2m/core/packet.c ****             {
 265:/home/baikal/workspace/C50/Huawei_IoT_Agent_Tiny_SDK_Linux//lwm2m/core/packet.c ****                 /* Unreliable NON requests are answered with a NON as well. */
GAS LISTING /tmp/ccj9abZH.s 			page 10


 266:/home/baikal/workspace/C50/Huawei_IoT_Agent_Tiny_SDK_Linux//lwm2m/core/packet.c ****                 coap_init_message(response, COAP_TYPE_NON, COAP_205_CONTENT, contextP->nextMID++);
 267:/home/baikal/workspace/C50/Huawei_IoT_Agent_Tiny_SDK_Linux//lwm2m/core/packet.c ****             }
 268:/home/baikal/workspace/C50/Huawei_IoT_Agent_Tiny_SDK_Linux//lwm2m/core/packet.c **** 
 269:/home/baikal/workspace/C50/Huawei_IoT_Agent_Tiny_SDK_Linux//lwm2m/core/packet.c ****             /* mirror token */
 270:/home/baikal/workspace/C50/Huawei_IoT_Agent_Tiny_SDK_Linux//lwm2m/core/packet.c ****             if (message->token_len)
 271:/home/baikal/workspace/C50/Huawei_IoT_Agent_Tiny_SDK_Linux//lwm2m/core/packet.c ****             {
 272:/home/baikal/workspace/C50/Huawei_IoT_Agent_Tiny_SDK_Linux//lwm2m/core/packet.c ****                 coap_set_header_token(response, message->token, message->token_len);
 273:/home/baikal/workspace/C50/Huawei_IoT_Agent_Tiny_SDK_Linux//lwm2m/core/packet.c ****             }
 274:/home/baikal/workspace/C50/Huawei_IoT_Agent_Tiny_SDK_Linux//lwm2m/core/packet.c **** 
 275:/home/baikal/workspace/C50/Huawei_IoT_Agent_Tiny_SDK_Linux//lwm2m/core/packet.c ****             /* get offset for blockwise transfers */
 276:/home/baikal/workspace/C50/Huawei_IoT_Agent_Tiny_SDK_Linux//lwm2m/core/packet.c ****             if (coap_get_header_block2(message, &block_num, NULL, &block_size, &block_offset))
 277:/home/baikal/workspace/C50/Huawei_IoT_Agent_Tiny_SDK_Linux//lwm2m/core/packet.c ****             {
 278:/home/baikal/workspace/C50/Huawei_IoT_Agent_Tiny_SDK_Linux//lwm2m/core/packet.c ****                 LOG_ARG("Blockwise: block request %u (%u/%u) @ %u bytes", block_num, block_size, RE
 279:/home/baikal/workspace/C50/Huawei_IoT_Agent_Tiny_SDK_Linux//lwm2m/core/packet.c ****                 block_size = MIN(block_size, REST_MAX_CHUNK_SIZE);
 280:/home/baikal/workspace/C50/Huawei_IoT_Agent_Tiny_SDK_Linux//lwm2m/core/packet.c ****                 new_offset = block_offset;
 281:/home/baikal/workspace/C50/Huawei_IoT_Agent_Tiny_SDK_Linux//lwm2m/core/packet.c ****             }
 282:/home/baikal/workspace/C50/Huawei_IoT_Agent_Tiny_SDK_Linux//lwm2m/core/packet.c **** 
 283:/home/baikal/workspace/C50/Huawei_IoT_Agent_Tiny_SDK_Linux//lwm2m/core/packet.c ****             /* handle block1 option */
 284:/home/baikal/workspace/C50/Huawei_IoT_Agent_Tiny_SDK_Linux//lwm2m/core/packet.c ****             if (IS_OPTION(message, COAP_OPTION_BLOCK1))
 285:/home/baikal/workspace/C50/Huawei_IoT_Agent_Tiny_SDK_Linux//lwm2m/core/packet.c ****             {
 286:/home/baikal/workspace/C50/Huawei_IoT_Agent_Tiny_SDK_Linux//lwm2m/core/packet.c **** #ifdef LWM2M_CLIENT_MODE
 287:/home/baikal/workspace/C50/Huawei_IoT_Agent_Tiny_SDK_Linux//lwm2m/core/packet.c ****                 // get server
 288:/home/baikal/workspace/C50/Huawei_IoT_Agent_Tiny_SDK_Linux//lwm2m/core/packet.c ****                 lwm2m_server_t *serverP;
 289:/home/baikal/workspace/C50/Huawei_IoT_Agent_Tiny_SDK_Linux//lwm2m/core/packet.c ****                 serverP = utils_findServer(contextP, fromSessionH);
 290:/home/baikal/workspace/C50/Huawei_IoT_Agent_Tiny_SDK_Linux//lwm2m/core/packet.c **** #ifdef LWM2M_BOOTSTRAP
 291:/home/baikal/workspace/C50/Huawei_IoT_Agent_Tiny_SDK_Linux//lwm2m/core/packet.c ****                 if (serverP == NULL)
 292:/home/baikal/workspace/C50/Huawei_IoT_Agent_Tiny_SDK_Linux//lwm2m/core/packet.c ****                 {
 293:/home/baikal/workspace/C50/Huawei_IoT_Agent_Tiny_SDK_Linux//lwm2m/core/packet.c ****                     serverP = utils_findBootstrapServer(contextP, fromSessionH);
 294:/home/baikal/workspace/C50/Huawei_IoT_Agent_Tiny_SDK_Linux//lwm2m/core/packet.c ****                 }
 295:/home/baikal/workspace/C50/Huawei_IoT_Agent_Tiny_SDK_Linux//lwm2m/core/packet.c **** #endif
 296:/home/baikal/workspace/C50/Huawei_IoT_Agent_Tiny_SDK_Linux//lwm2m/core/packet.c ****                 if (serverP == NULL)
 297:/home/baikal/workspace/C50/Huawei_IoT_Agent_Tiny_SDK_Linux//lwm2m/core/packet.c ****                 {
 298:/home/baikal/workspace/C50/Huawei_IoT_Agent_Tiny_SDK_Linux//lwm2m/core/packet.c ****                     coap_error_code = COAP_500_INTERNAL_SERVER_ERROR;
 299:/home/baikal/workspace/C50/Huawei_IoT_Agent_Tiny_SDK_Linux//lwm2m/core/packet.c ****                 }
 300:/home/baikal/workspace/C50/Huawei_IoT_Agent_Tiny_SDK_Linux//lwm2m/core/packet.c ****                 else
 301:/home/baikal/workspace/C50/Huawei_IoT_Agent_Tiny_SDK_Linux//lwm2m/core/packet.c ****                 {
 302:/home/baikal/workspace/C50/Huawei_IoT_Agent_Tiny_SDK_Linux//lwm2m/core/packet.c ****                     uint32_t block1_num;
 303:/home/baikal/workspace/C50/Huawei_IoT_Agent_Tiny_SDK_Linux//lwm2m/core/packet.c ****                     uint8_t  block1_more;
 304:/home/baikal/workspace/C50/Huawei_IoT_Agent_Tiny_SDK_Linux//lwm2m/core/packet.c ****                     uint16_t block1_size;
 305:/home/baikal/workspace/C50/Huawei_IoT_Agent_Tiny_SDK_Linux//lwm2m/core/packet.c ****                     uint8_t *complete_buffer = NULL;
 306:/home/baikal/workspace/C50/Huawei_IoT_Agent_Tiny_SDK_Linux//lwm2m/core/packet.c ****                     size_t complete_buffer_size;
 307:/home/baikal/workspace/C50/Huawei_IoT_Agent_Tiny_SDK_Linux//lwm2m/core/packet.c **** 
 308:/home/baikal/workspace/C50/Huawei_IoT_Agent_Tiny_SDK_Linux//lwm2m/core/packet.c ****                     // parse block1 header
 309:/home/baikal/workspace/C50/Huawei_IoT_Agent_Tiny_SDK_Linux//lwm2m/core/packet.c ****                     coap_get_header_block1(message, &block1_num, &block1_more, &block1_size, NULL);
 310:/home/baikal/workspace/C50/Huawei_IoT_Agent_Tiny_SDK_Linux//lwm2m/core/packet.c ****                     LOG_ARG("Blockwise: block1 request NUM %u (SZX %u/ SZX Max%u) MORE %u", block1_
 311:/home/baikal/workspace/C50/Huawei_IoT_Agent_Tiny_SDK_Linux//lwm2m/core/packet.c **** 
 312:/home/baikal/workspace/C50/Huawei_IoT_Agent_Tiny_SDK_Linux//lwm2m/core/packet.c ****                     // handle block 1
 313:/home/baikal/workspace/C50/Huawei_IoT_Agent_Tiny_SDK_Linux//lwm2m/core/packet.c ****                     coap_error_code = coap_block1_handler(&serverP->block1Data, message->mid, messa
 314:/home/baikal/workspace/C50/Huawei_IoT_Agent_Tiny_SDK_Linux//lwm2m/core/packet.c **** 
 315:/home/baikal/workspace/C50/Huawei_IoT_Agent_Tiny_SDK_Linux//lwm2m/core/packet.c ****                     // if payload is complete, replace it in the coap message.
 316:/home/baikal/workspace/C50/Huawei_IoT_Agent_Tiny_SDK_Linux//lwm2m/core/packet.c ****                     if (coap_error_code == NO_ERROR)
 317:/home/baikal/workspace/C50/Huawei_IoT_Agent_Tiny_SDK_Linux//lwm2m/core/packet.c ****                     {
 318:/home/baikal/workspace/C50/Huawei_IoT_Agent_Tiny_SDK_Linux//lwm2m/core/packet.c ****                         message->payload = complete_buffer;
 319:/home/baikal/workspace/C50/Huawei_IoT_Agent_Tiny_SDK_Linux//lwm2m/core/packet.c ****                         message->payload_len = complete_buffer_size;
 320:/home/baikal/workspace/C50/Huawei_IoT_Agent_Tiny_SDK_Linux//lwm2m/core/packet.c ****                     }
 321:/home/baikal/workspace/C50/Huawei_IoT_Agent_Tiny_SDK_Linux//lwm2m/core/packet.c ****                     else if (coap_error_code == COAP_231_CONTINUE)
 322:/home/baikal/workspace/C50/Huawei_IoT_Agent_Tiny_SDK_Linux//lwm2m/core/packet.c ****                     {
GAS LISTING /tmp/ccj9abZH.s 			page 11


 323:/home/baikal/workspace/C50/Huawei_IoT_Agent_Tiny_SDK_Linux//lwm2m/core/packet.c ****                         block1_size = MIN(block1_size, REST_MAX_CHUNK_SIZE);
 324:/home/baikal/workspace/C50/Huawei_IoT_Agent_Tiny_SDK_Linux//lwm2m/core/packet.c ****                         coap_set_header_block1(response, block1_num, block1_more, block1_size);
 325:/home/baikal/workspace/C50/Huawei_IoT_Agent_Tiny_SDK_Linux//lwm2m/core/packet.c ****                     }
 326:/home/baikal/workspace/C50/Huawei_IoT_Agent_Tiny_SDK_Linux//lwm2m/core/packet.c ****                 }
 327:/home/baikal/workspace/C50/Huawei_IoT_Agent_Tiny_SDK_Linux//lwm2m/core/packet.c **** #else
 328:/home/baikal/workspace/C50/Huawei_IoT_Agent_Tiny_SDK_Linux//lwm2m/core/packet.c ****                 coap_error_code = COAP_501_NOT_IMPLEMENTED;
 329:/home/baikal/workspace/C50/Huawei_IoT_Agent_Tiny_SDK_Linux//lwm2m/core/packet.c **** #endif
 330:/home/baikal/workspace/C50/Huawei_IoT_Agent_Tiny_SDK_Linux//lwm2m/core/packet.c ****             }
 331:/home/baikal/workspace/C50/Huawei_IoT_Agent_Tiny_SDK_Linux//lwm2m/core/packet.c ****             if (coap_error_code == NO_ERROR)
 332:/home/baikal/workspace/C50/Huawei_IoT_Agent_Tiny_SDK_Linux//lwm2m/core/packet.c ****             {
 333:/home/baikal/workspace/C50/Huawei_IoT_Agent_Tiny_SDK_Linux//lwm2m/core/packet.c ****                 coap_error_code = handle_request(contextP, fromSessionH, message, response);
 334:/home/baikal/workspace/C50/Huawei_IoT_Agent_Tiny_SDK_Linux//lwm2m/core/packet.c ****             }
 335:/home/baikal/workspace/C50/Huawei_IoT_Agent_Tiny_SDK_Linux//lwm2m/core/packet.c ****             if (coap_error_code == NO_ERROR)
 336:/home/baikal/workspace/C50/Huawei_IoT_Agent_Tiny_SDK_Linux//lwm2m/core/packet.c ****             {
 337:/home/baikal/workspace/C50/Huawei_IoT_Agent_Tiny_SDK_Linux//lwm2m/core/packet.c ****                 if ( IS_OPTION(message, COAP_OPTION_BLOCK2) )
 338:/home/baikal/workspace/C50/Huawei_IoT_Agent_Tiny_SDK_Linux//lwm2m/core/packet.c ****                 {
 339:/home/baikal/workspace/C50/Huawei_IoT_Agent_Tiny_SDK_Linux//lwm2m/core/packet.c ****                     /* unchanged new_offset indicates that resource is unaware of blockwise transfe
 340:/home/baikal/workspace/C50/Huawei_IoT_Agent_Tiny_SDK_Linux//lwm2m/core/packet.c ****                     if (new_offset == block_offset)
 341:/home/baikal/workspace/C50/Huawei_IoT_Agent_Tiny_SDK_Linux//lwm2m/core/packet.c ****                     {
 342:/home/baikal/workspace/C50/Huawei_IoT_Agent_Tiny_SDK_Linux//lwm2m/core/packet.c ****                         LOG_ARG("Blockwise: unaware resource with payload length %u/%u", response->
 343:/home/baikal/workspace/C50/Huawei_IoT_Agent_Tiny_SDK_Linux//lwm2m/core/packet.c ****                         if (block_offset >= message->payload_len)
 344:/home/baikal/workspace/C50/Huawei_IoT_Agent_Tiny_SDK_Linux//lwm2m/core/packet.c ****                         {
 345:/home/baikal/workspace/C50/Huawei_IoT_Agent_Tiny_SDK_Linux//lwm2m/core/packet.c ****                             LOG("handle_incoming_data(): block_offset >= response->payload_len");
 346:/home/baikal/workspace/C50/Huawei_IoT_Agent_Tiny_SDK_Linux//lwm2m/core/packet.c **** 
 347:/home/baikal/workspace/C50/Huawei_IoT_Agent_Tiny_SDK_Linux//lwm2m/core/packet.c ****                             response->code = COAP_402_BAD_OPTION;
 348:/home/baikal/workspace/C50/Huawei_IoT_Agent_Tiny_SDK_Linux//lwm2m/core/packet.c ****                             coap_set_payload(response, "BlockOutOfScope", 15); /* a const char str[
 349:/home/baikal/workspace/C50/Huawei_IoT_Agent_Tiny_SDK_Linux//lwm2m/core/packet.c ****                         }
 350:/home/baikal/workspace/C50/Huawei_IoT_Agent_Tiny_SDK_Linux//lwm2m/core/packet.c ****                         else
 351:/home/baikal/workspace/C50/Huawei_IoT_Agent_Tiny_SDK_Linux//lwm2m/core/packet.c ****                         {
 352:/home/baikal/workspace/C50/Huawei_IoT_Agent_Tiny_SDK_Linux//lwm2m/core/packet.c ****                             coap_set_header_block2(response, block_num, response->payload_len - blo
 353:/home/baikal/workspace/C50/Huawei_IoT_Agent_Tiny_SDK_Linux//lwm2m/core/packet.c ****                             coap_set_payload(response, response->payload + block_offset, MIN(respon
 354:/home/baikal/workspace/C50/Huawei_IoT_Agent_Tiny_SDK_Linux//lwm2m/core/packet.c ****                         } /* if (valid offset) */
 355:/home/baikal/workspace/C50/Huawei_IoT_Agent_Tiny_SDK_Linux//lwm2m/core/packet.c ****                     }
 356:/home/baikal/workspace/C50/Huawei_IoT_Agent_Tiny_SDK_Linux//lwm2m/core/packet.c ****                     else
 357:/home/baikal/workspace/C50/Huawei_IoT_Agent_Tiny_SDK_Linux//lwm2m/core/packet.c ****                     {
 358:/home/baikal/workspace/C50/Huawei_IoT_Agent_Tiny_SDK_Linux//lwm2m/core/packet.c ****                         /* resource provides chunk-wise data */
 359:/home/baikal/workspace/C50/Huawei_IoT_Agent_Tiny_SDK_Linux//lwm2m/core/packet.c ****                         LOG_ARG("Blockwise: blockwise resource, new offset %d", (int) new_offset);
 360:/home/baikal/workspace/C50/Huawei_IoT_Agent_Tiny_SDK_Linux//lwm2m/core/packet.c ****                         coap_set_header_block2(response, block_num, new_offset != -1 || response->p
 361:/home/baikal/workspace/C50/Huawei_IoT_Agent_Tiny_SDK_Linux//lwm2m/core/packet.c ****                         if (response->payload_len > block_size) coap_set_payload(response, response
 362:/home/baikal/workspace/C50/Huawei_IoT_Agent_Tiny_SDK_Linux//lwm2m/core/packet.c ****                     } /* if (resource aware of blockwise) */
 363:/home/baikal/workspace/C50/Huawei_IoT_Agent_Tiny_SDK_Linux//lwm2m/core/packet.c ****                 }
 364:/home/baikal/workspace/C50/Huawei_IoT_Agent_Tiny_SDK_Linux//lwm2m/core/packet.c ****                 else if (new_offset != 0)
 365:/home/baikal/workspace/C50/Huawei_IoT_Agent_Tiny_SDK_Linux//lwm2m/core/packet.c ****                 {
 366:/home/baikal/workspace/C50/Huawei_IoT_Agent_Tiny_SDK_Linux//lwm2m/core/packet.c ****                     LOG_ARG("Blockwise: no block option for blockwise resource, using block size %u
 367:/home/baikal/workspace/C50/Huawei_IoT_Agent_Tiny_SDK_Linux//lwm2m/core/packet.c **** 
 368:/home/baikal/workspace/C50/Huawei_IoT_Agent_Tiny_SDK_Linux//lwm2m/core/packet.c ****                     coap_set_header_block2(response, 0, new_offset != -1, REST_MAX_CHUNK_SIZE);
 369:/home/baikal/workspace/C50/Huawei_IoT_Agent_Tiny_SDK_Linux//lwm2m/core/packet.c ****                     coap_set_payload(response, response->payload, MIN(response->payload_len, REST_M
 370:/home/baikal/workspace/C50/Huawei_IoT_Agent_Tiny_SDK_Linux//lwm2m/core/packet.c ****                 } /* if (blockwise request) */
 371:/home/baikal/workspace/C50/Huawei_IoT_Agent_Tiny_SDK_Linux//lwm2m/core/packet.c **** 
 372:/home/baikal/workspace/C50/Huawei_IoT_Agent_Tiny_SDK_Linux//lwm2m/core/packet.c ****                 coap_error_code = message_send(contextP, response, fromSessionH);
 373:/home/baikal/workspace/C50/Huawei_IoT_Agent_Tiny_SDK_Linux//lwm2m/core/packet.c **** 
 374:/home/baikal/workspace/C50/Huawei_IoT_Agent_Tiny_SDK_Linux//lwm2m/core/packet.c ****                 lwm2m_free(response->payload);
 375:/home/baikal/workspace/C50/Huawei_IoT_Agent_Tiny_SDK_Linux//lwm2m/core/packet.c ****                 response->payload = NULL;
 376:/home/baikal/workspace/C50/Huawei_IoT_Agent_Tiny_SDK_Linux//lwm2m/core/packet.c ****                 response->payload_len = 0;
 377:/home/baikal/workspace/C50/Huawei_IoT_Agent_Tiny_SDK_Linux//lwm2m/core/packet.c ****             }
 378:/home/baikal/workspace/C50/Huawei_IoT_Agent_Tiny_SDK_Linux//lwm2m/core/packet.c ****             else if (coap_error_code != COAP_IGNORE)
 379:/home/baikal/workspace/C50/Huawei_IoT_Agent_Tiny_SDK_Linux//lwm2m/core/packet.c ****             {
GAS LISTING /tmp/ccj9abZH.s 			page 12


 380:/home/baikal/workspace/C50/Huawei_IoT_Agent_Tiny_SDK_Linux//lwm2m/core/packet.c ****                 if (1 == coap_set_status_code(response, coap_error_code))
 381:/home/baikal/workspace/C50/Huawei_IoT_Agent_Tiny_SDK_Linux//lwm2m/core/packet.c ****                 {
 382:/home/baikal/workspace/C50/Huawei_IoT_Agent_Tiny_SDK_Linux//lwm2m/core/packet.c ****                     coap_error_code = message_send(contextP, response, fromSessionH);
 383:/home/baikal/workspace/C50/Huawei_IoT_Agent_Tiny_SDK_Linux//lwm2m/core/packet.c ****                 }
 384:/home/baikal/workspace/C50/Huawei_IoT_Agent_Tiny_SDK_Linux//lwm2m/core/packet.c ****             }
 385:/home/baikal/workspace/C50/Huawei_IoT_Agent_Tiny_SDK_Linux//lwm2m/core/packet.c ****         }
 386:/home/baikal/workspace/C50/Huawei_IoT_Agent_Tiny_SDK_Linux//lwm2m/core/packet.c ****         else
 387:/home/baikal/workspace/C50/Huawei_IoT_Agent_Tiny_SDK_Linux//lwm2m/core/packet.c ****         {
 388:/home/baikal/workspace/C50/Huawei_IoT_Agent_Tiny_SDK_Linux//lwm2m/core/packet.c ****             /* Responses */
 389:/home/baikal/workspace/C50/Huawei_IoT_Agent_Tiny_SDK_Linux//lwm2m/core/packet.c ****             switch (message->type)
 390:/home/baikal/workspace/C50/Huawei_IoT_Agent_Tiny_SDK_Linux//lwm2m/core/packet.c ****             {
 391:/home/baikal/workspace/C50/Huawei_IoT_Agent_Tiny_SDK_Linux//lwm2m/core/packet.c ****             case COAP_TYPE_NON:
 392:/home/baikal/workspace/C50/Huawei_IoT_Agent_Tiny_SDK_Linux//lwm2m/core/packet.c ****             case COAP_TYPE_CON:
 393:/home/baikal/workspace/C50/Huawei_IoT_Agent_Tiny_SDK_Linux//lwm2m/core/packet.c ****             {
 394:/home/baikal/workspace/C50/Huawei_IoT_Agent_Tiny_SDK_Linux//lwm2m/core/packet.c ****                 bool done = transaction_handleResponse(contextP, fromSessionH, message, response);
 395:/home/baikal/workspace/C50/Huawei_IoT_Agent_Tiny_SDK_Linux//lwm2m/core/packet.c **** 
 396:/home/baikal/workspace/C50/Huawei_IoT_Agent_Tiny_SDK_Linux//lwm2m/core/packet.c **** #ifdef LWM2M_SERVER_MODE
 397:/home/baikal/workspace/C50/Huawei_IoT_Agent_Tiny_SDK_Linux//lwm2m/core/packet.c ****                 if (!done && IS_OPTION(message, COAP_OPTION_OBSERVE) &&
 398:/home/baikal/workspace/C50/Huawei_IoT_Agent_Tiny_SDK_Linux//lwm2m/core/packet.c ****                         ((message->code == COAP_204_CHANGED) || (message->code == COAP_205_CONTENT)
 399:/home/baikal/workspace/C50/Huawei_IoT_Agent_Tiny_SDK_Linux//lwm2m/core/packet.c ****                 {
 400:/home/baikal/workspace/C50/Huawei_IoT_Agent_Tiny_SDK_Linux//lwm2m/core/packet.c ****                     done = observe_handleNotify(contextP, fromSessionH, message, response);
 401:/home/baikal/workspace/C50/Huawei_IoT_Agent_Tiny_SDK_Linux//lwm2m/core/packet.c ****                 }
 402:/home/baikal/workspace/C50/Huawei_IoT_Agent_Tiny_SDK_Linux//lwm2m/core/packet.c **** #endif
 403:/home/baikal/workspace/C50/Huawei_IoT_Agent_Tiny_SDK_Linux//lwm2m/core/packet.c ****                 if (!done && message->type == COAP_TYPE_CON )
 404:/home/baikal/workspace/C50/Huawei_IoT_Agent_Tiny_SDK_Linux//lwm2m/core/packet.c ****                 {
 405:/home/baikal/workspace/C50/Huawei_IoT_Agent_Tiny_SDK_Linux//lwm2m/core/packet.c ****                     coap_init_message(response, COAP_TYPE_ACK, 0, message->mid);
 406:/home/baikal/workspace/C50/Huawei_IoT_Agent_Tiny_SDK_Linux//lwm2m/core/packet.c ****                     coap_error_code = message_send(contextP, response, fromSessionH);
 407:/home/baikal/workspace/C50/Huawei_IoT_Agent_Tiny_SDK_Linux//lwm2m/core/packet.c ****                 }
 408:/home/baikal/workspace/C50/Huawei_IoT_Agent_Tiny_SDK_Linux//lwm2m/core/packet.c ****             }
 409:/home/baikal/workspace/C50/Huawei_IoT_Agent_Tiny_SDK_Linux//lwm2m/core/packet.c ****             break;
 410:/home/baikal/workspace/C50/Huawei_IoT_Agent_Tiny_SDK_Linux//lwm2m/core/packet.c **** 
 411:/home/baikal/workspace/C50/Huawei_IoT_Agent_Tiny_SDK_Linux//lwm2m/core/packet.c ****             case COAP_TYPE_RST:
 412:/home/baikal/workspace/C50/Huawei_IoT_Agent_Tiny_SDK_Linux//lwm2m/core/packet.c ****                 /* Cancel possible subscriptions. */
 413:/home/baikal/workspace/C50/Huawei_IoT_Agent_Tiny_SDK_Linux//lwm2m/core/packet.c ****                 handle_reset(contextP, fromSessionH, message);
 414:/home/baikal/workspace/C50/Huawei_IoT_Agent_Tiny_SDK_Linux//lwm2m/core/packet.c ****                 transaction_handleResponse(contextP, fromSessionH, message, NULL);
 415:/home/baikal/workspace/C50/Huawei_IoT_Agent_Tiny_SDK_Linux//lwm2m/core/packet.c ****                 break;
 416:/home/baikal/workspace/C50/Huawei_IoT_Agent_Tiny_SDK_Linux//lwm2m/core/packet.c **** 
 417:/home/baikal/workspace/C50/Huawei_IoT_Agent_Tiny_SDK_Linux//lwm2m/core/packet.c ****             case COAP_TYPE_ACK:
 418:/home/baikal/workspace/C50/Huawei_IoT_Agent_Tiny_SDK_Linux//lwm2m/core/packet.c ****                 transaction_handleResponse(contextP, fromSessionH, message, NULL);
 419:/home/baikal/workspace/C50/Huawei_IoT_Agent_Tiny_SDK_Linux//lwm2m/core/packet.c ****                 break;
 420:/home/baikal/workspace/C50/Huawei_IoT_Agent_Tiny_SDK_Linux//lwm2m/core/packet.c **** 
 421:/home/baikal/workspace/C50/Huawei_IoT_Agent_Tiny_SDK_Linux//lwm2m/core/packet.c ****             default:
 422:/home/baikal/workspace/C50/Huawei_IoT_Agent_Tiny_SDK_Linux//lwm2m/core/packet.c ****                 break;
 423:/home/baikal/workspace/C50/Huawei_IoT_Agent_Tiny_SDK_Linux//lwm2m/core/packet.c ****             }
 424:/home/baikal/workspace/C50/Huawei_IoT_Agent_Tiny_SDK_Linux//lwm2m/core/packet.c ****         } /* Request or Response */
 425:/home/baikal/workspace/C50/Huawei_IoT_Agent_Tiny_SDK_Linux//lwm2m/core/packet.c ****         coap_free_header(message);
 426:/home/baikal/workspace/C50/Huawei_IoT_Agent_Tiny_SDK_Linux//lwm2m/core/packet.c ****     } /* if (parsed correctly) */
 427:/home/baikal/workspace/C50/Huawei_IoT_Agent_Tiny_SDK_Linux//lwm2m/core/packet.c ****     else
 428:/home/baikal/workspace/C50/Huawei_IoT_Agent_Tiny_SDK_Linux//lwm2m/core/packet.c ****     {
 429:/home/baikal/workspace/C50/Huawei_IoT_Agent_Tiny_SDK_Linux//lwm2m/core/packet.c ****         LOG_ARG("Message parsing failed %u.%2u", coap_error_code >> 5, coap_error_code & 0x1F);
 430:/home/baikal/workspace/C50/Huawei_IoT_Agent_Tiny_SDK_Linux//lwm2m/core/packet.c ****     }
 431:/home/baikal/workspace/C50/Huawei_IoT_Agent_Tiny_SDK_Linux//lwm2m/core/packet.c **** 
 432:/home/baikal/workspace/C50/Huawei_IoT_Agent_Tiny_SDK_Linux//lwm2m/core/packet.c ****     if (coap_error_code != NO_ERROR && coap_error_code != COAP_IGNORE)
 433:/home/baikal/workspace/C50/Huawei_IoT_Agent_Tiny_SDK_Linux//lwm2m/core/packet.c ****     {
 434:/home/baikal/workspace/C50/Huawei_IoT_Agent_Tiny_SDK_Linux//lwm2m/core/packet.c ****         LOG_ARG("ERROR %u: %s", coap_error_code, coap_error_message);
 435:/home/baikal/workspace/C50/Huawei_IoT_Agent_Tiny_SDK_Linux//lwm2m/core/packet.c **** 
 436:/home/baikal/workspace/C50/Huawei_IoT_Agent_Tiny_SDK_Linux//lwm2m/core/packet.c ****         /* Set to sendable error code. */
GAS LISTING /tmp/ccj9abZH.s 			page 13


 437:/home/baikal/workspace/C50/Huawei_IoT_Agent_Tiny_SDK_Linux//lwm2m/core/packet.c ****         if (coap_error_code >= 192)
 438:/home/baikal/workspace/C50/Huawei_IoT_Agent_Tiny_SDK_Linux//lwm2m/core/packet.c ****         {
 439:/home/baikal/workspace/C50/Huawei_IoT_Agent_Tiny_SDK_Linux//lwm2m/core/packet.c ****             coap_error_code = COAP_500_INTERNAL_SERVER_ERROR;
 440:/home/baikal/workspace/C50/Huawei_IoT_Agent_Tiny_SDK_Linux//lwm2m/core/packet.c ****         }
 441:/home/baikal/workspace/C50/Huawei_IoT_Agent_Tiny_SDK_Linux//lwm2m/core/packet.c ****         /* Reuse input buffer for error message. */
 442:/home/baikal/workspace/C50/Huawei_IoT_Agent_Tiny_SDK_Linux//lwm2m/core/packet.c ****         coap_init_message(message, COAP_TYPE_ACK, coap_error_code, message->mid);
 443:/home/baikal/workspace/C50/Huawei_IoT_Agent_Tiny_SDK_Linux//lwm2m/core/packet.c ****         coap_set_payload(message, coap_error_message, strlen(coap_error_message));
 444:/home/baikal/workspace/C50/Huawei_IoT_Agent_Tiny_SDK_Linux//lwm2m/core/packet.c ****         message_send(contextP, message, fromSessionH);
 445:/home/baikal/workspace/C50/Huawei_IoT_Agent_Tiny_SDK_Linux//lwm2m/core/packet.c ****     }
 446:/home/baikal/workspace/C50/Huawei_IoT_Agent_Tiny_SDK_Linux//lwm2m/core/packet.c **** }
 447:/home/baikal/workspace/C50/Huawei_IoT_Agent_Tiny_SDK_Linux//lwm2m/core/packet.c **** 
 448:/home/baikal/workspace/C50/Huawei_IoT_Agent_Tiny_SDK_Linux//lwm2m/core/packet.c **** 
 449:/home/baikal/workspace/C50/Huawei_IoT_Agent_Tiny_SDK_Linux//lwm2m/core/packet.c **** uint8_t message_send(lwm2m_context_t *contextP,
 450:/home/baikal/workspace/C50/Huawei_IoT_Agent_Tiny_SDK_Linux//lwm2m/core/packet.c ****                      coap_packet_t *message,
 451:/home/baikal/workspace/C50/Huawei_IoT_Agent_Tiny_SDK_Linux//lwm2m/core/packet.c ****                      void *sessionH)
 452:/home/baikal/workspace/C50/Huawei_IoT_Agent_Tiny_SDK_Linux//lwm2m/core/packet.c **** {
 230              		.loc 1 452 0
 231              		.cfi_startproc
 232              	.LVL39:
 233 0000 4156     		pushq	%r14
 234              	.LCFI12:
 235              		.cfi_def_cfa_offset 16
 236              		.cfi_offset 14, -16
 237 0002 4155     		pushq	%r13
 238              	.LCFI13:
 239              		.cfi_def_cfa_offset 24
 240              		.cfi_offset 13, -24
 241 0004 4154     		pushq	%r12
 242              	.LCFI14:
 243              		.cfi_def_cfa_offset 32
 244              		.cfi_offset 12, -32
 245 0006 55       		pushq	%rbp
 246              	.LCFI15:
 247              		.cfi_def_cfa_offset 40
 248              		.cfi_offset 6, -40
 249 0007 53       		pushq	%rbx
 250              	.LCFI16:
 251              		.cfi_def_cfa_offset 48
 252              		.cfi_offset 3, -48
 253 0008 4989FC   		movq	%rdi, %r12
 254 000b 4889F3   		movq	%rsi, %rbx
 255 000e 4889D5   		movq	%rdx, %rbp
 256              	.LVL40:
 453:/home/baikal/workspace/C50/Huawei_IoT_Agent_Tiny_SDK_Linux//lwm2m/core/packet.c ****     uint8_t result = COAP_500_INTERNAL_SERVER_ERROR;
 454:/home/baikal/workspace/C50/Huawei_IoT_Agent_Tiny_SDK_Linux//lwm2m/core/packet.c ****     uint8_t *pktBuffer;
 455:/home/baikal/workspace/C50/Huawei_IoT_Agent_Tiny_SDK_Linux//lwm2m/core/packet.c ****     size_t pktBufferLen = 0;
 456:/home/baikal/workspace/C50/Huawei_IoT_Agent_Tiny_SDK_Linux//lwm2m/core/packet.c ****     size_t allocLen;
 457:/home/baikal/workspace/C50/Huawei_IoT_Agent_Tiny_SDK_Linux//lwm2m/core/packet.c **** 
 458:/home/baikal/workspace/C50/Huawei_IoT_Agent_Tiny_SDK_Linux//lwm2m/core/packet.c ****     LOG("Entering");
 459:/home/baikal/workspace/C50/Huawei_IoT_Agent_Tiny_SDK_Linux//lwm2m/core/packet.c ****     allocLen = coap_serialize_get_size(message);
 257              		.loc 1 459 0
 258 0011 4889F7   		movq	%rsi, %rdi
 259              	.LVL41:
 260 0014 E8000000 		call	coap_serialize_get_size
 260      00
 261              	.LVL42:
 460:/home/baikal/workspace/C50/Huawei_IoT_Agent_Tiny_SDK_Linux//lwm2m/core/packet.c ****     LOG_ARG("Size to allocate: %d", allocLen);
GAS LISTING /tmp/ccj9abZH.s 			page 14


 461:/home/baikal/workspace/C50/Huawei_IoT_Agent_Tiny_SDK_Linux//lwm2m/core/packet.c ****     if (allocLen == 0) return COAP_500_INTERNAL_SERVER_ERROR;
 262              		.loc 1 461 0
 263 0019 4885C0   		testq	%rax, %rax
 264 001c 7462     		je	.L22
 462:/home/baikal/workspace/C50/Huawei_IoT_Agent_Tiny_SDK_Linux//lwm2m/core/packet.c **** 
 463:/home/baikal/workspace/C50/Huawei_IoT_Agent_Tiny_SDK_Linux//lwm2m/core/packet.c ****     pktBuffer = (uint8_t *)lwm2m_malloc(allocLen);
 265              		.loc 1 463 0
 266 001e 4889C7   		movq	%rax, %rdi
 267 0021 E8000000 		call	lwm2m_malloc
 267      00
 268              	.LVL43:
 269 0026 4989C5   		movq	%rax, %r13
 270              	.LVL44:
 464:/home/baikal/workspace/C50/Huawei_IoT_Agent_Tiny_SDK_Linux//lwm2m/core/packet.c ****     if (pktBuffer != NULL)
 271              		.loc 1 464 0
 272 0029 4885C0   		testq	%rax, %rax
 273 002c 7459     		je	.L23
 465:/home/baikal/workspace/C50/Huawei_IoT_Agent_Tiny_SDK_Linux//lwm2m/core/packet.c ****     {
 466:/home/baikal/workspace/C50/Huawei_IoT_Agent_Tiny_SDK_Linux//lwm2m/core/packet.c ****         pktBufferLen = coap_serialize_message(message, pktBuffer);
 274              		.loc 1 466 0
 275 002e 4889C6   		movq	%rax, %rsi
 276 0031 4889DF   		movq	%rbx, %rdi
 277 0034 E8000000 		call	coap_serialize_message
 277      00
 278              	.LVL45:
 279 0039 4989C6   		movq	%rax, %r14
 280              	.LVL46:
 467:/home/baikal/workspace/C50/Huawei_IoT_Agent_Tiny_SDK_Linux//lwm2m/core/packet.c ****         LOG_ARG("coap_serialize_message() returned %d", pktBufferLen);
 468:/home/baikal/workspace/C50/Huawei_IoT_Agent_Tiny_SDK_Linux//lwm2m/core/packet.c ****         if (0 != pktBufferLen)
 281              		.loc 1 468 0
 282 003c 4885C0   		testq	%rax, %rax
 283 003f 742E     		je	.L24
 469:/home/baikal/workspace/C50/Huawei_IoT_Agent_Tiny_SDK_Linux//lwm2m/core/packet.c ****         {
 470:/home/baikal/workspace/C50/Huawei_IoT_Agent_Tiny_SDK_Linux//lwm2m/core/packet.c ****             result = lwm2m_buffer_send(sessionH, pktBuffer, pktBufferLen, contextP->userData);
 284              		.loc 1 470 0
 285 0041 498B4C24 		movq	96(%r12), %rcx
 285      60
 286 0046 4889C2   		movq	%rax, %rdx
 287 0049 4C89EE   		movq	%r13, %rsi
 288 004c 4889EF   		movq	%rbp, %rdi
 289 004f E8000000 		call	lwm2m_buffer_send
 289      00
 290              	.LVL47:
 291 0054 89C3     		movl	%eax, %ebx
 292              	.LVL48:
 471:/home/baikal/workspace/C50/Huawei_IoT_Agent_Tiny_SDK_Linux//lwm2m/core/packet.c ****             output_buffer(stderr, (uint8_t *)pktBuffer, pktBufferLen, 0);
 293              		.loc 1 471 0
 294 0056 B9000000 		movl	$0, %ecx
 294      00
 295 005b 4489F2   		movl	%r14d, %edx
 296 005e 4C89EE   		movq	%r13, %rsi
 297 0061 488B3D00 		movq	stderr(%rip), %rdi
 297      000000
 298 0068 E8000000 		call	output_buffer
 298      00
 299              	.LVL49:
 300 006d EB05     		jmp	.L21
GAS LISTING /tmp/ccj9abZH.s 			page 15


 301              	.LVL50:
 302              	.L24:
 453:/home/baikal/workspace/C50/Huawei_IoT_Agent_Tiny_SDK_Linux//lwm2m/core/packet.c ****     uint8_t *pktBuffer;
 303              		.loc 1 453 0
 304 006f BBA0FFFF 		movl	$-96, %ebx
 304      FF
 305              	.LVL51:
 306              	.L21:
 472:/home/baikal/workspace/C50/Huawei_IoT_Agent_Tiny_SDK_Linux//lwm2m/core/packet.c ****         }
 473:/home/baikal/workspace/C50/Huawei_IoT_Agent_Tiny_SDK_Linux//lwm2m/core/packet.c ****         lwm2m_free(pktBuffer);
 307              		.loc 1 473 0
 308 0074 4C89EF   		movq	%r13, %rdi
 309 0077 E8000000 		call	lwm2m_free
 309      00
 310              	.LVL52:
 311 007c 89D8     		movl	%ebx, %eax
 312 007e EB0C     		jmp	.L20
 313              	.LVL53:
 314              	.L22:
 461:/home/baikal/workspace/C50/Huawei_IoT_Agent_Tiny_SDK_Linux//lwm2m/core/packet.c **** 
 315              		.loc 1 461 0
 316 0080 B8A0FFFF 		movl	$-96, %eax
 316      FF
 317              	.LVL54:
 318 0085 EB05     		jmp	.L20
 319              	.LVL55:
 320              	.L23:
 453:/home/baikal/workspace/C50/Huawei_IoT_Agent_Tiny_SDK_Linux//lwm2m/core/packet.c ****     uint8_t *pktBuffer;
 321              		.loc 1 453 0
 322 0087 B8A0FFFF 		movl	$-96, %eax
 322      FF
 323              	.LVL56:
 324              	.L20:
 474:/home/baikal/workspace/C50/Huawei_IoT_Agent_Tiny_SDK_Linux//lwm2m/core/packet.c ****     }
 475:/home/baikal/workspace/C50/Huawei_IoT_Agent_Tiny_SDK_Linux//lwm2m/core/packet.c **** 
 476:/home/baikal/workspace/C50/Huawei_IoT_Agent_Tiny_SDK_Linux//lwm2m/core/packet.c ****     return result;
 477:/home/baikal/workspace/C50/Huawei_IoT_Agent_Tiny_SDK_Linux//lwm2m/core/packet.c **** }
 325              		.loc 1 477 0
 326 008c 5B       		popq	%rbx
 327              	.LCFI17:
 328              		.cfi_def_cfa_offset 40
 329 008d 5D       		popq	%rbp
 330              	.LCFI18:
 331              		.cfi_def_cfa_offset 32
 332              	.LVL57:
 333 008e 415C     		popq	%r12
 334              	.LCFI19:
 335              		.cfi_def_cfa_offset 24
 336              	.LVL58:
 337 0090 415D     		popq	%r13
 338              	.LCFI20:
 339              		.cfi_def_cfa_offset 16
 340 0092 415E     		popq	%r14
 341              	.LCFI21:
 342              		.cfi_def_cfa_offset 8
 343 0094 C3       		ret
 344              		.cfi_endproc
GAS LISTING /tmp/ccj9abZH.s 			page 16


 345              	.LFE66:
 347              		.section	.rodata.str1.1,"aMS",@progbits,1
 348              	.LC0:
 349 0000 426C6F63 		.string	"BlockOutOfScope"
 349      6B4F7574 
 349      4F665363 
 349      6F706500 
 350              		.section	.text.lwm2m_handle_packet,"ax",@progbits
 351              		.globl	lwm2m_handle_packet
 353              	lwm2m_handle_packet:
 354              	.LFB65:
 238:/home/baikal/workspace/C50/Huawei_IoT_Agent_Tiny_SDK_Linux//lwm2m/core/packet.c ****     uint8_t coap_error_code = NO_ERROR;
 355              		.loc 1 238 0
 356              		.cfi_startproc
 357              	.LVL59:
 358 0000 4155     		pushq	%r13
 359              	.LCFI22:
 360              		.cfi_def_cfa_offset 16
 361              		.cfi_offset 13, -16
 362 0002 4154     		pushq	%r12
 363              	.LCFI23:
 364              		.cfi_def_cfa_offset 24
 365              		.cfi_offset 12, -24
 366 0004 55       		pushq	%rbp
 367              	.LCFI24:
 368              		.cfi_def_cfa_offset 32
 369              		.cfi_offset 6, -32
 370 0005 53       		pushq	%rbx
 371              	.LCFI25:
 372              		.cfi_def_cfa_offset 40
 373              		.cfi_offset 3, -40
 374 0006 4883EC38 		subq	$56, %rsp
 375              	.LCFI26:
 376              		.cfi_def_cfa_offset 96
 377 000a 4889FD   		movq	%rdi, %rbp
 378 000d 4989CC   		movq	%rcx, %r12
 379              	.LVL60:
 244:/home/baikal/workspace/C50/Huawei_IoT_Agent_Tiny_SDK_Linux//lwm2m/core/packet.c ****     if (coap_error_code == NO_ERROR)
 380              		.loc 1 244 0
 381 0010 0FB7D2   		movzwl	%dx, %edx
 382              	.LVL61:
 383 0013 BF000000 		movl	$message.4893, %edi
 383      00
 384              	.LVL62:
 385 0018 E8000000 		call	coap_parse_message
 385      00
 386              	.LVL63:
 387 001d 89C3     		movl	%eax, %ebx
 388              	.LVL64:
 245:/home/baikal/workspace/C50/Huawei_IoT_Agent_Tiny_SDK_Linux//lwm2m/core/packet.c ****     {
 389              		.loc 1 245 0
 390 001f 84C0     		testb	%al, %al
 391 0021 0F853C04 		jne	.L27
 391      0000
 250:/home/baikal/workspace/C50/Huawei_IoT_Agent_Tiny_SDK_Linux//lwm2m/core/packet.c ****         {
 392              		.loc 1 250 0
 393 0027 0FB60500 		movzbl	message.4893+16(%rip), %eax
GAS LISTING /tmp/ccj9abZH.s 			page 17


 393      000000
 394              	.LVL65:
 395 002e 83E801   		subl	$1, %eax
 396 0031 3C03     		cmpb	$3, %al
 397 0033 0F877503 		ja	.L28
 397      0000
 398              	.LBB3:
 252:/home/baikal/workspace/C50/Huawei_IoT_Agent_Tiny_SDK_Linux//lwm2m/core/packet.c ****             uint16_t block_size = REST_MAX_CHUNK_SIZE;
 399              		.loc 1 252 0
 400 0039 C7442414 		movl	$0, 20(%rsp)
 400      00000000 
 253:/home/baikal/workspace/C50/Huawei_IoT_Agent_Tiny_SDK_Linux//lwm2m/core/packet.c ****             uint32_t block_offset = 0;
 401              		.loc 1 253 0
 402 0041 66C74424 		movw	$128, 16(%rsp)
 402      108000
 254:/home/baikal/workspace/C50/Huawei_IoT_Agent_Tiny_SDK_Linux//lwm2m/core/packet.c ****             int64_t new_offset = 0;
 403              		.loc 1 254 0
 404 0048 C7442418 		movl	$0, 24(%rsp)
 404      00000000 
 405              	.LVL66:
 258:/home/baikal/workspace/C50/Huawei_IoT_Agent_Tiny_SDK_Linux//lwm2m/core/packet.c ****             {
 406              		.loc 1 258 0
 407 0050 833D0000 		cmpl	$0, message.4893+12(%rip)
 407      000000
 408 0057 751D     		jne	.L29
 261:/home/baikal/workspace/C50/Huawei_IoT_Agent_Tiny_SDK_Linux//lwm2m/core/packet.c ****             }
 409              		.loc 1 261 0
 410 0059 0FB70D00 		movzwl	message.4893+18(%rip), %ecx
 410      000000
 411 0060 BA450000 		movl	$69, %edx
 411      00
 412 0065 BE020000 		movl	$2, %esi
 412      00
 413 006a BF000000 		movl	$response.4894, %edi
 413      00
 414 006f E8000000 		call	coap_init_message
 414      00
 415              	.LVL67:
 416 0074 EB22     		jmp	.L30
 417              	.L29:
 266:/home/baikal/workspace/C50/Huawei_IoT_Agent_Tiny_SDK_Linux//lwm2m/core/packet.c ****             }
 418              		.loc 1 266 0
 419 0076 0FB74D50 		movzwl	80(%rbp), %ecx
 420 007a 8D4101   		leal	1(%rcx), %eax
 421 007d 66894550 		movw	%ax, 80(%rbp)
 422 0081 0FB7C9   		movzwl	%cx, %ecx
 423 0084 BA450000 		movl	$69, %edx
 423      00
 424 0089 BE010000 		movl	$1, %esi
 424      00
 425 008e BF000000 		movl	$response.4894, %edi
 425      00
 426 0093 E8000000 		call	coap_init_message
 426      00
 427              	.LVL68:
 428              	.L30:
 270:/home/baikal/workspace/C50/Huawei_IoT_Agent_Tiny_SDK_Linux//lwm2m/core/packet.c ****             {
GAS LISTING /tmp/ccj9abZH.s 			page 18


 429              		.loc 1 270 0
 430 0098 0FB61500 		movzbl	message.4893+132(%rip), %edx
 430      000000
 431 009f 84D2     		testb	%dl, %dl
 432 00a1 7412     		je	.L31
 272:/home/baikal/workspace/C50/Huawei_IoT_Agent_Tiny_SDK_Linux//lwm2m/core/packet.c ****             }
 433              		.loc 1 272 0
 434 00a3 0FB6D2   		movzbl	%dl, %edx
 435 00a6 BE000000 		movl	$message.4893+133, %esi
 435      00
 436 00ab BF000000 		movl	$response.4894, %edi
 436      00
 437 00b0 E8000000 		call	coap_set_header_token
 437      00
 438              	.LVL69:
 439              	.L31:
 276:/home/baikal/workspace/C50/Huawei_IoT_Agent_Tiny_SDK_Linux//lwm2m/core/packet.c ****             {
 440              		.loc 1 276 0
 441 00b5 4C8D4424 		leaq	24(%rsp), %r8
 441      18
 442 00ba 488D4C24 		leaq	16(%rsp), %rcx
 442      10
 443 00bf BA000000 		movl	$0, %edx
 443      00
 444 00c4 488D7424 		leaq	20(%rsp), %rsi
 444      14
 445 00c9 BF000000 		movl	$message.4893, %edi
 445      00
 446 00ce E8000000 		call	coap_get_header_block2
 446      00
 447              	.LVL70:
 448 00d3 85C0     		testl	%eax, %eax
 449 00d5 741E     		je	.L52
 279:/home/baikal/workspace/C50/Huawei_IoT_Agent_Tiny_SDK_Linux//lwm2m/core/packet.c ****                 new_offset = block_offset;
 450              		.loc 1 279 0
 451 00d7 66817C24 		cmpw	$128, 16(%rsp)
 451      108000
 452 00de B8800000 		movl	$128, %eax
 452      00
 453 00e3 660F4644 		cmovbe	16(%rsp), %ax
 453      2410
 454 00e9 66894424 		movw	%ax, 16(%rsp)
 454      10
 280:/home/baikal/workspace/C50/Huawei_IoT_Agent_Tiny_SDK_Linux//lwm2m/core/packet.c ****             }
 455              		.loc 1 280 0
 456 00ee 448B6C24 		movl	24(%rsp), %r13d
 456      18
 457              	.LVL71:
 458 00f3 EB06     		jmp	.L32
 459              	.LVL72:
 460              	.L52:
 255:/home/baikal/workspace/C50/Huawei_IoT_Agent_Tiny_SDK_Linux//lwm2m/core/packet.c **** 
 461              		.loc 1 255 0
 462 00f5 41BD0000 		movl	$0, %r13d
 462      0000
 463              	.LVL73:
 464              	.L32:
GAS LISTING /tmp/ccj9abZH.s 			page 19


 284:/home/baikal/workspace/C50/Huawei_IoT_Agent_Tiny_SDK_Linux//lwm2m/core/packet.c ****             {
 465              		.loc 1 284 0
 466 00fb F6050000 		testb	$8, message.4893+23(%rip)
 466      000008
 467 0102 0F84F300 		je	.L33
 467      0000
 468              	.LBB4:
 289:/home/baikal/workspace/C50/Huawei_IoT_Agent_Tiny_SDK_Linux//lwm2m/core/packet.c **** #ifdef LWM2M_BOOTSTRAP
 469              		.loc 1 289 0
 470 0108 4C89E6   		movq	%r12, %rsi
 471 010b 4889EF   		movq	%rbp, %rdi
 472 010e E8000000 		call	utils_findServer
 472      00
 473              	.LVL74:
 474 0113 4889C3   		movq	%rax, %rbx
 475              	.LVL75:
 291:/home/baikal/workspace/C50/Huawei_IoT_Agent_Tiny_SDK_Linux//lwm2m/core/packet.c ****                 {
 476              		.loc 1 291 0
 477 0116 4885C0   		testq	%rax, %rax
 478 0119 750E     		jne	.L34
 293:/home/baikal/workspace/C50/Huawei_IoT_Agent_Tiny_SDK_Linux//lwm2m/core/packet.c ****                 }
 479              		.loc 1 293 0
 480 011b 4C89E6   		movq	%r12, %rsi
 481 011e 4889EF   		movq	%rbp, %rdi
 482 0121 E8000000 		call	utils_findBootstrapServer
 482      00
 483              	.LVL76:
 484 0126 4889C3   		movq	%rax, %rbx
 485              	.LVL77:
 486              	.L34:
 296:/home/baikal/workspace/C50/Huawei_IoT_Agent_Tiny_SDK_Linux//lwm2m/core/packet.c ****                 {
 487              		.loc 1 296 0
 488 0129 4885DB   		testq	%rbx, %rbx
 489 012c 0F84C400 		je	.L53
 489      0000
 490              	.LBB5:
 305:/home/baikal/workspace/C50/Huawei_IoT_Agent_Tiny_SDK_Linux//lwm2m/core/packet.c ****                     size_t complete_buffer_size;
 491              		.loc 1 305 0
 492 0132 48C74424 		movq	$0, 32(%rsp)
 492      20000000 
 492      00
 309:/home/baikal/workspace/C50/Huawei_IoT_Agent_Tiny_SDK_Linux//lwm2m/core/packet.c ****                     LOG_ARG("Blockwise: block1 request NUM %u (SZX %u/ SZX Max%u) MORE %u", block1_
 493              		.loc 1 309 0
 494 013b 41B80000 		movl	$0, %r8d
 494      0000
 495 0141 488D4C24 		leaq	18(%rsp), %rcx
 495      12
 496 0146 488D5424 		leaq	15(%rsp), %rdx
 496      0F
 497 014b 488D7424 		leaq	28(%rsp), %rsi
 497      1C
 498 0150 BF000000 		movl	$message.4893, %edi
 498      00
 499 0155 E8000000 		call	coap_get_header_block1
 499      00
 500              	.LVL78:
 313:/home/baikal/workspace/C50/Huawei_IoT_Agent_Tiny_SDK_Linux//lwm2m/core/packet.c **** 
GAS LISTING /tmp/ccj9abZH.s 			page 20


 501              		.loc 1 313 0
 502 015a 807C240F 		cmpb	$0, 15(%rsp)
 502      00
 503 015f 0F95C0   		setne	%al
 504 0162 0FB6C0   		movzbl	%al, %eax
 505 0165 0FB70D00 		movzwl	message.4893+194(%rip), %ecx
 505      000000
 506 016c 0FB73500 		movzwl	message.4893+18(%rip), %esi
 506      000000
 507 0173 488D7B48 		leaq	72(%rbx), %rdi
 508 0177 4883EC08 		subq	$8, %rsp
 509              	.LCFI27:
 510              		.cfi_def_cfa_offset 104
 511 017b 488D5424 		leaq	48(%rsp), %rdx
 511      30
 512 0180 52       		pushq	%rdx
 513              	.LCFI28:
 514              		.cfi_def_cfa_offset 112
 515 0181 488D5424 		leaq	48(%rsp), %rdx
 515      30
 516 0186 52       		pushq	%rdx
 517              	.LCFI29:
 518              		.cfi_def_cfa_offset 120
 519 0187 50       		pushq	%rax
 520              	.LCFI30:
 521              		.cfi_def_cfa_offset 128
 522 0188 448B4C24 		movl	60(%rsp), %r9d
 522      3C
 523 018d 440FB744 		movzwl	50(%rsp), %r8d
 523      2432
 524 0193 488B1500 		movq	message.4893+200(%rip), %rdx
 524      000000
 525 019a E8000000 		call	coap_block1_handler
 525      00
 526              	.LVL79:
 527 019f 89C3     		movl	%eax, %ebx
 528              	.LVL80:
 316:/home/baikal/workspace/C50/Huawei_IoT_Agent_Tiny_SDK_Linux//lwm2m/core/packet.c ****                     {
 529              		.loc 1 316 0
 530 01a1 4883C420 		addq	$32, %rsp
 531              	.LCFI31:
 532              		.cfi_def_cfa_offset 96
 533 01a5 84C0     		testb	%al, %al
 534 01a7 751A     		jne	.L35
 318:/home/baikal/workspace/C50/Huawei_IoT_Agent_Tiny_SDK_Linux//lwm2m/core/packet.c ****                         message->payload_len = complete_buffer_size;
 535              		.loc 1 318 0
 536 01a9 488B4424 		movq	32(%rsp), %rax
 536      20
 537              	.LVL81:
 538 01ae 48890500 		movq	%rax, message.4893+200(%rip)
 538      000000
 319:/home/baikal/workspace/C50/Huawei_IoT_Agent_Tiny_SDK_Linux//lwm2m/core/packet.c ****                     }
 539              		.loc 1 319 0
 540 01b5 488B4424 		movq	40(%rsp), %rax
 540      28
 541 01ba 66890500 		movw	%ax, message.4893+194(%rip)
 541      000000
GAS LISTING /tmp/ccj9abZH.s 			page 21


 542 01c1 EB38     		jmp	.L33
 543              	.LVL82:
 544              	.L35:
 321:/home/baikal/workspace/C50/Huawei_IoT_Agent_Tiny_SDK_Linux//lwm2m/core/packet.c ****                     {
 545              		.loc 1 321 0
 546 01c3 3C5F     		cmpb	$95, %al
 547 01c5 7534     		jne	.L33
 323:/home/baikal/workspace/C50/Huawei_IoT_Agent_Tiny_SDK_Linux//lwm2m/core/packet.c ****                         coap_set_header_block1(response, block1_num, block1_more, block1_size);
 548              		.loc 1 323 0
 549 01c7 66817C24 		cmpw	$128, 18(%rsp)
 549      128000
 550 01ce B8800000 		movl	$128, %eax
 550      00
 551              	.LVL83:
 552 01d3 660F4644 		cmovbe	18(%rsp), %ax
 552      2412
 553 01d9 66894424 		movw	%ax, 18(%rsp)
 553      12
 324:/home/baikal/workspace/C50/Huawei_IoT_Agent_Tiny_SDK_Linux//lwm2m/core/packet.c ****                     }
 554              		.loc 1 324 0
 555 01de 0FB7C8   		movzwl	%ax, %ecx
 556 01e1 0FB65424 		movzbl	15(%rsp), %edx
 556      0F
 557 01e6 8B74241C 		movl	28(%rsp), %esi
 558 01ea BF000000 		movl	$response.4894, %edi
 558      00
 559 01ef E8000000 		call	coap_set_header_block1
 559      00
 560              	.LVL84:
 561 01f4 EB05     		jmp	.L33
 562              	.LVL85:
 563              	.L53:
 564              	.LBE5:
 298:/home/baikal/workspace/C50/Huawei_IoT_Agent_Tiny_SDK_Linux//lwm2m/core/packet.c ****                 }
 565              		.loc 1 298 0
 566 01f6 BBA0FFFF 		movl	$-96, %ebx
 566      FF
 567              	.LVL86:
 568              	.L33:
 569              	.LBE4:
 331:/home/baikal/workspace/C50/Huawei_IoT_Agent_Tiny_SDK_Linux//lwm2m/core/packet.c ****             {
 570              		.loc 1 331 0
 571 01fb 84DB     		testb	%bl, %bl
 572 01fd 7517     		jne	.L37
 333:/home/baikal/workspace/C50/Huawei_IoT_Agent_Tiny_SDK_Linux//lwm2m/core/packet.c ****             }
 573              		.loc 1 333 0
 574 01ff B9000000 		movl	$response.4894, %ecx
 574      00
 575 0204 BA000000 		movl	$message.4893, %edx
 575      00
 576 0209 4C89E6   		movq	%r12, %rsi
 577 020c 4889EF   		movq	%rbp, %rdi
 578 020f E8000000 		call	handle_request
 578      00
 579              	.LVL87:
 580 0214 89C3     		movl	%eax, %ebx
 581              	.LVL88:
GAS LISTING /tmp/ccj9abZH.s 			page 22


 582              	.L37:
 335:/home/baikal/workspace/C50/Huawei_IoT_Agent_Tiny_SDK_Linux//lwm2m/core/packet.c ****             {
 583              		.loc 1 335 0
 584 0216 84DB     		testb	%bl, %bl
 585 0218 0F855A01 		jne	.L38
 585      0000
 337:/home/baikal/workspace/C50/Huawei_IoT_Agent_Tiny_SDK_Linux//lwm2m/core/packet.c ****                 {
 586              		.loc 1 337 0
 587 021e 803D0000 		cmpb	$0, message.4893+22(%rip)
 587      000000
 588 0225 0F89D000 		jns	.L39
 588      0000
 340:/home/baikal/workspace/C50/Huawei_IoT_Agent_Tiny_SDK_Linux//lwm2m/core/packet.c ****                     {
 589              		.loc 1 340 0
 590 022b 8B442418 		movl	24(%rsp), %eax
 591 022f 89C2     		movl	%eax, %edx
 592 0231 4939D5   		cmpq	%rdx, %r13
 593 0234 0F858500 		jne	.L40
 593      0000
 343:/home/baikal/workspace/C50/Huawei_IoT_Agent_Tiny_SDK_Linux//lwm2m/core/packet.c ****                         {
 594              		.loc 1 343 0
 595 023a 0FB71500 		movzwl	message.4893+194(%rip), %edx
 595      000000
 596 0241 39D0     		cmpl	%edx, %eax
 597 0243 7220     		jb	.L41
 347:/home/baikal/workspace/C50/Huawei_IoT_Agent_Tiny_SDK_Linux//lwm2m/core/packet.c ****                             coap_set_payload(response, "BlockOutOfScope", 15); /* a const char str[
 598              		.loc 1 347 0
 599 0245 C6050000 		movb	$-126, response.4894+16(%rip)
 599      000082
 348:/home/baikal/workspace/C50/Huawei_IoT_Agent_Tiny_SDK_Linux//lwm2m/core/packet.c ****                         }
 600              		.loc 1 348 0
 601 024c BA0F0000 		movl	$15, %edx
 601      00
 602 0251 BE000000 		movl	$.LC0, %esi
 602      00
 603 0256 BF000000 		movl	$response.4894, %edi
 603      00
 604 025b E8000000 		call	coap_set_payload
 604      00
 605              	.LVL89:
 606 0260 E9DC0000 		jmp	.L42
 606      00
 607              	.L41:
 352:/home/baikal/workspace/C50/Huawei_IoT_Agent_Tiny_SDK_Linux//lwm2m/core/packet.c ****                             coap_set_payload(response, response->payload + block_offset, MIN(respon
 608              		.loc 1 352 0
 609 0265 0FB71500 		movzwl	response.4894+194(%rip), %edx
 609      000000
 610 026c 29C2     		subl	%eax, %edx
 611 026e 0FB74C24 		movzwl	16(%rsp), %ecx
 611      10
 612 0273 39CA     		cmpl	%ecx, %edx
 613 0275 0F97C2   		seta	%dl
 614 0278 0FB6D2   		movzbl	%dl, %edx
 615 027b 8B742414 		movl	20(%rsp), %esi
 616 027f BF000000 		movl	$response.4894, %edi
 616      00
 617 0284 E8000000 		call	coap_set_header_block2
GAS LISTING /tmp/ccj9abZH.s 			page 23


 617      00
 618              	.LVL90:
 353:/home/baikal/workspace/C50/Huawei_IoT_Agent_Tiny_SDK_Linux//lwm2m/core/packet.c ****                         } /* if (valid offset) */
 619              		.loc 1 353 0
 620 0289 8B442418 		movl	24(%rsp), %eax
 621 028d 0FB71500 		movzwl	response.4894+194(%rip), %edx
 621      000000
 622 0294 89D1     		movl	%edx, %ecx
 623 0296 29C1     		subl	%eax, %ecx
 624 0298 0FB75424 		movzwl	16(%rsp), %edx
 624      10
 625 029d 39CA     		cmpl	%ecx, %edx
 626 029f 0F47D1   		cmova	%ecx, %edx
 627 02a2 89D2     		movl	%edx, %edx
 628 02a4 89C0     		movl	%eax, %eax
 629 02a6 48030500 		addq	response.4894+200(%rip), %rax
 629      000000
 630 02ad 4889C6   		movq	%rax, %rsi
 631 02b0 BF000000 		movl	$response.4894, %edi
 631      00
 632 02b5 E8000000 		call	coap_set_payload
 632      00
 633              	.LVL91:
 634 02ba E9820000 		jmp	.L42
 634      00
 635              	.L40:
 360:/home/baikal/workspace/C50/Huawei_IoT_Agent_Tiny_SDK_Linux//lwm2m/core/packet.c ****                         if (response->payload_len > block_size) coap_set_payload(response, response
 636              		.loc 1 360 0
 637 02bf 0FB74C24 		movzwl	16(%rsp), %ecx
 637      10
 638 02c4 BA010000 		movl	$1, %edx
 638      00
 639 02c9 8B742414 		movl	20(%rsp), %esi
 640 02cd BF000000 		movl	$response.4894, %edi
 640      00
 641 02d2 E8000000 		call	coap_set_header_block2
 641      00
 642              	.LVL92:
 361:/home/baikal/workspace/C50/Huawei_IoT_Agent_Tiny_SDK_Linux//lwm2m/core/packet.c ****                     } /* if (resource aware of blockwise) */
 643              		.loc 1 361 0
 644 02d7 0FB74424 		movzwl	16(%rsp), %eax
 644      10
 645 02dc 66390500 		cmpw	%ax, response.4894+194(%rip)
 645      000000
 646 02e3 765C     		jbe	.L42
 361:/home/baikal/workspace/C50/Huawei_IoT_Agent_Tiny_SDK_Linux//lwm2m/core/packet.c ****                     } /* if (resource aware of blockwise) */
 647              		.loc 1 361 0 is_stmt 0 discriminator 1
 648 02e5 0FB7D0   		movzwl	%ax, %edx
 649 02e8 488B3500 		movq	response.4894+200(%rip), %rsi
 649      000000
 650 02ef BF000000 		movl	$response.4894, %edi
 650      00
 651 02f4 E8000000 		call	coap_set_payload
 651      00
 652              	.LVL93:
 653 02f9 EB46     		jmp	.L42
 654              	.L39:
GAS LISTING /tmp/ccj9abZH.s 			page 24


 364:/home/baikal/workspace/C50/Huawei_IoT_Agent_Tiny_SDK_Linux//lwm2m/core/packet.c ****                 {
 655              		.loc 1 364 0 is_stmt 1
 656 02fb 4D85ED   		testq	%r13, %r13
 657 02fe 7441     		je	.L42
 368:/home/baikal/workspace/C50/Huawei_IoT_Agent_Tiny_SDK_Linux//lwm2m/core/packet.c ****                     coap_set_payload(response, response->payload, MIN(response->payload_len, REST_M
 658              		.loc 1 368 0
 659 0300 B9800000 		movl	$128, %ecx
 659      00
 660 0305 BA010000 		movl	$1, %edx
 660      00
 661 030a BE000000 		movl	$0, %esi
 661      00
 662 030f BF000000 		movl	$response.4894, %edi
 662      00
 663 0314 E8000000 		call	coap_set_header_block2
 663      00
 664              	.LVL94:
 369:/home/baikal/workspace/C50/Huawei_IoT_Agent_Tiny_SDK_Linux//lwm2m/core/packet.c ****                 } /* if (blockwise request) */
 665              		.loc 1 369 0
 666 0319 0FB70500 		movzwl	response.4894+194(%rip), %eax
 666      000000
 667 0320 6683F87F 		cmpw	$127, %ax
 668 0324 7705     		ja	.L56
 369:/home/baikal/workspace/C50/Huawei_IoT_Agent_Tiny_SDK_Linux//lwm2m/core/packet.c ****                 } /* if (blockwise request) */
 669              		.loc 1 369 0 is_stmt 0 discriminator 1
 670 0326 0FB7D0   		movzwl	%ax, %edx
 671 0329 EB05     		jmp	.L44
 672              	.L56:
 369:/home/baikal/workspace/C50/Huawei_IoT_Agent_Tiny_SDK_Linux//lwm2m/core/packet.c ****                 } /* if (blockwise request) */
 673              		.loc 1 369 0
 674 032b BA800000 		movl	$128, %edx
 674      00
 675              	.L44:
 369:/home/baikal/workspace/C50/Huawei_IoT_Agent_Tiny_SDK_Linux//lwm2m/core/packet.c ****                 } /* if (blockwise request) */
 676              		.loc 1 369 0 discriminator 4
 677 0330 488B3500 		movq	response.4894+200(%rip), %rsi
 677      000000
 678 0337 BF000000 		movl	$response.4894, %edi
 678      00
 679 033c E8000000 		call	coap_set_payload
 679      00
 680              	.LVL95:
 681              	.L42:
 372:/home/baikal/workspace/C50/Huawei_IoT_Agent_Tiny_SDK_Linux//lwm2m/core/packet.c **** 
 682              		.loc 1 372 0 is_stmt 1
 683 0341 4C89E2   		movq	%r12, %rdx
 684 0344 BE000000 		movl	$response.4894, %esi
 684      00
 685 0349 4889EF   		movq	%rbp, %rdi
 686 034c E8000000 		call	message_send
 686      00
 687              	.LVL96:
 688 0351 89C3     		movl	%eax, %ebx
 689              	.LVL97:
 374:/home/baikal/workspace/C50/Huawei_IoT_Agent_Tiny_SDK_Linux//lwm2m/core/packet.c ****                 response->payload = NULL;
 690              		.loc 1 374 0
 691 0353 488B3D00 		movq	response.4894+200(%rip), %rdi
GAS LISTING /tmp/ccj9abZH.s 			page 25


 691      000000
 692 035a E8000000 		call	lwm2m_free
 692      00
 693              	.LVL98:
 375:/home/baikal/workspace/C50/Huawei_IoT_Agent_Tiny_SDK_Linux//lwm2m/core/packet.c ****                 response->payload_len = 0;
 694              		.loc 1 375 0
 695 035f 48C70500 		movq	$0, response.4894+200(%rip)
 695      00000000 
 695      000000
 376:/home/baikal/workspace/C50/Huawei_IoT_Agent_Tiny_SDK_Linux//lwm2m/core/packet.c ****             }
 696              		.loc 1 376 0
 697 036a 66C70500 		movw	$0, response.4894+194(%rip)
 697      00000000 
 697      00
 698 0373 E9E10000 		jmp	.L46
 698      00
 699              	.L38:
 378:/home/baikal/workspace/C50/Huawei_IoT_Agent_Tiny_SDK_Linux//lwm2m/core/packet.c ****             {
 700              		.loc 1 378 0
 701 0378 80FB01   		cmpb	$1, %bl
 702 037b 0F84D800 		je	.L46
 702      0000
 380:/home/baikal/workspace/C50/Huawei_IoT_Agent_Tiny_SDK_Linux//lwm2m/core/packet.c ****                 {
 703              		.loc 1 380 0
 704 0381 0FB6F3   		movzbl	%bl, %esi
 705 0384 BF000000 		movl	$response.4894, %edi
 705      00
 706 0389 E8000000 		call	coap_set_status_code
 706      00
 707              	.LVL99:
 708 038e 83F801   		cmpl	$1, %eax
 709 0391 0F85C200 		jne	.L46
 709      0000
 382:/home/baikal/workspace/C50/Huawei_IoT_Agent_Tiny_SDK_Linux//lwm2m/core/packet.c ****                 }
 710              		.loc 1 382 0
 711 0397 4C89E2   		movq	%r12, %rdx
 712 039a BE000000 		movl	$response.4894, %esi
 712      00
 713 039f 4889EF   		movq	%rbp, %rdi
 714 03a2 E8000000 		call	message_send
 714      00
 715              	.LVL100:
 716 03a7 89C3     		movl	%eax, %ebx
 717              	.LVL101:
 718 03a9 E9AB0000 		jmp	.L46
 718      00
 719              	.LVL102:
 720              	.L28:
 721              	.LBE3:
 389:/home/baikal/workspace/C50/Huawei_IoT_Agent_Tiny_SDK_Linux//lwm2m/core/packet.c ****             {
 722              		.loc 1 389 0
 723 03ae 8B050000 		movl	message.4893+12(%rip), %eax
 723      0000
 724 03b4 83F802   		cmpl	$2, %eax
 725 03b7 0F848700 		je	.L47
 725      0000
 726 03bd 83F802   		cmpl	$2, %eax
GAS LISTING /tmp/ccj9abZH.s 			page 26


 727 03c0 720A     		jb	.L48
 728 03c2 83F803   		cmpl	$3, %eax
 729 03c5 7456     		je	.L49
 730 03c7 E98D0000 		jmp	.L46
 730      00
 731              	.L48:
 732              	.LBB6:
 394:/home/baikal/workspace/C50/Huawei_IoT_Agent_Tiny_SDK_Linux//lwm2m/core/packet.c **** 
 733              		.loc 1 394 0
 734 03cc B9000000 		movl	$response.4894, %ecx
 734      00
 735 03d1 BA000000 		movl	$message.4893, %edx
 735      00
 736 03d6 4C89E6   		movq	%r12, %rsi
 737 03d9 4889EF   		movq	%rbp, %rdi
 738 03dc E8000000 		call	transaction_handleResponse
 738      00
 739              	.LVL103:
 403:/home/baikal/workspace/C50/Huawei_IoT_Agent_Tiny_SDK_Linux//lwm2m/core/packet.c ****                 {
 740              		.loc 1 403 0
 741 03e1 84C0     		testb	%al, %al
 742 03e3 7574     		jne	.L46
 403:/home/baikal/workspace/C50/Huawei_IoT_Agent_Tiny_SDK_Linux//lwm2m/core/packet.c ****                 {
 743              		.loc 1 403 0 is_stmt 0 discriminator 1
 744 03e5 833D0000 		cmpl	$0, message.4893+12(%rip)
 744      000000
 745 03ec 756B     		jne	.L46
 405:/home/baikal/workspace/C50/Huawei_IoT_Agent_Tiny_SDK_Linux//lwm2m/core/packet.c ****                     coap_error_code = message_send(contextP, response, fromSessionH);
 746              		.loc 1 405 0 is_stmt 1
 747 03ee 0FB70D00 		movzwl	message.4893+18(%rip), %ecx
 747      000000
 748 03f5 BA000000 		movl	$0, %edx
 748      00
 749 03fa BE020000 		movl	$2, %esi
 749      00
 750 03ff BF000000 		movl	$response.4894, %edi
 750      00
 751 0404 E8000000 		call	coap_init_message
 751      00
 752              	.LVL104:
 406:/home/baikal/workspace/C50/Huawei_IoT_Agent_Tiny_SDK_Linux//lwm2m/core/packet.c ****                 }
 753              		.loc 1 406 0
 754 0409 4C89E2   		movq	%r12, %rdx
 755 040c BE000000 		movl	$response.4894, %esi
 755      00
 756 0411 4889EF   		movq	%rbp, %rdi
 757 0414 E8000000 		call	message_send
 757      00
 758              	.LVL105:
 759 0419 89C3     		movl	%eax, %ebx
 760              	.LVL106:
 761 041b EB3C     		jmp	.L46
 762              	.LVL107:
 763              	.L49:
 764              	.LBE6:
 413:/home/baikal/workspace/C50/Huawei_IoT_Agent_Tiny_SDK_Linux//lwm2m/core/packet.c ****                 transaction_handleResponse(contextP, fromSessionH, message, NULL);
 765              		.loc 1 413 0
GAS LISTING /tmp/ccj9abZH.s 			page 27


 766 041d BA000000 		movl	$message.4893, %edx
 766      00
 767 0422 4C89E6   		movq	%r12, %rsi
 768 0425 4889EF   		movq	%rbp, %rdi
 769 0428 E8000000 		call	handle_reset
 769      00
 770              	.LVL108:
 414:/home/baikal/workspace/C50/Huawei_IoT_Agent_Tiny_SDK_Linux//lwm2m/core/packet.c ****                 break;
 771              		.loc 1 414 0
 772 042d B9000000 		movl	$0, %ecx
 772      00
 773 0432 BA000000 		movl	$message.4893, %edx
 773      00
 774 0437 4C89E6   		movq	%r12, %rsi
 775 043a 4889EF   		movq	%rbp, %rdi
 776 043d E8000000 		call	transaction_handleResponse
 776      00
 777              	.LVL109:
 415:/home/baikal/workspace/C50/Huawei_IoT_Agent_Tiny_SDK_Linux//lwm2m/core/packet.c **** 
 778              		.loc 1 415 0
 779 0442 EB15     		jmp	.L46
 780              	.L47:
 418:/home/baikal/workspace/C50/Huawei_IoT_Agent_Tiny_SDK_Linux//lwm2m/core/packet.c ****                 break;
 781              		.loc 1 418 0
 782 0444 B9000000 		movl	$0, %ecx
 782      00
 783 0449 BA000000 		movl	$message.4893, %edx
 783      00
 784 044e 4C89E6   		movq	%r12, %rsi
 785 0451 4889EF   		movq	%rbp, %rdi
 786 0454 E8000000 		call	transaction_handleResponse
 786      00
 787              	.LVL110:
 788              	.L46:
 425:/home/baikal/workspace/C50/Huawei_IoT_Agent_Tiny_SDK_Linux//lwm2m/core/packet.c ****     } /* if (parsed correctly) */
 789              		.loc 1 425 0
 790 0459 BF000000 		movl	$message.4893, %edi
 790      00
 791 045e E8000000 		call	coap_free_header
 791      00
 792              	.LVL111:
 793              	.L27:
 432:/home/baikal/workspace/C50/Huawei_IoT_Agent_Tiny_SDK_Linux//lwm2m/core/packet.c ****     {
 794              		.loc 1 432 0
 795 0463 80FB01   		cmpb	$1, %bl
 796 0466 765C     		jbe	.L26
 437:/home/baikal/workspace/C50/Huawei_IoT_Agent_Tiny_SDK_Linux//lwm2m/core/packet.c ****         {
 797              		.loc 1 437 0
 798 0468 80FBBF   		cmpb	$-65, %bl
 799 046b 7605     		jbe	.L51
 439:/home/baikal/workspace/C50/Huawei_IoT_Agent_Tiny_SDK_Linux//lwm2m/core/packet.c ****         }
 800              		.loc 1 439 0
 801 046d BBA0FFFF 		movl	$-96, %ebx
 801      FF
 802              	.LVL112:
 803              	.L51:
 442:/home/baikal/workspace/C50/Huawei_IoT_Agent_Tiny_SDK_Linux//lwm2m/core/packet.c ****         coap_set_payload(message, coap_error_message, strlen(coap_error_message));
GAS LISTING /tmp/ccj9abZH.s 			page 28


 804              		.loc 1 442 0
 805 0472 0FB70D00 		movzwl	message.4893+18(%rip), %ecx
 805      000000
 806 0479 0FB6D3   		movzbl	%bl, %edx
 807 047c BE020000 		movl	$2, %esi
 807      00
 808 0481 BF000000 		movl	$message.4893, %edi
 808      00
 809 0486 E8000000 		call	coap_init_message
 809      00
 810              	.LVL113:
 443:/home/baikal/workspace/C50/Huawei_IoT_Agent_Tiny_SDK_Linux//lwm2m/core/packet.c ****         message_send(contextP, message, fromSessionH);
 811              		.loc 1 443 0
 812 048b 488B3500 		movq	coap_error_message(%rip), %rsi
 812      000000
 813 0492 B8000000 		movl	$0, %eax
 813      00
 814 0497 48C7C1FF 		movq	$-1, %rcx
 814      FFFFFF
 815 049e 4889F7   		movq	%rsi, %rdi
 816 04a1 F2AE     		repnz scasb
 817 04a3 48F7D1   		notq	%rcx
 818 04a6 488D51FF 		leaq	-1(%rcx), %rdx
 819 04aa BF000000 		movl	$message.4893, %edi
 819      00
 820 04af E8000000 		call	coap_set_payload
 820      00
 821              	.LVL114:
 444:/home/baikal/workspace/C50/Huawei_IoT_Agent_Tiny_SDK_Linux//lwm2m/core/packet.c ****     }
 822              		.loc 1 444 0
 823 04b4 4C89E2   		movq	%r12, %rdx
 824 04b7 BE000000 		movl	$message.4893, %esi
 824      00
 825 04bc 4889EF   		movq	%rbp, %rdi
 826 04bf E8000000 		call	message_send
 826      00
 827              	.LVL115:
 828              	.L26:
 446:/home/baikal/workspace/C50/Huawei_IoT_Agent_Tiny_SDK_Linux//lwm2m/core/packet.c **** 
 829              		.loc 1 446 0
 830 04c4 4883C438 		addq	$56, %rsp
 831              	.LCFI32:
 832              		.cfi_def_cfa_offset 40
 833 04c8 5B       		popq	%rbx
 834              	.LCFI33:
 835              		.cfi_def_cfa_offset 32
 836              	.LVL116:
 837 04c9 5D       		popq	%rbp
 838              	.LCFI34:
 839              		.cfi_def_cfa_offset 24
 840              	.LVL117:
 841 04ca 415C     		popq	%r12
 842              	.LCFI35:
 843              		.cfi_def_cfa_offset 16
 844              	.LVL118:
 845 04cc 415D     		popq	%r13
 846              	.LCFI36:
GAS LISTING /tmp/ccj9abZH.s 			page 29


 847              		.cfi_def_cfa_offset 8
 848 04ce C3       		ret
 849              		.cfi_endproc
 850              	.LFE65:
 852              		.section	.bss.response.4894,"aw",@nobits
 853              		.align 32
 856              	response.4894:
 857 0000 00000000 		.zero	208
 857      00000000 
 857      00000000 
 857      00000000 
 857      00000000 
 858              		.section	.bss.message.4893,"aw",@nobits
 859              		.align 32
 862              	message.4893:
 863 0000 00000000 		.zero	208
 863      00000000 
 863      00000000 
 863      00000000 
 863      00000000 
 864              		.text
 865              	.Letext0:
 866              		.file 2 "/usr/include/stdint.h"
 867              		.file 3 "/usr/lib/gcc/x86_64-linux-gnu/5/include/stddef.h"
 868              		.file 4 "/usr/include/x86_64-linux-gnu/bits/types.h"
 869              		.file 5 "/usr/include/time.h"
 870              		.file 6 "/home/baikal/workspace/C50/Huawei_IoT_Agent_Tiny_SDK_Linux//lwm2m/core/er-coap-13/er-coap
 871              		.file 7 "/usr/include/libio.h"
 872              		.file 8 "/home/baikal/workspace/C50/Huawei_IoT_Agent_Tiny_SDK_Linux//lwm2m/core/liblwm2m.h"
 873              		.file 9 "/usr/include/stdio.h"
 874              		.file 10 "/home/baikal/workspace/C50/Huawei_IoT_Agent_Tiny_SDK_Linux//lwm2m/core/internals.h"
 875              		.file 11 "/home/baikal/workspace/C50/Huawei_IoT_Agent_Tiny_SDK_Linux//lwm2m/examples/shared/comman
GAS LISTING /tmp/ccj9abZH.s 			page 30

