GAS LISTING /tmp/ccLoXlbY.s 			page 1


   1              		.file	"platform_adapter.c"
   2              		.text
   3              	.Ltext0:
   4              		.section	.text.lwm2m_malloc,"ax",@progbits
   5              		.globl	lwm2m_malloc
   7              	lwm2m_malloc:
   8              	.LFB63:
   9              		.file 1 "/home/baikal/workspace/C50/Huawei_IoT_Agent_Tiny_SDK_Linux//agent_tiny/lwm2m_client/platf
   1:/home/baikal/workspace/C50/Huawei_IoT_Agent_Tiny_SDK_Linux//agent_tiny/lwm2m_client/platform_adapter.c **** /*----------------------------------------------------------------------------
   2:/home/baikal/workspace/C50/Huawei_IoT_Agent_Tiny_SDK_Linux//agent_tiny/lwm2m_client/platform_adapter.c ****  * Copyright (c) <2016-2018>, <Huawei Technologies Co., Ltd>
   3:/home/baikal/workspace/C50/Huawei_IoT_Agent_Tiny_SDK_Linux//agent_tiny/lwm2m_client/platform_adapter.c ****  * All rights reserved.
   4:/home/baikal/workspace/C50/Huawei_IoT_Agent_Tiny_SDK_Linux//agent_tiny/lwm2m_client/platform_adapter.c ****  * Redistribution and use in source and binary forms, with or without modification,
   5:/home/baikal/workspace/C50/Huawei_IoT_Agent_Tiny_SDK_Linux//agent_tiny/lwm2m_client/platform_adapter.c ****  * are permitted provided that the following conditions are met:
   6:/home/baikal/workspace/C50/Huawei_IoT_Agent_Tiny_SDK_Linux//agent_tiny/lwm2m_client/platform_adapter.c ****  * 1. Redistributions of source code must retain the above copyright notice, this list of
   7:/home/baikal/workspace/C50/Huawei_IoT_Agent_Tiny_SDK_Linux//agent_tiny/lwm2m_client/platform_adapter.c ****  * conditions and the following disclaimer.
   8:/home/baikal/workspace/C50/Huawei_IoT_Agent_Tiny_SDK_Linux//agent_tiny/lwm2m_client/platform_adapter.c ****  * 2. Redistributions in binary form must reproduce the above copyright notice, this list
   9:/home/baikal/workspace/C50/Huawei_IoT_Agent_Tiny_SDK_Linux//agent_tiny/lwm2m_client/platform_adapter.c ****  * of conditions and the following disclaimer in the documentation and/or other materials
  10:/home/baikal/workspace/C50/Huawei_IoT_Agent_Tiny_SDK_Linux//agent_tiny/lwm2m_client/platform_adapter.c ****  * provided with the distribution.
  11:/home/baikal/workspace/C50/Huawei_IoT_Agent_Tiny_SDK_Linux//agent_tiny/lwm2m_client/platform_adapter.c ****  * 3. Neither the name of the copyright holder nor the names of its contributors may be used
  12:/home/baikal/workspace/C50/Huawei_IoT_Agent_Tiny_SDK_Linux//agent_tiny/lwm2m_client/platform_adapter.c ****  * to endorse or promote products derived from this software without specific prior written
  13:/home/baikal/workspace/C50/Huawei_IoT_Agent_Tiny_SDK_Linux//agent_tiny/lwm2m_client/platform_adapter.c ****  * permission.
  14:/home/baikal/workspace/C50/Huawei_IoT_Agent_Tiny_SDK_Linux//agent_tiny/lwm2m_client/platform_adapter.c ****  * THIS SOFTWARE IS PROVIDED BY THE COPYRIGHT HOLDERS AND CONTRIBUTORS
  15:/home/baikal/workspace/C50/Huawei_IoT_Agent_Tiny_SDK_Linux//agent_tiny/lwm2m_client/platform_adapter.c ****  * "AS IS" AND ANY EXPRESS OR IMPLIED WARRANTIES, INCLUDING, BUT NOT LIMITED TO,
  16:/home/baikal/workspace/C50/Huawei_IoT_Agent_Tiny_SDK_Linux//agent_tiny/lwm2m_client/platform_adapter.c ****  * THE IMPLIED WARRANTIES OF MERCHANTABILITY AND FITNESS FOR A PARTICULAR
  17:/home/baikal/workspace/C50/Huawei_IoT_Agent_Tiny_SDK_Linux//agent_tiny/lwm2m_client/platform_adapter.c ****  * PURPOSE ARE DISCLAIMED. IN NO EVENT SHALL THE COPYRIGHT HOLDER OR
  18:/home/baikal/workspace/C50/Huawei_IoT_Agent_Tiny_SDK_Linux//agent_tiny/lwm2m_client/platform_adapter.c ****  * CONTRIBUTORS BE LIABLE FOR ANY DIRECT, INDIRECT, INCIDENTAL, SPECIAL,
  19:/home/baikal/workspace/C50/Huawei_IoT_Agent_Tiny_SDK_Linux//agent_tiny/lwm2m_client/platform_adapter.c ****  * EXEMPLARY, OR CONSEQUENTIAL DAMAGES (INCLUDING, BUT NOT LIMITED TO,
  20:/home/baikal/workspace/C50/Huawei_IoT_Agent_Tiny_SDK_Linux//agent_tiny/lwm2m_client/platform_adapter.c ****  * PROCUREMENT OF SUBSTITUTE GOODS OR SERVICES; LOSS OF USE, DATA, OR PROFITS;
  21:/home/baikal/workspace/C50/Huawei_IoT_Agent_Tiny_SDK_Linux//agent_tiny/lwm2m_client/platform_adapter.c ****  * OR BUSINESS INTERRUPTION) HOWEVER CAUSED AND ON ANY THEORY OF LIABILITY,
  22:/home/baikal/workspace/C50/Huawei_IoT_Agent_Tiny_SDK_Linux//agent_tiny/lwm2m_client/platform_adapter.c ****  * WHETHER IN CONTRACT, STRICT LIABILITY, OR TORT (INCLUDING NEGLIGENCE OR
  23:/home/baikal/workspace/C50/Huawei_IoT_Agent_Tiny_SDK_Linux//agent_tiny/lwm2m_client/platform_adapter.c ****  * OTHERWISE) ARISING IN ANY WAY OUT OF THE USE OF THIS SOFTWARE, EVEN IF
  24:/home/baikal/workspace/C50/Huawei_IoT_Agent_Tiny_SDK_Linux//agent_tiny/lwm2m_client/platform_adapter.c ****  * ADVISED OF THE POSSIBILITY OF SUCH DAMAGE.
  25:/home/baikal/workspace/C50/Huawei_IoT_Agent_Tiny_SDK_Linux//agent_tiny/lwm2m_client/platform_adapter.c ****  *---------------------------------------------------------------------------*/
  26:/home/baikal/workspace/C50/Huawei_IoT_Agent_Tiny_SDK_Linux//agent_tiny/lwm2m_client/platform_adapter.c **** /*----------------------------------------------------------------------------
  27:/home/baikal/workspace/C50/Huawei_IoT_Agent_Tiny_SDK_Linux//agent_tiny/lwm2m_client/platform_adapter.c ****  * Notice of Export Control Law
  28:/home/baikal/workspace/C50/Huawei_IoT_Agent_Tiny_SDK_Linux//agent_tiny/lwm2m_client/platform_adapter.c ****  * ===============================================
  29:/home/baikal/workspace/C50/Huawei_IoT_Agent_Tiny_SDK_Linux//agent_tiny/lwm2m_client/platform_adapter.c ****  * Huawei LiteOS may be subject to applicable export control laws and regulations, which might
  30:/home/baikal/workspace/C50/Huawei_IoT_Agent_Tiny_SDK_Linux//agent_tiny/lwm2m_client/platform_adapter.c ****  * include those applicable to Huawei LiteOS of U.S. and the country in which you are located.
  31:/home/baikal/workspace/C50/Huawei_IoT_Agent_Tiny_SDK_Linux//agent_tiny/lwm2m_client/platform_adapter.c ****  * Import, export and usage of Huawei LiteOS in any manner by you shall be in compliance with such
  32:/home/baikal/workspace/C50/Huawei_IoT_Agent_Tiny_SDK_Linux//agent_tiny/lwm2m_client/platform_adapter.c ****  * applicable export control laws and regulations.
  33:/home/baikal/workspace/C50/Huawei_IoT_Agent_Tiny_SDK_Linux//agent_tiny/lwm2m_client/platform_adapter.c ****  *---------------------------------------------------------------------------*/
  34:/home/baikal/workspace/C50/Huawei_IoT_Agent_Tiny_SDK_Linux//agent_tiny/lwm2m_client/platform_adapter.c **** 
  35:/home/baikal/workspace/C50/Huawei_IoT_Agent_Tiny_SDK_Linux//agent_tiny/lwm2m_client/platform_adapter.c **** /*******************************************************************************
  36:/home/baikal/workspace/C50/Huawei_IoT_Agent_Tiny_SDK_Linux//agent_tiny/lwm2m_client/platform_adapter.c ****  *
  37:/home/baikal/workspace/C50/Huawei_IoT_Agent_Tiny_SDK_Linux//agent_tiny/lwm2m_client/platform_adapter.c ****  * Copyright (c) 2013, 2014, 2015 Intel Corporation and others.
  38:/home/baikal/workspace/C50/Huawei_IoT_Agent_Tiny_SDK_Linux//agent_tiny/lwm2m_client/platform_adapter.c ****  * All rights reserved. This program and the accompanying materials
  39:/home/baikal/workspace/C50/Huawei_IoT_Agent_Tiny_SDK_Linux//agent_tiny/lwm2m_client/platform_adapter.c ****  * are made available under the terms of the Eclipse Public License v1.0
  40:/home/baikal/workspace/C50/Huawei_IoT_Agent_Tiny_SDK_Linux//agent_tiny/lwm2m_client/platform_adapter.c ****  * and Eclipse Distribution License v1.0 which accompany this distribution.
  41:/home/baikal/workspace/C50/Huawei_IoT_Agent_Tiny_SDK_Linux//agent_tiny/lwm2m_client/platform_adapter.c ****  *
  42:/home/baikal/workspace/C50/Huawei_IoT_Agent_Tiny_SDK_Linux//agent_tiny/lwm2m_client/platform_adapter.c ****  * The Eclipse Public License is available at
  43:/home/baikal/workspace/C50/Huawei_IoT_Agent_Tiny_SDK_Linux//agent_tiny/lwm2m_client/platform_adapter.c ****  *    http://www.eclipse.org/legal/epl-v10.html
  44:/home/baikal/workspace/C50/Huawei_IoT_Agent_Tiny_SDK_Linux//agent_tiny/lwm2m_client/platform_adapter.c ****  * The Eclipse Distribution License is available at
  45:/home/baikal/workspace/C50/Huawei_IoT_Agent_Tiny_SDK_Linux//agent_tiny/lwm2m_client/platform_adapter.c ****  *    http://www.eclipse.org/org/documents/edl-v10.php.
  46:/home/baikal/workspace/C50/Huawei_IoT_Agent_Tiny_SDK_Linux//agent_tiny/lwm2m_client/platform_adapter.c ****  *
  47:/home/baikal/workspace/C50/Huawei_IoT_Agent_Tiny_SDK_Linux//agent_tiny/lwm2m_client/platform_adapter.c ****  * Contributors:
  48:/home/baikal/workspace/C50/Huawei_IoT_Agent_Tiny_SDK_Linux//agent_tiny/lwm2m_client/platform_adapter.c ****  *    David Navarro, Intel Corporation - initial API and implementation
  49:/home/baikal/workspace/C50/Huawei_IoT_Agent_Tiny_SDK_Linux//agent_tiny/lwm2m_client/platform_adapter.c ****  *******************************************************************************/
GAS LISTING /tmp/ccLoXlbY.s 			page 2


  50:/home/baikal/workspace/C50/Huawei_IoT_Agent_Tiny_SDK_Linux//agent_tiny/lwm2m_client/platform_adapter.c **** 
  51:/home/baikal/workspace/C50/Huawei_IoT_Agent_Tiny_SDK_Linux//agent_tiny/lwm2m_client/platform_adapter.c **** #include <stdarg.h>
  52:/home/baikal/workspace/C50/Huawei_IoT_Agent_Tiny_SDK_Linux//agent_tiny/lwm2m_client/platform_adapter.c **** 
  53:/home/baikal/workspace/C50/Huawei_IoT_Agent_Tiny_SDK_Linux//agent_tiny/lwm2m_client/platform_adapter.c **** #include "internals.h"
  54:/home/baikal/workspace/C50/Huawei_IoT_Agent_Tiny_SDK_Linux//agent_tiny/lwm2m_client/platform_adapter.c **** #include "atiny_adapter.h"
  55:/home/baikal/workspace/C50/Huawei_IoT_Agent_Tiny_SDK_Linux//agent_tiny/lwm2m_client/platform_adapter.c **** 
  56:/home/baikal/workspace/C50/Huawei_IoT_Agent_Tiny_SDK_Linux//agent_tiny/lwm2m_client/platform_adapter.c **** #ifndef LWM2M_MEMORY_TRACE
  57:/home/baikal/workspace/C50/Huawei_IoT_Agent_Tiny_SDK_Linux//agent_tiny/lwm2m_client/platform_adapter.c **** 
  58:/home/baikal/workspace/C50/Huawei_IoT_Agent_Tiny_SDK_Linux//agent_tiny/lwm2m_client/platform_adapter.c **** void *lwm2m_malloc(size_t s)
  59:/home/baikal/workspace/C50/Huawei_IoT_Agent_Tiny_SDK_Linux//agent_tiny/lwm2m_client/platform_adapter.c **** {
  10              		.loc 1 59 0
  11              		.cfi_startproc
  12              	.LVL0:
  13 0000 4883EC08 		subq	$8, %rsp
  14              	.LCFI0:
  15              		.cfi_def_cfa_offset 16
  16              	.LVL1:
  60:/home/baikal/workspace/C50/Huawei_IoT_Agent_Tiny_SDK_Linux//agent_tiny/lwm2m_client/platform_adapter.c ****     void *mem = NULL;
  61:/home/baikal/workspace/C50/Huawei_IoT_Agent_Tiny_SDK_Linux//agent_tiny/lwm2m_client/platform_adapter.c ****     mem = atiny_malloc(s);
  17              		.loc 1 61 0
  18 0004 E8000000 		call	atiny_malloc
  18      00
  19              	.LVL2:
  62:/home/baikal/workspace/C50/Huawei_IoT_Agent_Tiny_SDK_Linux//agent_tiny/lwm2m_client/platform_adapter.c ****     return mem;
  63:/home/baikal/workspace/C50/Huawei_IoT_Agent_Tiny_SDK_Linux//agent_tiny/lwm2m_client/platform_adapter.c **** }
  20              		.loc 1 63 0
  21 0009 4883C408 		addq	$8, %rsp
  22              	.LCFI1:
  23              		.cfi_def_cfa_offset 8
  24 000d C3       		ret
  25              		.cfi_endproc
  26              	.LFE63:
  28              		.section	.text.lwm2m_free,"ax",@progbits
  29              		.globl	lwm2m_free
  31              	lwm2m_free:
  32              	.LFB64:
  64:/home/baikal/workspace/C50/Huawei_IoT_Agent_Tiny_SDK_Linux//agent_tiny/lwm2m_client/platform_adapter.c **** 
  65:/home/baikal/workspace/C50/Huawei_IoT_Agent_Tiny_SDK_Linux//agent_tiny/lwm2m_client/platform_adapter.c **** void lwm2m_free(void *p)
  66:/home/baikal/workspace/C50/Huawei_IoT_Agent_Tiny_SDK_Linux//agent_tiny/lwm2m_client/platform_adapter.c **** {
  33              		.loc 1 66 0
  34              		.cfi_startproc
  35              	.LVL3:
  67:/home/baikal/workspace/C50/Huawei_IoT_Agent_Tiny_SDK_Linux//agent_tiny/lwm2m_client/platform_adapter.c ****     if(NULL != p)
  36              		.loc 1 67 0
  37 0000 4885FF   		testq	%rdi, %rdi
  38 0003 740D     		je	.L7
  66:/home/baikal/workspace/C50/Huawei_IoT_Agent_Tiny_SDK_Linux//agent_tiny/lwm2m_client/platform_adapter.c ****     if(NULL != p)
  39              		.loc 1 66 0
  40 0005 4883EC08 		subq	$8, %rsp
  41              	.LCFI2:
  42              		.cfi_def_cfa_offset 16
  68:/home/baikal/workspace/C50/Huawei_IoT_Agent_Tiny_SDK_Linux//agent_tiny/lwm2m_client/platform_adapter.c ****         atiny_free(p);
  43              		.loc 1 68 0
  44 0009 E8000000 		call	atiny_free
  44      00
  45              	.LVL4:
  69:/home/baikal/workspace/C50/Huawei_IoT_Agent_Tiny_SDK_Linux//agent_tiny/lwm2m_client/platform_adapter.c **** }
GAS LISTING /tmp/ccLoXlbY.s 			page 3


  46              		.loc 1 69 0
  47 000e 4883C408 		addq	$8, %rsp
  48              	.LCFI3:
  49              		.cfi_def_cfa_offset 8
  50              	.L7:
  51 0012 F3C3     		rep ret
  52              		.cfi_endproc
  53              	.LFE64:
  55              		.section	.text.lwm2m_strdup,"ax",@progbits
  56              		.globl	lwm2m_strdup
  58              	lwm2m_strdup:
  59              	.LFB65:
  70:/home/baikal/workspace/C50/Huawei_IoT_Agent_Tiny_SDK_Linux//agent_tiny/lwm2m_client/platform_adapter.c **** 
  71:/home/baikal/workspace/C50/Huawei_IoT_Agent_Tiny_SDK_Linux//agent_tiny/lwm2m_client/platform_adapter.c **** 
  72:/home/baikal/workspace/C50/Huawei_IoT_Agent_Tiny_SDK_Linux//agent_tiny/lwm2m_client/platform_adapter.c **** char *lwm2m_strdup(const char *str)
  73:/home/baikal/workspace/C50/Huawei_IoT_Agent_Tiny_SDK_Linux//agent_tiny/lwm2m_client/platform_adapter.c **** {
  60              		.loc 1 73 0
  61              		.cfi_startproc
  62              	.LVL5:
  63 0000 55       		pushq	%rbp
  64              	.LCFI4:
  65              		.cfi_def_cfa_offset 16
  66              		.cfi_offset 6, -16
  67 0001 53       		pushq	%rbx
  68              	.LCFI5:
  69              		.cfi_def_cfa_offset 24
  70              		.cfi_offset 3, -24
  71 0002 4883EC08 		subq	$8, %rsp
  72              	.LCFI6:
  73              		.cfi_def_cfa_offset 32
  74 0006 4889FD   		movq	%rdi, %rbp
  74:/home/baikal/workspace/C50/Huawei_IoT_Agent_Tiny_SDK_Linux//agent_tiny/lwm2m_client/platform_adapter.c ****     int len = strlen(str) + 1;
  75              		.loc 1 74 0
  76 0009 B8000000 		movl	$0, %eax
  76      00
  77 000e 48C7C1FF 		movq	$-1, %rcx
  77      FFFFFF
  78 0015 F2AE     		repnz scasb
  79              	.LVL6:
  80 0017 F7D1     		notl	%ecx
  81              	.LVL7:
  75:/home/baikal/workspace/C50/Huawei_IoT_Agent_Tiny_SDK_Linux//agent_tiny/lwm2m_client/platform_adapter.c ****     void *new = lwm2m_malloc(len);
  82              		.loc 1 75 0
  83 0019 4863D9   		movslq	%ecx, %rbx
  84 001c 4889DF   		movq	%rbx, %rdi
  85 001f E8000000 		call	lwm2m_malloc
  85      00
  86              	.LVL8:
  76:/home/baikal/workspace/C50/Huawei_IoT_Agent_Tiny_SDK_Linux//agent_tiny/lwm2m_client/platform_adapter.c ****     if (new == NULL)
  87              		.loc 1 76 0
  88 0024 4885C0   		testq	%rax, %rax
  89 0027 7410     		je	.L10
  90              	.LVL9:
  91              	.LBB4:
  92              	.LBB5:
  93              		.file 2 "/usr/include/x86_64-linux-gnu/bits/string3.h"
   1:/usr/include/x86_64-linux-gnu/bits/string3.h **** /* Copyright (C) 2004-2016 Free Software Foundation, Inc.
GAS LISTING /tmp/ccLoXlbY.s 			page 4


   2:/usr/include/x86_64-linux-gnu/bits/string3.h ****    This file is part of the GNU C Library.
   3:/usr/include/x86_64-linux-gnu/bits/string3.h **** 
   4:/usr/include/x86_64-linux-gnu/bits/string3.h ****    The GNU C Library is free software; you can redistribute it and/or
   5:/usr/include/x86_64-linux-gnu/bits/string3.h ****    modify it under the terms of the GNU Lesser General Public
   6:/usr/include/x86_64-linux-gnu/bits/string3.h ****    License as published by the Free Software Foundation; either
   7:/usr/include/x86_64-linux-gnu/bits/string3.h ****    version 2.1 of the License, or (at your option) any later version.
   8:/usr/include/x86_64-linux-gnu/bits/string3.h **** 
   9:/usr/include/x86_64-linux-gnu/bits/string3.h ****    The GNU C Library is distributed in the hope that it will be useful,
  10:/usr/include/x86_64-linux-gnu/bits/string3.h ****    but WITHOUT ANY WARRANTY; without even the implied warranty of
  11:/usr/include/x86_64-linux-gnu/bits/string3.h ****    MERCHANTABILITY or FITNESS FOR A PARTICULAR PURPOSE.  See the GNU
  12:/usr/include/x86_64-linux-gnu/bits/string3.h ****    Lesser General Public License for more details.
  13:/usr/include/x86_64-linux-gnu/bits/string3.h **** 
  14:/usr/include/x86_64-linux-gnu/bits/string3.h ****    You should have received a copy of the GNU Lesser General Public
  15:/usr/include/x86_64-linux-gnu/bits/string3.h ****    License along with the GNU C Library; if not, see
  16:/usr/include/x86_64-linux-gnu/bits/string3.h ****    <http://www.gnu.org/licenses/>.  */
  17:/usr/include/x86_64-linux-gnu/bits/string3.h **** 
  18:/usr/include/x86_64-linux-gnu/bits/string3.h **** #ifndef _STRING_H
  19:/usr/include/x86_64-linux-gnu/bits/string3.h **** # error "Never use <bits/string3.h> directly; include <string.h> instead."
  20:/usr/include/x86_64-linux-gnu/bits/string3.h **** #endif
  21:/usr/include/x86_64-linux-gnu/bits/string3.h **** 
  22:/usr/include/x86_64-linux-gnu/bits/string3.h **** #if !__GNUC_PREREQ (5,0)
  23:/usr/include/x86_64-linux-gnu/bits/string3.h **** __warndecl (__warn_memset_zero_len,
  24:/usr/include/x86_64-linux-gnu/bits/string3.h **** 	    "memset used with constant zero length parameter; this could be due to transposed parameters")
  25:/usr/include/x86_64-linux-gnu/bits/string3.h **** #endif
  26:/usr/include/x86_64-linux-gnu/bits/string3.h **** 
  27:/usr/include/x86_64-linux-gnu/bits/string3.h **** #ifndef __cplusplus
  28:/usr/include/x86_64-linux-gnu/bits/string3.h **** /* XXX This is temporarily.  We should not redefine any of the symbols
  29:/usr/include/x86_64-linux-gnu/bits/string3.h ****    and instead integrate the error checking into the original
  30:/usr/include/x86_64-linux-gnu/bits/string3.h ****    definitions.  */
  31:/usr/include/x86_64-linux-gnu/bits/string3.h **** # undef memcpy
  32:/usr/include/x86_64-linux-gnu/bits/string3.h **** # undef memmove
  33:/usr/include/x86_64-linux-gnu/bits/string3.h **** # undef memset
  34:/usr/include/x86_64-linux-gnu/bits/string3.h **** # undef strcat
  35:/usr/include/x86_64-linux-gnu/bits/string3.h **** # undef strcpy
  36:/usr/include/x86_64-linux-gnu/bits/string3.h **** # undef strncat
  37:/usr/include/x86_64-linux-gnu/bits/string3.h **** # undef strncpy
  38:/usr/include/x86_64-linux-gnu/bits/string3.h **** # ifdef __USE_GNU
  39:/usr/include/x86_64-linux-gnu/bits/string3.h **** #  undef mempcpy
  40:/usr/include/x86_64-linux-gnu/bits/string3.h **** #  undef stpcpy
  41:/usr/include/x86_64-linux-gnu/bits/string3.h **** # endif
  42:/usr/include/x86_64-linux-gnu/bits/string3.h **** # ifdef __USE_MISC
  43:/usr/include/x86_64-linux-gnu/bits/string3.h **** #  undef bcopy
  44:/usr/include/x86_64-linux-gnu/bits/string3.h **** #  undef bzero
  45:/usr/include/x86_64-linux-gnu/bits/string3.h **** # endif
  46:/usr/include/x86_64-linux-gnu/bits/string3.h **** #endif
  47:/usr/include/x86_64-linux-gnu/bits/string3.h **** 
  48:/usr/include/x86_64-linux-gnu/bits/string3.h **** 
  49:/usr/include/x86_64-linux-gnu/bits/string3.h **** __fortify_function void *
  50:/usr/include/x86_64-linux-gnu/bits/string3.h **** __NTH (memcpy (void *__restrict __dest, const void *__restrict __src,
  51:/usr/include/x86_64-linux-gnu/bits/string3.h **** 	       size_t __len))
  52:/usr/include/x86_64-linux-gnu/bits/string3.h **** {
  53:/usr/include/x86_64-linux-gnu/bits/string3.h ****   return __builtin___memcpy_chk (__dest, __src, __len, __bos0 (__dest));
  94              		.loc 2 53 0
  95 0029 4889DA   		movq	%rbx, %rdx
  96 002c 4889EE   		movq	%rbp, %rsi
  97 002f 4889C7   		movq	%rax, %rdi
  98 0032 E8000000 		call	memcpy
GAS LISTING /tmp/ccLoXlbY.s 			page 5


  98      00
  99              	.LVL10:
 100              	.LBE5:
 101              	.LBE4:
  77:/home/baikal/workspace/C50/Huawei_IoT_Agent_Tiny_SDK_Linux//agent_tiny/lwm2m_client/platform_adapter.c ****         return NULL;
  78:/home/baikal/workspace/C50/Huawei_IoT_Agent_Tiny_SDK_Linux//agent_tiny/lwm2m_client/platform_adapter.c ****     return (char *)memcpy(new, str, len);
 102              		.loc 1 78 0
 103 0037 EB05     		jmp	.L9
 104              	.LVL11:
 105              	.L10:
  77:/home/baikal/workspace/C50/Huawei_IoT_Agent_Tiny_SDK_Linux//agent_tiny/lwm2m_client/platform_adapter.c ****         return NULL;
 106              		.loc 1 77 0
 107 0039 B8000000 		movl	$0, %eax
 107      00
 108              	.LVL12:
 109              	.L9:
  79:/home/baikal/workspace/C50/Huawei_IoT_Agent_Tiny_SDK_Linux//agent_tiny/lwm2m_client/platform_adapter.c **** 
  80:/home/baikal/workspace/C50/Huawei_IoT_Agent_Tiny_SDK_Linux//agent_tiny/lwm2m_client/platform_adapter.c **** }
 110              		.loc 1 80 0
 111 003e 4883C408 		addq	$8, %rsp
 112              	.LCFI7:
 113              		.cfi_def_cfa_offset 24
 114 0042 5B       		popq	%rbx
 115              	.LCFI8:
 116              		.cfi_def_cfa_offset 16
 117              	.LVL13:
 118 0043 5D       		popq	%rbp
 119              	.LCFI9:
 120              		.cfi_def_cfa_offset 8
 121 0044 C3       		ret
 122              		.cfi_endproc
 123              	.LFE65:
 125              		.section	.text.lwm2m_strncmp,"ax",@progbits
 126              		.globl	lwm2m_strncmp
 128              	lwm2m_strncmp:
 129              	.LFB66:
  81:/home/baikal/workspace/C50/Huawei_IoT_Agent_Tiny_SDK_Linux//agent_tiny/lwm2m_client/platform_adapter.c **** 
  82:/home/baikal/workspace/C50/Huawei_IoT_Agent_Tiny_SDK_Linux//agent_tiny/lwm2m_client/platform_adapter.c **** #endif
  83:/home/baikal/workspace/C50/Huawei_IoT_Agent_Tiny_SDK_Linux//agent_tiny/lwm2m_client/platform_adapter.c **** 
  84:/home/baikal/workspace/C50/Huawei_IoT_Agent_Tiny_SDK_Linux//agent_tiny/lwm2m_client/platform_adapter.c **** int lwm2m_strncmp(const char *s1,
  85:/home/baikal/workspace/C50/Huawei_IoT_Agent_Tiny_SDK_Linux//agent_tiny/lwm2m_client/platform_adapter.c ****                   const char *s2,
  86:/home/baikal/workspace/C50/Huawei_IoT_Agent_Tiny_SDK_Linux//agent_tiny/lwm2m_client/platform_adapter.c ****                   size_t n)
  87:/home/baikal/workspace/C50/Huawei_IoT_Agent_Tiny_SDK_Linux//agent_tiny/lwm2m_client/platform_adapter.c **** {
 130              		.loc 1 87 0
 131              		.cfi_startproc
 132              	.LVL14:
 133 0000 4883EC08 		subq	$8, %rsp
 134              	.LCFI10:
 135              		.cfi_def_cfa_offset 16
  88:/home/baikal/workspace/C50/Huawei_IoT_Agent_Tiny_SDK_Linux//agent_tiny/lwm2m_client/platform_adapter.c ****     return strncmp(s1, s2, n);
 136              		.loc 1 88 0
 137 0004 E8000000 		call	strncmp
 137      00
 138              	.LVL15:
  89:/home/baikal/workspace/C50/Huawei_IoT_Agent_Tiny_SDK_Linux//agent_tiny/lwm2m_client/platform_adapter.c **** }
 139              		.loc 1 89 0
 140 0009 4883C408 		addq	$8, %rsp
GAS LISTING /tmp/ccLoXlbY.s 			page 6


 141              	.LCFI11:
 142              		.cfi_def_cfa_offset 8
 143 000d C3       		ret
 144              		.cfi_endproc
 145              	.LFE66:
 147              		.section	.text.lwm2m_gettime,"ax",@progbits
 148              		.globl	lwm2m_gettime
 150              	lwm2m_gettime:
 151              	.LFB67:
  90:/home/baikal/workspace/C50/Huawei_IoT_Agent_Tiny_SDK_Linux//agent_tiny/lwm2m_client/platform_adapter.c **** 
  91:/home/baikal/workspace/C50/Huawei_IoT_Agent_Tiny_SDK_Linux//agent_tiny/lwm2m_client/platform_adapter.c **** time_t lwm2m_gettime(void)
  92:/home/baikal/workspace/C50/Huawei_IoT_Agent_Tiny_SDK_Linux//agent_tiny/lwm2m_client/platform_adapter.c **** {
 152              		.loc 1 92 0
 153              		.cfi_startproc
 154 0000 4883EC08 		subq	$8, %rsp
 155              	.LCFI12:
 156              		.cfi_def_cfa_offset 16
  93:/home/baikal/workspace/C50/Huawei_IoT_Agent_Tiny_SDK_Linux//agent_tiny/lwm2m_client/platform_adapter.c ****     return (uint32_t)(atiny_gettime_ms() / 1000);
 157              		.loc 1 93 0
 158 0004 E8000000 		call	atiny_gettime_ms
 158      00
 159              	.LVL16:
 160 0009 48C1E803 		shrq	$3, %rax
 161 000d 48B9CFF7 		movabsq	$2361183241434822607, %rcx
 161      53E3A59B 
 161      C420
 162 0017 48F7E1   		mulq	%rcx
 163 001a 48C1EA04 		shrq	$4, %rdx
 164 001e 89D0     		movl	%edx, %eax
  94:/home/baikal/workspace/C50/Huawei_IoT_Agent_Tiny_SDK_Linux//agent_tiny/lwm2m_client/platform_adapter.c **** }
 165              		.loc 1 94 0
 166 0020 4883C408 		addq	$8, %rsp
 167              	.LCFI13:
 168              		.cfi_def_cfa_offset 8
 169 0024 C3       		ret
 170              		.cfi_endproc
 171              	.LFE67:
 173              		.section	.text.lwm2m_rand,"ax",@progbits
 174              		.globl	lwm2m_rand
 176              	lwm2m_rand:
 177              	.LFB68:
  95:/home/baikal/workspace/C50/Huawei_IoT_Agent_Tiny_SDK_Linux//agent_tiny/lwm2m_client/platform_adapter.c **** 
  96:/home/baikal/workspace/C50/Huawei_IoT_Agent_Tiny_SDK_Linux//agent_tiny/lwm2m_client/platform_adapter.c **** int lwm2m_rand(void *output, size_t len)
  97:/home/baikal/workspace/C50/Huawei_IoT_Agent_Tiny_SDK_Linux//agent_tiny/lwm2m_client/platform_adapter.c **** {
 178              		.loc 1 97 0
 179              		.cfi_startproc
 180              	.LVL17:
 181 0000 4883EC08 		subq	$8, %rsp
 182              	.LCFI14:
 183              		.cfi_def_cfa_offset 16
  98:/home/baikal/workspace/C50/Huawei_IoT_Agent_Tiny_SDK_Linux//agent_tiny/lwm2m_client/platform_adapter.c ****     return atiny_random(output, len);
 184              		.loc 1 98 0
 185 0004 E8000000 		call	atiny_random
 185      00
 186              	.LVL18:
  99:/home/baikal/workspace/C50/Huawei_IoT_Agent_Tiny_SDK_Linux//agent_tiny/lwm2m_client/platform_adapter.c **** }
 187              		.loc 1 99 0
GAS LISTING /tmp/ccLoXlbY.s 			page 7


 188 0009 4883C408 		addq	$8, %rsp
 189              	.LCFI15:
 190              		.cfi_def_cfa_offset 8
 191 000d C3       		ret
 192              		.cfi_endproc
 193              	.LFE68:
 195              		.text
 196              	.Letext0:
 197              		.file 3 "/usr/include/stdint.h"
 198              		.file 4 "/usr/lib/gcc/x86_64-linux-gnu/5/include/stddef.h"
 199              		.file 5 "/usr/include/x86_64-linux-gnu/bits/types.h"
 200              		.file 6 "/usr/include/time.h"
 201              		.file 7 "/usr/include/libio.h"
 202              		.file 8 "/usr/include/stdio.h"
 203              		.file 9 "/home/baikal/workspace/C50/Huawei_IoT_Agent_Tiny_SDK_Linux//agent_tiny/osadapter/atiny_ad
 204              		.file 10 "/usr/include/string.h"
GAS LISTING /tmp/ccLoXlbY.s 			page 8

