GAS LISTING /tmp/ccTnshMj.s 			page 1


   1              		.file	"registration.c"
   2              		.text
   3              	.Ltext0:
   4              		.section	.text.prv_handleDeregistrationReply,"ax",@progbits
   6              	prv_handleDeregistrationReply:
   7              	.LFB72:
   8              		.file 1 "/home/baikal/workspace/C50/Huawei_IoT_Agent_Tiny_SDK_Linux//lwm2m/core/registration.c"
   1:/home/baikal/workspace/C50/Huawei_IoT_Agent_Tiny_SDK_Linux//lwm2m/core/registration.c **** /*----------------------------------------------------------------------------
   2:/home/baikal/workspace/C50/Huawei_IoT_Agent_Tiny_SDK_Linux//lwm2m/core/registration.c ****  * Copyright (c) <2016-2018>, <Huawei Technologies Co., Ltd>
   3:/home/baikal/workspace/C50/Huawei_IoT_Agent_Tiny_SDK_Linux//lwm2m/core/registration.c ****  * All rights reserved.
   4:/home/baikal/workspace/C50/Huawei_IoT_Agent_Tiny_SDK_Linux//lwm2m/core/registration.c ****  * Redistribution and use in source and binary forms, with or without modification,
   5:/home/baikal/workspace/C50/Huawei_IoT_Agent_Tiny_SDK_Linux//lwm2m/core/registration.c ****  * are permitted provided that the following conditions are met:
   6:/home/baikal/workspace/C50/Huawei_IoT_Agent_Tiny_SDK_Linux//lwm2m/core/registration.c ****  * 1. Redistributions of source code must retain the above copyright notice, this list of
   7:/home/baikal/workspace/C50/Huawei_IoT_Agent_Tiny_SDK_Linux//lwm2m/core/registration.c ****  * conditions and the following disclaimer.
   8:/home/baikal/workspace/C50/Huawei_IoT_Agent_Tiny_SDK_Linux//lwm2m/core/registration.c ****  * 2. Redistributions in binary form must reproduce the above copyright notice, this list
   9:/home/baikal/workspace/C50/Huawei_IoT_Agent_Tiny_SDK_Linux//lwm2m/core/registration.c ****  * of conditions and the following disclaimer in the documentation and/or other materials
  10:/home/baikal/workspace/C50/Huawei_IoT_Agent_Tiny_SDK_Linux//lwm2m/core/registration.c ****  * provided with the distribution.
  11:/home/baikal/workspace/C50/Huawei_IoT_Agent_Tiny_SDK_Linux//lwm2m/core/registration.c ****  * 3. Neither the name of the copyright holder nor the names of its contributors may be used
  12:/home/baikal/workspace/C50/Huawei_IoT_Agent_Tiny_SDK_Linux//lwm2m/core/registration.c ****  * to endorse or promote products derived from this software without specific prior written
  13:/home/baikal/workspace/C50/Huawei_IoT_Agent_Tiny_SDK_Linux//lwm2m/core/registration.c ****  * permission.
  14:/home/baikal/workspace/C50/Huawei_IoT_Agent_Tiny_SDK_Linux//lwm2m/core/registration.c ****  * THIS SOFTWARE IS PROVIDED BY THE COPYRIGHT HOLDERS AND CONTRIBUTORS
  15:/home/baikal/workspace/C50/Huawei_IoT_Agent_Tiny_SDK_Linux//lwm2m/core/registration.c ****  * "AS IS" AND ANY EXPRESS OR IMPLIED WARRANTIES, INCLUDING, BUT NOT LIMITED TO,
  16:/home/baikal/workspace/C50/Huawei_IoT_Agent_Tiny_SDK_Linux//lwm2m/core/registration.c ****  * THE IMPLIED WARRANTIES OF MERCHANTABILITY AND FITNESS FOR A PARTICULAR
  17:/home/baikal/workspace/C50/Huawei_IoT_Agent_Tiny_SDK_Linux//lwm2m/core/registration.c ****  * PURPOSE ARE DISCLAIMED. IN NO EVENT SHALL THE COPYRIGHT HOLDER OR
  18:/home/baikal/workspace/C50/Huawei_IoT_Agent_Tiny_SDK_Linux//lwm2m/core/registration.c ****  * CONTRIBUTORS BE LIABLE FOR ANY DIRECT, INDIRECT, INCIDENTAL, SPECIAL,
  19:/home/baikal/workspace/C50/Huawei_IoT_Agent_Tiny_SDK_Linux//lwm2m/core/registration.c ****  * EXEMPLARY, OR CONSEQUENTIAL DAMAGES (INCLUDING, BUT NOT LIMITED TO,
  20:/home/baikal/workspace/C50/Huawei_IoT_Agent_Tiny_SDK_Linux//lwm2m/core/registration.c ****  * PROCUREMENT OF SUBSTITUTE GOODS OR SERVICES; LOSS OF USE, DATA, OR PROFITS;
  21:/home/baikal/workspace/C50/Huawei_IoT_Agent_Tiny_SDK_Linux//lwm2m/core/registration.c ****  * OR BUSINESS INTERRUPTION) HOWEVER CAUSED AND ON ANY THEORY OF LIABILITY,
  22:/home/baikal/workspace/C50/Huawei_IoT_Agent_Tiny_SDK_Linux//lwm2m/core/registration.c ****  * WHETHER IN CONTRACT, STRICT LIABILITY, OR TORT (INCLUDING NEGLIGENCE OR
  23:/home/baikal/workspace/C50/Huawei_IoT_Agent_Tiny_SDK_Linux//lwm2m/core/registration.c ****  * OTHERWISE) ARISING IN ANY WAY OUT OF THE USE OF THIS SOFTWARE, EVEN IF
  24:/home/baikal/workspace/C50/Huawei_IoT_Agent_Tiny_SDK_Linux//lwm2m/core/registration.c ****  * ADVISED OF THE POSSIBILITY OF SUCH DAMAGE.
  25:/home/baikal/workspace/C50/Huawei_IoT_Agent_Tiny_SDK_Linux//lwm2m/core/registration.c ****  *---------------------------------------------------------------------------*/
  26:/home/baikal/workspace/C50/Huawei_IoT_Agent_Tiny_SDK_Linux//lwm2m/core/registration.c **** /*----------------------------------------------------------------------------
  27:/home/baikal/workspace/C50/Huawei_IoT_Agent_Tiny_SDK_Linux//lwm2m/core/registration.c ****  * Notice of Export Control Law
  28:/home/baikal/workspace/C50/Huawei_IoT_Agent_Tiny_SDK_Linux//lwm2m/core/registration.c ****  * ===============================================
  29:/home/baikal/workspace/C50/Huawei_IoT_Agent_Tiny_SDK_Linux//lwm2m/core/registration.c ****  * Huawei LiteOS may be subject to applicable export control laws and regulations, which might
  30:/home/baikal/workspace/C50/Huawei_IoT_Agent_Tiny_SDK_Linux//lwm2m/core/registration.c ****  * include those applicable to Huawei LiteOS of U.S. and the country in which you are located.
  31:/home/baikal/workspace/C50/Huawei_IoT_Agent_Tiny_SDK_Linux//lwm2m/core/registration.c ****  * Import, export and usage of Huawei LiteOS in any manner by you shall be in compliance with such
  32:/home/baikal/workspace/C50/Huawei_IoT_Agent_Tiny_SDK_Linux//lwm2m/core/registration.c ****  * applicable export control laws and regulations.
  33:/home/baikal/workspace/C50/Huawei_IoT_Agent_Tiny_SDK_Linux//lwm2m/core/registration.c ****  *---------------------------------------------------------------------------*/
  34:/home/baikal/workspace/C50/Huawei_IoT_Agent_Tiny_SDK_Linux//lwm2m/core/registration.c **** 
  35:/home/baikal/workspace/C50/Huawei_IoT_Agent_Tiny_SDK_Linux//lwm2m/core/registration.c **** /*******************************************************************************
  36:/home/baikal/workspace/C50/Huawei_IoT_Agent_Tiny_SDK_Linux//lwm2m/core/registration.c ****  *
  37:/home/baikal/workspace/C50/Huawei_IoT_Agent_Tiny_SDK_Linux//lwm2m/core/registration.c ****  * Copyright (c) 2013, 2014 Intel Corporation and others.
  38:/home/baikal/workspace/C50/Huawei_IoT_Agent_Tiny_SDK_Linux//lwm2m/core/registration.c ****  * All rights reserved. This program and the accompanying materials
  39:/home/baikal/workspace/C50/Huawei_IoT_Agent_Tiny_SDK_Linux//lwm2m/core/registration.c ****  * are made available under the terms of the Eclipse Public License v1.0
  40:/home/baikal/workspace/C50/Huawei_IoT_Agent_Tiny_SDK_Linux//lwm2m/core/registration.c ****  * and Eclipse Distribution License v1.0 which accompany this distribution.
  41:/home/baikal/workspace/C50/Huawei_IoT_Agent_Tiny_SDK_Linux//lwm2m/core/registration.c ****  *
  42:/home/baikal/workspace/C50/Huawei_IoT_Agent_Tiny_SDK_Linux//lwm2m/core/registration.c ****  * The Eclipse Public License is available at
  43:/home/baikal/workspace/C50/Huawei_IoT_Agent_Tiny_SDK_Linux//lwm2m/core/registration.c ****  *    http://www.eclipse.org/legal/epl-v10.html
  44:/home/baikal/workspace/C50/Huawei_IoT_Agent_Tiny_SDK_Linux//lwm2m/core/registration.c ****  * The Eclipse Distribution License is available at
  45:/home/baikal/workspace/C50/Huawei_IoT_Agent_Tiny_SDK_Linux//lwm2m/core/registration.c ****  *    http://www.eclipse.org/org/documents/edl-v10.php.
  46:/home/baikal/workspace/C50/Huawei_IoT_Agent_Tiny_SDK_Linux//lwm2m/core/registration.c ****  *
  47:/home/baikal/workspace/C50/Huawei_IoT_Agent_Tiny_SDK_Linux//lwm2m/core/registration.c ****  * Contributors:
  48:/home/baikal/workspace/C50/Huawei_IoT_Agent_Tiny_SDK_Linux//lwm2m/core/registration.c ****  *    David Navarro, Intel Corporation - initial API and implementation
  49:/home/baikal/workspace/C50/Huawei_IoT_Agent_Tiny_SDK_Linux//lwm2m/core/registration.c ****  *    domedambrosio - Please refer to git log
  50:/home/baikal/workspace/C50/Huawei_IoT_Agent_Tiny_SDK_Linux//lwm2m/core/registration.c ****  *    Fabien Fleutot - Please refer to git log
GAS LISTING /tmp/ccTnshMj.s 			page 2


  51:/home/baikal/workspace/C50/Huawei_IoT_Agent_Tiny_SDK_Linux//lwm2m/core/registration.c ****  *    Simon Bernard - Please refer to git log
  52:/home/baikal/workspace/C50/Huawei_IoT_Agent_Tiny_SDK_Linux//lwm2m/core/registration.c ****  *    Toby Jaffey - Please refer to git log
  53:/home/baikal/workspace/C50/Huawei_IoT_Agent_Tiny_SDK_Linux//lwm2m/core/registration.c ****  *    Manuel Sangoi - Please refer to git log
  54:/home/baikal/workspace/C50/Huawei_IoT_Agent_Tiny_SDK_Linux//lwm2m/core/registration.c ****  *    Julien Vermillard - Please refer to git log
  55:/home/baikal/workspace/C50/Huawei_IoT_Agent_Tiny_SDK_Linux//lwm2m/core/registration.c ****  *    Bosch Software Innovations GmbH - Please refer to git log
  56:/home/baikal/workspace/C50/Huawei_IoT_Agent_Tiny_SDK_Linux//lwm2m/core/registration.c ****  *    Pascal Rieux - Please refer to git log
  57:/home/baikal/workspace/C50/Huawei_IoT_Agent_Tiny_SDK_Linux//lwm2m/core/registration.c ****  *    Scott Bertin - Please refer to git log
  58:/home/baikal/workspace/C50/Huawei_IoT_Agent_Tiny_SDK_Linux//lwm2m/core/registration.c ****  *
  59:/home/baikal/workspace/C50/Huawei_IoT_Agent_Tiny_SDK_Linux//lwm2m/core/registration.c ****  *******************************************************************************/
  60:/home/baikal/workspace/C50/Huawei_IoT_Agent_Tiny_SDK_Linux//lwm2m/core/registration.c **** 
  61:/home/baikal/workspace/C50/Huawei_IoT_Agent_Tiny_SDK_Linux//lwm2m/core/registration.c **** /*
  62:/home/baikal/workspace/C50/Huawei_IoT_Agent_Tiny_SDK_Linux//lwm2m/core/registration.c ****  Copyright (c) 2013, 2014 Intel Corporation
  63:/home/baikal/workspace/C50/Huawei_IoT_Agent_Tiny_SDK_Linux//lwm2m/core/registration.c **** 
  64:/home/baikal/workspace/C50/Huawei_IoT_Agent_Tiny_SDK_Linux//lwm2m/core/registration.c ****  Redistribution and use in source and binary forms, with or without modification,
  65:/home/baikal/workspace/C50/Huawei_IoT_Agent_Tiny_SDK_Linux//lwm2m/core/registration.c ****  are permitted provided that the following conditions are met:
  66:/home/baikal/workspace/C50/Huawei_IoT_Agent_Tiny_SDK_Linux//lwm2m/core/registration.c **** 
  67:/home/baikal/workspace/C50/Huawei_IoT_Agent_Tiny_SDK_Linux//lwm2m/core/registration.c ****      * Redistributions of source code must retain the above copyright notice,
  68:/home/baikal/workspace/C50/Huawei_IoT_Agent_Tiny_SDK_Linux//lwm2m/core/registration.c ****        this list of conditions and the following disclaimer.
  69:/home/baikal/workspace/C50/Huawei_IoT_Agent_Tiny_SDK_Linux//lwm2m/core/registration.c ****      * Redistributions in binary form must reproduce the above copyright notice,
  70:/home/baikal/workspace/C50/Huawei_IoT_Agent_Tiny_SDK_Linux//lwm2m/core/registration.c ****        this list of conditions and the following disclaimer in the documentation
  71:/home/baikal/workspace/C50/Huawei_IoT_Agent_Tiny_SDK_Linux//lwm2m/core/registration.c ****        and/or other materials provided with the distribution.
  72:/home/baikal/workspace/C50/Huawei_IoT_Agent_Tiny_SDK_Linux//lwm2m/core/registration.c ****      * Neither the name of Intel Corporation nor the names of its contributors
  73:/home/baikal/workspace/C50/Huawei_IoT_Agent_Tiny_SDK_Linux//lwm2m/core/registration.c ****        may be used to endorse or promote products derived from this software
  74:/home/baikal/workspace/C50/Huawei_IoT_Agent_Tiny_SDK_Linux//lwm2m/core/registration.c ****        without specific prior written permission.
  75:/home/baikal/workspace/C50/Huawei_IoT_Agent_Tiny_SDK_Linux//lwm2m/core/registration.c **** 
  76:/home/baikal/workspace/C50/Huawei_IoT_Agent_Tiny_SDK_Linux//lwm2m/core/registration.c ****  THIS SOFTWARE IS PROVIDED BY THE COPYRIGHT HOLDERS AND CONTRIBUTORS "AS IS" AND
  77:/home/baikal/workspace/C50/Huawei_IoT_Agent_Tiny_SDK_Linux//lwm2m/core/registration.c ****  ANY EXPRESS OR IMPLIED WARRANTIES, INCLUDING, BUT NOT LIMITED TO, THE IMPLIED
  78:/home/baikal/workspace/C50/Huawei_IoT_Agent_Tiny_SDK_Linux//lwm2m/core/registration.c ****  WARRANTIES OF MERCHANTABILITY AND FITNESS FOR A PARTICULAR PURPOSE ARE DISCLAIMED.
  79:/home/baikal/workspace/C50/Huawei_IoT_Agent_Tiny_SDK_Linux//lwm2m/core/registration.c ****  IN NO EVENT SHALL THE COPYRIGHT OWNER OR CONTRIBUTORS BE LIABLE FOR ANY DIRECT,
  80:/home/baikal/workspace/C50/Huawei_IoT_Agent_Tiny_SDK_Linux//lwm2m/core/registration.c ****  INDIRECT, INCIDENTAL, SPECIAL, EXEMPLARY, OR CONSEQUENTIAL DAMAGES (INCLUDING,
  81:/home/baikal/workspace/C50/Huawei_IoT_Agent_Tiny_SDK_Linux//lwm2m/core/registration.c ****  BUT NOT LIMITED TO, PROCUREMENT OF SUBSTITUTE GOODS OR SERVICES; LOSS OF USE,
  82:/home/baikal/workspace/C50/Huawei_IoT_Agent_Tiny_SDK_Linux//lwm2m/core/registration.c ****  DATA, OR PROFITS; OR BUSINESS INTERRUPTION) HOWEVER CAUSED AND ON ANY THEORY OF
  83:/home/baikal/workspace/C50/Huawei_IoT_Agent_Tiny_SDK_Linux//lwm2m/core/registration.c ****  LIABILITY, WHETHER IN CONTRACT, STRICT LIABILITY, OR TORT (INCLUDING NEGLIGENCE OR
  84:/home/baikal/workspace/C50/Huawei_IoT_Agent_Tiny_SDK_Linux//lwm2m/core/registration.c ****  OTHERWISE) ARISING IN ANY WAY OUT OF THE USE OF THIS SOFTWARE, EVEN IF ADVISED OF
  85:/home/baikal/workspace/C50/Huawei_IoT_Agent_Tiny_SDK_Linux//lwm2m/core/registration.c ****  THE POSSIBILITY OF SUCH DAMAGE.
  86:/home/baikal/workspace/C50/Huawei_IoT_Agent_Tiny_SDK_Linux//lwm2m/core/registration.c **** 
  87:/home/baikal/workspace/C50/Huawei_IoT_Agent_Tiny_SDK_Linux//lwm2m/core/registration.c ****  David Navarro <david.navarro@intel.com>
  88:/home/baikal/workspace/C50/Huawei_IoT_Agent_Tiny_SDK_Linux//lwm2m/core/registration.c **** 
  89:/home/baikal/workspace/C50/Huawei_IoT_Agent_Tiny_SDK_Linux//lwm2m/core/registration.c **** */
  90:/home/baikal/workspace/C50/Huawei_IoT_Agent_Tiny_SDK_Linux//lwm2m/core/registration.c **** 
  91:/home/baikal/workspace/C50/Huawei_IoT_Agent_Tiny_SDK_Linux//lwm2m/core/registration.c **** #include "internals.h"
  92:/home/baikal/workspace/C50/Huawei_IoT_Agent_Tiny_SDK_Linux//lwm2m/core/registration.c **** 
  93:/home/baikal/workspace/C50/Huawei_IoT_Agent_Tiny_SDK_Linux//lwm2m/core/registration.c **** #include <stdlib.h>
  94:/home/baikal/workspace/C50/Huawei_IoT_Agent_Tiny_SDK_Linux//lwm2m/core/registration.c **** #include <string.h>
  95:/home/baikal/workspace/C50/Huawei_IoT_Agent_Tiny_SDK_Linux//lwm2m/core/registration.c **** #include <stdio.h>
  96:/home/baikal/workspace/C50/Huawei_IoT_Agent_Tiny_SDK_Linux//lwm2m/core/registration.c **** 
  97:/home/baikal/workspace/C50/Huawei_IoT_Agent_Tiny_SDK_Linux//lwm2m/core/registration.c **** #define MAX_LOCATION_LENGTH 10      // strlen("/rd/65534") + 1
  98:/home/baikal/workspace/C50/Huawei_IoT_Agent_Tiny_SDK_Linux//lwm2m/core/registration.c **** 
  99:/home/baikal/workspace/C50/Huawei_IoT_Agent_Tiny_SDK_Linux//lwm2m/core/registration.c **** #ifdef LWM2M_CLIENT_MODE
 100:/home/baikal/workspace/C50/Huawei_IoT_Agent_Tiny_SDK_Linux//lwm2m/core/registration.c **** 
 101:/home/baikal/workspace/C50/Huawei_IoT_Agent_Tiny_SDK_Linux//lwm2m/core/registration.c **** static int prv_getRegistrationQueryLength(lwm2m_context_t *contextP,
 102:/home/baikal/workspace/C50/Huawei_IoT_Agent_Tiny_SDK_Linux//lwm2m/core/registration.c ****         lwm2m_server_t *server)
 103:/home/baikal/workspace/C50/Huawei_IoT_Agent_Tiny_SDK_Linux//lwm2m/core/registration.c **** {
 104:/home/baikal/workspace/C50/Huawei_IoT_Agent_Tiny_SDK_Linux//lwm2m/core/registration.c ****     int index;
 105:/home/baikal/workspace/C50/Huawei_IoT_Agent_Tiny_SDK_Linux//lwm2m/core/registration.c ****     int res;
 106:/home/baikal/workspace/C50/Huawei_IoT_Agent_Tiny_SDK_Linux//lwm2m/core/registration.c ****     char buffer[21];
 107:/home/baikal/workspace/C50/Huawei_IoT_Agent_Tiny_SDK_Linux//lwm2m/core/registration.c **** 
GAS LISTING /tmp/ccTnshMj.s 			page 3


 108:/home/baikal/workspace/C50/Huawei_IoT_Agent_Tiny_SDK_Linux//lwm2m/core/registration.c ****     index = strlen(QUERY_STARTER QUERY_VERSION_FULL QUERY_DELIMITER QUERY_NAME);//?1.0&ep=
 109:/home/baikal/workspace/C50/Huawei_IoT_Agent_Tiny_SDK_Linux//lwm2m/core/registration.c ****     index += strlen(contextP->endpointName);
 110:/home/baikal/workspace/C50/Huawei_IoT_Agent_Tiny_SDK_Linux//lwm2m/core/registration.c **** 
 111:/home/baikal/workspace/C50/Huawei_IoT_Agent_Tiny_SDK_Linux//lwm2m/core/registration.c ****     if (NULL != contextP->msisdn)
 112:/home/baikal/workspace/C50/Huawei_IoT_Agent_Tiny_SDK_Linux//lwm2m/core/registration.c ****     {
 113:/home/baikal/workspace/C50/Huawei_IoT_Agent_Tiny_SDK_Linux//lwm2m/core/registration.c ****         index += strlen(QUERY_DELIMITER QUERY_SMS);
 114:/home/baikal/workspace/C50/Huawei_IoT_Agent_Tiny_SDK_Linux//lwm2m/core/registration.c ****         index += strlen(contextP->msisdn);
 115:/home/baikal/workspace/C50/Huawei_IoT_Agent_Tiny_SDK_Linux//lwm2m/core/registration.c ****     }
 116:/home/baikal/workspace/C50/Huawei_IoT_Agent_Tiny_SDK_Linux//lwm2m/core/registration.c **** 
 117:/home/baikal/workspace/C50/Huawei_IoT_Agent_Tiny_SDK_Linux//lwm2m/core/registration.c ****     switch (server->binding)
 118:/home/baikal/workspace/C50/Huawei_IoT_Agent_Tiny_SDK_Linux//lwm2m/core/registration.c ****     {
 119:/home/baikal/workspace/C50/Huawei_IoT_Agent_Tiny_SDK_Linux//lwm2m/core/registration.c ****     case BINDING_U:
 120:/home/baikal/workspace/C50/Huawei_IoT_Agent_Tiny_SDK_Linux//lwm2m/core/registration.c ****         index += strlen("&b=U");
 121:/home/baikal/workspace/C50/Huawei_IoT_Agent_Tiny_SDK_Linux//lwm2m/core/registration.c ****         break;
 122:/home/baikal/workspace/C50/Huawei_IoT_Agent_Tiny_SDK_Linux//lwm2m/core/registration.c ****     case BINDING_UQ:
 123:/home/baikal/workspace/C50/Huawei_IoT_Agent_Tiny_SDK_Linux//lwm2m/core/registration.c ****         index += strlen("&b=UQ");
 124:/home/baikal/workspace/C50/Huawei_IoT_Agent_Tiny_SDK_Linux//lwm2m/core/registration.c ****         break;
 125:/home/baikal/workspace/C50/Huawei_IoT_Agent_Tiny_SDK_Linux//lwm2m/core/registration.c ****     case BINDING_S:
 126:/home/baikal/workspace/C50/Huawei_IoT_Agent_Tiny_SDK_Linux//lwm2m/core/registration.c ****         index += strlen("&b=S");
 127:/home/baikal/workspace/C50/Huawei_IoT_Agent_Tiny_SDK_Linux//lwm2m/core/registration.c ****         break;
 128:/home/baikal/workspace/C50/Huawei_IoT_Agent_Tiny_SDK_Linux//lwm2m/core/registration.c ****     case BINDING_SQ:
 129:/home/baikal/workspace/C50/Huawei_IoT_Agent_Tiny_SDK_Linux//lwm2m/core/registration.c ****         index += strlen("&b=SQ");
 130:/home/baikal/workspace/C50/Huawei_IoT_Agent_Tiny_SDK_Linux//lwm2m/core/registration.c ****         break;
 131:/home/baikal/workspace/C50/Huawei_IoT_Agent_Tiny_SDK_Linux//lwm2m/core/registration.c ****     case BINDING_US:
 132:/home/baikal/workspace/C50/Huawei_IoT_Agent_Tiny_SDK_Linux//lwm2m/core/registration.c ****         index += strlen("&b=US");
 133:/home/baikal/workspace/C50/Huawei_IoT_Agent_Tiny_SDK_Linux//lwm2m/core/registration.c ****         break;
 134:/home/baikal/workspace/C50/Huawei_IoT_Agent_Tiny_SDK_Linux//lwm2m/core/registration.c ****     case BINDING_UQS:
 135:/home/baikal/workspace/C50/Huawei_IoT_Agent_Tiny_SDK_Linux//lwm2m/core/registration.c ****         index += strlen("&b=UQS");
 136:/home/baikal/workspace/C50/Huawei_IoT_Agent_Tiny_SDK_Linux//lwm2m/core/registration.c ****         break;
 137:/home/baikal/workspace/C50/Huawei_IoT_Agent_Tiny_SDK_Linux//lwm2m/core/registration.c ****     default:
 138:/home/baikal/workspace/C50/Huawei_IoT_Agent_Tiny_SDK_Linux//lwm2m/core/registration.c ****         return 0;
 139:/home/baikal/workspace/C50/Huawei_IoT_Agent_Tiny_SDK_Linux//lwm2m/core/registration.c ****     }
 140:/home/baikal/workspace/C50/Huawei_IoT_Agent_Tiny_SDK_Linux//lwm2m/core/registration.c **** 
 141:/home/baikal/workspace/C50/Huawei_IoT_Agent_Tiny_SDK_Linux//lwm2m/core/registration.c ****     if (0 != server->lifetime)
 142:/home/baikal/workspace/C50/Huawei_IoT_Agent_Tiny_SDK_Linux//lwm2m/core/registration.c ****     {
 143:/home/baikal/workspace/C50/Huawei_IoT_Agent_Tiny_SDK_Linux//lwm2m/core/registration.c ****         index += strlen(QUERY_DELIMITER QUERY_LIFETIME);//&lt=
 144:/home/baikal/workspace/C50/Huawei_IoT_Agent_Tiny_SDK_Linux//lwm2m/core/registration.c ****         res = utils_intToText(server->lifetime, (uint8_t *)buffer, sizeof(buffer));
 145:/home/baikal/workspace/C50/Huawei_IoT_Agent_Tiny_SDK_Linux//lwm2m/core/registration.c ****         if (res == 0) return 0;
 146:/home/baikal/workspace/C50/Huawei_IoT_Agent_Tiny_SDK_Linux//lwm2m/core/registration.c ****         index += res;
 147:/home/baikal/workspace/C50/Huawei_IoT_Agent_Tiny_SDK_Linux//lwm2m/core/registration.c ****     }
 148:/home/baikal/workspace/C50/Huawei_IoT_Agent_Tiny_SDK_Linux//lwm2m/core/registration.c **** 
 149:/home/baikal/workspace/C50/Huawei_IoT_Agent_Tiny_SDK_Linux//lwm2m/core/registration.c ****     return index + 1;
 150:/home/baikal/workspace/C50/Huawei_IoT_Agent_Tiny_SDK_Linux//lwm2m/core/registration.c **** }
 151:/home/baikal/workspace/C50/Huawei_IoT_Agent_Tiny_SDK_Linux//lwm2m/core/registration.c **** 
 152:/home/baikal/workspace/C50/Huawei_IoT_Agent_Tiny_SDK_Linux//lwm2m/core/registration.c **** static int prv_getRegistrationQuery(lwm2m_context_t *contextP,
 153:/home/baikal/workspace/C50/Huawei_IoT_Agent_Tiny_SDK_Linux//lwm2m/core/registration.c ****                                     lwm2m_server_t *server,
 154:/home/baikal/workspace/C50/Huawei_IoT_Agent_Tiny_SDK_Linux//lwm2m/core/registration.c ****                                     char *buffer,
 155:/home/baikal/workspace/C50/Huawei_IoT_Agent_Tiny_SDK_Linux//lwm2m/core/registration.c ****                                     size_t length)
 156:/home/baikal/workspace/C50/Huawei_IoT_Agent_Tiny_SDK_Linux//lwm2m/core/registration.c **** {
 157:/home/baikal/workspace/C50/Huawei_IoT_Agent_Tiny_SDK_Linux//lwm2m/core/registration.c ****     int index;
 158:/home/baikal/workspace/C50/Huawei_IoT_Agent_Tiny_SDK_Linux//lwm2m/core/registration.c ****     int res;
 159:/home/baikal/workspace/C50/Huawei_IoT_Agent_Tiny_SDK_Linux//lwm2m/core/registration.c **** 
 160:/home/baikal/workspace/C50/Huawei_IoT_Agent_Tiny_SDK_Linux//lwm2m/core/registration.c ****     index = utils_stringCopy(buffer, length, QUERY_STARTER QUERY_VERSION_FULL QUERY_DELIMITER QUERY
 161:/home/baikal/workspace/C50/Huawei_IoT_Agent_Tiny_SDK_Linux//lwm2m/core/registration.c ****     if (index < 0) return 0;
 162:/home/baikal/workspace/C50/Huawei_IoT_Agent_Tiny_SDK_Linux//lwm2m/core/registration.c ****     res = utils_stringCopy(buffer + index, length - index, contextP->endpointName);
 163:/home/baikal/workspace/C50/Huawei_IoT_Agent_Tiny_SDK_Linux//lwm2m/core/registration.c ****     if (res < 0) return 0;
 164:/home/baikal/workspace/C50/Huawei_IoT_Agent_Tiny_SDK_Linux//lwm2m/core/registration.c ****     index += res;
GAS LISTING /tmp/ccTnshMj.s 			page 4


 165:/home/baikal/workspace/C50/Huawei_IoT_Agent_Tiny_SDK_Linux//lwm2m/core/registration.c **** 
 166:/home/baikal/workspace/C50/Huawei_IoT_Agent_Tiny_SDK_Linux//lwm2m/core/registration.c ****     if (NULL != contextP->msisdn)
 167:/home/baikal/workspace/C50/Huawei_IoT_Agent_Tiny_SDK_Linux//lwm2m/core/registration.c ****     {
 168:/home/baikal/workspace/C50/Huawei_IoT_Agent_Tiny_SDK_Linux//lwm2m/core/registration.c ****         res = utils_stringCopy(buffer + index, length - index, QUERY_DELIMITER QUERY_SMS);
 169:/home/baikal/workspace/C50/Huawei_IoT_Agent_Tiny_SDK_Linux//lwm2m/core/registration.c ****         if (res < 0) return 0;
 170:/home/baikal/workspace/C50/Huawei_IoT_Agent_Tiny_SDK_Linux//lwm2m/core/registration.c ****         index += res;
 171:/home/baikal/workspace/C50/Huawei_IoT_Agent_Tiny_SDK_Linux//lwm2m/core/registration.c ****         res = utils_stringCopy(buffer + index, length - index, contextP->msisdn);
 172:/home/baikal/workspace/C50/Huawei_IoT_Agent_Tiny_SDK_Linux//lwm2m/core/registration.c ****         if (res < 0) return 0;
 173:/home/baikal/workspace/C50/Huawei_IoT_Agent_Tiny_SDK_Linux//lwm2m/core/registration.c ****         index += res;
 174:/home/baikal/workspace/C50/Huawei_IoT_Agent_Tiny_SDK_Linux//lwm2m/core/registration.c ****     }
 175:/home/baikal/workspace/C50/Huawei_IoT_Agent_Tiny_SDK_Linux//lwm2m/core/registration.c **** 
 176:/home/baikal/workspace/C50/Huawei_IoT_Agent_Tiny_SDK_Linux//lwm2m/core/registration.c ****     switch (server->binding)
 177:/home/baikal/workspace/C50/Huawei_IoT_Agent_Tiny_SDK_Linux//lwm2m/core/registration.c ****     {
 178:/home/baikal/workspace/C50/Huawei_IoT_Agent_Tiny_SDK_Linux//lwm2m/core/registration.c ****     case BINDING_U:
 179:/home/baikal/workspace/C50/Huawei_IoT_Agent_Tiny_SDK_Linux//lwm2m/core/registration.c ****         res = utils_stringCopy(buffer + index, length - index, "&b=U");
 180:/home/baikal/workspace/C50/Huawei_IoT_Agent_Tiny_SDK_Linux//lwm2m/core/registration.c ****         break;
 181:/home/baikal/workspace/C50/Huawei_IoT_Agent_Tiny_SDK_Linux//lwm2m/core/registration.c ****     case BINDING_UQ:
 182:/home/baikal/workspace/C50/Huawei_IoT_Agent_Tiny_SDK_Linux//lwm2m/core/registration.c ****         res = utils_stringCopy(buffer + index, length - index, "&b=UQ");
 183:/home/baikal/workspace/C50/Huawei_IoT_Agent_Tiny_SDK_Linux//lwm2m/core/registration.c ****         break;
 184:/home/baikal/workspace/C50/Huawei_IoT_Agent_Tiny_SDK_Linux//lwm2m/core/registration.c ****     case BINDING_S:
 185:/home/baikal/workspace/C50/Huawei_IoT_Agent_Tiny_SDK_Linux//lwm2m/core/registration.c ****         res = utils_stringCopy(buffer + index, length - index, "&b=S");
 186:/home/baikal/workspace/C50/Huawei_IoT_Agent_Tiny_SDK_Linux//lwm2m/core/registration.c ****         break;
 187:/home/baikal/workspace/C50/Huawei_IoT_Agent_Tiny_SDK_Linux//lwm2m/core/registration.c ****     case BINDING_SQ:
 188:/home/baikal/workspace/C50/Huawei_IoT_Agent_Tiny_SDK_Linux//lwm2m/core/registration.c ****         res = utils_stringCopy(buffer + index, length - index, "&b=SQ");
 189:/home/baikal/workspace/C50/Huawei_IoT_Agent_Tiny_SDK_Linux//lwm2m/core/registration.c ****         break;
 190:/home/baikal/workspace/C50/Huawei_IoT_Agent_Tiny_SDK_Linux//lwm2m/core/registration.c ****     case BINDING_US:
 191:/home/baikal/workspace/C50/Huawei_IoT_Agent_Tiny_SDK_Linux//lwm2m/core/registration.c ****         res = utils_stringCopy(buffer + index, length - index, "&b=US");
 192:/home/baikal/workspace/C50/Huawei_IoT_Agent_Tiny_SDK_Linux//lwm2m/core/registration.c ****         break;
 193:/home/baikal/workspace/C50/Huawei_IoT_Agent_Tiny_SDK_Linux//lwm2m/core/registration.c ****     case BINDING_UQS:
 194:/home/baikal/workspace/C50/Huawei_IoT_Agent_Tiny_SDK_Linux//lwm2m/core/registration.c ****         res = utils_stringCopy(buffer + index, length - index, "&b=UQS");
 195:/home/baikal/workspace/C50/Huawei_IoT_Agent_Tiny_SDK_Linux//lwm2m/core/registration.c ****         break;
 196:/home/baikal/workspace/C50/Huawei_IoT_Agent_Tiny_SDK_Linux//lwm2m/core/registration.c ****     default:
 197:/home/baikal/workspace/C50/Huawei_IoT_Agent_Tiny_SDK_Linux//lwm2m/core/registration.c ****         res = -1;
 198:/home/baikal/workspace/C50/Huawei_IoT_Agent_Tiny_SDK_Linux//lwm2m/core/registration.c ****     }
 199:/home/baikal/workspace/C50/Huawei_IoT_Agent_Tiny_SDK_Linux//lwm2m/core/registration.c ****     if (res < 0) return 0;
 200:/home/baikal/workspace/C50/Huawei_IoT_Agent_Tiny_SDK_Linux//lwm2m/core/registration.c ****     index += res;
 201:/home/baikal/workspace/C50/Huawei_IoT_Agent_Tiny_SDK_Linux//lwm2m/core/registration.c **** 
 202:/home/baikal/workspace/C50/Huawei_IoT_Agent_Tiny_SDK_Linux//lwm2m/core/registration.c ****     if (0 != server->lifetime)
 203:/home/baikal/workspace/C50/Huawei_IoT_Agent_Tiny_SDK_Linux//lwm2m/core/registration.c ****     {
 204:/home/baikal/workspace/C50/Huawei_IoT_Agent_Tiny_SDK_Linux//lwm2m/core/registration.c ****         res = utils_stringCopy(buffer + index, length - index, QUERY_DELIMITER QUERY_LIFETIME);
 205:/home/baikal/workspace/C50/Huawei_IoT_Agent_Tiny_SDK_Linux//lwm2m/core/registration.c ****         if (res < 0) return 0;
 206:/home/baikal/workspace/C50/Huawei_IoT_Agent_Tiny_SDK_Linux//lwm2m/core/registration.c ****         index += res;
 207:/home/baikal/workspace/C50/Huawei_IoT_Agent_Tiny_SDK_Linux//lwm2m/core/registration.c ****         res = utils_intToText(server->lifetime, (uint8_t *)buffer + index, length - index);
 208:/home/baikal/workspace/C50/Huawei_IoT_Agent_Tiny_SDK_Linux//lwm2m/core/registration.c ****         if (res == 0) return 0;
 209:/home/baikal/workspace/C50/Huawei_IoT_Agent_Tiny_SDK_Linux//lwm2m/core/registration.c ****         index += res;
 210:/home/baikal/workspace/C50/Huawei_IoT_Agent_Tiny_SDK_Linux//lwm2m/core/registration.c ****     }
 211:/home/baikal/workspace/C50/Huawei_IoT_Agent_Tiny_SDK_Linux//lwm2m/core/registration.c **** 
 212:/home/baikal/workspace/C50/Huawei_IoT_Agent_Tiny_SDK_Linux//lwm2m/core/registration.c ****     if(index < (int)length)
 213:/home/baikal/workspace/C50/Huawei_IoT_Agent_Tiny_SDK_Linux//lwm2m/core/registration.c ****     {
 214:/home/baikal/workspace/C50/Huawei_IoT_Agent_Tiny_SDK_Linux//lwm2m/core/registration.c ****         buffer[index++] = '\0';
 215:/home/baikal/workspace/C50/Huawei_IoT_Agent_Tiny_SDK_Linux//lwm2m/core/registration.c ****     }
 216:/home/baikal/workspace/C50/Huawei_IoT_Agent_Tiny_SDK_Linux//lwm2m/core/registration.c ****     else
 217:/home/baikal/workspace/C50/Huawei_IoT_Agent_Tiny_SDK_Linux//lwm2m/core/registration.c ****     {
 218:/home/baikal/workspace/C50/Huawei_IoT_Agent_Tiny_SDK_Linux//lwm2m/core/registration.c ****         return 0;
 219:/home/baikal/workspace/C50/Huawei_IoT_Agent_Tiny_SDK_Linux//lwm2m/core/registration.c ****     }
 220:/home/baikal/workspace/C50/Huawei_IoT_Agent_Tiny_SDK_Linux//lwm2m/core/registration.c **** 
 221:/home/baikal/workspace/C50/Huawei_IoT_Agent_Tiny_SDK_Linux//lwm2m/core/registration.c ****     return index;
GAS LISTING /tmp/ccTnshMj.s 			page 5


 222:/home/baikal/workspace/C50/Huawei_IoT_Agent_Tiny_SDK_Linux//lwm2m/core/registration.c **** }
 223:/home/baikal/workspace/C50/Huawei_IoT_Agent_Tiny_SDK_Linux//lwm2m/core/registration.c **** 
 224:/home/baikal/workspace/C50/Huawei_IoT_Agent_Tiny_SDK_Linux//lwm2m/core/registration.c **** static void prv_handleRegistrationReply(lwm2m_transaction_t *transacP,
 225:/home/baikal/workspace/C50/Huawei_IoT_Agent_Tiny_SDK_Linux//lwm2m/core/registration.c ****                                         void *message)
 226:/home/baikal/workspace/C50/Huawei_IoT_Agent_Tiny_SDK_Linux//lwm2m/core/registration.c **** {
 227:/home/baikal/workspace/C50/Huawei_IoT_Agent_Tiny_SDK_Linux//lwm2m/core/registration.c ****     coap_packet_t *packet = (coap_packet_t *)message;
 228:/home/baikal/workspace/C50/Huawei_IoT_Agent_Tiny_SDK_Linux//lwm2m/core/registration.c ****     lwm2m_server_t *targetP = (lwm2m_server_t *)(transacP->userData);
 229:/home/baikal/workspace/C50/Huawei_IoT_Agent_Tiny_SDK_Linux//lwm2m/core/registration.c **** 
 230:/home/baikal/workspace/C50/Huawei_IoT_Agent_Tiny_SDK_Linux//lwm2m/core/registration.c ****     LOG("come into  prv_handleRegistrationReply!!");
 231:/home/baikal/workspace/C50/Huawei_IoT_Agent_Tiny_SDK_Linux//lwm2m/core/registration.c ****     if (targetP->status == STATE_REG_PENDING)
 232:/home/baikal/workspace/C50/Huawei_IoT_Agent_Tiny_SDK_Linux//lwm2m/core/registration.c ****     {
 233:/home/baikal/workspace/C50/Huawei_IoT_Agent_Tiny_SDK_Linux//lwm2m/core/registration.c ****         time_t tv_sec = lwm2m_gettime();
 234:/home/baikal/workspace/C50/Huawei_IoT_Agent_Tiny_SDK_Linux//lwm2m/core/registration.c ****         if (tv_sec)
 235:/home/baikal/workspace/C50/Huawei_IoT_Agent_Tiny_SDK_Linux//lwm2m/core/registration.c ****         {
 236:/home/baikal/workspace/C50/Huawei_IoT_Agent_Tiny_SDK_Linux//lwm2m/core/registration.c ****             targetP->registration = tv_sec;
 237:/home/baikal/workspace/C50/Huawei_IoT_Agent_Tiny_SDK_Linux//lwm2m/core/registration.c ****         }
 238:/home/baikal/workspace/C50/Huawei_IoT_Agent_Tiny_SDK_Linux//lwm2m/core/registration.c ****         if (packet != NULL && packet->code == COAP_201_CREATED)
 239:/home/baikal/workspace/C50/Huawei_IoT_Agent_Tiny_SDK_Linux//lwm2m/core/registration.c ****         {
 240:/home/baikal/workspace/C50/Huawei_IoT_Agent_Tiny_SDK_Linux//lwm2m/core/registration.c ****             targetP->status = STATE_REGISTERED;
 241:/home/baikal/workspace/C50/Huawei_IoT_Agent_Tiny_SDK_Linux//lwm2m/core/registration.c ****             if (NULL != targetP->location)
 242:/home/baikal/workspace/C50/Huawei_IoT_Agent_Tiny_SDK_Linux//lwm2m/core/registration.c ****             {
 243:/home/baikal/workspace/C50/Huawei_IoT_Agent_Tiny_SDK_Linux//lwm2m/core/registration.c ****                 lwm2m_free(targetP->location);
 244:/home/baikal/workspace/C50/Huawei_IoT_Agent_Tiny_SDK_Linux//lwm2m/core/registration.c ****             }
 245:/home/baikal/workspace/C50/Huawei_IoT_Agent_Tiny_SDK_Linux//lwm2m/core/registration.c ****             targetP->location = coap_get_multi_option_as_string(packet->location_path);
 246:/home/baikal/workspace/C50/Huawei_IoT_Agent_Tiny_SDK_Linux//lwm2m/core/registration.c **** 
 247:/home/baikal/workspace/C50/Huawei_IoT_Agent_Tiny_SDK_Linux//lwm2m/core/registration.c ****             LOG_ARG("Registration successful,location_path is %s", targetP->location);
 248:/home/baikal/workspace/C50/Huawei_IoT_Agent_Tiny_SDK_Linux//lwm2m/core/registration.c ****         }
 249:/home/baikal/workspace/C50/Huawei_IoT_Agent_Tiny_SDK_Linux//lwm2m/core/registration.c ****         else
 250:/home/baikal/workspace/C50/Huawei_IoT_Agent_Tiny_SDK_Linux//lwm2m/core/registration.c ****         {
 251:/home/baikal/workspace/C50/Huawei_IoT_Agent_Tiny_SDK_Linux//lwm2m/core/registration.c ****             targetP->status = STATE_REG_FAILED;
 252:/home/baikal/workspace/C50/Huawei_IoT_Agent_Tiny_SDK_Linux//lwm2m/core/registration.c ****             LOG("Registration failed");
 253:/home/baikal/workspace/C50/Huawei_IoT_Agent_Tiny_SDK_Linux//lwm2m/core/registration.c ****         }
 254:/home/baikal/workspace/C50/Huawei_IoT_Agent_Tiny_SDK_Linux//lwm2m/core/registration.c ****     }
 255:/home/baikal/workspace/C50/Huawei_IoT_Agent_Tiny_SDK_Linux//lwm2m/core/registration.c **** }
 256:/home/baikal/workspace/C50/Huawei_IoT_Agent_Tiny_SDK_Linux//lwm2m/core/registration.c **** 
 257:/home/baikal/workspace/C50/Huawei_IoT_Agent_Tiny_SDK_Linux//lwm2m/core/registration.c **** // send the registration for a single server
 258:/home/baikal/workspace/C50/Huawei_IoT_Agent_Tiny_SDK_Linux//lwm2m/core/registration.c **** static uint8_t prv_register(lwm2m_context_t *contextP,
 259:/home/baikal/workspace/C50/Huawei_IoT_Agent_Tiny_SDK_Linux//lwm2m/core/registration.c ****                             lwm2m_server_t *server)
 260:/home/baikal/workspace/C50/Huawei_IoT_Agent_Tiny_SDK_Linux//lwm2m/core/registration.c **** {
 261:/home/baikal/workspace/C50/Huawei_IoT_Agent_Tiny_SDK_Linux//lwm2m/core/registration.c ****     char *query;
 262:/home/baikal/workspace/C50/Huawei_IoT_Agent_Tiny_SDK_Linux//lwm2m/core/registration.c ****     int query_length;
 263:/home/baikal/workspace/C50/Huawei_IoT_Agent_Tiny_SDK_Linux//lwm2m/core/registration.c ****     uint8_t *payload;
 264:/home/baikal/workspace/C50/Huawei_IoT_Agent_Tiny_SDK_Linux//lwm2m/core/registration.c ****     int payload_length;
 265:/home/baikal/workspace/C50/Huawei_IoT_Agent_Tiny_SDK_Linux//lwm2m/core/registration.c ****     lwm2m_transaction_t *transaction;
 266:/home/baikal/workspace/C50/Huawei_IoT_Agent_Tiny_SDK_Linux//lwm2m/core/registration.c **** 
 267:/home/baikal/workspace/C50/Huawei_IoT_Agent_Tiny_SDK_Linux//lwm2m/core/registration.c ****     payload_length = object_getRegisterPayloadBufferLength(contextP);
 268:/home/baikal/workspace/C50/Huawei_IoT_Agent_Tiny_SDK_Linux//lwm2m/core/registration.c ****     if(payload_length == 0) return COAP_500_INTERNAL_SERVER_ERROR;
 269:/home/baikal/workspace/C50/Huawei_IoT_Agent_Tiny_SDK_Linux//lwm2m/core/registration.c ****     payload = lwm2m_malloc(payload_length);
 270:/home/baikal/workspace/C50/Huawei_IoT_Agent_Tiny_SDK_Linux//lwm2m/core/registration.c ****     if(!payload) return COAP_500_INTERNAL_SERVER_ERROR;
 271:/home/baikal/workspace/C50/Huawei_IoT_Agent_Tiny_SDK_Linux//lwm2m/core/registration.c ****     payload_length = object_getRegisterPayload(contextP, payload, payload_length);
 272:/home/baikal/workspace/C50/Huawei_IoT_Agent_Tiny_SDK_Linux//lwm2m/core/registration.c ****     if(payload_length == 0)
 273:/home/baikal/workspace/C50/Huawei_IoT_Agent_Tiny_SDK_Linux//lwm2m/core/registration.c ****     {
 274:/home/baikal/workspace/C50/Huawei_IoT_Agent_Tiny_SDK_Linux//lwm2m/core/registration.c ****         lwm2m_free(payload);
 275:/home/baikal/workspace/C50/Huawei_IoT_Agent_Tiny_SDK_Linux//lwm2m/core/registration.c ****         return COAP_500_INTERNAL_SERVER_ERROR;
 276:/home/baikal/workspace/C50/Huawei_IoT_Agent_Tiny_SDK_Linux//lwm2m/core/registration.c ****     }
 277:/home/baikal/workspace/C50/Huawei_IoT_Agent_Tiny_SDK_Linux//lwm2m/core/registration.c **** 
 278:/home/baikal/workspace/C50/Huawei_IoT_Agent_Tiny_SDK_Linux//lwm2m/core/registration.c ****     query_length = prv_getRegistrationQueryLength(contextP, server);
GAS LISTING /tmp/ccTnshMj.s 			page 6


 279:/home/baikal/workspace/C50/Huawei_IoT_Agent_Tiny_SDK_Linux//lwm2m/core/registration.c ****     if(query_length == 0)
 280:/home/baikal/workspace/C50/Huawei_IoT_Agent_Tiny_SDK_Linux//lwm2m/core/registration.c ****     {
 281:/home/baikal/workspace/C50/Huawei_IoT_Agent_Tiny_SDK_Linux//lwm2m/core/registration.c ****         lwm2m_free(payload);
 282:/home/baikal/workspace/C50/Huawei_IoT_Agent_Tiny_SDK_Linux//lwm2m/core/registration.c ****         return COAP_500_INTERNAL_SERVER_ERROR;
 283:/home/baikal/workspace/C50/Huawei_IoT_Agent_Tiny_SDK_Linux//lwm2m/core/registration.c ****     }
 284:/home/baikal/workspace/C50/Huawei_IoT_Agent_Tiny_SDK_Linux//lwm2m/core/registration.c ****     query = lwm2m_malloc(query_length);
 285:/home/baikal/workspace/C50/Huawei_IoT_Agent_Tiny_SDK_Linux//lwm2m/core/registration.c ****     if(!query)
 286:/home/baikal/workspace/C50/Huawei_IoT_Agent_Tiny_SDK_Linux//lwm2m/core/registration.c ****     {
 287:/home/baikal/workspace/C50/Huawei_IoT_Agent_Tiny_SDK_Linux//lwm2m/core/registration.c ****         lwm2m_free(payload);
 288:/home/baikal/workspace/C50/Huawei_IoT_Agent_Tiny_SDK_Linux//lwm2m/core/registration.c ****         return COAP_500_INTERNAL_SERVER_ERROR;
 289:/home/baikal/workspace/C50/Huawei_IoT_Agent_Tiny_SDK_Linux//lwm2m/core/registration.c ****     }
 290:/home/baikal/workspace/C50/Huawei_IoT_Agent_Tiny_SDK_Linux//lwm2m/core/registration.c ****     if(prv_getRegistrationQuery(contextP, server, query, query_length) != query_length)
 291:/home/baikal/workspace/C50/Huawei_IoT_Agent_Tiny_SDK_Linux//lwm2m/core/registration.c ****     {
 292:/home/baikal/workspace/C50/Huawei_IoT_Agent_Tiny_SDK_Linux//lwm2m/core/registration.c ****         lwm2m_free(payload);
 293:/home/baikal/workspace/C50/Huawei_IoT_Agent_Tiny_SDK_Linux//lwm2m/core/registration.c ****         lwm2m_free(query);
 294:/home/baikal/workspace/C50/Huawei_IoT_Agent_Tiny_SDK_Linux//lwm2m/core/registration.c ****         return COAP_500_INTERNAL_SERVER_ERROR;
 295:/home/baikal/workspace/C50/Huawei_IoT_Agent_Tiny_SDK_Linux//lwm2m/core/registration.c ****     }
 296:/home/baikal/workspace/C50/Huawei_IoT_Agent_Tiny_SDK_Linux//lwm2m/core/registration.c **** 
 297:/home/baikal/workspace/C50/Huawei_IoT_Agent_Tiny_SDK_Linux//lwm2m/core/registration.c ****     if (server->sessionH == NULL)
 298:/home/baikal/workspace/C50/Huawei_IoT_Agent_Tiny_SDK_Linux//lwm2m/core/registration.c ****     {
 299:/home/baikal/workspace/C50/Huawei_IoT_Agent_Tiny_SDK_Linux//lwm2m/core/registration.c ****         server->sessionH = lwm2m_connect_server(server->secObjInstID, contextP->userData, false);
 300:/home/baikal/workspace/C50/Huawei_IoT_Agent_Tiny_SDK_Linux//lwm2m/core/registration.c ****     }
 301:/home/baikal/workspace/C50/Huawei_IoT_Agent_Tiny_SDK_Linux//lwm2m/core/registration.c **** 
 302:/home/baikal/workspace/C50/Huawei_IoT_Agent_Tiny_SDK_Linux//lwm2m/core/registration.c ****     if (NULL == server->sessionH)
 303:/home/baikal/workspace/C50/Huawei_IoT_Agent_Tiny_SDK_Linux//lwm2m/core/registration.c ****     {
 304:/home/baikal/workspace/C50/Huawei_IoT_Agent_Tiny_SDK_Linux//lwm2m/core/registration.c ****         lwm2m_free(payload);
 305:/home/baikal/workspace/C50/Huawei_IoT_Agent_Tiny_SDK_Linux//lwm2m/core/registration.c ****         lwm2m_free(query);
 306:/home/baikal/workspace/C50/Huawei_IoT_Agent_Tiny_SDK_Linux//lwm2m/core/registration.c ****         return COAP_503_SERVICE_UNAVAILABLE;
 307:/home/baikal/workspace/C50/Huawei_IoT_Agent_Tiny_SDK_Linux//lwm2m/core/registration.c ****     }
 308:/home/baikal/workspace/C50/Huawei_IoT_Agent_Tiny_SDK_Linux//lwm2m/core/registration.c **** 
 309:/home/baikal/workspace/C50/Huawei_IoT_Agent_Tiny_SDK_Linux//lwm2m/core/registration.c ****     transaction = transaction_new(server->sessionH, COAP_POST, NULL, NULL, contextP->nextMID++, 4, 
 310:/home/baikal/workspace/C50/Huawei_IoT_Agent_Tiny_SDK_Linux//lwm2m/core/registration.c ****     if (transaction == NULL)
 311:/home/baikal/workspace/C50/Huawei_IoT_Agent_Tiny_SDK_Linux//lwm2m/core/registration.c ****     {
 312:/home/baikal/workspace/C50/Huawei_IoT_Agent_Tiny_SDK_Linux//lwm2m/core/registration.c ****         lwm2m_free(payload);
 313:/home/baikal/workspace/C50/Huawei_IoT_Agent_Tiny_SDK_Linux//lwm2m/core/registration.c ****         lwm2m_free(query);
 314:/home/baikal/workspace/C50/Huawei_IoT_Agent_Tiny_SDK_Linux//lwm2m/core/registration.c ****         return COAP_503_SERVICE_UNAVAILABLE;
 315:/home/baikal/workspace/C50/Huawei_IoT_Agent_Tiny_SDK_Linux//lwm2m/core/registration.c ****     }
 316:/home/baikal/workspace/C50/Huawei_IoT_Agent_Tiny_SDK_Linux//lwm2m/core/registration.c ****     //    coap_pdu_t *pdu = (coap_pdu_t *)(transaction->message);
 317:/home/baikal/workspace/C50/Huawei_IoT_Agent_Tiny_SDK_Linux//lwm2m/core/registration.c **** 
 318:/home/baikal/workspace/C50/Huawei_IoT_Agent_Tiny_SDK_Linux//lwm2m/core/registration.c ****     coap_set_header_uri_path(transaction->message, "/"URI_REGISTRATION_SEGMENT);
 319:/home/baikal/workspace/C50/Huawei_IoT_Agent_Tiny_SDK_Linux//lwm2m/core/registration.c ****     coap_set_header_uri_query(transaction->message, query);
 320:/home/baikal/workspace/C50/Huawei_IoT_Agent_Tiny_SDK_Linux//lwm2m/core/registration.c ****     coap_set_header_content_type(transaction->message, LWM2M_CONTENT_LINK);
 321:/home/baikal/workspace/C50/Huawei_IoT_Agent_Tiny_SDK_Linux//lwm2m/core/registration.c ****     coap_set_payload(transaction->message, payload, payload_length);
 322:/home/baikal/workspace/C50/Huawei_IoT_Agent_Tiny_SDK_Linux//lwm2m/core/registration.c **** 
 323:/home/baikal/workspace/C50/Huawei_IoT_Agent_Tiny_SDK_Linux//lwm2m/core/registration.c ****     transaction->callback = prv_handleRegistrationReply;
 324:/home/baikal/workspace/C50/Huawei_IoT_Agent_Tiny_SDK_Linux//lwm2m/core/registration.c ****     transaction->userData = (void *) server;
 325:/home/baikal/workspace/C50/Huawei_IoT_Agent_Tiny_SDK_Linux//lwm2m/core/registration.c **** 
 326:/home/baikal/workspace/C50/Huawei_IoT_Agent_Tiny_SDK_Linux//lwm2m/core/registration.c ****     contextP->transactionList = (lwm2m_transaction_t *)LWM2M_LIST_ADD(contextP->transactionList, tr
 327:/home/baikal/workspace/C50/Huawei_IoT_Agent_Tiny_SDK_Linux//lwm2m/core/registration.c ****     if (transaction_send(contextP, transaction) != 0)
 328:/home/baikal/workspace/C50/Huawei_IoT_Agent_Tiny_SDK_Linux//lwm2m/core/registration.c ****     {
 329:/home/baikal/workspace/C50/Huawei_IoT_Agent_Tiny_SDK_Linux//lwm2m/core/registration.c ****         lwm2m_free(payload);
 330:/home/baikal/workspace/C50/Huawei_IoT_Agent_Tiny_SDK_Linux//lwm2m/core/registration.c ****         lwm2m_free(query);
 331:/home/baikal/workspace/C50/Huawei_IoT_Agent_Tiny_SDK_Linux//lwm2m/core/registration.c ****         return COAP_503_SERVICE_UNAVAILABLE;
 332:/home/baikal/workspace/C50/Huawei_IoT_Agent_Tiny_SDK_Linux//lwm2m/core/registration.c ****     }
 333:/home/baikal/workspace/C50/Huawei_IoT_Agent_Tiny_SDK_Linux//lwm2m/core/registration.c **** 
 334:/home/baikal/workspace/C50/Huawei_IoT_Agent_Tiny_SDK_Linux//lwm2m/core/registration.c ****     lwm2m_free(payload);
 335:/home/baikal/workspace/C50/Huawei_IoT_Agent_Tiny_SDK_Linux//lwm2m/core/registration.c ****     lwm2m_free(query);
GAS LISTING /tmp/ccTnshMj.s 			page 7


 336:/home/baikal/workspace/C50/Huawei_IoT_Agent_Tiny_SDK_Linux//lwm2m/core/registration.c **** 
 337:/home/baikal/workspace/C50/Huawei_IoT_Agent_Tiny_SDK_Linux//lwm2m/core/registration.c ****     server->status = STATE_REG_PENDING;
 338:/home/baikal/workspace/C50/Huawei_IoT_Agent_Tiny_SDK_Linux//lwm2m/core/registration.c **** 
 339:/home/baikal/workspace/C50/Huawei_IoT_Agent_Tiny_SDK_Linux//lwm2m/core/registration.c ****     return COAP_NO_ERROR;
 340:/home/baikal/workspace/C50/Huawei_IoT_Agent_Tiny_SDK_Linux//lwm2m/core/registration.c **** }
 341:/home/baikal/workspace/C50/Huawei_IoT_Agent_Tiny_SDK_Linux//lwm2m/core/registration.c **** 
 342:/home/baikal/workspace/C50/Huawei_IoT_Agent_Tiny_SDK_Linux//lwm2m/core/registration.c **** static void prv_handleRegistrationUpdateReply(lwm2m_transaction_t *transacP,
 343:/home/baikal/workspace/C50/Huawei_IoT_Agent_Tiny_SDK_Linux//lwm2m/core/registration.c ****         void *message)
 344:/home/baikal/workspace/C50/Huawei_IoT_Agent_Tiny_SDK_Linux//lwm2m/core/registration.c **** {
 345:/home/baikal/workspace/C50/Huawei_IoT_Agent_Tiny_SDK_Linux//lwm2m/core/registration.c ****     coap_packet_t *packet = (coap_packet_t *)message;
 346:/home/baikal/workspace/C50/Huawei_IoT_Agent_Tiny_SDK_Linux//lwm2m/core/registration.c ****     lwm2m_server_t *targetP = (lwm2m_server_t *)(transacP->userData);
 347:/home/baikal/workspace/C50/Huawei_IoT_Agent_Tiny_SDK_Linux//lwm2m/core/registration.c **** 
 348:/home/baikal/workspace/C50/Huawei_IoT_Agent_Tiny_SDK_Linux//lwm2m/core/registration.c ****     if (targetP->status == STATE_REG_UPDATE_PENDING)
 349:/home/baikal/workspace/C50/Huawei_IoT_Agent_Tiny_SDK_Linux//lwm2m/core/registration.c ****     {
 350:/home/baikal/workspace/C50/Huawei_IoT_Agent_Tiny_SDK_Linux//lwm2m/core/registration.c ****         time_t tv_sec = lwm2m_gettime();
 351:/home/baikal/workspace/C50/Huawei_IoT_Agent_Tiny_SDK_Linux//lwm2m/core/registration.c ****         if (tv_sec )
 352:/home/baikal/workspace/C50/Huawei_IoT_Agent_Tiny_SDK_Linux//lwm2m/core/registration.c ****         {
 353:/home/baikal/workspace/C50/Huawei_IoT_Agent_Tiny_SDK_Linux//lwm2m/core/registration.c ****             targetP->registration = tv_sec;
 354:/home/baikal/workspace/C50/Huawei_IoT_Agent_Tiny_SDK_Linux//lwm2m/core/registration.c ****         }
 355:/home/baikal/workspace/C50/Huawei_IoT_Agent_Tiny_SDK_Linux//lwm2m/core/registration.c ****         if (packet != NULL && packet->code == COAP_204_CHANGED)
 356:/home/baikal/workspace/C50/Huawei_IoT_Agent_Tiny_SDK_Linux//lwm2m/core/registration.c ****         {
 357:/home/baikal/workspace/C50/Huawei_IoT_Agent_Tiny_SDK_Linux//lwm2m/core/registration.c ****             targetP->status = STATE_REGISTERED;
 358:/home/baikal/workspace/C50/Huawei_IoT_Agent_Tiny_SDK_Linux//lwm2m/core/registration.c ****             LOG("Registration update successful");
 359:/home/baikal/workspace/C50/Huawei_IoT_Agent_Tiny_SDK_Linux//lwm2m/core/registration.c ****         }
 360:/home/baikal/workspace/C50/Huawei_IoT_Agent_Tiny_SDK_Linux//lwm2m/core/registration.c ****         else
 361:/home/baikal/workspace/C50/Huawei_IoT_Agent_Tiny_SDK_Linux//lwm2m/core/registration.c ****         {
 362:/home/baikal/workspace/C50/Huawei_IoT_Agent_Tiny_SDK_Linux//lwm2m/core/registration.c ****             targetP->status = STATE_REG_FAILED;
 363:/home/baikal/workspace/C50/Huawei_IoT_Agent_Tiny_SDK_Linux//lwm2m/core/registration.c ****             LOG("Registration update failed");
 364:/home/baikal/workspace/C50/Huawei_IoT_Agent_Tiny_SDK_Linux//lwm2m/core/registration.c ****         }
 365:/home/baikal/workspace/C50/Huawei_IoT_Agent_Tiny_SDK_Linux//lwm2m/core/registration.c ****     }
 366:/home/baikal/workspace/C50/Huawei_IoT_Agent_Tiny_SDK_Linux//lwm2m/core/registration.c **** }
 367:/home/baikal/workspace/C50/Huawei_IoT_Agent_Tiny_SDK_Linux//lwm2m/core/registration.c **** 
 368:/home/baikal/workspace/C50/Huawei_IoT_Agent_Tiny_SDK_Linux//lwm2m/core/registration.c **** static int prv_updateRegistration(lwm2m_context_t *contextP,
 369:/home/baikal/workspace/C50/Huawei_IoT_Agent_Tiny_SDK_Linux//lwm2m/core/registration.c ****                                   lwm2m_server_t *server,
 370:/home/baikal/workspace/C50/Huawei_IoT_Agent_Tiny_SDK_Linux//lwm2m/core/registration.c ****                                   bool withObjects)
 371:/home/baikal/workspace/C50/Huawei_IoT_Agent_Tiny_SDK_Linux//lwm2m/core/registration.c **** {
 372:/home/baikal/workspace/C50/Huawei_IoT_Agent_Tiny_SDK_Linux//lwm2m/core/registration.c ****     lwm2m_transaction_t *transaction;
 373:/home/baikal/workspace/C50/Huawei_IoT_Agent_Tiny_SDK_Linux//lwm2m/core/registration.c ****     uint8_t *payload = NULL;
 374:/home/baikal/workspace/C50/Huawei_IoT_Agent_Tiny_SDK_Linux//lwm2m/core/registration.c ****     int payload_length;
 375:/home/baikal/workspace/C50/Huawei_IoT_Agent_Tiny_SDK_Linux//lwm2m/core/registration.c **** 
 376:/home/baikal/workspace/C50/Huawei_IoT_Agent_Tiny_SDK_Linux//lwm2m/core/registration.c ****     transaction = transaction_new(server->sessionH, COAP_POST, NULL, NULL, contextP->nextMID++, 4, 
 377:/home/baikal/workspace/C50/Huawei_IoT_Agent_Tiny_SDK_Linux//lwm2m/core/registration.c ****     if (transaction == NULL) return COAP_500_INTERNAL_SERVER_ERROR;
 378:/home/baikal/workspace/C50/Huawei_IoT_Agent_Tiny_SDK_Linux//lwm2m/core/registration.c **** 
 379:/home/baikal/workspace/C50/Huawei_IoT_Agent_Tiny_SDK_Linux//lwm2m/core/registration.c ****     coap_set_header_uri_path(transaction->message, server->location);
 380:/home/baikal/workspace/C50/Huawei_IoT_Agent_Tiny_SDK_Linux//lwm2m/core/registration.c **** 
 381:/home/baikal/workspace/C50/Huawei_IoT_Agent_Tiny_SDK_Linux//lwm2m/core/registration.c ****     if (withObjects == true)
 382:/home/baikal/workspace/C50/Huawei_IoT_Agent_Tiny_SDK_Linux//lwm2m/core/registration.c ****     {
 383:/home/baikal/workspace/C50/Huawei_IoT_Agent_Tiny_SDK_Linux//lwm2m/core/registration.c ****         payload_length = object_getRegisterPayloadBufferLength(contextP);
 384:/home/baikal/workspace/C50/Huawei_IoT_Agent_Tiny_SDK_Linux//lwm2m/core/registration.c ****         if(payload_length == 0)
 385:/home/baikal/workspace/C50/Huawei_IoT_Agent_Tiny_SDK_Linux//lwm2m/core/registration.c ****         {
 386:/home/baikal/workspace/C50/Huawei_IoT_Agent_Tiny_SDK_Linux//lwm2m/core/registration.c ****             transaction_free(transaction);
 387:/home/baikal/workspace/C50/Huawei_IoT_Agent_Tiny_SDK_Linux//lwm2m/core/registration.c ****             return COAP_500_INTERNAL_SERVER_ERROR;
 388:/home/baikal/workspace/C50/Huawei_IoT_Agent_Tiny_SDK_Linux//lwm2m/core/registration.c ****         }
 389:/home/baikal/workspace/C50/Huawei_IoT_Agent_Tiny_SDK_Linux//lwm2m/core/registration.c **** 
 390:/home/baikal/workspace/C50/Huawei_IoT_Agent_Tiny_SDK_Linux//lwm2m/core/registration.c ****         payload = lwm2m_malloc(payload_length);
 391:/home/baikal/workspace/C50/Huawei_IoT_Agent_Tiny_SDK_Linux//lwm2m/core/registration.c ****         if(!payload)
 392:/home/baikal/workspace/C50/Huawei_IoT_Agent_Tiny_SDK_Linux//lwm2m/core/registration.c ****         {
GAS LISTING /tmp/ccTnshMj.s 			page 8


 393:/home/baikal/workspace/C50/Huawei_IoT_Agent_Tiny_SDK_Linux//lwm2m/core/registration.c ****             transaction_free(transaction);
 394:/home/baikal/workspace/C50/Huawei_IoT_Agent_Tiny_SDK_Linux//lwm2m/core/registration.c ****             return COAP_500_INTERNAL_SERVER_ERROR;
 395:/home/baikal/workspace/C50/Huawei_IoT_Agent_Tiny_SDK_Linux//lwm2m/core/registration.c ****         }
 396:/home/baikal/workspace/C50/Huawei_IoT_Agent_Tiny_SDK_Linux//lwm2m/core/registration.c **** 
 397:/home/baikal/workspace/C50/Huawei_IoT_Agent_Tiny_SDK_Linux//lwm2m/core/registration.c ****         payload_length = object_getRegisterPayload(contextP, payload, payload_length);
 398:/home/baikal/workspace/C50/Huawei_IoT_Agent_Tiny_SDK_Linux//lwm2m/core/registration.c ****         if(payload_length == 0)
 399:/home/baikal/workspace/C50/Huawei_IoT_Agent_Tiny_SDK_Linux//lwm2m/core/registration.c ****         {
 400:/home/baikal/workspace/C50/Huawei_IoT_Agent_Tiny_SDK_Linux//lwm2m/core/registration.c ****             transaction_free(transaction);
 401:/home/baikal/workspace/C50/Huawei_IoT_Agent_Tiny_SDK_Linux//lwm2m/core/registration.c ****             lwm2m_free(payload);
 402:/home/baikal/workspace/C50/Huawei_IoT_Agent_Tiny_SDK_Linux//lwm2m/core/registration.c ****             return COAP_500_INTERNAL_SERVER_ERROR;
 403:/home/baikal/workspace/C50/Huawei_IoT_Agent_Tiny_SDK_Linux//lwm2m/core/registration.c ****         }
 404:/home/baikal/workspace/C50/Huawei_IoT_Agent_Tiny_SDK_Linux//lwm2m/core/registration.c ****         coap_set_payload(transaction->message, payload, payload_length);
 405:/home/baikal/workspace/C50/Huawei_IoT_Agent_Tiny_SDK_Linux//lwm2m/core/registration.c ****     }
 406:/home/baikal/workspace/C50/Huawei_IoT_Agent_Tiny_SDK_Linux//lwm2m/core/registration.c **** 
 407:/home/baikal/workspace/C50/Huawei_IoT_Agent_Tiny_SDK_Linux//lwm2m/core/registration.c ****     transaction->callback = prv_handleRegistrationUpdateReply;
 408:/home/baikal/workspace/C50/Huawei_IoT_Agent_Tiny_SDK_Linux//lwm2m/core/registration.c ****     transaction->userData = (void *) server;
 409:/home/baikal/workspace/C50/Huawei_IoT_Agent_Tiny_SDK_Linux//lwm2m/core/registration.c **** 
 410:/home/baikal/workspace/C50/Huawei_IoT_Agent_Tiny_SDK_Linux//lwm2m/core/registration.c ****     contextP->transactionList = (lwm2m_transaction_t *)LWM2M_LIST_ADD(contextP->transactionList, tr
 411:/home/baikal/workspace/C50/Huawei_IoT_Agent_Tiny_SDK_Linux//lwm2m/core/registration.c **** 
 412:/home/baikal/workspace/C50/Huawei_IoT_Agent_Tiny_SDK_Linux//lwm2m/core/registration.c ****     if (transaction_send(contextP, transaction) == 0)
 413:/home/baikal/workspace/C50/Huawei_IoT_Agent_Tiny_SDK_Linux//lwm2m/core/registration.c ****     {
 414:/home/baikal/workspace/C50/Huawei_IoT_Agent_Tiny_SDK_Linux//lwm2m/core/registration.c ****         server->status = STATE_REG_UPDATE_PENDING;
 415:/home/baikal/workspace/C50/Huawei_IoT_Agent_Tiny_SDK_Linux//lwm2m/core/registration.c ****     }
 416:/home/baikal/workspace/C50/Huawei_IoT_Agent_Tiny_SDK_Linux//lwm2m/core/registration.c **** 
 417:/home/baikal/workspace/C50/Huawei_IoT_Agent_Tiny_SDK_Linux//lwm2m/core/registration.c ****     if (withObjects == true)
 418:/home/baikal/workspace/C50/Huawei_IoT_Agent_Tiny_SDK_Linux//lwm2m/core/registration.c ****     {
 419:/home/baikal/workspace/C50/Huawei_IoT_Agent_Tiny_SDK_Linux//lwm2m/core/registration.c ****         lwm2m_free(payload);
 420:/home/baikal/workspace/C50/Huawei_IoT_Agent_Tiny_SDK_Linux//lwm2m/core/registration.c ****     }
 421:/home/baikal/workspace/C50/Huawei_IoT_Agent_Tiny_SDK_Linux//lwm2m/core/registration.c **** 
 422:/home/baikal/workspace/C50/Huawei_IoT_Agent_Tiny_SDK_Linux//lwm2m/core/registration.c ****     return COAP_NO_ERROR;
 423:/home/baikal/workspace/C50/Huawei_IoT_Agent_Tiny_SDK_Linux//lwm2m/core/registration.c **** }
 424:/home/baikal/workspace/C50/Huawei_IoT_Agent_Tiny_SDK_Linux//lwm2m/core/registration.c **** 
 425:/home/baikal/workspace/C50/Huawei_IoT_Agent_Tiny_SDK_Linux//lwm2m/core/registration.c **** // update the registration of a given server
 426:/home/baikal/workspace/C50/Huawei_IoT_Agent_Tiny_SDK_Linux//lwm2m/core/registration.c **** int lwm2m_update_registration(lwm2m_context_t *contextP,
 427:/home/baikal/workspace/C50/Huawei_IoT_Agent_Tiny_SDK_Linux//lwm2m/core/registration.c ****                               uint16_t shortServerID,
 428:/home/baikal/workspace/C50/Huawei_IoT_Agent_Tiny_SDK_Linux//lwm2m/core/registration.c ****                               bool withObjects)
 429:/home/baikal/workspace/C50/Huawei_IoT_Agent_Tiny_SDK_Linux//lwm2m/core/registration.c **** {
 430:/home/baikal/workspace/C50/Huawei_IoT_Agent_Tiny_SDK_Linux//lwm2m/core/registration.c ****     lwm2m_server_t *targetP;
 431:/home/baikal/workspace/C50/Huawei_IoT_Agent_Tiny_SDK_Linux//lwm2m/core/registration.c ****     uint8_t result;
 432:/home/baikal/workspace/C50/Huawei_IoT_Agent_Tiny_SDK_Linux//lwm2m/core/registration.c **** 
 433:/home/baikal/workspace/C50/Huawei_IoT_Agent_Tiny_SDK_Linux//lwm2m/core/registration.c ****     LOG_ARG("State: %s, shortServerID: %d", STR_STATE(contextP->state), shortServerID);
 434:/home/baikal/workspace/C50/Huawei_IoT_Agent_Tiny_SDK_Linux//lwm2m/core/registration.c **** 
 435:/home/baikal/workspace/C50/Huawei_IoT_Agent_Tiny_SDK_Linux//lwm2m/core/registration.c ****     result = COAP_NO_ERROR;
 436:/home/baikal/workspace/C50/Huawei_IoT_Agent_Tiny_SDK_Linux//lwm2m/core/registration.c **** 
 437:/home/baikal/workspace/C50/Huawei_IoT_Agent_Tiny_SDK_Linux//lwm2m/core/registration.c ****     targetP = contextP->serverList;
 438:/home/baikal/workspace/C50/Huawei_IoT_Agent_Tiny_SDK_Linux//lwm2m/core/registration.c ****     if (targetP == NULL)
 439:/home/baikal/workspace/C50/Huawei_IoT_Agent_Tiny_SDK_Linux//lwm2m/core/registration.c ****     {
 440:/home/baikal/workspace/C50/Huawei_IoT_Agent_Tiny_SDK_Linux//lwm2m/core/registration.c ****         if (object_getServers(contextP, false) == -1)
 441:/home/baikal/workspace/C50/Huawei_IoT_Agent_Tiny_SDK_Linux//lwm2m/core/registration.c ****         {
 442:/home/baikal/workspace/C50/Huawei_IoT_Agent_Tiny_SDK_Linux//lwm2m/core/registration.c ****             LOG("No server found");
 443:/home/baikal/workspace/C50/Huawei_IoT_Agent_Tiny_SDK_Linux//lwm2m/core/registration.c ****             return COAP_404_NOT_FOUND;
 444:/home/baikal/workspace/C50/Huawei_IoT_Agent_Tiny_SDK_Linux//lwm2m/core/registration.c ****         }
 445:/home/baikal/workspace/C50/Huawei_IoT_Agent_Tiny_SDK_Linux//lwm2m/core/registration.c ****     }
 446:/home/baikal/workspace/C50/Huawei_IoT_Agent_Tiny_SDK_Linux//lwm2m/core/registration.c ****     while (targetP != NULL && result == COAP_NO_ERROR)
 447:/home/baikal/workspace/C50/Huawei_IoT_Agent_Tiny_SDK_Linux//lwm2m/core/registration.c ****     {
 448:/home/baikal/workspace/C50/Huawei_IoT_Agent_Tiny_SDK_Linux//lwm2m/core/registration.c ****         if (shortServerID != 0)
 449:/home/baikal/workspace/C50/Huawei_IoT_Agent_Tiny_SDK_Linux//lwm2m/core/registration.c ****         {
GAS LISTING /tmp/ccTnshMj.s 			page 9


 450:/home/baikal/workspace/C50/Huawei_IoT_Agent_Tiny_SDK_Linux//lwm2m/core/registration.c ****             if (targetP->shortID == shortServerID)
 451:/home/baikal/workspace/C50/Huawei_IoT_Agent_Tiny_SDK_Linux//lwm2m/core/registration.c ****             {
 452:/home/baikal/workspace/C50/Huawei_IoT_Agent_Tiny_SDK_Linux//lwm2m/core/registration.c ****                 // found the server, trigger the update transaction
 453:/home/baikal/workspace/C50/Huawei_IoT_Agent_Tiny_SDK_Linux//lwm2m/core/registration.c ****                 if (targetP->status == STATE_REGISTERED
 454:/home/baikal/workspace/C50/Huawei_IoT_Agent_Tiny_SDK_Linux//lwm2m/core/registration.c ****                         || targetP->status == STATE_REG_UPDATE_PENDING)
 455:/home/baikal/workspace/C50/Huawei_IoT_Agent_Tiny_SDK_Linux//lwm2m/core/registration.c ****                 {
 456:/home/baikal/workspace/C50/Huawei_IoT_Agent_Tiny_SDK_Linux//lwm2m/core/registration.c ****                     if (withObjects == true)
 457:/home/baikal/workspace/C50/Huawei_IoT_Agent_Tiny_SDK_Linux//lwm2m/core/registration.c ****                     {
 458:/home/baikal/workspace/C50/Huawei_IoT_Agent_Tiny_SDK_Linux//lwm2m/core/registration.c ****                         targetP->status = STATE_REG_FULL_UPDATE_NEEDED;
 459:/home/baikal/workspace/C50/Huawei_IoT_Agent_Tiny_SDK_Linux//lwm2m/core/registration.c ****                     }
 460:/home/baikal/workspace/C50/Huawei_IoT_Agent_Tiny_SDK_Linux//lwm2m/core/registration.c ****                     else
 461:/home/baikal/workspace/C50/Huawei_IoT_Agent_Tiny_SDK_Linux//lwm2m/core/registration.c ****                     {
 462:/home/baikal/workspace/C50/Huawei_IoT_Agent_Tiny_SDK_Linux//lwm2m/core/registration.c ****                         targetP->status = STATE_REG_UPDATE_NEEDED;
 463:/home/baikal/workspace/C50/Huawei_IoT_Agent_Tiny_SDK_Linux//lwm2m/core/registration.c ****                     }
 464:/home/baikal/workspace/C50/Huawei_IoT_Agent_Tiny_SDK_Linux//lwm2m/core/registration.c ****                     return COAP_NO_ERROR;
 465:/home/baikal/workspace/C50/Huawei_IoT_Agent_Tiny_SDK_Linux//lwm2m/core/registration.c ****                 }
 466:/home/baikal/workspace/C50/Huawei_IoT_Agent_Tiny_SDK_Linux//lwm2m/core/registration.c ****                 else if ((targetP->status == STATE_REG_FULL_UPDATE_NEEDED)
 467:/home/baikal/workspace/C50/Huawei_IoT_Agent_Tiny_SDK_Linux//lwm2m/core/registration.c ****                          || (targetP->status == STATE_REG_UPDATE_NEEDED))
 468:/home/baikal/workspace/C50/Huawei_IoT_Agent_Tiny_SDK_Linux//lwm2m/core/registration.c ****                 {
 469:/home/baikal/workspace/C50/Huawei_IoT_Agent_Tiny_SDK_Linux//lwm2m/core/registration.c ****                     // if REG (FULL) UPDATE is already set, returns COAP_NO_ERROR
 470:/home/baikal/workspace/C50/Huawei_IoT_Agent_Tiny_SDK_Linux//lwm2m/core/registration.c ****                     if (withObjects == true)
 471:/home/baikal/workspace/C50/Huawei_IoT_Agent_Tiny_SDK_Linux//lwm2m/core/registration.c ****                     {
 472:/home/baikal/workspace/C50/Huawei_IoT_Agent_Tiny_SDK_Linux//lwm2m/core/registration.c ****                         targetP->status = STATE_REG_FULL_UPDATE_NEEDED;
 473:/home/baikal/workspace/C50/Huawei_IoT_Agent_Tiny_SDK_Linux//lwm2m/core/registration.c ****                     }
 474:/home/baikal/workspace/C50/Huawei_IoT_Agent_Tiny_SDK_Linux//lwm2m/core/registration.c ****                     return COAP_NO_ERROR;
 475:/home/baikal/workspace/C50/Huawei_IoT_Agent_Tiny_SDK_Linux//lwm2m/core/registration.c ****                 }
 476:/home/baikal/workspace/C50/Huawei_IoT_Agent_Tiny_SDK_Linux//lwm2m/core/registration.c ****                 else
 477:/home/baikal/workspace/C50/Huawei_IoT_Agent_Tiny_SDK_Linux//lwm2m/core/registration.c ****                 {
 478:/home/baikal/workspace/C50/Huawei_IoT_Agent_Tiny_SDK_Linux//lwm2m/core/registration.c ****                     return COAP_400_BAD_REQUEST;
 479:/home/baikal/workspace/C50/Huawei_IoT_Agent_Tiny_SDK_Linux//lwm2m/core/registration.c ****                 }
 480:/home/baikal/workspace/C50/Huawei_IoT_Agent_Tiny_SDK_Linux//lwm2m/core/registration.c ****             }
 481:/home/baikal/workspace/C50/Huawei_IoT_Agent_Tiny_SDK_Linux//lwm2m/core/registration.c ****         }
 482:/home/baikal/workspace/C50/Huawei_IoT_Agent_Tiny_SDK_Linux//lwm2m/core/registration.c ****         else
 483:/home/baikal/workspace/C50/Huawei_IoT_Agent_Tiny_SDK_Linux//lwm2m/core/registration.c ****         {
 484:/home/baikal/workspace/C50/Huawei_IoT_Agent_Tiny_SDK_Linux//lwm2m/core/registration.c ****             if (targetP->status == STATE_REGISTERED
 485:/home/baikal/workspace/C50/Huawei_IoT_Agent_Tiny_SDK_Linux//lwm2m/core/registration.c ****                     || targetP->status == STATE_REG_UPDATE_PENDING)
 486:/home/baikal/workspace/C50/Huawei_IoT_Agent_Tiny_SDK_Linux//lwm2m/core/registration.c ****             {
 487:/home/baikal/workspace/C50/Huawei_IoT_Agent_Tiny_SDK_Linux//lwm2m/core/registration.c ****                 if (withObjects == true)
 488:/home/baikal/workspace/C50/Huawei_IoT_Agent_Tiny_SDK_Linux//lwm2m/core/registration.c ****                 {
 489:/home/baikal/workspace/C50/Huawei_IoT_Agent_Tiny_SDK_Linux//lwm2m/core/registration.c ****                     targetP->status = STATE_REG_FULL_UPDATE_NEEDED;
 490:/home/baikal/workspace/C50/Huawei_IoT_Agent_Tiny_SDK_Linux//lwm2m/core/registration.c ****                 }
 491:/home/baikal/workspace/C50/Huawei_IoT_Agent_Tiny_SDK_Linux//lwm2m/core/registration.c ****                 else
 492:/home/baikal/workspace/C50/Huawei_IoT_Agent_Tiny_SDK_Linux//lwm2m/core/registration.c ****                 {
 493:/home/baikal/workspace/C50/Huawei_IoT_Agent_Tiny_SDK_Linux//lwm2m/core/registration.c ****                     targetP->status = STATE_REG_UPDATE_NEEDED;
 494:/home/baikal/workspace/C50/Huawei_IoT_Agent_Tiny_SDK_Linux//lwm2m/core/registration.c ****                 }
 495:/home/baikal/workspace/C50/Huawei_IoT_Agent_Tiny_SDK_Linux//lwm2m/core/registration.c ****             }
 496:/home/baikal/workspace/C50/Huawei_IoT_Agent_Tiny_SDK_Linux//lwm2m/core/registration.c ****         }
 497:/home/baikal/workspace/C50/Huawei_IoT_Agent_Tiny_SDK_Linux//lwm2m/core/registration.c ****         targetP = targetP->next;
 498:/home/baikal/workspace/C50/Huawei_IoT_Agent_Tiny_SDK_Linux//lwm2m/core/registration.c ****     }
 499:/home/baikal/workspace/C50/Huawei_IoT_Agent_Tiny_SDK_Linux//lwm2m/core/registration.c **** 
 500:/home/baikal/workspace/C50/Huawei_IoT_Agent_Tiny_SDK_Linux//lwm2m/core/registration.c ****     if (shortServerID != 0
 501:/home/baikal/workspace/C50/Huawei_IoT_Agent_Tiny_SDK_Linux//lwm2m/core/registration.c ****             && targetP == NULL)
 502:/home/baikal/workspace/C50/Huawei_IoT_Agent_Tiny_SDK_Linux//lwm2m/core/registration.c ****     {
 503:/home/baikal/workspace/C50/Huawei_IoT_Agent_Tiny_SDK_Linux//lwm2m/core/registration.c ****         // no server found
 504:/home/baikal/workspace/C50/Huawei_IoT_Agent_Tiny_SDK_Linux//lwm2m/core/registration.c ****         result = COAP_404_NOT_FOUND;
 505:/home/baikal/workspace/C50/Huawei_IoT_Agent_Tiny_SDK_Linux//lwm2m/core/registration.c ****     }
 506:/home/baikal/workspace/C50/Huawei_IoT_Agent_Tiny_SDK_Linux//lwm2m/core/registration.c **** 
GAS LISTING /tmp/ccTnshMj.s 			page 10


 507:/home/baikal/workspace/C50/Huawei_IoT_Agent_Tiny_SDK_Linux//lwm2m/core/registration.c ****     return result;
 508:/home/baikal/workspace/C50/Huawei_IoT_Agent_Tiny_SDK_Linux//lwm2m/core/registration.c **** }
 509:/home/baikal/workspace/C50/Huawei_IoT_Agent_Tiny_SDK_Linux//lwm2m/core/registration.c **** //serverlistobjectlist
 510:/home/baikal/workspace/C50/Huawei_IoT_Agent_Tiny_SDK_Linux//lwm2m/core/registration.c **** uint8_t registration_start(lwm2m_context_t *contextP)
 511:/home/baikal/workspace/C50/Huawei_IoT_Agent_Tiny_SDK_Linux//lwm2m/core/registration.c **** {
 512:/home/baikal/workspace/C50/Huawei_IoT_Agent_Tiny_SDK_Linux//lwm2m/core/registration.c ****     lwm2m_server_t *targetP;
 513:/home/baikal/workspace/C50/Huawei_IoT_Agent_Tiny_SDK_Linux//lwm2m/core/registration.c ****     uint8_t result;
 514:/home/baikal/workspace/C50/Huawei_IoT_Agent_Tiny_SDK_Linux//lwm2m/core/registration.c **** 
 515:/home/baikal/workspace/C50/Huawei_IoT_Agent_Tiny_SDK_Linux//lwm2m/core/registration.c ****     LOG_ARG("State: %s", STR_STATE(contextP->state));
 516:/home/baikal/workspace/C50/Huawei_IoT_Agent_Tiny_SDK_Linux//lwm2m/core/registration.c **** 
 517:/home/baikal/workspace/C50/Huawei_IoT_Agent_Tiny_SDK_Linux//lwm2m/core/registration.c ****     result = COAP_NO_ERROR;
 518:/home/baikal/workspace/C50/Huawei_IoT_Agent_Tiny_SDK_Linux//lwm2m/core/registration.c **** 
 519:/home/baikal/workspace/C50/Huawei_IoT_Agent_Tiny_SDK_Linux//lwm2m/core/registration.c ****     targetP = contextP->serverList;
 520:/home/baikal/workspace/C50/Huawei_IoT_Agent_Tiny_SDK_Linux//lwm2m/core/registration.c ****     while (targetP != NULL && result == COAP_NO_ERROR)
 521:/home/baikal/workspace/C50/Huawei_IoT_Agent_Tiny_SDK_Linux//lwm2m/core/registration.c ****     {
 522:/home/baikal/workspace/C50/Huawei_IoT_Agent_Tiny_SDK_Linux//lwm2m/core/registration.c ****         if (targetP->status == STATE_DEREGISTERED
 523:/home/baikal/workspace/C50/Huawei_IoT_Agent_Tiny_SDK_Linux//lwm2m/core/registration.c ****                 || targetP->status == STATE_REG_FAILED)
 524:/home/baikal/workspace/C50/Huawei_IoT_Agent_Tiny_SDK_Linux//lwm2m/core/registration.c ****         {
 525:/home/baikal/workspace/C50/Huawei_IoT_Agent_Tiny_SDK_Linux//lwm2m/core/registration.c ****             result = prv_register(contextP, targetP);
 526:/home/baikal/workspace/C50/Huawei_IoT_Agent_Tiny_SDK_Linux//lwm2m/core/registration.c ****         }
 527:/home/baikal/workspace/C50/Huawei_IoT_Agent_Tiny_SDK_Linux//lwm2m/core/registration.c ****         targetP = targetP->next;
 528:/home/baikal/workspace/C50/Huawei_IoT_Agent_Tiny_SDK_Linux//lwm2m/core/registration.c ****     }
 529:/home/baikal/workspace/C50/Huawei_IoT_Agent_Tiny_SDK_Linux//lwm2m/core/registration.c **** 
 530:/home/baikal/workspace/C50/Huawei_IoT_Agent_Tiny_SDK_Linux//lwm2m/core/registration.c ****     return result;
 531:/home/baikal/workspace/C50/Huawei_IoT_Agent_Tiny_SDK_Linux//lwm2m/core/registration.c **** }
 532:/home/baikal/workspace/C50/Huawei_IoT_Agent_Tiny_SDK_Linux//lwm2m/core/registration.c **** 
 533:/home/baikal/workspace/C50/Huawei_IoT_Agent_Tiny_SDK_Linux//lwm2m/core/registration.c **** 
 534:/home/baikal/workspace/C50/Huawei_IoT_Agent_Tiny_SDK_Linux//lwm2m/core/registration.c **** /*
 535:/home/baikal/workspace/C50/Huawei_IoT_Agent_Tiny_SDK_Linux//lwm2m/core/registration.c ****  * Returns STATE_REG_PENDING if at least one registration is still pending
 536:/home/baikal/workspace/C50/Huawei_IoT_Agent_Tiny_SDK_Linux//lwm2m/core/registration.c ****  * Returns STATE_REGISTERED if no registration is pending and there is at least one server the clie
 537:/home/baikal/workspace/C50/Huawei_IoT_Agent_Tiny_SDK_Linux//lwm2m/core/registration.c ****  * Returns STATE_REG_FAILED if all registration failed.
 538:/home/baikal/workspace/C50/Huawei_IoT_Agent_Tiny_SDK_Linux//lwm2m/core/registration.c ****  */
 539:/home/baikal/workspace/C50/Huawei_IoT_Agent_Tiny_SDK_Linux//lwm2m/core/registration.c **** lwm2m_status_t registration_getStatus(lwm2m_context_t *contextP)
 540:/home/baikal/workspace/C50/Huawei_IoT_Agent_Tiny_SDK_Linux//lwm2m/core/registration.c **** {
 541:/home/baikal/workspace/C50/Huawei_IoT_Agent_Tiny_SDK_Linux//lwm2m/core/registration.c ****     lwm2m_server_t *targetP;
 542:/home/baikal/workspace/C50/Huawei_IoT_Agent_Tiny_SDK_Linux//lwm2m/core/registration.c ****     lwm2m_status_t reg_status;
 543:/home/baikal/workspace/C50/Huawei_IoT_Agent_Tiny_SDK_Linux//lwm2m/core/registration.c **** 
 544:/home/baikal/workspace/C50/Huawei_IoT_Agent_Tiny_SDK_Linux//lwm2m/core/registration.c ****     LOG_ARG("State: %s", STR_STATE(contextP->state));
 545:/home/baikal/workspace/C50/Huawei_IoT_Agent_Tiny_SDK_Linux//lwm2m/core/registration.c **** 
 546:/home/baikal/workspace/C50/Huawei_IoT_Agent_Tiny_SDK_Linux//lwm2m/core/registration.c ****     targetP = contextP->serverList;
 547:/home/baikal/workspace/C50/Huawei_IoT_Agent_Tiny_SDK_Linux//lwm2m/core/registration.c ****     reg_status = STATE_REG_FAILED;
 548:/home/baikal/workspace/C50/Huawei_IoT_Agent_Tiny_SDK_Linux//lwm2m/core/registration.c **** 
 549:/home/baikal/workspace/C50/Huawei_IoT_Agent_Tiny_SDK_Linux//lwm2m/core/registration.c ****     while (targetP != NULL)
 550:/home/baikal/workspace/C50/Huawei_IoT_Agent_Tiny_SDK_Linux//lwm2m/core/registration.c ****     {
 551:/home/baikal/workspace/C50/Huawei_IoT_Agent_Tiny_SDK_Linux//lwm2m/core/registration.c ****         LOG_ARG("targetP->status: %s", STR_STATUS(targetP->status));
 552:/home/baikal/workspace/C50/Huawei_IoT_Agent_Tiny_SDK_Linux//lwm2m/core/registration.c ****         switch (targetP->status)
 553:/home/baikal/workspace/C50/Huawei_IoT_Agent_Tiny_SDK_Linux//lwm2m/core/registration.c ****         {
 554:/home/baikal/workspace/C50/Huawei_IoT_Agent_Tiny_SDK_Linux//lwm2m/core/registration.c ****         case STATE_REGISTERED:
 555:/home/baikal/workspace/C50/Huawei_IoT_Agent_Tiny_SDK_Linux//lwm2m/core/registration.c ****         case STATE_REG_UPDATE_NEEDED:
 556:/home/baikal/workspace/C50/Huawei_IoT_Agent_Tiny_SDK_Linux//lwm2m/core/registration.c ****         case STATE_REG_FULL_UPDATE_NEEDED:
 557:/home/baikal/workspace/C50/Huawei_IoT_Agent_Tiny_SDK_Linux//lwm2m/core/registration.c ****         case STATE_REG_UPDATE_PENDING:
 558:/home/baikal/workspace/C50/Huawei_IoT_Agent_Tiny_SDK_Linux//lwm2m/core/registration.c ****             if (reg_status == STATE_REG_FAILED)
 559:/home/baikal/workspace/C50/Huawei_IoT_Agent_Tiny_SDK_Linux//lwm2m/core/registration.c ****             {
 560:/home/baikal/workspace/C50/Huawei_IoT_Agent_Tiny_SDK_Linux//lwm2m/core/registration.c ****                 reg_status = STATE_REGISTERED;
 561:/home/baikal/workspace/C50/Huawei_IoT_Agent_Tiny_SDK_Linux//lwm2m/core/registration.c ****             }
 562:/home/baikal/workspace/C50/Huawei_IoT_Agent_Tiny_SDK_Linux//lwm2m/core/registration.c ****             break;
 563:/home/baikal/workspace/C50/Huawei_IoT_Agent_Tiny_SDK_Linux//lwm2m/core/registration.c **** 
GAS LISTING /tmp/ccTnshMj.s 			page 11


 564:/home/baikal/workspace/C50/Huawei_IoT_Agent_Tiny_SDK_Linux//lwm2m/core/registration.c ****         case STATE_REG_PENDING:
 565:/home/baikal/workspace/C50/Huawei_IoT_Agent_Tiny_SDK_Linux//lwm2m/core/registration.c ****             reg_status = STATE_REG_PENDING;
 566:/home/baikal/workspace/C50/Huawei_IoT_Agent_Tiny_SDK_Linux//lwm2m/core/registration.c ****             break;
 567:/home/baikal/workspace/C50/Huawei_IoT_Agent_Tiny_SDK_Linux//lwm2m/core/registration.c **** 
 568:/home/baikal/workspace/C50/Huawei_IoT_Agent_Tiny_SDK_Linux//lwm2m/core/registration.c ****         case STATE_REG_FAILED:
 569:/home/baikal/workspace/C50/Huawei_IoT_Agent_Tiny_SDK_Linux//lwm2m/core/registration.c ****         case STATE_DEREG_PENDING:
 570:/home/baikal/workspace/C50/Huawei_IoT_Agent_Tiny_SDK_Linux//lwm2m/core/registration.c ****         case STATE_DEREGISTERED:
 571:/home/baikal/workspace/C50/Huawei_IoT_Agent_Tiny_SDK_Linux//lwm2m/core/registration.c ****         default:
 572:/home/baikal/workspace/C50/Huawei_IoT_Agent_Tiny_SDK_Linux//lwm2m/core/registration.c ****             break;
 573:/home/baikal/workspace/C50/Huawei_IoT_Agent_Tiny_SDK_Linux//lwm2m/core/registration.c ****         }
 574:/home/baikal/workspace/C50/Huawei_IoT_Agent_Tiny_SDK_Linux//lwm2m/core/registration.c ****         LOG_ARG("reg_status: %s", STR_STATUS(reg_status));
 575:/home/baikal/workspace/C50/Huawei_IoT_Agent_Tiny_SDK_Linux//lwm2m/core/registration.c **** 
 576:/home/baikal/workspace/C50/Huawei_IoT_Agent_Tiny_SDK_Linux//lwm2m/core/registration.c ****         targetP = targetP->next;
 577:/home/baikal/workspace/C50/Huawei_IoT_Agent_Tiny_SDK_Linux//lwm2m/core/registration.c ****     }
 578:/home/baikal/workspace/C50/Huawei_IoT_Agent_Tiny_SDK_Linux//lwm2m/core/registration.c **** 
 579:/home/baikal/workspace/C50/Huawei_IoT_Agent_Tiny_SDK_Linux//lwm2m/core/registration.c ****     return reg_status;
 580:/home/baikal/workspace/C50/Huawei_IoT_Agent_Tiny_SDK_Linux//lwm2m/core/registration.c **** }
 581:/home/baikal/workspace/C50/Huawei_IoT_Agent_Tiny_SDK_Linux//lwm2m/core/registration.c **** 
 582:/home/baikal/workspace/C50/Huawei_IoT_Agent_Tiny_SDK_Linux//lwm2m/core/registration.c **** static void prv_handleDeregistrationReply(lwm2m_transaction_t *transacP,
 583:/home/baikal/workspace/C50/Huawei_IoT_Agent_Tiny_SDK_Linux//lwm2m/core/registration.c ****         void *message)
 584:/home/baikal/workspace/C50/Huawei_IoT_Agent_Tiny_SDK_Linux//lwm2m/core/registration.c **** {
   9              		.loc 1 584 0
  10              		.cfi_startproc
  11              	.LVL0:
 585:/home/baikal/workspace/C50/Huawei_IoT_Agent_Tiny_SDK_Linux//lwm2m/core/registration.c ****     lwm2m_server_t *targetP;
 586:/home/baikal/workspace/C50/Huawei_IoT_Agent_Tiny_SDK_Linux//lwm2m/core/registration.c **** 
 587:/home/baikal/workspace/C50/Huawei_IoT_Agent_Tiny_SDK_Linux//lwm2m/core/registration.c ****     targetP = (lwm2m_server_t *)(transacP->userData);
  12              		.loc 1 587 0
  13 0000 488B4768 		movq	104(%rdi), %rax
  14              	.LVL1:
 588:/home/baikal/workspace/C50/Huawei_IoT_Agent_Tiny_SDK_Linux//lwm2m/core/registration.c ****     if (NULL != targetP)
  15              		.loc 1 588 0
  16 0004 4885C0   		testq	%rax, %rax
  17 0007 740D     		je	.L1
 589:/home/baikal/workspace/C50/Huawei_IoT_Agent_Tiny_SDK_Linux//lwm2m/core/registration.c ****     {
 590:/home/baikal/workspace/C50/Huawei_IoT_Agent_Tiny_SDK_Linux//lwm2m/core/registration.c ****         if (targetP->status == STATE_DEREG_PENDING)
  18              		.loc 1 590 0
  19 0009 83783007 		cmpl	$7, 48(%rax)
  20 000d 7507     		jne	.L1
 591:/home/baikal/workspace/C50/Huawei_IoT_Agent_Tiny_SDK_Linux//lwm2m/core/registration.c ****         {
 592:/home/baikal/workspace/C50/Huawei_IoT_Agent_Tiny_SDK_Linux//lwm2m/core/registration.c ****             targetP->status = STATE_DEREGISTERED;
  21              		.loc 1 592 0
  22 000f C7403000 		movl	$0, 48(%rax)
  22      000000
  23              	.L1:
  24 0016 F3C3     		rep ret
  25              		.cfi_endproc
  26              	.LFE72:
  28              		.section	.text.prv_handleRegistrationUpdateReply,"ax",@progbits
  30              	prv_handleRegistrationUpdateReply:
  31              	.LFB67:
 344:/home/baikal/workspace/C50/Huawei_IoT_Agent_Tiny_SDK_Linux//lwm2m/core/registration.c ****     coap_packet_t *packet = (coap_packet_t *)message;
  32              		.loc 1 344 0
  33              		.cfi_startproc
  34              	.LVL2:
  35 0000 55       		pushq	%rbp
  36              	.LCFI0:
GAS LISTING /tmp/ccTnshMj.s 			page 12


  37              		.cfi_def_cfa_offset 16
  38              		.cfi_offset 6, -16
  39 0001 53       		pushq	%rbx
  40              	.LCFI1:
  41              		.cfi_def_cfa_offset 24
  42              		.cfi_offset 3, -24
  43 0002 4883EC08 		subq	$8, %rsp
  44              	.LCFI2:
  45              		.cfi_def_cfa_offset 32
  46              	.LVL3:
 346:/home/baikal/workspace/C50/Huawei_IoT_Agent_Tiny_SDK_Linux//lwm2m/core/registration.c **** 
  47              		.loc 1 346 0
  48 0006 488B5F68 		movq	104(%rdi), %rbx
  49              	.LVL4:
 348:/home/baikal/workspace/C50/Huawei_IoT_Agent_Tiny_SDK_Linux//lwm2m/core/registration.c ****     {
  50              		.loc 1 348 0
  51 000a 837B3004 		cmpl	$4, 48(%rbx)
  52 000e 752C     		jne	.L3
  53 0010 4889F5   		movq	%rsi, %rbp
  54              	.LBB2:
 350:/home/baikal/workspace/C50/Huawei_IoT_Agent_Tiny_SDK_Linux//lwm2m/core/registration.c ****         if (tv_sec )
  55              		.loc 1 350 0
  56 0013 E8000000 		call	lwm2m_gettime
  56      00
  57              	.LVL5:
 351:/home/baikal/workspace/C50/Huawei_IoT_Agent_Tiny_SDK_Linux//lwm2m/core/registration.c ****         {
  58              		.loc 1 351 0
  59 0018 4885C0   		testq	%rax, %rax
  60 001b 7404     		je	.L5
 353:/home/baikal/workspace/C50/Huawei_IoT_Agent_Tiny_SDK_Linux//lwm2m/core/registration.c ****         }
  61              		.loc 1 353 0
  62 001d 48894318 		movq	%rax, 24(%rbx)
  63              	.L5:
 355:/home/baikal/workspace/C50/Huawei_IoT_Agent_Tiny_SDK_Linux//lwm2m/core/registration.c ****         {
  64              		.loc 1 355 0
  65 0021 4885ED   		testq	%rbp, %rbp
  66 0024 740F     		je	.L6
 355:/home/baikal/workspace/C50/Huawei_IoT_Agent_Tiny_SDK_Linux//lwm2m/core/registration.c ****         {
  67              		.loc 1 355 0 is_stmt 0 discriminator 1
  68 0026 807D1044 		cmpb	$68, 16(%rbp)
  69 002a 7509     		jne	.L6
 357:/home/baikal/workspace/C50/Huawei_IoT_Agent_Tiny_SDK_Linux//lwm2m/core/registration.c ****             LOG("Registration update successful");
  70              		.loc 1 357 0 is_stmt 1
  71 002c C7433002 		movl	$2, 48(%rbx)
  71      000000
  72 0033 EB07     		jmp	.L3
  73              	.L6:
 362:/home/baikal/workspace/C50/Huawei_IoT_Agent_Tiny_SDK_Linux//lwm2m/core/registration.c ****             LOG("Registration update failed");
  74              		.loc 1 362 0
  75 0035 C7433003 		movl	$3, 48(%rbx)
  75      000000
  76              	.LVL6:
  77              	.L3:
  78              	.LBE2:
 366:/home/baikal/workspace/C50/Huawei_IoT_Agent_Tiny_SDK_Linux//lwm2m/core/registration.c **** 
  79              		.loc 1 366 0
  80 003c 4883C408 		addq	$8, %rsp
GAS LISTING /tmp/ccTnshMj.s 			page 13


  81              	.LCFI3:
  82              		.cfi_def_cfa_offset 24
  83 0040 5B       		popq	%rbx
  84              	.LCFI4:
  85              		.cfi_def_cfa_offset 16
  86              	.LVL7:
  87 0041 5D       		popq	%rbp
  88              	.LCFI5:
  89              		.cfi_def_cfa_offset 8
  90 0042 C3       		ret
  91              		.cfi_endproc
  92              	.LFE67:
  94              		.section	.text.prv_handleRegistrationReply,"ax",@progbits
  96              	prv_handleRegistrationReply:
  97              	.LFB65:
 226:/home/baikal/workspace/C50/Huawei_IoT_Agent_Tiny_SDK_Linux//lwm2m/core/registration.c ****     coap_packet_t *packet = (coap_packet_t *)message;
  98              		.loc 1 226 0
  99              		.cfi_startproc
 100              	.LVL8:
 101 0000 55       		pushq	%rbp
 102              	.LCFI6:
 103              		.cfi_def_cfa_offset 16
 104              		.cfi_offset 6, -16
 105 0001 53       		pushq	%rbx
 106              	.LCFI7:
 107              		.cfi_def_cfa_offset 24
 108              		.cfi_offset 3, -24
 109 0002 4883EC08 		subq	$8, %rsp
 110              	.LCFI8:
 111              		.cfi_def_cfa_offset 32
 112              	.LVL9:
 228:/home/baikal/workspace/C50/Huawei_IoT_Agent_Tiny_SDK_Linux//lwm2m/core/registration.c **** 
 113              		.loc 1 228 0
 114 0006 488B5F68 		movq	104(%rdi), %rbx
 115              	.LVL10:
 231:/home/baikal/workspace/C50/Huawei_IoT_Agent_Tiny_SDK_Linux//lwm2m/core/registration.c ****     {
 116              		.loc 1 231 0
 117 000a 837B3001 		cmpl	$1, 48(%rbx)
 118 000e 7547     		jne	.L8
 119 0010 4889F5   		movq	%rsi, %rbp
 120              	.LBB3:
 233:/home/baikal/workspace/C50/Huawei_IoT_Agent_Tiny_SDK_Linux//lwm2m/core/registration.c ****         if (tv_sec)
 121              		.loc 1 233 0
 122 0013 E8000000 		call	lwm2m_gettime
 122      00
 123              	.LVL11:
 234:/home/baikal/workspace/C50/Huawei_IoT_Agent_Tiny_SDK_Linux//lwm2m/core/registration.c ****         {
 124              		.loc 1 234 0
 125 0018 4885C0   		testq	%rax, %rax
 126 001b 7404     		je	.L10
 236:/home/baikal/workspace/C50/Huawei_IoT_Agent_Tiny_SDK_Linux//lwm2m/core/registration.c ****         }
 127              		.loc 1 236 0
 128 001d 48894318 		movq	%rax, 24(%rbx)
 129              	.L10:
 238:/home/baikal/workspace/C50/Huawei_IoT_Agent_Tiny_SDK_Linux//lwm2m/core/registration.c ****         {
 130              		.loc 1 238 0
 131 0021 4885ED   		testq	%rbp, %rbp
GAS LISTING /tmp/ccTnshMj.s 			page 14


 132 0024 742A     		je	.L11
 238:/home/baikal/workspace/C50/Huawei_IoT_Agent_Tiny_SDK_Linux//lwm2m/core/registration.c ****         {
 133              		.loc 1 238 0 is_stmt 0 discriminator 1
 134 0026 807D1041 		cmpb	$65, 16(%rbp)
 135 002a 7524     		jne	.L11
 240:/home/baikal/workspace/C50/Huawei_IoT_Agent_Tiny_SDK_Linux//lwm2m/core/registration.c ****             if (NULL != targetP->location)
 136              		.loc 1 240 0 is_stmt 1
 137 002c C7433002 		movl	$2, 48(%rbx)
 137      000000
 241:/home/baikal/workspace/C50/Huawei_IoT_Agent_Tiny_SDK_Linux//lwm2m/core/registration.c ****             {
 138              		.loc 1 241 0
 139 0033 488B7B38 		movq	56(%rbx), %rdi
 140 0037 4885FF   		testq	%rdi, %rdi
 141 003a 7405     		je	.L12
 243:/home/baikal/workspace/C50/Huawei_IoT_Agent_Tiny_SDK_Linux//lwm2m/core/registration.c ****             }
 142              		.loc 1 243 0
 143 003c E8000000 		call	lwm2m_free
 143      00
 144              	.LVL12:
 145              	.L12:
 245:/home/baikal/workspace/C50/Huawei_IoT_Agent_Tiny_SDK_Linux//lwm2m/core/registration.c **** 
 146              		.loc 1 245 0
 147 0041 488B7D58 		movq	88(%rbp), %rdi
 148 0045 E8000000 		call	coap_get_multi_option_as_string
 148      00
 149              	.LVL13:
 150 004a 48894338 		movq	%rax, 56(%rbx)
 151 004e EB07     		jmp	.L8
 152              	.LVL14:
 153              	.L11:
 251:/home/baikal/workspace/C50/Huawei_IoT_Agent_Tiny_SDK_Linux//lwm2m/core/registration.c ****             LOG("Registration failed");
 154              		.loc 1 251 0
 155 0050 C7433003 		movl	$3, 48(%rbx)
 155      000000
 156              	.LVL15:
 157              	.L8:
 158              	.LBE3:
 255:/home/baikal/workspace/C50/Huawei_IoT_Agent_Tiny_SDK_Linux//lwm2m/core/registration.c **** 
 159              		.loc 1 255 0
 160 0057 4883C408 		addq	$8, %rsp
 161              	.LCFI9:
 162              		.cfi_def_cfa_offset 24
 163 005b 5B       		popq	%rbx
 164              	.LCFI10:
 165              		.cfi_def_cfa_offset 16
 166              	.LVL16:
 167 005c 5D       		popq	%rbp
 168              	.LCFI11:
 169              		.cfi_def_cfa_offset 8
 170 005d C3       		ret
 171              		.cfi_endproc
 172              	.LFE65:
 174              		.section	.text.prv_getRegistrationQueryLength,"ax",@progbits
 176              	prv_getRegistrationQueryLength:
 177              	.LFB63:
 103:/home/baikal/workspace/C50/Huawei_IoT_Agent_Tiny_SDK_Linux//lwm2m/core/registration.c ****     int index;
 178              		.loc 1 103 0
GAS LISTING /tmp/ccTnshMj.s 			page 15


 179              		.cfi_startproc
 180              	.LVL17:
 181 0000 4989F8   		movq	%rdi, %r8
 182              	.LVL18:
 109:/home/baikal/workspace/C50/Huawei_IoT_Agent_Tiny_SDK_Linux//lwm2m/core/registration.c **** 
 183              		.loc 1 109 0
 184 0003 488B7F10 		movq	16(%rdi), %rdi
 185              	.LVL19:
 186 0007 B8000000 		movl	$0, %eax
 186      00
 187 000c 48C7C1FF 		movq	$-1, %rcx
 187      FFFFFF
 188 0013 F2AE     		repnz scasb
 189 0015 48F7D1   		notq	%rcx
 190 0018 488D51FF 		leaq	-1(%rcx), %rdx
 191 001c 8D420E   		leal	14(%rdx), %eax
 192              	.LVL20:
 111:/home/baikal/workspace/C50/Huawei_IoT_Agent_Tiny_SDK_Linux//lwm2m/core/registration.c ****     {
 193              		.loc 1 111 0
 194 001f 498B7818 		movq	24(%r8), %rdi
 195 0023 4885FF   		testq	%rdi, %rdi
 196 0026 7418     		je	.L15
 197              	.LVL21:
 114:/home/baikal/workspace/C50/Huawei_IoT_Agent_Tiny_SDK_Linux//lwm2m/core/registration.c ****     }
 198              		.loc 1 114 0
 199 0028 B8000000 		movl	$0, %eax
 199      00
 200 002d 48C7C1FF 		movq	$-1, %rcx
 200      FFFFFF
 201 0034 F2AE     		repnz scasb
 202 0036 4889C8   		movq	%rcx, %rax
 203 0039 48F7D0   		notq	%rax
 204 003c 8D441012 		leal	18(%rax,%rdx), %eax
 205              	.LVL22:
 206              	.L15:
 117:/home/baikal/workspace/C50/Huawei_IoT_Agent_Tiny_SDK_Linux//lwm2m/core/registration.c ****     {
 207              		.loc 1 117 0
 208 0040 8B5620   		movl	32(%rsi), %edx
 209 0043 83FA06   		cmpl	$6, %edx
 210 0046 774E     		ja	.L26
 211 0048 89D2     		movl	%edx, %edx
 212 004a FF24D500 		jmp	*.L18(,%rdx,8)
 212      000000
 213              		.section	.rodata.prv_getRegistrationQueryLength,"a",@progbits
 214              		.align 8
 215              		.align 4
 216              	.L18:
 217 0000 00000000 		.quad	.L26
 217      00000000 
 218 0008 00000000 		.quad	.L17
 218      00000000 
 219 0010 00000000 		.quad	.L19
 219      00000000 
 220 0018 00000000 		.quad	.L20
 220      00000000 
 221 0020 00000000 		.quad	.L21
 221      00000000 
GAS LISTING /tmp/ccTnshMj.s 			page 16


 222 0028 00000000 		.quad	.L22
 222      00000000 
 223 0030 00000000 		.quad	.L23
 223      00000000 
 224              		.section	.text.prv_getRegistrationQueryLength
 225              	.L17:
 120:/home/baikal/workspace/C50/Huawei_IoT_Agent_Tiny_SDK_Linux//lwm2m/core/registration.c ****         break;
 226              		.loc 1 120 0
 227 0051 83C004   		addl	$4, %eax
 228              	.LVL23:
 121:/home/baikal/workspace/C50/Huawei_IoT_Agent_Tiny_SDK_Linux//lwm2m/core/registration.c ****     case BINDING_UQ:
 229              		.loc 1 121 0
 230 0054 EB17     		jmp	.L24
 231              	.L19:
 123:/home/baikal/workspace/C50/Huawei_IoT_Agent_Tiny_SDK_Linux//lwm2m/core/registration.c ****         break;
 232              		.loc 1 123 0
 233 0056 83C005   		addl	$5, %eax
 234              	.LVL24:
 124:/home/baikal/workspace/C50/Huawei_IoT_Agent_Tiny_SDK_Linux//lwm2m/core/registration.c ****     case BINDING_S:
 235              		.loc 1 124 0
 236 0059 EB12     		jmp	.L24
 237              	.L20:
 126:/home/baikal/workspace/C50/Huawei_IoT_Agent_Tiny_SDK_Linux//lwm2m/core/registration.c ****         break;
 238              		.loc 1 126 0
 239 005b 83C004   		addl	$4, %eax
 240              	.LVL25:
 127:/home/baikal/workspace/C50/Huawei_IoT_Agent_Tiny_SDK_Linux//lwm2m/core/registration.c ****     case BINDING_SQ:
 241              		.loc 1 127 0
 242 005e EB0D     		jmp	.L24
 243              	.L21:
 129:/home/baikal/workspace/C50/Huawei_IoT_Agent_Tiny_SDK_Linux//lwm2m/core/registration.c ****         break;
 244              		.loc 1 129 0
 245 0060 83C005   		addl	$5, %eax
 246              	.LVL26:
 130:/home/baikal/workspace/C50/Huawei_IoT_Agent_Tiny_SDK_Linux//lwm2m/core/registration.c ****     case BINDING_US:
 247              		.loc 1 130 0
 248 0063 EB08     		jmp	.L24
 249              	.L22:
 132:/home/baikal/workspace/C50/Huawei_IoT_Agent_Tiny_SDK_Linux//lwm2m/core/registration.c ****         break;
 250              		.loc 1 132 0
 251 0065 83C005   		addl	$5, %eax
 252              	.LVL27:
 133:/home/baikal/workspace/C50/Huawei_IoT_Agent_Tiny_SDK_Linux//lwm2m/core/registration.c ****     case BINDING_UQS:
 253              		.loc 1 133 0
 254 0068 EB03     		jmp	.L24
 255              	.L23:
 135:/home/baikal/workspace/C50/Huawei_IoT_Agent_Tiny_SDK_Linux//lwm2m/core/registration.c ****         break;
 256              		.loc 1 135 0
 257 006a 83C006   		addl	$6, %eax
 258              	.LVL28:
 259              	.L24:
 141:/home/baikal/workspace/C50/Huawei_IoT_Agent_Tiny_SDK_Linux//lwm2m/core/registration.c ****     {
 260              		.loc 1 141 0
 261 006d 488B7E10 		movq	16(%rsi), %rdi
 262 0071 4885FF   		testq	%rdi, %rdi
 263 0074 7431     		je	.L29
 103:/home/baikal/workspace/C50/Huawei_IoT_Agent_Tiny_SDK_Linux//lwm2m/core/registration.c ****     int index;
GAS LISTING /tmp/ccTnshMj.s 			page 17


 264              		.loc 1 103 0
 265 0076 53       		pushq	%rbx
 266              	.LCFI12:
 267              		.cfi_def_cfa_offset 16
 268              		.cfi_offset 3, -16
 269 0077 4883EC20 		subq	$32, %rsp
 270              	.LCFI13:
 271              		.cfi_def_cfa_offset 48
 143:/home/baikal/workspace/C50/Huawei_IoT_Agent_Tiny_SDK_Linux//lwm2m/core/registration.c ****         res = utils_intToText(server->lifetime, (uint8_t *)buffer, sizeof(buffer));
 272              		.loc 1 143 0
 273 007b 8D5804   		leal	4(%rax), %ebx
 274              	.LVL29:
 144:/home/baikal/workspace/C50/Huawei_IoT_Agent_Tiny_SDK_Linux//lwm2m/core/registration.c ****         if (res == 0) return 0;
 275              		.loc 1 144 0
 276 007e BA150000 		movl	$21, %edx
 276      00
 277 0083 4889E6   		movq	%rsp, %rsi
 278              	.LVL30:
 279 0086 E8000000 		call	utils_intToText
 279      00
 280              	.LVL31:
 145:/home/baikal/workspace/C50/Huawei_IoT_Agent_Tiny_SDK_Linux//lwm2m/core/registration.c ****         index += res;
 281              		.loc 1 145 0
 282 008b 85C0     		testl	%eax, %eax
 283 008d 740D     		je	.L27
 146:/home/baikal/workspace/C50/Huawei_IoT_Agent_Tiny_SDK_Linux//lwm2m/core/registration.c ****     }
 284              		.loc 1 146 0
 285 008f 01D8     		addl	%ebx, %eax
 286              	.LVL32:
 149:/home/baikal/workspace/C50/Huawei_IoT_Agent_Tiny_SDK_Linux//lwm2m/core/registration.c **** }
 287              		.loc 1 149 0
 288 0091 83C001   		addl	$1, %eax
 289              	.LVL33:
 290 0094 EB0B     		jmp	.L16
 291              	.LVL34:
 292              	.L26:
 293              	.LCFI14:
 294              		.cfi_def_cfa_offset 8
 295              		.cfi_restore 3
 138:/home/baikal/workspace/C50/Huawei_IoT_Agent_Tiny_SDK_Linux//lwm2m/core/registration.c ****     }
 296              		.loc 1 138 0
 297 0096 B8000000 		movl	$0, %eax
 297      00
 298              	.LVL35:
 299 009b C3       		ret
 300              	.LVL36:
 301              	.L27:
 302              	.LCFI15:
 303              		.cfi_def_cfa_offset 48
 304              		.cfi_offset 3, -16
 145:/home/baikal/workspace/C50/Huawei_IoT_Agent_Tiny_SDK_Linux//lwm2m/core/registration.c ****         index += res;
 305              		.loc 1 145 0
 306 009c B8000000 		movl	$0, %eax
 306      00
 307              	.LVL37:
 308              	.L16:
 150:/home/baikal/workspace/C50/Huawei_IoT_Agent_Tiny_SDK_Linux//lwm2m/core/registration.c **** 
GAS LISTING /tmp/ccTnshMj.s 			page 18


 309              		.loc 1 150 0
 310 00a1 4883C420 		addq	$32, %rsp
 311              	.LCFI16:
 312              		.cfi_def_cfa_offset 16
 313 00a5 5B       		popq	%rbx
 314              	.LCFI17:
 315              		.cfi_restore 3
 316              		.cfi_def_cfa_offset 8
 317 00a6 C3       		ret
 318              	.LVL38:
 319              	.L29:
 149:/home/baikal/workspace/C50/Huawei_IoT_Agent_Tiny_SDK_Linux//lwm2m/core/registration.c **** }
 320              		.loc 1 149 0
 321 00a7 83C001   		addl	$1, %eax
 322              	.LVL39:
 150:/home/baikal/workspace/C50/Huawei_IoT_Agent_Tiny_SDK_Linux//lwm2m/core/registration.c **** 
 323              		.loc 1 150 0
 324 00aa C3       		ret
 325              		.cfi_endproc
 326              	.LFE63:
 328              		.section	.rodata.str1.1,"aMS",@progbits,1
 329              	.LC0:
 330 0000 3F6C776D 		.string	"?lwm2m=1.0&ep="
 330      326D3D31 
 330      2E302665 
 330      703D00
 331              	.LC1:
 332 000f 26736D73 		.string	"&sms="
 332      3D00
 333              	.LC2:
 334 0015 26623D55 		.string	"&b=U"
 334      00
 335              	.LC3:
 336 001a 26623D55 		.string	"&b=UQ"
 336      5100
 337              	.LC4:
 338 0020 26623D53 		.string	"&b=S"
 338      00
 339              	.LC5:
 340 0025 26623D53 		.string	"&b=SQ"
 340      5100
 341              	.LC6:
 342 002b 26623D55 		.string	"&b=US"
 342      5300
 343              	.LC7:
 344 0031 26623D55 		.string	"&b=UQS"
 344      515300
 345              	.LC8:
 346 0038 266C743D 		.string	"&lt="
 346      00
 347              		.section	.text.prv_getRegistrationQuery,"ax",@progbits
 349              	prv_getRegistrationQuery:
 350              	.LFB64:
 156:/home/baikal/workspace/C50/Huawei_IoT_Agent_Tiny_SDK_Linux//lwm2m/core/registration.c ****     int index;
 351              		.loc 1 156 0
 352              		.cfi_startproc
 353              	.LVL40:
GAS LISTING /tmp/ccTnshMj.s 			page 19


 354 0000 4156     		pushq	%r14
 355              	.LCFI18:
 356              		.cfi_def_cfa_offset 16
 357              		.cfi_offset 14, -16
 358 0002 4155     		pushq	%r13
 359              	.LCFI19:
 360              		.cfi_def_cfa_offset 24
 361              		.cfi_offset 13, -24
 362 0004 4154     		pushq	%r12
 363              	.LCFI20:
 364              		.cfi_def_cfa_offset 32
 365              		.cfi_offset 12, -32
 366 0006 55       		pushq	%rbp
 367              	.LCFI21:
 368              		.cfi_def_cfa_offset 40
 369              		.cfi_offset 6, -40
 370 0007 53       		pushq	%rbx
 371              	.LCFI22:
 372              		.cfi_def_cfa_offset 48
 373              		.cfi_offset 3, -48
 374 0008 4989FD   		movq	%rdi, %r13
 375 000b 4989F6   		movq	%rsi, %r14
 376 000e 4989D4   		movq	%rdx, %r12
 377 0011 4889CD   		movq	%rcx, %rbp
 160:/home/baikal/workspace/C50/Huawei_IoT_Agent_Tiny_SDK_Linux//lwm2m/core/registration.c ****     if (index < 0) return 0;
 378              		.loc 1 160 0
 379 0014 BA000000 		movl	$.LC0, %edx
 379      00
 380              	.LVL41:
 381 0019 4889CE   		movq	%rcx, %rsi
 382              	.LVL42:
 383 001c 4C89E7   		movq	%r12, %rdi
 384              	.LVL43:
 385 001f E8000000 		call	utils_stringCopy
 385      00
 386              	.LVL44:
 161:/home/baikal/workspace/C50/Huawei_IoT_Agent_Tiny_SDK_Linux//lwm2m/core/registration.c ****     res = utils_stringCopy(buffer + index, length - index, contextP->endpointName);
 387              		.loc 1 161 0
 388 0024 85C0     		testl	%eax, %eax
 389 0026 0F886701 		js	.L43
 389      0000
 390 002c 89C3     		movl	%eax, %ebx
 162:/home/baikal/workspace/C50/Huawei_IoT_Agent_Tiny_SDK_Linux//lwm2m/core/registration.c ****     if (res < 0) return 0;
 391              		.loc 1 162 0
 392 002e 498B5510 		movq	16(%r13), %rdx
 393 0032 4863F8   		movslq	%eax, %rdi
 394 0035 4889EE   		movq	%rbp, %rsi
 395 0038 4829FE   		subq	%rdi, %rsi
 396 003b 4C01E7   		addq	%r12, %rdi
 397 003e E8000000 		call	utils_stringCopy
 397      00
 398              	.LVL45:
 163:/home/baikal/workspace/C50/Huawei_IoT_Agent_Tiny_SDK_Linux//lwm2m/core/registration.c ****     index += res;
 399              		.loc 1 163 0
 400 0043 85C0     		testl	%eax, %eax
 401 0045 0F884F01 		js	.L44
 401      0000
GAS LISTING /tmp/ccTnshMj.s 			page 20


 164:/home/baikal/workspace/C50/Huawei_IoT_Agent_Tiny_SDK_Linux//lwm2m/core/registration.c **** 
 402              		.loc 1 164 0
 403 004b 01C3     		addl	%eax, %ebx
 404              	.LVL46:
 166:/home/baikal/workspace/C50/Huawei_IoT_Agent_Tiny_SDK_Linux//lwm2m/core/registration.c ****     {
 405              		.loc 1 166 0
 406 004d 49837D18 		cmpq	$0, 24(%r13)
 406      00
 407 0052 743F     		je	.L33
 168:/home/baikal/workspace/C50/Huawei_IoT_Agent_Tiny_SDK_Linux//lwm2m/core/registration.c ****         if (res < 0) return 0;
 408              		.loc 1 168 0
 409 0054 4863FB   		movslq	%ebx, %rdi
 410 0057 4889EE   		movq	%rbp, %rsi
 411 005a 4829FE   		subq	%rdi, %rsi
 412 005d 4C01E7   		addq	%r12, %rdi
 413 0060 BA000000 		movl	$.LC1, %edx
 413      00
 414 0065 E8000000 		call	utils_stringCopy
 414      00
 415              	.LVL47:
 169:/home/baikal/workspace/C50/Huawei_IoT_Agent_Tiny_SDK_Linux//lwm2m/core/registration.c ****         index += res;
 416              		.loc 1 169 0
 417 006a 85C0     		testl	%eax, %eax
 418 006c 0F882F01 		js	.L45
 418      0000
 170:/home/baikal/workspace/C50/Huawei_IoT_Agent_Tiny_SDK_Linux//lwm2m/core/registration.c ****         res = utils_stringCopy(buffer + index, length - index, contextP->msisdn);
 419              		.loc 1 170 0
 420 0072 01C3     		addl	%eax, %ebx
 421              	.LVL48:
 171:/home/baikal/workspace/C50/Huawei_IoT_Agent_Tiny_SDK_Linux//lwm2m/core/registration.c ****         if (res < 0) return 0;
 422              		.loc 1 171 0
 423 0074 498B5518 		movq	24(%r13), %rdx
 424 0078 4863FB   		movslq	%ebx, %rdi
 425 007b 4889EE   		movq	%rbp, %rsi
 426 007e 4829FE   		subq	%rdi, %rsi
 427 0081 4C01E7   		addq	%r12, %rdi
 428 0084 E8000000 		call	utils_stringCopy
 428      00
 429              	.LVL49:
 172:/home/baikal/workspace/C50/Huawei_IoT_Agent_Tiny_SDK_Linux//lwm2m/core/registration.c ****         index += res;
 430              		.loc 1 172 0
 431 0089 85C0     		testl	%eax, %eax
 432 008b 0F881701 		js	.L46
 432      0000
 173:/home/baikal/workspace/C50/Huawei_IoT_Agent_Tiny_SDK_Linux//lwm2m/core/registration.c ****     }
 433              		.loc 1 173 0
 434 0091 01C3     		addl	%eax, %ebx
 435              	.LVL50:
 436              	.L33:
 176:/home/baikal/workspace/C50/Huawei_IoT_Agent_Tiny_SDK_Linux//lwm2m/core/registration.c ****     {
 437              		.loc 1 176 0
 438 0093 418B4620 		movl	32(%r14), %eax
 439              	.LVL51:
 440 0097 83F806   		cmpl	$6, %eax
 441 009a 0F879900 		ja	.L47
 441      0000
 442 00a0 89C0     		movl	%eax, %eax
GAS LISTING /tmp/ccTnshMj.s 			page 21


 443 00a2 FF24C500 		jmp	*.L36(,%rax,8)
 443      000000
 444              		.section	.rodata.prv_getRegistrationQuery,"a",@progbits
 445              		.align 8
 446              		.align 4
 447              	.L36:
 448 0000 00000000 		.quad	.L47
 448      00000000 
 449 0008 00000000 		.quad	.L35
 449      00000000 
 450 0010 00000000 		.quad	.L37
 450      00000000 
 451 0018 00000000 		.quad	.L38
 451      00000000 
 452 0020 00000000 		.quad	.L39
 452      00000000 
 453 0028 00000000 		.quad	.L40
 453      00000000 
 454 0030 00000000 		.quad	.L41
 454      00000000 
 455              		.section	.text.prv_getRegistrationQuery
 456              	.L35:
 179:/home/baikal/workspace/C50/Huawei_IoT_Agent_Tiny_SDK_Linux//lwm2m/core/registration.c ****         break;
 457              		.loc 1 179 0
 458 00a9 4863FB   		movslq	%ebx, %rdi
 459 00ac 4889EE   		movq	%rbp, %rsi
 460 00af 4829FE   		subq	%rdi, %rsi
 461 00b2 4C01E7   		addq	%r12, %rdi
 462 00b5 BA000000 		movl	$.LC2, %edx
 462      00
 463 00ba E8000000 		call	utils_stringCopy
 463      00
 464              	.LVL52:
 180:/home/baikal/workspace/C50/Huawei_IoT_Agent_Tiny_SDK_Linux//lwm2m/core/registration.c ****     case BINDING_UQ:
 465              		.loc 1 180 0
 466 00bf EB7D     		jmp	.L34
 467              	.LVL53:
 468              	.L37:
 182:/home/baikal/workspace/C50/Huawei_IoT_Agent_Tiny_SDK_Linux//lwm2m/core/registration.c ****         break;
 469              		.loc 1 182 0
 470 00c1 4863FB   		movslq	%ebx, %rdi
 471 00c4 4889EE   		movq	%rbp, %rsi
 472 00c7 4829FE   		subq	%rdi, %rsi
 473 00ca 4C01E7   		addq	%r12, %rdi
 474 00cd BA000000 		movl	$.LC3, %edx
 474      00
 475 00d2 E8000000 		call	utils_stringCopy
 475      00
 476              	.LVL54:
 183:/home/baikal/workspace/C50/Huawei_IoT_Agent_Tiny_SDK_Linux//lwm2m/core/registration.c ****     case BINDING_S:
 477              		.loc 1 183 0
 478 00d7 EB65     		jmp	.L34
 479              	.LVL55:
 480              	.L38:
 185:/home/baikal/workspace/C50/Huawei_IoT_Agent_Tiny_SDK_Linux//lwm2m/core/registration.c ****         break;
 481              		.loc 1 185 0
 482 00d9 4863FB   		movslq	%ebx, %rdi
GAS LISTING /tmp/ccTnshMj.s 			page 22


 483 00dc 4889EE   		movq	%rbp, %rsi
 484 00df 4829FE   		subq	%rdi, %rsi
 485 00e2 4C01E7   		addq	%r12, %rdi
 486 00e5 BA000000 		movl	$.LC4, %edx
 486      00
 487 00ea E8000000 		call	utils_stringCopy
 487      00
 488              	.LVL56:
 186:/home/baikal/workspace/C50/Huawei_IoT_Agent_Tiny_SDK_Linux//lwm2m/core/registration.c ****     case BINDING_SQ:
 489              		.loc 1 186 0
 490 00ef EB4D     		jmp	.L34
 491              	.LVL57:
 492              	.L39:
 188:/home/baikal/workspace/C50/Huawei_IoT_Agent_Tiny_SDK_Linux//lwm2m/core/registration.c ****         break;
 493              		.loc 1 188 0
 494 00f1 4863FB   		movslq	%ebx, %rdi
 495 00f4 4889EE   		movq	%rbp, %rsi
 496 00f7 4829FE   		subq	%rdi, %rsi
 497 00fa 4C01E7   		addq	%r12, %rdi
 498 00fd BA000000 		movl	$.LC5, %edx
 498      00
 499 0102 E8000000 		call	utils_stringCopy
 499      00
 500              	.LVL58:
 189:/home/baikal/workspace/C50/Huawei_IoT_Agent_Tiny_SDK_Linux//lwm2m/core/registration.c ****     case BINDING_US:
 501              		.loc 1 189 0
 502 0107 EB35     		jmp	.L34
 503              	.LVL59:
 504              	.L40:
 191:/home/baikal/workspace/C50/Huawei_IoT_Agent_Tiny_SDK_Linux//lwm2m/core/registration.c ****         break;
 505              		.loc 1 191 0
 506 0109 4863FB   		movslq	%ebx, %rdi
 507 010c 4889EE   		movq	%rbp, %rsi
 508 010f 4829FE   		subq	%rdi, %rsi
 509 0112 4C01E7   		addq	%r12, %rdi
 510 0115 BA000000 		movl	$.LC6, %edx
 510      00
 511 011a E8000000 		call	utils_stringCopy
 511      00
 512              	.LVL60:
 192:/home/baikal/workspace/C50/Huawei_IoT_Agent_Tiny_SDK_Linux//lwm2m/core/registration.c ****     case BINDING_UQS:
 513              		.loc 1 192 0
 514 011f EB1D     		jmp	.L34
 515              	.LVL61:
 516              	.L41:
 194:/home/baikal/workspace/C50/Huawei_IoT_Agent_Tiny_SDK_Linux//lwm2m/core/registration.c ****         break;
 517              		.loc 1 194 0
 518 0121 4863FB   		movslq	%ebx, %rdi
 519 0124 4889EE   		movq	%rbp, %rsi
 520 0127 4829FE   		subq	%rdi, %rsi
 521 012a 4C01E7   		addq	%r12, %rdi
 522 012d BA000000 		movl	$.LC7, %edx
 522      00
 523 0132 E8000000 		call	utils_stringCopy
 523      00
 524              	.LVL62:
 195:/home/baikal/workspace/C50/Huawei_IoT_Agent_Tiny_SDK_Linux//lwm2m/core/registration.c ****     default:
GAS LISTING /tmp/ccTnshMj.s 			page 23


 525              		.loc 1 195 0
 526 0137 EB05     		jmp	.L34
 527              	.LVL63:
 528              	.L47:
 197:/home/baikal/workspace/C50/Huawei_IoT_Agent_Tiny_SDK_Linux//lwm2m/core/registration.c ****     }
 529              		.loc 1 197 0
 530 0139 B8FFFFFF 		movl	$-1, %eax
 530      FF
 531              	.L34:
 532              	.LVL64:
 199:/home/baikal/workspace/C50/Huawei_IoT_Agent_Tiny_SDK_Linux//lwm2m/core/registration.c ****     index += res;
 533              		.loc 1 199 0
 534 013e 85C0     		testl	%eax, %eax
 535 0140 786D     		js	.L48
 200:/home/baikal/workspace/C50/Huawei_IoT_Agent_Tiny_SDK_Linux//lwm2m/core/registration.c **** 
 536              		.loc 1 200 0
 537 0142 01C3     		addl	%eax, %ebx
 538              	.LVL65:
 202:/home/baikal/workspace/C50/Huawei_IoT_Agent_Tiny_SDK_Linux//lwm2m/core/registration.c ****     {
 539              		.loc 1 202 0
 540 0144 49837E10 		cmpq	$0, 16(%r14)
 540      00
 541 0149 7437     		je	.L42
 204:/home/baikal/workspace/C50/Huawei_IoT_Agent_Tiny_SDK_Linux//lwm2m/core/registration.c ****         if (res < 0) return 0;
 542              		.loc 1 204 0
 543 014b 4863FB   		movslq	%ebx, %rdi
 544 014e 4889EE   		movq	%rbp, %rsi
 545 0151 4829FE   		subq	%rdi, %rsi
 546 0154 4C01E7   		addq	%r12, %rdi
 547 0157 BA000000 		movl	$.LC8, %edx
 547      00
 548 015c E8000000 		call	utils_stringCopy
 548      00
 549              	.LVL66:
 205:/home/baikal/workspace/C50/Huawei_IoT_Agent_Tiny_SDK_Linux//lwm2m/core/registration.c ****         index += res;
 550              		.loc 1 205 0
 551 0161 85C0     		testl	%eax, %eax
 552 0163 7851     		js	.L49
 206:/home/baikal/workspace/C50/Huawei_IoT_Agent_Tiny_SDK_Linux//lwm2m/core/registration.c ****         res = utils_intToText(server->lifetime, (uint8_t *)buffer + index, length - index);
 553              		.loc 1 206 0
 554 0165 01C3     		addl	%eax, %ebx
 555              	.LVL67:
 207:/home/baikal/workspace/C50/Huawei_IoT_Agent_Tiny_SDK_Linux//lwm2m/core/registration.c ****         if (res == 0) return 0;
 556              		.loc 1 207 0
 557 0167 4863F3   		movslq	%ebx, %rsi
 558 016a 4889EA   		movq	%rbp, %rdx
 559 016d 4829F2   		subq	%rsi, %rdx
 560 0170 4C01E6   		addq	%r12, %rsi
 561 0173 498B7E10 		movq	16(%r14), %rdi
 562 0177 E8000000 		call	utils_intToText
 562      00
 563              	.LVL68:
 208:/home/baikal/workspace/C50/Huawei_IoT_Agent_Tiny_SDK_Linux//lwm2m/core/registration.c ****         index += res;
 564              		.loc 1 208 0
 565 017c 85C0     		testl	%eax, %eax
 566 017e 743D     		je	.L50
 209:/home/baikal/workspace/C50/Huawei_IoT_Agent_Tiny_SDK_Linux//lwm2m/core/registration.c ****     }
GAS LISTING /tmp/ccTnshMj.s 			page 24


 567              		.loc 1 209 0
 568 0180 01C3     		addl	%eax, %ebx
 569              	.LVL69:
 570              	.L42:
 212:/home/baikal/workspace/C50/Huawei_IoT_Agent_Tiny_SDK_Linux//lwm2m/core/registration.c ****     {
 571              		.loc 1 212 0
 572 0182 39EB     		cmpl	%ebp, %ebx
 573 0184 7D3E     		jge	.L51
 574              	.LVL70:
 214:/home/baikal/workspace/C50/Huawei_IoT_Agent_Tiny_SDK_Linux//lwm2m/core/registration.c ****     }
 575              		.loc 1 214 0
 576 0186 4863C3   		movslq	%ebx, %rax
 577              	.LVL71:
 578 0189 41C60404 		movb	$0, (%r12,%rax)
 578      00
 221:/home/baikal/workspace/C50/Huawei_IoT_Agent_Tiny_SDK_Linux//lwm2m/core/registration.c **** }
 579              		.loc 1 221 0
 580 018e 8D4301   		leal	1(%rbx), %eax
 581              	.LVL72:
 582 0191 EB36     		jmp	.L32
 583              	.L43:
 161:/home/baikal/workspace/C50/Huawei_IoT_Agent_Tiny_SDK_Linux//lwm2m/core/registration.c ****     res = utils_stringCopy(buffer + index, length - index, contextP->endpointName);
 584              		.loc 1 161 0
 585 0193 B8000000 		movl	$0, %eax
 585      00
 586              	.LVL73:
 587 0198 EB2F     		jmp	.L32
 588              	.LVL74:
 589              	.L44:
 163:/home/baikal/workspace/C50/Huawei_IoT_Agent_Tiny_SDK_Linux//lwm2m/core/registration.c ****     index += res;
 590              		.loc 1 163 0
 591 019a B8000000 		movl	$0, %eax
 591      00
 592              	.LVL75:
 593 019f EB28     		jmp	.L32
 594              	.LVL76:
 595              	.L45:
 169:/home/baikal/workspace/C50/Huawei_IoT_Agent_Tiny_SDK_Linux//lwm2m/core/registration.c ****         index += res;
 596              		.loc 1 169 0
 597 01a1 B8000000 		movl	$0, %eax
 597      00
 598              	.LVL77:
 599 01a6 EB21     		jmp	.L32
 600              	.LVL78:
 601              	.L46:
 172:/home/baikal/workspace/C50/Huawei_IoT_Agent_Tiny_SDK_Linux//lwm2m/core/registration.c ****         index += res;
 602              		.loc 1 172 0
 603 01a8 B8000000 		movl	$0, %eax
 603      00
 604              	.LVL79:
 605 01ad EB1A     		jmp	.L32
 606              	.LVL80:
 607              	.L48:
 199:/home/baikal/workspace/C50/Huawei_IoT_Agent_Tiny_SDK_Linux//lwm2m/core/registration.c ****     index += res;
 608              		.loc 1 199 0
 609 01af B8000000 		movl	$0, %eax
 609      00
GAS LISTING /tmp/ccTnshMj.s 			page 25


 610              	.LVL81:
 611 01b4 EB13     		jmp	.L32
 612              	.LVL82:
 613              	.L49:
 205:/home/baikal/workspace/C50/Huawei_IoT_Agent_Tiny_SDK_Linux//lwm2m/core/registration.c ****         index += res;
 614              		.loc 1 205 0
 615 01b6 B8000000 		movl	$0, %eax
 615      00
 616              	.LVL83:
 617 01bb EB0C     		jmp	.L32
 618              	.LVL84:
 619              	.L50:
 208:/home/baikal/workspace/C50/Huawei_IoT_Agent_Tiny_SDK_Linux//lwm2m/core/registration.c ****         index += res;
 620              		.loc 1 208 0
 621 01bd B8000000 		movl	$0, %eax
 621      00
 622              	.LVL85:
 623 01c2 EB05     		jmp	.L32
 624              	.LVL86:
 625              	.L51:
 218:/home/baikal/workspace/C50/Huawei_IoT_Agent_Tiny_SDK_Linux//lwm2m/core/registration.c ****     }
 626              		.loc 1 218 0
 627 01c4 B8000000 		movl	$0, %eax
 627      00
 628              	.LVL87:
 629              	.L32:
 222:/home/baikal/workspace/C50/Huawei_IoT_Agent_Tiny_SDK_Linux//lwm2m/core/registration.c **** 
 630              		.loc 1 222 0
 631 01c9 5B       		popq	%rbx
 632              	.LCFI23:
 633              		.cfi_def_cfa_offset 40
 634 01ca 5D       		popq	%rbp
 635              	.LCFI24:
 636              		.cfi_def_cfa_offset 32
 637              	.LVL88:
 638 01cb 415C     		popq	%r12
 639              	.LCFI25:
 640              		.cfi_def_cfa_offset 24
 641              	.LVL89:
 642 01cd 415D     		popq	%r13
 643              	.LCFI26:
 644              		.cfi_def_cfa_offset 16
 645              	.LVL90:
 646 01cf 415E     		popq	%r14
 647              	.LCFI27:
 648              		.cfi_def_cfa_offset 8
 649              	.LVL91:
 650 01d1 C3       		ret
 651              		.cfi_endproc
 652              	.LFE64:
 654              		.section	.rodata.str1.1
 655              	.LC9:
 656 003d 2F726400 		.string	"/rd"
 657              		.section	.text.prv_register,"ax",@progbits
 659              	prv_register:
 660              	.LFB66:
 260:/home/baikal/workspace/C50/Huawei_IoT_Agent_Tiny_SDK_Linux//lwm2m/core/registration.c ****     char *query;
GAS LISTING /tmp/ccTnshMj.s 			page 26


 661              		.loc 1 260 0
 662              		.cfi_startproc
 663              	.LVL92:
 664 0000 4157     		pushq	%r15
 665              	.LCFI28:
 666              		.cfi_def_cfa_offset 16
 667              		.cfi_offset 15, -16
 668 0002 4156     		pushq	%r14
 669              	.LCFI29:
 670              		.cfi_def_cfa_offset 24
 671              		.cfi_offset 14, -24
 672 0004 4155     		pushq	%r13
 673              	.LCFI30:
 674              		.cfi_def_cfa_offset 32
 675              		.cfi_offset 13, -32
 676 0006 4154     		pushq	%r12
 677              	.LCFI31:
 678              		.cfi_def_cfa_offset 40
 679              		.cfi_offset 12, -40
 680 0008 55       		pushq	%rbp
 681              	.LCFI32:
 682              		.cfi_def_cfa_offset 48
 683              		.cfi_offset 6, -48
 684 0009 53       		pushq	%rbx
 685              	.LCFI33:
 686              		.cfi_def_cfa_offset 56
 687              		.cfi_offset 3, -56
 688 000a 4883EC18 		subq	$24, %rsp
 689              	.LCFI34:
 690              		.cfi_def_cfa_offset 80
 691 000e 4889FB   		movq	%rdi, %rbx
 692 0011 4889F5   		movq	%rsi, %rbp
 267:/home/baikal/workspace/C50/Huawei_IoT_Agent_Tiny_SDK_Linux//lwm2m/core/registration.c ****     if(payload_length == 0) return COAP_500_INTERNAL_SERVER_ERROR;
 693              		.loc 1 267 0
 694 0014 E8000000 		call	object_getRegisterPayloadBufferLength
 694      00
 695              	.LVL93:
 268:/home/baikal/workspace/C50/Huawei_IoT_Agent_Tiny_SDK_Linux//lwm2m/core/registration.c ****     payload = lwm2m_malloc(payload_length);
 696              		.loc 1 268 0
 697 0019 85C0     		testl	%eax, %eax
 698 001b 0F84ED01 		je	.L63
 698      0000
 269:/home/baikal/workspace/C50/Huawei_IoT_Agent_Tiny_SDK_Linux//lwm2m/core/registration.c ****     if(!payload) return COAP_500_INTERNAL_SERVER_ERROR;
 699              		.loc 1 269 0
 700 0021 4C63E8   		movslq	%eax, %r13
 701 0024 4C89EF   		movq	%r13, %rdi
 702 0027 E8000000 		call	lwm2m_malloc
 702      00
 703              	.LVL94:
 704 002c 4989C4   		movq	%rax, %r12
 705              	.LVL95:
 270:/home/baikal/workspace/C50/Huawei_IoT_Agent_Tiny_SDK_Linux//lwm2m/core/registration.c ****     payload_length = object_getRegisterPayload(contextP, payload, payload_length);
 706              		.loc 1 270 0
 707 002f 4885C0   		testq	%rax, %rax
 708 0032 0F84DD01 		je	.L64
 708      0000
 271:/home/baikal/workspace/C50/Huawei_IoT_Agent_Tiny_SDK_Linux//lwm2m/core/registration.c ****     if(payload_length == 0)
GAS LISTING /tmp/ccTnshMj.s 			page 27


 709              		.loc 1 271 0
 710 0038 4C89EA   		movq	%r13, %rdx
 711 003b 4889C6   		movq	%rax, %rsi
 712 003e 4889DF   		movq	%rbx, %rdi
 713 0041 E8000000 		call	object_getRegisterPayload
 713      00
 714              	.LVL96:
 715 0046 4189C5   		movl	%eax, %r13d
 716              	.LVL97:
 272:/home/baikal/workspace/C50/Huawei_IoT_Agent_Tiny_SDK_Linux//lwm2m/core/registration.c ****     {
 717              		.loc 1 272 0
 718 0049 85C0     		testl	%eax, %eax
 719 004b 7512     		jne	.L55
 274:/home/baikal/workspace/C50/Huawei_IoT_Agent_Tiny_SDK_Linux//lwm2m/core/registration.c ****         return COAP_500_INTERNAL_SERVER_ERROR;
 720              		.loc 1 274 0
 721 004d 4C89E7   		movq	%r12, %rdi
 722 0050 E8000000 		call	lwm2m_free
 722      00
 723              	.LVL98:
 275:/home/baikal/workspace/C50/Huawei_IoT_Agent_Tiny_SDK_Linux//lwm2m/core/registration.c ****     }
 724              		.loc 1 275 0
 725 0055 B8A0FFFF 		movl	$-96, %eax
 725      FF
 726 005a E9BB0100 		jmp	.L54
 726      00
 727              	.LVL99:
 728              	.L55:
 278:/home/baikal/workspace/C50/Huawei_IoT_Agent_Tiny_SDK_Linux//lwm2m/core/registration.c ****     if(query_length == 0)
 729              		.loc 1 278 0
 730 005f 4889EE   		movq	%rbp, %rsi
 731 0062 4889DF   		movq	%rbx, %rdi
 732 0065 E8000000 		call	prv_getRegistrationQueryLength
 732      00
 733              	.LVL100:
 734 006a 4189C6   		movl	%eax, %r14d
 735              	.LVL101:
 279:/home/baikal/workspace/C50/Huawei_IoT_Agent_Tiny_SDK_Linux//lwm2m/core/registration.c ****     {
 736              		.loc 1 279 0
 737 006d 85C0     		testl	%eax, %eax
 738 006f 7512     		jne	.L56
 281:/home/baikal/workspace/C50/Huawei_IoT_Agent_Tiny_SDK_Linux//lwm2m/core/registration.c ****         return COAP_500_INTERNAL_SERVER_ERROR;
 739              		.loc 1 281 0
 740 0071 4C89E7   		movq	%r12, %rdi
 741 0074 E8000000 		call	lwm2m_free
 741      00
 742              	.LVL102:
 282:/home/baikal/workspace/C50/Huawei_IoT_Agent_Tiny_SDK_Linux//lwm2m/core/registration.c ****     }
 743              		.loc 1 282 0
 744 0079 B8A0FFFF 		movl	$-96, %eax
 744      FF
 745 007e E9970100 		jmp	.L54
 745      00
 746              	.LVL103:
 747              	.L56:
 284:/home/baikal/workspace/C50/Huawei_IoT_Agent_Tiny_SDK_Linux//lwm2m/core/registration.c ****     if(!query)
 748              		.loc 1 284 0
 749 0083 4898     		cltq
GAS LISTING /tmp/ccTnshMj.s 			page 28


 750              	.LVL104:
 751 0085 48894424 		movq	%rax, 8(%rsp)
 751      08
 752 008a 4889C7   		movq	%rax, %rdi
 753 008d E8000000 		call	lwm2m_malloc
 753      00
 754              	.LVL105:
 755 0092 4989C7   		movq	%rax, %r15
 756              	.LVL106:
 285:/home/baikal/workspace/C50/Huawei_IoT_Agent_Tiny_SDK_Linux//lwm2m/core/registration.c ****     {
 757              		.loc 1 285 0
 758 0095 4885C0   		testq	%rax, %rax
 759 0098 7512     		jne	.L57
 287:/home/baikal/workspace/C50/Huawei_IoT_Agent_Tiny_SDK_Linux//lwm2m/core/registration.c ****         return COAP_500_INTERNAL_SERVER_ERROR;
 760              		.loc 1 287 0
 761 009a 4C89E7   		movq	%r12, %rdi
 762 009d E8000000 		call	lwm2m_free
 762      00
 763              	.LVL107:
 288:/home/baikal/workspace/C50/Huawei_IoT_Agent_Tiny_SDK_Linux//lwm2m/core/registration.c ****     }
 764              		.loc 1 288 0
 765 00a2 B8A0FFFF 		movl	$-96, %eax
 765      FF
 766 00a7 E96E0100 		jmp	.L54
 766      00
 767              	.LVL108:
 768              	.L57:
 290:/home/baikal/workspace/C50/Huawei_IoT_Agent_Tiny_SDK_Linux//lwm2m/core/registration.c ****     {
 769              		.loc 1 290 0
 770 00ac 488B4C24 		movq	8(%rsp), %rcx
 770      08
 771 00b1 4889C2   		movq	%rax, %rdx
 772 00b4 4889EE   		movq	%rbp, %rsi
 773 00b7 4889DF   		movq	%rbx, %rdi
 774 00ba E8000000 		call	prv_getRegistrationQuery
 774      00
 775              	.LVL109:
 776 00bf 4139C6   		cmpl	%eax, %r14d
 777 00c2 741A     		je	.L58
 292:/home/baikal/workspace/C50/Huawei_IoT_Agent_Tiny_SDK_Linux//lwm2m/core/registration.c ****         lwm2m_free(query);
 778              		.loc 1 292 0
 779 00c4 4C89E7   		movq	%r12, %rdi
 780 00c7 E8000000 		call	lwm2m_free
 780      00
 781              	.LVL110:
 293:/home/baikal/workspace/C50/Huawei_IoT_Agent_Tiny_SDK_Linux//lwm2m/core/registration.c ****         return COAP_500_INTERNAL_SERVER_ERROR;
 782              		.loc 1 293 0
 783 00cc 4C89FF   		movq	%r15, %rdi
 784 00cf E8000000 		call	lwm2m_free
 784      00
 785              	.LVL111:
 294:/home/baikal/workspace/C50/Huawei_IoT_Agent_Tiny_SDK_Linux//lwm2m/core/registration.c ****     }
 786              		.loc 1 294 0
 787 00d4 B8A0FFFF 		movl	$-96, %eax
 787      FF
 788 00d9 E93C0100 		jmp	.L54
 788      00
GAS LISTING /tmp/ccTnshMj.s 			page 29


 789              	.L58:
 297:/home/baikal/workspace/C50/Huawei_IoT_Agent_Tiny_SDK_Linux//lwm2m/core/registration.c ****     {
 790              		.loc 1 297 0
 791 00de 48837D28 		cmpq	$0, 40(%rbp)
 791      00
 792 00e3 7516     		jne	.L59
 299:/home/baikal/workspace/C50/Huawei_IoT_Agent_Tiny_SDK_Linux//lwm2m/core/registration.c ****     }
 793              		.loc 1 299 0
 794 00e5 488B7360 		movq	96(%rbx), %rsi
 795 00e9 0FB77D08 		movzwl	8(%rbp), %edi
 796 00ed BA000000 		movl	$0, %edx
 796      00
 797 00f2 E8000000 		call	lwm2m_connect_server
 797      00
 798              	.LVL112:
 799 00f7 48894528 		movq	%rax, 40(%rbp)
 800              	.L59:
 302:/home/baikal/workspace/C50/Huawei_IoT_Agent_Tiny_SDK_Linux//lwm2m/core/registration.c ****     {
 801              		.loc 1 302 0
 802 00fb 48837D28 		cmpq	$0, 40(%rbp)
 802      00
 803 0100 751A     		jne	.L60
 304:/home/baikal/workspace/C50/Huawei_IoT_Agent_Tiny_SDK_Linux//lwm2m/core/registration.c ****         lwm2m_free(query);
 804              		.loc 1 304 0
 805 0102 4C89E7   		movq	%r12, %rdi
 806 0105 E8000000 		call	lwm2m_free
 806      00
 807              	.LVL113:
 305:/home/baikal/workspace/C50/Huawei_IoT_Agent_Tiny_SDK_Linux//lwm2m/core/registration.c ****         return COAP_503_SERVICE_UNAVAILABLE;
 808              		.loc 1 305 0
 809 010a 4C89FF   		movq	%r15, %rdi
 810 010d E8000000 		call	lwm2m_free
 810      00
 811              	.LVL114:
 306:/home/baikal/workspace/C50/Huawei_IoT_Agent_Tiny_SDK_Linux//lwm2m/core/registration.c ****     }
 812              		.loc 1 306 0
 813 0112 B8A3FFFF 		movl	$-93, %eax
 813      FF
 814 0117 E9FE0000 		jmp	.L54
 814      00
 815              	.L60:
 309:/home/baikal/workspace/C50/Huawei_IoT_Agent_Tiny_SDK_Linux//lwm2m/core/registration.c ****     if (transaction == NULL)
 816              		.loc 1 309 0
 817 011c 440FB743 		movzwl	80(%rbx), %r8d
 817      50
 818 0121 418D4001 		leal	1(%r8), %eax
 819 0125 66894350 		movw	%ax, 80(%rbx)
 820 0129 488B7D28 		movq	40(%rbp), %rdi
 821 012d 4883EC08 		subq	$8, %rsp
 822              	.LCFI35:
 823              		.cfi_def_cfa_offset 88
 824 0131 6A00     		pushq	$0
 825              	.LCFI36:
 826              		.cfi_def_cfa_offset 96
 827 0133 41B90400 		movl	$4, %r9d
 827      0000
 828 0139 450FB7C0 		movzwl	%r8w, %r8d
GAS LISTING /tmp/ccTnshMj.s 			page 30


 829 013d B9000000 		movl	$0, %ecx
 829      00
 830 0142 BA000000 		movl	$0, %edx
 830      00
 831 0147 BE020000 		movl	$2, %esi
 831      00
 832 014c E8000000 		call	transaction_new
 832      00
 833              	.LVL115:
 834 0151 4989C6   		movq	%rax, %r14
 835              	.LVL116:
 310:/home/baikal/workspace/C50/Huawei_IoT_Agent_Tiny_SDK_Linux//lwm2m/core/registration.c ****     {
 836              		.loc 1 310 0
 837 0154 4883C410 		addq	$16, %rsp
 838              	.LCFI37:
 839              		.cfi_def_cfa_offset 80
 840 0158 4885C0   		testq	%rax, %rax
 841 015b 751A     		jne	.L61
 312:/home/baikal/workspace/C50/Huawei_IoT_Agent_Tiny_SDK_Linux//lwm2m/core/registration.c ****         lwm2m_free(query);
 842              		.loc 1 312 0
 843 015d 4C89E7   		movq	%r12, %rdi
 844 0160 E8000000 		call	lwm2m_free
 844      00
 845              	.LVL117:
 313:/home/baikal/workspace/C50/Huawei_IoT_Agent_Tiny_SDK_Linux//lwm2m/core/registration.c ****         return COAP_503_SERVICE_UNAVAILABLE;
 846              		.loc 1 313 0
 847 0165 4C89FF   		movq	%r15, %rdi
 848 0168 E8000000 		call	lwm2m_free
 848      00
 849              	.LVL118:
 314:/home/baikal/workspace/C50/Huawei_IoT_Agent_Tiny_SDK_Linux//lwm2m/core/registration.c ****     }
 850              		.loc 1 314 0
 851 016d B8A3FFFF 		movl	$-93, %eax
 851      FF
 852 0172 E9A30000 		jmp	.L54
 852      00
 853              	.LVL119:
 854              	.L61:
 318:/home/baikal/workspace/C50/Huawei_IoT_Agent_Tiny_SDK_Linux//lwm2m/core/registration.c ****     coap_set_header_uri_query(transaction->message, query);
 855              		.loc 1 318 0
 856 0177 488B7838 		movq	56(%rax), %rdi
 857 017b BE000000 		movl	$.LC9, %esi
 857      00
 858 0180 E8000000 		call	coap_set_header_uri_path
 858      00
 859              	.LVL120:
 319:/home/baikal/workspace/C50/Huawei_IoT_Agent_Tiny_SDK_Linux//lwm2m/core/registration.c ****     coap_set_header_content_type(transaction->message, LWM2M_CONTENT_LINK);
 860              		.loc 1 319 0
 861 0185 498B7E38 		movq	56(%r14), %rdi
 862 0189 4C89FE   		movq	%r15, %rsi
 863 018c E8000000 		call	coap_set_header_uri_query
 863      00
 864              	.LVL121:
 320:/home/baikal/workspace/C50/Huawei_IoT_Agent_Tiny_SDK_Linux//lwm2m/core/registration.c ****     coap_set_payload(transaction->message, payload, payload_length);
 865              		.loc 1 320 0
 866 0191 498B7E38 		movq	56(%r14), %rdi
 867 0195 BE280000 		movl	$40, %esi
GAS LISTING /tmp/ccTnshMj.s 			page 31


 867      00
 868 019a E8000000 		call	coap_set_header_content_type
 868      00
 869              	.LVL122:
 321:/home/baikal/workspace/C50/Huawei_IoT_Agent_Tiny_SDK_Linux//lwm2m/core/registration.c **** 
 870              		.loc 1 321 0
 871 019f 498B7E38 		movq	56(%r14), %rdi
 872 01a3 4963D5   		movslq	%r13d, %rdx
 873 01a6 4C89E6   		movq	%r12, %rsi
 874 01a9 E8000000 		call	coap_set_payload
 874      00
 875              	.LVL123:
 323:/home/baikal/workspace/C50/Huawei_IoT_Agent_Tiny_SDK_Linux//lwm2m/core/registration.c ****     transaction->userData = (void *) server;
 876              		.loc 1 323 0
 877 01ae 49C74660 		movq	$prv_handleRegistrationReply, 96(%r14)
 877      00000000 
 324:/home/baikal/workspace/C50/Huawei_IoT_Agent_Tiny_SDK_Linux//lwm2m/core/registration.c **** 
 878              		.loc 1 324 0
 879 01b6 49896E68 		movq	%rbp, 104(%r14)
 326:/home/baikal/workspace/C50/Huawei_IoT_Agent_Tiny_SDK_Linux//lwm2m/core/registration.c ****     if (transaction_send(contextP, transaction) != 0)
 880              		.loc 1 326 0
 881 01ba 488B7B58 		movq	88(%rbx), %rdi
 882 01be 4C89F6   		movq	%r14, %rsi
 883 01c1 E8000000 		call	lwm2m_list_add
 883      00
 884              	.LVL124:
 885 01c6 48894358 		movq	%rax, 88(%rbx)
 327:/home/baikal/workspace/C50/Huawei_IoT_Agent_Tiny_SDK_Linux//lwm2m/core/registration.c ****     {
 886              		.loc 1 327 0
 887 01ca 4C89F6   		movq	%r14, %rsi
 888 01cd 4889DF   		movq	%rbx, %rdi
 889 01d0 E8000000 		call	transaction_send
 889      00
 890              	.LVL125:
 891 01d5 85C0     		testl	%eax, %eax
 892 01d7 7417     		je	.L62
 329:/home/baikal/workspace/C50/Huawei_IoT_Agent_Tiny_SDK_Linux//lwm2m/core/registration.c ****         lwm2m_free(query);
 893              		.loc 1 329 0
 894 01d9 4C89E7   		movq	%r12, %rdi
 895 01dc E8000000 		call	lwm2m_free
 895      00
 896              	.LVL126:
 330:/home/baikal/workspace/C50/Huawei_IoT_Agent_Tiny_SDK_Linux//lwm2m/core/registration.c ****         return COAP_503_SERVICE_UNAVAILABLE;
 897              		.loc 1 330 0
 898 01e1 4C89FF   		movq	%r15, %rdi
 899 01e4 E8000000 		call	lwm2m_free
 899      00
 900              	.LVL127:
 331:/home/baikal/workspace/C50/Huawei_IoT_Agent_Tiny_SDK_Linux//lwm2m/core/registration.c ****     }
 901              		.loc 1 331 0
 902 01e9 B8A3FFFF 		movl	$-93, %eax
 902      FF
 903 01ee EB2A     		jmp	.L54
 904              	.L62:
 334:/home/baikal/workspace/C50/Huawei_IoT_Agent_Tiny_SDK_Linux//lwm2m/core/registration.c ****     lwm2m_free(query);
 905              		.loc 1 334 0
 906 01f0 4C89E7   		movq	%r12, %rdi
GAS LISTING /tmp/ccTnshMj.s 			page 32


 907 01f3 E8000000 		call	lwm2m_free
 907      00
 908              	.LVL128:
 335:/home/baikal/workspace/C50/Huawei_IoT_Agent_Tiny_SDK_Linux//lwm2m/core/registration.c **** 
 909              		.loc 1 335 0
 910 01f8 4C89FF   		movq	%r15, %rdi
 911 01fb E8000000 		call	lwm2m_free
 911      00
 912              	.LVL129:
 337:/home/baikal/workspace/C50/Huawei_IoT_Agent_Tiny_SDK_Linux//lwm2m/core/registration.c **** 
 913              		.loc 1 337 0
 914 0200 C7453001 		movl	$1, 48(%rbp)
 914      000000
 339:/home/baikal/workspace/C50/Huawei_IoT_Agent_Tiny_SDK_Linux//lwm2m/core/registration.c **** }
 915              		.loc 1 339 0
 916 0207 B8000000 		movl	$0, %eax
 916      00
 917 020c EB0C     		jmp	.L54
 918              	.LVL130:
 919              	.L63:
 268:/home/baikal/workspace/C50/Huawei_IoT_Agent_Tiny_SDK_Linux//lwm2m/core/registration.c ****     payload = lwm2m_malloc(payload_length);
 920              		.loc 1 268 0
 921 020e B8A0FFFF 		movl	$-96, %eax
 921      FF
 922              	.LVL131:
 923 0213 EB05     		jmp	.L54
 924              	.LVL132:
 925              	.L64:
 270:/home/baikal/workspace/C50/Huawei_IoT_Agent_Tiny_SDK_Linux//lwm2m/core/registration.c ****     payload_length = object_getRegisterPayload(contextP, payload, payload_length);
 926              		.loc 1 270 0
 927 0215 B8A0FFFF 		movl	$-96, %eax
 927      FF
 928              	.LVL133:
 929              	.L54:
 340:/home/baikal/workspace/C50/Huawei_IoT_Agent_Tiny_SDK_Linux//lwm2m/core/registration.c **** 
 930              		.loc 1 340 0
 931 021a 4883C418 		addq	$24, %rsp
 932              	.LCFI38:
 933              		.cfi_def_cfa_offset 56
 934 021e 5B       		popq	%rbx
 935              	.LCFI39:
 936              		.cfi_def_cfa_offset 48
 937              	.LVL134:
 938 021f 5D       		popq	%rbp
 939              	.LCFI40:
 940              		.cfi_def_cfa_offset 40
 941              	.LVL135:
 942 0220 415C     		popq	%r12
 943              	.LCFI41:
 944              		.cfi_def_cfa_offset 32
 945 0222 415D     		popq	%r13
 946              	.LCFI42:
 947              		.cfi_def_cfa_offset 24
 948 0224 415E     		popq	%r14
 949              	.LCFI43:
 950              		.cfi_def_cfa_offset 16
 951 0226 415F     		popq	%r15
GAS LISTING /tmp/ccTnshMj.s 			page 33


 952              	.LCFI44:
 953              		.cfi_def_cfa_offset 8
 954 0228 C3       		ret
 955              		.cfi_endproc
 956              	.LFE66:
 958              		.section	.text.prv_updateRegistration,"ax",@progbits
 960              	prv_updateRegistration:
 961              	.LFB68:
 371:/home/baikal/workspace/C50/Huawei_IoT_Agent_Tiny_SDK_Linux//lwm2m/core/registration.c ****     lwm2m_transaction_t *transaction;
 962              		.loc 1 371 0
 963              		.cfi_startproc
 964              	.LVL136:
 965 0000 4157     		pushq	%r15
 966              	.LCFI45:
 967              		.cfi_def_cfa_offset 16
 968              		.cfi_offset 15, -16
 969 0002 4156     		pushq	%r14
 970              	.LCFI46:
 971              		.cfi_def_cfa_offset 24
 972              		.cfi_offset 14, -24
 973 0004 4155     		pushq	%r13
 974              	.LCFI47:
 975              		.cfi_def_cfa_offset 32
 976              		.cfi_offset 13, -32
 977 0006 4154     		pushq	%r12
 978              	.LCFI48:
 979              		.cfi_def_cfa_offset 40
 980              		.cfi_offset 12, -40
 981 0008 55       		pushq	%rbp
 982              	.LCFI49:
 983              		.cfi_def_cfa_offset 48
 984              		.cfi_offset 6, -48
 985 0009 53       		pushq	%rbx
 986              	.LCFI50:
 987              		.cfi_def_cfa_offset 56
 988              		.cfi_offset 3, -56
 989 000a 4883EC10 		subq	$16, %rsp
 990              	.LCFI51:
 991              		.cfi_def_cfa_offset 72
 992 000e 4889FB   		movq	%rdi, %rbx
 993 0011 4989F4   		movq	%rsi, %r12
 994 0014 4189D5   		movl	%edx, %r13d
 995              	.LVL137:
 376:/home/baikal/workspace/C50/Huawei_IoT_Agent_Tiny_SDK_Linux//lwm2m/core/registration.c ****     if (transaction == NULL) return COAP_500_INTERNAL_SERVER_ERROR;
 996              		.loc 1 376 0
 997 0017 440FB747 		movzwl	80(%rdi), %r8d
 997      50
 998 001c 418D4001 		leal	1(%r8), %eax
 999 0020 66894750 		movw	%ax, 80(%rdi)
 1000 0024 488B7E28 		movq	40(%rsi), %rdi
 1001              	.LVL138:
 1002 0028 6A00     		pushq	$0
 1003              	.LCFI52:
 1004              		.cfi_def_cfa_offset 80
 1005 002a 41B90400 		movl	$4, %r9d
 1005      0000
 1006 0030 450FB7C0 		movzwl	%r8w, %r8d
GAS LISTING /tmp/ccTnshMj.s 			page 34


 1007 0034 B9000000 		movl	$0, %ecx
 1007      00
 1008 0039 BA000000 		movl	$0, %edx
 1008      00
 1009              	.LVL139:
 1010 003e BE020000 		movl	$2, %esi
 1010      00
 1011              	.LVL140:
 1012 0043 E8000000 		call	transaction_new
 1012      00
 1013              	.LVL141:
 377:/home/baikal/workspace/C50/Huawei_IoT_Agent_Tiny_SDK_Linux//lwm2m/core/registration.c **** 
 1014              		.loc 1 377 0
 1015 0048 4883C410 		addq	$16, %rsp
 1016              	.LCFI53:
 1017              		.cfi_def_cfa_offset 64
 1018 004c 4885C0   		testq	%rax, %rax
 1019 004f 0F84E100 		je	.L73
 1019      0000
 1020 0055 4889C5   		movq	%rax, %rbp
 379:/home/baikal/workspace/C50/Huawei_IoT_Agent_Tiny_SDK_Linux//lwm2m/core/registration.c **** 
 1021              		.loc 1 379 0
 1022 0058 498B7424 		movq	56(%r12), %rsi
 1022      38
 1023 005d 488B7838 		movq	56(%rax), %rdi
 1024 0061 E8000000 		call	coap_set_header_uri_path
 1024      00
 1025              	.LVL142:
 381:/home/baikal/workspace/C50/Huawei_IoT_Agent_Tiny_SDK_Linux//lwm2m/core/registration.c ****     {
 1026              		.loc 1 381 0
 1027 0066 4584ED   		testb	%r13b, %r13b
 1028 0069 747D     		je	.L74
 383:/home/baikal/workspace/C50/Huawei_IoT_Agent_Tiny_SDK_Linux//lwm2m/core/registration.c ****         if(payload_length == 0)
 1029              		.loc 1 383 0
 1030 006b 4889DF   		movq	%rbx, %rdi
 1031 006e E8000000 		call	object_getRegisterPayloadBufferLength
 1031      00
 1032              	.LVL143:
 384:/home/baikal/workspace/C50/Huawei_IoT_Agent_Tiny_SDK_Linux//lwm2m/core/registration.c ****         {
 1033              		.loc 1 384 0
 1034 0073 85C0     		testl	%eax, %eax
 1035 0075 7512     		jne	.L69
 386:/home/baikal/workspace/C50/Huawei_IoT_Agent_Tiny_SDK_Linux//lwm2m/core/registration.c ****             return COAP_500_INTERNAL_SERVER_ERROR;
 1036              		.loc 1 386 0
 1037 0077 4889EF   		movq	%rbp, %rdi
 1038 007a E8000000 		call	transaction_free
 1038      00
 1039              	.LVL144:
 387:/home/baikal/workspace/C50/Huawei_IoT_Agent_Tiny_SDK_Linux//lwm2m/core/registration.c ****         }
 1040              		.loc 1 387 0
 1041 007f B8A00000 		movl	$160, %eax
 1041      00
 1042 0084 E9B90000 		jmp	.L67
 1042      00
 1043              	.LVL145:
 1044              	.L69:
 390:/home/baikal/workspace/C50/Huawei_IoT_Agent_Tiny_SDK_Linux//lwm2m/core/registration.c ****         if(!payload)
GAS LISTING /tmp/ccTnshMj.s 			page 35


 1045              		.loc 1 390 0
 1046 0089 4C63F0   		movslq	%eax, %r14
 1047 008c 4C89F7   		movq	%r14, %rdi
 1048 008f E8000000 		call	lwm2m_malloc
 1048      00
 1049              	.LVL146:
 1050 0094 4989C7   		movq	%rax, %r15
 1051              	.LVL147:
 391:/home/baikal/workspace/C50/Huawei_IoT_Agent_Tiny_SDK_Linux//lwm2m/core/registration.c ****         {
 1052              		.loc 1 391 0
 1053 0097 4885C0   		testq	%rax, %rax
 1054 009a 7512     		jne	.L70
 393:/home/baikal/workspace/C50/Huawei_IoT_Agent_Tiny_SDK_Linux//lwm2m/core/registration.c ****             return COAP_500_INTERNAL_SERVER_ERROR;
 1055              		.loc 1 393 0
 1056 009c 4889EF   		movq	%rbp, %rdi
 1057 009f E8000000 		call	transaction_free
 1057      00
 1058              	.LVL148:
 394:/home/baikal/workspace/C50/Huawei_IoT_Agent_Tiny_SDK_Linux//lwm2m/core/registration.c ****         }
 1059              		.loc 1 394 0
 1060 00a4 B8A00000 		movl	$160, %eax
 1060      00
 1061 00a9 E9940000 		jmp	.L67
 1061      00
 1062              	.LVL149:
 1063              	.L70:
 397:/home/baikal/workspace/C50/Huawei_IoT_Agent_Tiny_SDK_Linux//lwm2m/core/registration.c ****         if(payload_length == 0)
 1064              		.loc 1 397 0
 1065 00ae 4C89F2   		movq	%r14, %rdx
 1066 00b1 4889C6   		movq	%rax, %rsi
 1067 00b4 4889DF   		movq	%rbx, %rdi
 1068 00b7 E8000000 		call	object_getRegisterPayload
 1068      00
 1069              	.LVL150:
 398:/home/baikal/workspace/C50/Huawei_IoT_Agent_Tiny_SDK_Linux//lwm2m/core/registration.c ****         {
 1070              		.loc 1 398 0
 1071 00bc 85C0     		testl	%eax, %eax
 1072 00be 7517     		jne	.L71
 400:/home/baikal/workspace/C50/Huawei_IoT_Agent_Tiny_SDK_Linux//lwm2m/core/registration.c ****             lwm2m_free(payload);
 1073              		.loc 1 400 0
 1074 00c0 4889EF   		movq	%rbp, %rdi
 1075 00c3 E8000000 		call	transaction_free
 1075      00
 1076              	.LVL151:
 401:/home/baikal/workspace/C50/Huawei_IoT_Agent_Tiny_SDK_Linux//lwm2m/core/registration.c ****             return COAP_500_INTERNAL_SERVER_ERROR;
 1077              		.loc 1 401 0
 1078 00c8 4C89FF   		movq	%r15, %rdi
 1079 00cb E8000000 		call	lwm2m_free
 1079      00
 1080              	.LVL152:
 402:/home/baikal/workspace/C50/Huawei_IoT_Agent_Tiny_SDK_Linux//lwm2m/core/registration.c ****         }
 1081              		.loc 1 402 0
 1082 00d0 B8A00000 		movl	$160, %eax
 1082      00
 1083 00d5 EB6B     		jmp	.L67
 1084              	.LVL153:
 1085              	.L71:
GAS LISTING /tmp/ccTnshMj.s 			page 36


 404:/home/baikal/workspace/C50/Huawei_IoT_Agent_Tiny_SDK_Linux//lwm2m/core/registration.c ****     }
 1086              		.loc 1 404 0
 1087 00d7 488B7D38 		movq	56(%rbp), %rdi
 1088 00db 4863D0   		movslq	%eax, %rdx
 1089 00de 4C89FE   		movq	%r15, %rsi
 1090 00e1 E8000000 		call	coap_set_payload
 1090      00
 1091              	.LVL154:
 1092 00e6 EB06     		jmp	.L68
 1093              	.LVL155:
 1094              	.L74:
 373:/home/baikal/workspace/C50/Huawei_IoT_Agent_Tiny_SDK_Linux//lwm2m/core/registration.c ****     int payload_length;
 1095              		.loc 1 373 0
 1096 00e8 41BF0000 		movl	$0, %r15d
 1096      0000
 1097              	.LVL156:
 1098              	.L68:
 407:/home/baikal/workspace/C50/Huawei_IoT_Agent_Tiny_SDK_Linux//lwm2m/core/registration.c ****     transaction->userData = (void *) server;
 1099              		.loc 1 407 0
 1100 00ee 48C74560 		movq	$prv_handleRegistrationUpdateReply, 96(%rbp)
 1100      00000000 
 408:/home/baikal/workspace/C50/Huawei_IoT_Agent_Tiny_SDK_Linux//lwm2m/core/registration.c **** 
 1101              		.loc 1 408 0
 1102 00f6 4C896568 		movq	%r12, 104(%rbp)
 410:/home/baikal/workspace/C50/Huawei_IoT_Agent_Tiny_SDK_Linux//lwm2m/core/registration.c **** 
 1103              		.loc 1 410 0
 1104 00fa 488B7B58 		movq	88(%rbx), %rdi
 1105 00fe 4889EE   		movq	%rbp, %rsi
 1106 0101 E8000000 		call	lwm2m_list_add
 1106      00
 1107              	.LVL157:
 1108 0106 48894358 		movq	%rax, 88(%rbx)
 412:/home/baikal/workspace/C50/Huawei_IoT_Agent_Tiny_SDK_Linux//lwm2m/core/registration.c ****     {
 1109              		.loc 1 412 0
 1110 010a 4889EE   		movq	%rbp, %rsi
 1111 010d 4889DF   		movq	%rbx, %rdi
 1112 0110 E8000000 		call	transaction_send
 1112      00
 1113              	.LVL158:
 1114 0115 85C0     		testl	%eax, %eax
 1115 0117 7509     		jne	.L72
 414:/home/baikal/workspace/C50/Huawei_IoT_Agent_Tiny_SDK_Linux//lwm2m/core/registration.c ****     }
 1116              		.loc 1 414 0
 1117 0119 41C74424 		movl	$4, 48(%r12)
 1117      30040000 
 1117      00
 1118              	.L72:
 417:/home/baikal/workspace/C50/Huawei_IoT_Agent_Tiny_SDK_Linux//lwm2m/core/registration.c ****     {
 1119              		.loc 1 417 0
 1120 0122 4584ED   		testb	%r13b, %r13b
 1121 0125 7416     		je	.L75
 419:/home/baikal/workspace/C50/Huawei_IoT_Agent_Tiny_SDK_Linux//lwm2m/core/registration.c ****     }
 1122              		.loc 1 419 0
 1123 0127 4C89FF   		movq	%r15, %rdi
 1124 012a E8000000 		call	lwm2m_free
 1124      00
 1125              	.LVL159:
GAS LISTING /tmp/ccTnshMj.s 			page 37


 422:/home/baikal/workspace/C50/Huawei_IoT_Agent_Tiny_SDK_Linux//lwm2m/core/registration.c **** }
 1126              		.loc 1 422 0
 1127 012f B8000000 		movl	$0, %eax
 1127      00
 1128 0134 EB0C     		jmp	.L67
 1129              	.LVL160:
 1130              	.L73:
 377:/home/baikal/workspace/C50/Huawei_IoT_Agent_Tiny_SDK_Linux//lwm2m/core/registration.c **** 
 1131              		.loc 1 377 0
 1132 0136 B8A00000 		movl	$160, %eax
 1132      00
 1133              	.LVL161:
 1134 013b EB05     		jmp	.L67
 1135              	.LVL162:
 1136              	.L75:
 422:/home/baikal/workspace/C50/Huawei_IoT_Agent_Tiny_SDK_Linux//lwm2m/core/registration.c **** }
 1137              		.loc 1 422 0
 1138 013d B8000000 		movl	$0, %eax
 1138      00
 1139              	.LVL163:
 1140              	.L67:
 423:/home/baikal/workspace/C50/Huawei_IoT_Agent_Tiny_SDK_Linux//lwm2m/core/registration.c **** 
 1141              		.loc 1 423 0
 1142 0142 4883C408 		addq	$8, %rsp
 1143              	.LCFI54:
 1144              		.cfi_def_cfa_offset 56
 1145 0146 5B       		popq	%rbx
 1146              	.LCFI55:
 1147              		.cfi_def_cfa_offset 48
 1148              	.LVL164:
 1149 0147 5D       		popq	%rbp
 1150              	.LCFI56:
 1151              		.cfi_def_cfa_offset 40
 1152 0148 415C     		popq	%r12
 1153              	.LCFI57:
 1154              		.cfi_def_cfa_offset 32
 1155              	.LVL165:
 1156 014a 415D     		popq	%r13
 1157              	.LCFI58:
 1158              		.cfi_def_cfa_offset 24
 1159 014c 415E     		popq	%r14
 1160              	.LCFI59:
 1161              		.cfi_def_cfa_offset 16
 1162 014e 415F     		popq	%r15
 1163              	.LCFI60:
 1164              		.cfi_def_cfa_offset 8
 1165 0150 C3       		ret
 1166              		.cfi_endproc
 1167              	.LFE68:
 1169              		.section	.text.lwm2m_update_registration,"ax",@progbits
 1170              		.globl	lwm2m_update_registration
 1172              	lwm2m_update_registration:
 1173              	.LFB69:
 429:/home/baikal/workspace/C50/Huawei_IoT_Agent_Tiny_SDK_Linux//lwm2m/core/registration.c ****     lwm2m_server_t *targetP;
 1174              		.loc 1 429 0
 1175              		.cfi_startproc
 1176              	.LVL166:
GAS LISTING /tmp/ccTnshMj.s 			page 38


 1177 0000 4156     		pushq	%r14
 1178              	.LCFI61:
 1179              		.cfi_def_cfa_offset 16
 1180              		.cfi_offset 14, -16
 1181 0002 4155     		pushq	%r13
 1182              	.LCFI62:
 1183              		.cfi_def_cfa_offset 24
 1184              		.cfi_offset 13, -24
 1185 0004 4154     		pushq	%r12
 1186              	.LCFI63:
 1187              		.cfi_def_cfa_offset 32
 1188              		.cfi_offset 12, -32
 1189 0006 55       		pushq	%rbp
 1190              	.LCFI64:
 1191              		.cfi_def_cfa_offset 40
 1192              		.cfi_offset 6, -40
 1193 0007 53       		pushq	%rbx
 1194              	.LCFI65:
 1195              		.cfi_def_cfa_offset 48
 1196              		.cfi_offset 3, -48
 1197 0008 4189F5   		movl	%esi, %r13d
 1198 000b 4189D6   		movl	%edx, %r14d
 1199 000e 89F5     		movl	%esi, %ebp
 1200 0010 4189D4   		movl	%edx, %r12d
 1201              	.LVL167:
 437:/home/baikal/workspace/C50/Huawei_IoT_Agent_Tiny_SDK_Linux//lwm2m/core/registration.c ****     if (targetP == NULL)
 1202              		.loc 1 437 0
 1203 0013 488B5F30 		movq	48(%rdi), %rbx
 1204              	.LVL168:
 438:/home/baikal/workspace/C50/Huawei_IoT_Agent_Tiny_SDK_Linux//lwm2m/core/registration.c ****     {
 1205              		.loc 1 438 0
 1206 0017 4885DB   		testq	%rbx, %rbx
 1207 001a 0F85A300 		jne	.L80
 1207      0000
 440:/home/baikal/workspace/C50/Huawei_IoT_Agent_Tiny_SDK_Linux//lwm2m/core/registration.c ****         {
 1208              		.loc 1 440 0
 1209 0020 BE000000 		movl	$0, %esi
 1209      00
 1210              	.LVL169:
 1211 0025 E8000000 		call	object_getServers
 1211      00
 1212              	.LVL170:
 1213 002a 83F8FF   		cmpl	$-1, %eax
 1214 002d 0F859000 		jne	.L80
 1214      0000
 1215 0033 E9B60000 		jmp	.L88
 1215      00
 1216              	.L86:
 448:/home/baikal/workspace/C50/Huawei_IoT_Agent_Tiny_SDK_Linux//lwm2m/core/registration.c ****         {
 1217              		.loc 1 448 0
 1218 0038 6685ED   		testw	%bp, %bp
 1219 003b 745B     		je	.L81
 450:/home/baikal/workspace/C50/Huawei_IoT_Agent_Tiny_SDK_Linux//lwm2m/core/registration.c ****             {
 1220              		.loc 1 450 0
 1221 003d 663B6B0A 		cmpw	10(%rbx), %bp
 1222 0041 757D     		jne	.L82
 453:/home/baikal/workspace/C50/Huawei_IoT_Agent_Tiny_SDK_Linux//lwm2m/core/registration.c ****                         || targetP->status == STATE_REG_UPDATE_PENDING)
GAS LISTING /tmp/ccTnshMj.s 			page 39


 1223              		.loc 1 453 0
 1224 0043 8B4330   		movl	48(%rbx), %eax
 454:/home/baikal/workspace/C50/Huawei_IoT_Agent_Tiny_SDK_Linux//lwm2m/core/registration.c ****                 {
 1225              		.loc 1 454 0
 1226 0046 83F802   		cmpl	$2, %eax
 1227 0049 0F94C1   		sete	%cl
 1228 004c 83F804   		cmpl	$4, %eax
 1229 004f 0F94C2   		sete	%dl
 453:/home/baikal/workspace/C50/Huawei_IoT_Agent_Tiny_SDK_Linux//lwm2m/core/registration.c ****                         || targetP->status == STATE_REG_UPDATE_PENDING)
 1230              		.loc 1 453 0
 1231 0052 08D1     		orb	%dl, %cl
 1232 0054 7427     		je	.L83
 456:/home/baikal/workspace/C50/Huawei_IoT_Agent_Tiny_SDK_Linux//lwm2m/core/registration.c ****                     {
 1233              		.loc 1 456 0
 1234 0056 4584F6   		testb	%r14b, %r14b
 1235 0059 7411     		je	.L84
 458:/home/baikal/workspace/C50/Huawei_IoT_Agent_Tiny_SDK_Linux//lwm2m/core/registration.c ****                     }
 1236              		.loc 1 458 0
 1237 005b C7433006 		movl	$6, 48(%rbx)
 1237      000000
 464:/home/baikal/workspace/C50/Huawei_IoT_Agent_Tiny_SDK_Linux//lwm2m/core/registration.c ****                 }
 1238              		.loc 1 464 0
 1239 0062 B8000000 		movl	$0, %eax
 1239      00
 1240 0067 E9950000 		jmp	.L79
 1240      00
 1241              	.L84:
 462:/home/baikal/workspace/C50/Huawei_IoT_Agent_Tiny_SDK_Linux//lwm2m/core/registration.c ****                     }
 1242              		.loc 1 462 0
 1243 006c C7433005 		movl	$5, 48(%rbx)
 1243      000000
 464:/home/baikal/workspace/C50/Huawei_IoT_Agent_Tiny_SDK_Linux//lwm2m/core/registration.c ****                 }
 1244              		.loc 1 464 0
 1245 0073 B8000000 		movl	$0, %eax
 1245      00
 1246 0078 E9840000 		jmp	.L79
 1246      00
 1247              	.L83:
 467:/home/baikal/workspace/C50/Huawei_IoT_Agent_Tiny_SDK_Linux//lwm2m/core/registration.c ****                 {
 1248              		.loc 1 467 0
 1249 007d 83E805   		subl	$5, %eax
 466:/home/baikal/workspace/C50/Huawei_IoT_Agent_Tiny_SDK_Linux//lwm2m/core/registration.c ****                          || (targetP->status == STATE_REG_UPDATE_NEEDED))
 1250              		.loc 1 466 0
 1251 0080 83F801   		cmpl	$1, %eax
 1252 0083 7770     		ja	.L89
 470:/home/baikal/workspace/C50/Huawei_IoT_Agent_Tiny_SDK_Linux//lwm2m/core/registration.c ****                     {
 1253              		.loc 1 470 0
 1254 0085 4584F6   		testb	%r14b, %r14b
 1255 0088 7472     		je	.L90
 472:/home/baikal/workspace/C50/Huawei_IoT_Agent_Tiny_SDK_Linux//lwm2m/core/registration.c ****                     }
 1256              		.loc 1 472 0
 1257 008a C7433006 		movl	$6, 48(%rbx)
 1257      000000
 474:/home/baikal/workspace/C50/Huawei_IoT_Agent_Tiny_SDK_Linux//lwm2m/core/registration.c ****                 }
 1258              		.loc 1 474 0
 1259 0091 B8000000 		movl	$0, %eax
 1259      00
GAS LISTING /tmp/ccTnshMj.s 			page 40


 1260 0096 EB69     		jmp	.L79
 1261              	.L81:
 484:/home/baikal/workspace/C50/Huawei_IoT_Agent_Tiny_SDK_Linux//lwm2m/core/registration.c ****                     || targetP->status == STATE_REG_UPDATE_PENDING)
 1262              		.loc 1 484 0
 1263 0098 8B4330   		movl	48(%rbx), %eax
 485:/home/baikal/workspace/C50/Huawei_IoT_Agent_Tiny_SDK_Linux//lwm2m/core/registration.c ****             {
 1264              		.loc 1 485 0
 1265 009b 83F802   		cmpl	$2, %eax
 1266 009e 0F94C2   		sete	%dl
 1267 00a1 83F804   		cmpl	$4, %eax
 1268 00a4 0F94C0   		sete	%al
 484:/home/baikal/workspace/C50/Huawei_IoT_Agent_Tiny_SDK_Linux//lwm2m/core/registration.c ****                     || targetP->status == STATE_REG_UPDATE_PENDING)
 1269              		.loc 1 484 0
 1270 00a7 08C2     		orb	%al, %dl
 1271 00a9 7415     		je	.L82
 487:/home/baikal/workspace/C50/Huawei_IoT_Agent_Tiny_SDK_Linux//lwm2m/core/registration.c ****                 {
 1272              		.loc 1 487 0
 1273 00ab 4584E4   		testb	%r12b, %r12b
 1274 00ae 7409     		je	.L85
 489:/home/baikal/workspace/C50/Huawei_IoT_Agent_Tiny_SDK_Linux//lwm2m/core/registration.c ****                 }
 1275              		.loc 1 489 0
 1276 00b0 C7433006 		movl	$6, 48(%rbx)
 1276      000000
 1277 00b7 EB07     		jmp	.L82
 1278              	.L85:
 493:/home/baikal/workspace/C50/Huawei_IoT_Agent_Tiny_SDK_Linux//lwm2m/core/registration.c ****                 }
 1279              		.loc 1 493 0
 1280 00b9 C7433005 		movl	$5, 48(%rbx)
 1280      000000
 1281              	.L82:
 497:/home/baikal/workspace/C50/Huawei_IoT_Agent_Tiny_SDK_Linux//lwm2m/core/registration.c ****     }
 1282              		.loc 1 497 0
 1283 00c0 488B1B   		movq	(%rbx), %rbx
 1284              	.LVL171:
 1285              	.L80:
 446:/home/baikal/workspace/C50/Huawei_IoT_Agent_Tiny_SDK_Linux//lwm2m/core/registration.c ****     {
 1286              		.loc 1 446 0
 1287 00c3 4885DB   		testq	%rbx, %rbx
 1288 00c6 0F856CFF 		jne	.L86
 1288      FFFF
 500:/home/baikal/workspace/C50/Huawei_IoT_Agent_Tiny_SDK_Linux//lwm2m/core/registration.c ****             && targetP == NULL)
 1289              		.loc 1 500 0
 1290 00cc 664585ED 		testw	%r13w, %r13w
 1291 00d0 0F95C2   		setne	%dl
 501:/home/baikal/workspace/C50/Huawei_IoT_Agent_Tiny_SDK_Linux//lwm2m/core/registration.c ****     {
 1292              		.loc 1 501 0
 1293 00d3 4885DB   		testq	%rbx, %rbx
 1294 00d6 0F94C0   		sete	%al
 500:/home/baikal/workspace/C50/Huawei_IoT_Agent_Tiny_SDK_Linux//lwm2m/core/registration.c ****             && targetP == NULL)
 1295              		.loc 1 500 0
 1296 00d9 84C2     		testb	%al, %dl
 1297 00db 7507     		jne	.L91
 435:/home/baikal/workspace/C50/Huawei_IoT_Agent_Tiny_SDK_Linux//lwm2m/core/registration.c **** 
 1298              		.loc 1 435 0
 1299 00dd B8000000 		movl	$0, %eax
 1299      00
 1300 00e2 EB05     		jmp	.L87
GAS LISTING /tmp/ccTnshMj.s 			page 41


 1301              	.L91:
 504:/home/baikal/workspace/C50/Huawei_IoT_Agent_Tiny_SDK_Linux//lwm2m/core/registration.c ****     }
 1302              		.loc 1 504 0
 1303 00e4 B884FFFF 		movl	$-124, %eax
 1303      FF
 1304              	.L87:
 1305              	.LVL172:
 507:/home/baikal/workspace/C50/Huawei_IoT_Agent_Tiny_SDK_Linux//lwm2m/core/registration.c **** }
 1306              		.loc 1 507 0
 1307 00e9 0FB6C0   		movzbl	%al, %eax
 1308 00ec EB13     		jmp	.L79
 1309              	.LVL173:
 1310              	.L88:
 443:/home/baikal/workspace/C50/Huawei_IoT_Agent_Tiny_SDK_Linux//lwm2m/core/registration.c ****         }
 1311              		.loc 1 443 0
 1312 00ee B8840000 		movl	$132, %eax
 1312      00
 1313 00f3 EB0C     		jmp	.L79
 1314              	.L89:
 478:/home/baikal/workspace/C50/Huawei_IoT_Agent_Tiny_SDK_Linux//lwm2m/core/registration.c ****                 }
 1315              		.loc 1 478 0
 1316 00f5 B8800000 		movl	$128, %eax
 1316      00
 1317 00fa EB05     		jmp	.L79
 1318              	.L90:
 474:/home/baikal/workspace/C50/Huawei_IoT_Agent_Tiny_SDK_Linux//lwm2m/core/registration.c ****                 }
 1319              		.loc 1 474 0
 1320 00fc B8000000 		movl	$0, %eax
 1320      00
 1321              	.LVL174:
 1322              	.L79:
 508:/home/baikal/workspace/C50/Huawei_IoT_Agent_Tiny_SDK_Linux//lwm2m/core/registration.c **** //serverlistobjectlist
 1323              		.loc 1 508 0
 1324 0101 5B       		popq	%rbx
 1325              	.LCFI66:
 1326              		.cfi_def_cfa_offset 40
 1327              	.LVL175:
 1328 0102 5D       		popq	%rbp
 1329              	.LCFI67:
 1330              		.cfi_def_cfa_offset 32
 1331              	.LVL176:
 1332 0103 415C     		popq	%r12
 1333              	.LCFI68:
 1334              		.cfi_def_cfa_offset 24
 1335              	.LVL177:
 1336 0105 415D     		popq	%r13
 1337              	.LCFI69:
 1338              		.cfi_def_cfa_offset 16
 1339 0107 415E     		popq	%r14
 1340              	.LCFI70:
 1341              		.cfi_def_cfa_offset 8
 1342 0109 C3       		ret
 1343              		.cfi_endproc
 1344              	.LFE69:
 1346              		.section	.text.registration_start,"ax",@progbits
 1347              		.globl	registration_start
 1349              	registration_start:
GAS LISTING /tmp/ccTnshMj.s 			page 42


 1350              	.LFB70:
 511:/home/baikal/workspace/C50/Huawei_IoT_Agent_Tiny_SDK_Linux//lwm2m/core/registration.c ****     lwm2m_server_t *targetP;
 1351              		.loc 1 511 0
 1352              		.cfi_startproc
 1353              	.LVL178:
 1354 0000 55       		pushq	%rbp
 1355              	.LCFI71:
 1356              		.cfi_def_cfa_offset 16
 1357              		.cfi_offset 6, -16
 1358 0001 53       		pushq	%rbx
 1359              	.LCFI72:
 1360              		.cfi_def_cfa_offset 24
 1361              		.cfi_offset 3, -24
 1362 0002 4883EC08 		subq	$8, %rsp
 1363              	.LCFI73:
 1364              		.cfi_def_cfa_offset 32
 1365 0006 4889FD   		movq	%rdi, %rbp
 1366              	.LVL179:
 519:/home/baikal/workspace/C50/Huawei_IoT_Agent_Tiny_SDK_Linux//lwm2m/core/registration.c ****     while (targetP != NULL && result == COAP_NO_ERROR)
 1367              		.loc 1 519 0
 1368 0009 488B5F30 		movq	48(%rdi), %rbx
 1369              	.LVL180:
 517:/home/baikal/workspace/C50/Huawei_IoT_Agent_Tiny_SDK_Linux//lwm2m/core/registration.c **** 
 1370              		.loc 1 517 0
 1371 000d B8000000 		movl	$0, %eax
 1371      00
 520:/home/baikal/workspace/C50/Huawei_IoT_Agent_Tiny_SDK_Linux//lwm2m/core/registration.c ****     {
 1372              		.loc 1 520 0
 1373 0012 EB20     		jmp	.L94
 1374              	.LVL181:
 1375              	.L96:
 522:/home/baikal/workspace/C50/Huawei_IoT_Agent_Tiny_SDK_Linux//lwm2m/core/registration.c ****                 || targetP->status == STATE_REG_FAILED)
 1376              		.loc 1 522 0
 1377 0014 8B5330   		movl	48(%rbx), %edx
 523:/home/baikal/workspace/C50/Huawei_IoT_Agent_Tiny_SDK_Linux//lwm2m/core/registration.c ****         {
 1378              		.loc 1 523 0
 1379 0017 85D2     		testl	%edx, %edx
 1380 0019 0F94C1   		sete	%cl
 1381 001c 83FA03   		cmpl	$3, %edx
 1382 001f 0F94C2   		sete	%dl
 522:/home/baikal/workspace/C50/Huawei_IoT_Agent_Tiny_SDK_Linux//lwm2m/core/registration.c ****                 || targetP->status == STATE_REG_FAILED)
 1383              		.loc 1 522 0
 1384 0022 08D1     		orb	%dl, %cl
 1385 0024 740B     		je	.L95
 525:/home/baikal/workspace/C50/Huawei_IoT_Agent_Tiny_SDK_Linux//lwm2m/core/registration.c ****         }
 1386              		.loc 1 525 0
 1387 0026 4889DE   		movq	%rbx, %rsi
 1388 0029 4889EF   		movq	%rbp, %rdi
 1389 002c E8000000 		call	prv_register
 1389      00
 1390              	.LVL182:
 1391              	.L95:
 527:/home/baikal/workspace/C50/Huawei_IoT_Agent_Tiny_SDK_Linux//lwm2m/core/registration.c ****     }
 1392              		.loc 1 527 0
 1393 0031 488B1B   		movq	(%rbx), %rbx
 1394              	.LVL183:
 1395              	.L94:
GAS LISTING /tmp/ccTnshMj.s 			page 43


 520:/home/baikal/workspace/C50/Huawei_IoT_Agent_Tiny_SDK_Linux//lwm2m/core/registration.c ****     {
 1396              		.loc 1 520 0
 1397 0034 4885DB   		testq	%rbx, %rbx
 1398 0037 0F95C1   		setne	%cl
 1399 003a 84C0     		testb	%al, %al
 1400 003c 0F94C2   		sete	%dl
 1401 003f 84D1     		testb	%dl, %cl
 1402 0041 75D1     		jne	.L96
 531:/home/baikal/workspace/C50/Huawei_IoT_Agent_Tiny_SDK_Linux//lwm2m/core/registration.c **** 
 1403              		.loc 1 531 0
 1404 0043 4883C408 		addq	$8, %rsp
 1405              	.LCFI74:
 1406              		.cfi_def_cfa_offset 24
 1407 0047 5B       		popq	%rbx
 1408              	.LCFI75:
 1409              		.cfi_def_cfa_offset 16
 1410              	.LVL184:
 1411 0048 5D       		popq	%rbp
 1412              	.LCFI76:
 1413              		.cfi_def_cfa_offset 8
 1414              	.LVL185:
 1415 0049 C3       		ret
 1416              		.cfi_endproc
 1417              	.LFE70:
 1419              		.section	.text.registration_getStatus,"ax",@progbits
 1420              		.globl	registration_getStatus
 1422              	registration_getStatus:
 1423              	.LFB71:
 540:/home/baikal/workspace/C50/Huawei_IoT_Agent_Tiny_SDK_Linux//lwm2m/core/registration.c ****     lwm2m_server_t *targetP;
 1424              		.loc 1 540 0
 1425              		.cfi_startproc
 1426              	.LVL186:
 546:/home/baikal/workspace/C50/Huawei_IoT_Agent_Tiny_SDK_Linux//lwm2m/core/registration.c ****     reg_status = STATE_REG_FAILED;
 1427              		.loc 1 546 0
 1428 0000 488B4F30 		movq	48(%rdi), %rcx
 1429              	.LVL187:
 547:/home/baikal/workspace/C50/Huawei_IoT_Agent_Tiny_SDK_Linux//lwm2m/core/registration.c **** 
 1430              		.loc 1 547 0
 1431 0004 B8030000 		movl	$3, %eax
 1431      00
 549:/home/baikal/workspace/C50/Huawei_IoT_Agent_Tiny_SDK_Linux//lwm2m/core/registration.c ****     {
 1432              		.loc 1 549 0
 1433 0009 EB32     		jmp	.L99
 1434              	.LVL188:
 1435              	.L104:
 552:/home/baikal/workspace/C50/Huawei_IoT_Agent_Tiny_SDK_Linux//lwm2m/core/registration.c ****         {
 1436              		.loc 1 552 0
 1437 000b 8B5130   		movl	48(%rcx), %edx
 1438 000e 83FA02   		cmpl	$2, %edx
 1439 0011 7414     		je	.L101
 1440 0013 83FA02   		cmpl	$2, %edx
 1441 0016 7707     		ja	.L102
 1442 0018 83FA01   		cmpl	$1, %edx
 1443 001b 7411     		je	.L105
 1444 001d EB1B     		jmp	.L103
 1445              	.L102:
 1446 001f 83EA04   		subl	$4, %edx
GAS LISTING /tmp/ccTnshMj.s 			page 44


 1447 0022 83FA02   		cmpl	$2, %edx
 1448 0025 7713     		ja	.L103
 1449              	.L101:
 558:/home/baikal/workspace/C50/Huawei_IoT_Agent_Tiny_SDK_Linux//lwm2m/core/registration.c ****             {
 1450              		.loc 1 558 0
 1451 0027 83F803   		cmpl	$3, %eax
 1452 002a 750E     		jne	.L103
 1453 002c EB07     		jmp	.L106
 1454              	.L105:
 565:/home/baikal/workspace/C50/Huawei_IoT_Agent_Tiny_SDK_Linux//lwm2m/core/registration.c ****             break;
 1455              		.loc 1 565 0
 1456 002e B8010000 		movl	$1, %eax
 1456      00
 1457              	.LVL189:
 1458 0033 EB05     		jmp	.L103
 1459              	.LVL190:
 1460              	.L106:
 560:/home/baikal/workspace/C50/Huawei_IoT_Agent_Tiny_SDK_Linux//lwm2m/core/registration.c ****             }
 1461              		.loc 1 560 0
 1462 0035 B8020000 		movl	$2, %eax
 1462      00
 1463              	.LVL191:
 1464              	.L103:
 576:/home/baikal/workspace/C50/Huawei_IoT_Agent_Tiny_SDK_Linux//lwm2m/core/registration.c ****     }
 1465              		.loc 1 576 0
 1466 003a 488B09   		movq	(%rcx), %rcx
 1467              	.LVL192:
 1468              	.L99:
 549:/home/baikal/workspace/C50/Huawei_IoT_Agent_Tiny_SDK_Linux//lwm2m/core/registration.c ****     {
 1469              		.loc 1 549 0
 1470 003d 4885C9   		testq	%rcx, %rcx
 1471 0040 75C9     		jne	.L104
 580:/home/baikal/workspace/C50/Huawei_IoT_Agent_Tiny_SDK_Linux//lwm2m/core/registration.c **** 
 1472              		.loc 1 580 0
 1473 0042 F3C3     		rep ret
 1474              		.cfi_endproc
 1475              	.LFE71:
 1477              		.section	.text.registration_deregister,"ax",@progbits
 1478              		.globl	registration_deregister
 1480              	registration_deregister:
 1481              	.LFB73:
 593:/home/baikal/workspace/C50/Huawei_IoT_Agent_Tiny_SDK_Linux//lwm2m/core/registration.c ****         }
 594:/home/baikal/workspace/C50/Huawei_IoT_Agent_Tiny_SDK_Linux//lwm2m/core/registration.c ****     }
 595:/home/baikal/workspace/C50/Huawei_IoT_Agent_Tiny_SDK_Linux//lwm2m/core/registration.c **** }
 596:/home/baikal/workspace/C50/Huawei_IoT_Agent_Tiny_SDK_Linux//lwm2m/core/registration.c **** 
 597:/home/baikal/workspace/C50/Huawei_IoT_Agent_Tiny_SDK_Linux//lwm2m/core/registration.c **** void registration_deregister(lwm2m_context_t *contextP,
 598:/home/baikal/workspace/C50/Huawei_IoT_Agent_Tiny_SDK_Linux//lwm2m/core/registration.c ****                              lwm2m_server_t *serverP)
 599:/home/baikal/workspace/C50/Huawei_IoT_Agent_Tiny_SDK_Linux//lwm2m/core/registration.c **** {
 1482              		.loc 1 599 0
 1483              		.cfi_startproc
 1484              	.LVL193:
 600:/home/baikal/workspace/C50/Huawei_IoT_Agent_Tiny_SDK_Linux//lwm2m/core/registration.c ****     lwm2m_transaction_t *transaction;
 601:/home/baikal/workspace/C50/Huawei_IoT_Agent_Tiny_SDK_Linux//lwm2m/core/registration.c **** 
 602:/home/baikal/workspace/C50/Huawei_IoT_Agent_Tiny_SDK_Linux//lwm2m/core/registration.c ****     LOG_ARG("State: %s, serverP->status: %s", STR_STATE(contextP->state), STR_STATUS(serverP->statu
 603:/home/baikal/workspace/C50/Huawei_IoT_Agent_Tiny_SDK_Linux//lwm2m/core/registration.c **** 
 604:/home/baikal/workspace/C50/Huawei_IoT_Agent_Tiny_SDK_Linux//lwm2m/core/registration.c ****     if (serverP->status == STATE_DEREGISTERED
 1485              		.loc 1 604 0
GAS LISTING /tmp/ccTnshMj.s 			page 45


 1486 0000 8B4630   		movl	48(%rsi), %eax
 605:/home/baikal/workspace/C50/Huawei_IoT_Agent_Tiny_SDK_Linux//lwm2m/core/registration.c ****             || serverP->status == STATE_REG_PENDING
 606:/home/baikal/workspace/C50/Huawei_IoT_Agent_Tiny_SDK_Linux//lwm2m/core/registration.c ****             || serverP->status == STATE_DEREG_PENDING
 1487              		.loc 1 606 0
 1488 0003 83F801   		cmpl	$1, %eax
 1489 0006 0F96C1   		setbe	%cl
 1490 0009 83F807   		cmpl	$7, %eax
 1491 000c 0F94C2   		sete	%dl
 604:/home/baikal/workspace/C50/Huawei_IoT_Agent_Tiny_SDK_Linux//lwm2m/core/registration.c ****             || serverP->status == STATE_REG_PENDING
 1492              		.loc 1 604 0
 1493 000f 08D1     		orb	%dl, %cl
 1494 0011 0F85A400 		jne	.L111
 1494      0000
 607:/home/baikal/workspace/C50/Huawei_IoT_Agent_Tiny_SDK_Linux//lwm2m/core/registration.c ****             || serverP->status == STATE_REG_FAILED
 1495              		.loc 1 607 0
 1496 0017 83F803   		cmpl	$3, %eax
 1497 001a 0F849B00 		je	.L111
 1497      0000
 608:/home/baikal/workspace/C50/Huawei_IoT_Agent_Tiny_SDK_Linux//lwm2m/core/registration.c ****             || serverP->location == NULL)
 1498              		.loc 1 608 0
 1499 0020 48837E38 		cmpq	$0, 56(%rsi)
 1499      00
 1500 0025 0F849000 		je	.L111
 1500      0000
 599:/home/baikal/workspace/C50/Huawei_IoT_Agent_Tiny_SDK_Linux//lwm2m/core/registration.c ****     lwm2m_transaction_t *transaction;
 1501              		.loc 1 599 0
 1502 002b 4154     		pushq	%r12
 1503              	.LCFI77:
 1504              		.cfi_def_cfa_offset 16
 1505              		.cfi_offset 12, -16
 1506 002d 55       		pushq	%rbp
 1507              	.LCFI78:
 1508              		.cfi_def_cfa_offset 24
 1509              		.cfi_offset 6, -24
 1510 002e 53       		pushq	%rbx
 1511              	.LCFI79:
 1512              		.cfi_def_cfa_offset 32
 1513              		.cfi_offset 3, -32
 1514 002f 4889F5   		movq	%rsi, %rbp
 1515 0032 4889FB   		movq	%rdi, %rbx
 609:/home/baikal/workspace/C50/Huawei_IoT_Agent_Tiny_SDK_Linux//lwm2m/core/registration.c ****     {
 610:/home/baikal/workspace/C50/Huawei_IoT_Agent_Tiny_SDK_Linux//lwm2m/core/registration.c ****         return;
 611:/home/baikal/workspace/C50/Huawei_IoT_Agent_Tiny_SDK_Linux//lwm2m/core/registration.c ****     }
 612:/home/baikal/workspace/C50/Huawei_IoT_Agent_Tiny_SDK_Linux//lwm2m/core/registration.c **** 
 613:/home/baikal/workspace/C50/Huawei_IoT_Agent_Tiny_SDK_Linux//lwm2m/core/registration.c ****     transaction = transaction_new(serverP->sessionH, COAP_DELETE, NULL, NULL, contextP->nextMID++, 
 1516              		.loc 1 613 0
 1517 0035 440FB747 		movzwl	80(%rdi), %r8d
 1517      50
 1518 003a 418D4001 		leal	1(%r8), %eax
 1519 003e 66894750 		movw	%ax, 80(%rdi)
 1520 0042 488B7E28 		movq	40(%rsi), %rdi
 1521              	.LVL194:
 1522 0046 4883EC08 		subq	$8, %rsp
 1523              	.LCFI80:
 1524              		.cfi_def_cfa_offset 40
 1525 004a 6A00     		pushq	$0
 1526              	.LCFI81:
GAS LISTING /tmp/ccTnshMj.s 			page 46


 1527              		.cfi_def_cfa_offset 48
 1528 004c 41B90400 		movl	$4, %r9d
 1528      0000
 1529 0052 450FB7C0 		movzwl	%r8w, %r8d
 1530 0056 B9000000 		movl	$0, %ecx
 1530      00
 1531 005b BA000000 		movl	$0, %edx
 1531      00
 1532 0060 BE040000 		movl	$4, %esi
 1532      00
 1533              	.LVL195:
 1534 0065 E8000000 		call	transaction_new
 1534      00
 1535              	.LVL196:
 1536 006a 4989C4   		movq	%rax, %r12
 1537              	.LVL197:
 614:/home/baikal/workspace/C50/Huawei_IoT_Agent_Tiny_SDK_Linux//lwm2m/core/registration.c ****     if (transaction == NULL) return;
 1538              		.loc 1 614 0
 1539 006d 4883C410 		addq	$16, %rsp
 1540              	.LCFI82:
 1541              		.cfi_def_cfa_offset 32
 1542 0071 4885C0   		testq	%rax, %rax
 1543 0074 7441     		je	.L107
 615:/home/baikal/workspace/C50/Huawei_IoT_Agent_Tiny_SDK_Linux//lwm2m/core/registration.c **** 
 616:/home/baikal/workspace/C50/Huawei_IoT_Agent_Tiny_SDK_Linux//lwm2m/core/registration.c ****     coap_set_header_uri_path(transaction->message, serverP->location);
 1544              		.loc 1 616 0
 1545 0076 488B7538 		movq	56(%rbp), %rsi
 1546 007a 488B7838 		movq	56(%rax), %rdi
 1547 007e E8000000 		call	coap_set_header_uri_path
 1547      00
 1548              	.LVL198:
 617:/home/baikal/workspace/C50/Huawei_IoT_Agent_Tiny_SDK_Linux//lwm2m/core/registration.c **** 
 618:/home/baikal/workspace/C50/Huawei_IoT_Agent_Tiny_SDK_Linux//lwm2m/core/registration.c ****     transaction->callback = prv_handleDeregistrationReply;
 1549              		.loc 1 618 0
 1550 0083 49C74424 		movq	$prv_handleDeregistrationReply, 96(%r12)
 1550      60000000 
 1550      00
 619:/home/baikal/workspace/C50/Huawei_IoT_Agent_Tiny_SDK_Linux//lwm2m/core/registration.c ****     transaction->userData = (void *) serverP;
 1551              		.loc 1 619 0
 1552 008c 49896C24 		movq	%rbp, 104(%r12)
 1552      68
 620:/home/baikal/workspace/C50/Huawei_IoT_Agent_Tiny_SDK_Linux//lwm2m/core/registration.c **** 
 621:/home/baikal/workspace/C50/Huawei_IoT_Agent_Tiny_SDK_Linux//lwm2m/core/registration.c ****     contextP->transactionList = (lwm2m_transaction_t *)LWM2M_LIST_ADD(contextP->transactionList, tr
 1553              		.loc 1 621 0
 1554 0091 488B7B58 		movq	88(%rbx), %rdi
 1555 0095 4C89E6   		movq	%r12, %rsi
 1556 0098 E8000000 		call	lwm2m_list_add
 1556      00
 1557              	.LVL199:
 1558 009d 48894358 		movq	%rax, 88(%rbx)
 622:/home/baikal/workspace/C50/Huawei_IoT_Agent_Tiny_SDK_Linux//lwm2m/core/registration.c ****     if (transaction_send(contextP, transaction) == 0)
 1559              		.loc 1 622 0
 1560 00a1 4C89E6   		movq	%r12, %rsi
 1561 00a4 4889DF   		movq	%rbx, %rdi
 1562 00a7 E8000000 		call	transaction_send
 1562      00
 1563              	.LVL200:
GAS LISTING /tmp/ccTnshMj.s 			page 47


 1564 00ac 85C0     		testl	%eax, %eax
 1565 00ae 7507     		jne	.L107
 623:/home/baikal/workspace/C50/Huawei_IoT_Agent_Tiny_SDK_Linux//lwm2m/core/registration.c ****     {
 624:/home/baikal/workspace/C50/Huawei_IoT_Agent_Tiny_SDK_Linux//lwm2m/core/registration.c ****         serverP->status = STATE_DEREG_PENDING;
 1566              		.loc 1 624 0
 1567 00b0 C7453007 		movl	$7, 48(%rbp)
 1567      000000
 1568              	.L107:
 625:/home/baikal/workspace/C50/Huawei_IoT_Agent_Tiny_SDK_Linux//lwm2m/core/registration.c ****     }
 626:/home/baikal/workspace/C50/Huawei_IoT_Agent_Tiny_SDK_Linux//lwm2m/core/registration.c **** }
 1569              		.loc 1 626 0
 1570 00b7 5B       		popq	%rbx
 1571              	.LCFI83:
 1572              		.cfi_restore 3
 1573              		.cfi_def_cfa_offset 24
 1574              	.LVL201:
 1575 00b8 5D       		popq	%rbp
 1576              	.LCFI84:
 1577              		.cfi_restore 6
 1578              		.cfi_def_cfa_offset 16
 1579              	.LVL202:
 1580 00b9 415C     		popq	%r12
 1581              	.LCFI85:
 1582              		.cfi_restore 12
 1583              		.cfi_def_cfa_offset 8
 1584              	.LVL203:
 1585              	.L111:
 1586 00bb F3C3     		rep ret
 1587              		.cfi_endproc
 1588              	.LFE73:
 1590              		.section	.text.registration_reset,"ax",@progbits
 1591              		.globl	registration_reset
 1593              	registration_reset:
 1594              	.LFB74:
 627:/home/baikal/workspace/C50/Huawei_IoT_Agent_Tiny_SDK_Linux//lwm2m/core/registration.c **** 
 628:/home/baikal/workspace/C50/Huawei_IoT_Agent_Tiny_SDK_Linux//lwm2m/core/registration.c **** void registration_reset(lwm2m_context_t *contextP,
 629:/home/baikal/workspace/C50/Huawei_IoT_Agent_Tiny_SDK_Linux//lwm2m/core/registration.c ****                         lwm2m_server_t *serverP)
 630:/home/baikal/workspace/C50/Huawei_IoT_Agent_Tiny_SDK_Linux//lwm2m/core/registration.c **** {
 1595              		.loc 1 630 0
 1596              		.cfi_startproc
 1597              	.LVL204:
 1598 0000 53       		pushq	%rbx
 1599              	.LCFI86:
 1600              		.cfi_def_cfa_offset 16
 1601              		.cfi_offset 3, -16
 1602 0001 4889F3   		movq	%rsi, %rbx
 631:/home/baikal/workspace/C50/Huawei_IoT_Agent_Tiny_SDK_Linux//lwm2m/core/registration.c ****     //registration_deregister(contextP, serverP);
 632:/home/baikal/workspace/C50/Huawei_IoT_Agent_Tiny_SDK_Linux//lwm2m/core/registration.c ****     if (serverP->sessionH != NULL)
 1603              		.loc 1 632 0
 1604 0004 488B4628 		movq	40(%rsi), %rax
 1605 0008 4885C0   		testq	%rax, %rax
 1606 000b 7414     		je	.L113
 633:/home/baikal/workspace/C50/Huawei_IoT_Agent_Tiny_SDK_Linux//lwm2m/core/registration.c ****     {
 634:/home/baikal/workspace/C50/Huawei_IoT_Agent_Tiny_SDK_Linux//lwm2m/core/registration.c ****         lwm2m_close_connection(serverP->sessionH, contextP->userData);
 1607              		.loc 1 634 0
 1608 000d 488B7760 		movq	96(%rdi), %rsi
 1609              	.LVL205:
GAS LISTING /tmp/ccTnshMj.s 			page 48


 1610 0011 4889C7   		movq	%rax, %rdi
 1611              	.LVL206:
 1612 0014 E8000000 		call	lwm2m_close_connection
 1612      00
 1613              	.LVL207:
 635:/home/baikal/workspace/C50/Huawei_IoT_Agent_Tiny_SDK_Linux//lwm2m/core/registration.c ****         serverP->sessionH = NULL;
 1614              		.loc 1 635 0
 1615 0019 48C74328 		movq	$0, 40(%rbx)
 1615      00000000 
 1616              	.L113:
 636:/home/baikal/workspace/C50/Huawei_IoT_Agent_Tiny_SDK_Linux//lwm2m/core/registration.c ****     }
 637:/home/baikal/workspace/C50/Huawei_IoT_Agent_Tiny_SDK_Linux//lwm2m/core/registration.c ****     serverP->status = STATE_DEREGISTERED;
 1617              		.loc 1 637 0
 1618 0021 C7433000 		movl	$0, 48(%rbx)
 1618      000000
 638:/home/baikal/workspace/C50/Huawei_IoT_Agent_Tiny_SDK_Linux//lwm2m/core/registration.c **** }
 1619              		.loc 1 638 0
 1620 0028 5B       		popq	%rbx
 1621              	.LCFI87:
 1622              		.cfi_def_cfa_offset 8
 1623              	.LVL208:
 1624 0029 C3       		ret
 1625              		.cfi_endproc
 1626              	.LFE74:
 1628              		.section	.text.registration_get_registered_server,"ax",@progbits
 1629              		.globl	registration_get_registered_server
 1631              	registration_get_registered_server:
 1632              	.LFB75:
 639:/home/baikal/workspace/C50/Huawei_IoT_Agent_Tiny_SDK_Linux//lwm2m/core/registration.c **** 
 640:/home/baikal/workspace/C50/Huawei_IoT_Agent_Tiny_SDK_Linux//lwm2m/core/registration.c **** lwm2m_server_t *registration_get_registered_server(lwm2m_context_t *contextP)
 641:/home/baikal/workspace/C50/Huawei_IoT_Agent_Tiny_SDK_Linux//lwm2m/core/registration.c **** {
 1633              		.loc 1 641 0
 1634              		.cfi_startproc
 1635              	.LVL209:
 642:/home/baikal/workspace/C50/Huawei_IoT_Agent_Tiny_SDK_Linux//lwm2m/core/registration.c ****     lwm2m_server_t *targetP;
 643:/home/baikal/workspace/C50/Huawei_IoT_Agent_Tiny_SDK_Linux//lwm2m/core/registration.c **** 
 644:/home/baikal/workspace/C50/Huawei_IoT_Agent_Tiny_SDK_Linux//lwm2m/core/registration.c ****     if(NULL == contextP)
 1636              		.loc 1 644 0
 1637 0000 4885FF   		testq	%rdi, %rdi
 1638 0003 742F     		je	.L119
 645:/home/baikal/workspace/C50/Huawei_IoT_Agent_Tiny_SDK_Linux//lwm2m/core/registration.c ****     {
 646:/home/baikal/workspace/C50/Huawei_IoT_Agent_Tiny_SDK_Linux//lwm2m/core/registration.c ****         LOG("null pointer");
 647:/home/baikal/workspace/C50/Huawei_IoT_Agent_Tiny_SDK_Linux//lwm2m/core/registration.c ****         return NULL;
 648:/home/baikal/workspace/C50/Huawei_IoT_Agent_Tiny_SDK_Linux//lwm2m/core/registration.c ****     }
 649:/home/baikal/workspace/C50/Huawei_IoT_Agent_Tiny_SDK_Linux//lwm2m/core/registration.c **** 
 650:/home/baikal/workspace/C50/Huawei_IoT_Agent_Tiny_SDK_Linux//lwm2m/core/registration.c ****     targetP = contextP->serverList;
 1639              		.loc 1 650 0
 1640 0005 488B4730 		movq	48(%rdi), %rax
 1641              	.LVL210:
 651:/home/baikal/workspace/C50/Huawei_IoT_Agent_Tiny_SDK_Linux//lwm2m/core/registration.c ****     while (targetP != NULL)
 1642              		.loc 1 651 0
 1643 0009 EB22     		jmp	.L117
 1644              	.L118:
 652:/home/baikal/workspace/C50/Huawei_IoT_Agent_Tiny_SDK_Linux//lwm2m/core/registration.c ****     {
 653:/home/baikal/workspace/C50/Huawei_IoT_Agent_Tiny_SDK_Linux//lwm2m/core/registration.c ****         if ((STATE_REGISTERED == targetP->status)
 1645              		.loc 1 653 0
 1646 000b 8B5030   		movl	48(%rax), %edx
GAS LISTING /tmp/ccTnshMj.s 			page 49


 654:/home/baikal/workspace/C50/Huawei_IoT_Agent_Tiny_SDK_Linux//lwm2m/core/registration.c ****                 || (STATE_REG_UPDATE_PENDING == targetP->status)
 1647              		.loc 1 654 0
 1648 000e 83FA02   		cmpl	$2, %edx
 1649 0011 400F94C6 		sete	%sil
 1650 0015 83FA04   		cmpl	$4, %edx
 1651 0018 0F94C1   		sete	%cl
 653:/home/baikal/workspace/C50/Huawei_IoT_Agent_Tiny_SDK_Linux//lwm2m/core/registration.c ****                 || (STATE_REG_UPDATE_PENDING == targetP->status)
 1652              		.loc 1 653 0
 1653 001b 4008CE   		orb	%cl, %sil
 1654 001e 7519     		jne	.L116
 655:/home/baikal/workspace/C50/Huawei_IoT_Agent_Tiny_SDK_Linux//lwm2m/core/registration.c ****                 || (STATE_REG_UPDATE_NEEDED == targetP->status)
 1655              		.loc 1 655 0
 1656 0020 83FA05   		cmpl	$5, %edx
 1657 0023 7414     		je	.L116
 656:/home/baikal/workspace/C50/Huawei_IoT_Agent_Tiny_SDK_Linux//lwm2m/core/registration.c ****                 || (STATE_REG_FULL_UPDATE_NEEDED == targetP->status))
 1658              		.loc 1 656 0
 1659 0025 83FA06   		cmpl	$6, %edx
 1660 0028 740F     		je	.L116
 657:/home/baikal/workspace/C50/Huawei_IoT_Agent_Tiny_SDK_Linux//lwm2m/core/registration.c ****         {
 658:/home/baikal/workspace/C50/Huawei_IoT_Agent_Tiny_SDK_Linux//lwm2m/core/registration.c ****             return targetP;
 659:/home/baikal/workspace/C50/Huawei_IoT_Agent_Tiny_SDK_Linux//lwm2m/core/registration.c ****         }
 660:/home/baikal/workspace/C50/Huawei_IoT_Agent_Tiny_SDK_Linux//lwm2m/core/registration.c ****         targetP = targetP->next;
 1661              		.loc 1 660 0
 1662 002a 488B00   		movq	(%rax), %rax
 1663              	.LVL211:
 1664              	.L117:
 651:/home/baikal/workspace/C50/Huawei_IoT_Agent_Tiny_SDK_Linux//lwm2m/core/registration.c ****     {
 1665              		.loc 1 651 0
 1666 002d 4885C0   		testq	%rax, %rax
 1667 0030 75D9     		jne	.L118
 1668 0032 F3C3     		rep ret
 1669              	.LVL212:
 1670              	.L119:
 647:/home/baikal/workspace/C50/Huawei_IoT_Agent_Tiny_SDK_Linux//lwm2m/core/registration.c ****     }
 1671              		.loc 1 647 0
 1672 0034 B8000000 		movl	$0, %eax
 1672      00
 1673              	.L116:
 661:/home/baikal/workspace/C50/Huawei_IoT_Agent_Tiny_SDK_Linux//lwm2m/core/registration.c ****     }
 662:/home/baikal/workspace/C50/Huawei_IoT_Agent_Tiny_SDK_Linux//lwm2m/core/registration.c **** 
 663:/home/baikal/workspace/C50/Huawei_IoT_Agent_Tiny_SDK_Linux//lwm2m/core/registration.c ****     return NULL;
 664:/home/baikal/workspace/C50/Huawei_IoT_Agent_Tiny_SDK_Linux//lwm2m/core/registration.c **** }
 1674              		.loc 1 664 0
 1675 0039 F3C3     		rep ret
 1676              		.cfi_endproc
 1677              	.LFE75:
 1679              		.section	.text.registration_step,"ax",@progbits
 1680              		.globl	registration_step
 1682              	registration_step:
 1683              	.LFB76:
 665:/home/baikal/workspace/C50/Huawei_IoT_Agent_Tiny_SDK_Linux//lwm2m/core/registration.c **** 
 666:/home/baikal/workspace/C50/Huawei_IoT_Agent_Tiny_SDK_Linux//lwm2m/core/registration.c **** #endif
 667:/home/baikal/workspace/C50/Huawei_IoT_Agent_Tiny_SDK_Linux//lwm2m/core/registration.c **** 
 668:/home/baikal/workspace/C50/Huawei_IoT_Agent_Tiny_SDK_Linux//lwm2m/core/registration.c **** #ifdef LWM2M_SERVER_MODE
 669:/home/baikal/workspace/C50/Huawei_IoT_Agent_Tiny_SDK_Linux//lwm2m/core/registration.c **** static void prv_freeClientObjectList(lwm2m_client_object_t *objects)
 670:/home/baikal/workspace/C50/Huawei_IoT_Agent_Tiny_SDK_Linux//lwm2m/core/registration.c **** {
 671:/home/baikal/workspace/C50/Huawei_IoT_Agent_Tiny_SDK_Linux//lwm2m/core/registration.c ****     while (objects != NULL)
GAS LISTING /tmp/ccTnshMj.s 			page 50


 672:/home/baikal/workspace/C50/Huawei_IoT_Agent_Tiny_SDK_Linux//lwm2m/core/registration.c ****     {
 673:/home/baikal/workspace/C50/Huawei_IoT_Agent_Tiny_SDK_Linux//lwm2m/core/registration.c ****         lwm2m_client_object_t *objP;
 674:/home/baikal/workspace/C50/Huawei_IoT_Agent_Tiny_SDK_Linux//lwm2m/core/registration.c **** 
 675:/home/baikal/workspace/C50/Huawei_IoT_Agent_Tiny_SDK_Linux//lwm2m/core/registration.c ****         while (objects->instanceList != NULL)
 676:/home/baikal/workspace/C50/Huawei_IoT_Agent_Tiny_SDK_Linux//lwm2m/core/registration.c ****         {
 677:/home/baikal/workspace/C50/Huawei_IoT_Agent_Tiny_SDK_Linux//lwm2m/core/registration.c ****             lwm2m_list_t *target;
 678:/home/baikal/workspace/C50/Huawei_IoT_Agent_Tiny_SDK_Linux//lwm2m/core/registration.c **** 
 679:/home/baikal/workspace/C50/Huawei_IoT_Agent_Tiny_SDK_Linux//lwm2m/core/registration.c ****             target = objects->instanceList;
 680:/home/baikal/workspace/C50/Huawei_IoT_Agent_Tiny_SDK_Linux//lwm2m/core/registration.c ****             objects->instanceList = objects->instanceList->next;
 681:/home/baikal/workspace/C50/Huawei_IoT_Agent_Tiny_SDK_Linux//lwm2m/core/registration.c ****             lwm2m_free(target);
 682:/home/baikal/workspace/C50/Huawei_IoT_Agent_Tiny_SDK_Linux//lwm2m/core/registration.c ****         }
 683:/home/baikal/workspace/C50/Huawei_IoT_Agent_Tiny_SDK_Linux//lwm2m/core/registration.c **** 
 684:/home/baikal/workspace/C50/Huawei_IoT_Agent_Tiny_SDK_Linux//lwm2m/core/registration.c ****         objP = objects;
 685:/home/baikal/workspace/C50/Huawei_IoT_Agent_Tiny_SDK_Linux//lwm2m/core/registration.c ****         objects = objects->next;
 686:/home/baikal/workspace/C50/Huawei_IoT_Agent_Tiny_SDK_Linux//lwm2m/core/registration.c ****         lwm2m_free(objP);
 687:/home/baikal/workspace/C50/Huawei_IoT_Agent_Tiny_SDK_Linux//lwm2m/core/registration.c ****     }
 688:/home/baikal/workspace/C50/Huawei_IoT_Agent_Tiny_SDK_Linux//lwm2m/core/registration.c **** }
 689:/home/baikal/workspace/C50/Huawei_IoT_Agent_Tiny_SDK_Linux//lwm2m/core/registration.c **** 
 690:/home/baikal/workspace/C50/Huawei_IoT_Agent_Tiny_SDK_Linux//lwm2m/core/registration.c **** static int prv_getParameters(multi_option_t *query,
 691:/home/baikal/workspace/C50/Huawei_IoT_Agent_Tiny_SDK_Linux//lwm2m/core/registration.c ****                              char **nameP,
 692:/home/baikal/workspace/C50/Huawei_IoT_Agent_Tiny_SDK_Linux//lwm2m/core/registration.c ****                              uint32_t *lifetimeP,
 693:/home/baikal/workspace/C50/Huawei_IoT_Agent_Tiny_SDK_Linux//lwm2m/core/registration.c ****                              char **msisdnP,
 694:/home/baikal/workspace/C50/Huawei_IoT_Agent_Tiny_SDK_Linux//lwm2m/core/registration.c ****                              lwm2m_binding_t *bindingP,
 695:/home/baikal/workspace/C50/Huawei_IoT_Agent_Tiny_SDK_Linux//lwm2m/core/registration.c ****                              char **versionP)
 696:/home/baikal/workspace/C50/Huawei_IoT_Agent_Tiny_SDK_Linux//lwm2m/core/registration.c **** {
 697:/home/baikal/workspace/C50/Huawei_IoT_Agent_Tiny_SDK_Linux//lwm2m/core/registration.c ****     *nameP = NULL;
 698:/home/baikal/workspace/C50/Huawei_IoT_Agent_Tiny_SDK_Linux//lwm2m/core/registration.c ****     *lifetimeP = 0;
 699:/home/baikal/workspace/C50/Huawei_IoT_Agent_Tiny_SDK_Linux//lwm2m/core/registration.c ****     *msisdnP = NULL;
 700:/home/baikal/workspace/C50/Huawei_IoT_Agent_Tiny_SDK_Linux//lwm2m/core/registration.c ****     *bindingP = BINDING_UNKNOWN;
 701:/home/baikal/workspace/C50/Huawei_IoT_Agent_Tiny_SDK_Linux//lwm2m/core/registration.c ****     *versionP = NULL;
 702:/home/baikal/workspace/C50/Huawei_IoT_Agent_Tiny_SDK_Linux//lwm2m/core/registration.c **** 
 703:/home/baikal/workspace/C50/Huawei_IoT_Agent_Tiny_SDK_Linux//lwm2m/core/registration.c ****     while (query != NULL)
 704:/home/baikal/workspace/C50/Huawei_IoT_Agent_Tiny_SDK_Linux//lwm2m/core/registration.c ****     {
 705:/home/baikal/workspace/C50/Huawei_IoT_Agent_Tiny_SDK_Linux//lwm2m/core/registration.c ****         if (lwm2m_strncmp((char *)query->data, QUERY_NAME, QUERY_NAME_LEN) == 0)
 706:/home/baikal/workspace/C50/Huawei_IoT_Agent_Tiny_SDK_Linux//lwm2m/core/registration.c ****         {
 707:/home/baikal/workspace/C50/Huawei_IoT_Agent_Tiny_SDK_Linux//lwm2m/core/registration.c ****             if (*nameP != NULL) goto error;
 708:/home/baikal/workspace/C50/Huawei_IoT_Agent_Tiny_SDK_Linux//lwm2m/core/registration.c ****             if (query->len == QUERY_NAME_LEN) goto error;
 709:/home/baikal/workspace/C50/Huawei_IoT_Agent_Tiny_SDK_Linux//lwm2m/core/registration.c **** 
 710:/home/baikal/workspace/C50/Huawei_IoT_Agent_Tiny_SDK_Linux//lwm2m/core/registration.c ****             *nameP = (char *)lwm2m_malloc(query->len - QUERY_NAME_LEN + 1);
 711:/home/baikal/workspace/C50/Huawei_IoT_Agent_Tiny_SDK_Linux//lwm2m/core/registration.c ****             if (*nameP != NULL)
 712:/home/baikal/workspace/C50/Huawei_IoT_Agent_Tiny_SDK_Linux//lwm2m/core/registration.c ****             {
 713:/home/baikal/workspace/C50/Huawei_IoT_Agent_Tiny_SDK_Linux//lwm2m/core/registration.c ****                 memcpy(*nameP, query->data + QUERY_NAME_LEN, query->len - QUERY_NAME_LEN);
 714:/home/baikal/workspace/C50/Huawei_IoT_Agent_Tiny_SDK_Linux//lwm2m/core/registration.c ****                 (*nameP)[query->len - QUERY_NAME_LEN] = 0;
 715:/home/baikal/workspace/C50/Huawei_IoT_Agent_Tiny_SDK_Linux//lwm2m/core/registration.c ****             }
 716:/home/baikal/workspace/C50/Huawei_IoT_Agent_Tiny_SDK_Linux//lwm2m/core/registration.c ****         }
 717:/home/baikal/workspace/C50/Huawei_IoT_Agent_Tiny_SDK_Linux//lwm2m/core/registration.c ****         else if (lwm2m_strncmp((char *)query->data, QUERY_SMS, QUERY_SMS_LEN) == 0)
 718:/home/baikal/workspace/C50/Huawei_IoT_Agent_Tiny_SDK_Linux//lwm2m/core/registration.c ****         {
 719:/home/baikal/workspace/C50/Huawei_IoT_Agent_Tiny_SDK_Linux//lwm2m/core/registration.c ****             if (*msisdnP != NULL) goto error;
 720:/home/baikal/workspace/C50/Huawei_IoT_Agent_Tiny_SDK_Linux//lwm2m/core/registration.c ****             if (query->len == QUERY_SMS_LEN) goto error;
 721:/home/baikal/workspace/C50/Huawei_IoT_Agent_Tiny_SDK_Linux//lwm2m/core/registration.c **** 
 722:/home/baikal/workspace/C50/Huawei_IoT_Agent_Tiny_SDK_Linux//lwm2m/core/registration.c ****             *msisdnP = (char *)lwm2m_malloc(query->len - QUERY_SMS_LEN + 1);
 723:/home/baikal/workspace/C50/Huawei_IoT_Agent_Tiny_SDK_Linux//lwm2m/core/registration.c ****             if (*msisdnP != NULL)
 724:/home/baikal/workspace/C50/Huawei_IoT_Agent_Tiny_SDK_Linux//lwm2m/core/registration.c ****             {
 725:/home/baikal/workspace/C50/Huawei_IoT_Agent_Tiny_SDK_Linux//lwm2m/core/registration.c ****                 memcpy(*msisdnP, query->data + QUERY_SMS_LEN, query->len - QUERY_SMS_LEN);
 726:/home/baikal/workspace/C50/Huawei_IoT_Agent_Tiny_SDK_Linux//lwm2m/core/registration.c ****                 (*msisdnP)[query->len - QUERY_SMS_LEN] = 0;
 727:/home/baikal/workspace/C50/Huawei_IoT_Agent_Tiny_SDK_Linux//lwm2m/core/registration.c ****             }
 728:/home/baikal/workspace/C50/Huawei_IoT_Agent_Tiny_SDK_Linux//lwm2m/core/registration.c ****         }
GAS LISTING /tmp/ccTnshMj.s 			page 51


 729:/home/baikal/workspace/C50/Huawei_IoT_Agent_Tiny_SDK_Linux//lwm2m/core/registration.c ****         else if (lwm2m_strncmp((char *)query->data, QUERY_LIFETIME, QUERY_LIFETIME_LEN) == 0)
 730:/home/baikal/workspace/C50/Huawei_IoT_Agent_Tiny_SDK_Linux//lwm2m/core/registration.c ****         {
 731:/home/baikal/workspace/C50/Huawei_IoT_Agent_Tiny_SDK_Linux//lwm2m/core/registration.c ****             int i;
 732:/home/baikal/workspace/C50/Huawei_IoT_Agent_Tiny_SDK_Linux//lwm2m/core/registration.c **** 
 733:/home/baikal/workspace/C50/Huawei_IoT_Agent_Tiny_SDK_Linux//lwm2m/core/registration.c ****             if (*lifetimeP != 0) goto error;
 734:/home/baikal/workspace/C50/Huawei_IoT_Agent_Tiny_SDK_Linux//lwm2m/core/registration.c ****             if (query->len == QUERY_LIFETIME_LEN) goto error;
 735:/home/baikal/workspace/C50/Huawei_IoT_Agent_Tiny_SDK_Linux//lwm2m/core/registration.c **** 
 736:/home/baikal/workspace/C50/Huawei_IoT_Agent_Tiny_SDK_Linux//lwm2m/core/registration.c ****             for (i = QUERY_LIFETIME_LEN ; i < query->len ; i++)
 737:/home/baikal/workspace/C50/Huawei_IoT_Agent_Tiny_SDK_Linux//lwm2m/core/registration.c ****             {
 738:/home/baikal/workspace/C50/Huawei_IoT_Agent_Tiny_SDK_Linux//lwm2m/core/registration.c ****                 if (query->data[i] < '0' || query->data[i] > '9') goto error;
 739:/home/baikal/workspace/C50/Huawei_IoT_Agent_Tiny_SDK_Linux//lwm2m/core/registration.c ****                 *lifetimeP = (*lifetimeP * 10) + (query->data[i] - '0');
 740:/home/baikal/workspace/C50/Huawei_IoT_Agent_Tiny_SDK_Linux//lwm2m/core/registration.c ****             }
 741:/home/baikal/workspace/C50/Huawei_IoT_Agent_Tiny_SDK_Linux//lwm2m/core/registration.c ****         }
 742:/home/baikal/workspace/C50/Huawei_IoT_Agent_Tiny_SDK_Linux//lwm2m/core/registration.c ****         else if (lwm2m_strncmp((char *)query->data, QUERY_VERSION, QUERY_VERSION_LEN) == 0)
 743:/home/baikal/workspace/C50/Huawei_IoT_Agent_Tiny_SDK_Linux//lwm2m/core/registration.c ****         {
 744:/home/baikal/workspace/C50/Huawei_IoT_Agent_Tiny_SDK_Linux//lwm2m/core/registration.c ****             if (*versionP != NULL) goto error;
 745:/home/baikal/workspace/C50/Huawei_IoT_Agent_Tiny_SDK_Linux//lwm2m/core/registration.c ****             if (query->len == QUERY_VERSION_LEN) goto error;
 746:/home/baikal/workspace/C50/Huawei_IoT_Agent_Tiny_SDK_Linux//lwm2m/core/registration.c **** 
 747:/home/baikal/workspace/C50/Huawei_IoT_Agent_Tiny_SDK_Linux//lwm2m/core/registration.c ****             *versionP = (char *)lwm2m_malloc(query->len - QUERY_VERSION_LEN + 1);
 748:/home/baikal/workspace/C50/Huawei_IoT_Agent_Tiny_SDK_Linux//lwm2m/core/registration.c ****             if (*versionP != NULL)
 749:/home/baikal/workspace/C50/Huawei_IoT_Agent_Tiny_SDK_Linux//lwm2m/core/registration.c ****             {
 750:/home/baikal/workspace/C50/Huawei_IoT_Agent_Tiny_SDK_Linux//lwm2m/core/registration.c ****                 memcpy(*versionP, query->data + QUERY_VERSION_LEN, query->len - QUERY_VERSION_LEN);
 751:/home/baikal/workspace/C50/Huawei_IoT_Agent_Tiny_SDK_Linux//lwm2m/core/registration.c ****                 (*versionP)[query->len - QUERY_VERSION_LEN] = 0;
 752:/home/baikal/workspace/C50/Huawei_IoT_Agent_Tiny_SDK_Linux//lwm2m/core/registration.c ****             }
 753:/home/baikal/workspace/C50/Huawei_IoT_Agent_Tiny_SDK_Linux//lwm2m/core/registration.c ****         }
 754:/home/baikal/workspace/C50/Huawei_IoT_Agent_Tiny_SDK_Linux//lwm2m/core/registration.c ****         else if (lwm2m_strncmp((char *)query->data, QUERY_BINDING, QUERY_BINDING_LEN) == 0)
 755:/home/baikal/workspace/C50/Huawei_IoT_Agent_Tiny_SDK_Linux//lwm2m/core/registration.c ****         {
 756:/home/baikal/workspace/C50/Huawei_IoT_Agent_Tiny_SDK_Linux//lwm2m/core/registration.c ****             if (*bindingP != BINDING_UNKNOWN) goto error;
 757:/home/baikal/workspace/C50/Huawei_IoT_Agent_Tiny_SDK_Linux//lwm2m/core/registration.c ****             if (query->len == QUERY_BINDING_LEN) goto error;
 758:/home/baikal/workspace/C50/Huawei_IoT_Agent_Tiny_SDK_Linux//lwm2m/core/registration.c **** 
 759:/home/baikal/workspace/C50/Huawei_IoT_Agent_Tiny_SDK_Linux//lwm2m/core/registration.c ****             *bindingP = utils_stringToBinding(query->data + QUERY_BINDING_LEN, query->len - QUERY_B
 760:/home/baikal/workspace/C50/Huawei_IoT_Agent_Tiny_SDK_Linux//lwm2m/core/registration.c ****         }
 761:/home/baikal/workspace/C50/Huawei_IoT_Agent_Tiny_SDK_Linux//lwm2m/core/registration.c ****         query = query->next;
 762:/home/baikal/workspace/C50/Huawei_IoT_Agent_Tiny_SDK_Linux//lwm2m/core/registration.c ****     }
 763:/home/baikal/workspace/C50/Huawei_IoT_Agent_Tiny_SDK_Linux//lwm2m/core/registration.c **** 
 764:/home/baikal/workspace/C50/Huawei_IoT_Agent_Tiny_SDK_Linux//lwm2m/core/registration.c ****     return 0;
 765:/home/baikal/workspace/C50/Huawei_IoT_Agent_Tiny_SDK_Linux//lwm2m/core/registration.c **** 
 766:/home/baikal/workspace/C50/Huawei_IoT_Agent_Tiny_SDK_Linux//lwm2m/core/registration.c **** error:
 767:/home/baikal/workspace/C50/Huawei_IoT_Agent_Tiny_SDK_Linux//lwm2m/core/registration.c ****     if (*nameP != NULL) lwm2m_free(*nameP);
 768:/home/baikal/workspace/C50/Huawei_IoT_Agent_Tiny_SDK_Linux//lwm2m/core/registration.c ****     if (*msisdnP != NULL) lwm2m_free(*msisdnP);
 769:/home/baikal/workspace/C50/Huawei_IoT_Agent_Tiny_SDK_Linux//lwm2m/core/registration.c ****     if (*versionP != NULL) lwm2m_free(*versionP);
 770:/home/baikal/workspace/C50/Huawei_IoT_Agent_Tiny_SDK_Linux//lwm2m/core/registration.c **** 
 771:/home/baikal/workspace/C50/Huawei_IoT_Agent_Tiny_SDK_Linux//lwm2m/core/registration.c ****     return -1;
 772:/home/baikal/workspace/C50/Huawei_IoT_Agent_Tiny_SDK_Linux//lwm2m/core/registration.c **** }
 773:/home/baikal/workspace/C50/Huawei_IoT_Agent_Tiny_SDK_Linux//lwm2m/core/registration.c **** 
 774:/home/baikal/workspace/C50/Huawei_IoT_Agent_Tiny_SDK_Linux//lwm2m/core/registration.c **** static uint16_t prv_splitLinkAttribute(uint8_t *data,
 775:/home/baikal/workspace/C50/Huawei_IoT_Agent_Tiny_SDK_Linux//lwm2m/core/registration.c ****                                        uint16_t length,
 776:/home/baikal/workspace/C50/Huawei_IoT_Agent_Tiny_SDK_Linux//lwm2m/core/registration.c ****                                        uint16_t *keyStart,
 777:/home/baikal/workspace/C50/Huawei_IoT_Agent_Tiny_SDK_Linux//lwm2m/core/registration.c ****                                        uint16_t *keyLength,
 778:/home/baikal/workspace/C50/Huawei_IoT_Agent_Tiny_SDK_Linux//lwm2m/core/registration.c ****                                        uint16_t *valueStart,
 779:/home/baikal/workspace/C50/Huawei_IoT_Agent_Tiny_SDK_Linux//lwm2m/core/registration.c ****                                        uint16_t *valueLength)
 780:/home/baikal/workspace/C50/Huawei_IoT_Agent_Tiny_SDK_Linux//lwm2m/core/registration.c **** {
 781:/home/baikal/workspace/C50/Huawei_IoT_Agent_Tiny_SDK_Linux//lwm2m/core/registration.c ****     uint16_t index;
 782:/home/baikal/workspace/C50/Huawei_IoT_Agent_Tiny_SDK_Linux//lwm2m/core/registration.c ****     uint16_t end;
 783:/home/baikal/workspace/C50/Huawei_IoT_Agent_Tiny_SDK_Linux//lwm2m/core/registration.c **** 
 784:/home/baikal/workspace/C50/Huawei_IoT_Agent_Tiny_SDK_Linux//lwm2m/core/registration.c ****     index = 0;
 785:/home/baikal/workspace/C50/Huawei_IoT_Agent_Tiny_SDK_Linux//lwm2m/core/registration.c ****     while (index < length && data[index] == ' ') index++;
GAS LISTING /tmp/ccTnshMj.s 			page 52


 786:/home/baikal/workspace/C50/Huawei_IoT_Agent_Tiny_SDK_Linux//lwm2m/core/registration.c ****     if (index == length) return 0;
 787:/home/baikal/workspace/C50/Huawei_IoT_Agent_Tiny_SDK_Linux//lwm2m/core/registration.c **** 
 788:/home/baikal/workspace/C50/Huawei_IoT_Agent_Tiny_SDK_Linux//lwm2m/core/registration.c ****     if (data[index] == REG_ATTR_SEPARATOR)
 789:/home/baikal/workspace/C50/Huawei_IoT_Agent_Tiny_SDK_Linux//lwm2m/core/registration.c ****     {
 790:/home/baikal/workspace/C50/Huawei_IoT_Agent_Tiny_SDK_Linux//lwm2m/core/registration.c ****         index++;
 791:/home/baikal/workspace/C50/Huawei_IoT_Agent_Tiny_SDK_Linux//lwm2m/core/registration.c ****     }
 792:/home/baikal/workspace/C50/Huawei_IoT_Agent_Tiny_SDK_Linux//lwm2m/core/registration.c ****     if (index == length) return 0;
 793:/home/baikal/workspace/C50/Huawei_IoT_Agent_Tiny_SDK_Linux//lwm2m/core/registration.c **** 
 794:/home/baikal/workspace/C50/Huawei_IoT_Agent_Tiny_SDK_Linux//lwm2m/core/registration.c ****     *keyStart = index;
 795:/home/baikal/workspace/C50/Huawei_IoT_Agent_Tiny_SDK_Linux//lwm2m/core/registration.c **** 
 796:/home/baikal/workspace/C50/Huawei_IoT_Agent_Tiny_SDK_Linux//lwm2m/core/registration.c ****     while (index < length && data[index] != REG_ATTR_EQUALS) index++;
 797:/home/baikal/workspace/C50/Huawei_IoT_Agent_Tiny_SDK_Linux//lwm2m/core/registration.c ****     if (index == *keyStart || index == length) return 0;
 798:/home/baikal/workspace/C50/Huawei_IoT_Agent_Tiny_SDK_Linux//lwm2m/core/registration.c **** 
 799:/home/baikal/workspace/C50/Huawei_IoT_Agent_Tiny_SDK_Linux//lwm2m/core/registration.c ****     *keyLength = index - *keyStart;
 800:/home/baikal/workspace/C50/Huawei_IoT_Agent_Tiny_SDK_Linux//lwm2m/core/registration.c **** 
 801:/home/baikal/workspace/C50/Huawei_IoT_Agent_Tiny_SDK_Linux//lwm2m/core/registration.c ****     index++;
 802:/home/baikal/workspace/C50/Huawei_IoT_Agent_Tiny_SDK_Linux//lwm2m/core/registration.c ****     while (index < length && data[index] == ' ') index++;
 803:/home/baikal/workspace/C50/Huawei_IoT_Agent_Tiny_SDK_Linux//lwm2m/core/registration.c ****     if (index == length) return 0;
 804:/home/baikal/workspace/C50/Huawei_IoT_Agent_Tiny_SDK_Linux//lwm2m/core/registration.c **** 
 805:/home/baikal/workspace/C50/Huawei_IoT_Agent_Tiny_SDK_Linux//lwm2m/core/registration.c ****     *valueStart = index;
 806:/home/baikal/workspace/C50/Huawei_IoT_Agent_Tiny_SDK_Linux//lwm2m/core/registration.c **** 
 807:/home/baikal/workspace/C50/Huawei_IoT_Agent_Tiny_SDK_Linux//lwm2m/core/registration.c ****     while (index < length && data[index] != REG_ATTR_SEPARATOR) index++;
 808:/home/baikal/workspace/C50/Huawei_IoT_Agent_Tiny_SDK_Linux//lwm2m/core/registration.c ****     end = index;
 809:/home/baikal/workspace/C50/Huawei_IoT_Agent_Tiny_SDK_Linux//lwm2m/core/registration.c **** 
 810:/home/baikal/workspace/C50/Huawei_IoT_Agent_Tiny_SDK_Linux//lwm2m/core/registration.c ****     index--;
 811:/home/baikal/workspace/C50/Huawei_IoT_Agent_Tiny_SDK_Linux//lwm2m/core/registration.c ****     while (index > *valueStart && data[index] == ' ') index--;
 812:/home/baikal/workspace/C50/Huawei_IoT_Agent_Tiny_SDK_Linux//lwm2m/core/registration.c ****     if (index == *valueStart) return 0;
 813:/home/baikal/workspace/C50/Huawei_IoT_Agent_Tiny_SDK_Linux//lwm2m/core/registration.c **** 
 814:/home/baikal/workspace/C50/Huawei_IoT_Agent_Tiny_SDK_Linux//lwm2m/core/registration.c ****     *valueLength = index - *valueStart + 1;
 815:/home/baikal/workspace/C50/Huawei_IoT_Agent_Tiny_SDK_Linux//lwm2m/core/registration.c **** 
 816:/home/baikal/workspace/C50/Huawei_IoT_Agent_Tiny_SDK_Linux//lwm2m/core/registration.c ****     return end;
 817:/home/baikal/workspace/C50/Huawei_IoT_Agent_Tiny_SDK_Linux//lwm2m/core/registration.c **** }
 818:/home/baikal/workspace/C50/Huawei_IoT_Agent_Tiny_SDK_Linux//lwm2m/core/registration.c **** 
 819:/home/baikal/workspace/C50/Huawei_IoT_Agent_Tiny_SDK_Linux//lwm2m/core/registration.c **** static int prv_parseLinkAttributes(uint8_t *data,
 820:/home/baikal/workspace/C50/Huawei_IoT_Agent_Tiny_SDK_Linux//lwm2m/core/registration.c ****                                    uint16_t length,
 821:/home/baikal/workspace/C50/Huawei_IoT_Agent_Tiny_SDK_Linux//lwm2m/core/registration.c ****                                    bool *supportJSON,
 822:/home/baikal/workspace/C50/Huawei_IoT_Agent_Tiny_SDK_Linux//lwm2m/core/registration.c ****                                    char **altPath)
 823:/home/baikal/workspace/C50/Huawei_IoT_Agent_Tiny_SDK_Linux//lwm2m/core/registration.c **** {
 824:/home/baikal/workspace/C50/Huawei_IoT_Agent_Tiny_SDK_Linux//lwm2m/core/registration.c ****     uint16_t index;
 825:/home/baikal/workspace/C50/Huawei_IoT_Agent_Tiny_SDK_Linux//lwm2m/core/registration.c ****     uint16_t pathStart;
 826:/home/baikal/workspace/C50/Huawei_IoT_Agent_Tiny_SDK_Linux//lwm2m/core/registration.c ****     uint16_t pathLength;
 827:/home/baikal/workspace/C50/Huawei_IoT_Agent_Tiny_SDK_Linux//lwm2m/core/registration.c ****     bool isValid;
 828:/home/baikal/workspace/C50/Huawei_IoT_Agent_Tiny_SDK_Linux//lwm2m/core/registration.c **** 
 829:/home/baikal/workspace/C50/Huawei_IoT_Agent_Tiny_SDK_Linux//lwm2m/core/registration.c ****     isValid = false;
 830:/home/baikal/workspace/C50/Huawei_IoT_Agent_Tiny_SDK_Linux//lwm2m/core/registration.c **** 
 831:/home/baikal/workspace/C50/Huawei_IoT_Agent_Tiny_SDK_Linux//lwm2m/core/registration.c ****     // Expecting application/link-format (RFC6690)
 832:/home/baikal/workspace/C50/Huawei_IoT_Agent_Tiny_SDK_Linux//lwm2m/core/registration.c ****     // leading space were removed before. Remove trailing spaces.
 833:/home/baikal/workspace/C50/Huawei_IoT_Agent_Tiny_SDK_Linux//lwm2m/core/registration.c ****     while (length > 0 && data[length - 1] == ' ') length--;
 834:/home/baikal/workspace/C50/Huawei_IoT_Agent_Tiny_SDK_Linux//lwm2m/core/registration.c **** 
 835:/home/baikal/workspace/C50/Huawei_IoT_Agent_Tiny_SDK_Linux//lwm2m/core/registration.c ****     // strip open tag
 836:/home/baikal/workspace/C50/Huawei_IoT_Agent_Tiny_SDK_Linux//lwm2m/core/registration.c ****     if (length >= 2 && data[0] == REG_URI_START)
 837:/home/baikal/workspace/C50/Huawei_IoT_Agent_Tiny_SDK_Linux//lwm2m/core/registration.c ****     {
 838:/home/baikal/workspace/C50/Huawei_IoT_Agent_Tiny_SDK_Linux//lwm2m/core/registration.c ****         data += 1;
 839:/home/baikal/workspace/C50/Huawei_IoT_Agent_Tiny_SDK_Linux//lwm2m/core/registration.c ****         length -= 1;
 840:/home/baikal/workspace/C50/Huawei_IoT_Agent_Tiny_SDK_Linux//lwm2m/core/registration.c ****     }
 841:/home/baikal/workspace/C50/Huawei_IoT_Agent_Tiny_SDK_Linux//lwm2m/core/registration.c ****     else
 842:/home/baikal/workspace/C50/Huawei_IoT_Agent_Tiny_SDK_Linux//lwm2m/core/registration.c ****     {
GAS LISTING /tmp/ccTnshMj.s 			page 53


 843:/home/baikal/workspace/C50/Huawei_IoT_Agent_Tiny_SDK_Linux//lwm2m/core/registration.c ****         return 0;
 844:/home/baikal/workspace/C50/Huawei_IoT_Agent_Tiny_SDK_Linux//lwm2m/core/registration.c ****     }
 845:/home/baikal/workspace/C50/Huawei_IoT_Agent_Tiny_SDK_Linux//lwm2m/core/registration.c **** 
 846:/home/baikal/workspace/C50/Huawei_IoT_Agent_Tiny_SDK_Linux//lwm2m/core/registration.c ****     pathStart = 0;
 847:/home/baikal/workspace/C50/Huawei_IoT_Agent_Tiny_SDK_Linux//lwm2m/core/registration.c ****     index = length - 1;
 848:/home/baikal/workspace/C50/Huawei_IoT_Agent_Tiny_SDK_Linux//lwm2m/core/registration.c ****     while (index > 0 && data[index] != REG_URI_END) index--;
 849:/home/baikal/workspace/C50/Huawei_IoT_Agent_Tiny_SDK_Linux//lwm2m/core/registration.c ****     // link attributes are required
 850:/home/baikal/workspace/C50/Huawei_IoT_Agent_Tiny_SDK_Linux//lwm2m/core/registration.c ****     if (index == 0 || index == length - 1) return 0;
 851:/home/baikal/workspace/C50/Huawei_IoT_Agent_Tiny_SDK_Linux//lwm2m/core/registration.c **** 
 852:/home/baikal/workspace/C50/Huawei_IoT_Agent_Tiny_SDK_Linux//lwm2m/core/registration.c ****     // If there is a preceding /, remove it
 853:/home/baikal/workspace/C50/Huawei_IoT_Agent_Tiny_SDK_Linux//lwm2m/core/registration.c ****     if (data[pathStart] == '/')
 854:/home/baikal/workspace/C50/Huawei_IoT_Agent_Tiny_SDK_Linux//lwm2m/core/registration.c ****     {
 855:/home/baikal/workspace/C50/Huawei_IoT_Agent_Tiny_SDK_Linux//lwm2m/core/registration.c ****         pathStart += 1;
 856:/home/baikal/workspace/C50/Huawei_IoT_Agent_Tiny_SDK_Linux//lwm2m/core/registration.c ****     }
 857:/home/baikal/workspace/C50/Huawei_IoT_Agent_Tiny_SDK_Linux//lwm2m/core/registration.c ****     pathLength = index - pathStart;
 858:/home/baikal/workspace/C50/Huawei_IoT_Agent_Tiny_SDK_Linux//lwm2m/core/registration.c **** 
 859:/home/baikal/workspace/C50/Huawei_IoT_Agent_Tiny_SDK_Linux//lwm2m/core/registration.c ****     index++;
 860:/home/baikal/workspace/C50/Huawei_IoT_Agent_Tiny_SDK_Linux//lwm2m/core/registration.c ****     if (index >= length || data[index] != REG_ATTR_SEPARATOR) return 0;
 861:/home/baikal/workspace/C50/Huawei_IoT_Agent_Tiny_SDK_Linux//lwm2m/core/registration.c ****     index++;
 862:/home/baikal/workspace/C50/Huawei_IoT_Agent_Tiny_SDK_Linux//lwm2m/core/registration.c **** 
 863:/home/baikal/workspace/C50/Huawei_IoT_Agent_Tiny_SDK_Linux//lwm2m/core/registration.c ****     while (index < length)
 864:/home/baikal/workspace/C50/Huawei_IoT_Agent_Tiny_SDK_Linux//lwm2m/core/registration.c ****     {
 865:/home/baikal/workspace/C50/Huawei_IoT_Agent_Tiny_SDK_Linux//lwm2m/core/registration.c ****         uint16_t result;
 866:/home/baikal/workspace/C50/Huawei_IoT_Agent_Tiny_SDK_Linux//lwm2m/core/registration.c ****         uint16_t keyStart;
 867:/home/baikal/workspace/C50/Huawei_IoT_Agent_Tiny_SDK_Linux//lwm2m/core/registration.c ****         uint16_t keyLength;
 868:/home/baikal/workspace/C50/Huawei_IoT_Agent_Tiny_SDK_Linux//lwm2m/core/registration.c ****         uint16_t valueStart;
 869:/home/baikal/workspace/C50/Huawei_IoT_Agent_Tiny_SDK_Linux//lwm2m/core/registration.c ****         uint16_t valueLength;
 870:/home/baikal/workspace/C50/Huawei_IoT_Agent_Tiny_SDK_Linux//lwm2m/core/registration.c **** 
 871:/home/baikal/workspace/C50/Huawei_IoT_Agent_Tiny_SDK_Linux//lwm2m/core/registration.c ****         result = prv_splitLinkAttribute(data + index, length - index, &keyStart, &keyLength, &value
 872:/home/baikal/workspace/C50/Huawei_IoT_Agent_Tiny_SDK_Linux//lwm2m/core/registration.c ****         if (result == 0) return 0;
 873:/home/baikal/workspace/C50/Huawei_IoT_Agent_Tiny_SDK_Linux//lwm2m/core/registration.c **** 
 874:/home/baikal/workspace/C50/Huawei_IoT_Agent_Tiny_SDK_Linux//lwm2m/core/registration.c ****         if (keyLength == REG_ATTR_TYPE_KEY_LEN
 875:/home/baikal/workspace/C50/Huawei_IoT_Agent_Tiny_SDK_Linux//lwm2m/core/registration.c ****                 && 0 == lwm2m_strncmp(REG_ATTR_TYPE_KEY, (char *)data + index + keyStart, keyLength
 876:/home/baikal/workspace/C50/Huawei_IoT_Agent_Tiny_SDK_Linux//lwm2m/core/registration.c ****         {
 877:/home/baikal/workspace/C50/Huawei_IoT_Agent_Tiny_SDK_Linux//lwm2m/core/registration.c ****             if (isValid == true) return 0; // declared twice
 878:/home/baikal/workspace/C50/Huawei_IoT_Agent_Tiny_SDK_Linux//lwm2m/core/registration.c ****             if (valueLength != REG_ATTR_TYPE_VALUE_LEN
 879:/home/baikal/workspace/C50/Huawei_IoT_Agent_Tiny_SDK_Linux//lwm2m/core/registration.c ****                     || 0 != lwm2m_strncmp(REG_ATTR_TYPE_VALUE, (char *)data + index + valueStart, v
 880:/home/baikal/workspace/C50/Huawei_IoT_Agent_Tiny_SDK_Linux//lwm2m/core/registration.c ****             {
 881:/home/baikal/workspace/C50/Huawei_IoT_Agent_Tiny_SDK_Linux//lwm2m/core/registration.c ****                 return 0;
 882:/home/baikal/workspace/C50/Huawei_IoT_Agent_Tiny_SDK_Linux//lwm2m/core/registration.c ****             }
 883:/home/baikal/workspace/C50/Huawei_IoT_Agent_Tiny_SDK_Linux//lwm2m/core/registration.c ****             isValid = true;
 884:/home/baikal/workspace/C50/Huawei_IoT_Agent_Tiny_SDK_Linux//lwm2m/core/registration.c ****         }
 885:/home/baikal/workspace/C50/Huawei_IoT_Agent_Tiny_SDK_Linux//lwm2m/core/registration.c ****         else if (keyLength == REG_ATTR_CONTENT_KEY_LEN
 886:/home/baikal/workspace/C50/Huawei_IoT_Agent_Tiny_SDK_Linux//lwm2m/core/registration.c ****                  && 0 == lwm2m_strncmp(REG_ATTR_CONTENT_KEY, (char *)data + index + keyStart, keyLe
 887:/home/baikal/workspace/C50/Huawei_IoT_Agent_Tiny_SDK_Linux//lwm2m/core/registration.c ****         {
 888:/home/baikal/workspace/C50/Huawei_IoT_Agent_Tiny_SDK_Linux//lwm2m/core/registration.c ****             if (*supportJSON == true) return 0; // declared twice
 889:/home/baikal/workspace/C50/Huawei_IoT_Agent_Tiny_SDK_Linux//lwm2m/core/registration.c ****             if (valueLength == REG_ATTR_CONTENT_JSON_LEN
 890:/home/baikal/workspace/C50/Huawei_IoT_Agent_Tiny_SDK_Linux//lwm2m/core/registration.c ****                     && 0 == lwm2m_strncmp(REG_ATTR_CONTENT_JSON, (char *)data + index + valueStart,
 891:/home/baikal/workspace/C50/Huawei_IoT_Agent_Tiny_SDK_Linux//lwm2m/core/registration.c ****             {
 892:/home/baikal/workspace/C50/Huawei_IoT_Agent_Tiny_SDK_Linux//lwm2m/core/registration.c ****                 *supportJSON = true;
 893:/home/baikal/workspace/C50/Huawei_IoT_Agent_Tiny_SDK_Linux//lwm2m/core/registration.c ****             }
 894:/home/baikal/workspace/C50/Huawei_IoT_Agent_Tiny_SDK_Linux//lwm2m/core/registration.c ****             else
 895:/home/baikal/workspace/C50/Huawei_IoT_Agent_Tiny_SDK_Linux//lwm2m/core/registration.c ****             {
 896:/home/baikal/workspace/C50/Huawei_IoT_Agent_Tiny_SDK_Linux//lwm2m/core/registration.c ****                 return 0;
 897:/home/baikal/workspace/C50/Huawei_IoT_Agent_Tiny_SDK_Linux//lwm2m/core/registration.c ****             }
 898:/home/baikal/workspace/C50/Huawei_IoT_Agent_Tiny_SDK_Linux//lwm2m/core/registration.c ****         }
 899:/home/baikal/workspace/C50/Huawei_IoT_Agent_Tiny_SDK_Linux//lwm2m/core/registration.c ****         // else ignore this one
GAS LISTING /tmp/ccTnshMj.s 			page 54


 900:/home/baikal/workspace/C50/Huawei_IoT_Agent_Tiny_SDK_Linux//lwm2m/core/registration.c **** 
 901:/home/baikal/workspace/C50/Huawei_IoT_Agent_Tiny_SDK_Linux//lwm2m/core/registration.c ****         index += result;
 902:/home/baikal/workspace/C50/Huawei_IoT_Agent_Tiny_SDK_Linux//lwm2m/core/registration.c ****     }
 903:/home/baikal/workspace/C50/Huawei_IoT_Agent_Tiny_SDK_Linux//lwm2m/core/registration.c **** 
 904:/home/baikal/workspace/C50/Huawei_IoT_Agent_Tiny_SDK_Linux//lwm2m/core/registration.c ****     if (isValid == false) return 0;
 905:/home/baikal/workspace/C50/Huawei_IoT_Agent_Tiny_SDK_Linux//lwm2m/core/registration.c **** 
 906:/home/baikal/workspace/C50/Huawei_IoT_Agent_Tiny_SDK_Linux//lwm2m/core/registration.c ****     if (pathLength != 0)
 907:/home/baikal/workspace/C50/Huawei_IoT_Agent_Tiny_SDK_Linux//lwm2m/core/registration.c ****     {
 908:/home/baikal/workspace/C50/Huawei_IoT_Agent_Tiny_SDK_Linux//lwm2m/core/registration.c ****         *altPath = (char *)lwm2m_malloc(pathLength + 1);
 909:/home/baikal/workspace/C50/Huawei_IoT_Agent_Tiny_SDK_Linux//lwm2m/core/registration.c ****         if (*altPath == NULL) return 0;
 910:/home/baikal/workspace/C50/Huawei_IoT_Agent_Tiny_SDK_Linux//lwm2m/core/registration.c ****         memcpy(*altPath, data + pathStart, pathLength);
 911:/home/baikal/workspace/C50/Huawei_IoT_Agent_Tiny_SDK_Linux//lwm2m/core/registration.c ****         (*altPath)[pathLength] = 0;
 912:/home/baikal/workspace/C50/Huawei_IoT_Agent_Tiny_SDK_Linux//lwm2m/core/registration.c ****     }
 913:/home/baikal/workspace/C50/Huawei_IoT_Agent_Tiny_SDK_Linux//lwm2m/core/registration.c **** 
 914:/home/baikal/workspace/C50/Huawei_IoT_Agent_Tiny_SDK_Linux//lwm2m/core/registration.c ****     return 1;
 915:/home/baikal/workspace/C50/Huawei_IoT_Agent_Tiny_SDK_Linux//lwm2m/core/registration.c **** }
 916:/home/baikal/workspace/C50/Huawei_IoT_Agent_Tiny_SDK_Linux//lwm2m/core/registration.c **** 
 917:/home/baikal/workspace/C50/Huawei_IoT_Agent_Tiny_SDK_Linux//lwm2m/core/registration.c **** static int prv_getId(uint8_t *data,
 918:/home/baikal/workspace/C50/Huawei_IoT_Agent_Tiny_SDK_Linux//lwm2m/core/registration.c ****                      uint16_t length,
 919:/home/baikal/workspace/C50/Huawei_IoT_Agent_Tiny_SDK_Linux//lwm2m/core/registration.c ****                      uint16_t *objId,
 920:/home/baikal/workspace/C50/Huawei_IoT_Agent_Tiny_SDK_Linux//lwm2m/core/registration.c ****                      uint16_t *instanceId)
 921:/home/baikal/workspace/C50/Huawei_IoT_Agent_Tiny_SDK_Linux//lwm2m/core/registration.c **** {
 922:/home/baikal/workspace/C50/Huawei_IoT_Agent_Tiny_SDK_Linux//lwm2m/core/registration.c ****     int value;
 923:/home/baikal/workspace/C50/Huawei_IoT_Agent_Tiny_SDK_Linux//lwm2m/core/registration.c ****     uint16_t limit;
 924:/home/baikal/workspace/C50/Huawei_IoT_Agent_Tiny_SDK_Linux//lwm2m/core/registration.c **** 
 925:/home/baikal/workspace/C50/Huawei_IoT_Agent_Tiny_SDK_Linux//lwm2m/core/registration.c ****     // Expecting application/link-format (RFC6690)
 926:/home/baikal/workspace/C50/Huawei_IoT_Agent_Tiny_SDK_Linux//lwm2m/core/registration.c ****     // leading space were removed before. Remove trailing spaces.
 927:/home/baikal/workspace/C50/Huawei_IoT_Agent_Tiny_SDK_Linux//lwm2m/core/registration.c ****     while (length > 0 && data[length - 1] == ' ') length--;
 928:/home/baikal/workspace/C50/Huawei_IoT_Agent_Tiny_SDK_Linux//lwm2m/core/registration.c **** 
 929:/home/baikal/workspace/C50/Huawei_IoT_Agent_Tiny_SDK_Linux//lwm2m/core/registration.c ****     // strip open and close tags
 930:/home/baikal/workspace/C50/Huawei_IoT_Agent_Tiny_SDK_Linux//lwm2m/core/registration.c ****     if (length >= 1 && data[0] == REG_URI_START && data[length - 1] == REG_URI_END)
 931:/home/baikal/workspace/C50/Huawei_IoT_Agent_Tiny_SDK_Linux//lwm2m/core/registration.c ****     {
 932:/home/baikal/workspace/C50/Huawei_IoT_Agent_Tiny_SDK_Linux//lwm2m/core/registration.c ****         data += 1;
 933:/home/baikal/workspace/C50/Huawei_IoT_Agent_Tiny_SDK_Linux//lwm2m/core/registration.c ****         length -= 2;
 934:/home/baikal/workspace/C50/Huawei_IoT_Agent_Tiny_SDK_Linux//lwm2m/core/registration.c ****     }
 935:/home/baikal/workspace/C50/Huawei_IoT_Agent_Tiny_SDK_Linux//lwm2m/core/registration.c ****     else
 936:/home/baikal/workspace/C50/Huawei_IoT_Agent_Tiny_SDK_Linux//lwm2m/core/registration.c ****     {
 937:/home/baikal/workspace/C50/Huawei_IoT_Agent_Tiny_SDK_Linux//lwm2m/core/registration.c ****         return 0;
 938:/home/baikal/workspace/C50/Huawei_IoT_Agent_Tiny_SDK_Linux//lwm2m/core/registration.c ****     }
 939:/home/baikal/workspace/C50/Huawei_IoT_Agent_Tiny_SDK_Linux//lwm2m/core/registration.c **** 
 940:/home/baikal/workspace/C50/Huawei_IoT_Agent_Tiny_SDK_Linux//lwm2m/core/registration.c ****     // If there is a preceding /, remove it
 941:/home/baikal/workspace/C50/Huawei_IoT_Agent_Tiny_SDK_Linux//lwm2m/core/registration.c ****     if (length >= 1 && data[0] == '/')
 942:/home/baikal/workspace/C50/Huawei_IoT_Agent_Tiny_SDK_Linux//lwm2m/core/registration.c ****     {
 943:/home/baikal/workspace/C50/Huawei_IoT_Agent_Tiny_SDK_Linux//lwm2m/core/registration.c ****         data += 1;
 944:/home/baikal/workspace/C50/Huawei_IoT_Agent_Tiny_SDK_Linux//lwm2m/core/registration.c ****         length -= 1;
 945:/home/baikal/workspace/C50/Huawei_IoT_Agent_Tiny_SDK_Linux//lwm2m/core/registration.c ****     }
 946:/home/baikal/workspace/C50/Huawei_IoT_Agent_Tiny_SDK_Linux//lwm2m/core/registration.c **** 
 947:/home/baikal/workspace/C50/Huawei_IoT_Agent_Tiny_SDK_Linux//lwm2m/core/registration.c ****     limit = 0;
 948:/home/baikal/workspace/C50/Huawei_IoT_Agent_Tiny_SDK_Linux//lwm2m/core/registration.c ****     while (limit < length && data[limit] != '/') limit++;
 949:/home/baikal/workspace/C50/Huawei_IoT_Agent_Tiny_SDK_Linux//lwm2m/core/registration.c ****     value = uri_getNumber(data, limit);
 950:/home/baikal/workspace/C50/Huawei_IoT_Agent_Tiny_SDK_Linux//lwm2m/core/registration.c ****     if (value < 0 || value >= LWM2M_MAX_ID) return 0;
 951:/home/baikal/workspace/C50/Huawei_IoT_Agent_Tiny_SDK_Linux//lwm2m/core/registration.c ****     *objId = value;
 952:/home/baikal/workspace/C50/Huawei_IoT_Agent_Tiny_SDK_Linux//lwm2m/core/registration.c **** 
 953:/home/baikal/workspace/C50/Huawei_IoT_Agent_Tiny_SDK_Linux//lwm2m/core/registration.c ****     if (limit < length)
 954:/home/baikal/workspace/C50/Huawei_IoT_Agent_Tiny_SDK_Linux//lwm2m/core/registration.c ****     {
 955:/home/baikal/workspace/C50/Huawei_IoT_Agent_Tiny_SDK_Linux//lwm2m/core/registration.c ****         limit += 1;
 956:/home/baikal/workspace/C50/Huawei_IoT_Agent_Tiny_SDK_Linux//lwm2m/core/registration.c ****         data += limit;
GAS LISTING /tmp/ccTnshMj.s 			page 55


 957:/home/baikal/workspace/C50/Huawei_IoT_Agent_Tiny_SDK_Linux//lwm2m/core/registration.c ****         length -= limit;
 958:/home/baikal/workspace/C50/Huawei_IoT_Agent_Tiny_SDK_Linux//lwm2m/core/registration.c **** 
 959:/home/baikal/workspace/C50/Huawei_IoT_Agent_Tiny_SDK_Linux//lwm2m/core/registration.c ****         if (length > 0)
 960:/home/baikal/workspace/C50/Huawei_IoT_Agent_Tiny_SDK_Linux//lwm2m/core/registration.c ****         {
 961:/home/baikal/workspace/C50/Huawei_IoT_Agent_Tiny_SDK_Linux//lwm2m/core/registration.c ****             value = uri_getNumber(data, length);
 962:/home/baikal/workspace/C50/Huawei_IoT_Agent_Tiny_SDK_Linux//lwm2m/core/registration.c ****             if (value >= 0 && value < LWM2M_MAX_ID)
 963:/home/baikal/workspace/C50/Huawei_IoT_Agent_Tiny_SDK_Linux//lwm2m/core/registration.c ****             {
 964:/home/baikal/workspace/C50/Huawei_IoT_Agent_Tiny_SDK_Linux//lwm2m/core/registration.c ****                 *instanceId = value;
 965:/home/baikal/workspace/C50/Huawei_IoT_Agent_Tiny_SDK_Linux//lwm2m/core/registration.c ****                 return 2;
 966:/home/baikal/workspace/C50/Huawei_IoT_Agent_Tiny_SDK_Linux//lwm2m/core/registration.c ****             }
 967:/home/baikal/workspace/C50/Huawei_IoT_Agent_Tiny_SDK_Linux//lwm2m/core/registration.c ****             else
 968:/home/baikal/workspace/C50/Huawei_IoT_Agent_Tiny_SDK_Linux//lwm2m/core/registration.c ****             {
 969:/home/baikal/workspace/C50/Huawei_IoT_Agent_Tiny_SDK_Linux//lwm2m/core/registration.c ****                 return 0;
 970:/home/baikal/workspace/C50/Huawei_IoT_Agent_Tiny_SDK_Linux//lwm2m/core/registration.c ****             }
 971:/home/baikal/workspace/C50/Huawei_IoT_Agent_Tiny_SDK_Linux//lwm2m/core/registration.c ****         }
 972:/home/baikal/workspace/C50/Huawei_IoT_Agent_Tiny_SDK_Linux//lwm2m/core/registration.c ****     }
 973:/home/baikal/workspace/C50/Huawei_IoT_Agent_Tiny_SDK_Linux//lwm2m/core/registration.c **** 
 974:/home/baikal/workspace/C50/Huawei_IoT_Agent_Tiny_SDK_Linux//lwm2m/core/registration.c ****     return 1;
 975:/home/baikal/workspace/C50/Huawei_IoT_Agent_Tiny_SDK_Linux//lwm2m/core/registration.c **** }
 976:/home/baikal/workspace/C50/Huawei_IoT_Agent_Tiny_SDK_Linux//lwm2m/core/registration.c **** 
 977:/home/baikal/workspace/C50/Huawei_IoT_Agent_Tiny_SDK_Linux//lwm2m/core/registration.c **** static lwm2m_client_object_t *prv_decodeRegisterPayload(uint8_t *payload,
 978:/home/baikal/workspace/C50/Huawei_IoT_Agent_Tiny_SDK_Linux//lwm2m/core/registration.c ****         uint16_t payloadLength,
 979:/home/baikal/workspace/C50/Huawei_IoT_Agent_Tiny_SDK_Linux//lwm2m/core/registration.c ****         bool *supportJSON,
 980:/home/baikal/workspace/C50/Huawei_IoT_Agent_Tiny_SDK_Linux//lwm2m/core/registration.c ****         char **altPath)
 981:/home/baikal/workspace/C50/Huawei_IoT_Agent_Tiny_SDK_Linux//lwm2m/core/registration.c **** {
 982:/home/baikal/workspace/C50/Huawei_IoT_Agent_Tiny_SDK_Linux//lwm2m/core/registration.c ****     uint16_t index;
 983:/home/baikal/workspace/C50/Huawei_IoT_Agent_Tiny_SDK_Linux//lwm2m/core/registration.c ****     lwm2m_client_object_t *objList;
 984:/home/baikal/workspace/C50/Huawei_IoT_Agent_Tiny_SDK_Linux//lwm2m/core/registration.c ****     bool linkAttrFound;
 985:/home/baikal/workspace/C50/Huawei_IoT_Agent_Tiny_SDK_Linux//lwm2m/core/registration.c **** 
 986:/home/baikal/workspace/C50/Huawei_IoT_Agent_Tiny_SDK_Linux//lwm2m/core/registration.c ****     *altPath = NULL;
 987:/home/baikal/workspace/C50/Huawei_IoT_Agent_Tiny_SDK_Linux//lwm2m/core/registration.c ****     *supportJSON = false;
 988:/home/baikal/workspace/C50/Huawei_IoT_Agent_Tiny_SDK_Linux//lwm2m/core/registration.c ****     objList = NULL;
 989:/home/baikal/workspace/C50/Huawei_IoT_Agent_Tiny_SDK_Linux//lwm2m/core/registration.c ****     linkAttrFound = false;
 990:/home/baikal/workspace/C50/Huawei_IoT_Agent_Tiny_SDK_Linux//lwm2m/core/registration.c ****     index = 0;
 991:/home/baikal/workspace/C50/Huawei_IoT_Agent_Tiny_SDK_Linux//lwm2m/core/registration.c **** 
 992:/home/baikal/workspace/C50/Huawei_IoT_Agent_Tiny_SDK_Linux//lwm2m/core/registration.c ****     while (index <= payloadLength)
 993:/home/baikal/workspace/C50/Huawei_IoT_Agent_Tiny_SDK_Linux//lwm2m/core/registration.c ****     {
 994:/home/baikal/workspace/C50/Huawei_IoT_Agent_Tiny_SDK_Linux//lwm2m/core/registration.c ****         uint16_t start;
 995:/home/baikal/workspace/C50/Huawei_IoT_Agent_Tiny_SDK_Linux//lwm2m/core/registration.c ****         uint16_t length;
 996:/home/baikal/workspace/C50/Huawei_IoT_Agent_Tiny_SDK_Linux//lwm2m/core/registration.c ****         int result;
 997:/home/baikal/workspace/C50/Huawei_IoT_Agent_Tiny_SDK_Linux//lwm2m/core/registration.c ****         uint16_t id;
 998:/home/baikal/workspace/C50/Huawei_IoT_Agent_Tiny_SDK_Linux//lwm2m/core/registration.c ****         uint16_t instance;
 999:/home/baikal/workspace/C50/Huawei_IoT_Agent_Tiny_SDK_Linux//lwm2m/core/registration.c **** 
1000:/home/baikal/workspace/C50/Huawei_IoT_Agent_Tiny_SDK_Linux//lwm2m/core/registration.c ****         while (index < payloadLength && payload[index] == ' ') index++;
1001:/home/baikal/workspace/C50/Huawei_IoT_Agent_Tiny_SDK_Linux//lwm2m/core/registration.c ****         if (index == payloadLength) break;
1002:/home/baikal/workspace/C50/Huawei_IoT_Agent_Tiny_SDK_Linux//lwm2m/core/registration.c **** 
1003:/home/baikal/workspace/C50/Huawei_IoT_Agent_Tiny_SDK_Linux//lwm2m/core/registration.c ****         start = index;
1004:/home/baikal/workspace/C50/Huawei_IoT_Agent_Tiny_SDK_Linux//lwm2m/core/registration.c ****         while (index < payloadLength && payload[index] != REG_DELIMITER) index++;
1005:/home/baikal/workspace/C50/Huawei_IoT_Agent_Tiny_SDK_Linux//lwm2m/core/registration.c ****         length = index - start;
1006:/home/baikal/workspace/C50/Huawei_IoT_Agent_Tiny_SDK_Linux//lwm2m/core/registration.c **** 
1007:/home/baikal/workspace/C50/Huawei_IoT_Agent_Tiny_SDK_Linux//lwm2m/core/registration.c ****         result = prv_getId(payload + start, length, &id, &instance);
1008:/home/baikal/workspace/C50/Huawei_IoT_Agent_Tiny_SDK_Linux//lwm2m/core/registration.c ****         if (result != 0)
1009:/home/baikal/workspace/C50/Huawei_IoT_Agent_Tiny_SDK_Linux//lwm2m/core/registration.c ****         {
1010:/home/baikal/workspace/C50/Huawei_IoT_Agent_Tiny_SDK_Linux//lwm2m/core/registration.c ****             lwm2m_client_object_t *objectP;
1011:/home/baikal/workspace/C50/Huawei_IoT_Agent_Tiny_SDK_Linux//lwm2m/core/registration.c **** 
1012:/home/baikal/workspace/C50/Huawei_IoT_Agent_Tiny_SDK_Linux//lwm2m/core/registration.c ****             objectP = (lwm2m_client_object_t *)lwm2m_list_find((lwm2m_list_t *)objList, id);
1013:/home/baikal/workspace/C50/Huawei_IoT_Agent_Tiny_SDK_Linux//lwm2m/core/registration.c ****             if (objectP == NULL)
GAS LISTING /tmp/ccTnshMj.s 			page 56


1014:/home/baikal/workspace/C50/Huawei_IoT_Agent_Tiny_SDK_Linux//lwm2m/core/registration.c ****             {
1015:/home/baikal/workspace/C50/Huawei_IoT_Agent_Tiny_SDK_Linux//lwm2m/core/registration.c ****                 objectP = (lwm2m_client_object_t *)lwm2m_malloc(sizeof(lwm2m_client_object_t));
1016:/home/baikal/workspace/C50/Huawei_IoT_Agent_Tiny_SDK_Linux//lwm2m/core/registration.c ****                 if (objectP == NULL) goto error;
1017:/home/baikal/workspace/C50/Huawei_IoT_Agent_Tiny_SDK_Linux//lwm2m/core/registration.c ****                 memset(objectP, 0, sizeof(lwm2m_client_object_t));
1018:/home/baikal/workspace/C50/Huawei_IoT_Agent_Tiny_SDK_Linux//lwm2m/core/registration.c ****                 objectP->id = id;
1019:/home/baikal/workspace/C50/Huawei_IoT_Agent_Tiny_SDK_Linux//lwm2m/core/registration.c ****                 objList = (lwm2m_client_object_t *)LWM2M_LIST_ADD(objList, objectP);
1020:/home/baikal/workspace/C50/Huawei_IoT_Agent_Tiny_SDK_Linux//lwm2m/core/registration.c ****             }
1021:/home/baikal/workspace/C50/Huawei_IoT_Agent_Tiny_SDK_Linux//lwm2m/core/registration.c ****             if (result == 2)
1022:/home/baikal/workspace/C50/Huawei_IoT_Agent_Tiny_SDK_Linux//lwm2m/core/registration.c ****             {
1023:/home/baikal/workspace/C50/Huawei_IoT_Agent_Tiny_SDK_Linux//lwm2m/core/registration.c ****                 lwm2m_list_t *instanceP;
1024:/home/baikal/workspace/C50/Huawei_IoT_Agent_Tiny_SDK_Linux//lwm2m/core/registration.c **** 
1025:/home/baikal/workspace/C50/Huawei_IoT_Agent_Tiny_SDK_Linux//lwm2m/core/registration.c ****                 instanceP = lwm2m_list_find(objectP->instanceList, instance);
1026:/home/baikal/workspace/C50/Huawei_IoT_Agent_Tiny_SDK_Linux//lwm2m/core/registration.c ****                 if (instanceP == NULL)
1027:/home/baikal/workspace/C50/Huawei_IoT_Agent_Tiny_SDK_Linux//lwm2m/core/registration.c ****                 {
1028:/home/baikal/workspace/C50/Huawei_IoT_Agent_Tiny_SDK_Linux//lwm2m/core/registration.c ****                     instanceP = (lwm2m_list_t *)lwm2m_malloc(sizeof(lwm2m_list_t));
1029:/home/baikal/workspace/C50/Huawei_IoT_Agent_Tiny_SDK_Linux//lwm2m/core/registration.c ****                     if(instanceP == NULL) goto error;
1030:/home/baikal/workspace/C50/Huawei_IoT_Agent_Tiny_SDK_Linux//lwm2m/core/registration.c ****                     memset(instanceP, 0, sizeof(lwm2m_list_t));
1031:/home/baikal/workspace/C50/Huawei_IoT_Agent_Tiny_SDK_Linux//lwm2m/core/registration.c ****                     instanceP->id = instance;
1032:/home/baikal/workspace/C50/Huawei_IoT_Agent_Tiny_SDK_Linux//lwm2m/core/registration.c ****                     objectP->instanceList = LWM2M_LIST_ADD(objectP->instanceList, instanceP);
1033:/home/baikal/workspace/C50/Huawei_IoT_Agent_Tiny_SDK_Linux//lwm2m/core/registration.c ****                 }
1034:/home/baikal/workspace/C50/Huawei_IoT_Agent_Tiny_SDK_Linux//lwm2m/core/registration.c ****             }
1035:/home/baikal/workspace/C50/Huawei_IoT_Agent_Tiny_SDK_Linux//lwm2m/core/registration.c ****         }
1036:/home/baikal/workspace/C50/Huawei_IoT_Agent_Tiny_SDK_Linux//lwm2m/core/registration.c ****         else if (linkAttrFound == false)
1037:/home/baikal/workspace/C50/Huawei_IoT_Agent_Tiny_SDK_Linux//lwm2m/core/registration.c ****         {
1038:/home/baikal/workspace/C50/Huawei_IoT_Agent_Tiny_SDK_Linux//lwm2m/core/registration.c ****             result = prv_parseLinkAttributes(payload + start, length, supportJSON, altPath);
1039:/home/baikal/workspace/C50/Huawei_IoT_Agent_Tiny_SDK_Linux//lwm2m/core/registration.c ****             if (result == 0) goto error;
1040:/home/baikal/workspace/C50/Huawei_IoT_Agent_Tiny_SDK_Linux//lwm2m/core/registration.c **** 
1041:/home/baikal/workspace/C50/Huawei_IoT_Agent_Tiny_SDK_Linux//lwm2m/core/registration.c ****             linkAttrFound = true;
1042:/home/baikal/workspace/C50/Huawei_IoT_Agent_Tiny_SDK_Linux//lwm2m/core/registration.c ****         }
1043:/home/baikal/workspace/C50/Huawei_IoT_Agent_Tiny_SDK_Linux//lwm2m/core/registration.c ****         else goto error;
1044:/home/baikal/workspace/C50/Huawei_IoT_Agent_Tiny_SDK_Linux//lwm2m/core/registration.c **** 
1045:/home/baikal/workspace/C50/Huawei_IoT_Agent_Tiny_SDK_Linux//lwm2m/core/registration.c ****         index++;
1046:/home/baikal/workspace/C50/Huawei_IoT_Agent_Tiny_SDK_Linux//lwm2m/core/registration.c ****     }
1047:/home/baikal/workspace/C50/Huawei_IoT_Agent_Tiny_SDK_Linux//lwm2m/core/registration.c **** 
1048:/home/baikal/workspace/C50/Huawei_IoT_Agent_Tiny_SDK_Linux//lwm2m/core/registration.c ****     return objList;
1049:/home/baikal/workspace/C50/Huawei_IoT_Agent_Tiny_SDK_Linux//lwm2m/core/registration.c **** 
1050:/home/baikal/workspace/C50/Huawei_IoT_Agent_Tiny_SDK_Linux//lwm2m/core/registration.c **** error:
1051:/home/baikal/workspace/C50/Huawei_IoT_Agent_Tiny_SDK_Linux//lwm2m/core/registration.c ****     if (*altPath != NULL)
1052:/home/baikal/workspace/C50/Huawei_IoT_Agent_Tiny_SDK_Linux//lwm2m/core/registration.c ****     {
1053:/home/baikal/workspace/C50/Huawei_IoT_Agent_Tiny_SDK_Linux//lwm2m/core/registration.c ****         lwm2m_free(*altPath);
1054:/home/baikal/workspace/C50/Huawei_IoT_Agent_Tiny_SDK_Linux//lwm2m/core/registration.c ****         *altPath = NULL;
1055:/home/baikal/workspace/C50/Huawei_IoT_Agent_Tiny_SDK_Linux//lwm2m/core/registration.c ****     }
1056:/home/baikal/workspace/C50/Huawei_IoT_Agent_Tiny_SDK_Linux//lwm2m/core/registration.c ****     prv_freeClientObjectList(objList);
1057:/home/baikal/workspace/C50/Huawei_IoT_Agent_Tiny_SDK_Linux//lwm2m/core/registration.c **** 
1058:/home/baikal/workspace/C50/Huawei_IoT_Agent_Tiny_SDK_Linux//lwm2m/core/registration.c ****     return NULL;
1059:/home/baikal/workspace/C50/Huawei_IoT_Agent_Tiny_SDK_Linux//lwm2m/core/registration.c **** }
1060:/home/baikal/workspace/C50/Huawei_IoT_Agent_Tiny_SDK_Linux//lwm2m/core/registration.c **** 
1061:/home/baikal/workspace/C50/Huawei_IoT_Agent_Tiny_SDK_Linux//lwm2m/core/registration.c **** static lwm2m_client_t *prv_getClientByName(lwm2m_context_t *contextP,
1062:/home/baikal/workspace/C50/Huawei_IoT_Agent_Tiny_SDK_Linux//lwm2m/core/registration.c ****         char *name)
1063:/home/baikal/workspace/C50/Huawei_IoT_Agent_Tiny_SDK_Linux//lwm2m/core/registration.c **** {
1064:/home/baikal/workspace/C50/Huawei_IoT_Agent_Tiny_SDK_Linux//lwm2m/core/registration.c ****     lwm2m_client_t *targetP;
1065:/home/baikal/workspace/C50/Huawei_IoT_Agent_Tiny_SDK_Linux//lwm2m/core/registration.c **** 
1066:/home/baikal/workspace/C50/Huawei_IoT_Agent_Tiny_SDK_Linux//lwm2m/core/registration.c ****     targetP = contextP->clientList;
1067:/home/baikal/workspace/C50/Huawei_IoT_Agent_Tiny_SDK_Linux//lwm2m/core/registration.c ****     while (targetP != NULL && strcmp(name, targetP->name) != 0)
1068:/home/baikal/workspace/C50/Huawei_IoT_Agent_Tiny_SDK_Linux//lwm2m/core/registration.c ****     {
1069:/home/baikal/workspace/C50/Huawei_IoT_Agent_Tiny_SDK_Linux//lwm2m/core/registration.c ****         targetP = targetP->next;
1070:/home/baikal/workspace/C50/Huawei_IoT_Agent_Tiny_SDK_Linux//lwm2m/core/registration.c ****     }
GAS LISTING /tmp/ccTnshMj.s 			page 57


1071:/home/baikal/workspace/C50/Huawei_IoT_Agent_Tiny_SDK_Linux//lwm2m/core/registration.c **** 
1072:/home/baikal/workspace/C50/Huawei_IoT_Agent_Tiny_SDK_Linux//lwm2m/core/registration.c ****     return targetP;
1073:/home/baikal/workspace/C50/Huawei_IoT_Agent_Tiny_SDK_Linux//lwm2m/core/registration.c **** }
1074:/home/baikal/workspace/C50/Huawei_IoT_Agent_Tiny_SDK_Linux//lwm2m/core/registration.c **** 
1075:/home/baikal/workspace/C50/Huawei_IoT_Agent_Tiny_SDK_Linux//lwm2m/core/registration.c **** void registration_freeClient(lwm2m_client_t *clientP)
1076:/home/baikal/workspace/C50/Huawei_IoT_Agent_Tiny_SDK_Linux//lwm2m/core/registration.c **** {
1077:/home/baikal/workspace/C50/Huawei_IoT_Agent_Tiny_SDK_Linux//lwm2m/core/registration.c ****     LOG("Entering");
1078:/home/baikal/workspace/C50/Huawei_IoT_Agent_Tiny_SDK_Linux//lwm2m/core/registration.c ****     if (clientP->name != NULL) lwm2m_free(clientP->name);
1079:/home/baikal/workspace/C50/Huawei_IoT_Agent_Tiny_SDK_Linux//lwm2m/core/registration.c ****     if (clientP->msisdn != NULL) lwm2m_free(clientP->msisdn);
1080:/home/baikal/workspace/C50/Huawei_IoT_Agent_Tiny_SDK_Linux//lwm2m/core/registration.c ****     if (clientP->altPath != NULL) lwm2m_free(clientP->altPath);
1081:/home/baikal/workspace/C50/Huawei_IoT_Agent_Tiny_SDK_Linux//lwm2m/core/registration.c ****     prv_freeClientObjectList(clientP->objectList);
1082:/home/baikal/workspace/C50/Huawei_IoT_Agent_Tiny_SDK_Linux//lwm2m/core/registration.c ****     while(clientP->observationList != NULL)
1083:/home/baikal/workspace/C50/Huawei_IoT_Agent_Tiny_SDK_Linux//lwm2m/core/registration.c ****     {
1084:/home/baikal/workspace/C50/Huawei_IoT_Agent_Tiny_SDK_Linux//lwm2m/core/registration.c ****         lwm2m_observation_t *targetP;
1085:/home/baikal/workspace/C50/Huawei_IoT_Agent_Tiny_SDK_Linux//lwm2m/core/registration.c **** 
1086:/home/baikal/workspace/C50/Huawei_IoT_Agent_Tiny_SDK_Linux//lwm2m/core/registration.c ****         targetP = clientP->observationList;
1087:/home/baikal/workspace/C50/Huawei_IoT_Agent_Tiny_SDK_Linux//lwm2m/core/registration.c ****         clientP->observationList = clientP->observationList->next;
1088:/home/baikal/workspace/C50/Huawei_IoT_Agent_Tiny_SDK_Linux//lwm2m/core/registration.c ****         lwm2m_free(targetP);
1089:/home/baikal/workspace/C50/Huawei_IoT_Agent_Tiny_SDK_Linux//lwm2m/core/registration.c ****     }
1090:/home/baikal/workspace/C50/Huawei_IoT_Agent_Tiny_SDK_Linux//lwm2m/core/registration.c ****     lwm2m_free(clientP);
1091:/home/baikal/workspace/C50/Huawei_IoT_Agent_Tiny_SDK_Linux//lwm2m/core/registration.c **** }
1092:/home/baikal/workspace/C50/Huawei_IoT_Agent_Tiny_SDK_Linux//lwm2m/core/registration.c **** 
1093:/home/baikal/workspace/C50/Huawei_IoT_Agent_Tiny_SDK_Linux//lwm2m/core/registration.c **** static int prv_getLocationString(uint16_t id,
1094:/home/baikal/workspace/C50/Huawei_IoT_Agent_Tiny_SDK_Linux//lwm2m/core/registration.c ****                                  char location[MAX_LOCATION_LENGTH])
1095:/home/baikal/workspace/C50/Huawei_IoT_Agent_Tiny_SDK_Linux//lwm2m/core/registration.c **** {
1096:/home/baikal/workspace/C50/Huawei_IoT_Agent_Tiny_SDK_Linux//lwm2m/core/registration.c ****     int index;
1097:/home/baikal/workspace/C50/Huawei_IoT_Agent_Tiny_SDK_Linux//lwm2m/core/registration.c ****     int result;
1098:/home/baikal/workspace/C50/Huawei_IoT_Agent_Tiny_SDK_Linux//lwm2m/core/registration.c **** 
1099:/home/baikal/workspace/C50/Huawei_IoT_Agent_Tiny_SDK_Linux//lwm2m/core/registration.c ****     memset(location, 0, MAX_LOCATION_LENGTH);
1100:/home/baikal/workspace/C50/Huawei_IoT_Agent_Tiny_SDK_Linux//lwm2m/core/registration.c **** 
1101:/home/baikal/workspace/C50/Huawei_IoT_Agent_Tiny_SDK_Linux//lwm2m/core/registration.c ****     result = utils_stringCopy(location, MAX_LOCATION_LENGTH, "/"URI_REGISTRATION_SEGMENT"/");
1102:/home/baikal/workspace/C50/Huawei_IoT_Agent_Tiny_SDK_Linux//lwm2m/core/registration.c ****     if (result < 0) return 0;
1103:/home/baikal/workspace/C50/Huawei_IoT_Agent_Tiny_SDK_Linux//lwm2m/core/registration.c ****     index = result;
1104:/home/baikal/workspace/C50/Huawei_IoT_Agent_Tiny_SDK_Linux//lwm2m/core/registration.c **** 
1105:/home/baikal/workspace/C50/Huawei_IoT_Agent_Tiny_SDK_Linux//lwm2m/core/registration.c ****     result = utils_intToText(id, (uint8_t *)location + index, MAX_LOCATION_LENGTH - index);
1106:/home/baikal/workspace/C50/Huawei_IoT_Agent_Tiny_SDK_Linux//lwm2m/core/registration.c ****     if (result == 0) return 0;
1107:/home/baikal/workspace/C50/Huawei_IoT_Agent_Tiny_SDK_Linux//lwm2m/core/registration.c **** 
1108:/home/baikal/workspace/C50/Huawei_IoT_Agent_Tiny_SDK_Linux//lwm2m/core/registration.c ****     return index + result;
1109:/home/baikal/workspace/C50/Huawei_IoT_Agent_Tiny_SDK_Linux//lwm2m/core/registration.c **** }
1110:/home/baikal/workspace/C50/Huawei_IoT_Agent_Tiny_SDK_Linux//lwm2m/core/registration.c **** 
1111:/home/baikal/workspace/C50/Huawei_IoT_Agent_Tiny_SDK_Linux//lwm2m/core/registration.c **** uint8_t registration_handleRequest(lwm2m_context_t *contextP,
1112:/home/baikal/workspace/C50/Huawei_IoT_Agent_Tiny_SDK_Linux//lwm2m/core/registration.c ****                                    lwm2m_uri_t *uriP,
1113:/home/baikal/workspace/C50/Huawei_IoT_Agent_Tiny_SDK_Linux//lwm2m/core/registration.c ****                                    void *fromSessionH,
1114:/home/baikal/workspace/C50/Huawei_IoT_Agent_Tiny_SDK_Linux//lwm2m/core/registration.c ****                                    coap_packet_t *message,
1115:/home/baikal/workspace/C50/Huawei_IoT_Agent_Tiny_SDK_Linux//lwm2m/core/registration.c ****                                    coap_packet_t *response)
1116:/home/baikal/workspace/C50/Huawei_IoT_Agent_Tiny_SDK_Linux//lwm2m/core/registration.c **** {
1117:/home/baikal/workspace/C50/Huawei_IoT_Agent_Tiny_SDK_Linux//lwm2m/core/registration.c ****     uint8_t result;
1118:/home/baikal/workspace/C50/Huawei_IoT_Agent_Tiny_SDK_Linux//lwm2m/core/registration.c ****     time_t tv_sec;
1119:/home/baikal/workspace/C50/Huawei_IoT_Agent_Tiny_SDK_Linux//lwm2m/core/registration.c **** 
1120:/home/baikal/workspace/C50/Huawei_IoT_Agent_Tiny_SDK_Linux//lwm2m/core/registration.c ****     LOG_URI(uriP);
1121:/home/baikal/workspace/C50/Huawei_IoT_Agent_Tiny_SDK_Linux//lwm2m/core/registration.c ****     tv_sec = lwm2m_gettime();
1122:/home/baikal/workspace/C50/Huawei_IoT_Agent_Tiny_SDK_Linux//lwm2m/core/registration.c ****     if (tv_sec < 0) return COAP_500_INTERNAL_SERVER_ERROR;
1123:/home/baikal/workspace/C50/Huawei_IoT_Agent_Tiny_SDK_Linux//lwm2m/core/registration.c **** 
1124:/home/baikal/workspace/C50/Huawei_IoT_Agent_Tiny_SDK_Linux//lwm2m/core/registration.c ****     switch(message->code)
1125:/home/baikal/workspace/C50/Huawei_IoT_Agent_Tiny_SDK_Linux//lwm2m/core/registration.c ****     {
1126:/home/baikal/workspace/C50/Huawei_IoT_Agent_Tiny_SDK_Linux//lwm2m/core/registration.c ****     case COAP_POST:
1127:/home/baikal/workspace/C50/Huawei_IoT_Agent_Tiny_SDK_Linux//lwm2m/core/registration.c ****     {
GAS LISTING /tmp/ccTnshMj.s 			page 58


1128:/home/baikal/workspace/C50/Huawei_IoT_Agent_Tiny_SDK_Linux//lwm2m/core/registration.c ****         char *name = NULL;
1129:/home/baikal/workspace/C50/Huawei_IoT_Agent_Tiny_SDK_Linux//lwm2m/core/registration.c ****         uint32_t lifetime;
1130:/home/baikal/workspace/C50/Huawei_IoT_Agent_Tiny_SDK_Linux//lwm2m/core/registration.c ****         char *msisdn;
1131:/home/baikal/workspace/C50/Huawei_IoT_Agent_Tiny_SDK_Linux//lwm2m/core/registration.c ****         char *altPath;
1132:/home/baikal/workspace/C50/Huawei_IoT_Agent_Tiny_SDK_Linux//lwm2m/core/registration.c ****         char *version;
1133:/home/baikal/workspace/C50/Huawei_IoT_Agent_Tiny_SDK_Linux//lwm2m/core/registration.c ****         lwm2m_binding_t binding;
1134:/home/baikal/workspace/C50/Huawei_IoT_Agent_Tiny_SDK_Linux//lwm2m/core/registration.c ****         lwm2m_client_object_t *objects;
1135:/home/baikal/workspace/C50/Huawei_IoT_Agent_Tiny_SDK_Linux//lwm2m/core/registration.c ****         bool supportJSON;
1136:/home/baikal/workspace/C50/Huawei_IoT_Agent_Tiny_SDK_Linux//lwm2m/core/registration.c ****         lwm2m_client_t *clientP;
1137:/home/baikal/workspace/C50/Huawei_IoT_Agent_Tiny_SDK_Linux//lwm2m/core/registration.c ****         char location[MAX_LOCATION_LENGTH];
1138:/home/baikal/workspace/C50/Huawei_IoT_Agent_Tiny_SDK_Linux//lwm2m/core/registration.c **** 
1139:/home/baikal/workspace/C50/Huawei_IoT_Agent_Tiny_SDK_Linux//lwm2m/core/registration.c ****         if (0 != prv_getParameters(message->uri_query, &name, &lifetime, &msisdn, &binding, &versio
1140:/home/baikal/workspace/C50/Huawei_IoT_Agent_Tiny_SDK_Linux//lwm2m/core/registration.c ****         {
1141:/home/baikal/workspace/C50/Huawei_IoT_Agent_Tiny_SDK_Linux//lwm2m/core/registration.c ****             return COAP_400_BAD_REQUEST;
1142:/home/baikal/workspace/C50/Huawei_IoT_Agent_Tiny_SDK_Linux//lwm2m/core/registration.c ****         }
1143:/home/baikal/workspace/C50/Huawei_IoT_Agent_Tiny_SDK_Linux//lwm2m/core/registration.c ****         if (message->content_type != (coap_content_type_t)LWM2M_CONTENT_LINK
1144:/home/baikal/workspace/C50/Huawei_IoT_Agent_Tiny_SDK_Linux//lwm2m/core/registration.c ****                 && message->content_type != (coap_content_type_t)LWM2M_CONTENT_TEXT)
1145:/home/baikal/workspace/C50/Huawei_IoT_Agent_Tiny_SDK_Linux//lwm2m/core/registration.c ****         {
1146:/home/baikal/workspace/C50/Huawei_IoT_Agent_Tiny_SDK_Linux//lwm2m/core/registration.c ****             return COAP_400_BAD_REQUEST;
1147:/home/baikal/workspace/C50/Huawei_IoT_Agent_Tiny_SDK_Linux//lwm2m/core/registration.c ****         }
1148:/home/baikal/workspace/C50/Huawei_IoT_Agent_Tiny_SDK_Linux//lwm2m/core/registration.c **** 
1149:/home/baikal/workspace/C50/Huawei_IoT_Agent_Tiny_SDK_Linux//lwm2m/core/registration.c ****         objects = prv_decodeRegisterPayload(message->payload, message->payload_len, &supportJSON, &
1150:/home/baikal/workspace/C50/Huawei_IoT_Agent_Tiny_SDK_Linux//lwm2m/core/registration.c **** 
1151:/home/baikal/workspace/C50/Huawei_IoT_Agent_Tiny_SDK_Linux//lwm2m/core/registration.c ****         switch (uriP->flag & LWM2M_URI_MASK_ID)
1152:/home/baikal/workspace/C50/Huawei_IoT_Agent_Tiny_SDK_Linux//lwm2m/core/registration.c ****         {
1153:/home/baikal/workspace/C50/Huawei_IoT_Agent_Tiny_SDK_Linux//lwm2m/core/registration.c ****         case 0:
1154:/home/baikal/workspace/C50/Huawei_IoT_Agent_Tiny_SDK_Linux//lwm2m/core/registration.c ****             // Register operation
1155:/home/baikal/workspace/C50/Huawei_IoT_Agent_Tiny_SDK_Linux//lwm2m/core/registration.c ****             // Version is mandatory
1156:/home/baikal/workspace/C50/Huawei_IoT_Agent_Tiny_SDK_Linux//lwm2m/core/registration.c ****             if (version == NULL)
1157:/home/baikal/workspace/C50/Huawei_IoT_Agent_Tiny_SDK_Linux//lwm2m/core/registration.c ****             {
1158:/home/baikal/workspace/C50/Huawei_IoT_Agent_Tiny_SDK_Linux//lwm2m/core/registration.c ****                 if (name != NULL) lwm2m_free(name);
1159:/home/baikal/workspace/C50/Huawei_IoT_Agent_Tiny_SDK_Linux//lwm2m/core/registration.c ****                 if (msisdn != NULL) lwm2m_free(msisdn);
1160:/home/baikal/workspace/C50/Huawei_IoT_Agent_Tiny_SDK_Linux//lwm2m/core/registration.c ****                 return COAP_400_BAD_REQUEST;
1161:/home/baikal/workspace/C50/Huawei_IoT_Agent_Tiny_SDK_Linux//lwm2m/core/registration.c ****             }
1162:/home/baikal/workspace/C50/Huawei_IoT_Agent_Tiny_SDK_Linux//lwm2m/core/registration.c ****             // Endpoint client name is mandatory
1163:/home/baikal/workspace/C50/Huawei_IoT_Agent_Tiny_SDK_Linux//lwm2m/core/registration.c ****             if (name == NULL)
1164:/home/baikal/workspace/C50/Huawei_IoT_Agent_Tiny_SDK_Linux//lwm2m/core/registration.c ****             {
1165:/home/baikal/workspace/C50/Huawei_IoT_Agent_Tiny_SDK_Linux//lwm2m/core/registration.c ****                 lwm2m_free(version);
1166:/home/baikal/workspace/C50/Huawei_IoT_Agent_Tiny_SDK_Linux//lwm2m/core/registration.c ****                 if (msisdn != NULL) lwm2m_free(msisdn);
1167:/home/baikal/workspace/C50/Huawei_IoT_Agent_Tiny_SDK_Linux//lwm2m/core/registration.c ****                 return COAP_400_BAD_REQUEST;
1168:/home/baikal/workspace/C50/Huawei_IoT_Agent_Tiny_SDK_Linux//lwm2m/core/registration.c ****             }
1169:/home/baikal/workspace/C50/Huawei_IoT_Agent_Tiny_SDK_Linux//lwm2m/core/registration.c ****             // Object list is mandatory
1170:/home/baikal/workspace/C50/Huawei_IoT_Agent_Tiny_SDK_Linux//lwm2m/core/registration.c ****             if (objects == NULL)
1171:/home/baikal/workspace/C50/Huawei_IoT_Agent_Tiny_SDK_Linux//lwm2m/core/registration.c ****             {
1172:/home/baikal/workspace/C50/Huawei_IoT_Agent_Tiny_SDK_Linux//lwm2m/core/registration.c ****                 lwm2m_free(version);
1173:/home/baikal/workspace/C50/Huawei_IoT_Agent_Tiny_SDK_Linux//lwm2m/core/registration.c ****                 lwm2m_free(name);
1174:/home/baikal/workspace/C50/Huawei_IoT_Agent_Tiny_SDK_Linux//lwm2m/core/registration.c ****                 if (msisdn != NULL) lwm2m_free(msisdn);
1175:/home/baikal/workspace/C50/Huawei_IoT_Agent_Tiny_SDK_Linux//lwm2m/core/registration.c ****                 return COAP_400_BAD_REQUEST;
1176:/home/baikal/workspace/C50/Huawei_IoT_Agent_Tiny_SDK_Linux//lwm2m/core/registration.c ****             }
1177:/home/baikal/workspace/C50/Huawei_IoT_Agent_Tiny_SDK_Linux//lwm2m/core/registration.c ****             // version must be 1.0
1178:/home/baikal/workspace/C50/Huawei_IoT_Agent_Tiny_SDK_Linux//lwm2m/core/registration.c ****             if (strlen(version) != LWM2M_VERSION_LEN
1179:/home/baikal/workspace/C50/Huawei_IoT_Agent_Tiny_SDK_Linux//lwm2m/core/registration.c ****                     || lwm2m_strncmp(version, LWM2M_VERSION, LWM2M_VERSION_LEN))
1180:/home/baikal/workspace/C50/Huawei_IoT_Agent_Tiny_SDK_Linux//lwm2m/core/registration.c ****             {
1181:/home/baikal/workspace/C50/Huawei_IoT_Agent_Tiny_SDK_Linux//lwm2m/core/registration.c ****                 lwm2m_free(version);
1182:/home/baikal/workspace/C50/Huawei_IoT_Agent_Tiny_SDK_Linux//lwm2m/core/registration.c ****                 lwm2m_free(name);
1183:/home/baikal/workspace/C50/Huawei_IoT_Agent_Tiny_SDK_Linux//lwm2m/core/registration.c ****                 if (msisdn != NULL) lwm2m_free(msisdn);
1184:/home/baikal/workspace/C50/Huawei_IoT_Agent_Tiny_SDK_Linux//lwm2m/core/registration.c ****                 return COAP_412_PRECONDITION_FAILED;
GAS LISTING /tmp/ccTnshMj.s 			page 59


1185:/home/baikal/workspace/C50/Huawei_IoT_Agent_Tiny_SDK_Linux//lwm2m/core/registration.c ****             }
1186:/home/baikal/workspace/C50/Huawei_IoT_Agent_Tiny_SDK_Linux//lwm2m/core/registration.c **** 
1187:/home/baikal/workspace/C50/Huawei_IoT_Agent_Tiny_SDK_Linux//lwm2m/core/registration.c ****             if (lifetime == 0)
1188:/home/baikal/workspace/C50/Huawei_IoT_Agent_Tiny_SDK_Linux//lwm2m/core/registration.c ****             {
1189:/home/baikal/workspace/C50/Huawei_IoT_Agent_Tiny_SDK_Linux//lwm2m/core/registration.c ****                 lifetime = LWM2M_DEFAULT_LIFETIME;
1190:/home/baikal/workspace/C50/Huawei_IoT_Agent_Tiny_SDK_Linux//lwm2m/core/registration.c ****             }
1191:/home/baikal/workspace/C50/Huawei_IoT_Agent_Tiny_SDK_Linux//lwm2m/core/registration.c **** 
1192:/home/baikal/workspace/C50/Huawei_IoT_Agent_Tiny_SDK_Linux//lwm2m/core/registration.c ****             clientP = prv_getClientByName(contextP, name);
1193:/home/baikal/workspace/C50/Huawei_IoT_Agent_Tiny_SDK_Linux//lwm2m/core/registration.c ****             if (clientP != NULL)
1194:/home/baikal/workspace/C50/Huawei_IoT_Agent_Tiny_SDK_Linux//lwm2m/core/registration.c ****             {
1195:/home/baikal/workspace/C50/Huawei_IoT_Agent_Tiny_SDK_Linux//lwm2m/core/registration.c ****                 // we reset this registration
1196:/home/baikal/workspace/C50/Huawei_IoT_Agent_Tiny_SDK_Linux//lwm2m/core/registration.c ****                 lwm2m_free(clientP->name);
1197:/home/baikal/workspace/C50/Huawei_IoT_Agent_Tiny_SDK_Linux//lwm2m/core/registration.c ****                 if (clientP->msisdn != NULL) lwm2m_free(clientP->msisdn);
1198:/home/baikal/workspace/C50/Huawei_IoT_Agent_Tiny_SDK_Linux//lwm2m/core/registration.c ****                 if (clientP->altPath != NULL) lwm2m_free(clientP->altPath);
1199:/home/baikal/workspace/C50/Huawei_IoT_Agent_Tiny_SDK_Linux//lwm2m/core/registration.c ****                 prv_freeClientObjectList(clientP->objectList);
1200:/home/baikal/workspace/C50/Huawei_IoT_Agent_Tiny_SDK_Linux//lwm2m/core/registration.c ****                 clientP->objectList = NULL;
1201:/home/baikal/workspace/C50/Huawei_IoT_Agent_Tiny_SDK_Linux//lwm2m/core/registration.c ****             }
1202:/home/baikal/workspace/C50/Huawei_IoT_Agent_Tiny_SDK_Linux//lwm2m/core/registration.c ****             else
1203:/home/baikal/workspace/C50/Huawei_IoT_Agent_Tiny_SDK_Linux//lwm2m/core/registration.c ****             {
1204:/home/baikal/workspace/C50/Huawei_IoT_Agent_Tiny_SDK_Linux//lwm2m/core/registration.c ****                 clientP = (lwm2m_client_t *)lwm2m_malloc(sizeof(lwm2m_client_t));
1205:/home/baikal/workspace/C50/Huawei_IoT_Agent_Tiny_SDK_Linux//lwm2m/core/registration.c ****                 if (clientP == NULL)
1206:/home/baikal/workspace/C50/Huawei_IoT_Agent_Tiny_SDK_Linux//lwm2m/core/registration.c ****                 {
1207:/home/baikal/workspace/C50/Huawei_IoT_Agent_Tiny_SDK_Linux//lwm2m/core/registration.c ****                     lwm2m_free(name);
1208:/home/baikal/workspace/C50/Huawei_IoT_Agent_Tiny_SDK_Linux//lwm2m/core/registration.c ****                     lwm2m_free(altPath);
1209:/home/baikal/workspace/C50/Huawei_IoT_Agent_Tiny_SDK_Linux//lwm2m/core/registration.c ****                     if (msisdn != NULL) lwm2m_free(msisdn);
1210:/home/baikal/workspace/C50/Huawei_IoT_Agent_Tiny_SDK_Linux//lwm2m/core/registration.c ****                     prv_freeClientObjectList(objects);
1211:/home/baikal/workspace/C50/Huawei_IoT_Agent_Tiny_SDK_Linux//lwm2m/core/registration.c ****                     return COAP_500_INTERNAL_SERVER_ERROR;
1212:/home/baikal/workspace/C50/Huawei_IoT_Agent_Tiny_SDK_Linux//lwm2m/core/registration.c ****                 }
1213:/home/baikal/workspace/C50/Huawei_IoT_Agent_Tiny_SDK_Linux//lwm2m/core/registration.c ****                 memset(clientP, 0, sizeof(lwm2m_client_t));
1214:/home/baikal/workspace/C50/Huawei_IoT_Agent_Tiny_SDK_Linux//lwm2m/core/registration.c ****                 clientP->internalID = lwm2m_list_newId((lwm2m_list_t *)contextP->clientList);
1215:/home/baikal/workspace/C50/Huawei_IoT_Agent_Tiny_SDK_Linux//lwm2m/core/registration.c ****                 contextP->clientList = (lwm2m_client_t *)LWM2M_LIST_ADD(contextP->clientList, clien
1216:/home/baikal/workspace/C50/Huawei_IoT_Agent_Tiny_SDK_Linux//lwm2m/core/registration.c ****             }
1217:/home/baikal/workspace/C50/Huawei_IoT_Agent_Tiny_SDK_Linux//lwm2m/core/registration.c ****             clientP->name = name;
1218:/home/baikal/workspace/C50/Huawei_IoT_Agent_Tiny_SDK_Linux//lwm2m/core/registration.c ****             clientP->binding = binding;
1219:/home/baikal/workspace/C50/Huawei_IoT_Agent_Tiny_SDK_Linux//lwm2m/core/registration.c ****             clientP->msisdn = msisdn;
1220:/home/baikal/workspace/C50/Huawei_IoT_Agent_Tiny_SDK_Linux//lwm2m/core/registration.c ****             clientP->altPath = altPath;
1221:/home/baikal/workspace/C50/Huawei_IoT_Agent_Tiny_SDK_Linux//lwm2m/core/registration.c ****             clientP->supportJSON = supportJSON;
1222:/home/baikal/workspace/C50/Huawei_IoT_Agent_Tiny_SDK_Linux//lwm2m/core/registration.c ****             clientP->lifetime = lifetime;
1223:/home/baikal/workspace/C50/Huawei_IoT_Agent_Tiny_SDK_Linux//lwm2m/core/registration.c ****             clientP->endOfLife = tv_sec + lifetime;
1224:/home/baikal/workspace/C50/Huawei_IoT_Agent_Tiny_SDK_Linux//lwm2m/core/registration.c ****             clientP->objectList = objects;
1225:/home/baikal/workspace/C50/Huawei_IoT_Agent_Tiny_SDK_Linux//lwm2m/core/registration.c ****             clientP->sessionH = fromSessionH;
1226:/home/baikal/workspace/C50/Huawei_IoT_Agent_Tiny_SDK_Linux//lwm2m/core/registration.c **** 
1227:/home/baikal/workspace/C50/Huawei_IoT_Agent_Tiny_SDK_Linux//lwm2m/core/registration.c ****             if (prv_getLocationString(clientP->internalID, location) == 0)
1228:/home/baikal/workspace/C50/Huawei_IoT_Agent_Tiny_SDK_Linux//lwm2m/core/registration.c ****             {
1229:/home/baikal/workspace/C50/Huawei_IoT_Agent_Tiny_SDK_Linux//lwm2m/core/registration.c ****                 registration_freeClient(clientP);
1230:/home/baikal/workspace/C50/Huawei_IoT_Agent_Tiny_SDK_Linux//lwm2m/core/registration.c ****                 return COAP_500_INTERNAL_SERVER_ERROR;
1231:/home/baikal/workspace/C50/Huawei_IoT_Agent_Tiny_SDK_Linux//lwm2m/core/registration.c ****             }
1232:/home/baikal/workspace/C50/Huawei_IoT_Agent_Tiny_SDK_Linux//lwm2m/core/registration.c ****             if (coap_set_header_location_path(response, location) == 0)
1233:/home/baikal/workspace/C50/Huawei_IoT_Agent_Tiny_SDK_Linux//lwm2m/core/registration.c ****             {
1234:/home/baikal/workspace/C50/Huawei_IoT_Agent_Tiny_SDK_Linux//lwm2m/core/registration.c ****                 registration_freeClient(clientP);
1235:/home/baikal/workspace/C50/Huawei_IoT_Agent_Tiny_SDK_Linux//lwm2m/core/registration.c ****                 return COAP_500_INTERNAL_SERVER_ERROR;
1236:/home/baikal/workspace/C50/Huawei_IoT_Agent_Tiny_SDK_Linux//lwm2m/core/registration.c ****             }
1237:/home/baikal/workspace/C50/Huawei_IoT_Agent_Tiny_SDK_Linux//lwm2m/core/registration.c **** 
1238:/home/baikal/workspace/C50/Huawei_IoT_Agent_Tiny_SDK_Linux//lwm2m/core/registration.c ****             if (contextP->monitorCallback != NULL)
1239:/home/baikal/workspace/C50/Huawei_IoT_Agent_Tiny_SDK_Linux//lwm2m/core/registration.c ****             {
1240:/home/baikal/workspace/C50/Huawei_IoT_Agent_Tiny_SDK_Linux//lwm2m/core/registration.c ****                 contextP->monitorCallback(clientP->internalID, NULL, COAP_201_CREATED, LWM2M_CONTEN
1241:/home/baikal/workspace/C50/Huawei_IoT_Agent_Tiny_SDK_Linux//lwm2m/core/registration.c ****             }
GAS LISTING /tmp/ccTnshMj.s 			page 60


1242:/home/baikal/workspace/C50/Huawei_IoT_Agent_Tiny_SDK_Linux//lwm2m/core/registration.c ****             result = COAP_201_CREATED;
1243:/home/baikal/workspace/C50/Huawei_IoT_Agent_Tiny_SDK_Linux//lwm2m/core/registration.c ****             break;
